L251 LINKER/LOCATER V4.66.93.0                                                          09/12/2025  17:12:15  PAGE 1


L251 LINKER/LOCATER V4.66.93.0, INVOKED BY:
D:\KEIL\C251\BIN\L251.EXE .\out_file\ai8051u_isr.obj, .\out_file\zf_common_clock.obj, .\out_file\zf_common_debug.obj, .\
>> out_file\zf_common_fifo.obj, .\out_file\zf_common_font.obj, .\out_file\zf_common_function.obj, .\out_file\zf_common_t
>> ypedef.obj, .\out_file\zf_common_interrupt.obj, .\out_file\START251.obj, .\out_file\zf_driver_adc.obj, .\out_file\zf_
>> driver_delay.obj, .\out_file\zf_driver_eeprom.obj, .\out_file\zf_driver_encoder.obj, .\out_file\zf_driver_exti.obj, .
>> \out_file\zf_driver_gpio.obj, .\out_file\zf_driver_pit.obj, .\out_file\zf_driver_pwm.obj, .\out_file\zf_driver_soft_i
>> ic.obj, .\out_file\zf_driver_soft_spi.obj, .\out_file\zf_driver_spi.obj, .\out_file\zf_driver_timer.obj, .\out_file\z
>> f_driver_uart.obj, .\out_file\zf_device_config.obj, .\out_file\zf_device_type.obj, .\out_file\zf_device_tft180.obj, .
>> \out_file\zf_device_ips114.obj, .\out_file\zf_device_ips200.obj, .\out_file\zf_device_dl1a.obj, .\out_file\zf_device_
>> ble6a20.obj, .\out_file\zf_device_wireless_uart.obj, .\out_file\zf_device_icm20602.obj, .\out_file\zf_device_imu660ra
>> .obj, .\out_file\zf_device_imu660rb.obj, .\out_file\zf_device_imu963ra.obj, .\out_file\zf_device_gps_tau1201.obj, .\o
>> ut_file\zf_device_tsl1401.obj, .\out_file\seekfree_assistant.obj, .\out_file\seekfree_assistant_interface.obj, .\out_
>> file\isr.obj, .\out_file\main.obj, .\out_file\ADC_Get.obj, .\out_file\control.obj, .\out_file\eeprom.obj, .\out_file\
>> function.obj, .\out_file\Key.obj, .\out_file\menu.obj, .\out_file\menu_font.obj TO .\out_file\SEEKFREE PRINT (.\out_f
>> ile\SEEKFREE.map) CASE DISABLEWARNING (57, 16) REMOVEUNUSED CLASSES (EDATA (0X0-0X7FF), HDATA (0X0-0X7FF))


CPU MODE:     251 SOURCE MODE
INTR FRAME:   4 BYTES SAVED ON INTERRUPT
MEMORY MODEL: LARGE WITH DOUBLE PRECISION FLOATING POINT ARITHMETIC


INPUT MODULES INCLUDED:
  .\out_file\ai8051u_isr.obj (ai8051u_isr)
         COMMENT TYPE 0: A251 V4.69.13.0
  .\out_file\zf_common_clock.obj (zf_common_clock)
         COMMENT TYPE 0: C251 V5.60.0
  .\out_file\zf_common_debug.obj (zf_common_debug)
         COMMENT TYPE 0: C251 V5.60.0
  .\out_file\zf_common_fifo.obj (zf_common_fifo)
         COMMENT TYPE 0: C251 V5.60.0
  .\out_file\zf_common_font.obj (zf_common_font)
         COMMENT TYPE 0: C251 V5.60.0
  .\out_file\zf_common_function.obj (zf_common_function)
         COMMENT TYPE 0: C251 V5.60.0
  .\out_file\zf_common_typedef.obj (zf_common_typedef)
         COMMENT TYPE 0: C251 V5.60.0
  .\out_file\zf_common_interrupt.obj (zf_common_interrupt)
         COMMENT TYPE 0: C251 V5.60.0
  .\out_file\START251.obj (?C_START)
         COMMENT TYPE 0: A251 V4.69.13.0
  .\out_file\zf_driver_adc.obj (zf_driver_adc)
         COMMENT TYPE 0: C251 V5.60.0
  .\out_file\zf_driver_delay.obj (zf_driver_delay)
         COMMENT TYPE 0: C251 V5.60.0
  .\out_file\zf_driver_eeprom.obj (zf_driver_eeprom)
         COMMENT TYPE 0: C251 V5.60.0
  .\out_file\zf_driver_encoder.obj (zf_driver_encoder)
         COMMENT TYPE 0: C251 V5.60.0
  .\out_file\zf_driver_exti.obj (zf_driver_exti)
         COMMENT TYPE 0: C251 V5.60.0
  .\out_file\zf_driver_gpio.obj (zf_driver_gpio)
         COMMENT TYPE 0: C251 V5.60.0
  .\out_file\zf_driver_pit.obj (zf_driver_pit)
         COMMENT TYPE 0: C251 V5.60.0
  .\out_file\zf_driver_pwm.obj (zf_driver_pwm)
         COMMENT TYPE 0: C251 V5.60.0
  .\out_file\zf_driver_soft_iic.obj (zf_driver_soft_iic)
         COMMENT TYPE 0: C251 V5.60.0
  .\out_file\zf_driver_soft_spi.obj (zf_driver_soft_spi)
         COMMENT TYPE 0: C251 V5.60.0
  .\out_file\zf_driver_spi.obj (zf_driver_spi)
         COMMENT TYPE 0: C251 V5.60.0
  .\out_file\zf_driver_timer.obj (zf_driver_timer)
         COMMENT TYPE 0: C251 V5.60.0
  .\out_file\zf_driver_uart.obj (zf_driver_uart)
L251 LINKER/LOCATER V4.66.93.0                                                        09/12/2025  17:12:15  PAGE 2


         COMMENT TYPE 0: C251 V5.60.0
  .\out_file\zf_device_config.obj (zf_device_config)
         COMMENT TYPE 0: C251 V5.60.0
  .\out_file\zf_device_type.obj (zf_device_type)
         COMMENT TYPE 0: C251 V5.60.0
  .\out_file\zf_device_tft180.obj (zf_device_tft180)
         COMMENT TYPE 0: C251 V5.60.0
  .\out_file\zf_device_ips114.obj (zf_device_ips114)
         COMMENT TYPE 0: C251 V5.60.0
  .\out_file\zf_device_ips200.obj (zf_device_ips200)
         COMMENT TYPE 0: C251 V5.60.0
  .\out_file\zf_device_dl1a.obj (zf_device_dl1a)
         COMMENT TYPE 0: C251 V5.60.0
  .\out_file\zf_device_ble6a20.obj (zf_device_ble6a20)
         COMMENT TYPE 0: C251 V5.60.0
  .\out_file\zf_device_wireless_uart.obj (zf_device_wireless_uart)
         COMMENT TYPE 0: C251 V5.60.0
  .\out_file\zf_device_icm20602.obj (zf_device_icm20602)
         COMMENT TYPE 0: C251 V5.60.0
  .\out_file\zf_device_imu660ra.obj (zf_device_imu660ra)
         COMMENT TYPE 0: C251 V5.60.0
  .\out_file\zf_device_imu660rb.obj (zf_device_imu660rb)
         COMMENT TYPE 0: C251 V5.60.0
  .\out_file\zf_device_imu963ra.obj (zf_device_imu963ra)
         COMMENT TYPE 0: C251 V5.60.0
  .\out_file\zf_device_gps_tau1201.obj (zf_device_gps_tau1201)
         COMMENT TYPE 0: C251 V5.60.0
  .\out_file\zf_device_tsl1401.obj (zf_device_tsl1401)
         COMMENT TYPE 0: C251 V5.60.0
  .\out_file\seekfree_assistant.obj (seekfree_assistant)
         COMMENT TYPE 0: C251 V5.60.0
  .\out_file\seekfree_assistant_interface.obj (seekfree_assistant_interface)
         COMMENT TYPE 0: C251 V5.60.0
  .\out_file\isr.obj (isr)
         COMMENT TYPE 0: C251 V5.60.0
  .\out_file\main.obj (main)
         COMMENT TYPE 0: C251 V5.60.0
  .\out_file\ADC_Get.obj (ADC_Get)
         COMMENT TYPE 0: C251 V5.60.0
  .\out_file\control.obj (control)
         COMMENT TYPE 0: C251 V5.60.0
  .\out_file\eeprom.obj (eeprom)
         COMMENT TYPE 0: C251 V5.60.0
  .\out_file\function.obj (function)
         COMMENT TYPE 0: C251 V5.60.0
  .\out_file\Key.obj (Key)
         COMMENT TYPE 0: C251 V5.60.0
  .\out_file\menu.obj (menu)
         COMMENT TYPE 0: C251 V5.60.0
  .\out_file\menu_font.obj (menu_font)
         COMMENT TYPE 0: C251 V5.60.0
  D:\KEIL\C251\LIB\C2SDPL.LIB (?C?DPADD)
         COMMENT TYPE 0: A251 V4.69.6.0
  D:\KEIL\C251\LIB\C2SDPL.LIB (?C?DPMUL)
         COMMENT TYPE 0: A251 V4.69.6.0
  D:\KEIL\C251\LIB\C2SDPL.LIB (?C?DPDIV)
         COMMENT TYPE 0: A251 V4.69.6.0
  D:\KEIL\C251\LIB\C2SDPL.LIB (?C?DPCMP)
         COMMENT TYPE 0: A251 V4.69.6.0
  D:\KEIL\C251\LIB\C2SDPL.LIB (?C?DPNEG)
         COMMENT TYPE 0: A251 V4.69.6.0
  D:\KEIL\C251\LIB\C2SDPL.LIB (?C?DCAST)
         COMMENT TYPE 0: A251 V4.69.6.0
  D:\KEIL\C251\LIB\C2SDPL.LIB (?C?CASTD)
         COMMENT TYPE 0: A251 V4.69.6.0
L251 LINKER/LOCATER V4.66.93.0                                                        09/12/2025  17:12:15  PAGE 3


  D:\KEIL\C251\LIB\C2SDPL.LIB (?C?DCASTF)
         COMMENT TYPE 0: A251 V4.69.6.0
  D:\KEIL\C251\LIB\C2SDPL.LIB (?C?FCASTD)
         COMMENT TYPE 0: A251 V4.69.6.0
  D:\KEIL\C251\LIB\C2SDPL.LIB (PRINTF)
         COMMENT TYPE 0: A251 V4.69.6.0
  D:\KEIL\C251\LIB\C2SDPL.LIB (SPRINTF)
         COMMENT TYPE 0: A251 V4.69.6.0
  D:\KEIL\C251\LIB\C2SDPL.LIB (SQRT?_)
         COMMENT TYPE 0: A251 V4.69.6.0
  D:\KEIL\C251\LIB\C2SDPL.LIB (pow)
         COMMENT TYPE 0: C251 V5.58.7
  D:\KEIL\C251\LIB\C2SDPL.LIB (SIN?_)
         COMMENT TYPE 0: A251 V4.69.6.0
  D:\KEIL\C251\LIB\C2SDPL.LIB (ATAN?_)
         COMMENT TYPE 0: A251 V4.69.6.0
  D:\KEIL\C251\LIB\C2SDPL.LIB (ASIN?_)
         COMMENT TYPE 0: A251 V4.69.6.0
  D:\KEIL\C251\LIB\C2SDPL.LIB (?C?DPGETOPN)
         COMMENT TYPE 0: A251 V4.69.6.0
  D:\KEIL\C251\LIB\C2SDPL.LIB (_CHKDOUBLE_?_)
         COMMENT TYPE 0: A251 V4.69.6.0
  D:\KEIL\C251\LIB\C2SDPL.LIB (?C?PRNFMT)
         COMMENT TYPE 0: A251 V4.69.6.0
  D:\KEIL\C251\LIB\C2SDPL.LIB (?C?DPSERIES)
         COMMENT TYPE 0: A251 V4.69.6.0
  D:\KEIL\C251\LIB\C2SDPL.LIB (EXP?_)
         COMMENT TYPE 0: A251 V4.69.6.0
  D:\KEIL\C251\LIB\C2SDPL.LIB (LOG?_)
         COMMENT TYPE 0: A251 V4.69.6.0
  D:\KEIL\C251\LIB\C2SDPL.LIB (?C?DPCONVERT)
         COMMENT TYPE 0: A251 V4.69.6.0
  D:\KEIL\C251\LIB\C2SDPL.LIB (?C?DTNPWR)
         COMMENT TYPE 0: A251 V4.69.6.0
  D:\KEIL\C251\LIB\C2SFPL.LIB (?C?FPGETOPN)
         COMMENT TYPE 0: A251 V4.69.6.0
  D:\KEIL\C251\LIB\C2SFPL.LIB (?C?FPADD)
         COMMENT TYPE 0: A251 V4.69.6.0
  D:\KEIL\C251\LIB\C2SFPL.LIB (?C?FPMUL)
         COMMENT TYPE 0: A251 V4.69.6.0
  D:\KEIL\C251\LIB\C2SFPL.LIB (?C?FPDIV)
         COMMENT TYPE 0: A251 V4.69.6.0
  D:\KEIL\C251\LIB\C2SFPL.LIB (?C?FPCMP)
         COMMENT TYPE 0: A251 V4.69.6.0
  D:\KEIL\C251\LIB\C2SFPL.LIB (?C?FPNEG)
         COMMENT TYPE 0: A251 V4.69.6.0
  D:\KEIL\C251\LIB\C2SFPL.LIB (?C?FCAST)
         COMMENT TYPE 0: A251 V4.69.6.0
  D:\KEIL\C251\LIB\C2SFPL.LIB (?C?CASTF)
         COMMENT TYPE 0: A251 V4.69.6.0
  D:\KEIL\C251\LIB\C2SL.LIB (?C?INITHDATA)
         COMMENT TYPE 0: A251 V4.69.6.0
  D:\KEIL\C251\LIB\C2SL.LIB (?C?SIDIV)
         COMMENT TYPE 0: A251 V4.69.6.0
  D:\KEIL\C251\LIB\C2SL.LIB (?C?LMUL)
         COMMENT TYPE 0: A251 V4.69.6.0
  D:\KEIL\C251\LIB\C2SL.LIB (?C?LIMUL)
         COMMENT TYPE 0: A251 V4.69.6.0
  D:\KEIL\C251\LIB\C2SL.LIB (?C?ULDIV)
         COMMENT TYPE 0: A251 V4.69.6.0
  D:\KEIL\C251\LIB\C2SL.LIB (?C?SLDIV)
         COMMENT TYPE 0: A251 V4.69.6.0
  D:\KEIL\C251\LIB\C2SL.LIB (?C?BMOVEPP)
         COMMENT TYPE 0: A251 V4.69.6.0
  D:\KEIL\C251\LIB\C2SL.LIB (STRNCMP)
L251 LINKER/LOCATER V4.66.93.0                                                        09/12/2025  17:12:15  PAGE 4


         COMMENT TYPE 0: C251 V5.58.7
  D:\KEIL\C251\LIB\C2SL.LIB (STRNCPY)
         COMMENT TYPE 0: C251 V5.58.7
  D:\KEIL\C251\LIB\C2SL.LIB (STRLEN)
         COMMENT TYPE 0: C251 V5.58.7
  D:\KEIL\C251\LIB\C2SL.LIB (STRCHR)
         COMMENT TYPE 0: C251 V5.58.7
  D:\KEIL\C251\LIB\C2SL.LIB (memcpy)
         COMMENT TYPE 0: C251 V5.58.7
  D:\KEIL\C251\LIB\C2SL.LIB (memset)
         COMMENT TYPE 0: C251 V5.58.7
  D:\KEIL\C251\LIB\C2SL.LIB (?C?INITHDATA_END)
         COMMENT TYPE 0: A251 V4.69.6.0


ACTIVE MEMORY CLASSES OF MODULE:  .\out_file\SEEKFREE (ai8051u_isr)

BASE        START       END         USED      MEMORY CLASS
==========================================================
000000H     000000H     0007FFH     000700H   EDATA
000000H     000000H     0007FFH               HDATA
FF0000H     FF0000H     FFFFFFH     008C63H   CODE
010000H     010000H     01FFFFH     000DA9H   XDATA
000000H     FF0000H     FFFFFFH     00189AH   HCONST
000020H.0   000020H.0   00002FH.7   000000H.3 BIT
FF0000H     FF0000H     FFFFFFH     000004H   CONST
000000H     000000H     00007FH     000008H   DATA


MEMORY MAP OF MODULE:  .\out_file\SEEKFREE (ai8051u_isr)


START     STOP      LENGTH    ALIGN  RELOC    MEMORY CLASS   SEGMENT NAME
=========================================================================
000000H   000007H   000008H   ---    AT..     DATA           "REG BANK 0"
000008H.0 00001FH.7 000018H.0 ---    ---      **GAP**
000020H.0 000020H.1 000000H.2 BIT    UNIT     BIT            _BIT_GROUP_
000020H.2 000020H.2 000000H.1 BIT    UNIT     BIT            ?BI?ADC_GET
000020H.3 000020H   000000H.5 ---    ---      **GAP**
000021H   000720H   000700H   BYTE   UNIT     EDATA          ?STACK
000721H   00FFFFH   00F8DFH   ---    ---      **GAP**
010000H   01043AH   00043BH   BYTE   INSEG    XDATA          ?XD?MENU_FONT
01043BH   010640H   000206H   BYTE   UNIT     XDATA          _XDATA_GROUP_
010641H   010842H   000202H   BYTE   INSEG    XDATA          ?XD?ZF_DEVICE_TSL1401
010843H   010A12H   0001D0H   BYTE   INSEG    XDATA          ?XD?ZF_DEVICE_GPS_TAU1201
010A13H   010B4FH   00013DH   BYTE   INSEG    XDATA          ?XD?SEEKFREE_ASSISTANT
010B50H   010BA8H   000059H   BYTE   INSEG    XDATA          ?XD?ZF_COMMON_DEBUG
010BA9H   010BFFH   000057H   BYTE   INSEG    XDATA          ?XD?ZF_DEVICE_BLE6A20
010C00H   010C56H   000057H   BYTE   INSEG    XDATA          ?XD?ZF_DEVICE_WIRELESS_UART
010C57H   010C86H   000030H   BYTE   INSEG    XDATA          ?XD?ADC_GET
010C87H   010CB2H   00002CH   BYTE   INSEG    XDATA          ?XD?CONTROL
010CB3H   010CD0H   00001EH   BYTE   INSEG    XDATA          ?XD?ZF_COMMON_TYPEDEF
010CD1H   010CEEH   00001EH   BYTE   INSEG    XDATA          ?XD?ZF_DEVICE_IMU963RA
010CEFH   010D02H   000014H   BYTE   INSEG    XDATA          ?XD?ZF_DEVICE_ICM20602
010D03H   010D16H   000014H   BYTE   INSEG    XDATA          ?XD?ZF_DEVICE_IMU660RA
010D17H   010D23H   00000DH   BYTE   INSEG    XDATA          ?XD?ZF_DEVICE_DL1A
010D24H   010D2FH   00000CH   BYTE   INSEG    XDATA          ?XD?ZF_DRIVER_TIMER
010D30H   010D3BH   00000CH   BYTE   INSEG    XDATA          ?XD?ZF_DRIVER_UART
010D3CH   010D47H   00000CH   BYTE   INSEG    XDATA          ?XD?ZF_DEVICE_IMU660RB
010D48H   010D53H   00000CH   BYTE   INSEG    XDATA          ?XD?MENU
010D54H   010D5DH   00000AH   BYTE   INSEG    XDATA          ?XD?ZF_DEVICE_IPS200
010D5EH   010D67H   00000AH   BYTE   INSEG    XDATA          ?XD?KEY
010D68H   010D6FH   000008H   BYTE   UNIT     XDATA          ?XD?SOFT_IIC_DELAY?ZF_DRIVER_SOFT_IIC
010D70H   010D77H   000008H   BYTE   INSEG    XDATA          ?XD?ZF_DEVICE_TYPE
010D78H   010D7FH   000008H   BYTE   INSEG    XDATA          ?XD?ZF_DEVICE_TFT180
L251 LINKER/LOCATER V4.66.93.0                                                        09/12/2025  17:12:15  PAGE 5


010D80H   010D87H   000008H   BYTE   INSEG    XDATA          ?XD?ZF_DEVICE_IPS114
010D88H   010D8DH   000006H   BYTE   INSEG    XDATA          ?XD?ZF_DRIVER_ENCODER
010D8EH   010D93H   000006H   BYTE   INSEG    XDATA          ?XD?MAIN
010D94H   010D97H   000004H   BYTE   INSEG    XDATA          ?XD?ZF_COMMON_CLOCK
010D98H   010D9BH   000004H   BYTE   INSEG    XDATA          ?XD?ZF_DRIVER_DELAY
010D9CH   010D9FH   000004H   BYTE   INSEG    XDATA          ?XD?SEEKFREE_ASSISTANT_INTERFACE
010DA0H   010DA2H   000003H   BYTE   UNIT     XDATA          ?XD?SOFT_IIC_READ_DATA?ZF_DRIVER_SOFT_IIC
010DA3H   010DA4H   000002H   BYTE   UNIT     XDATA          ?XD?SOFT_IIC_SEND_DATA?ZF_DRIVER_SOFT_IIC
010DA5H   010DA5H   000001H   BYTE   INSEG    XDATA          ?XD?ZF_DRIVER_ADC
010DA6H   010DA6H   000001H   BYTE   UNIT     XDATA          ?XD?SOFT_IIC_SEND_ACK?ZF_DRIVER_SOFT_IIC
010DA7H   010DA7H   000001H   BYTE   UNIT     XDATA          ?XD?SOFT_IIC_WAIT_ACK?ZF_DRIVER_SOFT_IIC
010DA8H   010DA8H   000001H   BYTE   INSEG    XDATA          ?XD?ISR
010DA9H   FEFFFFH   FDF257H   ---    ---      **GAP**
FF0000H   FF0002H   000003H   ---    OFFS..   CODE           ?CO?START251?4
FF0003H   FF0009H   000007H   BYTE   INSEG    CODE           ?PR?IAP_INIT?ZF_DRIVER_EEPROM
FF000AH   FF000AH   000001H   ---    ---      **GAP**
FF000BH   FF000DH   000003H   ---    OFFS..   CODE           ?PR?IV?1
FF000EH   FF001AH   00000DH   BYTE   INSEG    CODE           ?PR?TFT180_SET_COLOR?ZF_DEVICE_TFT180
FF001BH   FF001DH   000003H   ---    OFFS..   CODE           ?PR?IV?3
FF001EH   FF0020H   000003H   BYTE   INSEG    CODE           ?PR?INTERRUPT_GLOBAL_ENABLE?ZF_COMMON_INTERRUPT
FF0021H   FF0022H   000002H   BYTE   UNIT     HCONST         ?HC?MAIN
FF0023H   FF0025H   000003H   ---    OFFS..   CODE           ?PR?IV?4
FF0026H   FF0042H   00001DH   BYTE   INSEG    CODE           ?PR?SERVO_INIT?FUNCTION
FF0043H   FF0045H   000003H   ---    OFFS..   CODE           ?PR?IV?8
FF0046H   FF0061H   00001CH   BYTE   INSEG    CODE           ?PR?IAP_SET_TPS?ZF_DRIVER_EEPROM
FF0062H   FF0062H   000001H   ---    ---      **GAP**
FF0063H   FF0065H   000003H   ---    OFFS..   CODE           ?PR?IV?12
FF0066H   FF008AH   000025H   BYTE   INSEG    CODE           ?PR?MAIN?MAIN
FF008BH   FF008DH   000003H   ---    OFFS..   CODE           ?PR?IV?17
FF008EH   FF0091H   000004H   BYTE   UNIT     CONST          ?CO?PRINTF
FF0092H   FF0092H   000001H   ---    ---      **GAP**
FF0093H   FF0095H   000003H   ---    OFFS..   CODE           ?PR?IV?18
FF0096H   FF009AH   000005H   ---    ---      **GAP**
FF009BH   FF009DH   000003H   ---    OFFS..   CODE           ?PR?IV?19
FF009EH   FF00A2H   000005H   ---    ---      **GAP**
FF00A3H   FF00A5H   000003H   ---    OFFS..   CODE           ?PR?IV?20
FF00A6H   FF00BFH   00001AH   BYTE   INSEG    CODE           ?PR?MENU_INIT?MENU
FF00C0H   FF00C2H   000003H   ---    ---      **GAP**
FF00C3H   FF00C5H   000003H   ---    OFFS..   CODE           ?PR?IV?24
FF00C6H   FF0198H   0000D3H   BYTE   INSEG    CODE           ?PR?GPIO_GET_LEVEL?ZF_DRIVER_GPIO
FF0199H   FF019AH   000002H   ---    ---      **GAP**
FF019BH   FF019DH   000003H   ---    OFFS..   CODE           ?CO?ai8051u_isr?1
FF019EH   FF01A8H   00000BH   BYTE   INSEG    CODE           ?PR?EEPROM_TRIG?ZF_DRIVER_EEPROM
FF01A9H   FF01AAH   000002H   ---    ---      **GAP**
FF01ABH   FF01ADH   000003H   ---    OFFS..   CODE           ?CO?ai8051u_isr?2
FF01AEH   FF01B7H   00000AH   BYTE   INSEG    CODE           ?PR?KEY3_HANDLE1?MENU
FF01B8H   FF01BAH   000003H   ---    ---      **GAP**
FF01BBH   FF01BDH   000003H   ---    OFFS..   CODE           ?CO?ai8051u_isr?3
FF01BEH   FF01C3H   000006H   BYTE   INSEG    CODE           ?PR?SPI_WRITE_8BIT?ZF_DRIVER_SPI
FF01C4H   FF01CAH   000007H   ---    ---      **GAP**
FF01CBH   FF01CDH   000003H   ---    OFFS..   CODE           ?CO?ai8051u_isr?4
FF01CEH   FF021AH   00004DH   BYTE   INSEG    CODE           ?PR?FIFO_HEAD_OFFSET?ZF_COMMON_FIFO
FF021BH   FF021DH   000003H   ---    OFFS..   CODE           ?CO?ai8051u_isr?5
FF021EH   FF221DH   002000H   BYTE   UNIT     CODE           ?CO?ZF_DEVICE_CONFIG
FF221EH   FF393FH   001722H   BYTE   UNIT     CODE           ?C?LIB_CODE
FF3940H   FF415CH   00081DH   BYTE   INSEG    CODE           ?PR?ZF_SPRINTF?ZF_COMMON_FUNCTION
FF415DH   FF474CH   0005F0H   BYTE   UNIT     CODE           ?CO?ZF_COMMON_FONT
FF474DH   FF4C5CH   000510H   BYTE   INSEG    CODE           ?PR?PWM_INIT?ZF_DRIVER_PWM
FF4C5DH   FF5101H   0004A5H   BYTE   INSEG    CODE           ?PR?SPI_INIT?ZF_DRIVER_SPI
FF5102H   FF54FEH   0003FDH   BYTE   INSEG    CODE           ?PR?FIFO_WRITE_BUFFER?ZF_COMMON_FIFO
FF54FFH   FF58CBH   0003CDH   BYTE   INSEG    CODE           ?PR?GPIO_SET_DIR?ZF_DRIVER_GPIO
FF58CCH   FF5BA7H   0002DCH   BYTE   INSEG    CODE           ?PR?TFT180_INIT?ZF_DEVICE_TFT180
FF5BA8H   FF5E60H   0002B9H   BYTE   INSEG    CODE           ?PR?GPIO_SET_LEVEL_SPEED?ZF_DRIVER_GPIO
FF5E61H   FF6095H   000235H   BYTE   INSEG    CODE           ?PR?UART_INIT?ZF_DRIVER_UART
FF6096H   FF62BBH   000226H   BYTE   INSEG    CODE           ?PR?GPIO_SET_MODE?ZF_DRIVER_GPIO
L251 LINKER/LOCATER V4.66.93.0                                                        09/12/2025  17:12:15  PAGE 6


FF62BCH   FF6496H   0001DBH   BYTE   INSEG    CODE           ?PR?PIT_INIT?ZF_DRIVER_PIT
FF6497H   FF665AH   0001C4H   BYTE   INSEG    CODE           ?PR?TFT180_SHOW_FLOAT?ZF_DEVICE_TFT180
FF665BH   FF67FCH   0001A2H   BYTE   INSEG    CODE           ?PR?HANDLE_KEY2?MENU
FF67FDH   FF696FH   000173H   BYTE   INSEG    CODE           ?PR?GPIO_SET_LEVEL?ZF_DRIVER_GPIO
FF6970H   FF6AB6H   000147H   BYTE   INSEG    CODE           ?PR?UART_DMA_INIT?ZF_DRIVER_UART
FF6AB7H   FF6BFCH   000146H   BYTE   INSEG    CODE           ?PR?GPIO_SET_IMPEDANCE?ZF_DRIVER_GPIO
FF6BFDH   FF6D31H   000135H   BYTE   INSEG    CODE           ?PR?MENU_DISPLAY_CONTENT?MENU
FF6D32H   FF6E64H   000133H   BYTE   INSEG    CODE           ?PR?TFT180_SHOW_INT16?ZF_DEVICE_TFT180
FF6E65H   FF6F8AH   000126H   BYTE   INSEG    CODE           ?PR?ADC_FILTER?ADC_GET
FF6F8BH   FF70ACH   000122H   BYTE   INSEG    CODE           ?PR?TFT180_SET_REGION?ZF_DEVICE_TFT180
FF70ADH   FF71CDH   000121H   BYTE   INSEG    CODE           ?PR?KEY_SCANER?KEY
FF71CEH   FF72CCH   0000FFH   BYTE   INSEG    CODE           ?PR?ADC_SAMPLEANDFILTER?ADC_GET
FF72CDH   FF73AEH   0000E2H   BYTE   INSEG    CODE           ?PR?UART_WRITE_BUFFER?ZF_DRIVER_UART
FF73AFH   FF748EH   0000E0H   BYTE   INSEG    CODE           ?PR?TFT180_SHOW_CHAR?ZF_DEVICE_TFT180
FF748FH   FF756CH   0000DEH   BYTE   INSEG    CODE           ?PR?CLOCK_INIT?ZF_COMMON_CLOCK
FF756DH   FF7642H   0000D6H   BYTE   INSEG    CODE           ?PR?HANDLE_KEY1?MENU
FF7643H   FF7712H   0000D0H   BYTE   INSEG    CODE           ?PR?MENU_SETCHILDREN?MENU
FF7713H   FF77D3H   0000C1H   BYTE   INSEG    CODE           ?PR?HANDLE_KEY4?MENU
FF77D4H   FF788FH   0000BCH   BYTE   INSEG    CODE           ?PR?GPIO_INIT?ZF_DRIVER_GPIO
FF7890H   FF7945H   0000B6H   BYTE   INSEG    CODE           ?PR?KEY3_HANDLE2?MENU
FF7946H   FF79F9H   0000B4H   BYTE   INSEG    CODE           ?PR?SOFT_IIC_READ_DATA?ZF_DRIVER_SOFT_IIC
FF79FAH   FF7AA2H   0000A9H   BYTE   INSEG    CODE           ?PR?TFT180_SHOW_STRING?ZF_DEVICE_TFT180
FF7AA3H   FF7B47H   0000A5H   BYTE   INSEG    CODE           ?PR?DMA_UART1_IRQHANDLER?ISR
FF7B48H   FF7BDEH   000097H   BYTE   INSEG    CODE           ?PR?DEBUG_INIT?ZF_COMMON_DEBUG
FF7BDFH   FF7C72H   000094H   BYTE   INSEG    CODE           ?PR?NUMBER_CONVERSION_ASCII?ZF_COMMON_FUNCTION
FF7C73H   FF7D03H   000091H   BYTE   INSEG    CODE           ?PR?SOFT_IIC_SEND_DATA?ZF_DRIVER_SOFT_IIC
FF7D04H   FF7D93H   000090H   BYTE   INSEG    CODE           ?PR?UART_RX_START_BUFF?ZF_DRIVER_UART
FF7D94H   FF7E20H   00008DH   BYTE   INSEG    CODE           ?PR?PIT_HANDLER?MAIN
FF7E21H   FF7EA9H   000089H   BYTE   INSEG    CODE           ?PR?DMA_UART2_IRQHANDLER?ISR
FF7EAAH   FF7F32H   000089H   BYTE   INSEG    CODE           ?PR?DMA_UART3_IRQHANDLER?ISR
FF7F33H   FF7FBBH   000089H   BYTE   INSEG    CODE           ?PR?DMA_UART4_IRQHANDLER?ISR
FF7FBCH   FF8043H   000088H   BYTE   INSEG    CODE           ?PR?ADC_INIT?ZF_DRIVER_ADC
FF8044H   FF80CAH   000087H   BYTE   INSEG    CODE           ?PR?EEPROM_SAVE_NUM?EEPROM
FF80CBH   FF814DH   000083H   BYTE   INSEG    CODE           ?PR?REFESH_ARROW?MENU
FF814EH   FF81CEH   000081H   BYTE   INSEG    CODE           ?PR?FIFO_INIT?ZF_COMMON_FIFO
FF81CFH   FF8247H   000079H   BYTE   INSEG    CODE           ?PR?SOFT_IIC_WAIT_ACK?ZF_DRIVER_SOFT_IIC
FF8248H   FF82BDH   000076H   BYTE   INSEG    CODE           ?PR?MOTOR_INIT?FUNCTION
FF82BEH   FF8330H   000073H   BYTE   INSEG    CODE           ?PR?SOFT_IIC_SEND_ACK?ZF_DRIVER_SOFT_IIC
FF8331H   FF839BH   00006BH   BYTE   INSEG    CODE           ?PR?SYSTEM_DELAY_MS?ZF_DRIVER_DELAY
FF839CH   FF8403H   000068H   BYTE   INSEG    CODE           ?PR?DEBUG_ASSERT_HANDLER?ZF_COMMON_DEBUG
FF8404H   FF846AH   000067H   BYTE   INSEG    CODE           ?PR?TFT180_CLEAR?ZF_DEVICE_TFT180
FF846BH   FF84CCH   000062H   BYTE   INSEG    CODE           ?PR?SOFT_IIC_STOP?ZF_DRIVER_SOFT_IIC
FF84CDH   FF852EH   000062H   BYTE   INSEG    CODE           ?PR?UART_QUERY_BYTE?ZF_DRIVER_UART
FF852FH   FF858BH   00005DH   BYTE   INSEG    CODE           ?PR?SYSTEM_DELAY_INIT?ZF_DRIVER_DELAY
FF858CH   FF85ACH   000021H   BYTE   UNIT     CODE           ?C_C51STARTUP
FF85ADH   FF85AEH   000002H   BYTE   UNIT     CODE           ?C_C51STARTUP?1
FF85AFH   FF85DFH   000031H   BYTE   UNIT     CODE           ?C_C51STARTUP?2
FF85E0H   FF85E2H   000003H   BYTE   UNIT     CODE           ?C_C51STARTUP?3
FF85E3H   FF8639H   000057H   BYTE   INSEG    CODE           ?PR?SOFT_IIC_START?ZF_DRIVER_SOFT_IIC
FF863AH   FF8685H   00004CH   BYTE   INSEG    CODE           ?PR?TIMER_FUNCITON_CHECK?ZF_DRIVER_TIMER
FF8686H   FF86D1H   00004CH   BYTE   INSEG    CODE           ?PR?UART_FUNCITON_CHECK?ZF_DRIVER_UART
FF86D2H   FF871CH   00004BH   BYTE   INSEG    CODE           ?PR?TM11_IRQHANDLER?ISR
FF871DH   FF8765H   000049H   BYTE   INSEG    CODE           ?PR?IAP_READ_BUFF?ZF_DRIVER_EEPROM
FF8766H   FF87AEH   000049H   BYTE   INSEG    CODE           ?PR?IAP_WRITE_BUFF?ZF_DRIVER_EEPROM
FF87AFH   FF87F6H   000048H   BYTE   INSEG    CODE           ?PR?PRINTF_REVERSE_ORDER?ZF_COMMON_FUNCTION
FF87F7H   FF883BH   000045H   BYTE   INSEG    CODE           ?PR?UART_RX_INTERRUPT?ZF_DRIVER_UART
FF883CH   FF887DH   000042H   BYTE   INSEG    CODE           ?PR?SPI_WRITE_DAT?ZF_DRIVER_SPI
FF887EH   FF88BEH   000041H   BYTE   INSEG    CODE           ?PR?INIT_ALL?FUNCTION
FF88BFH   FF88FCH   00003EH   BYTE   INSEG    CODE           ?PR?TM0_IRQHANDLER?ISR
FF88FDH   FF893AH   00003EH   BYTE   INSEG    CODE           ?PR?TM1_IRQHANDLER?ISR
FF893BH   FF8978H   00003EH   BYTE   INSEG    CODE           ?PR?TM2_IRQHANDLER?ISR
FF8979H   FF89B6H   00003EH   BYTE   INSEG    CODE           ?PR?TM3_IRQHANDLER?ISR
FF89B7H   FF89F4H   00003EH   BYTE   INSEG    CODE           ?PR?TM4_IRQHANDLER?ISR
FF89F5H   FF8A2DH   000039H   BYTE   INSEG    CODE           ?PR?DEBUG_INTERRUPR_HANDLER?ZF_COMMON_DEBUG
FF8A2EH   FF8A66H   000039H   BYTE   INSEG    CODE           ?PR?KEY_NUMBER?KEY
L251 LINKER/LOCATER V4.66.93.0                                                        09/12/2025  17:12:15  PAGE 7


FF8A67H   FF8A9EH   000038H   BYTE   INSEG    CODE           ?PR?SOFT_IIC_DELAY?ZF_DRIVER_SOFT_IIC
FF8A9FH   FF8AD1H   000033H   BYTE   INSEG    CODE           ?PR?_M?MAIN
FF8AD2H   FF8B01H   000030H   BYTE   INSEG    CODE           ?PR?ADC_CONVERT?ZF_DRIVER_ADC
FF8B02H   FF8B2CH   00002BH   BYTE   INSEG    CODE           ?PR?ADC_GETINIT?ADC_GET
FF8B2DH   FF8B56H   00002AH   BYTE   INSEG    CODE           ?PR?IAP_WRITE_BYTE?ZF_DRIVER_EEPROM
FF8B57H   FF8B7EH   000028H   BYTE   INSEG    CODE           ?PR?IAP_ERASE_PAGE?ZF_DRIVER_EEPROM
FF8B7FH   FF8BA5H   000027H   BYTE   INSEG    CODE           ?PR?TFT180_SET_DIR?ZF_DEVICE_TFT180
FF8BA6H   FF8BCBH   000026H   BYTE   INSEG    CODE           ?PR?MENU_HANDLE_KEY?MENU
FF8BCCH   FF8BF0H   000025H   BYTE   INSEG    CODE           ?PR?MEMCPY?_?MEMCPY
FF8BF1H   FF8C13H   000023H   BYTE   INSEG    CODE           ?PR?IAP_READ_BYTE?ZF_DRIVER_EEPROM
FF8C14H   FF8C32H   00001FH   BYTE   INSEG    CODE           ?PR?SPI_WRITE_16BIT?ZF_DRIVER_SPI
FF8C33H   FF8C4CH   00001AH   BYTE   INSEG    CODE           ?PR?HANDLE_KEY3?MENU
FF8C4DH   FF8C62H   000016H   BYTE   INSEG    CODE           ?PR?TFT180_WRITE_INDEX?ZF_DEVICE_TFT180
FF8C63H   FF8C76H   000014H   BYTE   INSEG    CODE           ?PR?UART_WRITE_BYTE?ZF_DRIVER_UART
FF8C77H   FF8C86H   000010H   BYTE   INSEG    CODE           ?PR?PUTCHAR?ZF_COMMON_DEBUG
FF8C87H   FF952BH   0008A5H   BYTE   UNIT     HCONST         ?C_INITHDATA
FF952CH   FF9B2BH   000600H   BYTE   UNIT     HCONST         ?HC?EEPROM
FF9B2CH   FF9D2BH   000200H   BYTE   UNIT     HCONST         ?HC?ZF_DRIVER_EEPROM
FF9D2CH   FF9E5AH   00012FH   BYTE   UNIT     HCONST         ?HC?ZF_DEVICE_DL1A
FF9E5BH   FF9F2AH   0000D0H   BYTE   UNIT     HCONST         ?HC?ZF_DEVICE_IMU963RA
FF9F2BH   FF9FD1H   0000A7H   BYTE   UNIT     HCONST         ?HC?ZF_DEVICE_IMU660RA
FF9FD2H   FFA075H   0000A4H   BYTE   UNIT     HCONST         ?HC?SEEKFREE_ASSISTANT
FFA076H   FFA117H   0000A2H   BYTE   UNIT     HCONST         ?HC?ZF_DEVICE_GPS_TAU1201
FFA118H   FFA1A1H   00008AH   BYTE   UNIT     HCONST         ?HC?ZF_DRIVER_PWM
FFA1A2H   FFA229H   000088H   BYTE   UNIT     HCONST         ?HC?ZF_DEVICE_ICM20602
FFA22AH   FFA268H   00003FH   BYTE   UNIT     HCONST         ?HC?ZF_COMMON_FUNCTION
FFA269H   FFA29CH   000034H   BYTE   UNIT     HCONST         ?HC?ZF_DEVICE_WIRELESS_UART
FFA29DH   FFA2CFH   000033H   BYTE   UNIT     HCONST         ?HC?ZF_DEVICE_TFT180
FFA2D0H   FFA302H   000033H   BYTE   UNIT     HCONST         ?HC?ZF_DEVICE_IPS114
FFA303H   FFA335H   000033H   BYTE   UNIT     HCONST         ?HC?ZF_DEVICE_IPS200
FFA336H   FFA364H   00002FH   BYTE   UNIT     HCONST         ?HC?ZF_DRIVER_SOFT_IIC
FFA365H   FFA393H   00002FH   BYTE   UNIT     HCONST         ?HC?ZF_DRIVER_SOFT_SPI
FFA394H   FFA3C1H   00002EH   BYTE   UNIT     HCONST         ?HC?ZF_DRIVER_ENCODER
FFA3C2H   FFA3EFH   00002EH   BYTE   UNIT     HCONST         ?HC?ZF_DEVICE_BLE6A20
FFA3F0H   FFA41AH   00002BH   BYTE   UNIT     HCONST         ?HC?ZF_COMMON_FIFO
FFA41BH   FFA445H   00002BH   BYTE   UNIT     HCONST         ?HC?ZF_DRIVER_GPIO
FFA446H   FFA470H   00002BH   BYTE   UNIT     HCONST         ?HC?ZF_DRIVER_UART
FFA471H   FFA49AH   00002AH   BYTE   UNIT     HCONST         ?HC?ZF_DRIVER_ADC
FFA49BH   FFA4C4H   00002AH   BYTE   UNIT     HCONST         ?HC?ZF_DRIVER_SPI
FFA4C5H   FFA4E9H   000025H   BYTE   UNIT     HCONST         ?HC?ZF_COMMON_DEBUG
FFA4EAH   FFA504H   00001BH   BYTE   UNIT     HCONST         ?HC?ZF_DEVICE_IMU660RB
FFA505H   FFA51EH   00001AH   BYTE   UNIT     HCONST         ?HC?MENU

* * * * * * * * *   R E M O V E D     S E G M E N T S   * * * * * * * *
   *DEL*:           00003EH   BYTE   INSEG    CODE           ?PR?DEBUG_READ_BUFFER?ZF_COMMON_DEBUG
   *DEL*:           000045H   BYTE   INSEG    CODE           ?PR?DEBUG_SEND_BUFFER?ZF_COMMON_DEBUG
   *DEL*:           000004H   BYTE   UNIT     XDATA          ?XD?DEBUG_SEND_BUFFER?ZF_COMMON_DEBUG
   *DEL*:           000004H   BYTE   UNIT     XDATA          ?XD?DEBUG_READ_BUFFER?ZF_COMMON_DEBUG
   *DEL*:           00043DH   BYTE   INSEG    CODE           ?PR?FIFO_READ_BUFFER?ZF_COMMON_FIFO
   *DEL*:           0000C7H   BYTE   INSEG    CODE           ?PR?FIFO_CLEAR?ZF_COMMON_FIFO
   *DEL*:           00004DH   BYTE   INSEG    CODE           ?PR?FIFO_END_OFFSET?ZF_COMMON_FIFO
   *DEL*:           000033H   BYTE   INSEG    CODE           ?PR?FIFO_USED?ZF_COMMON_FIFO
   *DEL*:           000002H   BYTE   UNIT     XDATA          ?XD?FIFO_CLEAR?ZF_COMMON_FIFO
   *DEL*:           000014H   BYTE   UNIT     XDATA          ?XD?FIFO_READ_BUFFER?ZF_COMMON_FIFO
   *DEL*:           0002D1H   BYTE   INSEG    CODE           ?PR?FUNC_DOUBLE_TO_STR?ZF_COMMON_FUNCTION
   *DEL*:           000245H   BYTE   INSEG    CODE           ?PR?FUNC_STR_TO_DOUBLE?ZF_COMMON_FUNCTION
   *DEL*:           000298H   BYTE   INSEG    CODE           ?PR?FUNC_FLOAT_TO_STR?ZF_COMMON_FUNCTION
   *DEL*:           00019DH   BYTE   INSEG    CODE           ?PR?FUNC_STR_TO_FLOAT?ZF_COMMON_FUNCTION
   *DEL*:           000024H   BYTE   INSEG    CODE           ?PR?FUNC_SOFT_DELAY?ZF_COMMON_FUNCTION
   *DEL*:           0000CCH   BYTE   INSEG    CODE           ?PR?FUNC_UINT_TO_STR?ZF_COMMON_FUNCTION
   *DEL*:           000079H   BYTE   INSEG    CODE           ?PR?FUNC_STR_TO_UINT?ZF_COMMON_FUNCTION
   *DEL*:           0000FAH   BYTE   INSEG    CODE           ?PR?FUNC_HEX_TO_STR?ZF_COMMON_FUNCTION
   *DEL*:           00011BH   BYTE   INSEG    CODE           ?PR?FUNC_STR_TO_HEX?ZF_COMMON_FUNCTION
   *DEL*:           000149H   BYTE   INSEG    CODE           ?PR?FUNC_INT_TO_STR?ZF_COMMON_FUNCTION
   *DEL*:           0000BAH   BYTE   INSEG    CODE           ?PR?FUNC_STR_TO_INT?ZF_COMMON_FUNCTION
L251 LINKER/LOCATER V4.66.93.0                                                        09/12/2025  17:12:15  PAGE 8


   *DEL*:           000019H   BYTE   INSEG    CODE           ?PR?FUNC_GET_GREATEST_COMMON_DIVISOR?ZF_COMMON_FUNCTION
   *DEL*:           000004H   BYTE   UNIT     XDATA          ?XD?FUNC_SOFT_DELAY?ZF_COMMON_FUNCTION
   *DEL*:           000005H   BYTE   UNIT     XDATA          ?XD?FUNC_STR_TO_INT?ZF_COMMON_FUNCTION
   *DEL*:           000019H   BYTE   UNIT     XDATA          ?XD?FUNC_INT_TO_STR?ZF_COMMON_FUNCTION
   *DEL*:           000004H   BYTE   UNIT     XDATA          ?XD?FUNC_STR_TO_UINT?ZF_COMMON_FUNCTION
   *DEL*:           000015H   BYTE   UNIT     XDATA          ?XD?FUNC_UINT_TO_STR?ZF_COMMON_FUNCTION
   *DEL*:           00000DH   BYTE   UNIT     XDATA          ?XD?FUNC_STR_TO_FLOAT?ZF_COMMON_FUNCTION
   *DEL*:           000026H   BYTE   UNIT     XDATA          ?XD?FUNC_FLOAT_TO_STR?ZF_COMMON_FUNCTION
   *DEL*:           000019H   BYTE   UNIT     XDATA          ?XD?FUNC_STR_TO_DOUBLE?ZF_COMMON_FUNCTION
   *DEL*:           000038H   BYTE   UNIT     XDATA          ?XD?FUNC_DOUBLE_TO_STR?ZF_COMMON_FUNCTION
   *DEL*:           00000AH   BYTE   UNIT     XDATA          ?XD?FUNC_STR_TO_HEX?ZF_COMMON_FUNCTION
   *DEL*:           000021H   BYTE   UNIT     XDATA          ?XD?FUNC_HEX_TO_STR?ZF_COMMON_FUNCTION
   *DEL*:           000003H   BYTE   INSEG    CODE           ?PR?INTERRUPT_GLOBAL_DISABLE?ZF_COMMON_INTERRUPT
   *DEL*:           0000BAH   BYTE   INSEG    CODE           ?PR?INTERRUPT_SET_PRIORITY?ZF_COMMON_INTERRUPT
   *DEL*:           00006EH   BYTE   INSEG    CODE           ?PR?ADC_MEAN_FILTER_CONVERT?ZF_DRIVER_ADC
   *DEL*:           000004H   BYTE   UNIT     XDATA          ?XD?ADC_MEAN_FILTER_CONVERT?ZF_DRIVER_ADC
   *DEL*:           00006BH   BYTE   INSEG    CODE           ?PR?SYSTEM_DELAY_US?ZF_DRIVER_DELAY
   *DEL*:           000004H   BYTE   INSEG    CODE           ?PR?IAP_IDLE?ZF_DRIVER_EEPROM
   *DEL*:           0000F8H   BYTE   INSEG    CODE           ?PR?EXTERN_IAP_WRITE_BUFF?ZF_DRIVER_EEPROM
   *DEL*:           00000DH   BYTE   INSEG    CODE           ?PR?IAP_GET_CMD_STATE?ZF_DRIVER_EEPROM
   *DEL*:           000206H   BYTE   UNIT     XDATA          ?XD?EXTERN_IAP_WRITE_BUFF?ZF_DRIVER_EEPROM
   *DEL*:           0000A5H   BYTE   INSEG    CODE           ?PR?ENCODER_GET_COUNT?ZF_DRIVER_ENCODER
   *DEL*:           00010CH   BYTE   INSEG    CODE           ?PR?ENCODER_DIR_INIT?ZF_DRIVER_ENCODER
   *DEL*:           000095H   BYTE   INSEG    CODE           ?PR?ENCODER_CLEAR_COUNT?ZF_DRIVER_ENCODER
   *DEL*:           000002H   BYTE   UNIT     XDATA          ?XD?ENCODER_DIR_INIT?ZF_DRIVER_ENCODER
   *DEL*:           00001BH   BYTE   INSEG    CODE           ?PR?GPIO_TOGGLE_LEVEL?ZF_DRIVER_GPIO
   *DEL*:           00025FH   BYTE   INSEG    CODE           ?PR?PWM_SET_FREQ?ZF_DRIVER_PWM
   *DEL*:           000190H   BYTE   INSEG    CODE           ?PR?PWM_SET_DUTY?ZF_DRIVER_PWM
   *DEL*:           000010H   BYTE   UNIT     XDATA          ?XD?PWM_SET_FREQ?ZF_DRIVER_PWM
   *DEL*:           00000CH   BYTE   UNIT     XDATA          ?XD?PWM_SET_DUTY?ZF_DRIVER_PWM
   *DEL*:           000052H   BYTE   INSEG    CODE           ?PR?SOFT_IIC_WRITE_8BIT_REGISTER?ZF_DRIVER_SOFT_IIC
   *DEL*:           00010DH   BYTE   INSEG    CODE           ?PR?SOFT_IIC_READ_16BIT_REGISTERS?ZF_DRIVER_SOFT_IIC
   *DEL*:           00006EH   BYTE   INSEG    CODE           ?PR?SOFT_IIC_SCCB_READ_REGISTER?ZF_DRIVER_SOFT_IIC
   *DEL*:           0000A5H   BYTE   INSEG    CODE           ?PR?SOFT_IIC_READ_16BIT_REGISTER?ZF_DRIVER_SOFT_IIC
   *DEL*:           000176H   BYTE   INSEG    CODE           ?PR?SOFT_IIC_TRANSFER_16BIT_ARRAY?ZF_DRIVER_SOFT_IIC
   *DEL*:           0000D0H   BYTE   INSEG    CODE           ?PR?SOFT_IIC_WRITE_16BIT_REGISTERS?ZF_DRIVER_SOFT_IIC
   *DEL*:           000052H   BYTE   INSEG    CODE           ?PR?SOFT_IIC_SCCB_WRITE_REGISTER?ZF_DRIVER_SOFT_IIC
   *DEL*:           00004CH   BYTE   INSEG    CODE           ?PR?SOFT_IIC_READ_8BIT?ZF_DRIVER_SOFT_IIC
   *DEL*:           0000BAH   BYTE   INSEG    CODE           ?PR?SOFT_IIC_READ_8BIT_ARRAY?ZF_DRIVER_SOFT_IIC
   *DEL*:           000082H   BYTE   INSEG    CODE           ?PR?SOFT_IIC_WRITE_16BIT_REGISTER?ZF_DRIVER_SOFT_IIC
   *DEL*:           000043H   BYTE   INSEG    CODE           ?PR?SOFT_IIC_WRITE_8BIT?ZF_DRIVER_SOFT_IIC
   *DEL*:           000098H   BYTE   INSEG    CODE           ?PR?SOFT_IIC_WRITE_8BIT_ARRAY?ZF_DRIVER_SOFT_IIC
   *DEL*:           00006FH   BYTE   INSEG    CODE           ?PR?SOFT_IIC_READ_16BIT?ZF_DRIVER_SOFT_IIC
   *DEL*:           0000E1H   BYTE   INSEG    CODE           ?PR?SOFT_IIC_READ_16BIT_ARRAY?ZF_DRIVER_SOFT_IIC
   *DEL*:           0000A6H   BYTE   INSEG    CODE           ?PR?SOFT_IIC_INIT?ZF_DRIVER_SOFT_IIC
   *DEL*:           0000D7H   BYTE   INSEG    CODE           ?PR?SOFT_IIC_READ_8BIT_REGISTERS?ZF_DRIVER_SOFT_IIC
   *DEL*:           00005CH   BYTE   INSEG    CODE           ?PR?SOFT_IIC_WRITE_16BIT?ZF_DRIVER_SOFT_IIC
   *DEL*:           0000B4H   BYTE   INSEG    CODE           ?PR?SOFT_IIC_WRITE_16BIT_ARRAY?ZF_DRIVER_SOFT_IIC
   *DEL*:           000069H   BYTE   INSEG    CODE           ?PR?SOFT_IIC_READ_8BIT_REGISTER?ZF_DRIVER_SOFT_IIC
   *DEL*:           000130H   BYTE   INSEG    CODE           ?PR?SOFT_IIC_TRANSFER_8BIT_ARRAY?ZF_DRIVER_SOFT_IIC
   *DEL*:           0000A5H   BYTE   INSEG    CODE           ?PR?SOFT_IIC_WRITE_8BIT_REGISTERS?ZF_DRIVER_SOFT_IIC
   *DEL*:           000001H   BYTE   UNIT     XDATA          ?XD?SOFT_IIC_WRITE_8BIT?ZF_DRIVER_SOFT_IIC
   *DEL*:           000008H   BYTE   UNIT     XDATA          ?XD?SOFT_IIC_WRITE_8BIT_ARRAY?ZF_DRIVER_SOFT_IIC
   *DEL*:           000002H   BYTE   UNIT     XDATA          ?XD?SOFT_IIC_WRITE_16BIT?ZF_DRIVER_SOFT_IIC
   *DEL*:           000008H   BYTE   UNIT     XDATA          ?XD?SOFT_IIC_WRITE_16BIT_ARRAY?ZF_DRIVER_SOFT_IIC
   *DEL*:           000002H   BYTE   UNIT     XDATA          ?XD?SOFT_IIC_WRITE_8BIT_REGISTER?ZF_DRIVER_SOFT_IIC
   *DEL*:           000009H   BYTE   UNIT     XDATA          ?XD?SOFT_IIC_WRITE_8BIT_REGISTERS?ZF_DRIVER_SOFT_IIC
   *DEL*:           000004H   BYTE   UNIT     XDATA          ?XD?SOFT_IIC_WRITE_16BIT_REGISTER?ZF_DRIVER_SOFT_IIC
   *DEL*:           00000AH   BYTE   UNIT     XDATA          ?XD?SOFT_IIC_WRITE_16BIT_REGISTERS?ZF_DRIVER_SOFT_IIC
   *DEL*:           000001H   BYTE   UNIT     XDATA          ?XD?SOFT_IIC_READ_8BIT?ZF_DRIVER_SOFT_IIC
   *DEL*:           000008H   BYTE   UNIT     XDATA          ?XD?SOFT_IIC_READ_8BIT_ARRAY?ZF_DRIVER_SOFT_IIC
   *DEL*:           000002H   BYTE   UNIT     XDATA          ?XD?SOFT_IIC_READ_16BIT?ZF_DRIVER_SOFT_IIC
   *DEL*:           000008H   BYTE   UNIT     XDATA          ?XD?SOFT_IIC_READ_16BIT_ARRAY?ZF_DRIVER_SOFT_IIC
   *DEL*:           000002H   BYTE   UNIT     XDATA          ?XD?SOFT_IIC_READ_8BIT_REGISTER?ZF_DRIVER_SOFT_IIC
   *DEL*:           000009H   BYTE   UNIT     XDATA          ?XD?SOFT_IIC_READ_8BIT_REGISTERS?ZF_DRIVER_SOFT_IIC
L251 LINKER/LOCATER V4.66.93.0                                                        09/12/2025  17:12:15  PAGE 9


   *DEL*:           000004H   BYTE   UNIT     XDATA          ?XD?SOFT_IIC_READ_16BIT_REGISTER?ZF_DRIVER_SOFT_IIC
   *DEL*:           00000AH   BYTE   UNIT     XDATA          ?XD?SOFT_IIC_READ_16BIT_REGISTERS?ZF_DRIVER_SOFT_IIC
   *DEL*:           000010H   BYTE   UNIT     XDATA          ?XD?SOFT_IIC_TRANSFER_8BIT_ARRAY?ZF_DRIVER_SOFT_IIC
   *DEL*:           000010H   BYTE   UNIT     XDATA          ?XD?SOFT_IIC_TRANSFER_16BIT_ARRAY?ZF_DRIVER_SOFT_IIC
   *DEL*:           000002H   BYTE   UNIT     XDATA          ?XD?SOFT_IIC_SCCB_WRITE_REGISTER?ZF_DRIVER_SOFT_IIC
   *DEL*:           000002H   BYTE   UNIT     XDATA          ?XD?SOFT_IIC_SCCB_READ_REGISTER?ZF_DRIVER_SOFT_IIC
   *DEL*:           000009H   BYTE   UNIT     XDATA          ?XD?SOFT_IIC_INIT?ZF_DRIVER_SOFT_IIC
   *DEL*:           00023EH   BYTE   INSEG    CODE           ?PR?SOFT_SPI_INIT?ZF_DRIVER_SOFT_SPI
   *DEL*:           0000BBH   BYTE   INSEG    CODE           ?PR?SOFT_SPI_READ_8BIT_REGISTERS?ZF_DRIVER_SOFT_SPI
   *DEL*:           00004FH   BYTE   INSEG    CODE           ?PR?SOFT_SPI_WRITE_16BIT?ZF_DRIVER_SOFT_SPI
   *DEL*:           00010EH   BYTE   INSEG    CODE           ?PR?SOFT_SPI_8BIT_DATA_HANDLER?ZF_DRIVER_SOFT_SPI
   *DEL*:           0000A0H   BYTE   INSEG    CODE           ?PR?SOFT_SPI_WRITE_16BIT_ARRAY?ZF_DRIVER_SOFT_SPI
   *DEL*:           00005EH   BYTE   INSEG    CODE           ?PR?SOFT_SPI_READ_8BIT_REGISTER?ZF_DRIVER_SOFT_SPI
   *DEL*:           000102H   BYTE   INSEG    CODE           ?PR?SOFT_SPI_TRANSFER_8BIT?ZF_DRIVER_SOFT_SPI
   *DEL*:           0000ADH   BYTE   INSEG    CODE           ?PR?SOFT_SPI_WRITE_8BIT_REGISTERS?ZF_DRIVER_SOFT_SPI
   *DEL*:           00005AH   BYTE   INSEG    CODE           ?PR?SOFT_SPI_WRITE_8BIT_REGISTER?ZF_DRIVER_SOFT_SPI
   *DEL*:           0000B8H   BYTE   INSEG    CODE           ?PR?SOFT_SPI_READ_16BIT_REGISTERS?ZF_DRIVER_SOFT_SPI
   *DEL*:           000133H   BYTE   INSEG    CODE           ?PR?SOFT_SPI_16BIT_DATA_HANDLER?ZF_DRIVER_SOFT_SPI
   *DEL*:           00006AH   BYTE   INSEG    CODE           ?PR?SOFT_SPI_READ_16BIT_REGISTER?ZF_DRIVER_SOFT_SPI
   *DEL*:           000104H   BYTE   INSEG    CODE           ?PR?SOFT_SPI_TRANSFER_16BIT?ZF_DRIVER_SOFT_SPI
   *DEL*:           0000A7H   BYTE   INSEG    CODE           ?PR?SOFT_SPI_WRITE_16BIT_REGISTERS?ZF_DRIVER_SOFT_SPI
   *DEL*:           000051H   BYTE   INSEG    CODE           ?PR?SOFT_SPI_READ_8BIT?ZF_DRIVER_SOFT_SPI
   *DEL*:           0000AEH   BYTE   INSEG    CODE           ?PR?SOFT_SPI_READ_8BIT_ARRAY?ZF_DRIVER_SOFT_SPI
   *DEL*:           000060H   BYTE   INSEG    CODE           ?PR?SOFT_SPI_WRITE_16BIT_REGISTER?ZF_DRIVER_SOFT_SPI
   *DEL*:           00004BH   BYTE   INSEG    CODE           ?PR?SOFT_SPI_WRITE_8BIT?ZF_DRIVER_SOFT_SPI
   *DEL*:           0000A0H   BYTE   INSEG    CODE           ?PR?SOFT_SPI_WRITE_8BIT_ARRAY?ZF_DRIVER_SOFT_SPI
   *DEL*:           000026H   BYTE   INSEG    CODE           ?PR?SOFT_SPI_DELAY?ZF_DRIVER_SOFT_SPI
   *DEL*:           000056H   BYTE   INSEG    CODE           ?PR?SOFT_SPI_READ_16BIT?ZF_DRIVER_SOFT_SPI
   *DEL*:           0000B1H   BYTE   INSEG    CODE           ?PR?SOFT_SPI_READ_16BIT_ARRAY?ZF_DRIVER_SOFT_SPI
   *DEL*:           000004H   BYTE   UNIT     XDATA          ?XD?SOFT_SPI_DELAY?ZF_DRIVER_SOFT_SPI
   *DEL*:           000003H   BYTE   UNIT     XDATA          ?XD?SOFT_SPI_8BIT_DATA_HANDLER?ZF_DRIVER_SOFT_SPI
   *DEL*:           000005H   BYTE   UNIT     XDATA          ?XD?SOFT_SPI_16BIT_DATA_HANDLER?ZF_DRIVER_SOFT_SPI
   *DEL*:           000001H   BYTE   UNIT     XDATA          ?XD?SOFT_SPI_WRITE_8BIT?ZF_DRIVER_SOFT_SPI
   *DEL*:           000008H   BYTE   UNIT     XDATA          ?XD?SOFT_SPI_WRITE_8BIT_ARRAY?ZF_DRIVER_SOFT_SPI
   *DEL*:           000002H   BYTE   UNIT     XDATA          ?XD?SOFT_SPI_WRITE_16BIT?ZF_DRIVER_SOFT_SPI
   *DEL*:           000008H   BYTE   UNIT     XDATA          ?XD?SOFT_SPI_WRITE_16BIT_ARRAY?ZF_DRIVER_SOFT_SPI
   *DEL*:           000002H   BYTE   UNIT     XDATA          ?XD?SOFT_SPI_WRITE_8BIT_REGISTER?ZF_DRIVER_SOFT_SPI
   *DEL*:           000009H   BYTE   UNIT     XDATA          ?XD?SOFT_SPI_WRITE_8BIT_REGISTERS?ZF_DRIVER_SOFT_SPI
   *DEL*:           000004H   BYTE   UNIT     XDATA          ?XD?SOFT_SPI_WRITE_16BIT_REGISTER?ZF_DRIVER_SOFT_SPI
   *DEL*:           00000AH   BYTE   UNIT     XDATA          ?XD?SOFT_SPI_WRITE_16BIT_REGISTERS?ZF_DRIVER_SOFT_SPI
   *DEL*:           000001H   BYTE   UNIT     XDATA          ?XD?SOFT_SPI_READ_8BIT?ZF_DRIVER_SOFT_SPI
   *DEL*:           000008H   BYTE   UNIT     XDATA          ?XD?SOFT_SPI_READ_8BIT_ARRAY?ZF_DRIVER_SOFT_SPI
   *DEL*:           000001H   BYTE   UNIT     XDATA          ?XD?SOFT_SPI_READ_16BIT?ZF_DRIVER_SOFT_SPI
   *DEL*:           000008H   BYTE   UNIT     XDATA          ?XD?SOFT_SPI_READ_16BIT_ARRAY?ZF_DRIVER_SOFT_SPI
   *DEL*:           000002H   BYTE   UNIT     XDATA          ?XD?SOFT_SPI_READ_8BIT_REGISTER?ZF_DRIVER_SOFT_SPI
   *DEL*:           000009H   BYTE   UNIT     XDATA          ?XD?SOFT_SPI_READ_8BIT_REGISTERS?ZF_DRIVER_SOFT_SPI
   *DEL*:           000004H   BYTE   UNIT     XDATA          ?XD?SOFT_SPI_READ_16BIT_REGISTER?ZF_DRIVER_SOFT_SPI
   *DEL*:           00000AH   BYTE   UNIT     XDATA          ?XD?SOFT_SPI_READ_16BIT_REGISTERS?ZF_DRIVER_SOFT_SPI
   *DEL*:           00000CH   BYTE   UNIT     XDATA          ?XD?SOFT_SPI_TRANSFER_8BIT?ZF_DRIVER_SOFT_SPI
   *DEL*:           00000CH   BYTE   UNIT     XDATA          ?XD?SOFT_SPI_TRANSFER_16BIT?ZF_DRIVER_SOFT_SPI
   *DEL*:           000011H   BYTE   UNIT     XDATA          ?XD?SOFT_SPI_INIT?ZF_DRIVER_SOFT_SPI
   *DEL*:           00001BH   BYTE   INSEG    CODE           ?PR?SPI_WRITE_8BIT_REGISTER?ZF_DRIVER_SPI
   *DEL*:           00007FH   BYTE   INSEG    CODE           ?PR?SPI_READ_16BIT_REGISTERS?ZF_DRIVER_SPI
   *DEL*:           000057H   BYTE   INSEG    CODE           ?PR?SPI_READ_16BIT_REGISTER?ZF_DRIVER_SPI
   *DEL*:           0000C3H   BYTE   INSEG    CODE           ?PR?SPI_TRANSFER_16BIT?ZF_DRIVER_SPI
   *DEL*:           000060H   BYTE   INSEG    CODE           ?PR?SPI_WRITE_16BIT_REGISTERS?ZF_DRIVER_SPI
   *DEL*:           000005H   BYTE   INSEG    CODE           ?PR?SPI_READ_8BIT?ZF_DRIVER_SPI
   *DEL*:           000037H   BYTE   INSEG    CODE           ?PR?SPI_READ_8BIT_ARRAY?ZF_DRIVER_SPI
   *DEL*:           000045H   BYTE   INSEG    CODE           ?PR?SPI_WRITE_16BIT_REGISTER?ZF_DRIVER_SPI
   *DEL*:           000036H   BYTE   INSEG    CODE           ?PR?SPI_WRITE_8BIT_ARRAY?ZF_DRIVER_SPI
   *DEL*:           000021H   BYTE   INSEG    CODE           ?PR?SPI_READ_16BIT?ZF_DRIVER_SPI
   *DEL*:           000051H   BYTE   INSEG    CODE           ?PR?SPI_READ_16BIT_ARRAY?ZF_DRIVER_SPI
   *DEL*:           000044H   BYTE   INSEG    CODE           ?PR?SPI_READ_8BIT_REGISTERS?ZF_DRIVER_SPI
   *DEL*:           000056H   BYTE   INSEG    CODE           ?PR?SPI_READ_DAT?ZF_DRIVER_SPI
   *DEL*:           00004CH   BYTE   INSEG    CODE           ?PR?SPI_WRITE_16BIT_ARRAY?ZF_DRIVER_SPI
L251 LINKER/LOCATER V4.66.93.0                                                        09/12/2025  17:12:15  PAGE 10


   *DEL*:           000014H   BYTE   INSEG    CODE           ?PR?SPI_READ_8BIT_REGISTER?ZF_DRIVER_SPI
   *DEL*:           000077H   BYTE   INSEG    CODE           ?PR?SPI_TRANSFER_8BIT?ZF_DRIVER_SPI
   *DEL*:           000043H   BYTE   INSEG    CODE           ?PR?SPI_WRITE_8BIT_REGISTERS?ZF_DRIVER_SPI
   *DEL*:           000006H   BYTE   UNIT     XDATA          ?XD?SPI_WRITE_8BIT_ARRAY?ZF_DRIVER_SPI
   *DEL*:           000006H   BYTE   UNIT     XDATA          ?XD?SPI_WRITE_16BIT_ARRAY?ZF_DRIVER_SPI
   *DEL*:           000006H   BYTE   UNIT     XDATA          ?XD?SPI_WRITE_8BIT_REGISTERS?ZF_DRIVER_SPI
   *DEL*:           000002H   BYTE   UNIT     XDATA          ?XD?SPI_WRITE_16BIT_REGISTER?ZF_DRIVER_SPI
   *DEL*:           000008H   BYTE   UNIT     XDATA          ?XD?SPI_WRITE_16BIT_REGISTERS?ZF_DRIVER_SPI
   *DEL*:           000006H   BYTE   UNIT     XDATA          ?XD?SPI_READ_8BIT_ARRAY?ZF_DRIVER_SPI
   *DEL*:           000006H   BYTE   UNIT     XDATA          ?XD?SPI_READ_16BIT_ARRAY?ZF_DRIVER_SPI
   *DEL*:           000006H   BYTE   UNIT     XDATA          ?XD?SPI_READ_8BIT_REGISTERS?ZF_DRIVER_SPI
   *DEL*:           000002H   BYTE   UNIT     XDATA          ?XD?SPI_READ_16BIT_REGISTER?ZF_DRIVER_SPI
   *DEL*:           000008H   BYTE   UNIT     XDATA          ?XD?SPI_READ_16BIT_REGISTERS?ZF_DRIVER_SPI
   *DEL*:           00000AH   BYTE   UNIT     XDATA          ?XD?SPI_TRANSFER_8BIT?ZF_DRIVER_SPI
   *DEL*:           00000AH   BYTE   UNIT     XDATA          ?XD?SPI_TRANSFER_16BIT?ZF_DRIVER_SPI
   *DEL*:           000052H   BYTE   INSEG    CODE           ?PR?UART_WRITE_STRING?ZF_DRIVER_UART
   *DEL*:           000053H   BYTE   INSEG    CODE           ?PR?UART_READ_BYTE?ZF_DRIVER_UART
   *DEL*:           000104H   BYTE   UNIT     XDATA          ?XD?UART_WRITE_STRING?ZF_DRIVER_UART
   *DEL*:           00000FH   BYTE   INSEG    CODE           ?PR?SET_TOF_TYPE?ZF_DEVICE_TYPE
   *DEL*:           000043H   BYTE   INSEG    CODE           ?PR?SET_GPS_TYPE?ZF_DEVICE_TYPE
   *DEL*:           000043H   BYTE   INSEG    CODE           ?PR?SET_WIRELESS_TYPE?ZF_DEVICE_TYPE
   *DEL*:           000061H   BYTE   INSEG    CODE           ?PR?TFT180_DRAW_POINT?ZF_DEVICE_TFT180
   *DEL*:           0000F3H   BYTE   INSEG    CODE           ?PR?TFT180_SHOW_UINT16?ZF_DEVICE_TFT180
   *DEL*:           000109H   BYTE   INSEG    CODE           ?PR?TFT180_SHOW_INT32?ZF_DEVICE_TFT180
   *DEL*:           0001E8H   BYTE   INSEG    CODE           ?PR?TFT180_SHOW_WAVE?ZF_DEVICE_TFT180
   *DEL*:           0000C3H   BYTE   INSEG    CODE           ?PR?TFT180_SHOW_UINT8?ZF_DEVICE_TFT180
   *DEL*:           0000F3H   BYTE   INSEG    CODE           ?PR?TFT180_SHOW_INT8?ZF_DEVICE_TFT180
   *DEL*:           000002H   BYTE   UNIT     XDATA          ?XD?TFT180_DRAW_POINT?ZF_DEVICE_TFT180
   *DEL*:           000005H   BYTE   UNIT     XDATA          ?XD?TFT180_SHOW_INT8?ZF_DEVICE_TFT180
   *DEL*:           000005H   BYTE   UNIT     XDATA          ?XD?TFT180_SHOW_UINT8?ZF_DEVICE_TFT180
   *DEL*:           000008H   BYTE   UNIT     XDATA          ?XD?TFT180_SHOW_UINT16?ZF_DEVICE_TFT180
   *DEL*:           000028H   BYTE   UNIT     XDATA          ?XD?TFT180_SHOW_INT32?ZF_DEVICE_TFT180
   *DEL*:           00001CH   BYTE   UNIT     XDATA          ?XD?TFT180_SHOW_WAVE?ZF_DEVICE_TFT180
   *DEL*:           0001C4H   BYTE   INSEG    CODE           ?PR?IPS114_SHOW_FLOAT?ZF_DEVICE_IPS114
   *DEL*:           000061H   BYTE   INSEG    CODE           ?PR?IPS114_DRAW_POINT?ZF_DEVICE_IPS114
   *DEL*:           0000A9H   BYTE   INSEG    CODE           ?PR?IPS114_SHOW_STRING?ZF_DEVICE_IPS114
   *DEL*:           0000E0H   BYTE   INSEG    CODE           ?PR?IPS114_SHOW_CHAR?ZF_DEVICE_IPS114
   *DEL*:           0000F3H   BYTE   INSEG    CODE           ?PR?IPS114_SHOW_UINT16?ZF_DEVICE_IPS114
   *DEL*:           00000DH   BYTE   INSEG    CODE           ?PR?IPS114_SET_COLOR?ZF_DEVICE_IPS114
   *DEL*:           000109H   BYTE   INSEG    CODE           ?PR?IPS114_SHOW_INT32?ZF_DEVICE_IPS114
   *DEL*:           000133H   BYTE   INSEG    CODE           ?PR?IPS114_SHOW_INT16?ZF_DEVICE_IPS114
   *DEL*:           0001E8H   BYTE   INSEG    CODE           ?PR?IPS114_SHOW_WAVE?ZF_DEVICE_IPS114
   *DEL*:           000027H   BYTE   INSEG    CODE           ?PR?IPS114_SET_DIR?ZF_DEVICE_IPS114
   *DEL*:           0001D0H   BYTE   INSEG    CODE           ?PR?IPS114_SHOW_CHINESE?ZF_DEVICE_IPS114
   *DEL*:           00005AH   BYTE   INSEG    CODE           ?PR?IPS114_CLEAR?ZF_DEVICE_IPS114
   *DEL*:           0000C3H   BYTE   INSEG    CODE           ?PR?IPS114_SHOW_UINT8?ZF_DEVICE_IPS114
   *DEL*:           0000F3H   BYTE   INSEG    CODE           ?PR?IPS114_SHOW_INT8?ZF_DEVICE_IPS114
   *DEL*:           000016H   BYTE   INSEG    CODE           ?PR?IPS114_WRITE_INDEX?ZF_DEVICE_IPS114
   *DEL*:           0001CFH   BYTE   INSEG    CODE           ?PR?IPS114_SET_REGION?ZF_DEVICE_IPS114
   *DEL*:           00025AH   BYTE   INSEG    CODE           ?PR?IPS114_INIT?ZF_DEVICE_IPS114
   *DEL*:           000004H   BYTE   UNIT     XDATA          ?XD?IPS114_SET_REGION?ZF_DEVICE_IPS114
   *DEL*:           000002H   BYTE   UNIT     XDATA          ?XD?IPS114_CLEAR?ZF_DEVICE_IPS114
   *DEL*:           000002H   BYTE   UNIT     XDATA          ?XD?IPS114_DRAW_POINT?ZF_DEVICE_IPS114
   *DEL*:           000004H   BYTE   UNIT     XDATA          ?XD?IPS114_SHOW_CHAR?ZF_DEVICE_IPS114
   *DEL*:           000006H   BYTE   UNIT     XDATA          ?XD?IPS114_SHOW_STRING?ZF_DEVICE_IPS114
   *DEL*:           000005H   BYTE   UNIT     XDATA          ?XD?IPS114_SHOW_INT8?ZF_DEVICE_IPS114
   *DEL*:           000005H   BYTE   UNIT     XDATA          ?XD?IPS114_SHOW_UINT8?ZF_DEVICE_IPS114
   *DEL*:           000008H   BYTE   UNIT     XDATA          ?XD?IPS114_SHOW_INT16?ZF_DEVICE_IPS114
   *DEL*:           000008H   BYTE   UNIT     XDATA          ?XD?IPS114_SHOW_UINT16?ZF_DEVICE_IPS114
   *DEL*:           000028H   BYTE   UNIT     XDATA          ?XD?IPS114_SHOW_INT32?ZF_DEVICE_IPS114
   *DEL*:           000031H   BYTE   UNIT     XDATA          ?XD?IPS114_SHOW_FLOAT?ZF_DEVICE_IPS114
   *DEL*:           00001CH   BYTE   UNIT     XDATA          ?XD?IPS114_SHOW_WAVE?ZF_DEVICE_IPS114
   *DEL*:           000015H   BYTE   UNIT     XDATA          ?XD?IPS114_SHOW_CHINESE?ZF_DEVICE_IPS114
   *DEL*:           0001C4H   BYTE   INSEG    CODE           ?PR?IPS200_SHOW_FLOAT?ZF_DEVICE_IPS200
   *DEL*:           000061H   BYTE   INSEG    CODE           ?PR?IPS200_DRAW_POINT?ZF_DEVICE_IPS200
L251 LINKER/LOCATER V4.66.93.0                                                        09/12/2025  17:12:15  PAGE 11


   *DEL*:           0000A9H   BYTE   INSEG    CODE           ?PR?IPS200_SHOW_STRING?ZF_DEVICE_IPS200
   *DEL*:           0000E0H   BYTE   INSEG    CODE           ?PR?IPS200_SHOW_CHAR?ZF_DEVICE_IPS200
   *DEL*:           0000F3H   BYTE   INSEG    CODE           ?PR?IPS200_SHOW_UINT16?ZF_DEVICE_IPS200
   *DEL*:           00000DH   BYTE   INSEG    CODE           ?PR?IPS200_SET_COLOR?ZF_DEVICE_IPS200
   *DEL*:           000109H   BYTE   INSEG    CODE           ?PR?IPS200_SHOW_INT32?ZF_DEVICE_IPS200
   *DEL*:           000133H   BYTE   INSEG    CODE           ?PR?IPS200_SHOW_INT16?ZF_DEVICE_IPS200
   *DEL*:           0001E8H   BYTE   INSEG    CODE           ?PR?IPS200_SHOW_WAVE?ZF_DEVICE_IPS200
   *DEL*:           000007H   BYTE   INSEG    CODE           ?PR?IPS200_SET_DIR?ZF_DEVICE_IPS200
   *DEL*:           0001D0H   BYTE   INSEG    CODE           ?PR?IPS200_SHOW_CHINESE?ZF_DEVICE_IPS200
   *DEL*:           00005AH   BYTE   INSEG    CODE           ?PR?IPS200_CLEAR?ZF_DEVICE_IPS200
   *DEL*:           0000C3H   BYTE   INSEG    CODE           ?PR?IPS200_SHOW_UINT8?ZF_DEVICE_IPS200
   *DEL*:           0000F3H   BYTE   INSEG    CODE           ?PR?IPS200_SHOW_INT8?ZF_DEVICE_IPS200
   *DEL*:           000016H   BYTE   INSEG    CODE           ?PR?IPS200_WRITE_INDEX?ZF_DEVICE_IPS200
   *DEL*:           0000CCH   BYTE   INSEG    CODE           ?PR?IPS200_SET_REGION?ZF_DEVICE_IPS200
   *DEL*:           00025AH   BYTE   INSEG    CODE           ?PR?IPS200_INIT?ZF_DEVICE_IPS200
   *DEL*:           000004H   BYTE   UNIT     XDATA          ?XD?IPS200_SET_REGION?ZF_DEVICE_IPS200
   *DEL*:           000002H   BYTE   UNIT     XDATA          ?XD?IPS200_CLEAR?ZF_DEVICE_IPS200
   *DEL*:           000002H   BYTE   UNIT     XDATA          ?XD?IPS200_DRAW_POINT?ZF_DEVICE_IPS200
   *DEL*:           000004H   BYTE   UNIT     XDATA          ?XD?IPS200_SHOW_CHAR?ZF_DEVICE_IPS200
   *DEL*:           000006H   BYTE   UNIT     XDATA          ?XD?IPS200_SHOW_STRING?ZF_DEVICE_IPS200
   *DEL*:           000005H   BYTE   UNIT     XDATA          ?XD?IPS200_SHOW_INT8?ZF_DEVICE_IPS200
   *DEL*:           000005H   BYTE   UNIT     XDATA          ?XD?IPS200_SHOW_UINT8?ZF_DEVICE_IPS200
   *DEL*:           000008H   BYTE   UNIT     XDATA          ?XD?IPS200_SHOW_INT16?ZF_DEVICE_IPS200
   *DEL*:           000008H   BYTE   UNIT     XDATA          ?XD?IPS200_SHOW_UINT16?ZF_DEVICE_IPS200
   *DEL*:           000028H   BYTE   UNIT     XDATA          ?XD?IPS200_SHOW_INT32?ZF_DEVICE_IPS200
   *DEL*:           000031H   BYTE   UNIT     XDATA          ?XD?IPS200_SHOW_FLOAT?ZF_DEVICE_IPS200
   *DEL*:           00001CH   BYTE   UNIT     XDATA          ?XD?IPS200_SHOW_WAVE?ZF_DEVICE_IPS200
   *DEL*:           000015H   BYTE   UNIT     XDATA          ?XD?IPS200_SHOW_CHINESE?ZF_DEVICE_IPS200
   *DEL*:           00003FH   BYTE   INSEG    CODE           ?PR?DL1A_TIMEOUT_MICROSECONDS_TO_MCLKS?ZF_DEVICE_DL1A
   *DEL*:           000041H   BYTE   INSEG    CODE           ?PR?DL1A_TIMEOUT_MCLKS_TO_MICROSECONDS?ZF_DEVICE_DL1A
   *DEL*:           000083H   BYTE   INSEG    CODE           ?PR?DL1A_SET_SIGNAL_RATE_LIMIT?ZF_DEVICE_DL1A
   *DEL*:           000018H   BYTE   INSEG    CODE           ?PR?DL1A_DECODE_TIMEOUT?ZF_DEVICE_DL1A
   *DEL*:           000233H   BYTE   INSEG    CODE           ?PR?DL1A_GET_SPAD_INFO?ZF_DEVICE_DL1A
   *DEL*:           000038H   BYTE   INSEG    CODE           ?PR?DL1A_ENCODE_TIMEOUT?ZF_DEVICE_DL1A
   *DEL*:           00006AH   BYTE   INSEG    CODE           ?PR?DL1A_GET_SEQUENCE_STEP_ENABLES?ZF_DEVICE_DL1A
   *DEL*:           0000C7H   BYTE   INSEG    CODE           ?PR?DL1A_GET_DISTANCE?ZF_DEVICE_DL1A
   *DEL*:           0000BAH   BYTE   INSEG    CODE           ?PR?DL1A_PERFORM_SINGLE_REF_CALIBRATION?ZF_DEVICE_DL1A
   *DEL*:           00013CH   BYTE   INSEG    CODE           ?PR?DL1A_GET_SEQUENCE_STEP_TIMEOUTS?ZF_DEVICE_DL1A
   *DEL*:           000001H   BYTE   INSEG    CODE           ?PR?DL1A_INT_HANDLER?ZF_DEVICE_DL1A
   *DEL*:           00009BH   BYTE   INSEG    CODE           ?PR?DL1A_GET_MEASUREMENT_TIMING_BUDGET?ZF_DEVICE_DL1A
   *DEL*:           0001D4H   BYTE   INSEG    CODE           ?PR?DL1A_SET_MEASUREMENT_TIMING_BUDGET?ZF_DEVICE_DL1A
   *DEL*:           0004C9H   BYTE   INSEG    CODE           ?PR?DL1A_INIT?ZF_DEVICE_DL1A
   *DEL*:           000086H   BYTE   INSEG    CODE           ?PR?DL1A_GET_VCSEL_PULSE_PERIOD?ZF_DEVICE_DL1A
   *DEL*:           000008H   BYTE   UNIT     XDATA          ?XD?DL1A_GET_SPAD_INFO?ZF_DEVICE_DL1A
   *DEL*:           000001H   BYTE   UNIT     XDATA          ?XD?DL1A_GET_SEQUENCE_STEP_ENABLES?ZF_DEVICE_DL1A
   *DEL*:           000001H   BYTE   UNIT     XDATA          ?XD?DL1A_GET_VCSEL_PULSE_PERIOD?ZF_DEVICE_DL1A
   *DEL*:           000008H   BYTE   UNIT     XDATA          ?XD?DL1A_GET_SEQUENCE_STEP_TIMEOUTS?ZF_DEVICE_DL1A
   *DEL*:           000003H   BYTE   UNIT     XDATA          ?XD?DL1A_PERFORM_SINGLE_REF_CALIBRATION?ZF_DEVICE_DL1A
   *DEL*:           00002BH   BYTE   UNIT     XDATA          ?XD?DL1A_SET_MEASUREMENT_TIMING_BUDGET?ZF_DEVICE_DL1A
   *DEL*:           00001BH   BYTE   UNIT     XDATA          ?XD?DL1A_GET_MEASUREMENT_TIMING_BUDGET?ZF_DEVICE_DL1A
   *DEL*:           000003H   BYTE   UNIT     XDATA          ?XD?DL1A_SET_SIGNAL_RATE_LIMIT?ZF_DEVICE_DL1A
   *DEL*:           000003H   BYTE   UNIT     XDATA          ?XD?DL1A_GET_DISTANCE?ZF_DEVICE_DL1A
   *DEL*:           0000CAH   BYTE   UNIT     XDATA          ?XD?DL1A_INIT?ZF_DEVICE_DL1A
   *DEL*:           00005EH   BYTE   INSEG    CODE           ?PR?BLE6A20_READ_BUFFER?ZF_DEVICE_BLE6A20
   *DEL*:           0000CFH   BYTE   INSEG    CODE           ?PR?BLE6A20_SEND_BUFFER?ZF_DEVICE_BLE6A20
   *DEL*:           00003FH   BYTE   INSEG    CODE           ?PR?BLE6A20_SEND_STRING?ZF_DEVICE_BLE6A20
   *DEL*:           000026H   BYTE   INSEG    CODE           ?PR?BLE6A20_CALLBACK?ZF_DEVICE_BLE6A20
   *DEL*:           000087H   BYTE   INSEG    CODE           ?PR?BLE6A20_INIT?ZF_DEVICE_BLE6A20
   *DEL*:           000044H   BYTE   INSEG    CODE           ?PR?BLE6A20_SEND_BYTE?ZF_DEVICE_BLE6A20
   *DEL*:           000008H   BYTE   UNIT     XDATA          ?XD?BLE6A20_SEND_BUFFER?ZF_DEVICE_BLE6A20
   *DEL*:           000004H   BYTE   UNIT     XDATA          ?XD?BLE6A20_SEND_STRING?ZF_DEVICE_BLE6A20
   *DEL*:           000004H   BYTE   UNIT     XDATA          ?XD?BLE6A20_READ_BUFFER?ZF_DEVICE_BLE6A20
   *DEL*:           000001H   BYTE   UNIT     XDATA          ?XD?BLE6A20_CALLBACK?ZF_DEVICE_BLE6A20
   *DEL*:           0000CFH   BYTE   INSEG    CODE           ?PR?WIRELESS_UART_SEND_BUFFER?ZF_DEVICE_WIRELESS_UART
   *DEL*:           00003FH   BYTE   INSEG    CODE           ?PR?WIRELESS_UART_SEND_STRING?ZF_DEVICE_WIRELESS_UART
L251 LINKER/LOCATER V4.66.93.0                                                        09/12/2025  17:12:15  PAGE 12


   *DEL*:           000026H   BYTE   INSEG    CODE           ?PR?WIRELESS_UART_CALLBACK?ZF_DEVICE_WIRELESS_UART
   *DEL*:           000080H   BYTE   INSEG    CODE           ?PR?WIRELESS_UART_INIT?ZF_DEVICE_WIRELESS_UART
   *DEL*:           000044H   BYTE   INSEG    CODE           ?PR?WIRELESS_UART_SEND_BYTE?ZF_DEVICE_WIRELESS_UART
   *DEL*:           00005EH   BYTE   INSEG    CODE           ?PR?WIRELESS_UART_READ_BUFFER?ZF_DEVICE_WIRELESS_UART
   *DEL*:           000008H   BYTE   UNIT     XDATA          ?XD?WIRELESS_UART_SEND_BUFFER?ZF_DEVICE_WIRELESS_UART
   *DEL*:           000004H   BYTE   UNIT     XDATA          ?XD?WIRELESS_UART_SEND_STRING?ZF_DEVICE_WIRELESS_UART
   *DEL*:           000004H   BYTE   UNIT     XDATA          ?XD?WIRELESS_UART_READ_BUFFER?ZF_DEVICE_WIRELESS_UART
   *DEL*:           000001H   BYTE   UNIT     XDATA          ?XD?WIRELESS_UART_CALLBACK?ZF_DEVICE_WIRELESS_UART
   *DEL*:           00001AH   BYTE   INSEG    CODE           ?PR?ICM20602_READ_REGISTER?ZF_DEVICE_ICM20602
   *DEL*:           00000CH   BYTE   INSEG    CODE           ?PR?ICM20602_WRITE_REGISTER?ZF_DEVICE_ICM20602
   *DEL*:           000021H   BYTE   INSEG    CODE           ?PR?ICM20602_SIMSPI_WR_BYTE?ZF_DEVICE_ICM20602
   *DEL*:           000031H   BYTE   INSEG    CODE           ?PR?ICM20602_SELF_CHECK?ZF_DEVICE_ICM20602
   *DEL*:           00003FH   BYTE   INSEG    CODE           ?PR?ICM20602_SIMSPI_R_REG_BYTES?ZF_DEVICE_ICM20602
   *DEL*:           000018H   BYTE   INSEG    CODE           ?PR?ICM20602_SIMSPI_R_REG_BYTE?ZF_DEVICE_ICM20602
   *DEL*:           000011H   BYTE   INSEG    CODE           ?PR?ICM20602_SIMSPI_W_REG_BYTE?ZF_DEVICE_ICM20602
   *DEL*:           0001B9H   BYTE   INSEG    CODE           ?PR?ICM20602_INIT?ZF_DEVICE_ICM20602
   *DEL*:           000054H   BYTE   INSEG    CODE           ?PR?ICM20602_GET_ACC?ZF_DEVICE_ICM20602
   *DEL*:           000016H   BYTE   INSEG    CODE           ?PR?ICM20602_READ_REGISTERS?ZF_DEVICE_ICM20602
   *DEL*:           000054H   BYTE   INSEG    CODE           ?PR?ICM20602_GET_GYRO?ZF_DEVICE_ICM20602
   *DEL*:           000004H   BYTE   UNIT     XDATA          ?XD?ICM20602_SIMSPI_R_REG_BYTES?ZF_DEVICE_ICM20602
   *DEL*:           000001H   BYTE   UNIT     XDATA          ?XD?ICM20602_READ_REGISTER?ZF_DEVICE_ICM20602
   *DEL*:           000006H   BYTE   UNIT     XDATA          ?XD?ICM20602_GET_ACC?ZF_DEVICE_ICM20602
   *DEL*:           000006H   BYTE   UNIT     XDATA          ?XD?ICM20602_GET_GYRO?ZF_DEVICE_ICM20602
   *DEL*:           000054H   BYTE   INSEG    CODE           ?PR?IMU660RA_GET_GYRO?ZF_DEVICE_IMU660RA
   *DEL*:           00001EH   BYTE   INSEG    CODE           ?PR?IMU660RA_READ_REGISTER?ZF_DEVICE_IMU660RA
   *DEL*:           000014H   BYTE   INSEG    CODE           ?PR?IMU660RA_WRITE_REGISTERS?ZF_DEVICE_IMU660RA
   *DEL*:           00000CH   BYTE   INSEG    CODE           ?PR?IMU660RA_WRITE_REGISTER?ZF_DEVICE_IMU660RA
   *DEL*:           000023H   BYTE   INSEG    CODE           ?PR?IMU660RA_SIMSPI_WR_BYTE?ZF_DEVICE_IMU660RA
   *DEL*:           000041H   BYTE   INSEG    CODE           ?PR?IMU660RA_SELF_CHECK?ZF_DEVICE_IMU660RA
   *DEL*:           00003FH   BYTE   INSEG    CODE           ?PR?IMU660RA_SIMSPI_R_REG_BYTES?ZF_DEVICE_IMU660RA
   *DEL*:           000039H   BYTE   INSEG    CODE           ?PR?IMU660RA_SIMSPI_W_REG_BYTES?ZF_DEVICE_IMU660RA
   *DEL*:           000011H   BYTE   INSEG    CODE           ?PR?IMU660RA_SIMSPI_W_REG_BYTE?ZF_DEVICE_IMU660RA
   *DEL*:           0001E0H   BYTE   INSEG    CODE           ?PR?IMU660RA_INIT?ZF_DEVICE_IMU660RA
   *DEL*:           000054H   BYTE   INSEG    CODE           ?PR?IMU660RA_GET_ACC?ZF_DEVICE_IMU660RA
   *DEL*:           000079H   BYTE   INSEG    CODE           ?PR?IMU660RA_READ_REGISTERS?ZF_DEVICE_IMU660RA
   *DEL*:           000004H   BYTE   UNIT     XDATA          ?XD?IMU660RA_SIMSPI_W_REG_BYTES?ZF_DEVICE_IMU660RA
   *DEL*:           000004H   BYTE   UNIT     XDATA          ?XD?IMU660RA_SIMSPI_R_REG_BYTES?ZF_DEVICE_IMU660RA
   *DEL*:           000002H   BYTE   UNIT     XDATA          ?XD?IMU660RA_READ_REGISTER?ZF_DEVICE_IMU660RA
   *DEL*:           00000EH   BYTE   UNIT     XDATA          ?XD?IMU660RA_READ_REGISTERS?ZF_DEVICE_IMU660RA
   *DEL*:           000006H   BYTE   UNIT     XDATA          ?XD?IMU660RA_GET_ACC?ZF_DEVICE_IMU660RA
   *DEL*:           000006H   BYTE   UNIT     XDATA          ?XD?IMU660RA_GET_GYRO?ZF_DEVICE_IMU660RA
   *DEL*:           000054H   BYTE   INSEG    CODE           ?PR?IMU660RB_GET_GYRO?ZF_DEVICE_IMU660RB
   *DEL*:           00001AH   BYTE   INSEG    CODE           ?PR?IMU660RB_READ_REGISTER?ZF_DEVICE_IMU660RB
   *DEL*:           0000B1H   BYTE   INSEG    CODE           ?PR?IMU660RB_GYRO_TRANSITION?ZF_DEVICE_IMU660RB
   *DEL*:           00000CH   BYTE   INSEG    CODE           ?PR?IMU660RB_WRITE_REGISTER?ZF_DEVICE_IMU660RB
   *DEL*:           000023H   BYTE   INSEG    CODE           ?PR?IMU660RB_SIMSPI_WR_BYTE?ZF_DEVICE_IMU660RB
   *DEL*:           00002FH   BYTE   INSEG    CODE           ?PR?IMU660RB_SELF_CHECK?ZF_DEVICE_IMU660RB
   *DEL*:           00003FH   BYTE   INSEG    CODE           ?PR?IMU660RB_SIMSPI_R_REG_BYTES?ZF_DEVICE_IMU660RB
   *DEL*:           00001CH   BYTE   INSEG    CODE           ?PR?IMU660RB_SIMSPI_R_REG_BYTE?ZF_DEVICE_IMU660RB
   *DEL*:           000011H   BYTE   INSEG    CODE           ?PR?IMU660RB_SIMSPI_W_REG_BYTE?ZF_DEVICE_IMU660RB
   *DEL*:           00006AH   BYTE   INSEG    CODE           ?PR?IMU660RB_INIT?ZF_DEVICE_IMU660RB
   *DEL*:           000054H   BYTE   INSEG    CODE           ?PR?IMU660RB_GET_ACC?ZF_DEVICE_IMU660RB
   *DEL*:           000075H   BYTE   INSEG    CODE           ?PR?IMU660RB_ACC_TRANSITION?ZF_DEVICE_IMU660RB
   *DEL*:           000016H   BYTE   INSEG    CODE           ?PR?IMU660RB_READ_REGISTERS?ZF_DEVICE_IMU660RB
   *DEL*:           000004H   BYTE   UNIT     XDATA          ?XD?IMU660RB_SIMSPI_R_REG_BYTES?ZF_DEVICE_IMU660RB
   *DEL*:           000001H   BYTE   UNIT     XDATA          ?XD?IMU660RB_READ_REGISTER?ZF_DEVICE_IMU660RB
   *DEL*:           000006H   BYTE   UNIT     XDATA          ?XD?IMU660RB_GET_ACC?ZF_DEVICE_IMU660RB
   *DEL*:           000006H   BYTE   UNIT     XDATA          ?XD?IMU660RB_GET_GYRO?ZF_DEVICE_IMU660RB
   *DEL*:           000054H   BYTE   INSEG    CODE           ?PR?IMU963RA_GET_GYRO?ZF_DEVICE_IMU963RA
   *DEL*:           000023H   BYTE   INSEG    CODE           ?PR?IMU963RA_SIMSPI_WR_BYTE?ZF_DEVICE_IMU963RA
   *DEL*:           000052H   BYTE   INSEG    CODE           ?PR?IMU963RA_READ_MAG_REGISTER?ZF_DEVICE_IMU963RA
   *DEL*:           00002CH   BYTE   INSEG    CODE           ?PR?IMU963RA_CONNECT_MAG?ZF_DEVICE_IMU963RA
   *DEL*:           000016H   BYTE   INSEG    CODE           ?PR?IMU963RA_READ_ACC_GYRO_REGISTERS?ZF_DEVICE_IMU963RA
   *DEL*:           000066H   BYTE   INSEG    CODE           ?PR?IMU963RA_WRITE_MAG_REGISTER?ZF_DEVICE_IMU963RA
   *DEL*:           00001FH   BYTE   INSEG    CODE           ?PR?IMU963RA_READ_ACC_GYRO_REGISTER?ZF_DEVICE_IMU963RA
L251 LINKER/LOCATER V4.66.93.0                                                        09/12/2025  17:12:15  PAGE 13


   *DEL*:           00003FH   BYTE   INSEG    CODE           ?PR?IMU963RA_SIMSPI_R_REG_BYTES?ZF_DEVICE_IMU963RA
   *DEL*:           00001CH   BYTE   INSEG    CODE           ?PR?IMU963RA_SIMSPI_R_REG_BYTE?ZF_DEVICE_IMU963RA
   *DEL*:           000034H   BYTE   INSEG    CODE           ?PR?IMU963RA_MAG_SELF_CHECK?ZF_DEVICE_IMU963RA
   *DEL*:           00000CH   BYTE   INSEG    CODE           ?PR?IMU963RA_WRITE_ACC_GYRO_REGISTER?ZF_DEVICE_IMU963RA
   *DEL*:           000017H   BYTE   INSEG    CODE           ?PR?IMU963RA_SIMSPI_W_REG_BYTE?ZF_DEVICE_IMU963RA
   *DEL*:           0002DBH   BYTE   INSEG    CODE           ?PR?IMU963RA_INIT?ZF_DEVICE_IMU963RA
   *DEL*:           000044H   BYTE   INSEG    CODE           ?PR?IMU963RA_ACC_GYRO_SELF_CHECK?ZF_DEVICE_IMU963RA
   *DEL*:           000054H   BYTE   INSEG    CODE           ?PR?IMU963RA_GET_ACC?ZF_DEVICE_IMU963RA
   *DEL*:           00006BH   BYTE   INSEG    CODE           ?PR?IMU963RA_GET_MAG?ZF_DEVICE_IMU963RA
   *DEL*:           000004H   BYTE   UNIT     XDATA          ?XD?IMU963RA_SIMSPI_R_REG_BYTES?ZF_DEVICE_IMU963RA
   *DEL*:           000001H   BYTE   UNIT     XDATA          ?XD?IMU963RA_READ_ACC_GYRO_REGISTER?ZF_DEVICE_IMU963RA
   *DEL*:           000002H   BYTE   UNIT     XDATA          ?XD?IMU963RA_WRITE_MAG_REGISTER?ZF_DEVICE_IMU963RA
   *DEL*:           000006H   BYTE   UNIT     XDATA          ?XD?IMU963RA_GET_ACC?ZF_DEVICE_IMU963RA
   *DEL*:           000006H   BYTE   UNIT     XDATA          ?XD?IMU963RA_GET_GYRO?ZF_DEVICE_IMU963RA
   *DEL*:           000006H   BYTE   UNIT     XDATA          ?XD?IMU963RA_GET_MAG?ZF_DEVICE_IMU963RA
   *DEL*:           000094H   BYTE   INSEG    CODE           ?PR?GET_DOUBLE_NUMBER?ZF_DEVICE_GPS_TAU1201
   *DEL*:           00007DH   BYTE   INSEG    CODE           ?PR?GET_FLOAT_NUMBER?ZF_DEVICE_GPS_TAU1201
   *DEL*:           0000C5H   BYTE   INSEG    CODE           ?PR?UTC_TO_BTC?ZF_DEVICE_GPS_TAU1201
   *DEL*:           000372H   BYTE   INSEG    CODE           ?PR?GET_TWO_POINTS_DISTANCE?ZF_DEVICE_GPS_TAU1201
   *DEL*:           0000D9H   BYTE   INSEG    CODE           ?PR?GPS_GNGGA_PARSE?ZF_DEVICE_GPS_TAU1201
   *DEL*:           0005A6H   BYTE   INSEG    CODE           ?PR?GPS_GNRMC_PARSE?ZF_DEVICE_GPS_TAU1201
   *DEL*:           000196H   BYTE   INSEG    CODE           ?PR?GPS_DATA_PARSE?ZF_DEVICE_GPS_TAU1201
   *DEL*:           00006EH   BYTE   INSEG    CODE           ?PR?GET_INT_NUMBER?ZF_DEVICE_GPS_TAU1201
   *DEL*:           000290H   BYTE   INSEG    CODE           ?PR?GPS_INIT?ZF_DEVICE_GPS_TAU1201
   *DEL*:           000077H   BYTE   INSEG    CODE           ?PR?GET_PARAMETER_INDEX?ZF_DEVICE_GPS_TAU1201
   *DEL*:           00055CH   BYTE   INSEG    CODE           ?PR?GET_TWO_POINTS_AZIMUTH?ZF_DEVICE_GPS_TAU1201
   *DEL*:           000184H   BYTE   INSEG    CODE           ?PR?GPS_UART_CALLBACK?ZF_DEVICE_GPS_TAU1201
   *DEL*:           000003H   BYTE   UNIT     XDATA          ?XD?GET_PARAMETER_INDEX?ZF_DEVICE_GPS_TAU1201
   *DEL*:           00000DH   BYTE   UNIT     XDATA          ?XD?GET_INT_NUMBER?ZF_DEVICE_GPS_TAU1201
   *DEL*:           000014H   BYTE   UNIT     XDATA          ?XD?GET_FLOAT_NUMBER?ZF_DEVICE_GPS_TAU1201
   *DEL*:           000018H   BYTE   UNIT     XDATA          ?XD?GET_DOUBLE_NUMBER?ZF_DEVICE_GPS_TAU1201
   *DEL*:           00003BH   BYTE   UNIT     XDATA          ?XD?GPS_GNRMC_PARSE?ZF_DEVICE_GPS_TAU1201
   *DEL*:           000009H   BYTE   UNIT     XDATA          ?XD?GPS_GNGGA_PARSE?ZF_DEVICE_GPS_TAU1201
   *DEL*:           000060H   BYTE   UNIT     XDATA          ?XD?GET_TWO_POINTS_DISTANCE?ZF_DEVICE_GPS_TAU1201
   *DEL*:           000038H   BYTE   UNIT     XDATA          ?XD?GET_TWO_POINTS_AZIMUTH?ZF_DEVICE_GPS_TAU1201
   *DEL*:           000008H   BYTE   UNIT     XDATA          ?XD?GPS_DATA_PARSE?ZF_DEVICE_GPS_TAU1201
   *DEL*:           00000BH   BYTE   UNIT     XDATA          ?XD?GPS_UART_CALLBACK?ZF_DEVICE_GPS_TAU1201
   *DEL*:           000095H   BYTE   UNIT     XDATA          ?XD?GPS_INIT?ZF_DEVICE_GPS_TAU1201
   *DEL*:           000075H   BYTE   INSEG    CODE           ?PR?TSL1401_SEND_DATA?ZF_DEVICE_TSL1401
   *DEL*:           00003DH   BYTE   INSEG    CODE           ?PR?TSL1401_INIT?ZF_DEVICE_TSL1401
   *DEL*:           00009BH   BYTE   INSEG    CODE           ?PR?TSL1401_COLLECT_PIT_HANDLER?ZF_DEVICE_TSL1401
   *DEL*:           00034DH   BYTE   INSEG    CODE           ?PR?SEEKFREE_ASSISTANT_CAMERA_BOUNDARY_CONFIG?SEEKFREE_ASS
                                                             -ISTANT
   *DEL*:           000101H   BYTE   INSEG    CODE           ?PR?SEEKFREE_ASSISTANT_CAMERA_DOT_SEND?SEEKFREE_ASSISTANT
   *DEL*:           000102H   BYTE   INSEG    CODE           ?PR?SEEKFREE_ASSISTANT_OSCILLOSCOPE_SEND?SEEKFREE_ASSISTAN
                                                             -T
   *DEL*:           00002EH   BYTE   INSEG    CODE           ?PR?SEEKFREE_ASSISTANT_INIT?SEEKFREE_ASSISTANT
   *DEL*:           000017H   BYTE   INSEG    CODE           ?PR?SEEKFREE_ASSISTANT_SUM?SEEKFREE_ASSISTANT
   *DEL*:           000037H   BYTE   INSEG    CODE           ?PR?SEEKFREE_ASSISTANT_CAMERA_INFORMATION_CONFIG?SEEKFREE_
                                                             -ASSISTANT
   *DEL*:           000265H   BYTE   INSEG    CODE           ?PR?SEEKFREE_ASSISTANT_DATA_ANALYSIS?SEEKFREE_ASSISTANT
   *DEL*:           00012AH   BYTE   INSEG    CODE           ?PR?SEEKFREE_ASSISTANT_CAMERA_DATA_SEND?SEEKFREE_ASSISTANT
   *DEL*:           00003FH   BYTE   INSEG    CODE           ?PR?SEEKFREE_ASSISTANT_CAMERA_SEND?SEEKFREE_ASSISTANT
   *DEL*:           00000AH   BYTE   UNIT     XDATA          ?XD?SEEKFREE_ASSISTANT_CAMERA_DATA_SEND?SEEKFREE_ASSISTANT
   *DEL*:           000002H   BYTE   UNIT     XDATA          ?XD?SEEKFREE_ASSISTANT_CAMERA_INFORMATION_CONFIG?SEEKFREE_
                                                             -ASSISTANT
   *DEL*:           000024H   BYTE   UNIT     XDATA          ?XD?SEEKFREE_ASSISTANT_OSCILLOSCOPE_SEND?SEEKFREE_ASSISTAN
                                                             -T
   *DEL*:           000003H   BYTE   UNIT     XDATA          ?XD?SEEKFREE_ASSISTANT_CAMERA_DOT_SEND?SEEKFREE_ASSISTANT
   *DEL*:           000014H   BYTE   UNIT     XDATA          ?XD?SEEKFREE_ASSISTANT_CAMERA_BOUNDARY_CONFIG?SEEKFREE_ASS
                                                             -ISTANT
   *DEL*:           000088H   BYTE   UNIT     XDATA          ?XD?SEEKFREE_ASSISTANT_DATA_ANALYSIS?SEEKFREE_ASSISTANT
   *DEL*:           000000H.1 BIT    UNIT     BIT            ?BI?SEEKFREE_ASSISTANT_DATA_ANALYSIS?SEEKFREE_ASSISTANT
   *DEL*:           00004DH   BYTE   INSEG    CODE           ?PR?SEEKFREE_ASSISTANT_INTERFACE_INIT?SEEKFREE_ASSISTANT_I
                                                             -NTERFACE
L251 LINKER/LOCATER V4.66.93.0                                                        09/12/2025  17:12:15  PAGE 14


   *DEL*:           00007BH   BYTE   INSEG    CODE           ?PR?BATTERY_GET?ADC_GET
   *DEL*:           000002H   BYTE   UNIT     XDATA          ?XD?BATTERY_GET?ADC_GET
   *DEL*:           000010H   BYTE   INSEG    CODE           ?PR?SER_SERVO_DUTY?CONTROL
   *DEL*:           000033H   BYTE   INSEG    CODE           ?PR?MOTOR_UPDATE?CONTROL
   *DEL*:           000088H   BYTE   INSEG    CODE           ?PR?SERVO_TURN_PID?CONTROL
   *DEL*:           00003DH   BYTE   INSEG    CODE           ?PR?MOTORL_SETSPEED?CONTROL
   *DEL*:           00003DH   BYTE   INSEG    CODE           ?PR?MOTORR_SETSPEED?CONTROL
   *DEL*:           000002H   BYTE   UNIT     XDATA          ?XD?SERVO_TURN_PID?CONTROL
   *DEL*:           000030H   BYTE   INSEG    CODE           ?PR?EEPROM_READ_FLOAT?EEPROM
   *DEL*:           0000D0H   BYTE   INSEG    CODE           ?PR?EEPROM_SAVE_FLOAT?EEPROM
   *DEL*:           000054H   BYTE   INSEG    CODE           ?PR?EEPROM_READ_NUM?EEPROM
   *DEL*:           000200H   BYTE   UNIT     XDATA          ?XD?EEPROM_READ_NUM?EEPROM
   *DEL*:           000000H.1 BIT    UNIT     BIT            ?BI?EEPROM_READ_NUM?EEPROM
   *DEL*:           00020AH   BYTE   UNIT     XDATA          ?XD?EEPROM_SAVE_FLOAT?EEPROM
   *DEL*:           000000H.1 BIT    UNIT     BIT            ?BI?EEPROM_SAVE_FLOAT?EEPROM
   *DEL*:           000004H   BYTE   UNIT     XDATA          ?XD?EEPROM_READ_FLOAT?EEPROM
   *DEL*:           000000H.1 BIT    UNIT     BIT            ?BI?EEPROM_READ_FLOAT?EEPROM
   *DEL*:           000012H   BYTE   INSEG    CODE           ?PR?CAR_STOP?FUNCTION
   *DEL*:           000082H   BYTE   INSEG    CODE           ?PR?UNIFICATION?FUNCTION
   *DEL*:           0000BCH   BYTE   INSEG    CODE           ?PR?NORMAL_PID?FUNCTION
   *DEL*:           000008H   BYTE   INSEG    CODE           ?PR?CAR_INIT?FUNCTION
   *DEL*:           0000B3H   BYTE   INSEG    CODE           ?PR?FAST_SQRT?FUNCTION
   *DEL*:           00004BH   BYTE   INSEG    CODE           ?PR?PROTECT?FUNCTION
   *DEL*:           000004H   BYTE   UNIT     XDATA          ?XD?NORMAL_PID?FUNCTION
   *DEL*:           00000CH   BYTE   UNIT     XDATA          ?XD?UNIFICATION?FUNCTION
   *DEL*:           000008H   BYTE   UNIT     XDATA          ?XD?FAST_SQRT?FUNCTION
   *DEL*:           00019BH   BYTE   INSEG    CODE           ?PR?POW?_?POW
   *DEL*:           000037H   BYTE   INSEG    CODE           ?PR?STRNCMP?_?STRNCMP
   *DEL*:           000030H   BYTE   INSEG    CODE           ?PR?STRNCPY?_?STRNCPY
   *DEL*:           00000EH   BYTE   INSEG    CODE           ?PR?STRLEN?_?STRLEN
   *DEL*:           00001FH   BYTE   INSEG    CODE           ?PR?STRCHR?_?STRCHR
   *DEL*:           00001AH   BYTE   INSEG    CODE           ?PR?MEMSET?_?MEMSET



OVERLAY MAP OF MODULE:   .\out_file\SEEKFREE (ai8051u_isr)


FUNCTION/MODULE                                BIT_GROUP   XDATA_GROUP
--> CALLED FUNCTION/MODULE                    START  STOP  START  STOP
======================================================================
?C_C51STARTUP                                 ----- -----  ----- -----

*** NEW ROOT ********************************

?C_C51STARTUP?3                               ----- -----  ----- -----
  +--> main/main

main/main                                     ----- -----  ----- -----
  +--> _m/main
  +--> SPRINTF/SPRINTF

_m/main                                       ----- -----  ----- -----
  +--> clock_init/zf_common_clock
  +--> debug_init/zf_common_debug
  +--> pit_handler/main
  +--> init_all/function
  +--> menu_handle_key/menu

clock_init/zf_common_clock                    ----- -----  ----- -----
  +--> system_delay_init/zf_driver_delay
  +--> interrupt_global_enable/zf_common_interrupt

system_delay_init/zf_driver_delay             ----- -----  ----- -----
  +--> ?C?SLDIV/?C?SLDIV
L251 LINKER/LOCATER V4.66.93.0                                                        09/12/2025  17:12:15  PAGE 15



?C?SLDIV/?C?SLDIV                             ----- -----  ----- -----
  +--> ?C?ULIDIV/?C?ULDIV

?C?ULIDIV/?C?ULDIV                            ----- -----  ----- -----

interrupt_global_enable/zf_common_interr+     ----- -----  ----- -----
... upt

debug_init/zf_common_debug                    ----- -----  ----- -----
  +--> uart_init/zf_driver_uart
  +--> fifo_init/zf_common_fifo
  +--> uart_rx_interrupt/zf_driver_uart
  +--> debug_interrupr_handler/zf_common_debug

uart_init/zf_driver_uart                      ----- -----  043BH 0440H
  +--> uart_funciton_check/zf_driver_uart
  +--> debug_assert_handler/zf_common_debug
  +--> timer_funciton_check/zf_driver_timer
  +--> gpio_init/zf_driver_gpio
  +--> ?C?ULIDIV/?C?ULDIV
  +--> uart_dma_init/zf_driver_uart

uart_funciton_check/zf_driver_uart            ----- -----  ----- -----

debug_assert_handler/zf_common_debug          ----- -----  047AH 0489H
  +--> PRINTF/PRINTF
  +--> system_delay_ms/zf_driver_delay

PRINTF/PRINTF                                 ----- -----  048AH 04B1H
  +--> OUT/PRINTF

OUT/PRINTF                                    ----- -----  ----- -----
  +--> PUTCH/PRINTF

PUTCH/PRINTF                                  ----- -----  ----- -----
  +--> putchar/zf_common_debug
  +--> OUT/PRINTF

putchar/zf_common_debug                       ----- -----  ----- -----
  +--> uart_write_byte/zf_driver_uart

uart_write_byte/zf_driver_uart                ----- -----  04B2H 04B2H
  +--> uart_write_buffer/zf_driver_uart

uart_write_buffer/zf_driver_uart              ----- -----  ----- -----

system_delay_ms/zf_driver_delay               ----- -----  ----- -----

timer_funciton_check/zf_driver_timer          ----- -----  ----- -----

gpio_init/zf_driver_gpio                      ----- -----  044BH 044DH
  +--> debug_assert_handler/zf_common_debug
  +--> gpio_set_dir/zf_driver_gpio
  +--> gpio_set_mode/zf_driver_gpio
  +--> gpio_set_impedance/zf_driver_gpio
  +--> gpio_set_level/zf_driver_gpio

gpio_set_dir/zf_driver_gpio                   ----- -----  ----- -----
  +--> debug_assert_handler/zf_common_debug

gpio_set_mode/zf_driver_gpio                  ----- -----  ----- -----
  +--> debug_assert_handler/zf_common_debug

gpio_set_impedance/zf_driver_gpio             ----- -----  ----- -----
L251 LINKER/LOCATER V4.66.93.0                                                        09/12/2025  17:12:15  PAGE 16


  +--> debug_assert_handler/zf_common_debug

gpio_set_level/zf_driver_gpio                 ----- -----  ----- -----
  +--> debug_assert_handler/zf_common_debug

uart_dma_init/zf_driver_uart                  ----- -----  ----- -----

fifo_init/zf_common_fifo                      ----- -----  043BH 0444H
  +--> debug_assert_handler/zf_common_debug

uart_rx_interrupt/zf_driver_uart              ----- -----  ----- -----

debug_interrupr_handler/zf_common_debug       ----- -----  043BH 043BH
  +--> uart_query_byte/zf_driver_uart
  +--> fifo_write_buffer/zf_common_fifo

uart_query_byte/zf_driver_uart                ----- -----  ----- -----
  +--> uart_rx_start_buff/zf_driver_uart

uart_rx_start_buff/zf_driver_uart             ----- -----  ----- -----

fifo_write_buffer/zf_common_fifo              ----- -----  043CH 0449H
  +--> debug_assert_handler/zf_common_debug
  +--> memcpy?_/memcpy
  +--> fifo_head_offset/zf_common_fifo

memcpy?_/memcpy                               ----- -----  ----- -----

fifo_head_offset/zf_common_fifo               ----- -----  ----- -----

pit_handler/main                              ----- -----  ----- -----
  +--> tft180_show_int16/zf_device_tft180
  +--> ADC_SampleAndFilter/ADC_Get
  +--> Key_scaner/Key

tft180_show_int16/zf_device_tft180            ----- -----  043BH 0442H
  +--> debug_assert_handler/zf_common_debug
  +--> tft180_show_char/zf_device_tft180

tft180_show_char/zf_device_tft180             ----- -----  0472H 0475H
  +--> debug_assert_handler/zf_common_debug
  +--> tft180_set_region/zf_device_tft180
  +--> spi_write_16bit/zf_driver_spi

tft180_set_region/zf_device_tft180            ----- -----  0476H 0479H
  +--> debug_assert_handler/zf_common_debug
  +--> tft180_write_index/zf_device_tft180
  +--> spi_write_16bit/zf_driver_spi

tft180_write_index/zf_device_tft180           ----- -----  ----- -----
  +--> spi_write_8bit/zf_driver_spi

spi_write_8bit/zf_driver_spi                  ----- -----  ----- -----
  +--> spi_write_dat/zf_driver_spi

spi_write_dat/zf_driver_spi                   ----- -----  ----- -----
  +--> debug_assert_handler/zf_common_debug

spi_write_16bit/zf_driver_spi                 ----- -----  ----- -----
  +--> spi_write_dat/zf_driver_spi

ADC_SampleAndFilter/ADC_Get                   ----- -----  ----- -----
  +--> adc_convert/zf_driver_adc
  +--> adc_filter/ADC_Get

L251 LINKER/LOCATER V4.66.93.0                                                        09/12/2025  17:12:15  PAGE 17


adc_convert/zf_driver_adc                     ----- -----  ----- -----

adc_filter/ADC_Get                            ----- -----  043BH 0444H
  +--> ?C?ULIDIV/?C?ULDIV

Key_scaner/Key                                ----- -----  ----- -----
  +--> Key_Number/Key

Key_Number/Key                                ----- -----  ----- -----
  +--> gpio_get_level/zf_driver_gpio

gpio_get_level/zf_driver_gpio                 ----- -----  ----- -----
  +--> debug_assert_handler/zf_common_debug

init_all/function                             ----- -----  ----- -----
  +--> Motor_Init/function
  +--> Servo_Init/function
  +--> iap_init/zf_driver_eeprom
  +--> ADC_GetInit/ADC_Get
  +--> tft180_init/zf_device_tft180
  +--> tft180_set_color/zf_device_tft180
  +--> menu_Init/menu
  +--> ?C?SLDIV/?C?SLDIV
  +--> pit_init/zf_driver_pit

Motor_Init/function                           ----- -----  ----- -----
  +--> pwm_init/zf_driver_pwm

pwm_init/zf_driver_pwm                        ----- -----  043BH 0448H
  +--> debug_assert_handler/zf_common_debug
  +--> gpio_init/zf_driver_gpio
  +--> ?C?ULIDIV/?C?ULDIV

Servo_Init/function                           ----- -----  ----- -----
  +--> system_delay_init/zf_driver_delay
  +--> pwm_init/zf_driver_pwm

iap_init/zf_driver_eeprom                     ----- -----  ----- -----
  +--> iap_set_tps/zf_driver_eeprom

iap_set_tps/zf_driver_eeprom                  ----- -----  ----- -----
  +--> ?C?SLDIV/?C?SLDIV

ADC_GetInit/ADC_Get                           ----- -----  ----- -----
  +--> adc_init/zf_driver_adc

adc_init/zf_driver_adc                        ----- -----  ----- -----

tft180_init/zf_device_tft180                  ----- -----  ----- -----
  +--> spi_init/zf_driver_spi
  +--> tft180_set_dir/zf_device_tft180
  +--> tft180_set_color/zf_device_tft180
  +--> system_delay_ms/zf_driver_delay
  +--> tft180_write_index/zf_device_tft180
  +--> spi_write_8bit/zf_driver_spi
  +--> tft180_clear/zf_device_tft180

spi_init/zf_driver_spi                        ----- -----  043BH 044AH
  +--> debug_assert_handler/zf_common_debug
  +--> gpio_init/zf_driver_gpio
  +--> gpio_set_level_speed/zf_driver_gpio
  +--> ?C?ULIDIV/?C?ULDIV
  +--> uart_funciton_check/zf_driver_uart

gpio_set_level_speed/zf_driver_gpio           ----- -----  ----- -----
L251 LINKER/LOCATER V4.66.93.0                                                        09/12/2025  17:12:15  PAGE 18


  +--> debug_assert_handler/zf_common_debug

tft180_set_dir/zf_device_tft180               ----- -----  ----- -----

tft180_set_color/zf_device_tft180             ----- -----  ----- -----

tft180_clear/zf_device_tft180                 ----- -----  043BH 043EH
  +--> tft180_set_region/zf_device_tft180
  +--> spi_write_16bit/zf_driver_spi

menu_Init/menu                                ----- -----  ----- -----
  +--> Menu_SetChildren/menu
  +--> Refesh_arrow/menu
  +--> menu_display_content/menu

Menu_SetChildren/menu                         ----- -----  ----- -----

Refesh_arrow/menu                             ----- -----  ----- -----
  +--> tft180_show_string/zf_device_tft180

tft180_show_string/zf_device_tft180           ----- -----  046CH 0471H
  +--> debug_assert_handler/zf_common_debug
  +--> tft180_show_char/zf_device_tft180

menu_display_content/menu                     ----- -----  ----- -----
  +--> tft180_show_string/zf_device_tft180
  +--> tft180_show_float/zf_device_tft180

tft180_show_float/zf_device_tft180            ----- -----  043BH 046BH
  +--> debug_assert_handler/zf_common_debug
  +--> zf_sprintf/zf_common_function
  +--> tft180_show_string/zf_device_tft180

zf_sprintf/zf_common_function                 ----- -----  046CH 04CEH
  +--> number_conversion_ascii/zf_common_function
  +--> printf_reverse_order/zf_common_function
  +--> memcpy?_/memcpy

number_conversion_ascii/zf_common_functi+     ----- -----  04CFH 04CFH
... on
  +--> ?C?SLDIV/?C?SLDIV
  +--> ?C?ULIDIV/?C?ULDIV

printf_reverse_order/zf_common_function       ----- -----  ----- -----

pit_init/zf_driver_pit                        ----- -----  ----- -----
  +--> ?C?ULIDIV/?C?ULDIV

menu_handle_key/menu                          ----- -----  ----- -----
  +--> handle_key1/menu
  +--> handle_key2/menu
  +--> handle_key3/menu
  +--> handle_key4/menu

handle_key1/menu                              ----- -----  ----- -----
  +--> tft180_show_string/zf_device_tft180
  +--> tft180_clear/zf_device_tft180
  +--> menu_display_content/menu
  +--> Refesh_arrow/menu

handle_key2/menu                              ----- -----  ----- -----
  +--> tft180_show_string/zf_device_tft180

handle_key3/menu                              ----- -----  ----- -----
  +--> Key3_handle1/menu
L251 LINKER/LOCATER V4.66.93.0                                                        09/12/2025  17:12:15  PAGE 19


  +--> Key3_handle2/menu

Key3_handle1/menu                             ----- -----  ----- -----
  +--> Refesh_arrow/menu

Key3_handle2/menu                             ----- -----  ----- -----
  +--> eeprom_save_Num/eeprom
  +--> tft180_clear/zf_device_tft180
  +--> Refesh_arrow/menu
  +--> menu_display_content/menu

eeprom_save_Num/eeprom                        20H.0 20H.0  043BH 063AH
  +--> iap_read_buff/zf_driver_eeprom
  +--> memcpy?_/memcpy
  +--> iap_erase_page/zf_driver_eeprom
  +--> system_delay_ms/zf_driver_delay
  +--> iap_write_buff/zf_driver_eeprom

iap_read_buff/zf_driver_eeprom                ----- -----  063BH 0640H
  +--> iap_read_byte/zf_driver_eeprom

iap_read_byte/zf_driver_eeprom                20H.1 20H.1  ----- -----
  +--> eeprom_trig/zf_driver_eeprom

eeprom_trig/zf_driver_eeprom                  ----- -----  ----- -----

iap_erase_page/zf_driver_eeprom               20H.1 20H.1  ----- -----
  +--> eeprom_trig/zf_driver_eeprom
  +--> system_delay_ms/zf_driver_delay

iap_write_buff/zf_driver_eeprom               ----- -----  063BH 0640H
  +--> iap_write_byte/zf_driver_eeprom

iap_write_byte/zf_driver_eeprom               20H.1 20H.1  ----- -----
  +--> eeprom_trig/zf_driver_eeprom

handle_key4/menu                              ----- -----  ----- -----
  +--> menu_display_content/menu
  +--> tft180_show_string/zf_device_tft180
  +--> tft180_clear/zf_device_tft180
  +--> Refesh_arrow/menu

SPRINTF/SPRINTF                               ----- -----  043BH 0462H
  +--> OUT/SPRINTF

OUT/SPRINTF                                   ----- -----  ----- -----
  +--> PUTCH/SPRINTF

PUTCH/SPRINTF                                 ----- -----  ----- -----

*** NEW ROOT ********************************

TM11_IRQHandler/isr                           ----- -----  ----- -----

*** NEW ROOT ********************************

DMA_UART1_IRQHandler/isr                      ----- -----  ----- -----
  +--> uart_rx_start_buff/zf_driver_uart

*** NEW ROOT ********************************

DMA_UART2_IRQHandler/isr                      ----- -----  ----- -----
  +--> uart_rx_start_buff/zf_driver_uart

*** NEW ROOT ********************************
L251 LINKER/LOCATER V4.66.93.0                                                        09/12/2025  17:12:15  PAGE 20



DMA_UART3_IRQHandler/isr                      ----- -----  ----- -----
  +--> uart_rx_start_buff/zf_driver_uart

*** NEW ROOT ********************************

DMA_UART4_IRQHandler/isr                      ----- -----  ----- -----
  +--> uart_rx_start_buff/zf_driver_uart

*** NEW ROOT ********************************

TM0_IRQHandler/isr                            ----- -----  ----- -----

*** NEW ROOT ********************************

TM1_IRQHandler/isr                            ----- -----  ----- -----

*** NEW ROOT ********************************

TM2_IRQHandler/isr                            ----- -----  ----- -----

*** NEW ROOT ********************************

TM3_IRQHandler/isr                            ----- -----  ----- -----

*** NEW ROOT ********************************

TM4_IRQHandler/isr                            ----- -----  ----- -----

*** NEW ROOT ********************************

?C_C51STARTUP?1                               ----- -----  ----- -----

*** NEW ROOT ********************************

?C_C51STARTUP?2                               ----- -----  ----- -----



PUBLIC SYMBOLS OF MODULE:  .\out_file\SEEKFREE (ai8051u_isr)


      VALUE       CLASS    TYPE      PUBLIC SYMBOL NAME
      =================================================
      00FF3919H   CODE     ---       ?C?BMOVEPP
      00FF3917H   CODE     ---       ?C?BMOVEPP8
      00FF259FH   CODE     NEAR LAB  ?C?CASTD
      00FF3807H   CODE     NEAR LAB  ?C?CASTF
      000000FFH   NUMBER   ---       ?C?CODESEG
      00FF255CH   CODE     NEAR LAB  ?C?DCASTC
      00FF25FFH   CODE     NEAR LAB  ?C?DCASTF
      00FF2557H   CODE     NEAR LAB  ?C?DCASTI
      00FF2552H   CODE     NEAR LAB  ?C?DCASTL
      00FF2FD3H   CODE     ---       ?C?DP2SERIES
      00FF2225H   CODE     ---       ?C?DPADD
      00FF24E5H   CODE     ---       ?C?DPCMP
      00FF24E3H   CODE     ---       ?C?DPCMP3
      00FF32BEH   CODE     ---       ?C?DPCONVERT
      00FF2444H   CODE     ---       ?C?DPDIV
      00FF2AF5H   CODE     ---       ?C?DPGETOPN2
      00FF2334H   CODE     ---       ?C?DPMUL
      00FF2B40H   CODE     ---       ?C?DPNANRESULT
      00FF2544H   CODE     ---       ?C?DPNEG
      00FF2B4CH   CODE     ---       ?C?DPOVERFLOW
      00FF2B18H   CODE     ---       ?C?DPRESULT
L251 LINKER/LOCATER V4.66.93.0                                                        09/12/2025  17:12:15  PAGE 21


      00FF2B31H   CODE     ---       ?C?DPRESULT2
      00FF33E5H   CODE     ---       ?C?DPROUND
      00FF2FDEH   CODE     ---       ?C?DPSERIES
      00FF2221H   CODE     ---       ?C?DPSUB
      00FF2B47H   CODE     ---       ?C?DPUNDERFLOW
      00FF34C0H   CODE     ---       ?C?DTNPWR
      00FF37D4H   CODE     NEAR LAB  ?C?FCASTC
      00FF2641H   CODE     NEAR LAB  ?C?FCASTD
      00FF37CFH   CODE     NEAR LAB  ?C?FCASTI
      00FF37CAH   CODE     NEAR LAB  ?C?FCASTL
      00FF359DH   CODE     ---       ?C?FPADD
      00FF3778H   CODE     ---       ?C?FPCMP
      00FF3776H   CODE     ---       ?C?FPCMP3
      00FF36F5H   CODE     ---       ?C?FPDIV
      00FF3546H   CODE     ---       ?C?FPGETOPN2
      00FF3655H   CODE     ---       ?C?FPMUL
      00FF3583H   CODE     ---       ?C?FPNANRESULT
      00FF37BCH   CODE     ---       ?C?FPNEG
      00FF358BH   CODE     ---       ?C?FPOVERFLOW
      00FF355FH   CODE     ---       ?C?FPRESULT
      00FF3575H   CODE     ---       ?C?FPRESULT2
      00FF359AH   CODE     ---       ?C?FPSUB
      00FF3588H   CODE     ---       ?C?FPUNDERFLOW
      00FF85AFH   CODE     ---       ?C?INITHDATA
      00FF952AH   HCONST   WORD      ?C?INITHDATA_END
      00FF3887H   CODE     ---       ?C?LIMUL
      00FF3876H   CODE     ---       ?C?LMUL
      00FF2BA5H   CODE     ---       ?C?PRNFMT
      00FF3844H   CODE     ---       ?C?SIDIV
      00FF38E3H   CODE     NEAR LAB  ?C?SLDIV
      00FF0000H   CODE     ---       ?C?STARTUP
      00FF3892H   CODE     NEAR LAB  ?C?ULDIV
      00FF3890H   CODE     NEAR LAB  ?C?ULIDIV
      00000001H   NUMBER   ---       ?C?XDATASEG
      00FF0000H   CODE     ---       ?C_STARTUP
      00010437H   XDATA    BYTE      ?fifo_init?BYTE
*DEL*:1FFFFFFCH   XDATA    BYTE      ?fifo_read_buffer?BYTE
      00010438H   XDATA    BYTE      ?fifo_write_buffer?BYTE
*DEL*:1FFFFFFCH   XDATA    BYTE      ?func_double_to_str?BYTE
*DEL*:00000000H   XDATA    BYTE      ?get_two_points_azimuth?BYTE
*DEL*:00000000H   XDATA    BYTE      ?get_two_points_distance?BYTE
      00010637H   XDATA    BYTE      ?iap_read_buff?BYTE
      00010637H   XDATA    BYTE      ?iap_write_buff?BYTE
*DEL*:1FFFFFFCH   XDATA    BYTE      ?ips114_show_chinese?BYTE
*DEL*:1FFFFFFEH   XDATA    BYTE      ?ips114_show_float?BYTE
*DEL*:1FFFFFFCH   XDATA    BYTE      ?ips114_show_wave?BYTE
*DEL*:1FFFFFFCH   XDATA    BYTE      ?ips200_show_chinese?BYTE
*DEL*:1FFFFFFEH   XDATA    BYTE      ?ips200_show_float?BYTE
*DEL*:1FFFFFFCH   XDATA    BYTE      ?ips200_show_wave?BYTE
*DEL*:1FFFFFF8H   XDATA    BYTE      ?Normal_PID?BYTE
      000104B2H   XDATA    ---       ?printf?BYTE
      00010439H   XDATA    BYTE      ?pwm_init?BYTE
*DEL*:1FFFFFFEH   XDATA    BYTE      ?pwm_set_freq?BYTE
*DEL*:1FFFFFF8H   XDATA    BYTE      ?seekfree_assistant_camera_boundary_config?BYTE
*DEL*:1FFFFFFBH   XDATA    BYTE      ?seekfree_assistant_camera_data_send?BYTE
*DEL*:1FFFFFF8H   XDATA    BYTE      ?seekfree_assistant_camera_information_config?BYTE
*DEL*:1FFFFFFCH   XDATA    BYTE      ?soft_iic_init?BYTE
*DEL*:1FFFFFFCH   XDATA    BYTE      ?soft_iic_read_16bit_array?BYTE
*DEL*:1FFFFFFCH   XDATA    BYTE      ?soft_iic_read_16bit_registers?BYTE
*DEL*:1FFFFFFCH   XDATA    BYTE      ?soft_iic_read_8bit_array?BYTE
*DEL*:1FFFFFFCH   XDATA    BYTE      ?soft_iic_read_8bit_registers?BYTE
*DEL*:1FFFFFFCH   XDATA    BYTE      ?soft_iic_transfer_16bit_array?BYTE
*DEL*:1FFFFFFCH   XDATA    BYTE      ?soft_iic_transfer_8bit_array?BYTE
*DEL*:1FFFFFFCH   XDATA    BYTE      ?soft_iic_write_16bit_array?BYTE
*DEL*:1FFFFFFCH   XDATA    BYTE      ?soft_iic_write_16bit_registers?BYTE
L251 LINKER/LOCATER V4.66.93.0                                                        09/12/2025  17:12:15  PAGE 22


*DEL*:1FFFFFFCH   XDATA    BYTE      ?soft_iic_write_8bit_array?BYTE
*DEL*:1FFFFFFCH   XDATA    BYTE      ?soft_iic_write_8bit_registers?BYTE
*DEL*:1FFFFFFCH   XDATA    BYTE      ?soft_spi_init?BYTE
*DEL*:1FFFFFFCH   XDATA    BYTE      ?soft_spi_read_16bit_array?BYTE
*DEL*:1FFFFFFCH   XDATA    BYTE      ?soft_spi_read_16bit_registers?BYTE
*DEL*:1FFFFFFCH   XDATA    BYTE      ?soft_spi_read_8bit_array?BYTE
*DEL*:1FFFFFFCH   XDATA    BYTE      ?soft_spi_read_8bit_registers?BYTE
*DEL*:1FFFFFFCH   XDATA    BYTE      ?soft_spi_transfer_16bit?BYTE
*DEL*:1FFFFFFCH   XDATA    BYTE      ?soft_spi_transfer_8bit?BYTE
*DEL*:1FFFFFFCH   XDATA    BYTE      ?soft_spi_write_16bit_array?BYTE
*DEL*:1FFFFFFCH   XDATA    BYTE      ?soft_spi_write_16bit_registers?BYTE
*DEL*:1FFFFFFCH   XDATA    BYTE      ?soft_spi_write_8bit_array?BYTE
*DEL*:1FFFFFFCH   XDATA    BYTE      ?soft_spi_write_8bit_registers?BYTE
      00010437H   XDATA    BYTE      ?spi_init?BYTE
*DEL*:1FFFFFFCH   XDATA    BYTE      ?spi_read_16bit_array?BYTE
*DEL*:1FFFFFFCH   XDATA    BYTE      ?spi_read_16bit_registers?BYTE
*DEL*:1FFFFFFCH   XDATA    BYTE      ?spi_read_8bit_array?BYTE
*DEL*:1FFFFFFBH   XDATA    BYTE      ?spi_read_8bit_registers?BYTE
*DEL*:1FFFFFFCH   XDATA    BYTE      ?spi_transfer_16bit?BYTE
*DEL*:1FFFFFFCH   XDATA    BYTE      ?spi_transfer_8bit?BYTE
*DEL*:1FFFFFFCH   XDATA    BYTE      ?spi_write_16bit_array?BYTE
*DEL*:1FFFFFFCH   XDATA    BYTE      ?spi_write_16bit_registers?BYTE
*DEL*:1FFFFFFCH   XDATA    BYTE      ?spi_write_8bit_array?BYTE
*DEL*:1FFFFFFBH   XDATA    BYTE      ?spi_write_8bit_registers?BYTE
      00010463H   XDATA    ---       ?sprintf?BYTE
      00010439H   XDATA    BYTE      ?tft180_show_float?BYTE
*DEL*:1FFFFFFCH   XDATA    BYTE      ?tft180_show_wave?BYTE
      00010437H   XDATA    BYTE      ?uart_init?BYTE
      00010494H   XDATA    BYTE      ?zf_sprintf?BYTE
      00FF2B5AH   CODE     ---       _chkdouble_?_
      00FF8A9FH   CODE     ---       _m
*SFR* 000000D0H.6 DATA     BIT       AC
*SFR* 000000E0H   DATA     BYTE      ACC
      00010417H   XDATA    FLOAT     ADC_1
      0001041BH   XDATA    FLOAT     ADC_2
      0001041FH   XDATA    FLOAT     ADC_3
      00010423H   XDATA    FLOAT     ADC_4
*SFR* 000000BCH   DATA     BYTE      ADC_CONTR
      00FF8AD2H   CODE     ---       adc_convert
      00FF6E65H   CODE     ---       adc_filter
      00FF8B02H   CODE     ---       ADC_GetInit
      00FF7FBCH   CODE     ---       adc_init
*DEL*:00000000H   CODE     ---       adc_mean_filter_convert
*SFR* 000000BDH   DATA     BYTE      ADC_RES
*SFR* 000000BEH   DATA     BYTE      ADC_RESL
      00FF71CEH   CODE     ---       ADC_SampleAndFilter
*SFR* 000000DEH   DATA     BYTE      ADCCFG
      00FF415DH   CODE     ---       ascii_font_8x16
      00FF2ACBH   CODE     ---       asin?_
      00FF29B0H   CODE     ---       atan?_
*SFR* 000000EFH   DATA     BYTE      AUXINTIF
*SFR* 0000008EH   DATA     BYTE      AUXR
*SFR* 00000097H   DATA     BYTE      AUXR2
*SFR* 000000F0H   DATA     BYTE      B
*DEL*:00000000H   CODE     ---       battery_get
      00000020H.2 BIT      BIT       Battery_Init
*DEL*:00000000H   CODE     ---       ble6a20_callback
*DEL*:00000000H   CODE     ---       ble6a20_init
*DEL*:00000000H   CODE     ---       ble6a20_read_buffer
*DEL*:00000000H   CODE     ---       ble6a20_send_buffer
*DEL*:00000000H   CODE     ---       ble6a20_send_byte
*DEL*:00000000H   CODE     ---       ble6a20_send_string
      00010D49H   XDATA    FLOAT     bujin
*SFR* 000000C8H.1 DATA     BIT       C_T2
*DEL*:00000000H   CODE     ---       CAR_Init
L251 LINKER/LOCATER V4.66.93.0                                                        09/12/2025  17:12:15  PAGE 23


      00010D66H   XDATA    BYTE      CAR_Mode
*DEL*:00000000H   CODE     ---       CAR_STOP
*SFR* 000000FAH   DATA     BYTE      CCAP0H
*SFR* 000000EAH   DATA     BYTE      CCAP0L
*SFR* 000000FBH   DATA     BYTE      CCAP1H
*SFR* 000000EBH   DATA     BYTE      CCAP1L
*SFR* 000000FCH   DATA     BYTE      CCAP2H
*SFR* 000000ECH   DATA     BYTE      CCAP2L
*SFR* 000000FDH   DATA     BYTE      CCAP3H
*SFR* 000000EDH   DATA     BYTE      CCAP3L
*SFR* 000000FEH   DATA     BYTE      CCAP4H
*SFR* 000000EEH   DATA     BYTE      CCAP4L
*SFR* 000000DAH   DATA     BYTE      CCAPM0
*SFR* 000000DBH   DATA     BYTE      CCAPM1
*SFR* 000000DCH   DATA     BYTE      CCAPM2
*SFR* 000000DDH   DATA     BYTE      CCAPM3
*SFR* 000000DEH   DATA     BYTE      CCAPM4
*SFR* 000000D8H.0 DATA     BIT       CCF0
*SFR* 000000D8H.1 DATA     BIT       CCF1
*SFR* 000000D8H.2 DATA     BIT       CCF2
*SFR* 000000D8H.3 DATA     BIT       CCF3
*SFR* 000000D8H.4 DATA     BIT       CCF4
*SFR* 000000D8H   DATA     BYTE      CCON
*SFR* 00000090H.3 DATA     BIT       CEX0
*SFR* 00000090H.4 DATA     BIT       CEX1
*SFR* 00000090H.5 DATA     BIT       CEX2
*SFR* 00000090H.6 DATA     BIT       CEX3
*SFR* 00000090H.7 DATA     BIT       CEX4
*SFR* 000000D8H.7 DATA     BIT       CF
*SFR* 000000F9H   DATA     BYTE      CH
*SFR* 000000EAH   DATA     BYTE      CKCON
*SFR* 000000E9H   DATA     BYTE      CL
      00FF748FH   CODE     ---       clock_init
*SFR* 000000D9H   DATA     BYTE      CMOD
*SFR* 000000E6H   DATA     BYTE      CMPCR1
*SFR* 000000E7H   DATA     BYTE      CMPCR2
      00FF2818H   CODE     ---       cos?_
*SFR* 000000C8H.0 DATA     BIT       CP_RL2
*SFR* 000000D8H.6 DATA     BIT       CR
*SFR* 000000D0H.7 DATA     BIT       CY
      00FF839CH   CODE     ---       debug_assert_handler
      00FF7B48H   CODE     ---       debug_init
      00FF89F5H   CODE     ---       debug_interrupr_handler
*DEL*:00000000H   CODE     ---       debug_read_buffer
*DEL*:00000000H   CODE     ---       debug_send_buffer
      00010B50H   XDATA    ---       debug_uart_buffer
      00010B91H   XDATA    ---       debug_uart_fifo
      00010D20H   XDATA    WORD      dl1a_distance_mm
      00010D22H   XDATA    BYTE      dl1a_finsh_flag
*DEL*:00000000H   CODE     ---       dl1a_get_distance
*DEL*:00000000H   CODE     ---       dl1a_init
*DEL*:00000000H   CODE     ---       dl1a_int_handler
      00FF7AA3H   CODE     ---       DMA_UART1_IRQHandler
      00FF7E21H   CODE     ---       DMA_UART2_IRQHandler
      00FF7EAAH   CODE     ---       DMA_UART3_IRQHandler
      00FF7F33H   CODE     ---       DMA_UART4_IRQHandler
*SFR* 00000083H   DATA     BYTE      DPH
*SFR* 00000082H   DATA     BYTE      DPL
*SFR* 00000084H   DATA     BYTE      DPXL
*SFR* 000000A8H.7 DATA     BIT       EA
*SFR* 000000A8H.6 DATA     BIT       EC
*SFR* 00000090H.2 DATA     BIT       ECI
*DEL*:00000000H   CODE     ---       eeprom_read_float
*DEL*:00000000H   CODE     ---       eeprom_read_Num
*DEL*:00000000H   CODE     ---       eeprom_save_float
L251 LINKER/LOCATER V4.66.93.0                                                        09/12/2025  17:12:15  PAGE 24


      00FF8044H   CODE     ---       eeprom_save_Num
      00FF019EH   CODE     ---       eeprom_trig
*DEL*:00000000H   CODE     ---       encoder_clear_count
*DEL*:00000000H   CODE     ---       encoder_dir_init
*DEL*:00000000H   CODE     ---       encoder_get_count
*SFR* 000000A8H.4 DATA     BIT       ES
*SFR* 000000A8H.1 DATA     BIT       ET0
*SFR* 000000A8H.3 DATA     BIT       ET1
*SFR* 000000A8H.5 DATA     BIT       ET2
*SFR* 000000A8H.0 DATA     BIT       EX0
*SFR* 000000A8H.2 DATA     BIT       EX1
*SFR* 000000C8H.3 DATA     BIT       EXEN2
*SFR* 000000C8H.6 DATA     BIT       EXF2
      00FF30BAH   CODE     ---       exp?_
*DEL*:00000000H   CODE     ---       extern_iap_write_buff
*SFR* 000000D0H.5 DATA     BIT       F0
*DEL*:00000000H   CODE     ---       fast_sqrt
*SFR* 00000098H.7 DATA     BIT       FE
*DEL*:00000000H   CODE     ---       fifo_clear
      00FF814EH   CODE     ---       fifo_init
*DEL*:00000000H   CODE     ---       fifo_read_buffer
*DEL*:00000000H   CODE     ---       fifo_used
      00FF5102H   CODE     ---       fifo_write_buffer
      00010C7FH   XDATA    ---       filtered_adc
      00010D53H   XDATA    CHAR      Flag
*DEL*:00000000H   CODE     ---       func_double_to_str
*DEL*:00000000H   CODE     ---       func_float_to_str
*DEL*:00000000H   CODE     ---       func_get_greatest_common_divisor
*DEL*:00000000H   CODE     ---       func_hex_to_str
*DEL*:00000000H   CODE     ---       func_int_to_str
*DEL*:00000000H   CODE     ---       func_soft_delay
*DEL*:00000000H   CODE     ---       func_str_to_double
*DEL*:00000000H   CODE     ---       func_str_to_float
*DEL*:00000000H   CODE     ---       func_str_to_hex
*DEL*:00000000H   CODE     ---       func_str_to_int
*DEL*:00000000H   CODE     ---       func_str_to_uint
*DEL*:00000000H   CODE     ---       func_uint_to_str
*DEL*:00000000H   CODE     ---       get_two_points_azimuth
*DEL*:00000000H   CODE     ---       get_two_points_distance
      00FF00C6H   CODE     ---       gpio_get_level
      00FF77D4H   CODE     ---       gpio_init
      00FF6AB7H   CODE     ---       gpio_set_impedance
      00FF67FDH   CODE     ---       gpio_set_level
      00FF5BA8H   CODE     ---       gpio_set_level_speed
*DEL*:00000000H   CODE     ---       gpio_toggle_level
*DEL*:00000000H   CODE     ---       gps_data_parse
      00010A0FH   XDATA    INT       gps_gga_state
*DEL*:00000000H   CODE     ---       gps_init
      00010A11H   XDATA    INT       gps_rmc_state
      000108DBH   XDATA    ---       gps_tau1201
      0001085AH   XDATA    BYTE      gps_tau1201_flag
      00010D76H   XDATA    INT       gps_type
*DEL*:00000000H   CODE     ---       gps_uart_callback
      00FF756DH   CODE     ---       handle_key1
      00FF665BH   CODE     ---       handle_key2
      00FF8C33H   CODE     ---       handle_key3
      00FF7713H   CODE     ---       handle_key4
      00010D50H   XDATA    CHAR      i
*SFR* 000000F6H   DATA     BYTE      IAP_ADDRE
*SFR* 000000C3H   DATA     BYTE      IAP_ADDRH
*SFR* 000000C4H   DATA     BYTE      IAP_ADDRL
*SFR* 000000C5H   DATA     BYTE      IAP_CMD
*SFR* 000000C7H   DATA     BYTE      IAP_CONTR
*SFR* 000000C2H   DATA     BYTE      IAP_DATA
      00FF8B57H   CODE     ---       iap_erase_page
L251 LINKER/LOCATER V4.66.93.0                                                        09/12/2025  17:12:15  PAGE 25


*DEL*:00000000H   CODE     ---       iap_get_cmd_state
*DEL*:00000000H   CODE     ---       iap_idle
      00FF0003H   CODE     ---       iap_init
      00FF871DH   CODE     ---       iap_read_buff
      00FF8BF1H   CODE     ---       iap_read_byte
      00FF0046H   CODE     ---       iap_set_tps
*SFR* 000000F5H   DATA     BYTE      IAP_TPS
*SFR* 000000C6H   DATA     BYTE      IAP_TRIG
      00FF8766H   CODE     ---       iap_write_buff
      00FF8B2DH   CODE     ---       iap_write_byte
      00010CEFH   XDATA    INT       icm20602_acc_x
      00010CF1H   XDATA    INT       icm20602_acc_y
      00010CF3H   XDATA    INT       icm20602_acc_z
*DEL*:00000000H   CODE     ---       icm20602_get_acc
*DEL*:00000000H   CODE     ---       icm20602_get_gyro
      00010CF5H   XDATA    INT       icm20602_gyro_x
      00010CF7H   XDATA    INT       icm20602_gyro_y
      00010CF9H   XDATA    INT       icm20602_gyro_z
*DEL*:00000000H   CODE     ---       icm20602_init
      00010CFBH   XDATA    ---       icm20602_transition_factor
*SFR* 000000A8H   DATA     BYTE      IE
*SFR* 000000A8H   DATA     BYTE      IE0
*SFR* 00000088H.1 DATA     BIT       IE0_
*SFR* 000000B1H   DATA     BYTE      IE1
*SFR* 00000088H.3 DATA     BIT       IE1_
*SFR* 000000AFH   DATA     BYTE      IE2
      00010D03H   XDATA    INT       imu660ra_acc_x
      00010D05H   XDATA    INT       imu660ra_acc_y
      00010D07H   XDATA    INT       imu660ra_acc_z
      00FF021EH   CODE     ---       imu660ra_config_file
*DEL*:00000000H   CODE     ---       imu660ra_get_acc
*DEL*:00000000H   CODE     ---       imu660ra_get_gyro
      00010D09H   XDATA    INT       imu660ra_gyro_x
      00010D0BH   XDATA    INT       imu660ra_gyro_y
      00010D0DH   XDATA    INT       imu660ra_gyro_z
*DEL*:00000000H   CODE     ---       imu660ra_init
      00010D0FH   XDATA    ---       imu660ra_transition_factor
*DEL*:00000000H   CODE     ---       imu660rb_acc_transition
      00010D3CH   XDATA    INT       imu660rb_acc_x
      00010D3EH   XDATA    INT       imu660rb_acc_y
      00010D40H   XDATA    INT       imu660rb_acc_z
*DEL*:00000000H   CODE     ---       imu660rb_get_acc
*DEL*:00000000H   CODE     ---       imu660rb_get_gyro
*DEL*:00000000H   CODE     ---       imu660rb_gyro_transition
      00010D42H   XDATA    INT       imu660rb_gyro_x
      00010D44H   XDATA    INT       imu660rb_gyro_y
      00010D46H   XDATA    INT       imu660rb_gyro_z
*DEL*:00000000H   CODE     ---       imu660rb_init
      00010CD1H   XDATA    INT       imu963ra_acc_x
      00010CD3H   XDATA    INT       imu963ra_acc_y
      00010CD5H   XDATA    INT       imu963ra_acc_z
*DEL*:00000000H   CODE     ---       imu963ra_get_acc
*DEL*:00000000H   CODE     ---       imu963ra_get_gyro
*DEL*:00000000H   CODE     ---       imu963ra_get_mag
      00010CDDH   XDATA    INT       imu963ra_gyro_x
      00010CDFH   XDATA    INT       imu963ra_gyro_y
      00010CE1H   XDATA    INT       imu963ra_gyro_z
*DEL*:00000000H   CODE     ---       imu963ra_init
      00010CD7H   XDATA    INT       imu963ra_mag_x
      00010CD9H   XDATA    INT       imu963ra_mag_y
      00010CDBH   XDATA    INT       imu963ra_mag_z
      00010CE3H   XDATA    ---       imu963ra_transition_factor
      00FF887EH   CODE     ---       init_all
*SFR* 000000B0H.2 DATA     BIT       INT0
      00010CBFH   XDATA    ---       int0_irq_handler
L251 LINKER/LOCATER V4.66.93.0                                                        09/12/2025  17:12:15  PAGE 26


*SFR* 000000B0H.3 DATA     BIT       INT1
      00010CC3H   XDATA    ---       int1_irq_handler
      00010CC7H   XDATA    ---       int2_irq_handler
      00010CCBH   XDATA    ---       int3_irq_handler
      00010CCFH   XDATA    ---       int4_irq_handler
*SFR* 0000008FH   DATA     BYTE      INTCLKO
*DEL*:00000000H   CODE     ---       interrupt_global_disable
      00FF001EH   CODE     ---       interrupt_global_enable
*DEL*:00000000H   CODE     ---       interrupt_set_priority
*SFR* 000000B8H   DATA     BYTE      IP
*SFR* 000000B5H   DATA     BYTE      IP2
*SFR* 000000B6H   DATA     BYTE      IP2H
*SFR* 000000DFH   DATA     BYTE      IP3
*SFR* 000000EEH   DATA     BYTE      IP3H
*SFR* 000000B7H   DATA     BYTE      IPH
*SFR* 000000B7H   DATA     BYTE      IPH0
*SFR* 000000B8H   DATA     BYTE      IPL0
      00010D82H   XDATA    WORD      ips114_bgcolor
*DEL*:00000000H   CODE     ---       ips114_clear
      00010D84H   XDATA    INT       ips114_display_dir
*DEL*:00000000H   CODE     ---       ips114_draw_point
*DEL*:00000000H   CODE     ---       ips114_init
      00010D80H   XDATA    WORD      ips114_pencolor
*DEL*:00000000H   CODE     ---       ips114_set_color
*DEL*:00000000H   CODE     ---       ips114_set_dir
*DEL*:00000000H   CODE     ---       ips114_show_char
*DEL*:00000000H   CODE     ---       ips114_show_chinese
*DEL*:00000000H   CODE     ---       ips114_show_float
*DEL*:00000000H   CODE     ---       ips114_show_int16
*DEL*:00000000H   CODE     ---       ips114_show_int32
*DEL*:00000000H   CODE     ---       ips114_show_int8
*DEL*:00000000H   CODE     ---       ips114_show_string
*DEL*:00000000H   CODE     ---       ips114_show_uint16
*DEL*:00000000H   CODE     ---       ips114_show_uint8
*DEL*:00000000H   CODE     ---       ips114_show_wave
      00010D86H   XDATA    BYTE      ips114_x_max
      00010D87H   XDATA    BYTE      ips114_y_max
      00010D56H   XDATA    WORD      ips200_bgcolor
*DEL*:00000000H   CODE     ---       ips200_clear
      00010D58H   XDATA    INT       ips200_display_dir
*DEL*:00000000H   CODE     ---       ips200_draw_point
*DEL*:00000000H   CODE     ---       ips200_init
      00010D54H   XDATA    WORD      ips200_pencolor
*DEL*:00000000H   CODE     ---       ips200_set_color
*DEL*:00000000H   CODE     ---       ips200_set_dir
*DEL*:00000000H   CODE     ---       ips200_show_char
*DEL*:00000000H   CODE     ---       ips200_show_chinese
*DEL*:00000000H   CODE     ---       ips200_show_float
*DEL*:00000000H   CODE     ---       ips200_show_int16
*DEL*:00000000H   CODE     ---       ips200_show_int32
*DEL*:00000000H   CODE     ---       ips200_show_int8
*DEL*:00000000H   CODE     ---       ips200_show_string
*DEL*:00000000H   CODE     ---       ips200_show_uint16
*DEL*:00000000H   CODE     ---       ips200_show_uint8
*DEL*:00000000H   CODE     ---       ips200_show_wave
      00010D5AH   XDATA    WORD      ips200_x_max
      00010D5CH   XDATA    WORD      ips200_y_max
*SFR* 0000009DH   DATA     BYTE      IRCBAND
*SFR* 00000088H.0 DATA     BIT       IT0
*SFR* 00000088H.2 DATA     BIT       IT1
      00010D51H   XDATA    CHAR      j
      00010D4EH   XDATA    BYTE      Key
      00010D52H   XDATA    CHAR      Key3_count
      00FF01AEH   CODE     ---       Key3_handle1
      00FF7890H   CODE     ---       Key3_handle2
L251 LINKER/LOCATER V4.66.93.0                                                        09/12/2025  17:12:15  PAGE 27


      00010D63H   XDATA    BYTE      Key_count
      00FF8A2EH   CODE     ---       Key_Number
      00FF70ADH   CODE     ---       Key_scaner
      00010D67H   XDATA    BYTE      keynumber
      00FF31A3H   CODE     NEAR LAB  log?_
      00FF0066H   CODE     ---       MAIN
      00FF8BCCH   CODE     ---       memcpy?_
*DEL*:00000000H   CODE     ---       memset?_
      00FF6BFDH   CODE     ---       menu_display_content
      00FF8BA6H   CODE     ---       menu_handle_key
      00FF00A6H   CODE     ---       menu_Init
      00FF7643H   CODE     ---       Menu_SetChildren
      00010D4DH   XDATA    CHAR      mode
      00FF8248H   CODE     ---       Motor_Init
*DEL*:00000000H   CODE     ---       Motor_Update
*DEL*:00000000H   CODE     ---       MotorL_SetSpeed
*DEL*:00000000H   CODE     ---       MotorR_SetSpeed
*DEL*:00000000H   CODE     ---       Normal_PID
      0001031BH   XDATA    ---       Num
*SFR* 000000D0H.2 DATA     BIT       OV
*SFR* 000000D0H.0 DATA     BIT       P
*SFR* 00000080H   DATA     BYTE      P0
*SFR* 00000094H   DATA     BYTE      P0M0
*SFR* 00000093H   DATA     BYTE      P0M1
*SFR* 00000090H   DATA     BYTE      P1
*SFR* 00000092H   DATA     BYTE      P1M0
*SFR* 00000091H   DATA     BYTE      P1M1
*SFR* 000000A0H   DATA     BYTE      P2
*SFR* 000000A0H.0 DATA     BIT       P20
*SFR* 000000A0H.1 DATA     BIT       P21
*SFR* 000000A0H.2 DATA     BIT       P22
*SFR* 00000096H   DATA     BYTE      P2M0
*SFR* 00000095H   DATA     BYTE      P2M1
*SFR* 000000B0H   DATA     BYTE      P3
*SFR* 000000B2H   DATA     BYTE      P3M0
*SFR* 000000B1H   DATA     BYTE      P3M1
*SFR* 000000C0H   DATA     BYTE      P4
*SFR* 000000C0H.0 DATA     BIT       P40
*SFR* 000000C0H.1 DATA     BIT       P41
*SFR* 000000C0H.2 DATA     BIT       P42
*SFR* 000000C0H.3 DATA     BIT       P43
*SFR* 000000B4H   DATA     BYTE      P4M0
*SFR* 000000B3H   DATA     BYTE      P4M1
*SFR* 000000C8H   DATA     BYTE      P5
*SFR* 000000CAH   DATA     BYTE      P5M0
*SFR* 000000C9H   DATA     BYTE      P5M1
*SFR* 000000E8H   DATA     BYTE      P6
*SFR* 000000CCH   DATA     BYTE      P6M0
*SFR* 000000CBH   DATA     BYTE      P6M1
*SFR* 000000F8H   DATA     BYTE      P7
*SFR* 000000E2H   DATA     BYTE      P7M0
*SFR* 000000E1H   DATA     BYTE      P7M1
*SFR* 000000A2H   DATA     BYTE      P_SW1
*SFR* 000000BAH   DATA     BYTE      P_SW2
*SFR* 000000BBH   DATA     BYTE      P_SW3
*SFR* 000000BFH   DATA     BYTE      P_SW4
      00010000H   XDATA    ---       Page
      00010427H   XDATA    ---       Page0_children
      00010431H   XDATA    ---       Page1_children
*SFR* 00000087H   DATA     BYTE      PCON
      00010317H   XDATA    ---       Pin
      00FF7D94H   CODE     ---       pit_handler
      00FF62BCH   CODE     ---       pit_init
*DEL*:00000000H   CODE     ---       pow?_
*SFR* 000000B8H.6 DATA     BIT       PPC
L251 LINKER/LOCATER V4.66.93.0                                                        09/12/2025  17:12:15  PAGE 28


      00010D61H   XDATA    INT       Press_time
      00FF2678H   CODE     NEAR LAB  printf
*DEL*:00000000H   CODE     ---       Protect
*SFR* 000000B8H.4 DATA     BIT       PS
*SFR* 000000D0H   DATA     BYTE      PSW
*SFR* 000000D1H   DATA     BYTE      PSW1
*SFR* 000000B8H.1 DATA     BIT       PT0
*SFR* 000000B8H.3 DATA     BIT       PT1
*SFR* 000000B8H.5 DATA     BIT       PT2
      00FF8C77H   CODE     ---       putchar
      00FFA16AH   HCONST   ---       PWM_ARR_ADDR
      00FFA172H   HCONST   ---       PWM_CCER_ADDR
      00FFA182H   HCONST   ---       PWM_CCMR_ADDR
      00FFA14AH   HCONST   ---       PWM_CCR_ADDR
      00FF474DH   CODE     ---       pwm_init
      00FFA142H   HCONST   ---       PWM_PSCR_ADDR
*DEL*:00000000H   CODE     ---       pwm_set_duty
*DEL*:00000000H   CODE     ---       pwm_set_freq
*SFR* 000000B8H.0 DATA     BIT       PX0
*SFR* 000000B8H.2 DATA     BIT       PX1
      00010C57H   XDATA    ---       raw_adc_data
*SFR* 00000098H.2 DATA     BIT       RB8
*SFR* 000000CBH   DATA     BYTE      RCAP2H
*SFR* 000000CAH   DATA     BYTE      RCAP2L
*SFR* 000000C8H.5 DATA     BIT       RCLK
*SFR* 000000B0H.7 DATA     BIT       RD
      00FF80CBH   CODE     ---       Refesh_arrow
*SFR* 00000098H.4 DATA     BIT       REN
*SFR* 00000098H.0 DATA     BIT       RI
*SFR* 000000D0H.3 DATA     BIT       RS0
*SFR* 000000D0H.4 DATA     BIT       RS1
*SFR* 000000FFH   DATA     BYTE      RSTCFG
*SFR* 000000B0H.0 DATA     BIT       RXD
*SFR* 0000009BH   DATA     BYTE      S2BUF
*SFR* 0000009AH   DATA     BYTE      S2CON
*SFR* 0000009AH.1 DATA     BIT       S2TI
*SFR* 000000ACH   DATA     BYTE      S3CON
*SFR* 000000FDH   DATA     BYTE      S4CON
*SFR* 000000A9H   DATA     BYTE      SADDR
*SFR* 000000B9H   DATA     BYTE      SADEN
*SFR* 00000099H   DATA     BYTE      SBUF
*SFR* 00000098H   DATA     BYTE      SCON
*DEL*:00000000H   CODE     ---       seekfree_assistant_camera_boundary_config
*DEL*:00000000H   CODE     ---       seekfree_assistant_camera_data_send
*DEL*:00000000H   CODE     ---       seekfree_assistant_camera_dot_send
*DEL*:00000000H   CODE     ---       seekfree_assistant_camera_information_config
*DEL*:00000000H   CODE     ---       seekfree_assistant_camera_send
*DEL*:00000000H   CODE     ---       seekfree_assistant_data_analysis
*DEL*:00000000H   CODE     ---       seekfree_assistant_init
*DEL*:00000000H   CODE     ---       seekfree_assistant_interface_init
      00010A1BH   XDATA    ---       seekfree_assistant_oscilloscope_data
*DEL*:00000000H   CODE     ---       seekfree_assistant_oscilloscope_send
      00010A5EH   XDATA    ---       seekfree_assistant_parameter
      00010A56H   XDATA    ---       seekfree_assistant_parameter_update_flag
      00010D9CH   XDATA    ---       seekfree_assistant_receive_callback
      00010D9EH   XDATA    ---       seekfree_assistant_transfer_callback
*DEL*:00000000H   CODE     ---       Ser_Servo_Duty
      00FF0026H   CODE     ---       Servo_Init
      00010C87H   XDATA    ---       servo_pid
*DEL*:00000000H   CODE     ---       Servo_turn_pid
*DEL*:00000000H   CODE     ---       set_gps_type
*DEL*:00000000H   CODE     ---       set_tof_type
*DEL*:00000000H   CODE     ---       set_wireless_type
      00010D48H   XDATA    BYTE      Show_image_mode
      00FF2839H   CODE     ---       sin?_
L251 LINKER/LOCATER V4.66.93.0                                                        09/12/2025  17:12:15  PAGE 29


*SFR* 00000098H.7 DATA     BIT       SM0
*SFR* 00000098H.6 DATA     BIT       SM1
*SFR* 00000098H.5 DATA     BIT       SM2
      00FF8A67H   CODE     ---       soft_iic_delay
*DEL*:00000000H   CODE     ---       soft_iic_init
*DEL*:00000000H   CODE     ---       soft_iic_read_16bit
*DEL*:00000000H   CODE     ---       soft_iic_read_16bit_array
*DEL*:00000000H   CODE     ---       soft_iic_read_16bit_register
*DEL*:00000000H   CODE     ---       soft_iic_read_16bit_registers
*DEL*:00000000H   CODE     ---       soft_iic_read_8bit
*DEL*:00000000H   CODE     ---       soft_iic_read_8bit_array
*DEL*:00000000H   CODE     ---       soft_iic_read_8bit_register
*DEL*:00000000H   CODE     ---       soft_iic_read_8bit_registers
      00FF7946H   CODE     ---       soft_iic_read_data
*DEL*:00000000H   CODE     ---       soft_iic_sccb_read_register
*DEL*:00000000H   CODE     ---       soft_iic_sccb_write_register
      00FF82BEH   CODE     ---       soft_iic_send_ack
      00FF7C73H   CODE     ---       soft_iic_send_data
      00FF85E3H   CODE     ---       soft_iic_start
      00FF846BH   CODE     ---       soft_iic_stop
*DEL*:00000000H   CODE     ---       soft_iic_transfer_16bit_array
*DEL*:00000000H   CODE     ---       soft_iic_transfer_8bit_array
      00FF81CFH   CODE     ---       soft_iic_wait_ack
*DEL*:00000000H   CODE     ---       soft_iic_write_16bit
*DEL*:00000000H   CODE     ---       soft_iic_write_16bit_array
*DEL*:00000000H   CODE     ---       soft_iic_write_16bit_register
*DEL*:00000000H   CODE     ---       soft_iic_write_16bit_registers
*DEL*:00000000H   CODE     ---       soft_iic_write_8bit
*DEL*:00000000H   CODE     ---       soft_iic_write_8bit_array
*DEL*:00000000H   CODE     ---       soft_iic_write_8bit_register
*DEL*:00000000H   CODE     ---       soft_iic_write_8bit_registers
*DEL*:00000000H   CODE     ---       soft_spi_delay
*DEL*:00000000H   CODE     ---       soft_spi_init
*DEL*:00000000H   CODE     ---       soft_spi_read_16bit
*DEL*:00000000H   CODE     ---       soft_spi_read_16bit_array
*DEL*:00000000H   CODE     ---       soft_spi_read_16bit_register
*DEL*:00000000H   CODE     ---       soft_spi_read_16bit_registers
*DEL*:00000000H   CODE     ---       soft_spi_read_8bit
*DEL*:00000000H   CODE     ---       soft_spi_read_8bit_array
*DEL*:00000000H   CODE     ---       soft_spi_read_8bit_register
*DEL*:00000000H   CODE     ---       soft_spi_read_8bit_registers
*DEL*:00000000H   CODE     ---       soft_spi_transfer_16bit
*DEL*:00000000H   CODE     ---       soft_spi_transfer_8bit
*DEL*:00000000H   CODE     ---       soft_spi_write_16bit
*DEL*:00000000H   CODE     ---       soft_spi_write_16bit_array
*DEL*:00000000H   CODE     ---       soft_spi_write_16bit_register
*DEL*:00000000H   CODE     ---       soft_spi_write_16bit_registers
*DEL*:00000000H   CODE     ---       soft_spi_write_8bit
*DEL*:00000000H   CODE     ---       soft_spi_write_8bit_array
*DEL*:00000000H   CODE     ---       soft_spi_write_8bit_register
*DEL*:00000000H   CODE     ---       soft_spi_write_8bit_registers
*SFR* 00000081H   DATA     BYTE      SP
*SFR* 000000CEH   DATA     BYTE      SPCTL
*SFR* 000000CFH   DATA     BYTE      SPDAT
*SFR* 000000BEH   DATA     BYTE      SPH
      00FF4C5DH   CODE     ---       spi_init
*DEL*:00000000H   CODE     ---       spi_read_16bit
*DEL*:00000000H   CODE     ---       spi_read_16bit_array
*DEL*:00000000H   CODE     ---       spi_read_16bit_register
*DEL*:00000000H   CODE     ---       spi_read_16bit_registers
*DEL*:00000000H   CODE     ---       spi_read_8bit
*DEL*:00000000H   CODE     ---       spi_read_8bit_array
*DEL*:00000000H   CODE     ---       spi_read_8bit_register
*DEL*:00000000H   CODE     ---       spi_read_8bit_registers
*DEL*:00000000H   CODE     ---       spi_read_dat
L251 LINKER/LOCATER V4.66.93.0                                                        09/12/2025  17:12:15  PAGE 30


*DEL*:00000000H   CODE     ---       spi_transfer_16bit
*DEL*:00000000H   CODE     ---       spi_transfer_8bit
      00FF8C14H   CODE     ---       spi_write_16bit
*DEL*:00000000H   CODE     ---       spi_write_16bit_array
*DEL*:00000000H   CODE     ---       spi_write_16bit_register
*DEL*:00000000H   CODE     ---       spi_write_16bit_registers
      00FF01BEH   CODE     ---       spi_write_8bit
*DEL*:00000000H   CODE     ---       spi_write_8bit_array
*DEL*:00000000H   CODE     ---       spi_write_8bit_register
*DEL*:00000000H   CODE     ---       spi_write_8bit_registers
      00FF883CH   CODE     ---       spi_write_dat
      00FF26A4H   CODE     NEAR LAB  sprintf
*SFR* 000000CDH   DATA     BYTE      SPSTAT
      00FF26CAH   CODE     ---       sqrt?_
      00010D4FH   XDATA    CHAR      Start_Show_Row
      00010D5EH   XDATA    BYTE      State
*DEL*:00000000H   CODE     ---       strchr?_
*DEL*:00000000H   CODE     ---       strlen?_
*DEL*:00000000H   CODE     ---       strncmp?_
*DEL*:00000000H   CODE     ---       strncpy?_
      00010D94H   XDATA    LONG      system_clock
      00FF852FH   CODE     ---       system_delay_init
      00FF8331H   CODE     ---       system_delay_ms
*DEL*:00000000H   CODE     ---       system_delay_us
      00010D92H   XDATA    INT       T
*SFR* 000000B0H.4 DATA     BIT       T0
*SFR* 000000B0H.5 DATA     BIT       T1
*SFR* 00000090H.0 DATA     BIT       T2
*SFR* 000000C8H   DATA     BYTE      T2CON
*SFR* 00000090H.1 DATA     BIT       T2EX
*SFR* 000000D6H   DATA     BYTE      T2H
*SFR* 000000D7H   DATA     BYTE      T2L
*SFR* 000000C9H   DATA     BYTE      T2MOD
*SFR* 000000D4H   DATA     BYTE      T3H
*SFR* 000000D5H   DATA     BYTE      T3L
*SFR* 000000D2H   DATA     BYTE      T4H
*SFR* 000000D3H   DATA     BYTE      T4L
*SFR* 000000DDH   DATA     BYTE      T4T3M
      00FF286EH   CODE     ---       TAN?_
*SFR* 00000098H.3 DATA     BIT       TB8
*SFR* 000000C8H.4 DATA     BIT       TCLK
*SFR* 00000088H   DATA     BYTE      TCON
      00010D8EH   XDATA    FLOAT     test
*SFR* 00000088H.5 DATA     BIT       TF0
*SFR* 00000088H.7 DATA     BIT       TF1
*SFR* 000000C8H.7 DATA     BIT       TF2
      00010D7AH   XDATA    WORD      tft180_bgcolor
      00FF8404H   CODE     ---       tft180_clear
      00010D7CH   XDATA    INT       tft180_display_dir
*DEL*:00000000H   CODE     ---       tft180_draw_point
      00FF58CCH   CODE     ---       tft180_init
      00010D78H   XDATA    WORD      tft180_pencolor
      00FF000EH   CODE     ---       tft180_set_color
      00FF8B7FH   CODE     ---       tft180_set_dir
      00FF73AFH   CODE     ---       tft180_show_char
      00FF6497H   CODE     ---       tft180_show_float
      00FF6D32H   CODE     ---       tft180_show_int16
*DEL*:00000000H   CODE     ---       tft180_show_int32
*DEL*:00000000H   CODE     ---       tft180_show_int8
      00FF79FAH   CODE     ---       tft180_show_string
*DEL*:00000000H   CODE     ---       tft180_show_uint16
*DEL*:00000000H   CODE     ---       tft180_show_uint8
*DEL*:00000000H   CODE     ---       tft180_show_wave
      00010D7EH   XDATA    BYTE      tft180_x_max
      00010D7FH   XDATA    BYTE      tft180_y_max
L251 LINKER/LOCATER V4.66.93.0                                                        09/12/2025  17:12:15  PAGE 31


*SFR* 0000008CH   DATA     BYTE      TH0
*SFR* 0000008DH   DATA     BYTE      TH1
*SFR* 000000CDH   DATA     BYTE      TH2
*SFR* 00000098H.1 DATA     BIT       TI
      00010CBDH   XDATA    ---       tim0_irq_handler
      00010CB3H   XDATA    ---       tim11_irq_handler
      00010CC1H   XDATA    ---       tim1_irq_handler
      00010CC5H   XDATA    ---       tim2_irq_handler
      00010CC9H   XDATA    ---       tim3_irq_handler
      00010CCDH   XDATA    ---       tim4_irq_handler
      00010D64H   XDATA    WORD      Time_dou
      00FF863AH   CODE     ---       timer_funciton_check
*SFR* 0000008AH   DATA     BYTE      TL0
*SFR* 0000008BH   DATA     BYTE      TL1
*SFR* 000000CCH   DATA     BYTE      TL2
      00FF88BFH   CODE     ---       TM0_IRQHandler
      00FF86D2H   CODE     ---       TM11_IRQHandler
      00FF88FDH   CODE     ---       TM1_IRQHandler
      00FF893BH   CODE     ---       TM2_IRQHandler
      00FF8979H   CODE     ---       TM3_IRQHandler
      00FF89B7H   CODE     ---       TM4_IRQHandler
*SFR* 00000089H   DATA     BYTE      TMOD
      00010D70H   XDATA    ---       tof_module_exti_handler
      00010D74H   XDATA    INT       tof_type
*SFR* 00000088H.4 DATA     BIT       TR0
*SFR* 00000088H.6 DATA     BIT       TR1
*SFR* 000000C8H.2 DATA     BIT       TR2
      00010D5FH   XDATA    INT       Trigg_time
*DEL*:00000000H   CODE     ---       tsl1401_collect_pit_handler
      00010642H   XDATA    ---       tsl1401_data
      00010641H   XDATA    BYTE      tsl1401_finish_flag
*DEL*:00000000H   CODE     ---       tsl1401_init
*DEL*:00000000H   CODE     ---       tsl1401_send_data
*SFR* 000000B0H.1 DATA     BIT       TXD
      00010CB5H   XDATA    ---       uart1_irq_handler
      00010CB7H   XDATA    ---       uart2_irq_handler
      00010CB9H   XDATA    ---       uart3_irq_handler
      00010CBBH   XDATA    ---       uart4_irq_handler
      00FF6970H   CODE     ---       uart_dma_init
      00FF8686H   CODE     ---       uart_funciton_check
      00FF5E61H   CODE     ---       uart_init
      00FF84CDH   CODE     ---       uart_query_byte
*DEL*:00000000H   CODE     ---       uart_read_byte
      00010D38H   XDATA    ---       uart_rx_buff
      00FF87F7H   CODE     ---       uart_rx_interrupt
      00FF7D04H   CODE     ---       uart_rx_start_buff
      00FF72CDH   CODE     ---       uart_write_buffer
      00FF8C63H   CODE     ---       uart_write_byte
*DEL*:00000000H   CODE     ---       uart_write_string
*DEL*:00000000H   CODE     ---       unification
*SFR* 000000F4H   DATA     BYTE      USBCON
*SFR* 000000C1H   DATA     BYTE      WDT_CONTR
*SFR* 000000A6H   DATA     BYTE      WDTRST
      00010D72H   XDATA    INT       wireless_type
*DEL*:00000000H   CODE     ---       wireless_uart_callback
*DEL*:00000000H   CODE     ---       wireless_uart_init
*DEL*:00000000H   CODE     ---       wireless_uart_read_buffer
*DEL*:00000000H   CODE     ---       wireless_uart_send_buffer
*DEL*:00000000H   CODE     ---       wireless_uart_send_byte
*DEL*:00000000H   CODE     ---       wireless_uart_send_string
*SFR* 000000ABH   DATA     BYTE      WKTCH
*SFR* 000000B0H.6 DATA     BIT       WR
*SFR* 000000E9H   DATA     BYTE      WTST
      00FF3940H   CODE     ---       zf_sprintf

L251 LINKER/LOCATER V4.66.93.0                                                        09/12/2025  17:12:15  PAGE 32




SYMBOL TABLE OF MODULE:  .\out_file\SEEKFREE (ai8051u_isr)

      VALUE       REP       CLASS    TYPE      SYMBOL NAME
      ====================================================
      ---         MODULE    ---      ---       ai8051u_isr

      00FF019BH   BLOCK     CODE     NEAR LAB  LVL=0
      00FF019BH   LINE      CODE     ---       #3
      ---         BLOCKEND  ---      ---       LVL=0

      00FF01ABH   BLOCK     CODE     NEAR LAB  LVL=0
      00FF01ABH   LINE      CODE     ---       #6
      ---         BLOCKEND  ---      ---       LVL=0

      00FF01BBH   BLOCK     CODE     NEAR LAB  LVL=0
      00FF01BBH   LINE      CODE     ---       #9
      ---         BLOCKEND  ---      ---       LVL=0

      00FF01CBH   BLOCK     CODE     NEAR LAB  LVL=0
      00FF01CBH   LINE      CODE     ---       #12
      ---         BLOCKEND  ---      ---       LVL=0

      00FF021BH   BLOCK     CODE     NEAR LAB  LVL=0
      00FF021BH   LINE      CODE     ---       #15
      ---         BLOCKEND  ---      ---       LVL=0

      ---         MODULE    ---      ---       zf_common_clock
      00FF748FH   PUBLIC    CODE     ---       clock_init
      00010D94H   PUBLIC    XDATA    LONG      system_clock
      00000094H   SFRSYM    DATA     BYTE      P0M0
      000000D0H   SFRSYM    DATA     BYTE      PSW
      0000009DH   SFRSYM    DATA     BYTE      IRCBAND
      00000097H   SFRSYM    DATA     BYTE      AUXR2
      000000EAH   SFRSYM    DATA     BYTE      CKCON
      000000EFH   SFRSYM    DATA     BYTE      AUXINTIF
      000000FDH   SFRSYM    DATA     BYTE      S4CON
      000000ACH   SFRSYM    DATA     BYTE      S3CON
      0000009AH   SFRSYM    DATA     BYTE      S2CON
      000000B7H   SFRSYM    DATA     BYTE      IPH
      000000CDH   SFRSYM    DATA     BYTE      SPSTAT
      000000DDH   SFRSYM    DATA     BYTE      T4T3M
      000000C1H   SFRSYM    DATA     BYTE      WDT_CONTR
      000000E9H   SFRSYM    DATA     BYTE      WTST
      000000DFH   SFRSYM    DATA     BYTE      IP3
      000000F4H   SFRSYM    DATA     BYTE      USBCON
      000000B5H   SFRSYM    DATA     BYTE      IP2
      000000FFH   SFRSYM    DATA     BYTE      RSTCFG
      000000C7H   SFRSYM    DATA     BYTE      IAP_CONTR
      0000008EH   SFRSYM    DATA     BYTE      AUXR
      000000AFH   SFRSYM    DATA     BYTE      IE2
      00000088H   SFRSYM    DATA     BYTE      TCON
      00000089H   SFRSYM    DATA     BYTE      TMOD
      00000098H   SFRSYM    DATA     BYTE      SCON
      00000087H   SFRSYM    DATA     BYTE      PCON
      000000BCH   SFRSYM    DATA     BYTE      ADC_CONTR
      000000D1H   SFRSYM    DATA     BYTE      PSW1
      000000E7H   SFRSYM    DATA     BYTE      CMPCR2
      000000E6H   SFRSYM    DATA     BYTE      CMPCR1
      000000DEH   SFRSYM    DATA     BYTE      ADCCFG
      000000B8H   SFRSYM    DATA     BYTE      IP
      0000008FH   SFRSYM    DATA     BYTE      INTCLKO
      000000EEH   SFRSYM    DATA     BYTE      IP3H
      000000B6H   SFRSYM    DATA     BYTE      IP2H
L251 LINKER/LOCATER V4.66.93.0                                                        09/12/2025  17:12:15  PAGE 33


      000000BFH   SFRSYM    DATA     BYTE      P_SW4
      000000A8H   SFRSYM    DATA     BYTE      IE
      000000BBH   SFRSYM    DATA     BYTE      P_SW3
      000000BAH   SFRSYM    DATA     BYTE      P_SW2
      000000A2H   SFRSYM    DATA     BYTE      P_SW1
      000000CEH   SFRSYM    DATA     BYTE      SPCTL
      000000F8H   SFRSYM    DATA     BYTE      P7
      000000E1H   SFRSYM    DATA     BYTE      P7M1
      000000E8H   SFRSYM    DATA     BYTE      P6
      000000C8H   SFRSYM    DATA     BYTE      P5
      000000CBH   SFRSYM    DATA     BYTE      P6M1
      000000E2H   SFRSYM    DATA     BYTE      P7M0
      000000C0H   SFRSYM    DATA     BYTE      P4
      000000C9H   SFRSYM    DATA     BYTE      P5M1
      000000CCH   SFRSYM    DATA     BYTE      P6M0
      000000ABH   SFRSYM    DATA     BYTE      WKTCH
      000000B0H   SFRSYM    DATA     BYTE      P3
      000000B3H   SFRSYM    DATA     BYTE      P4M1
      000000CAH   SFRSYM    DATA     BYTE      P5M0
      000000A0H   SFRSYM    DATA     BYTE      P2
      000000B1H   SFRSYM    DATA     BYTE      P3M1
      000000B4H   SFRSYM    DATA     BYTE      P4M0
      00000090H   SFRSYM    DATA     BYTE      P1
      00000095H   SFRSYM    DATA     BYTE      P2M1
      000000B2H   SFRSYM    DATA     BYTE      P3M0
      00000080H   SFRSYM    DATA     BYTE      P0
      00000091H   SFRSYM    DATA     BYTE      P1M1
      00000096H   SFRSYM    DATA     BYTE      P2M0
      00000092H   SFRSYM    DATA     BYTE      P1M0
      00000093H   SFRSYM    DATA     BYTE      P0M1

      00FF748FH   BLOCK     CODE     ---       LVL=0
      DR12        REGSYM    ---      DWORD     clock
      00FF748FH   LINE      CODE     ---       #47
      00FF7493H   LINE      CODE     ---       #49
      00FF7496H   LINE      CODE     ---       #50
      00FF7499H   LINE      CODE     ---       #51
      00FF749CH   LINE      CODE     ---       #54
      00FF74A9H   LINE      CODE     ---       #55
      00FF74B7H   LINE      CODE     ---       #56
      00FF74C3H   LINE      CODE     ---       #57
      00FF74D0H   LINE      CODE     ---       #58
      00FF74DCH   LINE      CODE     ---       #60
      00FF74DFH   LINE      CODE     ---       #63
      00FF74E9H   LINE      CODE     ---       #65
      00FF74ECH   LINE      CODE     ---       #66
      00FF74EFH   LINE      CODE     ---       #67
      00FF74F2H   LINE      CODE     ---       #68
      00FF74F5H   LINE      CODE     ---       #69
      00FF74F8H   LINE      CODE     ---       #70
      00FF74FBH   LINE      CODE     ---       #71
      00FF74FEH   LINE      CODE     ---       #72
      00FF7501H   LINE      CODE     ---       #73
      00FF7504H   LINE      CODE     ---       #74
      00FF7507H   LINE      CODE     ---       #75
      00FF750AH   LINE      CODE     ---       #76
      00FF750DH   LINE      CODE     ---       #77
      00FF7510H   LINE      CODE     ---       #78
      00FF7513H   LINE      CODE     ---       #79
      00FF7516H   LINE      CODE     ---       #80
      00FF7519H   LINE      CODE     ---       #83
      00FF751CH   LINE      CODE     ---       #84
      00FF751FH   LINE      CODE     ---       #85
      00FF7522H   LINE      CODE     ---       #86
      00FF7525H   LINE      CODE     ---       #87
L251 LINKER/LOCATER V4.66.93.0                                                        09/12/2025  17:12:15  PAGE 34


      00FF7528H   LINE      CODE     ---       #88
      00FF752BH   LINE      CODE     ---       #89
      00FF752EH   LINE      CODE     ---       #90
      00FF7531H   LINE      CODE     ---       #91
      00FF7534H   LINE      CODE     ---       #92
      00FF7537H   LINE      CODE     ---       #93
      00FF7543H   LINE      CODE     ---       #94
      00FF754FH   LINE      CODE     ---       #96
      00FF755BH   LINE      CODE     ---       #97
      00FF7567H   LINE      CODE     ---       #100
      00FF756AH   LINE      CODE     ---       #101
      ---         BLOCKEND  ---      ---       LVL=0

      ---         MODULE    ---      ---       zf_common_debug
      00FF89F5H   PUBLIC    CODE     ---       debug_interrupr_handler
      00FF7B48H   PUBLIC    CODE     ---       debug_init
      00FF839CH   PUBLIC    CODE     ---       debug_assert_handler
      00FF8C77H   PUBLIC    CODE     ---       putchar
      00010B50H   PUBLIC    XDATA    ---       debug_uart_buffer
      00010B91H   PUBLIC    XDATA    ---       debug_uart_fifo
      000000D0H   SFRSYM    DATA     BYTE      PSW
      0000009DH   SFRSYM    DATA     BYTE      IRCBAND
      00000097H   SFRSYM    DATA     BYTE      AUXR2
      000000EFH   SFRSYM    DATA     BYTE      AUXINTIF
      000000FDH   SFRSYM    DATA     BYTE      S4CON
      000000ACH   SFRSYM    DATA     BYTE      S3CON
      0000009AH   SFRSYM    DATA     BYTE      S2CON
      000000B7H   SFRSYM    DATA     BYTE      IPH
      000000CDH   SFRSYM    DATA     BYTE      SPSTAT
      000000DDH   SFRSYM    DATA     BYTE      T4T3M
      000000C1H   SFRSYM    DATA     BYTE      WDT_CONTR
      000000DFH   SFRSYM    DATA     BYTE      IP3
      000000F4H   SFRSYM    DATA     BYTE      USBCON
      000000B5H   SFRSYM    DATA     BYTE      IP2
      000000FFH   SFRSYM    DATA     BYTE      RSTCFG
      000000C7H   SFRSYM    DATA     BYTE      IAP_CONTR
      0000008EH   SFRSYM    DATA     BYTE      AUXR
      000000AFH   SFRSYM    DATA     BYTE      IE2
      00000088H   SFRSYM    DATA     BYTE      TCON
      00000089H   SFRSYM    DATA     BYTE      TMOD
      00000098H   SFRSYM    DATA     BYTE      SCON
      00000087H   SFRSYM    DATA     BYTE      PCON
      000000BCH   SFRSYM    DATA     BYTE      ADC_CONTR
      000000D1H   SFRSYM    DATA     BYTE      PSW1
      000000E7H   SFRSYM    DATA     BYTE      CMPCR2
      000000E6H   SFRSYM    DATA     BYTE      CMPCR1
      000000DEH   SFRSYM    DATA     BYTE      ADCCFG
      000000B8H   SFRSYM    DATA     BYTE      IP
      0000008FH   SFRSYM    DATA     BYTE      INTCLKO
      000000EEH   SFRSYM    DATA     BYTE      IP3H
      000000B6H   SFRSYM    DATA     BYTE      IP2H
      000000BFH   SFRSYM    DATA     BYTE      P_SW4
      000000A8H   SFRSYM    DATA     BYTE      IE
      000000BBH   SFRSYM    DATA     BYTE      P_SW3
      000000BAH   SFRSYM    DATA     BYTE      P_SW2
      000000A2H   SFRSYM    DATA     BYTE      P_SW1
      000000CEH   SFRSYM    DATA     BYTE      SPCTL
      000000F8H   SFRSYM    DATA     BYTE      P7
      000000E8H   SFRSYM    DATA     BYTE      P6
      000000C8H   SFRSYM    DATA     BYTE      P5
      000000C0H   SFRSYM    DATA     BYTE      P4
      000000ABH   SFRSYM    DATA     BYTE      WKTCH
      000000B0H   SFRSYM    DATA     BYTE      P3
      000000A0H   SFRSYM    DATA     BYTE      P2
      00000090H   SFRSYM    DATA     BYTE      P1
L251 LINKER/LOCATER V4.66.93.0                                                        09/12/2025  17:12:15  PAGE 35


      00000080H   SFRSYM    DATA     BYTE      P0
      00FFA4DDH   SYMBOL    HCONST   ---       ?tpl?0001
      00010B90H   SYMBOL    XDATA    BYTE      zf_debug_assert_enable
      00010BA8H   SYMBOL    XDATA    BYTE      zf_debug_init_flag
      DR12        REGSYM    ---      DWORD     len
      REG=2       REGSYM    ---      ---       buff

      00FF89F5H   BLOCK     CODE     ---       LVL=0
      0001043BH   SYMBOL    XDATA    BYTE      dat
      00FF89F5H   LINE      CODE     ---       #281
      00FF89F9H   LINE      CODE     ---       #283
      00FF89FFH   LINE      CODE     ---       #285
      00FF8A0CH   LINE      CODE     ---       #286
      00FF8A2DH   LINE      CODE     ---       #287
      ---         BLOCKEND  ---      ---       LVL=0

      00FF8C77H   BLOCK     CODE     ---       LVL=0
      R15         REGSYM    ---      CHAR      c
      00FF8C77H   LINE      CODE     ---       #303
      00FF8C7BH   LINE      CODE     ---       #305
      00FF8C82H   LINE      CODE     ---       #307
      00FF8C84H   LINE      CODE     ---       #308
      ---         BLOCKEND  ---      ---       LVL=0

      00FF839CH   BLOCK     CODE     ---       LVL=0
      0001047AH   SYMBOL    XDATA    BYTE      pass
      REG=3       REGSYM    ---      ---       file
      0001047BH   SYMBOL    XDATA    INT       line
      00FF83AAH   BLOCK     CODE     NEAR LAB  LVL=1
      0001047DH   SYMBOL    XDATA    ---       log_str
      ---         BLOCKEND  ---      ---       LVL=1
      00FF839CH   LINE      CODE     ---       #346
      00FF83AAH   LINE      CODE     ---       #347
      00FF83AAH   LINE      CODE     ---       #348
      00FF83BFH   LINE      CODE     ---       #350
      00FF83C1H   LINE      CODE     ---       #366
      00FF83F4H   LINE      CODE     ---       #369
      00FF83FBH   LINE      CODE     ---       #370
      00FF8401H   LINE      CODE     ---       #371
      ---         BLOCKEND  ---      ---       LVL=0

      00FF7B48H   BLOCK     CODE     ---       LVL=0
      00FF7B4AH   BLOCK     CODE     NEAR LAB  LVL=1
      R15         REGSYM    ---      BYTE      uartx
      ---         BLOCKEND  ---      ---       LVL=1
      00FF7B48H   LINE      CODE     ---       #453
      00FF7B4AH   LINE      CODE     ---       #454
      00FF7B4AH   LINE      CODE     ---       #455
      00FF7B4CH   LINE      CODE     ---       #461
      00FF7B67H   LINE      CODE     ---       #468
      00FF7B94H   LINE      CODE     ---       #469
      00FF7B9BH   LINE      CODE     ---       #472
      00FF7B9FH   LINE      CODE     ---       #474
      00FF7BA9H   LINE      CODE     ---       #475
      00FF7BABH   LINE      CODE     ---       #476
      00FF7BB0H   LINE      CODE     ---       #478
      00FF7BBAH   LINE      CODE     ---       #479
      00FF7BBCH   LINE      CODE     ---       #480
      00FF7BC1H   LINE      CODE     ---       #482
      00FF7BCBH   LINE      CODE     ---       #483
      00FF7BCDH   LINE      CODE     ---       #484
      00FF7BD2H   LINE      CODE     ---       #486
      00FF7BDCH   LINE      CODE     ---       #487
      ---         BLOCKEND  ---      ---       LVL=0

L251 LINKER/LOCATER V4.66.93.0                                                        09/12/2025  17:12:15  PAGE 36


      ---         MODULE    ---      ---       zf_common_fifo
      00FF5102H   PUBLIC    CODE     ---       fifo_write_buffer
      00FF814EH   PUBLIC    CODE     ---       fifo_init
      00010438H   PUBLIC    XDATA    BYTE      ?fifo_write_buffer?BYTE
      00010437H   PUBLIC    XDATA    BYTE      ?fifo_init?BYTE
      000000D0H   SFRSYM    DATA     BYTE      PSW
      0000009DH   SFRSYM    DATA     BYTE      IRCBAND
      00000097H   SFRSYM    DATA     BYTE      AUXR2
      000000EFH   SFRSYM    DATA     BYTE      AUXINTIF
      000000FDH   SFRSYM    DATA     BYTE      S4CON
      000000ACH   SFRSYM    DATA     BYTE      S3CON
      0000009AH   SFRSYM    DATA     BYTE      S2CON
      000000B7H   SFRSYM    DATA     BYTE      IPH
      000000CDH   SFRSYM    DATA     BYTE      SPSTAT
      000000DDH   SFRSYM    DATA     BYTE      T4T3M
      000000C1H   SFRSYM    DATA     BYTE      WDT_CONTR
      000000DFH   SFRSYM    DATA     BYTE      IP3
      000000F4H   SFRSYM    DATA     BYTE      USBCON
      000000B5H   SFRSYM    DATA     BYTE      IP2
      000000FFH   SFRSYM    DATA     BYTE      RSTCFG
      000000C7H   SFRSYM    DATA     BYTE      IAP_CONTR
      0000008EH   SFRSYM    DATA     BYTE      AUXR
      000000AFH   SFRSYM    DATA     BYTE      IE2
      00000088H   SFRSYM    DATA     BYTE      TCON
      00000089H   SFRSYM    DATA     BYTE      TMOD
      00000098H   SFRSYM    DATA     BYTE      SCON
      00000087H   SFRSYM    DATA     BYTE      PCON
      000000BCH   SFRSYM    DATA     BYTE      ADC_CONTR
      000000D1H   SFRSYM    DATA     BYTE      PSW1
      000000E7H   SFRSYM    DATA     BYTE      CMPCR2
      000000E6H   SFRSYM    DATA     BYTE      CMPCR1
      000000DEH   SFRSYM    DATA     BYTE      ADCCFG
      000000B8H   SFRSYM    DATA     BYTE      IP
      0000008FH   SFRSYM    DATA     BYTE      INTCLKO
      000000EEH   SFRSYM    DATA     BYTE      IP3H
      000000B6H   SFRSYM    DATA     BYTE      IP2H
      000000BFH   SFRSYM    DATA     BYTE      P_SW4
      000000A8H   SFRSYM    DATA     BYTE      IE
      000000BBH   SFRSYM    DATA     BYTE      P_SW3
      000000BAH   SFRSYM    DATA     BYTE      P_SW2
      000000A2H   SFRSYM    DATA     BYTE      P_SW1
      000000CEH   SFRSYM    DATA     BYTE      SPCTL
      000000F8H   SFRSYM    DATA     BYTE      P7
      000000E8H   SFRSYM    DATA     BYTE      P6
      000000C8H   SFRSYM    DATA     BYTE      P5
      000000C0H   SFRSYM    DATA     BYTE      P4
      000000ABH   SFRSYM    DATA     BYTE      WKTCH
      000000B0H   SFRSYM    DATA     BYTE      P3
      000000A0H   SFRSYM    DATA     BYTE      P2
      00000090H   SFRSYM    DATA     BYTE      P1
      00000080H   SFRSYM    DATA     BYTE      P0
      00FF01CEH   SYMBOL    CODE     ---       fifo_head_offset

      00FF01CEH   BLOCK     CODE     ---       LVL=0
      REG=7       REGSYM    ---      ---       fifo
      DR24        REGSYM    ---      DWORD     offset
      00FF01CEH   LINE      CODE     ---       #51
      00FF01D2H   LINE      CODE     ---       #53
      00FF01E6H   LINE      CODE     ---       #55
      00FF01E8H   LINE      CODE     ---       #57
      00FF0206H   LINE      CODE     ---       #58
      00FF021AH   LINE      CODE     ---       #59
      ---         BLOCKEND  ---      ---       LVL=0
      REG=7       REGSYM    ---      ---       fifo
      DR24        REGSYM    ---      DWORD     offset
L251 LINKER/LOCATER V4.66.93.0                                                        09/12/2025  17:12:15  PAGE 37


      REG=3       REGSYM    ---      ---       fifo
      REG=3       REGSYM    ---      ---       fifo

      00FF5102H   BLOCK     CODE     ---       LVL=0
      REG=3       REGSYM    ---      ---       fifo
      0001043CH   SYMBOL    XDATA    ---       dat
      00010440H   SYMBOL    XDATA    DWORD     length
      00FF5110H   BLOCK     CODE     NEAR LAB  LVL=1
      00010444H   SYMBOL    XDATA    INT       return_state
      00010446H   SYMBOL    XDATA    DWORD     temp_length
      ---         BLOCKEND  ---      ---       LVL=1
      00FF5102H   LINE      CODE     ---       #178
      00FF5110H   LINE      CODE     ---       #179
      00FF5110H   LINE      CODE     ---       #180
      00FF5118H   LINE      CODE     ---       #181
      00FF5124H   LINE      CODE     ---       #182
      00FF513EH   LINE      CODE     ---       #184
      00FF513EH   LINE      CODE     ---       #186
      00FF514CH   LINE      CODE     ---       #188
      00FF5156H   LINE      CODE     ---       #189
      00FF5159H   LINE      CODE     ---       #190
      00FF5159H   LINE      CODE     ---       #191
      00FF5164H   LINE      CODE     ---       #193
      00FF516EH   LINE      CODE     ---       #194
      00FF5171H   LINE      CODE     ---       #195
      00FF5171H   LINE      CODE     ---       #196
      00FF5179H   LINE      CODE     ---       #198
      00FF5192H   LINE      CODE     ---       #200
      00FF51AEH   LINE      CODE     ---       #202
      00FF51C9H   LINE      CODE     ---       #204
      00FF51E2H   LINE      CODE     ---       #206
      00FF51E2H   LINE      CODE     ---       #208
      00FF520FH   LINE      CODE     ---       #211
      00FF521EH   LINE      CODE     ---       #212
      00FF5269H   LINE      CODE     ---       #216
      00FF5284H   LINE      CODE     ---       #217
      00FF5287H   LINE      CODE     ---       #218
      00FF5287H   LINE      CODE     ---       #220
      00FF52B8H   LINE      CODE     ---       #223
      00FF52C7H   LINE      CODE     ---       #224
      00FF5314H   LINE      CODE     ---       #228
      00FF532FH   LINE      CODE     ---       #229
      00FF5332H   LINE      CODE     ---       #230
      00FF5332H   LINE      CODE     ---       #232
      00FF5367H   LINE      CODE     ---       #235
      00FF5376H   LINE      CODE     ---       #236
      00FF53C9H   LINE      CODE     ---       #240
      00FF53E4H   LINE      CODE     ---       #241
      00FF53E4H   LINE      CODE     ---       #242
      00FF53E4H   LINE      CODE     ---       #243
      00FF53E7H   LINE      CODE     ---       #246
      00FF53FDH   LINE      CODE     ---       #248
      00FF53FDH   LINE      CODE     ---       #250
      00FF542AH   LINE      CODE     ---       #253
      00FF5439H   LINE      CODE     ---       #254
      00FF543CH   LINE      CODE     ---       #255
      00FF543CH   LINE      CODE     ---       #257
      00FF546DH   LINE      CODE     ---       #260
      00FF547CH   LINE      CODE     ---       #261
      00FF547EH   LINE      CODE     ---       #262
      00FF547EH   LINE      CODE     ---       #264
      00FF54B3H   LINE      CODE     ---       #267
      00FF54C2H   LINE      CODE     ---       #268
      00FF54C2H   LINE      CODE     ---       #269
      00FF54C2H   LINE      CODE     ---       #270
L251 LINKER/LOCATER V4.66.93.0                                                        09/12/2025  17:12:15  PAGE 38


      00FF54C2H   LINE      CODE     ---       #272
      00FF54E2H   LINE      CODE     ---       #273
      00FF54E4H   LINE      CODE     ---       #276
      00FF54EEH   LINE      CODE     ---       #277
      00FF54EEH   LINE      CODE     ---       #278
      00FF54F6H   LINE      CODE     ---       #279
      00FF54F6H   LINE      CODE     ---       #281
      00FF54FCH   LINE      CODE     ---       #282
      ---         BLOCKEND  ---      ---       LVL=0
      REG=3       REGSYM    ---      ---       fifo

      00FF814EH   BLOCK     CODE     ---       LVL=0
      REG=3       REGSYM    ---      ---       fifo
      0001043BH   SYMBOL    XDATA    INT       type
      0001043DH   SYMBOL    XDATA    ---       buffer_addr
      00010441H   SYMBOL    XDATA    DWORD     siz
      00FF814EH   LINE      CODE     ---       #549
      00FF8158H   LINE      CODE     ---       #551
      00FF8172H   LINE      CODE     ---       #552
      00FF8172H   LINE      CODE     ---       #554
      00FF8184H   LINE      CODE     ---       #555
      00FF8188H   LINE      CODE     ---       #556
      00FF8192H   LINE      CODE     ---       #557
      00FF819CH   LINE      CODE     ---       #558
      00FF81A6H   LINE      CODE     ---       #559
      00FF81B8H   LINE      CODE     ---       #560
      00FF81CAH   LINE      CODE     ---       #561
      00FF81CAH   LINE      CODE     ---       #562
      00FF81CCH   LINE      CODE     ---       #563
      ---         BLOCKEND  ---      ---       LVL=0

      ---         MODULE    ---      ---       zf_common_font
      00FF415DH   PUBLIC    CODE     ---       ascii_font_8x16
      000000D0H   SFRSYM    DATA     BYTE      PSW
      0000009DH   SFRSYM    DATA     BYTE      IRCBAND
      00000097H   SFRSYM    DATA     BYTE      AUXR2
      000000EFH   SFRSYM    DATA     BYTE      AUXINTIF
      000000FDH   SFRSYM    DATA     BYTE      S4CON
      000000ACH   SFRSYM    DATA     BYTE      S3CON
      0000009AH   SFRSYM    DATA     BYTE      S2CON
      000000B7H   SFRSYM    DATA     BYTE      IPH
      000000CDH   SFRSYM    DATA     BYTE      SPSTAT
      000000DDH   SFRSYM    DATA     BYTE      T4T3M
      000000C1H   SFRSYM    DATA     BYTE      WDT_CONTR
      000000DFH   SFRSYM    DATA     BYTE      IP3
      000000F4H   SFRSYM    DATA     BYTE      USBCON
      000000B5H   SFRSYM    DATA     BYTE      IP2
      000000FFH   SFRSYM    DATA     BYTE      RSTCFG
      000000C7H   SFRSYM    DATA     BYTE      IAP_CONTR
      0000008EH   SFRSYM    DATA     BYTE      AUXR
      000000AFH   SFRSYM    DATA     BYTE      IE2
      00000088H   SFRSYM    DATA     BYTE      TCON
      00000089H   SFRSYM    DATA     BYTE      TMOD
      00000098H   SFRSYM    DATA     BYTE      SCON
      00000087H   SFRSYM    DATA     BYTE      PCON
      000000BCH   SFRSYM    DATA     BYTE      ADC_CONTR
      000000D1H   SFRSYM    DATA     BYTE      PSW1
      000000E7H   SFRSYM    DATA     BYTE      CMPCR2
      000000E6H   SFRSYM    DATA     BYTE      CMPCR1
      000000DEH   SFRSYM    DATA     BYTE      ADCCFG
      000000B8H   SFRSYM    DATA     BYTE      IP
      0000008FH   SFRSYM    DATA     BYTE      INTCLKO
      000000EEH   SFRSYM    DATA     BYTE      IP3H
      000000B6H   SFRSYM    DATA     BYTE      IP2H
      000000BFH   SFRSYM    DATA     BYTE      P_SW4
L251 LINKER/LOCATER V4.66.93.0                                                        09/12/2025  17:12:15  PAGE 39


      000000A8H   SFRSYM    DATA     BYTE      IE
      000000BBH   SFRSYM    DATA     BYTE      P_SW3
      000000BAH   SFRSYM    DATA     BYTE      P_SW2
      000000A2H   SFRSYM    DATA     BYTE      P_SW1
      000000CEH   SFRSYM    DATA     BYTE      SPCTL
      000000F8H   SFRSYM    DATA     BYTE      P7
      000000E8H   SFRSYM    DATA     BYTE      P6
      000000C8H   SFRSYM    DATA     BYTE      P5
      000000C0H   SFRSYM    DATA     BYTE      P4
      000000ABH   SFRSYM    DATA     BYTE      WKTCH
      000000B0H   SFRSYM    DATA     BYTE      P3
      000000A0H   SFRSYM    DATA     BYTE      P2
      00000090H   SFRSYM    DATA     BYTE      P1
      00000080H   SFRSYM    DATA     BYTE      P0

      ---         MODULE    ---      ---       zf_common_function
      00FF3940H   PUBLIC    CODE     ---       zf_sprintf
      00010494H   PUBLIC    XDATA    BYTE      ?zf_sprintf?BYTE
      000000D0H   SFRSYM    DATA     BYTE      PSW
      0000009DH   SFRSYM    DATA     BYTE      IRCBAND
      00000097H   SFRSYM    DATA     BYTE      AUXR2
      000000EFH   SFRSYM    DATA     BYTE      AUXINTIF
      000000FDH   SFRSYM    DATA     BYTE      S4CON
      000000ACH   SFRSYM    DATA     BYTE      S3CON
      0000009AH   SFRSYM    DATA     BYTE      S2CON
      000000B7H   SFRSYM    DATA     BYTE      IPH
      000000CDH   SFRSYM    DATA     BYTE      SPSTAT
      000000DDH   SFRSYM    DATA     BYTE      T4T3M
      000000C1H   SFRSYM    DATA     BYTE      WDT_CONTR
      000000DFH   SFRSYM    DATA     BYTE      IP3
      000000F4H   SFRSYM    DATA     BYTE      USBCON
      000000B5H   SFRSYM    DATA     BYTE      IP2
      000000FFH   SFRSYM    DATA     BYTE      RSTCFG
      000000C7H   SFRSYM    DATA     BYTE      IAP_CONTR
      0000008EH   SFRSYM    DATA     BYTE      AUXR
      000000AFH   SFRSYM    DATA     BYTE      IE2
      00000088H   SFRSYM    DATA     BYTE      TCON
      00000089H   SFRSYM    DATA     BYTE      TMOD
      00000098H   SFRSYM    DATA     BYTE      SCON
      00000087H   SFRSYM    DATA     BYTE      PCON
      000000BCH   SFRSYM    DATA     BYTE      ADC_CONTR
      000000D1H   SFRSYM    DATA     BYTE      PSW1
      000000E7H   SFRSYM    DATA     BYTE      CMPCR2
      000000E6H   SFRSYM    DATA     BYTE      CMPCR1
      000000DEH   SFRSYM    DATA     BYTE      ADCCFG
      000000B8H   SFRSYM    DATA     BYTE      IP
      0000008FH   SFRSYM    DATA     BYTE      INTCLKO
      000000EEH   SFRSYM    DATA     BYTE      IP3H
      000000B6H   SFRSYM    DATA     BYTE      IP2H
      000000BFH   SFRSYM    DATA     BYTE      P_SW4
      000000A8H   SFRSYM    DATA     BYTE      IE
      000000BBH   SFRSYM    DATA     BYTE      P_SW3
      000000BAH   SFRSYM    DATA     BYTE      P_SW2
      000000A2H   SFRSYM    DATA     BYTE      P_SW1
      000000CEH   SFRSYM    DATA     BYTE      SPCTL
      000000F8H   SFRSYM    DATA     BYTE      P7
      000000E8H   SFRSYM    DATA     BYTE      P6
      000000C8H   SFRSYM    DATA     BYTE      P5
      000000C0H   SFRSYM    DATA     BYTE      P4
      000000ABH   SFRSYM    DATA     BYTE      WKTCH
      000000B0H   SFRSYM    DATA     BYTE      P3
      000000A0H   SFRSYM    DATA     BYTE      P2
      00000090H   SFRSYM    DATA     BYTE      P1
      00000080H   SFRSYM    DATA     BYTE      P0
      00FFA259H   SYMBOL    HCONST   ---       ?tpl?0001
L251 LINKER/LOCATER V4.66.93.0                                                        09/12/2025  17:12:15  PAGE 40


      00FF7BDFH   SYMBOL    CODE     ---       number_conversion_ascii
      00FF87AFH   SYMBOL    CODE     ---       printf_reverse_order
      DR8         REGSYM    ---      DWORD     num1
      DR28        REGSYM    ---      DWORD     num2
      REG=3       REGSYM    ---      ---       str
      REG=3       REGSYM    ---      ---       str
      REG=3       REGSYM    ---      ---       str
      REG=3       REGSYM    ---      ---       str
      REG=3       REGSYM    ---      ---       str
      REG=3       REGSYM    ---      ---       str
      REG=3       REGSYM    ---      ---       str
      REG=3       REGSYM    ---      ---       str
      REG=3       REGSYM    ---      ---       str
      REG=3       REGSYM    ---      ---       str

      00FF7BDFH   BLOCK     CODE     ---       LVL=0
      DR24        REGSYM    ---      DWORD     dat
      REG=7       REGSYM    ---      ---       p
      R10         REGSYM    ---      BYTE      neg_type
      000104CFH   SYMBOL    XDATA    BYTE      radix
      00FF7BE7H   BLOCK     CODE     NEAR LAB  LVL=1
      DR20        REGSYM    ---      LONG      neg_dat
      DR24        REGSYM    ---      DWORD     pos_dat
      R14         REGSYM    ---      BYTE      temp_data
      R15         REGSYM    ---      BYTE      valid_num
      ---         BLOCKEND  ---      ---       LVL=1
      00FF7BDFH   LINE      CODE     ---       #647
      00FF7BE7H   LINE      CODE     ---       #648
      00FF7BE7H   LINE      CODE     ---       #651
      00FF7BE9H   LINE      CODE     ---       #652
      00FF7BEBH   LINE      CODE     ---       #654
      00FF7BEFH   LINE      CODE     ---       #656
      00FF7BF1H   LINE      CODE     ---       #657
      00FF7BF7H   LINE      CODE     ---       #659
      00FF7C01H   LINE      CODE     ---       #660
      00FF7C01H   LINE      CODE     ---       #661
      00FF7C01H   LINE      CODE     ---       #663
      00FF7C17H   LINE      CODE     ---       #664
      00FF7C26H   LINE      CODE     ---       #665
      00FF7C28H   LINE      CODE     ---       #667
      00FF7C2EH   LINE      CODE     ---       #669
      00FF7C2EH   LINE      CODE     ---       #670
      00FF7C2EH   LINE      CODE     ---       #671
      00FF7C30H   LINE      CODE     ---       #672
      00FF7C32H   LINE      CODE     ---       #673
      00FF7C34H   LINE      CODE     ---       #676
      00FF7C34H   LINE      CODE     ---       #677
      00FF7C34H   LINE      CODE     ---       #679
      00FF7C43H   LINE      CODE     ---       #680
      00FF7C48H   LINE      CODE     ---       #682
      00FF7C4BH   LINE      CODE     ---       #683
      00FF7C4DH   LINE      CODE     ---       #686
      00FF7C50H   LINE      CODE     ---       #687
      00FF7C50H   LINE      CODE     ---       #689
      00FF7C53H   LINE      CODE     ---       #691
      00FF7C62H   LINE      CODE     ---       #692
      00FF7C64H   LINE      CODE     ---       #694
      00FF7C6AH   LINE      CODE     ---       #696
      00FF7C6AH   LINE      CODE     ---       #697
      00FF7C6AH   LINE      CODE     ---       #698
      00FF7C6CH   LINE      CODE     ---       #699
      00FF7C6EH   LINE      CODE     ---       #700
      00FF7C6EH   LINE      CODE     ---       #701
      00FF7C70H   LINE      CODE     ---       #702
      ---         BLOCKEND  ---      ---       LVL=0
L251 LINKER/LOCATER V4.66.93.0                                                        09/12/2025  17:12:15  PAGE 41



      00FF87AFH   BLOCK     CODE     ---       LVL=0
      REG=7       REGSYM    ---      ---       d_buff
      DR24        REGSYM    ---      DWORD     len
      00FF87B3H   BLOCK     CODE     NEAR LAB  LVL=1
      DR4         REGSYM    ---      DWORD     i
      R3          REGSYM    ---      CHAR      temp_data
      ---         BLOCKEND  ---      ---       LVL=1
      00FF87AFH   LINE      CODE     ---       #712
      00FF87B3H   LINE      CODE     ---       #713
      00FF87B3H   LINE      CODE     ---       #716
      00FF87B7H   LINE      CODE     ---       #718
      00FF87C4H   LINE      CODE     ---       #719
      00FF87DCH   LINE      CODE     ---       #720
      00FF87E5H   LINE      CODE     ---       #721
      00FF87F6H   LINE      CODE     ---       #722
      ---         BLOCKEND  ---      ---       LVL=0

      00FF3940H   BLOCK     CODE     ---       LVL=0
      REG=3       REGSYM    ---      ---       buff
      00010498H   SYMBOL    XDATA    ---       format
      00FF394EH   BLOCK     CODE     NEAR LAB  LVL=1
      0001049CH   SYMBOL    XDATA    DWORD     buff_len
      000104A0H   SYMBOL    XDATA    ---       arg
      00FF396FH   BLOCK     CODE     NEAR LAB  LVL=2
      000104A4H   SYMBOL    XDATA    CHAR      ret
      00FF3AB0H   BLOCK     CODE     NEAR LAB  LVL=3
      000104A5H   SYMBOL    XDATA    CHAR      ch
      ---         BLOCKEND  ---      ---       LVL=3
      00FF3AF7H   BLOCK     CODE     NEAR LAB  LVL=3
      000104A5H   SYMBOL    XDATA    ---       vstr
      000104C6H   SYMBOL    XDATA    LONG      ival
      000104CAH   SYMBOL    XDATA    BYTE      vlen
      ---         BLOCKEND  ---      ---       LVL=3
      00FF3BC2H   BLOCK     CODE     NEAR LAB  LVL=3
      000104A5H   SYMBOL    XDATA    ---       vstr
      000104C6H   SYMBOL    XDATA    DOUBLE    ival
      000104CEH   SYMBOL    XDATA    BYTE      vlen
      ---         BLOCKEND  ---      ---       LVL=3
      00FF3E0DH   BLOCK     CODE     NEAR LAB  LVL=3
      000104A5H   SYMBOL    XDATA    ---       vstr
      000104C6H   SYMBOL    XDATA    DWORD     ival
      000104CAH   SYMBOL    XDATA    BYTE      vlen
      ---         BLOCKEND  ---      ---       LVL=3
      00FF3EABH   BLOCK     CODE     NEAR LAB  LVL=3
      000104A5H   SYMBOL    XDATA    ---       vstr
      000104C6H   SYMBOL    XDATA    DWORD     ival
      000104CAH   SYMBOL    XDATA    BYTE      vlen
      ---         BLOCKEND  ---      ---       LVL=3
      00FF3F49H   BLOCK     CODE     NEAR LAB  LVL=3
      000104A5H   SYMBOL    XDATA    ---       vstr
      000104C6H   SYMBOL    XDATA    DWORD     ival
      000104CAH   SYMBOL    XDATA    BYTE      vlen
      ---         BLOCKEND  ---      ---       LVL=3
      00FF3FE7H   BLOCK     CODE     NEAR LAB  LVL=3
      000104A5H   SYMBOL    XDATA    ---       pc
      ---         BLOCKEND  ---      ---       LVL=3
      00FF4061H   BLOCK     CODE     NEAR LAB  LVL=3
      000104A5H   SYMBOL    XDATA    ---       vstr
      000104C6H   SYMBOL    XDATA    DWORD     ival
      ---         BLOCKEND  ---      ---       LVL=3
      ---         BLOCKEND  ---      ---       LVL=2
      ---         BLOCKEND  ---      ---       LVL=1
      00FF3940H   LINE      CODE     ---       #733
      00FF394EH   LINE      CODE     ---       #734
L251 LINKER/LOCATER V4.66.93.0                                                        09/12/2025  17:12:15  PAGE 42


      00FF394EH   LINE      CODE     ---       #735
      00FF395AH   LINE      CODE     ---       #737
      00FF396CH   LINE      CODE     ---       #739
      00FF396FH   LINE      CODE     ---       #740
      00FF396FH   LINE      CODE     ---       #741
      00FF3980H   LINE      CODE     ---       #742
      00FF398CH   LINE      CODE     ---       #744
      00FF3AB0H   LINE      CODE     ---       #746
      00FF3AB0H   LINE      CODE     ---       #749
      00FF3AB0H   LINE      CODE     ---       #751
      00FF3AB0H   LINE      CODE     ---       #752
      00FF3AB0H   LINE      CODE     ---       #753
      00FF3AD8H   LINE      CODE     ---       #754
      00FF3ADFH   LINE      CODE     ---       #755
      00FF3AE1H   LINE      CODE     ---       #756
      00FF3AF4H   LINE      CODE     ---       #758
      00FF3AF7H   LINE      CODE     ---       #760
      00FF3AF7H   LINE      CODE     ---       #761
      00FF3AF7H   LINE      CODE     ---       #762
      00FF3AF7H   LINE      CODE     ---       #764
      00FF3B25H   LINE      CODE     ---       #765
      00FF3B46H   LINE      CODE     ---       #767
      00FF3B56H   LINE      CODE     ---       #769
      00FF3B6CH   LINE      CODE     ---       #770
      00FF3B72H   LINE      CODE     ---       #771
      00FF3B72H   LINE      CODE     ---       #772
      00FF3B85H   LINE      CODE     ---       #773
      00FF3B9CH   LINE      CODE     ---       #774
      00FF3BA4H   LINE      CODE     ---       #775
      00FF3BBFH   LINE      CODE     ---       #777
      00FF3BC2H   LINE      CODE     ---       #779
      00FF3BC2H   LINE      CODE     ---       #780
      00FF3BC2H   LINE      CODE     ---       #781
      00FF3BC2H   LINE      CODE     ---       #783
      00FF3C02H   LINE      CODE     ---       #784
      00FF3C2EH   LINE      CODE     ---       #786
      00FF3C49H   LINE      CODE     ---       #788
      00FF3C5FH   LINE      CODE     ---       #789
      00FF3C65H   LINE      CODE     ---       #790
      00FF3C65H   LINE      CODE     ---       #791
      00FF3C78H   LINE      CODE     ---       #792
      00FF3C8FH   LINE      CODE     ---       #793
      00FF3C97H   LINE      CODE     ---       #794
      00FF3CB2H   LINE      CODE     ---       #796
      00FF3D04H   LINE      CODE     ---       #797
      00FF3D22H   LINE      CODE     ---       #799
      00FF3D4EH   LINE      CODE     ---       #800
      00FF3D50H   LINE      CODE     ---       #803
      00FF3D74H   LINE      CODE     ---       #804
      00FF3D7AH   LINE      CODE     ---       #805
      00FF3D7AH   LINE      CODE     ---       #807
      00FF3D7CH   LINE      CODE     ---       #809
      00FF3D92H   LINE      CODE     ---       #810
      00FF3D98H   LINE      CODE     ---       #811
      00FF3DA1H   LINE      CODE     ---       #813
      00FF3DB7H   LINE      CODE     ---       #814
      00FF3DBDH   LINE      CODE     ---       #816
      00FF3DD0H   LINE      CODE     ---       #817
      00FF3DE7H   LINE      CODE     ---       #818
      00FF3DEFH   LINE      CODE     ---       #819
      00FF3E0AH   LINE      CODE     ---       #821
      00FF3E0DH   LINE      CODE     ---       #823
      00FF3E0DH   LINE      CODE     ---       #824
      00FF3E0DH   LINE      CODE     ---       #826
      00FF3E3BH   LINE      CODE     ---       #827
L251 LINKER/LOCATER V4.66.93.0                                                        09/12/2025  17:12:15  PAGE 43


      00FF3E5BH   LINE      CODE     ---       #829
      00FF3E6EH   LINE      CODE     ---       #830
      00FF3E85H   LINE      CODE     ---       #831
      00FF3E8DH   LINE      CODE     ---       #832
      00FF3EA8H   LINE      CODE     ---       #834
      00FF3EABH   LINE      CODE     ---       #836
      00FF3EABH   LINE      CODE     ---       #837
      00FF3EABH   LINE      CODE     ---       #839
      00FF3ED9H   LINE      CODE     ---       #840
      00FF3EF9H   LINE      CODE     ---       #842
      00FF3F0CH   LINE      CODE     ---       #843
      00FF3F23H   LINE      CODE     ---       #844
      00FF3F2BH   LINE      CODE     ---       #845
      00FF3F46H   LINE      CODE     ---       #848
      00FF3F49H   LINE      CODE     ---       #850
      00FF3F49H   LINE      CODE     ---       #851
      00FF3F49H   LINE      CODE     ---       #852
      00FF3F49H   LINE      CODE     ---       #854
      00FF3F77H   LINE      CODE     ---       #855
      00FF3F97H   LINE      CODE     ---       #857
      00FF3FAAH   LINE      CODE     ---       #858
      00FF3FC1H   LINE      CODE     ---       #859
      00FF3FC9H   LINE      CODE     ---       #860
      00FF3FE4H   LINE      CODE     ---       #862
      00FF3FE7H   LINE      CODE     ---       #864
      00FF3FE7H   LINE      CODE     ---       #865
      00FF3FE7H   LINE      CODE     ---       #866
      00FF4015H   LINE      CODE     ---       #867
      00FF4017H   LINE      CODE     ---       #869
      00FF4027H   LINE      CODE     ---       #870
      00FF4029H   LINE      CODE     ---       #871
      00FF403CH   LINE      CODE     ---       #872
      00FF404FH   LINE      CODE     ---       #873
      00FF405EH   LINE      CODE     ---       #875
      00FF4061H   LINE      CODE     ---       #877
      00FF4061H   LINE      CODE     ---       #878
      00FF4061H   LINE      CODE     ---       #880
      00FF408FH   LINE      CODE     ---       #882
      00FF40ABH   LINE      CODE     ---       #883
      00FF40BAH   LINE      CODE     ---       #884
      00FF40CFH   LINE      CODE     ---       #885
      00FF40D3H   LINE      CODE     ---       #886
      00FF40E8H   LINE      CODE     ---       #888
      00FF40EAH   LINE      CODE     ---       #890
      00FF40EAH   LINE      CODE     ---       #892
      00FF40EFH   LINE      CODE     ---       #893
      00FF40F1H   LINE      CODE     ---       #894
      00FF4104H   LINE      CODE     ---       #896
      00FF4106H   LINE      CODE     ---       #898
      00FF4106H   LINE      CODE     ---       #899
      00FF4106H   LINE      CODE     ---       #900
      00FF4106H   LINE      CODE     ---       #901
      00FF4106H   LINE      CODE     ---       #904
      00FF4116H   LINE      CODE     ---       #905
      00FF4118H   LINE      CODE     ---       #906
      00FF412BH   LINE      CODE     ---       #907
      00FF412BH   LINE      CODE     ---       #908
      00FF413EH   LINE      CODE     ---       #909
      00FF4150H   LINE      CODE     ---       #912
      00FF415AH   LINE      CODE     ---       #913
      ---         BLOCKEND  ---      ---       LVL=0

      ---         MODULE    ---      ---       zf_common_typedef
      00010CB3H   PUBLIC    XDATA    ---       tim11_irq_handler
      00010CB5H   PUBLIC    XDATA    ---       uart1_irq_handler
L251 LINKER/LOCATER V4.66.93.0                                                        09/12/2025  17:12:15  PAGE 44


      00010CB7H   PUBLIC    XDATA    ---       uart2_irq_handler
      00010CB9H   PUBLIC    XDATA    ---       uart3_irq_handler
      00010CBBH   PUBLIC    XDATA    ---       uart4_irq_handler
      00010CBDH   PUBLIC    XDATA    ---       tim0_irq_handler
      00010CBFH   PUBLIC    XDATA    ---       int0_irq_handler
      00010CC1H   PUBLIC    XDATA    ---       tim1_irq_handler
      00010CC3H   PUBLIC    XDATA    ---       int1_irq_handler
      00010CC5H   PUBLIC    XDATA    ---       tim2_irq_handler
      00010CC7H   PUBLIC    XDATA    ---       int2_irq_handler
      00010CC9H   PUBLIC    XDATA    ---       tim3_irq_handler
      00010CCBH   PUBLIC    XDATA    ---       int3_irq_handler
      00010CCDH   PUBLIC    XDATA    ---       tim4_irq_handler
      00010CCFH   PUBLIC    XDATA    ---       int4_irq_handler
      000000D0H   SFRSYM    DATA     BYTE      PSW
      0000009DH   SFRSYM    DATA     BYTE      IRCBAND
      00000097H   SFRSYM    DATA     BYTE      AUXR2
      000000EFH   SFRSYM    DATA     BYTE      AUXINTIF
      000000FDH   SFRSYM    DATA     BYTE      S4CON
      000000ACH   SFRSYM    DATA     BYTE      S3CON
      0000009AH   SFRSYM    DATA     BYTE      S2CON
      000000B7H   SFRSYM    DATA     BYTE      IPH
      000000CDH   SFRSYM    DATA     BYTE      SPSTAT
      000000DDH   SFRSYM    DATA     BYTE      T4T3M
      000000C1H   SFRSYM    DATA     BYTE      WDT_CONTR
      000000DFH   SFRSYM    DATA     BYTE      IP3
      000000F4H   SFRSYM    DATA     BYTE      USBCON
      000000B5H   SFRSYM    DATA     BYTE      IP2
      000000FFH   SFRSYM    DATA     BYTE      RSTCFG
      000000C7H   SFRSYM    DATA     BYTE      IAP_CONTR
      0000008EH   SFRSYM    DATA     BYTE      AUXR
      000000AFH   SFRSYM    DATA     BYTE      IE2
      00000088H   SFRSYM    DATA     BYTE      TCON
      00000089H   SFRSYM    DATA     BYTE      TMOD
      00000098H   SFRSYM    DATA     BYTE      SCON
      00000087H   SFRSYM    DATA     BYTE      PCON
      000000BCH   SFRSYM    DATA     BYTE      ADC_CONTR
      000000D1H   SFRSYM    DATA     BYTE      PSW1
      000000E7H   SFRSYM    DATA     BYTE      CMPCR2
      000000E6H   SFRSYM    DATA     BYTE      CMPCR1
      000000DEH   SFRSYM    DATA     BYTE      ADCCFG
      000000B8H   SFRSYM    DATA     BYTE      IP
      0000008FH   SFRSYM    DATA     BYTE      INTCLKO
      000000EEH   SFRSYM    DATA     BYTE      IP3H
      000000B6H   SFRSYM    DATA     BYTE      IP2H
      000000BFH   SFRSYM    DATA     BYTE      P_SW4
      000000A8H   SFRSYM    DATA     BYTE      IE
      000000BBH   SFRSYM    DATA     BYTE      P_SW3
      000000BAH   SFRSYM    DATA     BYTE      P_SW2
      000000A2H   SFRSYM    DATA     BYTE      P_SW1
      000000CEH   SFRSYM    DATA     BYTE      SPCTL
      000000F8H   SFRSYM    DATA     BYTE      P7
      000000E8H   SFRSYM    DATA     BYTE      P6
      000000C8H   SFRSYM    DATA     BYTE      P5
      000000C0H   SFRSYM    DATA     BYTE      P4
      000000ABH   SFRSYM    DATA     BYTE      WKTCH
      000000B0H   SFRSYM    DATA     BYTE      P3
      000000A0H   SFRSYM    DATA     BYTE      P2
      00000090H   SFRSYM    DATA     BYTE      P1
      00000080H   SFRSYM    DATA     BYTE      P0

      ---         MODULE    ---      ---       zf_common_interrupt
      00FF001EH   PUBLIC    CODE     ---       interrupt_global_enable
      000000D0H   SFRSYM    DATA     BYTE      PSW
      0000009DH   SFRSYM    DATA     BYTE      IRCBAND
      00000097H   SFRSYM    DATA     BYTE      AUXR2
L251 LINKER/LOCATER V4.66.93.0                                                        09/12/2025  17:12:15  PAGE 45


      000000EFH   SFRSYM    DATA     BYTE      AUXINTIF
      000000FDH   SFRSYM    DATA     BYTE      S4CON
      000000ACH   SFRSYM    DATA     BYTE      S3CON
      0000009AH   SFRSYM    DATA     BYTE      S2CON
      000000B7H   SFRSYM    DATA     BYTE      IPH
      000000CDH   SFRSYM    DATA     BYTE      SPSTAT
      000000DDH   SFRSYM    DATA     BYTE      T4T3M
      000000C1H   SFRSYM    DATA     BYTE      WDT_CONTR
      000000DFH   SFRSYM    DATA     BYTE      IP3
      000000F4H   SFRSYM    DATA     BYTE      USBCON
      000000B5H   SFRSYM    DATA     BYTE      IP2
      000000FFH   SFRSYM    DATA     BYTE      RSTCFG
      000000C7H   SFRSYM    DATA     BYTE      IAP_CONTR
      0000008EH   SFRSYM    DATA     BYTE      AUXR
      000000AFH   SFRSYM    DATA     BYTE      IE2
      00000088H   SFRSYM    DATA     BYTE      TCON
      00000089H   SFRSYM    DATA     BYTE      TMOD
      00000098H   SFRSYM    DATA     BYTE      SCON
      00000087H   SFRSYM    DATA     BYTE      PCON
      000000BCH   SFRSYM    DATA     BYTE      ADC_CONTR
      000000D1H   SFRSYM    DATA     BYTE      PSW1
      000000E7H   SFRSYM    DATA     BYTE      CMPCR2
      000000E6H   SFRSYM    DATA     BYTE      CMPCR1
      000000DEH   SFRSYM    DATA     BYTE      ADCCFG
      000000B8H   SFRSYM    DATA     BYTE      IP
      0000008FH   SFRSYM    DATA     BYTE      INTCLKO
      000000EEH   SFRSYM    DATA     BYTE      IP3H
      000000B6H   SFRSYM    DATA     BYTE      IP2H
      000000BFH   SFRSYM    DATA     BYTE      P_SW4
      000000A8H   SFRSYM    DATA     BYTE      IE
      000000BBH   SFRSYM    DATA     BYTE      P_SW3
      000000BAH   SFRSYM    DATA     BYTE      P_SW2
      000000A2H   SFRSYM    DATA     BYTE      P_SW1
      000000CEH   SFRSYM    DATA     BYTE      SPCTL
      000000F8H   SFRSYM    DATA     BYTE      P7
      000000A8H.7 SFRSYM    DATA     BIT       EA
      000000E8H   SFRSYM    DATA     BYTE      P6
      000000C8H   SFRSYM    DATA     BYTE      P5
      000000C0H   SFRSYM    DATA     BYTE      P4
      000000ABH   SFRSYM    DATA     BYTE      WKTCH
      000000B0H   SFRSYM    DATA     BYTE      P3
      000000A0H   SFRSYM    DATA     BYTE      P2
      00000090H   SFRSYM    DATA     BYTE      P1
      00000080H   SFRSYM    DATA     BYTE      P0
      WR4         REGSYM    ---      INT       irqn
      R3          REGSYM    ---      BYTE      priority

      00FF001EH   BLOCK     CODE     ---       LVL=0
      00FF001EH   LINE      CODE     ---       #88
      00FF001EH   LINE      CODE     ---       #90
      00FF0020H   LINE      CODE     ---       #91
      ---         BLOCKEND  ---      ---       LVL=0

      ---         MODULE    ---      ---       ?C_START
      00FF0000H   PUBLIC    CODE     ---       ?C?STARTUP
      00FF0000H   PUBLIC    CODE     ---       ?C_STARTUP
      000000D0H.6 SFRSYM    DATA     BIT       AC
      000000E0H   SFRSYM    DATA     BYTE      ACC
      000000F0H   SFRSYM    DATA     BYTE      B
      000000FAH   SFRSYM    DATA     BYTE      CCAP0H
      000000EAH   SFRSYM    DATA     BYTE      CCAP0L
      000000FBH   SFRSYM    DATA     BYTE      CCAP1H
      000000EBH   SFRSYM    DATA     BYTE      CCAP1L
      000000FCH   SFRSYM    DATA     BYTE      CCAP2H
      000000ECH   SFRSYM    DATA     BYTE      CCAP2L
L251 LINKER/LOCATER V4.66.93.0                                                        09/12/2025  17:12:15  PAGE 46


      000000FDH   SFRSYM    DATA     BYTE      CCAP3H
      000000EDH   SFRSYM    DATA     BYTE      CCAP3L
      000000FEH   SFRSYM    DATA     BYTE      CCAP4H
      000000EEH   SFRSYM    DATA     BYTE      CCAP4L
      000000DAH   SFRSYM    DATA     BYTE      CCAPM0
      000000DBH   SFRSYM    DATA     BYTE      CCAPM1
      000000DCH   SFRSYM    DATA     BYTE      CCAPM2
      000000DDH   SFRSYM    DATA     BYTE      CCAPM3
      000000DEH   SFRSYM    DATA     BYTE      CCAPM4
      000000D8H.0 SFRSYM    DATA     BIT       CCF0
      000000D8H.1 SFRSYM    DATA     BIT       CCF1
      000000D8H.2 SFRSYM    DATA     BIT       CCF2
      000000D8H.3 SFRSYM    DATA     BIT       CCF3
      000000D8H.4 SFRSYM    DATA     BIT       CCF4
      000000D8H   SFRSYM    DATA     BYTE      CCON
      00000090H.3 SFRSYM    DATA     BIT       CEX0
      00000090H.4 SFRSYM    DATA     BIT       CEX1
      00000090H.5 SFRSYM    DATA     BIT       CEX2
      00000090H.6 SFRSYM    DATA     BIT       CEX3
      00000090H.7 SFRSYM    DATA     BIT       CEX4
      000000D8H.7 SFRSYM    DATA     BIT       CF
      000000F9H   SFRSYM    DATA     BYTE      CH
      000000E9H   SFRSYM    DATA     BYTE      CL
      000000D9H   SFRSYM    DATA     BYTE      CMOD
      000000C8H.0 SFRSYM    DATA     BIT       CP_RL2
      000000D8H.6 SFRSYM    DATA     BIT       CR
      000000D0H.7 SFRSYM    DATA     BIT       CY
      000000C8H.1 SFRSYM    DATA     BIT       C_T2
      00000083H   SFRSYM    DATA     BYTE      DPH
      00000082H   SFRSYM    DATA     BYTE      DPL
      00000084H   SFRSYM    DATA     BYTE      DPXL
      000000A8H.7 SFRSYM    DATA     BIT       EA
      000000A8H.6 SFRSYM    DATA     BIT       EC
      00000090H.2 SFRSYM    DATA     BIT       ECI
      000000A8H.4 SFRSYM    DATA     BIT       ES
      000000A8H.1 SFRSYM    DATA     BIT       ET0
      000000A8H.3 SFRSYM    DATA     BIT       ET1
      000000A8H.5 SFRSYM    DATA     BIT       ET2
      000000A8H.0 SFRSYM    DATA     BIT       EX0
      000000A8H.2 SFRSYM    DATA     BIT       EX1
      000000C8H.3 SFRSYM    DATA     BIT       EXEN2
      000000C8H.6 SFRSYM    DATA     BIT       EXF2
      000000D0H.5 SFRSYM    DATA     BIT       F0
      00000098H.7 SFRSYM    DATA     BIT       FE
      000000A8H   SFRSYM    DATA     BYTE      IE0
      00000088H.1 SFRSYM    DATA     BIT       IE0_
      000000B1H   SFRSYM    DATA     BYTE      IE1
      00000088H.3 SFRSYM    DATA     BIT       IE1_
      000000B0H.2 SFRSYM    DATA     BIT       INT0
      000000B0H.3 SFRSYM    DATA     BIT       INT1
      000000B7H   SFRSYM    DATA     BYTE      IPH0
      000000B8H   SFRSYM    DATA     BYTE      IPL0
      00000088H.0 SFRSYM    DATA     BIT       IT0
      00000088H.2 SFRSYM    DATA     BIT       IT1
      000000D0H.2 SFRSYM    DATA     BIT       OV
      000000D0H.0 SFRSYM    DATA     BIT       P
      00000080H   SFRSYM    DATA     BYTE      P0
      00000090H   SFRSYM    DATA     BYTE      P1
      000000A0H   SFRSYM    DATA     BYTE      P2
      000000B0H   SFRSYM    DATA     BYTE      P3
      00000087H   SFRSYM    DATA     BYTE      PCON
      000000B8H.6 SFRSYM    DATA     BIT       PPC
      000000B8H.4 SFRSYM    DATA     BIT       PS
      000000D0H   SFRSYM    DATA     BYTE      PSW
      000000D1H   SFRSYM    DATA     BYTE      PSW1
L251 LINKER/LOCATER V4.66.93.0                                                        09/12/2025  17:12:15  PAGE 47


      000000B8H.1 SFRSYM    DATA     BIT       PT0
      000000B8H.3 SFRSYM    DATA     BIT       PT1
      000000B8H.5 SFRSYM    DATA     BIT       PT2
      000000B8H.0 SFRSYM    DATA     BIT       PX0
      000000B8H.2 SFRSYM    DATA     BIT       PX1
      00000098H.2 SFRSYM    DATA     BIT       RB8
      000000CBH   SFRSYM    DATA     BYTE      RCAP2H
      000000CAH   SFRSYM    DATA     BYTE      RCAP2L
      000000C8H.5 SFRSYM    DATA     BIT       RCLK
      000000B0H.7 SFRSYM    DATA     BIT       RD
      00000098H.4 SFRSYM    DATA     BIT       REN
      00000098H.0 SFRSYM    DATA     BIT       RI
      000000D0H.3 SFRSYM    DATA     BIT       RS0
      000000D0H.4 SFRSYM    DATA     BIT       RS1
      000000B0H.0 SFRSYM    DATA     BIT       RXD
      000000A9H   SFRSYM    DATA     BYTE      SADDR
      000000B9H   SFRSYM    DATA     BYTE      SADEN
      00000099H   SFRSYM    DATA     BYTE      SBUF
      00000098H   SFRSYM    DATA     BYTE      SCON
      00000098H.7 SFRSYM    DATA     BIT       SM0
      00000098H.6 SFRSYM    DATA     BIT       SM1
      00000098H.5 SFRSYM    DATA     BIT       SM2
      00000081H   SFRSYM    DATA     BYTE      SP
      000000BEH   SFRSYM    DATA     BYTE      SPH
      000000B0H.4 SFRSYM    DATA     BIT       T0
      000000B0H.5 SFRSYM    DATA     BIT       T1
      00000090H.0 SFRSYM    DATA     BIT       T2
      000000C8H   SFRSYM    DATA     BYTE      T2CON
      00000090H.1 SFRSYM    DATA     BIT       T2EX
      000000C9H   SFRSYM    DATA     BYTE      T2MOD
      00000098H.3 SFRSYM    DATA     BIT       TB8
      000000C8H.4 SFRSYM    DATA     BIT       TCLK
      00000088H   SFRSYM    DATA     BYTE      TCON
      00000088H.5 SFRSYM    DATA     BIT       TF0
      00000088H.7 SFRSYM    DATA     BIT       TF1
      000000C8H.7 SFRSYM    DATA     BIT       TF2
      0000008CH   SFRSYM    DATA     BYTE      TH0
      0000008DH   SFRSYM    DATA     BYTE      TH1
      000000CDH   SFRSYM    DATA     BYTE      TH2
      00000098H.1 SFRSYM    DATA     BIT       TI
      0000008AH   SFRSYM    DATA     BYTE      TL0
      0000008BH   SFRSYM    DATA     BYTE      TL1
      000000CCH   SFRSYM    DATA     BYTE      TL2
      00000089H   SFRSYM    DATA     BYTE      TMOD
      00000088H.4 SFRSYM    DATA     BIT       TR0
      00000088H.6 SFRSYM    DATA     BIT       TR1
      000000C8H.2 SFRSYM    DATA     BIT       TR2
      000000B0H.1 SFRSYM    DATA     BIT       TXD
      000000A6H   SFRSYM    DATA     BYTE      WDTRST
      000000B0H.6 SFRSYM    DATA     BIT       WR
      00000800H   SYMBOL    NUMBER   ---       EDATALEN
      00FF8594H   SYMBOL    CODE     ---       EDATALOOP
      00000001H   SYMBOL    NUMBER   ---       EDF
      00000001H   SYMBOL    NUMBER   ---       EMAP
      00000000H   SYMBOL    NUMBER   ---       HDATALEN
      00010000H   SYMBOL    NUMBER   ---       HDATASTART
      00000000H   SYMBOL    NUMBER   ---       IBPSTACK
      00000100H   SYMBOL    NUMBER   ---       IBPSTACKTOP
      00000001H   SYMBOL    NUMBER   ---       INTR
      00000001H   SYMBOL    NUMBER   ---       PAGM
      00000003H   SYMBOL    NUMBER   ---       RDRG
      00000001H   SYMBOL    NUMBER   ---       SRCM
      00000700H   SYMBOL    NUMBER   ---       STACKSIZE
      00FF858CH   SYMBOL    CODE     ---       STARTUP1
      00000003H   SYMBOL    NUMBER   ---       WSA
L251 LINKER/LOCATER V4.66.93.0                                                        09/12/2025  17:12:15  PAGE 48


      00000003H   SYMBOL    NUMBER   ---       WSB
      00000001H   SYMBOL    NUMBER   ---       XALE
      00000000H   SYMBOL    NUMBER   ---       XBPSTACK
      00010000H   SYMBOL    NUMBER   ---       XBPSTACKTOP
      00008000H   SYMBOL    NUMBER   ---       XDATALEN
      00FF85A3H   SYMBOL    CODE     ---       XDATALOOP
      00010000H   SYMBOL    NUMBER   ---       XDATASTART

      00FF0000H   BLOCK     CODE     NEAR LAB  LVL=0
      00FF0000H   LINE      CODE     ---       #183
      ---         BLOCKEND  ---      ---       LVL=0

      00FF858CH   BLOCK     CODE     NEAR LAB  LVL=0
      00FF858CH   LINE      CODE     ---       #188
      00FF858FH   LINE      CODE     ---       #191
      00FF8593H   LINE      CODE     ---       #192
      00FF8594H   LINE      CODE     ---       #193
      00FF8597H   LINE      CODE     ---       #194
      00FF8599H   LINE      CODE     ---       #195
      00FF859BH   LINE      CODE     ---       #199
      00FF859EH   LINE      CODE     ---       #200
      00FF85A2H   LINE      CODE     ---       #201
      00FF85A3H   LINE      CODE     ---       #202
      00FF85A4H   LINE      CODE     ---       #203
      00FF85A5H   LINE      CODE     ---       #204
      00FF85A7H   LINE      CODE     ---       #205
      00FF85A9H   LINE      CODE     ---       #235
      ---         BLOCKEND  ---      ---       LVL=0

      00FF85E0H   BLOCK     CODE     NEAR LAB  LVL=0
      00FF85E0H   LINE      CODE     ---       #238
      ---         BLOCKEND  ---      ---       LVL=0

      ---         MODULE    ---      ---       zf_driver_adc
      00FF8AD2H   PUBLIC    CODE     ---       adc_convert
      00FF7FBCH   PUBLIC    CODE     ---       adc_init
      00000094H   SFRSYM    DATA     BYTE      P0M0
      000000D0H   SFRSYM    DATA     BYTE      PSW
      0000009DH   SFRSYM    DATA     BYTE      IRCBAND
      00000097H   SFRSYM    DATA     BYTE      AUXR2
      000000EFH   SFRSYM    DATA     BYTE      AUXINTIF
      000000FDH   SFRSYM    DATA     BYTE      S4CON
      000000ACH   SFRSYM    DATA     BYTE      S3CON
      0000009AH   SFRSYM    DATA     BYTE      S2CON
      000000B7H   SFRSYM    DATA     BYTE      IPH
      000000CDH   SFRSYM    DATA     BYTE      SPSTAT
      000000BEH   SFRSYM    DATA     BYTE      ADC_RESL
      000000DDH   SFRSYM    DATA     BYTE      T4T3M
      000000C1H   SFRSYM    DATA     BYTE      WDT_CONTR
      000000DFH   SFRSYM    DATA     BYTE      IP3
      000000F4H   SFRSYM    DATA     BYTE      USBCON
      000000B5H   SFRSYM    DATA     BYTE      IP2
      000000FFH   SFRSYM    DATA     BYTE      RSTCFG
      000000C7H   SFRSYM    DATA     BYTE      IAP_CONTR
      0000008EH   SFRSYM    DATA     BYTE      AUXR
      000000AFH   SFRSYM    DATA     BYTE      IE2
      00000088H   SFRSYM    DATA     BYTE      TCON
      00000089H   SFRSYM    DATA     BYTE      TMOD
      00000098H   SFRSYM    DATA     BYTE      SCON
      00000087H   SFRSYM    DATA     BYTE      PCON
      000000BCH   SFRSYM    DATA     BYTE      ADC_CONTR
      000000D1H   SFRSYM    DATA     BYTE      PSW1
      000000E7H   SFRSYM    DATA     BYTE      CMPCR2
      000000E6H   SFRSYM    DATA     BYTE      CMPCR1
      000000DEH   SFRSYM    DATA     BYTE      ADCCFG
L251 LINKER/LOCATER V4.66.93.0                                                        09/12/2025  17:12:15  PAGE 49


      000000B8H   SFRSYM    DATA     BYTE      IP
      0000008FH   SFRSYM    DATA     BYTE      INTCLKO
      000000EEH   SFRSYM    DATA     BYTE      IP3H
      000000B6H   SFRSYM    DATA     BYTE      IP2H
      000000BDH   SFRSYM    DATA     BYTE      ADC_RES
      000000BFH   SFRSYM    DATA     BYTE      P_SW4
      000000A8H   SFRSYM    DATA     BYTE      IE
      000000BBH   SFRSYM    DATA     BYTE      P_SW3
      000000BAH   SFRSYM    DATA     BYTE      P_SW2
      000000A2H   SFRSYM    DATA     BYTE      P_SW1
      000000CEH   SFRSYM    DATA     BYTE      SPCTL
      000000F8H   SFRSYM    DATA     BYTE      P7
      000000E8H   SFRSYM    DATA     BYTE      P6
      000000C8H   SFRSYM    DATA     BYTE      P5
      000000C0H   SFRSYM    DATA     BYTE      P4
      000000ABH   SFRSYM    DATA     BYTE      WKTCH
      000000B0H   SFRSYM    DATA     BYTE      P3
      000000A0H   SFRSYM    DATA     BYTE      P2
      00000090H   SFRSYM    DATA     BYTE      P1
      00000080H   SFRSYM    DATA     BYTE      P0
      00000091H   SFRSYM    DATA     BYTE      P1M1
      00000092H   SFRSYM    DATA     BYTE      P1M0
      00000093H   SFRSYM    DATA     BYTE      P0M1
      00010DA5H   SYMBOL    XDATA    BYTE      adc_resolution
      WR14        REGSYM    ---      INT       ch
      R13         REGSYM    ---      BYTE      count
      R12         REGSYM    ---      BYTE      i

      00FF8AD2H   BLOCK     CODE     ---       LVL=0
      WR6         REGSYM    ---      INT       ch
      WR6         REGSYM    ---      WORD      adc_value
      00FF8AD2H   LINE      CODE     ---       #75
      00FF8AD2H   LINE      CODE     ---       #76
      00FF8AD2H   LINE      CODE     ---       #79
      00FF8AD5H   LINE      CODE     ---       #80
      00FF8AD9H   LINE      CODE     ---       #82
      00FF8ADCH   LINE      CODE     ---       #84
      00FF8AE1H   LINE      CODE     ---       #86
      00FF8AE4H   LINE      CODE     ---       #88
      00FF8AE6H   LINE      CODE     ---       #89
      00FF8AEAH   LINE      CODE     ---       #90
      00FF8AF0H   LINE      CODE     ---       #92
      00FF8AF3H   LINE      CODE     ---       #93
      00FF8AF6H   LINE      CODE     ---       #95
      00FF8B01H   LINE      CODE     ---       #98
      00FF8B01H   LINE      CODE     ---       #99
      ---         BLOCKEND  ---      ---       LVL=0

      00FF7FBCH   BLOCK     CODE     ---       LVL=0
      WR4         REGSYM    ---      INT       ch
      WR2         REGSYM    ---      INT       resolution
      00FF7FBCH   LINE      CODE     ---       #108
      00FF7FC0H   LINE      CODE     ---       #110
      00FF7FC3H   LINE      CODE     ---       #112
      00FF7FC6H   LINE      CODE     ---       #113
      00FF7FCCH   LINE      CODE     ---       #115
      00FF7FDAH   LINE      CODE     ---       #118
      00FF7FEFH   LINE      CODE     ---       #119
      00FF8002H   LINE      CODE     ---       #120
      00FF8004H   LINE      CODE     ---       #121
      00FF800EH   LINE      CODE     ---       #124
      00FF8023H   LINE      CODE     ---       #125
      00FF8036H   LINE      CODE     ---       #126
      00FF8036H   LINE      CODE     ---       #128
      00FF803AH   LINE      CODE     ---       #130
L251 LINKER/LOCATER V4.66.93.0                                                        09/12/2025  17:12:15  PAGE 50


      00FF803DH   LINE      CODE     ---       #132
      00FF8043H   LINE      CODE     ---       #133
      ---         BLOCKEND  ---      ---       LVL=0

      ---         MODULE    ---      ---       zf_driver_delay
      00FF852FH   PUBLIC    CODE     ---       system_delay_init
      00FF8331H   PUBLIC    CODE     ---       system_delay_ms
      000000D0H   SFRSYM    DATA     BYTE      PSW
      0000009DH   SFRSYM    DATA     BYTE      IRCBAND
      00000097H   SFRSYM    DATA     BYTE      AUXR2
      000000EFH   SFRSYM    DATA     BYTE      AUXINTIF
      000000FDH   SFRSYM    DATA     BYTE      S4CON
      000000ACH   SFRSYM    DATA     BYTE      S3CON
      0000009AH   SFRSYM    DATA     BYTE      S2CON
      000000B7H   SFRSYM    DATA     BYTE      IPH
      000000CDH   SFRSYM    DATA     BYTE      SPSTAT
      000000DDH   SFRSYM    DATA     BYTE      T4T3M
      000000C1H   SFRSYM    DATA     BYTE      WDT_CONTR
      000000DFH   SFRSYM    DATA     BYTE      IP3
      000000F4H   SFRSYM    DATA     BYTE      USBCON
      000000B5H   SFRSYM    DATA     BYTE      IP2
      000000FFH   SFRSYM    DATA     BYTE      RSTCFG
      000000C7H   SFRSYM    DATA     BYTE      IAP_CONTR
      0000008EH   SFRSYM    DATA     BYTE      AUXR
      000000AFH   SFRSYM    DATA     BYTE      IE2
      00000088H   SFRSYM    DATA     BYTE      TCON
      00000089H   SFRSYM    DATA     BYTE      TMOD
      00000098H   SFRSYM    DATA     BYTE      SCON
      00000087H   SFRSYM    DATA     BYTE      PCON
      000000BCH   SFRSYM    DATA     BYTE      ADC_CONTR
      000000D1H   SFRSYM    DATA     BYTE      PSW1
      000000E7H   SFRSYM    DATA     BYTE      CMPCR2
      000000E6H   SFRSYM    DATA     BYTE      CMPCR1
      000000DEH   SFRSYM    DATA     BYTE      ADCCFG
      000000B8H   SFRSYM    DATA     BYTE      IP
      0000008FH   SFRSYM    DATA     BYTE      INTCLKO
      000000EEH   SFRSYM    DATA     BYTE      IP3H
      000000B6H   SFRSYM    DATA     BYTE      IP2H
      000000BFH   SFRSYM    DATA     BYTE      P_SW4
      000000A8H   SFRSYM    DATA     BYTE      IE
      000000BBH   SFRSYM    DATA     BYTE      P_SW3
      000000BAH   SFRSYM    DATA     BYTE      P_SW2
      000000A2H   SFRSYM    DATA     BYTE      P_SW1
      000000CEH   SFRSYM    DATA     BYTE      SPCTL
      000000F8H   SFRSYM    DATA     BYTE      P7
      000000E8H   SFRSYM    DATA     BYTE      P6
      000000C8H   SFRSYM    DATA     BYTE      P5
      000000C0H   SFRSYM    DATA     BYTE      P4
      000000ABH   SFRSYM    DATA     BYTE      WKTCH
      000000B0H   SFRSYM    DATA     BYTE      P3
      000000A0H   SFRSYM    DATA     BYTE      P2
      00000090H   SFRSYM    DATA     BYTE      P1
      00000080H   SFRSYM    DATA     BYTE      P0
      00010D98H   SYMBOL    XDATA    WORD      pca_delay_1ms
      00010D9AH   SYMBOL    XDATA    WORD      pca_delay_1us

      00FF852FH   BLOCK     CODE     ---       LVL=0
      00FF852FH   LINE      CODE     ---       #48
      00FF852FH   LINE      CODE     ---       #50
      00FF8546H   LINE      CODE     ---       #51
      00FF8561H   LINE      CODE     ---       #53
      00FF856EH   LINE      CODE     ---       #54
      00FF857BH   LINE      CODE     ---       #55
      00FF858BH   LINE      CODE     ---       #57
      ---         BLOCKEND  ---      ---       LVL=0
L251 LINKER/LOCATER V4.66.93.0                                                        09/12/2025  17:12:15  PAGE 51



      00FF8331H   BLOCK     CODE     ---       LVL=0
      WR8         REGSYM    ---      WORD      ms
      00FF8333H   BLOCK     CODE     NEAR LAB  LVL=1
      WR6         REGSYM    ---      WORD      temp
      ---         BLOCKEND  ---      ---       LVL=1
      00FF8331H   LINE      CODE     ---       #65
      00FF8333H   LINE      CODE     ---       #66
      00FF8333H   LINE      CODE     ---       #69
      00FF8335H   LINE      CODE     ---       #71
      00FF8359H   LINE      CODE     ---       #73
      00FF8366H   LINE      CODE     ---       #74
      00FF8375H   LINE      CODE     ---       #76
      00FF8383H   LINE      CODE     ---       #77
      00FF8393H   LINE      CODE     ---       #78
      00FF839BH   LINE      CODE     ---       #79
      ---         BLOCKEND  ---      ---       LVL=0
      WR8         REGSYM    ---      WORD      ms
      WR6         REGSYM    ---      WORD      temp

      ---         MODULE    ---      ---       zf_driver_eeprom
      00FF0046H   PUBLIC    CODE     ---       iap_set_tps
      00FF019EH   PUBLIC    CODE     ---       eeprom_trig
      00FF8B57H   PUBLIC    CODE     ---       iap_erase_page
      00FF871DH   PUBLIC    CODE     ---       iap_read_buff
      00FF8766H   PUBLIC    CODE     ---       iap_write_buff
      00FF8BF1H   PUBLIC    CODE     ---       iap_read_byte
      00FF0003H   PUBLIC    CODE     ---       iap_init
      00FF8B2DH   PUBLIC    CODE     ---       iap_write_byte
      00010637H   PUBLIC    XDATA    BYTE      ?iap_read_buff?BYTE
      00010637H   PUBLIC    XDATA    BYTE      ?iap_write_buff?BYTE
      000000D0H   SFRSYM    DATA     BYTE      PSW
      0000009DH   SFRSYM    DATA     BYTE      IRCBAND
      00000097H   SFRSYM    DATA     BYTE      AUXR2
      000000C6H   SFRSYM    DATA     BYTE      IAP_TRIG
      000000EFH   SFRSYM    DATA     BYTE      AUXINTIF
      000000FDH   SFRSYM    DATA     BYTE      S4CON
      000000ACH   SFRSYM    DATA     BYTE      S3CON
      0000009AH   SFRSYM    DATA     BYTE      S2CON
      000000B7H   SFRSYM    DATA     BYTE      IPH
      000000CDH   SFRSYM    DATA     BYTE      SPSTAT
      000000DDH   SFRSYM    DATA     BYTE      T4T3M
      000000C1H   SFRSYM    DATA     BYTE      WDT_CONTR
      000000C2H   SFRSYM    DATA     BYTE      IAP_DATA
      000000DFH   SFRSYM    DATA     BYTE      IP3
      000000F4H   SFRSYM    DATA     BYTE      USBCON
      000000B5H   SFRSYM    DATA     BYTE      IP2
      000000FFH   SFRSYM    DATA     BYTE      RSTCFG
      000000C7H   SFRSYM    DATA     BYTE      IAP_CONTR
      0000008EH   SFRSYM    DATA     BYTE      AUXR
      000000AFH   SFRSYM    DATA     BYTE      IE2
      00000088H   SFRSYM    DATA     BYTE      TCON
      00000089H   SFRSYM    DATA     BYTE      TMOD
      00000098H   SFRSYM    DATA     BYTE      SCON
      000000F5H   SFRSYM    DATA     BYTE      IAP_TPS
      00000087H   SFRSYM    DATA     BYTE      PCON
      000000BCH   SFRSYM    DATA     BYTE      ADC_CONTR
      000000D1H   SFRSYM    DATA     BYTE      PSW1
      000000E7H   SFRSYM    DATA     BYTE      CMPCR2
      000000E6H   SFRSYM    DATA     BYTE      CMPCR1
      000000C4H   SFRSYM    DATA     BYTE      IAP_ADDRL
      000000C3H   SFRSYM    DATA     BYTE      IAP_ADDRH
      000000F6H   SFRSYM    DATA     BYTE      IAP_ADDRE
      000000DEH   SFRSYM    DATA     BYTE      ADCCFG
      000000B8H   SFRSYM    DATA     BYTE      IP
L251 LINKER/LOCATER V4.66.93.0                                                        09/12/2025  17:12:15  PAGE 52


      0000008FH   SFRSYM    DATA     BYTE      INTCLKO
      000000EEH   SFRSYM    DATA     BYTE      IP3H
      000000B6H   SFRSYM    DATA     BYTE      IP2H
      000000C5H   SFRSYM    DATA     BYTE      IAP_CMD
      000000BFH   SFRSYM    DATA     BYTE      P_SW4
      000000A8H   SFRSYM    DATA     BYTE      IE
      000000BBH   SFRSYM    DATA     BYTE      P_SW3
      000000BAH   SFRSYM    DATA     BYTE      P_SW2
      000000A2H   SFRSYM    DATA     BYTE      P_SW1
      000000CEH   SFRSYM    DATA     BYTE      SPCTL
      000000F8H   SFRSYM    DATA     BYTE      P7
      000000A8H.7 SFRSYM    DATA     BIT       EA
      000000E8H   SFRSYM    DATA     BYTE      P6
      000000C8H   SFRSYM    DATA     BYTE      P5
      000000C0H   SFRSYM    DATA     BYTE      P4
      000000ABH   SFRSYM    DATA     BYTE      WKTCH
      000000B0H   SFRSYM    DATA     BYTE      P3
      000000A0H   SFRSYM    DATA     BYTE      P2
      00000090H   SFRSYM    DATA     BYTE      P1
      00000080H   SFRSYM    DATA     BYTE      P0
      00FF9B2CH   SYMBOL    HCONST   ---       ?tpl?0001

      00FF019EH   BLOCK     CODE     ---       LVL=0
      00FF019EH   LINE      CODE     ---       #46
      00FF019EH   LINE      CODE     ---       #49
      00FF01A1H   LINE      CODE     ---       #50
      00FF01A4H   LINE      CODE     ---       #53
      00FF01A5H   LINE      CODE     ---       #54
      00FF01A6H   LINE      CODE     ---       #55
      00FF01A7H   LINE      CODE     ---       #56
      00FF01A8H   LINE      CODE     ---       #58
      ---         BLOCKEND  ---      ---       LVL=0

      00FF0003H   BLOCK     CODE     ---       LVL=0
      00FF0003H   LINE      CODE     ---       #67
      00FF0003H   LINE      CODE     ---       #69
      00FF0006H   LINE      CODE     ---       #70
      00FF0009H   LINE      CODE     ---       #71
      ---         BLOCKEND  ---      ---       LVL=0

      00FF0046H   BLOCK     CODE     ---       LVL=0
      R7          REGSYM    ---      BYTE      write_time
      00FF0046H   LINE      CODE     ---       #104
      00FF0046H   LINE      CODE     ---       #105
      00FF0046H   LINE      CODE     ---       #107
      00FF005BH   LINE      CODE     ---       #108
      00FF0061H   LINE      CODE     ---       #109
      ---         BLOCKEND  ---      ---       LVL=0

      00FF8BF1H   BLOCK     CODE     ---       LVL=0
      DR0         REGSYM    ---      DWORD     addr
      00FF8BF3H   BLOCK     CODE     NEAR LAB  LVL=1
      R11         REGSYM    ---      BYTE      temp
      00000020H.1 SYMBOL    BIT      BIT       flag
      ---         BLOCKEND  ---      ---       LVL=1
      00FF8BF1H   LINE      CODE     ---       #119
      00FF8BF3H   LINE      CODE     ---       #120
      00FF8BF3H   LINE      CODE     ---       #122
      00FF8BF5H   LINE      CODE     ---       #123
      00FF8BF9H   LINE      CODE     ---       #124
      00FF8BFBH   LINE      CODE     ---       #126
      00FF8BFEH   LINE      CODE     ---       #128
      00FF8C02H   LINE      CODE     ---       #129
      00FF8C06H   LINE      CODE     ---       #130
      00FF8C0AH   LINE      CODE     ---       #131
L251 LINKER/LOCATER V4.66.93.0                                                        09/12/2025  17:12:15  PAGE 53


      00FF8C0DH   LINE      CODE     ---       #132
      00FF8C0FH   LINE      CODE     ---       #134
      00FF8C13H   LINE      CODE     ---       #135
      00FF8C13H   LINE      CODE     ---       #136
      ---         BLOCKEND  ---      ---       LVL=0

      00FF8B2DH   BLOCK     CODE     ---       LVL=0
      DR0         REGSYM    ---      DWORD     addr
      R15         REGSYM    ---      BYTE      byte
      00FF8B33H   BLOCK     CODE     NEAR LAB  LVL=1
      00000020H.1 SYMBOL    BIT      BIT       flag
      ---         BLOCKEND  ---      ---       LVL=1
      00FF8B2DH   LINE      CODE     ---       #146
      00FF8B33H   LINE      CODE     ---       #147
      00FF8B33H   LINE      CODE     ---       #148
      00FF8B35H   LINE      CODE     ---       #150
      00FF8B39H   LINE      CODE     ---       #151
      00FF8B3BH   LINE      CODE     ---       #153
      00FF8B3EH   LINE      CODE     ---       #155
      00FF8B42H   LINE      CODE     ---       #156
      00FF8B46H   LINE      CODE     ---       #157
      00FF8B4AH   LINE      CODE     ---       #158
      00FF8B4DH   LINE      CODE     ---       #160
      00FF8B50H   LINE      CODE     ---       #162
      00FF8B54H   LINE      CODE     ---       #163
      ---         BLOCKEND  ---      ---       LVL=0

      00FF871DH   BLOCK     CODE     ---       LVL=0
      0001063BH   SYMBOL    XDATA    DWORD     addr
      REG=3       REGSYM    ---      ---       buf
      0001063FH   SYMBOL    XDATA    WORD      len
      00FF871DH   LINE      CODE     ---       #175
      00FF872BH   LINE      CODE     ---       #177
      00FF872DH   LINE      CODE     ---       #179
      00FF873FH   LINE      CODE     ---       #180
      00FF8752H   LINE      CODE     ---       #181
      00FF8763H   LINE      CODE     ---       #182
      ---         BLOCKEND  ---      ---       LVL=0

      00FF8766H   BLOCK     CODE     ---       LVL=0
      0001063BH   SYMBOL    XDATA    DWORD     addr
      REG=3       REGSYM    ---      ---       buf
      0001063FH   SYMBOL    XDATA    WORD      len
      00FF8766H   LINE      CODE     ---       #194
      00FF8774H   LINE      CODE     ---       #196
      00FF8776H   LINE      CODE     ---       #198
      00FF8786H   LINE      CODE     ---       #199
      00FF8799H   LINE      CODE     ---       #200
      00FF879BH   LINE      CODE     ---       #201
      00FF87ACH   LINE      CODE     ---       #202
      ---         BLOCKEND  ---      ---       LVL=0

      00FF8B57H   BLOCK     CODE     ---       LVL=0
      DR0         REGSYM    ---      DWORD     addr
      00FF8B59H   BLOCK     CODE     NEAR LAB  LVL=1
      00000020H.1 SYMBOL    BIT      BIT       flag
      ---         BLOCKEND  ---      ---       LVL=1
      00FF8B57H   LINE      CODE     ---       #213
      00FF8B59H   LINE      CODE     ---       #214
      00FF8B59H   LINE      CODE     ---       #215
      00FF8B5BH   LINE      CODE     ---       #217
      00FF8B5FH   LINE      CODE     ---       #218
      00FF8B61H   LINE      CODE     ---       #219
      00FF8B64H   LINE      CODE     ---       #220
      00FF8B68H   LINE      CODE     ---       #221
L251 LINKER/LOCATER V4.66.93.0                                                        09/12/2025  17:12:15  PAGE 54


      00FF8B6CH   LINE      CODE     ---       #222
      00FF8B70H   LINE      CODE     ---       #223
      00FF8B73H   LINE      CODE     ---       #225
      00FF8B77H   LINE      CODE     ---       #226
      00FF8B7EH   LINE      CODE     ---       #227
      ---         BLOCKEND  ---      ---       LVL=0
      REG=3       REGSYM    ---      ---       buf

      ---         MODULE    ---      ---       zf_driver_encoder
      000000D0H   SFRSYM    DATA     BYTE      PSW
      0000009DH   SFRSYM    DATA     BYTE      IRCBAND
      00000097H   SFRSYM    DATA     BYTE      AUXR2
      000000EFH   SFRSYM    DATA     BYTE      AUXINTIF
      000000FDH   SFRSYM    DATA     BYTE      S4CON
      000000ACH   SFRSYM    DATA     BYTE      S3CON
      0000009AH   SFRSYM    DATA     BYTE      S2CON
      000000B7H   SFRSYM    DATA     BYTE      IPH
      000000CDH   SFRSYM    DATA     BYTE      SPSTAT
      000000DDH   SFRSYM    DATA     BYTE      T4T3M
      000000C1H   SFRSYM    DATA     BYTE      WDT_CONTR
      00000088H.6 SFRSYM    DATA     BIT       TR1
      00000088H.4 SFRSYM    DATA     BIT       TR0
      000000D3H   SFRSYM    DATA     BYTE      T4L
      000000D5H   SFRSYM    DATA     BYTE      T3L
      000000D7H   SFRSYM    DATA     BYTE      T2L
      0000008BH   SFRSYM    DATA     BYTE      TL1
      0000008AH   SFRSYM    DATA     BYTE      TL0
      000000D2H   SFRSYM    DATA     BYTE      T4H
      000000D4H   SFRSYM    DATA     BYTE      T3H
      000000D6H   SFRSYM    DATA     BYTE      T2H
      0000008DH   SFRSYM    DATA     BYTE      TH1
      0000008CH   SFRSYM    DATA     BYTE      TH0
      000000DFH   SFRSYM    DATA     BYTE      IP3
      000000F4H   SFRSYM    DATA     BYTE      USBCON
      000000B5H   SFRSYM    DATA     BYTE      IP2
      000000FFH   SFRSYM    DATA     BYTE      RSTCFG
      000000C7H   SFRSYM    DATA     BYTE      IAP_CONTR
      0000008EH   SFRSYM    DATA     BYTE      AUXR
      000000AFH   SFRSYM    DATA     BYTE      IE2
      00000088H   SFRSYM    DATA     BYTE      TCON
      00000089H   SFRSYM    DATA     BYTE      TMOD
      00000098H   SFRSYM    DATA     BYTE      SCON
      00000087H   SFRSYM    DATA     BYTE      PCON
      000000BCH   SFRSYM    DATA     BYTE      ADC_CONTR
      000000D1H   SFRSYM    DATA     BYTE      PSW1
      000000E7H   SFRSYM    DATA     BYTE      CMPCR2
      000000E6H   SFRSYM    DATA     BYTE      CMPCR1
      000000DEH   SFRSYM    DATA     BYTE      ADCCFG
      000000B8H   SFRSYM    DATA     BYTE      IP
      0000008FH   SFRSYM    DATA     BYTE      INTCLKO
      000000EEH   SFRSYM    DATA     BYTE      IP3H
      000000B6H   SFRSYM    DATA     BYTE      IP2H
      000000BFH   SFRSYM    DATA     BYTE      P_SW4
      000000A8H   SFRSYM    DATA     BYTE      IE
      000000BBH   SFRSYM    DATA     BYTE      P_SW3
      000000BAH   SFRSYM    DATA     BYTE      P_SW2
      000000A2H   SFRSYM    DATA     BYTE      P_SW1
      000000CEH   SFRSYM    DATA     BYTE      SPCTL
      000000F8H   SFRSYM    DATA     BYTE      P7
      000000E8H   SFRSYM    DATA     BYTE      P6
      000000C8H   SFRSYM    DATA     BYTE      P5
      000000C0H   SFRSYM    DATA     BYTE      P4
      000000ABH   SFRSYM    DATA     BYTE      WKTCH
      000000B0H   SFRSYM    DATA     BYTE      P3
      000000A0H   SFRSYM    DATA     BYTE      P2
L251 LINKER/LOCATER V4.66.93.0                                                        09/12/2025  17:12:15  PAGE 55


      00000090H   SFRSYM    DATA     BYTE      P1
      00000080H   SFRSYM    DATA     BYTE      P0
      00010D88H   SYMBOL    XDATA    ---       encoder_dir_pin
      WR2         REGSYM    ---      INT       encoder_n
      WR14        REGSYM    ---      INT       dat
      WR6         REGSYM    ---      INT       encoder_n
      WR14        REGSYM    ---      INT       encoder_n
      WR12        REGSYM    ---      INT       dir_pin

      ---         MODULE    ---      ---       zf_driver_exti
      000000D0H   SFRSYM    DATA     BYTE      PSW
      0000009DH   SFRSYM    DATA     BYTE      IRCBAND
      00000097H   SFRSYM    DATA     BYTE      AUXR2
      000000EFH   SFRSYM    DATA     BYTE      AUXINTIF
      000000FDH   SFRSYM    DATA     BYTE      S4CON
      000000ACH   SFRSYM    DATA     BYTE      S3CON
      0000009AH   SFRSYM    DATA     BYTE      S2CON
      000000B7H   SFRSYM    DATA     BYTE      IPH
      000000CDH   SFRSYM    DATA     BYTE      SPSTAT
      000000DDH   SFRSYM    DATA     BYTE      T4T3M
      000000C1H   SFRSYM    DATA     BYTE      WDT_CONTR
      000000DFH   SFRSYM    DATA     BYTE      IP3
      000000F4H   SFRSYM    DATA     BYTE      USBCON
      000000B5H   SFRSYM    DATA     BYTE      IP2
      000000FFH   SFRSYM    DATA     BYTE      RSTCFG
      000000C7H   SFRSYM    DATA     BYTE      IAP_CONTR
      0000008EH   SFRSYM    DATA     BYTE      AUXR
      000000AFH   SFRSYM    DATA     BYTE      IE2
      00000088H   SFRSYM    DATA     BYTE      TCON
      00000089H   SFRSYM    DATA     BYTE      TMOD
      00000098H   SFRSYM    DATA     BYTE      SCON
      00000087H   SFRSYM    DATA     BYTE      PCON
      000000BCH   SFRSYM    DATA     BYTE      ADC_CONTR
      000000D1H   SFRSYM    DATA     BYTE      PSW1
      000000E7H   SFRSYM    DATA     BYTE      CMPCR2
      000000E6H   SFRSYM    DATA     BYTE      CMPCR1
      000000DEH   SFRSYM    DATA     BYTE      ADCCFG
      000000B8H   SFRSYM    DATA     BYTE      IP
      0000008FH   SFRSYM    DATA     BYTE      INTCLKO
      000000EEH   SFRSYM    DATA     BYTE      IP3H
      000000B6H   SFRSYM    DATA     BYTE      IP2H
      000000BFH   SFRSYM    DATA     BYTE      P_SW4
      000000A8H   SFRSYM    DATA     BYTE      IE
      000000BBH   SFRSYM    DATA     BYTE      P_SW3
      000000BAH   SFRSYM    DATA     BYTE      P_SW2
      000000A2H   SFRSYM    DATA     BYTE      P_SW1
      000000CEH   SFRSYM    DATA     BYTE      SPCTL
      000000F8H   SFRSYM    DATA     BYTE      P7
      000000E8H   SFRSYM    DATA     BYTE      P6
      000000C8H   SFRSYM    DATA     BYTE      P5
      000000C0H   SFRSYM    DATA     BYTE      P4
      000000ABH   SFRSYM    DATA     BYTE      WKTCH
      000000B0H   SFRSYM    DATA     BYTE      P3
      000000A0H   SFRSYM    DATA     BYTE      P2
      00000090H   SFRSYM    DATA     BYTE      P1
      00000080H   SFRSYM    DATA     BYTE      P0

      ---         MODULE    ---      ---       zf_driver_gpio
      00FF77D4H   PUBLIC    CODE     ---       gpio_init
      00FF00C6H   PUBLIC    CODE     ---       gpio_get_level
      00FF5BA8H   PUBLIC    CODE     ---       gpio_set_level_speed
      00FF67FDH   PUBLIC    CODE     ---       gpio_set_level
      00FF6AB7H   PUBLIC    CODE     ---       gpio_set_impedance
      00000094H   SFRSYM    DATA     BYTE      P0M0
      000000D0H   SFRSYM    DATA     BYTE      PSW
L251 LINKER/LOCATER V4.66.93.0                                                        09/12/2025  17:12:15  PAGE 56


      0000009DH   SFRSYM    DATA     BYTE      IRCBAND
      00000097H   SFRSYM    DATA     BYTE      AUXR2
      000000EFH   SFRSYM    DATA     BYTE      AUXINTIF
      000000FDH   SFRSYM    DATA     BYTE      S4CON
      000000ACH   SFRSYM    DATA     BYTE      S3CON
      0000009AH   SFRSYM    DATA     BYTE      S2CON
      000000B7H   SFRSYM    DATA     BYTE      IPH
      000000CDH   SFRSYM    DATA     BYTE      SPSTAT
      000000DDH   SFRSYM    DATA     BYTE      T4T3M
      000000C1H   SFRSYM    DATA     BYTE      WDT_CONTR
      000000DFH   SFRSYM    DATA     BYTE      IP3
      000000F4H   SFRSYM    DATA     BYTE      USBCON
      000000B5H   SFRSYM    DATA     BYTE      IP2
      000000FFH   SFRSYM    DATA     BYTE      RSTCFG
      000000C7H   SFRSYM    DATA     BYTE      IAP_CONTR
      0000008EH   SFRSYM    DATA     BYTE      AUXR
      000000AFH   SFRSYM    DATA     BYTE      IE2
      00000088H   SFRSYM    DATA     BYTE      TCON
      00000089H   SFRSYM    DATA     BYTE      TMOD
      00000098H   SFRSYM    DATA     BYTE      SCON
      00000087H   SFRSYM    DATA     BYTE      PCON
      000000BCH   SFRSYM    DATA     BYTE      ADC_CONTR
      000000D1H   SFRSYM    DATA     BYTE      PSW1
      000000E7H   SFRSYM    DATA     BYTE      CMPCR2
      000000E6H   SFRSYM    DATA     BYTE      CMPCR1
      000000DEH   SFRSYM    DATA     BYTE      ADCCFG
      000000B8H   SFRSYM    DATA     BYTE      IP
      0000008FH   SFRSYM    DATA     BYTE      INTCLKO
      000000EEH   SFRSYM    DATA     BYTE      IP3H
      000000B6H   SFRSYM    DATA     BYTE      IP2H
      000000BFH   SFRSYM    DATA     BYTE      P_SW4
      000000A8H   SFRSYM    DATA     BYTE      IE
      000000BBH   SFRSYM    DATA     BYTE      P_SW3
      000000BAH   SFRSYM    DATA     BYTE      P_SW2
      000000A2H   SFRSYM    DATA     BYTE      P_SW1
      000000CEH   SFRSYM    DATA     BYTE      SPCTL
      000000F8H   SFRSYM    DATA     BYTE      P7
      000000E8H   SFRSYM    DATA     BYTE      P6
      000000C8H   SFRSYM    DATA     BYTE      P5
      000000C0H   SFRSYM    DATA     BYTE      P4
      000000C9H   SFRSYM    DATA     BYTE      P5M1
      000000ABH   SFRSYM    DATA     BYTE      WKTCH
      000000B0H   SFRSYM    DATA     BYTE      P3
      000000B3H   SFRSYM    DATA     BYTE      P4M1
      000000CAH   SFRSYM    DATA     BYTE      P5M0
      000000A0H   SFRSYM    DATA     BYTE      P2
      000000B1H   SFRSYM    DATA     BYTE      P3M1
      000000B4H   SFRSYM    DATA     BYTE      P4M0
      00000090H   SFRSYM    DATA     BYTE      P1
      00000095H   SFRSYM    DATA     BYTE      P2M1
      000000B2H   SFRSYM    DATA     BYTE      P3M0
      00000080H   SFRSYM    DATA     BYTE      P0
      00000091H   SFRSYM    DATA     BYTE      P1M1
      00000096H   SFRSYM    DATA     BYTE      P2M0
      00000092H   SFRSYM    DATA     BYTE      P1M0
      00000093H   SFRSYM    DATA     BYTE      P0M1
      00FF54FFH   SYMBOL    CODE     ---       gpio_set_dir
      00FF6096H   SYMBOL    CODE     ---       gpio_set_mode

      00FF6096H   BLOCK     CODE     ---       LVL=0
      WR4         REGSYM    ---      INT       pin
      WR8         REGSYM    ---      INT       mode
      00FF6096H   LINE      CODE     ---       #45
      00FF609AH   LINE      CODE     ---       #51
      00FF60A6H   LINE      CODE     ---       #53
L251 LINKER/LOCATER V4.66.93.0                                                        09/12/2025  17:12:15  PAGE 57


      00FF60D5H   LINE      CODE     ---       #54
      00FF6104H   LINE      CODE     ---       #55
      00FF6107H   LINE      CODE     ---       #56
      00FF610DH   LINE      CODE     ---       #58
      00FF613AH   LINE      CODE     ---       #59
      00FF613DH   LINE      CODE     ---       #60
      00FF6149H   LINE      CODE     ---       #62
      00FF6176H   LINE      CODE     ---       #63
      00FF6179H   LINE      CODE     ---       #64
      00FF6182H   LINE      CODE     ---       #66
      00FF61B8H   LINE      CODE     ---       #68
      00FF61B8H   LINE      CODE     ---       #70
      00FF61CBH   LINE      CODE     ---       #71
      00FF61DEH   LINE      CODE     ---       #73
      00FF61E1H   LINE      CODE     ---       #75
      00FF61E1H   LINE      CODE     ---       #77
      00FF61F4H   LINE      CODE     ---       #78
      00FF6207H   LINE      CODE     ---       #80
      00FF620AH   LINE      CODE     ---       #82
      00FF620AH   LINE      CODE     ---       #84
      00FF621DH   LINE      CODE     ---       #85
      00FF6230H   LINE      CODE     ---       #87
      00FF6233H   LINE      CODE     ---       #89
      00FF6233H   LINE      CODE     ---       #91
      00FF6246H   LINE      CODE     ---       #92
      00FF6259H   LINE      CODE     ---       #94
      00FF625BH   LINE      CODE     ---       #96
      00FF625BH   LINE      CODE     ---       #98
      00FF626EH   LINE      CODE     ---       #99
      00FF6281H   LINE      CODE     ---       #101
      00FF6283H   LINE      CODE     ---       #103
      00FF6283H   LINE      CODE     ---       #105
      00FF6296H   LINE      CODE     ---       #106
      00FF62A9H   LINE      CODE     ---       #108
      00FF62ABH   LINE      CODE     ---       #109
      00FF62ABH   LINE      CODE     ---       #112
      00FF62ABH   LINE      CODE     ---       #113
      00FF62ABH   LINE      CODE     ---       #114
      00FF62ABH   LINE      CODE     ---       #117
      00FF62BBH   LINE      CODE     ---       #119
      00FF62BBH   LINE      CODE     ---       #120
      ---         BLOCKEND  ---      ---       LVL=0

      00FF5BA8H   BLOCK     CODE     ---       LVL=0
      WR14        REGSYM    ---      INT       pin
      WR12        REGSYM    ---      INT       speed
      00FF5BA8H   LINE      CODE     ---       #123
      00FF5BAEH   LINE      CODE     ---       #125
      00FF5BE8H   LINE      CODE     ---       #127
      00FF5BE8H   LINE      CODE     ---       #129
      00FF5BECH   LINE      CODE     ---       #131
      00FF5C0FH   LINE      CODE     ---       #132
      00FF5C12H   LINE      CODE     ---       #133
      00FF5C18H   LINE      CODE     ---       #135
      00FF5C39H   LINE      CODE     ---       #136
      00FF5C3CH   LINE      CODE     ---       #139
      00FF5C4CH   LINE      CODE     ---       #141
      00FF5C4CH   LINE      CODE     ---       #143
      00FF5C4FH   LINE      CODE     ---       #145
      00FF5C4FH   LINE      CODE     ---       #147
      00FF5C53H   LINE      CODE     ---       #149
      00FF5C76H   LINE      CODE     ---       #150
      00FF5C79H   LINE      CODE     ---       #151
      00FF5C7FH   LINE      CODE     ---       #153
      00FF5CA0H   LINE      CODE     ---       #154
L251 LINKER/LOCATER V4.66.93.0                                                        09/12/2025  17:12:15  PAGE 58


      00FF5CA3H   LINE      CODE     ---       #157
      00FF5CB3H   LINE      CODE     ---       #159
      00FF5CB3H   LINE      CODE     ---       #161
      00FF5CB6H   LINE      CODE     ---       #163
      00FF5CB6H   LINE      CODE     ---       #165
      00FF5CBAH   LINE      CODE     ---       #167
      00FF5CDDH   LINE      CODE     ---       #168
      00FF5CE0H   LINE      CODE     ---       #169
      00FF5CE6H   LINE      CODE     ---       #171
      00FF5D07H   LINE      CODE     ---       #172
      00FF5D0AH   LINE      CODE     ---       #175
      00FF5D1AH   LINE      CODE     ---       #177
      00FF5D1AH   LINE      CODE     ---       #179
      00FF5D1DH   LINE      CODE     ---       #181
      00FF5D1DH   LINE      CODE     ---       #183
      00FF5D21H   LINE      CODE     ---       #185
      00FF5D44H   LINE      CODE     ---       #186
      00FF5D47H   LINE      CODE     ---       #187
      00FF5D4DH   LINE      CODE     ---       #189
      00FF5D6EH   LINE      CODE     ---       #190
      00FF5D71H   LINE      CODE     ---       #193
      00FF5D81H   LINE      CODE     ---       #195
      00FF5D81H   LINE      CODE     ---       #197
      00FF5D84H   LINE      CODE     ---       #199
      00FF5D84H   LINE      CODE     ---       #201
      00FF5D88H   LINE      CODE     ---       #203
      00FF5DABH   LINE      CODE     ---       #204
      00FF5DAEH   LINE      CODE     ---       #205
      00FF5DB4H   LINE      CODE     ---       #207
      00FF5DD5H   LINE      CODE     ---       #208
      00FF5DD8H   LINE      CODE     ---       #211
      00FF5DE8H   LINE      CODE     ---       #213
      00FF5DE8H   LINE      CODE     ---       #215
      00FF5DEAH   LINE      CODE     ---       #217
      00FF5DEAH   LINE      CODE     ---       #219
      00FF5DEEH   LINE      CODE     ---       #221
      00FF5E11H   LINE      CODE     ---       #222
      00FF5E13H   LINE      CODE     ---       #223
      00FF5E19H   LINE      CODE     ---       #225
      00FF5E3AH   LINE      CODE     ---       #226
      00FF5E3CH   LINE      CODE     ---       #229
      00FF5E4CH   LINE      CODE     ---       #231
      00FF5E4CH   LINE      CODE     ---       #233
      00FF5E4EH   LINE      CODE     ---       #235
      00FF5E4EH   LINE      CODE     ---       #237
      00FF5E5EH   LINE      CODE     ---       #239
      00FF5E5EH   LINE      CODE     ---       #240
      00FF5E5EH   LINE      CODE     ---       #241
      ---         BLOCKEND  ---      ---       LVL=0

      00FF54FFH   BLOCK     CODE     ---       LVL=0
      WR4         REGSYM    ---      INT       pin
      WR2         REGSYM    ---      INT       dir
      00FF54FFH   LINE      CODE     ---       #245
      00FF5503H   LINE      CODE     ---       #247
      00FF553DH   LINE      CODE     ---       #249
      00FF553DH   LINE      CODE     ---       #251
      00FF5543H   LINE      CODE     ---       #253
      00FF5558H   LINE      CODE     ---       #254
      00FF556DH   LINE      CODE     ---       #255
      00FF5570H   LINE      CODE     ---       #261
      00FF5576H   LINE      CODE     ---       #263
      00FF558BH   LINE      CODE     ---       #264
      00FF559EH   LINE      CODE     ---       #265
      00FF55A1H   LINE      CODE     ---       #266
L251 LINKER/LOCATER V4.66.93.0                                                        09/12/2025  17:12:15  PAGE 59


      00FF55A8H   LINE      CODE     ---       #268
      00FF55BBH   LINE      CODE     ---       #269
      00FF55D0H   LINE      CODE     ---       #270
      00FF55D0H   LINE      CODE     ---       #272
      00FF55D3H   LINE      CODE     ---       #274
      00FF55D3H   LINE      CODE     ---       #276
      00FF55D9H   LINE      CODE     ---       #278
      00FF55EEH   LINE      CODE     ---       #279
      00FF5603H   LINE      CODE     ---       #280
      00FF5606H   LINE      CODE     ---       #286
      00FF560CH   LINE      CODE     ---       #288
      00FF5621H   LINE      CODE     ---       #289
      00FF5634H   LINE      CODE     ---       #290
      00FF5637H   LINE      CODE     ---       #291
      00FF563EH   LINE      CODE     ---       #293
      00FF5651H   LINE      CODE     ---       #294
      00FF5666H   LINE      CODE     ---       #295
      00FF5666H   LINE      CODE     ---       #297
      00FF5669H   LINE      CODE     ---       #299
      00FF5669H   LINE      CODE     ---       #301
      00FF566FH   LINE      CODE     ---       #303
      00FF5684H   LINE      CODE     ---       #304
      00FF5699H   LINE      CODE     ---       #305
      00FF569CH   LINE      CODE     ---       #311
      00FF56A2H   LINE      CODE     ---       #313
      00FF56B7H   LINE      CODE     ---       #314
      00FF56CAH   LINE      CODE     ---       #315
      00FF56CDH   LINE      CODE     ---       #316
      00FF56D4H   LINE      CODE     ---       #318
      00FF56E7H   LINE      CODE     ---       #319
      00FF56FCH   LINE      CODE     ---       #320
      00FF56FCH   LINE      CODE     ---       #322
      00FF56FFH   LINE      CODE     ---       #324
      00FF56FFH   LINE      CODE     ---       #326
      00FF5705H   LINE      CODE     ---       #328
      00FF571AH   LINE      CODE     ---       #329
      00FF572FH   LINE      CODE     ---       #330
      00FF5732H   LINE      CODE     ---       #336
      00FF5738H   LINE      CODE     ---       #338
      00FF574DH   LINE      CODE     ---       #339
      00FF5760H   LINE      CODE     ---       #340
      00FF5763H   LINE      CODE     ---       #341
      00FF576AH   LINE      CODE     ---       #343
      00FF577DH   LINE      CODE     ---       #344
      00FF5792H   LINE      CODE     ---       #345
      00FF5792H   LINE      CODE     ---       #347
      00FF5795H   LINE      CODE     ---       #349
      00FF5795H   LINE      CODE     ---       #351
      00FF579BH   LINE      CODE     ---       #353
      00FF57B0H   LINE      CODE     ---       #354
      00FF57C5H   LINE      CODE     ---       #355
      00FF57C8H   LINE      CODE     ---       #361
      00FF57CEH   LINE      CODE     ---       #363
      00FF57E3H   LINE      CODE     ---       #364
      00FF57F6H   LINE      CODE     ---       #365
      00FF57F9H   LINE      CODE     ---       #366
      00FF5800H   LINE      CODE     ---       #368
      00FF5813H   LINE      CODE     ---       #369
      00FF5828H   LINE      CODE     ---       #370
      00FF5828H   LINE      CODE     ---       #372
      00FF582BH   LINE      CODE     ---       #374
      00FF582BH   LINE      CODE     ---       #376
      00FF5831H   LINE      CODE     ---       #378
      00FF5846H   LINE      CODE     ---       #379
      00FF585BH   LINE      CODE     ---       #380
L251 LINKER/LOCATER V4.66.93.0                                                        09/12/2025  17:12:15  PAGE 60


      00FF585DH   LINE      CODE     ---       #386
      00FF5863H   LINE      CODE     ---       #388
      00FF5878H   LINE      CODE     ---       #389
      00FF588BH   LINE      CODE     ---       #390
      00FF588DH   LINE      CODE     ---       #391
      00FF5891H   LINE      CODE     ---       #393
      00FF58A4H   LINE      CODE     ---       #394
      00FF58B9H   LINE      CODE     ---       #395
      00FF58B9H   LINE      CODE     ---       #397
      00FF58BBH   LINE      CODE     ---       #399
      00FF58BBH   LINE      CODE     ---       #401
      00FF58CBH   LINE      CODE     ---       #403
      00FF58CBH   LINE      CODE     ---       #404
      00FF58CBH   LINE      CODE     ---       #405
      ---         BLOCKEND  ---      ---       LVL=0

      00FF00C6H   BLOCK     CODE     ---       LVL=0
      WR4         REGSYM    ---      INT       pin
      00FF00CAH   BLOCK     CODE     NEAR LAB  LVL=1
      R15         REGSYM    ---      BYTE      status
      ---         BLOCKEND  ---      ---       LVL=1
      00FF00C6H   LINE      CODE     ---       #413
      00FF00CAH   LINE      CODE     ---       #414
      00FF00CAH   LINE      CODE     ---       #415
      00FF00CCH   LINE      CODE     ---       #417
      00FF00F9H   LINE      CODE     ---       #419
      00FF00F9H   LINE      CODE     ---       #421
      00FF010DH   LINE      CODE     ---       #423
      00FF010FH   LINE      CODE     ---       #425
      00FF010FH   LINE      CODE     ---       #427
      00FF0123H   LINE      CODE     ---       #429
      00FF0125H   LINE      CODE     ---       #431
      00FF0125H   LINE      CODE     ---       #433
      00FF0139H   LINE      CODE     ---       #435
      00FF013BH   LINE      CODE     ---       #437
      00FF013BH   LINE      CODE     ---       #439
      00FF014FH   LINE      CODE     ---       #441
      00FF0151H   LINE      CODE     ---       #443
      00FF0151H   LINE      CODE     ---       #445
      00FF0165H   LINE      CODE     ---       #447
      00FF0167H   LINE      CODE     ---       #449
      00FF0167H   LINE      CODE     ---       #451
      00FF017BH   LINE      CODE     ---       #453
      00FF017DH   LINE      CODE     ---       #455
      00FF017DH   LINE      CODE     ---       #457
      00FF018DH   LINE      CODE     ---       #459
      00FF018DH   LINE      CODE     ---       #460
      00FF018DH   LINE      CODE     ---       #462
      00FF0196H   LINE      CODE     ---       #463
      ---         BLOCKEND  ---      ---       LVL=0

      00FF67FDH   BLOCK     CODE     ---       LVL=0
      WR4         REGSYM    ---      INT       pin
      R10         REGSYM    ---      BYTE      dat
      00FF67FDH   LINE      CODE     ---       #472
      00FF6801H   LINE      CODE     ---       #474
      00FF6838H   LINE      CODE     ---       #476
      00FF6838H   LINE      CODE     ---       #478
      00FF683CH   LINE      CODE     ---       #480
      00FF684FH   LINE      CODE     ---       #481
      00FF6852H   LINE      CODE     ---       #484
      00FF6867H   LINE      CODE     ---       #485
      00FF6867H   LINE      CODE     ---       #487
      00FF686AH   LINE      CODE     ---       #489
      00FF686AH   LINE      CODE     ---       #491
L251 LINKER/LOCATER V4.66.93.0                                                        09/12/2025  17:12:15  PAGE 61


      00FF686EH   LINE      CODE     ---       #493
      00FF6881H   LINE      CODE     ---       #494
      00FF6884H   LINE      CODE     ---       #497
      00FF6899H   LINE      CODE     ---       #498
      00FF6899H   LINE      CODE     ---       #500
      00FF689CH   LINE      CODE     ---       #502
      00FF689CH   LINE      CODE     ---       #504
      00FF68A0H   LINE      CODE     ---       #506
      00FF68B3H   LINE      CODE     ---       #507
      00FF68B6H   LINE      CODE     ---       #510
      00FF68CBH   LINE      CODE     ---       #511
      00FF68CBH   LINE      CODE     ---       #513
      00FF68CEH   LINE      CODE     ---       #515
      00FF68CEH   LINE      CODE     ---       #517
      00FF68D2H   LINE      CODE     ---       #519
      00FF68E5H   LINE      CODE     ---       #520
      00FF68E8H   LINE      CODE     ---       #523
      00FF68FDH   LINE      CODE     ---       #524
      00FF68FDH   LINE      CODE     ---       #526
      00FF68FFH   LINE      CODE     ---       #528
      00FF68FFH   LINE      CODE     ---       #530
      00FF6903H   LINE      CODE     ---       #532
      00FF6916H   LINE      CODE     ---       #533
      00FF6918H   LINE      CODE     ---       #536
      00FF692DH   LINE      CODE     ---       #537
      00FF692DH   LINE      CODE     ---       #539
      00FF692FH   LINE      CODE     ---       #541
      00FF692FH   LINE      CODE     ---       #543
      00FF6933H   LINE      CODE     ---       #545
      00FF6946H   LINE      CODE     ---       #546
      00FF6948H   LINE      CODE     ---       #549
      00FF695DH   LINE      CODE     ---       #550
      00FF695DH   LINE      CODE     ---       #552
      00FF695FH   LINE      CODE     ---       #554
      00FF695FH   LINE      CODE     ---       #556
      00FF696FH   LINE      CODE     ---       #558
      00FF696FH   LINE      CODE     ---       #559
      00FF696FH   LINE      CODE     ---       #560
      ---         BLOCKEND  ---      ---       LVL=0
      WR14        REGSYM    ---      INT       pin

      00FF6AB7H   BLOCK     CODE     ---       LVL=0
      WR4         REGSYM    ---      INT       pin
      00FF6AB7H   LINE      CODE     ---       #587
      00FF6AB9H   LINE      CODE     ---       #589
      00FF6AEDH   LINE      CODE     ---       #591
      00FF6AEDH   LINE      CODE     ---       #593
      00FF6B00H   LINE      CODE     ---       #594
      00FF6B15H   LINE      CODE     ---       #596
      00FF6B18H   LINE      CODE     ---       #598
      00FF6B18H   LINE      CODE     ---       #600
      00FF6B2BH   LINE      CODE     ---       #601
      00FF6B40H   LINE      CODE     ---       #603
      00FF6B43H   LINE      CODE     ---       #605
      00FF6B43H   LINE      CODE     ---       #607
      00FF6B56H   LINE      CODE     ---       #608
      00FF6B6BH   LINE      CODE     ---       #610
      00FF6B6EH   LINE      CODE     ---       #612
      00FF6B6EH   LINE      CODE     ---       #614
      00FF6B81H   LINE      CODE     ---       #615
      00FF6B96H   LINE      CODE     ---       #617
      00FF6B98H   LINE      CODE     ---       #619
      00FF6B98H   LINE      CODE     ---       #621
      00FF6BABH   LINE      CODE     ---       #622
      00FF6BC0H   LINE      CODE     ---       #624
L251 LINKER/LOCATER V4.66.93.0                                                        09/12/2025  17:12:15  PAGE 62


      00FF6BC2H   LINE      CODE     ---       #626
      00FF6BC2H   LINE      CODE     ---       #628
      00FF6BD5H   LINE      CODE     ---       #629
      00FF6BEAH   LINE      CODE     ---       #631
      00FF6BECH   LINE      CODE     ---       #633
      00FF6BECH   LINE      CODE     ---       #635
      00FF6BFCH   LINE      CODE     ---       #637
      00FF6BFCH   LINE      CODE     ---       #638
      00FF6BFCH   LINE      CODE     ---       #639
      ---         BLOCKEND  ---      ---       LVL=0

      00FF77D4H   BLOCK     CODE     ---       LVL=0
      WR14        REGSYM    ---      INT       pin
      0001044BH   SYMBOL    XDATA    INT       dir
      0001044DH   SYMBOL    XDATA    BYTE      dat
      WR12        REGSYM    ---      INT       mode
      00FF77D4H   LINE      CODE     ---       #650
      00FF77E4H   LINE      CODE     ---       #652
      00FF780CH   LINE      CODE     ---       #654
      00FF7818H   LINE      CODE     ---       #656
      00FF7821H   LINE      CODE     ---       #657
      00FF7828H   LINE      CODE     ---       #658
      00FF782AH   LINE      CODE     ---       #659
      00FF7834H   LINE      CODE     ---       #661
      00FF7838H   LINE      CODE     ---       #663
      00FF783DH   LINE      CODE     ---       #664
      00FF783FH   LINE      CODE     ---       #667
      00FF7846H   LINE      CODE     ---       #668
      00FF784DH   LINE      CODE     ---       #669
      00FF784DH   LINE      CODE     ---       #670
      00FF784FH   LINE      CODE     ---       #671
      00FF785BH   LINE      CODE     ---       #673
      00FF7861H   LINE      CODE     ---       #675
      00FF786AH   LINE      CODE     ---       #676
      00FF7873H   LINE      CODE     ---       #677
      00FF7875H   LINE      CODE     ---       #678
      00FF787BH   LINE      CODE     ---       #680
      00FF7884H   LINE      CODE     ---       #681
      00FF7884H   LINE      CODE     ---       #683
      00FF788DH   LINE      CODE     ---       #684
      ---         BLOCKEND  ---      ---       LVL=0

      ---         MODULE    ---      ---       zf_driver_pit
      00FF62BCH   PUBLIC    CODE     ---       pit_init
      000000D0H   SFRSYM    DATA     BYTE      PSW
      0000009DH   SFRSYM    DATA     BYTE      IRCBAND
      00000097H   SFRSYM    DATA     BYTE      AUXR2
      000000EFH   SFRSYM    DATA     BYTE      AUXINTIF
      000000FDH   SFRSYM    DATA     BYTE      S4CON
      000000ACH   SFRSYM    DATA     BYTE      S3CON
      0000009AH   SFRSYM    DATA     BYTE      S2CON
      000000B7H   SFRSYM    DATA     BYTE      IPH
      000000CDH   SFRSYM    DATA     BYTE      SPSTAT
      000000DDH   SFRSYM    DATA     BYTE      T4T3M
      000000C1H   SFRSYM    DATA     BYTE      WDT_CONTR
      00000088H.6 SFRSYM    DATA     BIT       TR1
      00000088H.4 SFRSYM    DATA     BIT       TR0
      000000D3H   SFRSYM    DATA     BYTE      T4L
      000000D5H   SFRSYM    DATA     BYTE      T3L
      000000D7H   SFRSYM    DATA     BYTE      T2L
      0000008BH   SFRSYM    DATA     BYTE      TL1
      0000008AH   SFRSYM    DATA     BYTE      TL0
      000000D2H   SFRSYM    DATA     BYTE      T4H
      000000D4H   SFRSYM    DATA     BYTE      T3H
      000000D6H   SFRSYM    DATA     BYTE      T2H
L251 LINKER/LOCATER V4.66.93.0                                                        09/12/2025  17:12:15  PAGE 63


      0000008DH   SFRSYM    DATA     BYTE      TH1
      0000008CH   SFRSYM    DATA     BYTE      TH0
      000000DFH   SFRSYM    DATA     BYTE      IP3
      000000F4H   SFRSYM    DATA     BYTE      USBCON
      000000B5H   SFRSYM    DATA     BYTE      IP2
      000000FFH   SFRSYM    DATA     BYTE      RSTCFG
      000000A8H.3 SFRSYM    DATA     BIT       ET1
      000000A8H.1 SFRSYM    DATA     BIT       ET0
      000000C7H   SFRSYM    DATA     BYTE      IAP_CONTR
      0000008EH   SFRSYM    DATA     BYTE      AUXR
      000000AFH   SFRSYM    DATA     BYTE      IE2
      00000088H   SFRSYM    DATA     BYTE      TCON
      00000089H   SFRSYM    DATA     BYTE      TMOD
      00000098H   SFRSYM    DATA     BYTE      SCON
      00000087H   SFRSYM    DATA     BYTE      PCON
      000000BCH   SFRSYM    DATA     BYTE      ADC_CONTR
      000000D1H   SFRSYM    DATA     BYTE      PSW1
      000000E7H   SFRSYM    DATA     BYTE      CMPCR2
      000000E6H   SFRSYM    DATA     BYTE      CMPCR1
      000000DEH   SFRSYM    DATA     BYTE      ADCCFG
      000000B8H   SFRSYM    DATA     BYTE      IP
      0000008FH   SFRSYM    DATA     BYTE      INTCLKO
      000000EEH   SFRSYM    DATA     BYTE      IP3H
      000000B6H   SFRSYM    DATA     BYTE      IP2H
      000000BFH   SFRSYM    DATA     BYTE      P_SW4
      000000A8H   SFRSYM    DATA     BYTE      IE
      000000BBH   SFRSYM    DATA     BYTE      P_SW3
      000000BAH   SFRSYM    DATA     BYTE      P_SW2
      000000A2H   SFRSYM    DATA     BYTE      P_SW1
      000000CEH   SFRSYM    DATA     BYTE      SPCTL
      000000F8H   SFRSYM    DATA     BYTE      P7
      000000E8H   SFRSYM    DATA     BYTE      P6
      000000C8H   SFRSYM    DATA     BYTE      P5
      000000C0H   SFRSYM    DATA     BYTE      P4
      000000ABH   SFRSYM    DATA     BYTE      WKTCH
      000000B0H   SFRSYM    DATA     BYTE      P3
      000000A0H   SFRSYM    DATA     BYTE      P2
      00000090H   SFRSYM    DATA     BYTE      P1
      00000080H   SFRSYM    DATA     BYTE      P0

      00FF62BCH   BLOCK     CODE     ---       LVL=0
      WR30        REGSYM    ---      INT       pit_n
      DR24        REGSYM    ---      DWORD     period
      00FF62C2H   BLOCK     CODE     NEAR LAB  LVL=1
      R15         REGSYM    ---      BYTE      freq_div
      WR22        REGSYM    ---      WORD      period_temp
      WR28        REGSYM    ---      WORD      temp
      ---         BLOCKEND  ---      ---       LVL=1
      00FF62BCH   LINE      CODE     ---       #50
      00FF62C2H   LINE      CODE     ---       #51
      00FF62C2H   LINE      CODE     ---       #52
      00FF62C4H   LINE      CODE     ---       #53
      00FF62C6H   LINE      CODE     ---       #54
      00FF62C8H   LINE      CODE     ---       #57
      00FF62D4H   LINE      CODE     ---       #60
      00FF62DFH   LINE      CODE     ---       #62
      00FF62E3H   LINE      CODE     ---       #64
      00FF62E6H   LINE      CODE     ---       #65
      00FF62E9H   LINE      CODE     ---       #66
      00FF62EFH   LINE      CODE     ---       #68
      00FF62F2H   LINE      CODE     ---       #69
      00FF62F5H   LINE      CODE     ---       #70
      00FF62FBH   LINE      CODE     ---       #72
      00FF62FEH   LINE      CODE     ---       #73
      00FF6300H   LINE      CODE     ---       #74
L251 LINKER/LOCATER V4.66.93.0                                                        09/12/2025  17:12:15  PAGE 64


      00FF6306H   LINE      CODE     ---       #76
      00FF6309H   LINE      CODE     ---       #77
      00FF630BH   LINE      CODE     ---       #78
      00FF6311H   LINE      CODE     ---       #80
      00FF6314H   LINE      CODE     ---       #81
      00FF6316H   LINE      CODE     ---       #82
      00FF631CH   LINE      CODE     ---       #84
      00FF632CH   LINE      CODE     ---       #85
      00FF632EH   LINE      CODE     ---       #91
      00FF6332H   LINE      CODE     ---       #93
      00FF6335H   LINE      CODE     ---       #94
      00FF6337H   LINE      CODE     ---       #95
      00FF633DH   LINE      CODE     ---       #97
      00FF6340H   LINE      CODE     ---       #98
      00FF6342H   LINE      CODE     ---       #99
      00FF6348H   LINE      CODE     ---       #101
      00FF634BH   LINE      CODE     ---       #102
      00FF634DH   LINE      CODE     ---       #103
      00FF6353H   LINE      CODE     ---       #105
      00FF6356H   LINE      CODE     ---       #106
      00FF6358H   LINE      CODE     ---       #107
      00FF635EH   LINE      CODE     ---       #109
      00FF6361H   LINE      CODE     ---       #110
      00FF6363H   LINE      CODE     ---       #111
      00FF6369H   LINE      CODE     ---       #113
      00FF6379H   LINE      CODE     ---       #114
      00FF6379H   LINE      CODE     ---       #118
      00FF6389H   LINE      CODE     ---       #119
      00FF6396H   LINE      CODE     ---       #121
      00FF639AH   LINE      CODE     ---       #123
      00FF639EH   LINE      CODE     ---       #125
      00FF63A9H   LINE      CODE     ---       #126
      00FF63ADH   LINE      CODE     ---       #127
      00FF63B3H   LINE      CODE     ---       #128
      00FF63B9H   LINE      CODE     ---       #129
      00FF63BBH   LINE      CODE     ---       #130
      00FF63BDH   LINE      CODE     ---       #131
      00FF63C0H   LINE      CODE     ---       #132
      00FF63C6H   LINE      CODE     ---       #134
      00FF63D1H   LINE      CODE     ---       #135
      00FF63D5H   LINE      CODE     ---       #136
      00FF63DBH   LINE      CODE     ---       #137
      00FF63E1H   LINE      CODE     ---       #138
      00FF63E3H   LINE      CODE     ---       #139
      00FF63E5H   LINE      CODE     ---       #140
      00FF63E8H   LINE      CODE     ---       #141
      00FF63EEH   LINE      CODE     ---       #143
      00FF63F9H   LINE      CODE     ---       #144
      00FF63FFH   LINE      CODE     ---       #145
      00FF6405H   LINE      CODE     ---       #146
      00FF6408H   LINE      CODE     ---       #147
      00FF640BH   LINE      CODE     ---       #148
      00FF640EH   LINE      CODE     ---       #149
      00FF6414H   LINE      CODE     ---       #151
      00FF641FH   LINE      CODE     ---       #152
      00FF6425H   LINE      CODE     ---       #153
      00FF642BH   LINE      CODE     ---       #154
      00FF642EH   LINE      CODE     ---       #155
      00FF6431H   LINE      CODE     ---       #156
      00FF6433H   LINE      CODE     ---       #157
      00FF6439H   LINE      CODE     ---       #159
      00FF6444H   LINE      CODE     ---       #160
      00FF644AH   LINE      CODE     ---       #161
      00FF6450H   LINE      CODE     ---       #162
      00FF6453H   LINE      CODE     ---       #163
L251 LINKER/LOCATER V4.66.93.0                                                        09/12/2025  17:12:15  PAGE 65


      00FF6456H   LINE      CODE     ---       #164
      00FF6458H   LINE      CODE     ---       #165
      00FF645EH   LINE      CODE     ---       #167
      00FF6469H   LINE      CODE     ---       #168
      00FF6478H   LINE      CODE     ---       #169
      00FF6487H   LINE      CODE     ---       #170
      00FF6494H   LINE      CODE     ---       #172
      ---         BLOCKEND  ---      ---       LVL=0

      ---         MODULE    ---      ---       zf_driver_pwm
      00FFA142H   PUBLIC    HCONST   ---       PWM_PSCR_ADDR
      00FFA14AH   PUBLIC    HCONST   ---       PWM_CCR_ADDR
      00FFA16AH   PUBLIC    HCONST   ---       PWM_ARR_ADDR
      00FFA172H   PUBLIC    HCONST   ---       PWM_CCER_ADDR
      00FFA182H   PUBLIC    HCONST   ---       PWM_CCMR_ADDR
      00FF474DH   PUBLIC    CODE     ---       pwm_init
      00010439H   PUBLIC    XDATA    BYTE      ?pwm_init?BYTE
      000000D0H   SFRSYM    DATA     BYTE      PSW
      0000009DH   SFRSYM    DATA     BYTE      IRCBAND
      00000097H   SFRSYM    DATA     BYTE      AUXR2
      000000EFH   SFRSYM    DATA     BYTE      AUXINTIF
      000000FDH   SFRSYM    DATA     BYTE      S4CON
      000000ACH   SFRSYM    DATA     BYTE      S3CON
      0000009AH   SFRSYM    DATA     BYTE      S2CON
      000000B7H   SFRSYM    DATA     BYTE      IPH
      000000CDH   SFRSYM    DATA     BYTE      SPSTAT
      000000DDH   SFRSYM    DATA     BYTE      T4T3M
      000000C1H   SFRSYM    DATA     BYTE      WDT_CONTR
      000000DFH   SFRSYM    DATA     BYTE      IP3
      000000F4H   SFRSYM    DATA     BYTE      USBCON
      000000B5H   SFRSYM    DATA     BYTE      IP2
      000000FFH   SFRSYM    DATA     BYTE      RSTCFG
      000000C7H   SFRSYM    DATA     BYTE      IAP_CONTR
      0000008EH   SFRSYM    DATA     BYTE      AUXR
      000000AFH   SFRSYM    DATA     BYTE      IE2
      00000088H   SFRSYM    DATA     BYTE      TCON
      00000089H   SFRSYM    DATA     BYTE      TMOD
      00000098H   SFRSYM    DATA     BYTE      SCON
      00000087H   SFRSYM    DATA     BYTE      PCON
      000000BCH   SFRSYM    DATA     BYTE      ADC_CONTR
      000000D1H   SFRSYM    DATA     BYTE      PSW1
      000000E7H   SFRSYM    DATA     BYTE      CMPCR2
      000000E6H   SFRSYM    DATA     BYTE      CMPCR1
      000000DEH   SFRSYM    DATA     BYTE      ADCCFG
      000000B8H   SFRSYM    DATA     BYTE      IP
      0000008FH   SFRSYM    DATA     BYTE      INTCLKO
      000000EEH   SFRSYM    DATA     BYTE      IP3H
      000000B6H   SFRSYM    DATA     BYTE      IP2H
      000000BFH   SFRSYM    DATA     BYTE      P_SW4
      000000A8H   SFRSYM    DATA     BYTE      IE
      000000BBH   SFRSYM    DATA     BYTE      P_SW3
      000000BAH   SFRSYM    DATA     BYTE      P_SW2
      000000A2H   SFRSYM    DATA     BYTE      P_SW1
      000000CEH   SFRSYM    DATA     BYTE      SPCTL
      000000F8H   SFRSYM    DATA     BYTE      P7
      000000E8H   SFRSYM    DATA     BYTE      P6
      000000C8H   SFRSYM    DATA     BYTE      P5
      000000C0H   SFRSYM    DATA     BYTE      P4
      000000ABH   SFRSYM    DATA     BYTE      WKTCH
      000000B0H   SFRSYM    DATA     BYTE      P3
      000000A0H   SFRSYM    DATA     BYTE      P2
      00000090H   SFRSYM    DATA     BYTE      P1
      00000080H   SFRSYM    DATA     BYTE      P0
      WR14        REGSYM    ---      INT       pin
      WR12        REGSYM    ---      WORD      freq_div
L251 LINKER/LOCATER V4.66.93.0                                                        09/12/2025  17:12:15  PAGE 66


      WR14        REGSYM    ---      INT       pin

      00FF474DH   BLOCK     CODE     ---       LVL=0
      WR14        REGSYM    ---      INT       pin
      0001043BH   SYMBOL    XDATA    DWORD     freq
      0001043FH   SYMBOL    XDATA    DWORD     duty
      00FF475BH   BLOCK     CODE     NEAR LAB  LVL=1
      00010443H   SYMBOL    XDATA    WORD      match_temp
      00010445H   SYMBOL    XDATA    DWORD     period_temp
      WR12        REGSYM    ---      WORD      freq_div
      ---         BLOCKEND  ---      ---       LVL=1
      00FF474DH   LINE      CODE     ---       #164
      00FF475BH   LINE      CODE     ---       #165
      00FF475BH   LINE      CODE     ---       #167
      00FF4763H   LINE      CODE     ---       #168
      00FF476FH   LINE      CODE     ---       #169
      00FF4771H   LINE      CODE     ---       #172
      00FF4795H   LINE      CODE     ---       #174
      00FF47A7H   LINE      CODE     ---       #178
      00FF47C4H   LINE      CODE     ---       #179
      00FF47E5H   LINE      CODE     ---       #180
      00FF4802H   LINE      CODE     ---       #182
      00FF4812H   LINE      CODE     ---       #184
      00FF4847H   LINE      CODE     ---       #185
      00FF4849H   LINE      CODE     ---       #188
      00FF485BH   LINE      CODE     ---       #189
      00FF485BH   LINE      CODE     ---       #191
      00FF4885H   LINE      CODE     ---       #192
      00FF48AFH   LINE      CODE     ---       #194
      00FF48E1H   LINE      CODE     ---       #195
      00FF4913H   LINE      CODE     ---       #197
      00FF495FH   LINE      CODE     ---       #198
      00FF49A9H   LINE      CODE     ---       #200
      00FF49B8H   LINE      CODE     ---       #202
      00FF49F7H   LINE      CODE     ---       #203
      00FF4A2CH   LINE      CODE     ---       #204
      00FF4AA6H   LINE      CODE     ---       #206
      00FF4AB3H   LINE      CODE     ---       #207
      00FF4AC0H   LINE      CODE     ---       #208
      00FF4AC3H   LINE      CODE     ---       #209
      00FF4AD6H   LINE      CODE     ---       #211
      00FF4B15H   LINE      CODE     ---       #212
      00FF4B4AH   LINE      CODE     ---       #213
      00FF4BB2H   LINE      CODE     ---       #215
      00FF4BBFH   LINE      CODE     ---       #216
      00FF4BCCH   LINE      CODE     ---       #217
      00FF4BCCH   LINE      CODE     ---       #219
      00FF4C13H   LINE      CODE     ---       #220
      00FF4C5AH   LINE      CODE     ---       #221
      ---         BLOCKEND  ---      ---       LVL=0

      ---         MODULE    ---      ---       zf_driver_soft_iic
      00FF81CFH   PUBLIC    CODE     ---       soft_iic_wait_ack
      00FF846BH   PUBLIC    CODE     ---       soft_iic_stop
      00FF8A67H   PUBLIC    CODE     ---       soft_iic_delay
      00FF7946H   PUBLIC    CODE     ---       soft_iic_read_data
      00FF7C73H   PUBLIC    CODE     ---       soft_iic_send_data
      00FF85E3H   PUBLIC    CODE     ---       soft_iic_start
      00FF82BEH   PUBLIC    CODE     ---       soft_iic_send_ack
      000000D0H   SFRSYM    DATA     BYTE      PSW
      0000009DH   SFRSYM    DATA     BYTE      IRCBAND
      00000097H   SFRSYM    DATA     BYTE      AUXR2
      000000EFH   SFRSYM    DATA     BYTE      AUXINTIF
      000000FDH   SFRSYM    DATA     BYTE      S4CON
      000000ACH   SFRSYM    DATA     BYTE      S3CON
L251 LINKER/LOCATER V4.66.93.0                                                        09/12/2025  17:12:15  PAGE 67


      0000009AH   SFRSYM    DATA     BYTE      S2CON
      000000B7H   SFRSYM    DATA     BYTE      IPH
      000000CDH   SFRSYM    DATA     BYTE      SPSTAT
      000000DDH   SFRSYM    DATA     BYTE      T4T3M
      000000C1H   SFRSYM    DATA     BYTE      WDT_CONTR
      000000DFH   SFRSYM    DATA     BYTE      IP3
      000000F4H   SFRSYM    DATA     BYTE      USBCON
      000000B5H   SFRSYM    DATA     BYTE      IP2
      000000FFH   SFRSYM    DATA     BYTE      RSTCFG
      000000C7H   SFRSYM    DATA     BYTE      IAP_CONTR
      0000008EH   SFRSYM    DATA     BYTE      AUXR
      000000AFH   SFRSYM    DATA     BYTE      IE2
      00000088H   SFRSYM    DATA     BYTE      TCON
      00000089H   SFRSYM    DATA     BYTE      TMOD
      00000098H   SFRSYM    DATA     BYTE      SCON
      00000087H   SFRSYM    DATA     BYTE      PCON
      000000BCH   SFRSYM    DATA     BYTE      ADC_CONTR
      000000D1H   SFRSYM    DATA     BYTE      PSW1
      000000E7H   SFRSYM    DATA     BYTE      CMPCR2
      000000E6H   SFRSYM    DATA     BYTE      CMPCR1
      000000DEH   SFRSYM    DATA     BYTE      ADCCFG
      000000B8H   SFRSYM    DATA     BYTE      IP
      0000008FH   SFRSYM    DATA     BYTE      INTCLKO
      000000EEH   SFRSYM    DATA     BYTE      IP3H
      000000B6H   SFRSYM    DATA     BYTE      IP2H
      000000BFH   SFRSYM    DATA     BYTE      P_SW4
      000000A8H   SFRSYM    DATA     BYTE      IE
      000000BBH   SFRSYM    DATA     BYTE      P_SW3
      000000BAH   SFRSYM    DATA     BYTE      P_SW2
      000000A2H   SFRSYM    DATA     BYTE      P_SW1
      000000CEH   SFRSYM    DATA     BYTE      SPCTL
      000000F8H   SFRSYM    DATA     BYTE      P7
      000000E8H   SFRSYM    DATA     BYTE      P6
      000000C8H   SFRSYM    DATA     BYTE      P5
      000000C0H   SFRSYM    DATA     BYTE      P4
      000000ABH   SFRSYM    DATA     BYTE      WKTCH
      000000B0H   SFRSYM    DATA     BYTE      P3
      000000A0H   SFRSYM    DATA     BYTE      P2
      00000090H   SFRSYM    DATA     BYTE      P1
      00000080H   SFRSYM    DATA     BYTE      P0

      00FF8A67H   BLOCK     CODE     ---       LVL=0
      00010D68H   SYMBOL    XDATA    DWORD     delay
      00FF8A71H   BLOCK     CODE     NEAR LAB  LVL=1
      00010D6CH   SYMBOL    XDATA    DWORD     count
      ---         BLOCKEND  ---      ---       LVL=1
      00FF8A67H   LINE      CODE     ---       #53
      00FF8A71H   LINE      CODE     ---       #54
      00FF8A71H   LINE      CODE     ---       #55
      00FF8A85H   LINE      CODE     ---       #56
      00FF8A9EH   LINE      CODE     ---       #57
      ---         BLOCKEND  ---      ---       LVL=0

      00FF85E3H   BLOCK     CODE     ---       LVL=0
      REG=3       REGSYM    ---      ---       soft_iic_obj
      00FF85E3H   LINE      CODE     ---       #67
      00FF85E7H   LINE      CODE     ---       #69
      00FF8601H   LINE      CODE     ---       #70
      00FF8609H   LINE      CODE     ---       #71
      00FF8612H   LINE      CODE     ---       #73
      00FF861DH   LINE      CODE     ---       #74
      00FF8625H   LINE      CODE     ---       #75
      00FF8630H   LINE      CODE     ---       #76
      00FF8637H   LINE      CODE     ---       #77
      ---         BLOCKEND  ---      ---       LVL=0
L251 LINKER/LOCATER V4.66.93.0                                                        09/12/2025  17:12:15  PAGE 68



      00FF846BH   BLOCK     CODE     ---       LVL=0
      REG=3       REGSYM    ---      ---       soft_iic_obj
      00FF846BH   LINE      CODE     ---       #86
      00FF846FH   LINE      CODE     ---       #88
      00FF8489H   LINE      CODE     ---       #89
      00FF8491H   LINE      CODE     ---       #90
      00FF8498H   LINE      CODE     ---       #92
      00FF84A3H   LINE      CODE     ---       #93
      00FF84ABH   LINE      CODE     ---       #94
      00FF84B6H   LINE      CODE     ---       #95
      00FF84BFH   LINE      CODE     ---       #96
      00FF84CAH   LINE      CODE     ---       #97
      ---         BLOCKEND  ---      ---       LVL=0

      00FF82BEH   BLOCK     CODE     ---       LVL=0
      REG=3       REGSYM    ---      ---       soft_iic_obj
      00010DA6H   SYMBOL    XDATA    BYTE      ack
      00FF82BEH   LINE      CODE     ---       #107
      00FF82C6H   LINE      CODE     ---       #109
      00FF82E0H   LINE      CODE     ---       #110
      00FF82E7H   LINE      CODE     ---       #112
      00FF82EDH   LINE      CODE     ---       #114
      00FF82F6H   LINE      CODE     ---       #115
      00FF82F8H   LINE      CODE     ---       #118
      00FF8300H   LINE      CODE     ---       #119
      00FF8300H   LINE      CODE     ---       #121
      00FF830BH   LINE      CODE     ---       #122
      00FF8313H   LINE      CODE     ---       #123
      00FF831EH   LINE      CODE     ---       #124
      00FF8325H   LINE      CODE     ---       #125
      00FF832EH   LINE      CODE     ---       #126
      ---         BLOCKEND  ---      ---       LVL=0

      00FF81CFH   BLOCK     CODE     ---       LVL=0
      REG=3       REGSYM    ---      ---       soft_iic_obj
      00FF81D3H   BLOCK     CODE     NEAR LAB  LVL=1
      00010DA7H   SYMBOL    XDATA    BYTE      temp
      ---         BLOCKEND  ---      ---       LVL=1
      00FF81CFH   LINE      CODE     ---       #135
      00FF81D3H   LINE      CODE     ---       #136
      00FF81D3H   LINE      CODE     ---       #137
      00FF81D8H   LINE      CODE     ---       #138
      00FF81F2H   LINE      CODE     ---       #140
      00FF81F9H   LINE      CODE     ---       #141
      00FF8202H   LINE      CODE     ---       #145
      00FF820DH   LINE      CODE     ---       #147
      00FF8215H   LINE      CODE     ---       #148
      00FF8220H   LINE      CODE     ---       #150
      00FF8229H   LINE      CODE     ---       #152
      00FF822FH   LINE      CODE     ---       #153
      00FF822FH   LINE      CODE     ---       #154
      00FF8236H   LINE      CODE     ---       #158
      00FF8241H   LINE      CODE     ---       #160
      00FF8245H   LINE      CODE     ---       #161
      ---         BLOCKEND  ---      ---       LVL=0

      00FF7C73H   BLOCK     CODE     ---       LVL=0
      REG=3       REGSYM    ---      ---       soft_iic_obj
      00010DA3H   SYMBOL    XDATA    BYTE      dat
      00FF7C7BH   BLOCK     CODE     NEAR LAB  LVL=1
      00010DA4H   SYMBOL    XDATA    BYTE      temp
      ---         BLOCKEND  ---      ---       LVL=1
      00FF7C73H   LINE      CODE     ---       #170
      00FF7C7BH   LINE      CODE     ---       #171
L251 LINKER/LOCATER V4.66.93.0                                                        09/12/2025  17:12:15  PAGE 69


      00FF7C7BH   LINE      CODE     ---       #172
      00FF7C81H   LINE      CODE     ---       #174
      00FF7C9BH   LINE      CODE     ---       #176
      00FF7C9DH   LINE      CODE     ---       #179
      00FF7CC2H   LINE      CODE     ---       #180
      00FF7CC9H   LINE      CODE     ---       #182
      00FF7CD4H   LINE      CODE     ---       #183
      00FF7CDCH   LINE      CODE     ---       #184
      00FF7CE7H   LINE      CODE     ---       #185
      00FF7CEEH   LINE      CODE     ---       #186
      00FF7CF4H   LINE      CODE     ---       #187
      00FF7D01H   LINE      CODE     ---       #188
      ---         BLOCKEND  ---      ---       LVL=0

      00FF7946H   BLOCK     CODE     ---       LVL=0
      REG=3       REGSYM    ---      ---       soft_iic_obj
      00010DA0H   SYMBOL    XDATA    BYTE      ack
      00FF794EH   BLOCK     CODE     NEAR LAB  LVL=1
      00010DA1H   SYMBOL    XDATA    BYTE      dat
      00010DA2H   SYMBOL    XDATA    BYTE      temp
      ---         BLOCKEND  ---      ---       LVL=1
      00FF7946H   LINE      CODE     ---       #197
      00FF794EH   LINE      CODE     ---       #198
      00FF794EH   LINE      CODE     ---       #199
      00FF7953H   LINE      CODE     ---       #200
      00FF7959H   LINE      CODE     ---       #201
      00FF7973H   LINE      CODE     ---       #202
      00FF797AH   LINE      CODE     ---       #203
      00FF7985H   LINE      CODE     ---       #204
      00FF798EH   LINE      CODE     ---       #209
      00FF7990H   LINE      CODE     ---       #211
      00FF7997H   LINE      CODE     ---       #212
      00FF79A2H   LINE      CODE     ---       #213
      00FF79AAH   LINE      CODE     ---       #214
      00FF79B5H   LINE      CODE     ---       #215
      00FF79CAH   LINE      CODE     ---       #216
      00FF79D8H   LINE      CODE     ---       #217
      00FF79DFH   LINE      CODE     ---       #221
      00FF79EAH   LINE      CODE     ---       #222
      00FF79F3H   LINE      CODE     ---       #223
      00FF79F7H   LINE      CODE     ---       #224
      ---         BLOCKEND  ---      ---       LVL=0
      REG=3       REGSYM    ---      ---       soft_iic_obj
      REG=3       REGSYM    ---      ---       soft_iic_obj
      REG=3       REGSYM    ---      ---       soft_iic_obj
      REG=3       REGSYM    ---      ---       soft_iic_obj
      REG=3       REGSYM    ---      ---       soft_iic_obj
      REG=3       REGSYM    ---      ---       soft_iic_obj
      REG=3       REGSYM    ---      ---       soft_iic_obj
      REG=3       REGSYM    ---      ---       soft_iic_obj
      REG=3       REGSYM    ---      ---       soft_iic_obj
      REG=3       REGSYM    ---      ---       soft_iic_obj
      REG=3       REGSYM    ---      ---       soft_iic_obj
      REG=3       REGSYM    ---      ---       soft_iic_obj
      REG=3       REGSYM    ---      ---       soft_iic_obj
      REG=3       REGSYM    ---      ---       soft_iic_obj
      REG=3       REGSYM    ---      ---       soft_iic_obj
      REG=3       REGSYM    ---      ---       soft_iic_obj
      REG=3       REGSYM    ---      ---       soft_iic_obj
      REG=3       REGSYM    ---      ---       soft_iic_obj
      REG=3       REGSYM    ---      ---       soft_iic_obj
      REG=3       REGSYM    ---      ---       soft_iic_obj
      REG=3       REGSYM    ---      ---       soft_iic_obj

      ---         MODULE    ---      ---       zf_driver_soft_spi
L251 LINKER/LOCATER V4.66.93.0                                                        09/12/2025  17:12:15  PAGE 70


      000000D0H   SFRSYM    DATA     BYTE      PSW
      0000009DH   SFRSYM    DATA     BYTE      IRCBAND
      00000097H   SFRSYM    DATA     BYTE      AUXR2
      000000EFH   SFRSYM    DATA     BYTE      AUXINTIF
      000000FDH   SFRSYM    DATA     BYTE      S4CON
      000000ACH   SFRSYM    DATA     BYTE      S3CON
      0000009AH   SFRSYM    DATA     BYTE      S2CON
      000000B7H   SFRSYM    DATA     BYTE      IPH
      000000CDH   SFRSYM    DATA     BYTE      SPSTAT
      000000DDH   SFRSYM    DATA     BYTE      T4T3M
      000000C1H   SFRSYM    DATA     BYTE      WDT_CONTR
      000000DFH   SFRSYM    DATA     BYTE      IP3
      000000F4H   SFRSYM    DATA     BYTE      USBCON
      000000B5H   SFRSYM    DATA     BYTE      IP2
      000000FFH   SFRSYM    DATA     BYTE      RSTCFG
      000000C7H   SFRSYM    DATA     BYTE      IAP_CONTR
      0000008EH   SFRSYM    DATA     BYTE      AUXR
      000000AFH   SFRSYM    DATA     BYTE      IE2
      00000088H   SFRSYM    DATA     BYTE      TCON
      00000089H   SFRSYM    DATA     BYTE      TMOD
      00000098H   SFRSYM    DATA     BYTE      SCON
      00000087H   SFRSYM    DATA     BYTE      PCON
      000000BCH   SFRSYM    DATA     BYTE      ADC_CONTR
      000000D1H   SFRSYM    DATA     BYTE      PSW1
      000000E7H   SFRSYM    DATA     BYTE      CMPCR2
      000000E6H   SFRSYM    DATA     BYTE      CMPCR1
      000000DEH   SFRSYM    DATA     BYTE      ADCCFG
      000000B8H   SFRSYM    DATA     BYTE      IP
      0000008FH   SFRSYM    DATA     BYTE      INTCLKO
      000000EEH   SFRSYM    DATA     BYTE      IP3H
      000000B6H   SFRSYM    DATA     BYTE      IP2H
      000000BFH   SFRSYM    DATA     BYTE      P_SW4
      000000A8H   SFRSYM    DATA     BYTE      IE
      000000BBH   SFRSYM    DATA     BYTE      P_SW3
      000000BAH   SFRSYM    DATA     BYTE      P_SW2
      000000A2H   SFRSYM    DATA     BYTE      P_SW1
      000000CEH   SFRSYM    DATA     BYTE      SPCTL
      000000F8H   SFRSYM    DATA     BYTE      P7
      000000E8H   SFRSYM    DATA     BYTE      P6
      000000C8H   SFRSYM    DATA     BYTE      P5
      000000C0H   SFRSYM    DATA     BYTE      P4
      000000ABH   SFRSYM    DATA     BYTE      WKTCH
      000000B0H   SFRSYM    DATA     BYTE      P3
      000000A0H   SFRSYM    DATA     BYTE      P2
      00000090H   SFRSYM    DATA     BYTE      P1
      00000080H   SFRSYM    DATA     BYTE      P0
      DR0         REGSYM    ---      DWORD     x
      REG=3       REGSYM    ---      ---       soft_spi_obj
      R10         REGSYM    ---      BYTE      dat
      REG=3       REGSYM    ---      ---       soft_spi_obj
      WR6         REGSYM    ---      WORD      dat
      REG=3       REGSYM    ---      ---       soft_spi_obj
      REG=3       REGSYM    ---      ---       soft_spi_obj
      REG=3       REGSYM    ---      ---       soft_spi_obj
      REG=3       REGSYM    ---      ---       soft_spi_obj
      REG=3       REGSYM    ---      ---       soft_spi_obj
      REG=3       REGSYM    ---      ---       soft_spi_obj
      REG=3       REGSYM    ---      ---       soft_spi_obj
      REG=3       REGSYM    ---      ---       soft_spi_obj
      REG=3       REGSYM    ---      ---       soft_spi_obj
      REG=3       REGSYM    ---      ---       soft_spi_obj
      REG=3       REGSYM    ---      ---       soft_spi_obj
      REG=3       REGSYM    ---      ---       soft_spi_obj
      REG=3       REGSYM    ---      ---       soft_spi_obj
      REG=3       REGSYM    ---      ---       soft_spi_obj
L251 LINKER/LOCATER V4.66.93.0                                                        09/12/2025  17:12:15  PAGE 71


      REG=3       REGSYM    ---      ---       soft_spi_obj
      REG=3       REGSYM    ---      ---       soft_spi_obj
      REG=3       REGSYM    ---      ---       soft_spi_obj
      REG=3       REGSYM    ---      ---       soft_spi_obj
      REG=3       REGSYM    ---      ---       soft_spi_obj

      ---         MODULE    ---      ---       zf_driver_spi
      00FF01BEH   PUBLIC    CODE     ---       spi_write_8bit
      00FF4C5DH   PUBLIC    CODE     ---       spi_init
      00FF8C14H   PUBLIC    CODE     ---       spi_write_16bit
      00FF883CH   PUBLIC    CODE     ---       spi_write_dat
      00010437H   PUBLIC    XDATA    BYTE      ?spi_init?BYTE
      000000CFH   SFRSYM    DATA     BYTE      SPDAT
      000000D0H   SFRSYM    DATA     BYTE      PSW
      0000009DH   SFRSYM    DATA     BYTE      IRCBAND
      00000097H   SFRSYM    DATA     BYTE      AUXR2
      000000EFH   SFRSYM    DATA     BYTE      AUXINTIF
      000000FDH   SFRSYM    DATA     BYTE      S4CON
      000000ACH   SFRSYM    DATA     BYTE      S3CON
      0000009AH   SFRSYM    DATA     BYTE      S2CON
      0000009BH   SFRSYM    DATA     BYTE      S2BUF
      000000B7H   SFRSYM    DATA     BYTE      IPH
      000000CDH   SFRSYM    DATA     BYTE      SPSTAT
      000000DDH   SFRSYM    DATA     BYTE      T4T3M
      000000C1H   SFRSYM    DATA     BYTE      WDT_CONTR
      000000DFH   SFRSYM    DATA     BYTE      IP3
      000000F4H   SFRSYM    DATA     BYTE      USBCON
      000000B5H   SFRSYM    DATA     BYTE      IP2
      000000FFH   SFRSYM    DATA     BYTE      RSTCFG
      000000C7H   SFRSYM    DATA     BYTE      IAP_CONTR
      0000008EH   SFRSYM    DATA     BYTE      AUXR
      000000AFH   SFRSYM    DATA     BYTE      IE2
      00000088H   SFRSYM    DATA     BYTE      TCON
      00000089H   SFRSYM    DATA     BYTE      TMOD
      00000098H   SFRSYM    DATA     BYTE      SCON
      00000087H   SFRSYM    DATA     BYTE      PCON
      00000099H   SFRSYM    DATA     BYTE      SBUF
      000000BCH   SFRSYM    DATA     BYTE      ADC_CONTR
      000000D1H   SFRSYM    DATA     BYTE      PSW1
      000000E7H   SFRSYM    DATA     BYTE      CMPCR2
      000000E6H   SFRSYM    DATA     BYTE      CMPCR1
      0000009AH.1 SFRSYM    DATA     BIT       S2TI
      00000098H.1 SFRSYM    DATA     BIT       TI
      000000DEH   SFRSYM    DATA     BYTE      ADCCFG
      000000B8H   SFRSYM    DATA     BYTE      IP
      0000008FH   SFRSYM    DATA     BYTE      INTCLKO
      000000EEH   SFRSYM    DATA     BYTE      IP3H
      000000B6H   SFRSYM    DATA     BYTE      IP2H
      000000BFH   SFRSYM    DATA     BYTE      P_SW4
      000000A8H   SFRSYM    DATA     BYTE      IE
      000000BBH   SFRSYM    DATA     BYTE      P_SW3
      000000BAH   SFRSYM    DATA     BYTE      P_SW2
      000000A2H   SFRSYM    DATA     BYTE      P_SW1
      000000CEH   SFRSYM    DATA     BYTE      SPCTL
      000000F8H   SFRSYM    DATA     BYTE      P7
      000000E8H   SFRSYM    DATA     BYTE      P6
      000000C8H   SFRSYM    DATA     BYTE      P5
      000000C0H   SFRSYM    DATA     BYTE      P4
      000000ABH   SFRSYM    DATA     BYTE      WKTCH
      000000B0H   SFRSYM    DATA     BYTE      P3
      000000A0H   SFRSYM    DATA     BYTE      P2
      00000090H   SFRSYM    DATA     BYTE      P1
      00000080H   SFRSYM    DATA     BYTE      P0

      00FF883CH   BLOCK     CODE     ---       LVL=0
L251 LINKER/LOCATER V4.66.93.0                                                        09/12/2025  17:12:15  PAGE 72


      WR6         REGSYM    ---      INT       spi_n
      R10         REGSYM    ---      BYTE      dat
      00FF883CH   LINE      CODE     ---       #81
      00FF883EH   LINE      CODE     ---       #83
      00FF884AH   LINE      CODE     ---       #85
      00FF884AH   LINE      CODE     ---       #86
      00FF884DH   LINE      CODE     ---       #87
      00FF8850H   LINE      CODE     ---       #88
      00FF8855H   LINE      CODE     ---       #89
      00FF8857H   LINE      CODE     ---       #90
      00FF8857H   LINE      CODE     ---       #91
      00FF8859H   LINE      CODE     ---       #92
      00FF885CH   LINE      CODE     ---       #93
      00FF885FH   LINE      CODE     ---       #94
      00FF8861H   LINE      CODE     ---       #95
      00FF8861H   LINE      CODE     ---       #96
      00FF8864H   LINE      CODE     ---       #97
      00FF8867H   LINE      CODE     ---       #98
      00FF886BH   LINE      CODE     ---       #99
      00FF886DH   LINE      CODE     ---       #100
      00FF886DH   LINE      CODE     ---       #101
      00FF887DH   LINE      CODE     ---       #102
      00FF887DH   LINE      CODE     ---       #103
      00FF887DH   LINE      CODE     ---       #104
      ---         BLOCKEND  ---      ---       LVL=0
      WR8         REGSYM    ---      INT       spi_n
      R10         REGSYM    ---      BYTE      dat
      R15         REGSYM    ---      BYTE      ret

      00FF01BEH   BLOCK     CODE     ---       LVL=0
      WR6         REGSYM    ---      INT       spi_n
      R5          REGSYM    ---      BYTE      dat
      00FF01BEH   LINE      CODE     ---       #147
      00FF01C0H   LINE      CODE     ---       #149
      00FF01C3H   LINE      CODE     ---       #150
      ---         BLOCKEND  ---      ---       LVL=0
      REG=3       REGSYM    ---      ---       dat

      00FF8C14H   BLOCK     CODE     ---       LVL=0
      WR12        REGSYM    ---      INT       spi_n
      WR14        REGSYM    ---      WORD      dat
      00FF8C14H   LINE      CODE     ---       #175
      00FF8C1AH   LINE      CODE     ---       #177
      00FF8C26H   LINE      CODE     ---       #178
      00FF8C30H   LINE      CODE     ---       #179
      ---         BLOCKEND  ---      ---       LVL=0
      REG=3       REGSYM    ---      ---       dat
      WR14        REGSYM    ---      INT       spi_n
      R5          REGSYM    ---      BYTE      register_name
      R13         REGSYM    ---      BYTE      dat
      R5          REGSYM    ---      BYTE      register_name
      REG=3       REGSYM    ---      ---       dat
      WR14        REGSYM    ---      INT       spi_n
      WR12        REGSYM    ---      WORD      dat
      WR14        REGSYM    ---      INT       spi_n
      WR12        REGSYM    ---      WORD      register_name
      WR6         REGSYM    ---      INT       spi_n
      REG=3       REGSYM    ---      ---       dat
      WR14        REGSYM    ---      INT       spi_n
      WR12        REGSYM    ---      WORD      dat
      REG=3       REGSYM    ---      ---       dat
      WR14        REGSYM    ---      INT       spi_n
      R5          REGSYM    ---      BYTE      register_name
      R5          REGSYM    ---      BYTE      register_name
      REG=3       REGSYM    ---      ---       dat
L251 LINKER/LOCATER V4.66.93.0                                                        09/12/2025  17:12:15  PAGE 73


      WR14        REGSYM    ---      INT       spi_n
      WR12        REGSYM    ---      WORD      register_name
      REG=3       REGSYM    ---      ---       dat
      REG=3       REGSYM    ---      ---       write_buffer
      REG=3       REGSYM    ---      ---       write_buffer

      00FF4C5DH   BLOCK     CODE     ---       LVL=0
      0001043BH   SYMBOL    XDATA    INT       spi_n
      0001043DH   SYMBOL    XDATA    INT       mode
      DR12        REGSYM    ---      DWORD     baud
      0001043FH   SYMBOL    XDATA    INT       sck_pin
      00010441H   SYMBOL    XDATA    INT       mosi_pin
      00010443H   SYMBOL    XDATA    INT       miso_pin
      00010445H   SYMBOL    XDATA    INT       cs_pin
      00FF4C6DH   BLOCK     CODE     NEAR LAB  LVL=1
      00010447H   SYMBOL    XDATA    DWORD     spi_psc
      ---         BLOCKEND  ---      ---       LVL=1
      00FF4C5DH   LINE      CODE     ---       #465
      00FF4C6DH   LINE      CODE     ---       #466
      00FF4C6DH   LINE      CODE     ---       #467
      00FF4C79H   LINE      CODE     ---       #469
      00FF4C8FH   LINE      CODE     ---       #471
      00FF4C9FH   LINE      CODE     ---       #473
      00FF4C9FH   LINE      CODE     ---       #475
      00FF4CB5H   LINE      CODE     ---       #476
      00FF4CCBH   LINE      CODE     ---       #478
      00FF4CD7H   LINE      CODE     ---       #480
      00FF4CEDH   LINE      CODE     ---       #481
      00FF4CEDH   LINE      CODE     ---       #483
      00FF4CF9H   LINE      CODE     ---       #485
      00FF4D0EH   LINE      CODE     ---       #486
      00FF4D0EH   LINE      CODE     ---       #489
      00FF4D14H   LINE      CODE     ---       #491
      00FF4D22H   LINE      CODE     ---       #492
      00FF4D30H   LINE      CODE     ---       #493
      00FF4D3CH   LINE      CODE     ---       #495
      00FF4D4AH   LINE      CODE     ---       #496
      00FF4D4AH   LINE      CODE     ---       #497
      00FF4D56H   LINE      CODE     ---       #499
      00FF4D64H   LINE      CODE     ---       #500
      00FF4D64H   LINE      CODE     ---       #503
      00FF4D71H   LINE      CODE     ---       #505
      00FF4D74H   LINE      CODE     ---       #507
      00FF4D92H   LINE      CODE     ---       #509
      00FF4D92H   LINE      CODE     ---       #510
      00FF4D96H   LINE      CODE     ---       #511
      00FF4D98H   LINE      CODE     ---       #513
      00FF4D98H   LINE      CODE     ---       #514
      00FF4D9BH   LINE      CODE     ---       #515
      00FF4D9DH   LINE      CODE     ---       #517
      00FF4D9DH   LINE      CODE     ---       #518
      00FF4DA0H   LINE      CODE     ---       #519
      00FF4DA2H   LINE      CODE     ---       #521
      00FF4DA2H   LINE      CODE     ---       #522
      00FF4DA5H   LINE      CODE     ---       #523
      00FF4DA5H   LINE      CODE     ---       #524
      00FF4DA5H   LINE      CODE     ---       #526
      00FF4DA8H   LINE      CODE     ---       #527
      00FF4DABH   LINE      CODE     ---       #528
      00FF4DAEH   LINE      CODE     ---       #531
      00FF4DC7H   LINE      CODE     ---       #533
      00FF4DCAH   LINE      CODE     ---       #535
      00FF4DDAH   LINE      CODE     ---       #537
      00FF4DDDH   LINE      CODE     ---       #538
      00FF4DDFH   LINE      CODE     ---       #539
L251 LINKER/LOCATER V4.66.93.0                                                        09/12/2025  17:12:15  PAGE 74


      00FF4DEFH   LINE      CODE     ---       #541
      00FF4DF2H   LINE      CODE     ---       #542
      00FF4DF4H   LINE      CODE     ---       #543
      00FF4E04H   LINE      CODE     ---       #545
      00FF4E08H   LINE      CODE     ---       #546
      00FF4E0AH   LINE      CODE     ---       #549
      00FF4E0DH   LINE      CODE     ---       #550
      00FF4E0DH   LINE      CODE     ---       #553
      00FF4E1FH   LINE      CODE     ---       #555
      00FF4E1FH   LINE      CODE     ---       #556
      00FF4E1FH   LINE      CODE     ---       #558
      00FF4E1FH   LINE      CODE     ---       #559
      00FF4E22H   LINE      CODE     ---       #560
      00FF4E24H   LINE      CODE     ---       #562
      00FF4E24H   LINE      CODE     ---       #563
      00FF4E27H   LINE      CODE     ---       #564
      00FF4E29H   LINE      CODE     ---       #566
      00FF4E29H   LINE      CODE     ---       #567
      00FF4E2CH   LINE      CODE     ---       #568
      00FF4E2CH   LINE      CODE     ---       #569
      00FF4E2CH   LINE      CODE     ---       #571
      00FF4E2FH   LINE      CODE     ---       #572
      00FF4E32H   LINE      CODE     ---       #573
      00FF4E41H   LINE      CODE     ---       #582
      00FF4E59H   LINE      CODE     ---       #585
      00FF4E5CH   LINE      CODE     ---       #587
      00FF4E7AH   LINE      CODE     ---       #589
      00FF4E7AH   LINE      CODE     ---       #590
      00FF4E7EH   LINE      CODE     ---       #591
      00FF4E80H   LINE      CODE     ---       #593
      00FF4E80H   LINE      CODE     ---       #594
      00FF4E83H   LINE      CODE     ---       #595
      00FF4E85H   LINE      CODE     ---       #597
      00FF4E85H   LINE      CODE     ---       #598
      00FF4E88H   LINE      CODE     ---       #599
      00FF4E8AH   LINE      CODE     ---       #601
      00FF4E8AH   LINE      CODE     ---       #602
      00FF4E8DH   LINE      CODE     ---       #603
      00FF4E8DH   LINE      CODE     ---       #604
      00FF4E8DH   LINE      CODE     ---       #606
      00FF4E90H   LINE      CODE     ---       #607
      00FF4E9DH   LINE      CODE     ---       #611
      00FF4EB6H   LINE      CODE     ---       #615
      00FF4EC6H   LINE      CODE     ---       #617
      00FF4ED6H   LINE      CODE     ---       #618
      00FF4ED8H   LINE      CODE     ---       #619
      00FF4EE8H   LINE      CODE     ---       #621
      00FF4EF8H   LINE      CODE     ---       #622
      00FF4EFAH   LINE      CODE     ---       #623
      00FF4F0AH   LINE      CODE     ---       #625
      00FF4F18H   LINE      CODE     ---       #626
      00FF4F1AH   LINE      CODE     ---       #629
      00FF4F2AH   LINE      CODE     ---       #630
      00FF4F2AH   LINE      CODE     ---       #634
      00FF4F42H   LINE      CODE     ---       #636
      00FF4F42H   LINE      CODE     ---       #637
      00FF4F50H   LINE      CODE     ---       #638
      00FF4F52H   LINE      CODE     ---       #640
      00FF4F52H   LINE      CODE     ---       #641
      00FF4F62H   LINE      CODE     ---       #642
      00FF4F64H   LINE      CODE     ---       #644
      00FF4F64H   LINE      CODE     ---       #645
      00FF4F74H   LINE      CODE     ---       #646
      00FF4F76H   LINE      CODE     ---       #648
      00FF4F76H   LINE      CODE     ---       #649
L251 LINKER/LOCATER V4.66.93.0                                                        09/12/2025  17:12:15  PAGE 75


      00FF4F86H   LINE      CODE     ---       #650
      00FF4F86H   LINE      CODE     ---       #651
      00FF4F86H   LINE      CODE     ---       #653
      00FF4F96H   LINE      CODE     ---       #654
      00FF4F99H   LINE      CODE     ---       #655
      00FF4FA8H   LINE      CODE     ---       #664
      00FF4FC2H   LINE      CODE     ---       #666
      00FF4FC5H   LINE      CODE     ---       #668
      00FF4FE3H   LINE      CODE     ---       #670
      00FF4FE3H   LINE      CODE     ---       #671
      00FF4FE7H   LINE      CODE     ---       #672
      00FF4FE9H   LINE      CODE     ---       #674
      00FF4FE9H   LINE      CODE     ---       #675
      00FF4FECH   LINE      CODE     ---       #676
      00FF4FEEH   LINE      CODE     ---       #678
      00FF4FEEH   LINE      CODE     ---       #679
      00FF4FF1H   LINE      CODE     ---       #680
      00FF4FF3H   LINE      CODE     ---       #682
      00FF4FF3H   LINE      CODE     ---       #683
      00FF4FF6H   LINE      CODE     ---       #684
      00FF4FF6H   LINE      CODE     ---       #685
      00FF4FF6H   LINE      CODE     ---       #687
      00FF4FF9H   LINE      CODE     ---       #688
      00FF5006H   LINE      CODE     ---       #692
      00FF501FH   LINE      CODE     ---       #694
      00FF502FH   LINE      CODE     ---       #696
      00FF503FH   LINE      CODE     ---       #697
      00FF5041H   LINE      CODE     ---       #698
      00FF5051H   LINE      CODE     ---       #700
      00FF5061H   LINE      CODE     ---       #701
      00FF5063H   LINE      CODE     ---       #702
      00FF5073H   LINE      CODE     ---       #704
      00FF5081H   LINE      CODE     ---       #705
      00FF5083H   LINE      CODE     ---       #708
      00FF5093H   LINE      CODE     ---       #709
      00FF5093H   LINE      CODE     ---       #713
      00FF50ABH   LINE      CODE     ---       #715
      00FF50ABH   LINE      CODE     ---       #716
      00FF50B9H   LINE      CODE     ---       #717
      00FF50BBH   LINE      CODE     ---       #719
      00FF50BBH   LINE      CODE     ---       #720
      00FF50CBH   LINE      CODE     ---       #721
      00FF50CDH   LINE      CODE     ---       #723
      00FF50CDH   LINE      CODE     ---       #724
      00FF50DDH   LINE      CODE     ---       #725
      00FF50DFH   LINE      CODE     ---       #727
      00FF50DFH   LINE      CODE     ---       #728
      00FF50EFH   LINE      CODE     ---       #729
      00FF50EFH   LINE      CODE     ---       #730
      00FF50EFH   LINE      CODE     ---       #732
      00FF50FFH   LINE      CODE     ---       #733
      ---         BLOCKEND  ---      ---       LVL=0

      ---         MODULE    ---      ---       zf_driver_timer
      00FF863AH   PUBLIC    CODE     ---       timer_funciton_check
      000000D0H   SFRSYM    DATA     BYTE      PSW
      0000009DH   SFRSYM    DATA     BYTE      IRCBAND
      00000097H   SFRSYM    DATA     BYTE      AUXR2
      000000EFH   SFRSYM    DATA     BYTE      AUXINTIF
      000000FDH   SFRSYM    DATA     BYTE      S4CON
      000000ACH   SFRSYM    DATA     BYTE      S3CON
      0000009AH   SFRSYM    DATA     BYTE      S2CON
      000000B7H   SFRSYM    DATA     BYTE      IPH
      000000CDH   SFRSYM    DATA     BYTE      SPSTAT
      000000DDH   SFRSYM    DATA     BYTE      T4T3M
L251 LINKER/LOCATER V4.66.93.0                                                        09/12/2025  17:12:15  PAGE 76


      000000C1H   SFRSYM    DATA     BYTE      WDT_CONTR
      000000DFH   SFRSYM    DATA     BYTE      IP3
      000000F4H   SFRSYM    DATA     BYTE      USBCON
      000000B5H   SFRSYM    DATA     BYTE      IP2
      000000FFH   SFRSYM    DATA     BYTE      RSTCFG
      000000C7H   SFRSYM    DATA     BYTE      IAP_CONTR
      0000008EH   SFRSYM    DATA     BYTE      AUXR
      000000AFH   SFRSYM    DATA     BYTE      IE2
      00000088H   SFRSYM    DATA     BYTE      TCON
      00000089H   SFRSYM    DATA     BYTE      TMOD
      00000098H   SFRSYM    DATA     BYTE      SCON
      00000087H   SFRSYM    DATA     BYTE      PCON
      000000BCH   SFRSYM    DATA     BYTE      ADC_CONTR
      000000D1H   SFRSYM    DATA     BYTE      PSW1
      000000E7H   SFRSYM    DATA     BYTE      CMPCR2
      000000E6H   SFRSYM    DATA     BYTE      CMPCR1
      000000DEH   SFRSYM    DATA     BYTE      ADCCFG
      000000B8H   SFRSYM    DATA     BYTE      IP
      0000008FH   SFRSYM    DATA     BYTE      INTCLKO
      000000EEH   SFRSYM    DATA     BYTE      IP3H
      000000B6H   SFRSYM    DATA     BYTE      IP2H
      000000BFH   SFRSYM    DATA     BYTE      P_SW4
      000000A8H   SFRSYM    DATA     BYTE      IE
      000000BBH   SFRSYM    DATA     BYTE      P_SW3
      000000BAH   SFRSYM    DATA     BYTE      P_SW2
      000000A2H   SFRSYM    DATA     BYTE      P_SW1
      000000CEH   SFRSYM    DATA     BYTE      SPCTL
      000000F8H   SFRSYM    DATA     BYTE      P7
      000000E8H   SFRSYM    DATA     BYTE      P6
      000000C8H   SFRSYM    DATA     BYTE      P5
      000000C0H   SFRSYM    DATA     BYTE      P4
      000000ABH   SFRSYM    DATA     BYTE      WKTCH
      000000B0H   SFRSYM    DATA     BYTE      P3
      000000A0H   SFRSYM    DATA     BYTE      P2
      00000090H   SFRSYM    DATA     BYTE      P1
      00000080H   SFRSYM    DATA     BYTE      P0
      00010D24H   SYMBOL    XDATA    ---       timer_function_state

      00FF863AH   BLOCK     CODE     ---       LVL=0
      WR2         REGSYM    ---      INT       index
      WR0         REGSYM    ---      INT       mode
      00FF863EH   BLOCK     CODE     NEAR LAB  LVL=1
      R10         REGSYM    ---      BYTE      return_state
      ---         BLOCKEND  ---      ---       LVL=1
      00FF863AH   LINE      CODE     ---       #58
      00FF863EH   LINE      CODE     ---       #59
      00FF863EH   LINE      CODE     ---       #60
      00FF8641H   LINE      CODE     ---       #61
      00FF8656H   LINE      CODE     ---       #63
      00FF8667H   LINE      CODE     ---       #64
      00FF8669H   LINE      CODE     ---       #65
      00FF867CH   LINE      CODE     ---       #67
      00FF867FH   LINE      CODE     ---       #68
      00FF8681H   LINE      CODE     ---       #71
      00FF8683H   LINE      CODE     ---       #72
      00FF8683H   LINE      CODE     ---       #73
      00FF8685H   LINE      CODE     ---       #74
      ---         BLOCKEND  ---      ---       LVL=0

      ---         MODULE    ---      ---       zf_driver_uart
      00FF7D04H   PUBLIC    CODE     ---       uart_rx_start_buff
      00FF72CDH   PUBLIC    CODE     ---       uart_write_buffer
      00FF5E61H   PUBLIC    CODE     ---       uart_init
      00FF87F7H   PUBLIC    CODE     ---       uart_rx_interrupt
      00FF8C63H   PUBLIC    CODE     ---       uart_write_byte
L251 LINKER/LOCATER V4.66.93.0                                                        09/12/2025  17:12:15  PAGE 77


      00FF6970H   PUBLIC    CODE     ---       uart_dma_init
      00FF8686H   PUBLIC    CODE     ---       uart_funciton_check
      00FF84CDH   PUBLIC    CODE     ---       uart_query_byte
      00010D38H   PUBLIC    XDATA    ---       uart_rx_buff
      00010437H   PUBLIC    XDATA    BYTE      ?uart_init?BYTE
      000000D0H   SFRSYM    DATA     BYTE      PSW
      0000009DH   SFRSYM    DATA     BYTE      IRCBAND
      00000097H   SFRSYM    DATA     BYTE      AUXR2
      000000EFH   SFRSYM    DATA     BYTE      AUXINTIF
      000000FDH   SFRSYM    DATA     BYTE      S4CON
      000000ACH   SFRSYM    DATA     BYTE      S3CON
      0000009AH   SFRSYM    DATA     BYTE      S2CON
      000000B7H   SFRSYM    DATA     BYTE      IPH
      000000CDH   SFRSYM    DATA     BYTE      SPSTAT
      000000DDH   SFRSYM    DATA     BYTE      T4T3M
      000000C1H   SFRSYM    DATA     BYTE      WDT_CONTR
      00000088H.6 SFRSYM    DATA     BIT       TR1
      000000D7H   SFRSYM    DATA     BYTE      T2L
      000000D6H   SFRSYM    DATA     BYTE      T2H
      000000DFH   SFRSYM    DATA     BYTE      IP3
      000000F4H   SFRSYM    DATA     BYTE      USBCON
      000000B5H   SFRSYM    DATA     BYTE      IP2
      000000FFH   SFRSYM    DATA     BYTE      RSTCFG
      000000C7H   SFRSYM    DATA     BYTE      IAP_CONTR
      0000008EH   SFRSYM    DATA     BYTE      AUXR
      000000AFH   SFRSYM    DATA     BYTE      IE2
      00000088H   SFRSYM    DATA     BYTE      TCON
      00000089H   SFRSYM    DATA     BYTE      TMOD
      00000098H   SFRSYM    DATA     BYTE      SCON
      00000087H   SFRSYM    DATA     BYTE      PCON
      000000BCH   SFRSYM    DATA     BYTE      ADC_CONTR
      000000D1H   SFRSYM    DATA     BYTE      PSW1
      000000E7H   SFRSYM    DATA     BYTE      CMPCR2
      000000E6H   SFRSYM    DATA     BYTE      CMPCR1
      000000DEH   SFRSYM    DATA     BYTE      ADCCFG
      000000B8H   SFRSYM    DATA     BYTE      IP
      0000008FH   SFRSYM    DATA     BYTE      INTCLKO
      000000EEH   SFRSYM    DATA     BYTE      IP3H
      000000B6H   SFRSYM    DATA     BYTE      IP2H
      000000BFH   SFRSYM    DATA     BYTE      P_SW4
      000000A8H   SFRSYM    DATA     BYTE      IE
      000000BBH   SFRSYM    DATA     BYTE      P_SW3
      000000BAH   SFRSYM    DATA     BYTE      P_SW2
      000000A2H   SFRSYM    DATA     BYTE      P_SW1
      000000CEH   SFRSYM    DATA     BYTE      SPCTL
      000000F8H   SFRSYM    DATA     BYTE      P7
      000000E8H   SFRSYM    DATA     BYTE      P6
      000000C8H   SFRSYM    DATA     BYTE      P5
      000000C0H   SFRSYM    DATA     BYTE      P4
      000000ABH   SFRSYM    DATA     BYTE      WKTCH
      000000B0H   SFRSYM    DATA     BYTE      P3
      000000A0H   SFRSYM    DATA     BYTE      P2
      00000090H   SFRSYM    DATA     BYTE      P1
      00000080H   SFRSYM    DATA     BYTE      P0
      00010D30H   SYMBOL    XDATA    ---       uart_function_state

      00FF8686H   BLOCK     CODE     ---       LVL=0
      WR2         REGSYM    ---      INT       index
      WR0         REGSYM    ---      INT       mode
      00FF868AH   BLOCK     CODE     NEAR LAB  LVL=1
      R10         REGSYM    ---      BYTE      return_state
      ---         BLOCKEND  ---      ---       LVL=1
      00FF8686H   LINE      CODE     ---       #83
      00FF868AH   LINE      CODE     ---       #84
      00FF868AH   LINE      CODE     ---       #85
L251 LINKER/LOCATER V4.66.93.0                                                        09/12/2025  17:12:15  PAGE 78


      00FF868DH   LINE      CODE     ---       #86
      00FF86A2H   LINE      CODE     ---       #88
      00FF86B3H   LINE      CODE     ---       #89
      00FF86B5H   LINE      CODE     ---       #90
      00FF86C8H   LINE      CODE     ---       #92
      00FF86CBH   LINE      CODE     ---       #93
      00FF86CDH   LINE      CODE     ---       #96
      00FF86CFH   LINE      CODE     ---       #97
      00FF86CFH   LINE      CODE     ---       #98
      00FF86D1H   LINE      CODE     ---       #99
      ---         BLOCKEND  ---      ---       LVL=0

      00FF72CDH   BLOCK     CODE     ---       LVL=0
      WR0         REGSYM    ---      INT       uart_n
      REG=7       REGSYM    ---      ---       buff
      WR8         REGSYM    ---      WORD      len
      00FF72CDH   LINE      CODE     ---       #108
      00FF72D3H   LINE      CODE     ---       #112
      00FF72EDH   LINE      CODE     ---       #113
      00FF72EFH   LINE      CODE     ---       #114
      00FF7309H   LINE      CODE     ---       #115
      00FF7322H   LINE      CODE     ---       #116
      00FF7342H   LINE      CODE     ---       #117
      00FF735EH   LINE      CODE     ---       #118
      00FF7379H   LINE      CODE     ---       #120
      00FF7394H   LINE      CODE     ---       #122
      00FF73AEH   LINE      CODE     ---       #124
      ---         BLOCKEND  ---      ---       LVL=0
      REG=3       REGSYM    ---      ---       str

      00FF8C63H   BLOCK     CODE     ---       LVL=0
      WR6         REGSYM    ---      INT       uart_n
      000104B2H   SYMBOL    XDATA    BYTE      dat
      00FF8C63H   LINE      CODE     ---       #154
      00FF8C67H   LINE      CODE     ---       #156
      00FF8C76H   LINE      CODE     ---       #157
      ---         BLOCKEND  ---      ---       LVL=0

      00FF7D04H   BLOCK     CODE     ---       LVL=0
      WR8         REGSYM    ---      INT       uart_n
      00FF7D04H   LINE      CODE     ---       #165
      00FF7D06H   LINE      CODE     ---       #167
      00FF7D20H   LINE      CODE     ---       #168
      00FF7D36H   LINE      CODE     ---       #169
      00FF7D56H   LINE      CODE     ---       #170
      00FF7D78H   LINE      CODE     ---       #171
      00FF7D93H   LINE      CODE     ---       #172
      ---         BLOCKEND  ---      ---       LVL=0

      00FF87F7H   BLOCK     CODE     ---       LVL=0
      WR2         REGSYM    ---      INT       uart_n
      R5          REGSYM    ---      BYTE      status
      00FF87F7H   LINE      CODE     ---       #183
      00FF87FBH   LINE      CODE     ---       #185
      00FF87FFH   LINE      CODE     ---       #187
      00FF881CH   LINE      CODE     ---       #188
      00FF881EH   LINE      CODE     ---       #191
      00FF883BH   LINE      CODE     ---       #192
      00FF883BH   LINE      CODE     ---       #193
      ---         BLOCKEND  ---      ---       LVL=0
      WR8         REGSYM    ---      INT       uart_n
      R15         REGSYM    ---      BYTE      dat

      00FF84CDH   BLOCK     CODE     ---       LVL=0
      WR2         REGSYM    ---      INT       uart_n
L251 LINKER/LOCATER V4.66.93.0                                                        09/12/2025  17:12:15  PAGE 79


      REG=7       REGSYM    ---      ---       dat
      00FF84D3H   BLOCK     CODE     NEAR LAB  LVL=1
      R15         REGSYM    ---      BYTE      ret
      ---         BLOCKEND  ---      ---       LVL=1
      00FF84CDH   LINE      CODE     ---       #227
      00FF84D3H   LINE      CODE     ---       #228
      00FF84D3H   LINE      CODE     ---       #229
      00FF84D5H   LINE      CODE     ---       #232
      00FF84E5H   LINE      CODE     ---       #234
      00FF8501H   LINE      CODE     ---       #236
      00FF8504H   LINE      CODE     ---       #238
      00FF8521H   LINE      CODE     ---       #239
      00FF8523H   LINE      CODE     ---       #242
      00FF8525H   LINE      CODE     ---       #243
      00FF8525H   LINE      CODE     ---       #246
      00FF852AH   LINE      CODE     ---       #248
      00FF852CH   LINE      CODE     ---       #249
      ---         BLOCKEND  ---      ---       LVL=0

      00FF6970H   BLOCK     CODE     ---       LVL=0
      WR8         REGSYM    ---      INT       uart_n
      00FF6970H   LINE      CODE     ---       #257
      00FF6972H   LINE      CODE     ---       #259
      00FF698CH   LINE      CODE     ---       #260
      00FF69A6H   LINE      CODE     ---       #261
      00FF69C0H   LINE      CODE     ---       #263
      00FF69DAH   LINE      CODE     ---       #264
      00FF69F4H   LINE      CODE     ---       #265
      00FF6A0EH   LINE      CODE     ---       #267
      00FF6A28H   LINE      CODE     ---       #268
      00FF6A3EH   LINE      CODE     ---       #269
      00FF6A5EH   LINE      CODE     ---       #270
      00FF6A80H   LINE      CODE     ---       #271
      00FF6A9BH   LINE      CODE     ---       #272
      00FF6AB6H   LINE      CODE     ---       #274
      ---         BLOCKEND  ---      ---       LVL=0

      00FF5E61H   BLOCK     CODE     ---       LVL=0
      WR12        REGSYM    ---      INT       uart_n
      0001043BH   SYMBOL    XDATA    DWORD     baud
      WR14        REGSYM    ---      INT       tx_pin
      0001043FH   SYMBOL    XDATA    INT       rx_pin
      00FF5E71H   BLOCK     CODE     NEAR LAB  LVL=1
      WR6         REGSYM    ---      WORD      brt
      ---         BLOCKEND  ---      ---       LVL=1
      00FF5E61H   LINE      CODE     ---       #286
      00FF5E71H   LINE      CODE     ---       #287
      00FF5E71H   LINE      CODE     ---       #296
      00FF5E87H   LINE      CODE     ---       #303
      00FF5EA1H   LINE      CODE     ---       #308
      00FF5ECFH   LINE      CODE     ---       #311
      00FF5EE1H   LINE      CODE     ---       #312
      00FF5EF5H   LINE      CODE     ---       #314
      00FF5F26H   LINE      CODE     ---       #316
      00FF5F46H   LINE      CODE     ---       #318
      00FF5F46H   LINE      CODE     ---       #332
      00FF5F49H   LINE      CODE     ---       #333
      00FF5F4DH   LINE      CODE     ---       #334
      00FF5F53H   LINE      CODE     ---       #335
      00FF5F56H   LINE      CODE     ---       #336
      00FF5F58H   LINE      CODE     ---       #339
      00FF5F5BH   LINE      CODE     ---       #341
      00FF5F6DH   LINE      CODE     ---       #343
      00FF5F71H   LINE      CODE     ---       #344
      00FF5F74H   LINE      CODE     ---       #345
L251 LINKER/LOCATER V4.66.93.0                                                        09/12/2025  17:12:15  PAGE 80


      00FF5F86H   LINE      CODE     ---       #347
      00FF5F89H   LINE      CODE     ---       #348
      00FF5F8CH   LINE      CODE     ---       #349
      00FF5F9EH   LINE      CODE     ---       #351
      00FF5FA1H   LINE      CODE     ---       #352
      00FF5FA4H   LINE      CODE     ---       #353
      00FF5FBCH   LINE      CODE     ---       #355
      00FF5FBFH   LINE      CODE     ---       #356
      00FF5FBFH   LINE      CODE     ---       #359
      00FF5FC2H   LINE      CODE     ---       #362
      00FF5FC2H   LINE      CODE     ---       #366
      00FF5FC5H   LINE      CODE     ---       #367
      00FF5FC9H   LINE      CODE     ---       #368
      00FF5FCFH   LINE      CODE     ---       #369
      00FF5FD2H   LINE      CODE     ---       #372
      00FF5FD5H   LINE      CODE     ---       #374
      00FF5FE7H   LINE      CODE     ---       #376
      00FF5FEBH   LINE      CODE     ---       #377
      00FF5FEEH   LINE      CODE     ---       #378
      00FF6006H   LINE      CODE     ---       #380
      00FF6009H   LINE      CODE     ---       #381
      00FF6009H   LINE      CODE     ---       #385
      00FF600CH   LINE      CODE     ---       #388
      00FF600CH   LINE      CODE     ---       #392
      00FF600FH   LINE      CODE     ---       #393
      00FF6013H   LINE      CODE     ---       #394
      00FF6019H   LINE      CODE     ---       #395
      00FF601CH   LINE      CODE     ---       #405
      00FF601FH   LINE      CODE     ---       #407
      00FF6031H   LINE      CODE     ---       #409
      00FF6035H   LINE      CODE     ---       #410
      00FF6037H   LINE      CODE     ---       #411
      00FF6049H   LINE      CODE     ---       #413
      00FF604CH   LINE      CODE     ---       #414
      00FF604CH   LINE      CODE     ---       #418
      00FF604EH   LINE      CODE     ---       #421
      00FF604EH   LINE      CODE     ---       #425
      00FF6051H   LINE      CODE     ---       #426
      00FF6055H   LINE      CODE     ---       #427
      00FF605BH   LINE      CODE     ---       #428
      00FF605EH   LINE      CODE     ---       #438
      00FF6061H   LINE      CODE     ---       #440
      00FF6073H   LINE      CODE     ---       #442
      00FF6077H   LINE      CODE     ---       #443
      00FF6079H   LINE      CODE     ---       #444
      00FF608BH   LINE      CODE     ---       #448
      00FF608EH   LINE      CODE     ---       #449
      00FF608EH   LINE      CODE     ---       #453
      00FF608EH   LINE      CODE     ---       #456
      00FF608EH   LINE      CODE     ---       #459
      00FF6093H   LINE      CODE     ---       #461
      ---         BLOCKEND  ---      ---       LVL=0

      ---         MODULE    ---      ---       zf_device_config
      00FF021EH   PUBLIC    CODE     ---       imu660ra_config_file

      ---         MODULE    ---      ---       zf_device_type
      00010D70H   PUBLIC    XDATA    ---       tof_module_exti_handler
      00010D72H   PUBLIC    XDATA    INT       wireless_type
      00010D74H   PUBLIC    XDATA    INT       tof_type
      00010D76H   PUBLIC    XDATA    INT       gps_type
      000000D0H   SFRSYM    DATA     BYTE      PSW
      0000009DH   SFRSYM    DATA     BYTE      IRCBAND
      00000097H   SFRSYM    DATA     BYTE      AUXR2
      000000EFH   SFRSYM    DATA     BYTE      AUXINTIF
L251 LINKER/LOCATER V4.66.93.0                                                        09/12/2025  17:12:15  PAGE 81


      000000FDH   SFRSYM    DATA     BYTE      S4CON
      000000ACH   SFRSYM    DATA     BYTE      S3CON
      0000009AH   SFRSYM    DATA     BYTE      S2CON
      000000B7H   SFRSYM    DATA     BYTE      IPH
      000000CDH   SFRSYM    DATA     BYTE      SPSTAT
      000000DDH   SFRSYM    DATA     BYTE      T4T3M
      000000C1H   SFRSYM    DATA     BYTE      WDT_CONTR
      000000DFH   SFRSYM    DATA     BYTE      IP3
      000000F4H   SFRSYM    DATA     BYTE      USBCON
      000000B5H   SFRSYM    DATA     BYTE      IP2
      000000FFH   SFRSYM    DATA     BYTE      RSTCFG
      000000C7H   SFRSYM    DATA     BYTE      IAP_CONTR
      0000008EH   SFRSYM    DATA     BYTE      AUXR
      000000AFH   SFRSYM    DATA     BYTE      IE2
      00000088H   SFRSYM    DATA     BYTE      TCON
      00000089H   SFRSYM    DATA     BYTE      TMOD
      00000098H   SFRSYM    DATA     BYTE      SCON
      00000087H   SFRSYM    DATA     BYTE      PCON
      000000BCH   SFRSYM    DATA     BYTE      ADC_CONTR
      000000D1H   SFRSYM    DATA     BYTE      PSW1
      000000E7H   SFRSYM    DATA     BYTE      CMPCR2
      000000E6H   SFRSYM    DATA     BYTE      CMPCR1
      000000DEH   SFRSYM    DATA     BYTE      ADCCFG
      000000B8H   SFRSYM    DATA     BYTE      IP
      0000008FH   SFRSYM    DATA     BYTE      INTCLKO
      000000EEH   SFRSYM    DATA     BYTE      IP3H
      000000B6H   SFRSYM    DATA     BYTE      IP2H
      000000BFH   SFRSYM    DATA     BYTE      P_SW4
      000000A8H   SFRSYM    DATA     BYTE      IE
      000000BBH   SFRSYM    DATA     BYTE      P_SW3
      000000BAH   SFRSYM    DATA     BYTE      P_SW2
      000000A2H   SFRSYM    DATA     BYTE      P_SW1
      000000CEH   SFRSYM    DATA     BYTE      SPCTL
      000000F8H   SFRSYM    DATA     BYTE      P7
      000000E8H   SFRSYM    DATA     BYTE      P6
      000000C8H   SFRSYM    DATA     BYTE      P5
      000000C0H   SFRSYM    DATA     BYTE      P4
      000000ABH   SFRSYM    DATA     BYTE      WKTCH
      000000B0H   SFRSYM    DATA     BYTE      P3
      000000A0H   SFRSYM    DATA     BYTE      P2
      00000090H   SFRSYM    DATA     BYTE      P1
      00000080H   SFRSYM    DATA     BYTE      P0
      WR6         REGSYM    ---      INT       type_set
      WR4         REGSYM    ---      INT       uartx
      REG=0       REGSYM    ---      ---       uart_callback
      WR6         REGSYM    ---      INT       type_set
      REG=0       REGSYM    ---      ---       exti_callback
      WR6         REGSYM    ---      INT       type_set
      WR4         REGSYM    ---      INT       uartx
      REG=0       REGSYM    ---      ---       uart_callback

      ---         MODULE    ---      ---       zf_device_tft180
      00FF58CCH   PUBLIC    CODE     ---       tft180_init
      00FF6497H   PUBLIC    CODE     ---       tft180_show_float
      00FF79FAH   PUBLIC    CODE     ---       tft180_show_string
      00FF73AFH   PUBLIC    CODE     ---       tft180_show_char
      00FF000EH   PUBLIC    CODE     ---       tft180_set_color
      00FF6D32H   PUBLIC    CODE     ---       tft180_show_int16
      00FF8B7FH   PUBLIC    CODE     ---       tft180_set_dir
      00FF8404H   PUBLIC    CODE     ---       tft180_clear
      00010D78H   PUBLIC    XDATA    WORD      tft180_pencolor
      00010D7AH   PUBLIC    XDATA    WORD      tft180_bgcolor
      00010D7CH   PUBLIC    XDATA    INT       tft180_display_dir
      00010D7EH   PUBLIC    XDATA    BYTE      tft180_x_max
      00010D7FH   PUBLIC    XDATA    BYTE      tft180_y_max
L251 LINKER/LOCATER V4.66.93.0                                                        09/12/2025  17:12:15  PAGE 82


      00010439H   PUBLIC    XDATA    BYTE      ?tft180_show_float?BYTE
      000000D0H   SFRSYM    DATA     BYTE      PSW
      0000009DH   SFRSYM    DATA     BYTE      IRCBAND
      00000097H   SFRSYM    DATA     BYTE      AUXR2
      000000EFH   SFRSYM    DATA     BYTE      AUXINTIF
      000000FDH   SFRSYM    DATA     BYTE      S4CON
      000000ACH   SFRSYM    DATA     BYTE      S3CON
      0000009AH   SFRSYM    DATA     BYTE      S2CON
      000000B7H   SFRSYM    DATA     BYTE      IPH
      000000CDH   SFRSYM    DATA     BYTE      SPSTAT
      000000DDH   SFRSYM    DATA     BYTE      T4T3M
      000000C1H   SFRSYM    DATA     BYTE      WDT_CONTR
      000000DFH   SFRSYM    DATA     BYTE      IP3
      000000F4H   SFRSYM    DATA     BYTE      USBCON
      000000B5H   SFRSYM    DATA     BYTE      IP2
      000000FFH   SFRSYM    DATA     BYTE      RSTCFG
      000000C7H   SFRSYM    DATA     BYTE      IAP_CONTR
      0000008EH   SFRSYM    DATA     BYTE      AUXR
      000000AFH   SFRSYM    DATA     BYTE      IE2
      00000088H   SFRSYM    DATA     BYTE      TCON
      00000089H   SFRSYM    DATA     BYTE      TMOD
      00000098H   SFRSYM    DATA     BYTE      SCON
      000000A0H.2 SFRSYM    DATA     BIT       P22
      000000A0H.1 SFRSYM    DATA     BIT       P21
      000000A0H.0 SFRSYM    DATA     BIT       P20
      00000087H   SFRSYM    DATA     BYTE      PCON
      000000BCH   SFRSYM    DATA     BYTE      ADC_CONTR
      000000D1H   SFRSYM    DATA     BYTE      PSW1
      000000E7H   SFRSYM    DATA     BYTE      CMPCR2
      000000E6H   SFRSYM    DATA     BYTE      CMPCR1
      000000DEH   SFRSYM    DATA     BYTE      ADCCFG
      000000B8H   SFRSYM    DATA     BYTE      IP
      0000008FH   SFRSYM    DATA     BYTE      INTCLKO
      000000EEH   SFRSYM    DATA     BYTE      IP3H
      000000B6H   SFRSYM    DATA     BYTE      IP2H
      000000BFH   SFRSYM    DATA     BYTE      P_SW4
      000000A8H   SFRSYM    DATA     BYTE      IE
      000000BBH   SFRSYM    DATA     BYTE      P_SW3
      000000BAH   SFRSYM    DATA     BYTE      P_SW2
      000000A2H   SFRSYM    DATA     BYTE      P_SW1
      000000CEH   SFRSYM    DATA     BYTE      SPCTL
      000000F8H   SFRSYM    DATA     BYTE      P7
      000000E8H   SFRSYM    DATA     BYTE      P6
      000000C8H   SFRSYM    DATA     BYTE      P5
      000000C0H   SFRSYM    DATA     BYTE      P4
      000000ABH   SFRSYM    DATA     BYTE      WKTCH
      000000B0H   SFRSYM    DATA     BYTE      P3
      000000A0H   SFRSYM    DATA     BYTE      P2
      00000090H   SFRSYM    DATA     BYTE      P1
      00000080H   SFRSYM    DATA     BYTE      P0
      00FF6F8BH   SYMBOL    CODE     ---       tft180_set_region
      00FF8C4DH   SYMBOL    CODE     ---       tft180_write_index

      00FF8C4DH   BLOCK     CODE     ---       LVL=0
      R5          REGSYM    ---      BYTE      dat
      00FF8C4DH   LINE      CODE     ---       #80
      00FF8C4FH   LINE      CODE     ---       #82
      00FF8C51H   LINE      CODE     ---       #83
      00FF8C53H   LINE      CODE     ---       #84
      00FF8C55H   LINE      CODE     ---       #85
      00FF8C5CH   LINE      CODE     ---       #86
      00FF8C5EH   LINE      CODE     ---       #87
      00FF8C60H   LINE      CODE     ---       #88
      00FF8C62H   LINE      CODE     ---       #89
      ---         BLOCKEND  ---      ---       LVL=0
L251 LINKER/LOCATER V4.66.93.0                                                        09/12/2025  17:12:15  PAGE 83



      00FF6F8BH   BLOCK     CODE     ---       LVL=0
      00010476H   SYMBOL    XDATA    WORD      x1
      00010478H   SYMBOL    XDATA    WORD      y1
      WR12        REGSYM    ---      WORD      x2
      WR14        REGSYM    ---      WORD      y2
      00FF6F8BH   LINE      CODE     ---       #100
      00FF6F9DH   LINE      CODE     ---       #102
      00FF6FC1H   LINE      CODE     ---       #103
      00FF6FE5H   LINE      CODE     ---       #104
      00FF7003H   LINE      CODE     ---       #105
      00FF7021H   LINE      CODE     ---       #107
      00FF7037H   LINE      CODE     ---       #109
      00FF703CH   LINE      CODE     ---       #110
      00FF7049H   LINE      CODE     ---       #111
      00FF7052H   LINE      CODE     ---       #113
      00FF7057H   LINE      CODE     ---       #114
      00FF7064H   LINE      CODE     ---       #115
      00FF706DH   LINE      CODE     ---       #116
      00FF706FH   LINE      CODE     ---       #119
      00FF7074H   LINE      CODE     ---       #120
      00FF7081H   LINE      CODE     ---       #121
      00FF708AH   LINE      CODE     ---       #123
      00FF708FH   LINE      CODE     ---       #124
      00FF709CH   LINE      CODE     ---       #125
      00FF70A5H   LINE      CODE     ---       #126
      00FF70A5H   LINE      CODE     ---       #127
      00FF70AAH   LINE      CODE     ---       #128
      ---         BLOCKEND  ---      ---       LVL=0

      00FF8404H   BLOCK     CODE     ---       LVL=0
      WR14        REGSYM    ---      WORD      color
      00FF8408H   BLOCK     CODE     NEAR LAB  LVL=1
      0001043BH   SYMBOL    XDATA    DWORD     i
      ---         BLOCKEND  ---      ---       LVL=1
      00FF8404H   LINE      CODE     ---       #138
      00FF8408H   LINE      CODE     ---       #139
      00FF8408H   LINE      CODE     ---       #140
      00FF8425H   LINE      CODE     ---       #142
      00FF843CH   LINE      CODE     ---       #143
      00FF843EH   LINE      CODE     ---       #145
      00FF8445H   LINE      CODE     ---       #146
      00FF8468H   LINE      CODE     ---       #147
      ---         BLOCKEND  ---      ---       LVL=0

      00FF8B7FH   BLOCK     CODE     ---       LVL=0
      WR6         REGSYM    ---      INT       dir
      00FF8B7FH   LINE      CODE     ---       #155
      00FF8B7FH   LINE      CODE     ---       #157
      00FF8B85H   LINE      CODE     ---       #158
      00FF8B8BH   LINE      CODE     ---       #160
      00FF8B91H   LINE      CODE     ---       #161
      00FF8B97H   LINE      CODE     ---       #162
      00FF8B99H   LINE      CODE     ---       #165
      00FF8B9FH   LINE      CODE     ---       #166
      00FF8BA5H   LINE      CODE     ---       #167
      00FF8BA5H   LINE      CODE     ---       #168
      ---         BLOCKEND  ---      ---       LVL=0

      00FF000EH   BLOCK     CODE     ---       LVL=0
      WR6         REGSYM    ---      WORD      pen
      WR4         REGSYM    ---      WORD      bgcolor
      00FF000EH   LINE      CODE     ---       #177
      00FF000EH   LINE      CODE     ---       #179
      00FF0014H   LINE      CODE     ---       #180
L251 LINKER/LOCATER V4.66.93.0                                                        09/12/2025  17:12:15  PAGE 84


      00FF001AH   LINE      CODE     ---       #181
      ---         BLOCKEND  ---      ---       LVL=0
      WR12        REGSYM    ---      WORD      x
      WR14        REGSYM    ---      WORD      y

      00FF73AFH   BLOCK     CODE     ---       LVL=0
      WR12        REGSYM    ---      WORD      x
      WR14        REGSYM    ---      WORD      y
      00010472H   SYMBOL    XDATA    CHAR      dat
      00FF73B9H   BLOCK     CODE     NEAR LAB  LVL=1
      00010473H   SYMBOL    XDATA    BYTE      i
      00010474H   SYMBOL    XDATA    BYTE      j
      00010475H   SYMBOL    XDATA    BYTE      temp
      ---         BLOCKEND  ---      ---       LVL=1
      00FF73AFH   LINE      CODE     ---       #208
      00FF73B9H   LINE      CODE     ---       #209
      00FF73B9H   LINE      CODE     ---       #213
      00FF73D7H   LINE      CODE     ---       #214
      00FF73F5H   LINE      CODE     ---       #216
      00FF73FDH   LINE      CODE     ---       #218
      00FF7418H   LINE      CODE     ---       #219
      00FF743EH   LINE      CODE     ---       #220
      00FF7445H   LINE      CODE     ---       #222
      00FF744CH   LINE      CODE     ---       #223
      00FF7459H   LINE      CODE     ---       #225
      00FF7464H   LINE      CODE     ---       #226
      00FF746BH   LINE      CODE     ---       #227
      00FF747AH   LINE      CODE     ---       #228
      00FF748CH   LINE      CODE     ---       #229
      ---         BLOCKEND  ---      ---       LVL=0

      00FF79FAH   BLOCK     CODE     ---       LVL=0
      0001046CH   SYMBOL    XDATA    WORD      x
      0001046EH   SYMBOL    XDATA    WORD      y
      REG=3       REGSYM    ---      ---       dat
      00FF7A0AH   BLOCK     CODE     NEAR LAB  LVL=1
      00010470H   SYMBOL    XDATA    WORD      j
      ---         BLOCKEND  ---      ---       LVL=1
      00FF79FAH   LINE      CODE     ---       #239
      00FF7A0AH   LINE      CODE     ---       #240
      00FF7A0AH   LINE      CODE     ---       #241
      00FF7A12H   LINE      CODE     ---       #243
      00FF7A36H   LINE      CODE     ---       #244
      00FF7A5AH   LINE      CODE     ---       #247
      00FF7A5CH   LINE      CODE     ---       #249
      00FF7A86H   LINE      CODE     ---       #250
      00FF7A91H   LINE      CODE     ---       #251
      00FF7AA0H   LINE      CODE     ---       #252
      ---         BLOCKEND  ---      ---       LVL=0
      WR12        REGSYM    ---      WORD      x
      WR14        REGSYM    ---      WORD      y
      WR12        REGSYM    ---      WORD      x
      WR14        REGSYM    ---      WORD      y

      00FF6D32H   BLOCK     CODE     ---       LVL=0
      WR12        REGSYM    ---      WORD      x
      WR14        REGSYM    ---      WORD      y
      0001043BH   SYMBOL    XDATA    INT       dat
      00FF6D3EH   BLOCK     CODE     NEAR LAB  LVL=1
      0001043DH   SYMBOL    XDATA    ---       a
      00010442H   SYMBOL    XDATA    BYTE      i
      ---         BLOCKEND  ---      ---       LVL=1
      00FF6D32H   LINE      CODE     ---       #326
      00FF6D3EH   LINE      CODE     ---       #327
      00FF6D3EH   LINE      CODE     ---       #331
L251 LINKER/LOCATER V4.66.93.0                                                        09/12/2025  17:12:15  PAGE 85


      00FF6D5CH   LINE      CODE     ---       #332
      00FF6D7AH   LINE      CODE     ---       #334
      00FF6D86H   LINE      CODE     ---       #336
      00FF6D8FH   LINE      CODE     ---       #337
      00FF6DA1H   LINE      CODE     ---       #338
      00FF6DA3H   LINE      CODE     ---       #339
      00FF6DACH   LINE      CODE     ---       #341
      00FF6DBFH   LINE      CODE     ---       #342
      00FF6DD9H   LINE      CODE     ---       #343
      00FF6DF3H   LINE      CODE     ---       #344
      00FF6E0DH   LINE      CODE     ---       #345
      00FF6E20H   LINE      CODE     ---       #347
      00FF6E25H   LINE      CODE     ---       #348
      00FF6E27H   LINE      CODE     ---       #350
      00FF6E53H   LINE      CODE     ---       #351
      00FF6E59H   LINE      CODE     ---       #352
      00FF6E62H   LINE      CODE     ---       #353
      ---         BLOCKEND  ---      ---       LVL=0
      WR12        REGSYM    ---      WORD      x
      WR14        REGSYM    ---      WORD      y
      WR12        REGSYM    ---      WORD      y
      R15         REGSYM    ---      BYTE      num
      R14         REGSYM    ---      BYTE      length

      00FF6497H   BLOCK     CODE     ---       LVL=0
      0001043BH   SYMBOL    XDATA    WORD      x
      WR12        REGSYM    ---      WORD      y
      0001043DH   SYMBOL    XDATA    DOUBLE    dat
      R14         REGSYM    ---      BYTE      num
      R15         REGSYM    ---      BYTE      pointnum
      00FF64A5H   BLOCK     CODE     NEAR LAB  LVL=1
      00010447H   SYMBOL    XDATA    BYTE      length
      00010448H   SYMBOL    XDATA    ---       buff
      0001046AH   SYMBOL    XDATA    CHAR      start
      0001046BH   SYMBOL    XDATA    CHAR      end
      R10         REGSYM    ---      CHAR      point
      ---         BLOCKEND  ---      ---       LVL=1
      00FF6497H   LINE      CODE     ---       #437
      00FF64A5H   LINE      CODE     ---       #438
      00FF64A5H   LINE      CODE     ---       #443
      00FF64C9H   LINE      CODE     ---       #444
      00FF64E7H   LINE      CODE     ---       #446
      00FF64EFH   LINE      CODE     ---       #447
      00FF64F7H   LINE      CODE     ---       #449
      00FF6551H   LINE      CODE     ---       #452
      00FF658EH   LINE      CODE     ---       #453
      00FF6594H   LINE      CODE     ---       #454
      00FF6594H   LINE      CODE     ---       #455
      00FF65A0H   LINE      CODE     ---       #456
      00FF65AEH   LINE      CODE     ---       #457
      00FF65BAH   LINE      CODE     ---       #458
      00FF65BCH   LINE      CODE     ---       #460
      00FF65D2H   LINE      CODE     ---       #461
      00FF65D8H   LINE      CODE     ---       #462
      00FF65DEH   LINE      CODE     ---       #463
      00FF65E7H   LINE      CODE     ---       #465
      00FF661AH   LINE      CODE     ---       #466
      00FF6630H   LINE      CODE     ---       #468
      00FF6645H   LINE      CODE     ---       #470
      00FF6658H   LINE      CODE     ---       #471
      ---         BLOCKEND  ---      ---       LVL=0
      REG=3       REGSYM    ---      ---       p

      00FF58CCH   BLOCK     CODE     ---       LVL=0
      00FF58CCH   LINE      CODE     ---       #515
L251 LINKER/LOCATER V4.66.93.0                                                        09/12/2025  17:12:15  PAGE 86


      00FF58CCH   LINE      CODE     ---       #520
      00FF5903H   LINE      CODE     ---       #528
      00FF590CH   LINE      CODE     ---       #529
      00FF591BH   LINE      CODE     ---       #531
      00FF591DH   LINE      CODE     ---       #532
      00FF5924H   LINE      CODE     ---       #534
      00FF5926H   LINE      CODE     ---       #535
      00FF592DH   LINE      CODE     ---       #537
      00FF5932H   LINE      CODE     ---       #538
      00FF5939H   LINE      CODE     ---       #540
      00FF593EH   LINE      CODE     ---       #541
      00FF5945H   LINE      CODE     ---       #542
      00FF594CH   LINE      CODE     ---       #543
      00FF5953H   LINE      CODE     ---       #545
      00FF5958H   LINE      CODE     ---       #546
      00FF595FH   LINE      CODE     ---       #547
      00FF5966H   LINE      CODE     ---       #548
      00FF596DH   LINE      CODE     ---       #550
      00FF5972H   LINE      CODE     ---       #551
      00FF5979H   LINE      CODE     ---       #552
      00FF5980H   LINE      CODE     ---       #553
      00FF5987H   LINE      CODE     ---       #554
      00FF598EH   LINE      CODE     ---       #555
      00FF5995H   LINE      CODE     ---       #556
      00FF599CH   LINE      CODE     ---       #558
      00FF59A1H   LINE      CODE     ---       #559
      00FF59A8H   LINE      CODE     ---       #561
      00FF59ADH   LINE      CODE     ---       #562
      00FF59B4H   LINE      CODE     ---       #563
      00FF59BBH   LINE      CODE     ---       #564
      00FF59C2H   LINE      CODE     ---       #565
      00FF59C7H   LINE      CODE     ---       #566
      00FF59CEH   LINE      CODE     ---       #568
      00FF59D3H   LINE      CODE     ---       #569
      00FF59DAH   LINE      CODE     ---       #570
      00FF59E0H   LINE      CODE     ---       #572
      00FF59E5H   LINE      CODE     ---       #573
      00FF59ECH   LINE      CODE     ---       #574
      00FF59F3H   LINE      CODE     ---       #575
      00FF59F8H   LINE      CODE     ---       #576
      00FF59FFH   LINE      CODE     ---       #577
      00FF5A06H   LINE      CODE     ---       #579
      00FF5A0BH   LINE      CODE     ---       #580
      00FF5A12H   LINE      CODE     ---       #582
      00FF5A17H   LINE      CODE     ---       #583
      00FF5A2FH   LINE      CODE     ---       #585
      00FF5A38H   LINE      CODE     ---       #586
      00FF5A40H   LINE      CODE     ---       #587
      00FF5A49H   LINE      CODE     ---       #588
      00FF5A50H   LINE      CODE     ---       #589
      00FF5A50H   LINE      CODE     ---       #591
      00FF5A55H   LINE      CODE     ---       #592
      00FF5A5CH   LINE      CODE     ---       #593
      00FF5A63H   LINE      CODE     ---       #594
      00FF5A6AH   LINE      CODE     ---       #595
      00FF5A71H   LINE      CODE     ---       #596
      00FF5A78H   LINE      CODE     ---       #597
      00FF5A7FH   LINE      CODE     ---       #598
      00FF5A86H   LINE      CODE     ---       #599
      00FF5A8DH   LINE      CODE     ---       #600
      00FF5A94H   LINE      CODE     ---       #601
      00FF5A9BH   LINE      CODE     ---       #602
      00FF5AA2H   LINE      CODE     ---       #603
      00FF5AA9H   LINE      CODE     ---       #604
      00FF5AAFH   LINE      CODE     ---       #605
L251 LINKER/LOCATER V4.66.93.0                                                        09/12/2025  17:12:15  PAGE 87


      00FF5AB6H   LINE      CODE     ---       #606
      00FF5ABDH   LINE      CODE     ---       #607
      00FF5AC4H   LINE      CODE     ---       #609
      00FF5AC9H   LINE      CODE     ---       #610
      00FF5AD0H   LINE      CODE     ---       #611
      00FF5AD7H   LINE      CODE     ---       #612
      00FF5ADEH   LINE      CODE     ---       #613
      00FF5AE5H   LINE      CODE     ---       #614
      00FF5AECH   LINE      CODE     ---       #615
      00FF5AF3H   LINE      CODE     ---       #616
      00FF5AFAH   LINE      CODE     ---       #617
      00FF5B01H   LINE      CODE     ---       #618
      00FF5B08H   LINE      CODE     ---       #619
      00FF5B0FH   LINE      CODE     ---       #620
      00FF5B16H   LINE      CODE     ---       #621
      00FF5B1DH   LINE      CODE     ---       #622
      00FF5B23H   LINE      CODE     ---       #623
      00FF5B2AH   LINE      CODE     ---       #624
      00FF5B31H   LINE      CODE     ---       #625
      00FF5B38H   LINE      CODE     ---       #627
      00FF5B3DH   LINE      CODE     ---       #628
      00FF5B43H   LINE      CODE     ---       #629
      00FF5B4AH   LINE      CODE     ---       #630
      00FF5B50H   LINE      CODE     ---       #631
      00FF5B57H   LINE      CODE     ---       #633
      00FF5B5CH   LINE      CODE     ---       #634
      00FF5B62H   LINE      CODE     ---       #635
      00FF5B69H   LINE      CODE     ---       #636
      00FF5B6FH   LINE      CODE     ---       #637
      00FF5B76H   LINE      CODE     ---       #639
      00FF5B7BH   LINE      CODE     ---       #640
      00FF5B82H   LINE      CODE     ---       #641
      00FF5B87H   LINE      CODE     ---       #642
      00FF5B8DH   LINE      CODE     ---       #644
      00FF5B92H   LINE      CODE     ---       #645
      00FF5B99H   LINE      CODE     ---       #646
      00FF5B9EH   LINE      CODE     ---       #648
      00FF5BA7H   LINE      CODE     ---       #649
      ---         BLOCKEND  ---      ---       LVL=0

      ---         MODULE    ---      ---       zf_device_ips114
      00010D80H   PUBLIC    XDATA    WORD      ips114_pencolor
      00010D82H   PUBLIC    XDATA    WORD      ips114_bgcolor
      00010D84H   PUBLIC    XDATA    INT       ips114_display_dir
      00010D86H   PUBLIC    XDATA    BYTE      ips114_x_max
      00010D87H   PUBLIC    XDATA    BYTE      ips114_y_max
      000000D0H   SFRSYM    DATA     BYTE      PSW
      0000009DH   SFRSYM    DATA     BYTE      IRCBAND
      00000097H   SFRSYM    DATA     BYTE      AUXR2
      000000EFH   SFRSYM    DATA     BYTE      AUXINTIF
      000000FDH   SFRSYM    DATA     BYTE      S4CON
      000000ACH   SFRSYM    DATA     BYTE      S3CON
      0000009AH   SFRSYM    DATA     BYTE      S2CON
      000000B7H   SFRSYM    DATA     BYTE      IPH
      000000CDH   SFRSYM    DATA     BYTE      SPSTAT
      000000DDH   SFRSYM    DATA     BYTE      T4T3M
      000000C1H   SFRSYM    DATA     BYTE      WDT_CONTR
      000000DFH   SFRSYM    DATA     BYTE      IP3
      000000F4H   SFRSYM    DATA     BYTE      USBCON
      000000B5H   SFRSYM    DATA     BYTE      IP2
      000000FFH   SFRSYM    DATA     BYTE      RSTCFG
      000000C7H   SFRSYM    DATA     BYTE      IAP_CONTR
      0000008EH   SFRSYM    DATA     BYTE      AUXR
      000000AFH   SFRSYM    DATA     BYTE      IE2
      00000088H   SFRSYM    DATA     BYTE      TCON
L251 LINKER/LOCATER V4.66.93.0                                                        09/12/2025  17:12:15  PAGE 88


      00000089H   SFRSYM    DATA     BYTE      TMOD
      00000098H   SFRSYM    DATA     BYTE      SCON
      000000A0H.2 SFRSYM    DATA     BIT       P22
      000000A0H.1 SFRSYM    DATA     BIT       P21
      000000A0H.0 SFRSYM    DATA     BIT       P20
      00000087H   SFRSYM    DATA     BYTE      PCON
      000000BCH   SFRSYM    DATA     BYTE      ADC_CONTR
      000000D1H   SFRSYM    DATA     BYTE      PSW1
      000000E7H   SFRSYM    DATA     BYTE      CMPCR2
      000000E6H   SFRSYM    DATA     BYTE      CMPCR1
      000000DEH   SFRSYM    DATA     BYTE      ADCCFG
      000000B8H   SFRSYM    DATA     BYTE      IP
      0000008FH   SFRSYM    DATA     BYTE      INTCLKO
      000000EEH   SFRSYM    DATA     BYTE      IP3H
      000000B6H   SFRSYM    DATA     BYTE      IP2H
      000000BFH   SFRSYM    DATA     BYTE      P_SW4
      000000A8H   SFRSYM    DATA     BYTE      IE
      000000BBH   SFRSYM    DATA     BYTE      P_SW3
      000000BAH   SFRSYM    DATA     BYTE      P_SW2
      000000A2H   SFRSYM    DATA     BYTE      P_SW1
      000000CEH   SFRSYM    DATA     BYTE      SPCTL
      000000F8H   SFRSYM    DATA     BYTE      P7
      000000E8H   SFRSYM    DATA     BYTE      P6
      000000C8H   SFRSYM    DATA     BYTE      P5
      000000C0H   SFRSYM    DATA     BYTE      P4
      000000ABH   SFRSYM    DATA     BYTE      WKTCH
      000000B0H   SFRSYM    DATA     BYTE      P3
      000000A0H   SFRSYM    DATA     BYTE      P2
      00000090H   SFRSYM    DATA     BYTE      P1
      00000080H   SFRSYM    DATA     BYTE      P0
      R5          REGSYM    ---      BYTE      dat
      WR12        REGSYM    ---      WORD      x2
      WR14        REGSYM    ---      WORD      y2
      WR14        REGSYM    ---      WORD      color
      WR12        REGSYM    ---      WORD      i
      WR6         REGSYM    ---      INT       dir
      WR6         REGSYM    ---      WORD      pen
      WR4         REGSYM    ---      WORD      bgcolor
      WR12        REGSYM    ---      WORD      x
      WR14        REGSYM    ---      WORD      y
      WR12        REGSYM    ---      WORD      x
      WR14        REGSYM    ---      WORD      y
      REG=3       REGSYM    ---      ---       dat
      WR12        REGSYM    ---      WORD      x
      WR14        REGSYM    ---      WORD      y
      WR12        REGSYM    ---      WORD      x
      WR14        REGSYM    ---      WORD      y
      WR12        REGSYM    ---      WORD      x
      WR14        REGSYM    ---      WORD      y
      WR12        REGSYM    ---      WORD      x
      WR14        REGSYM    ---      WORD      y
      WR12        REGSYM    ---      WORD      y
      R15         REGSYM    ---      BYTE      num
      R14         REGSYM    ---      BYTE      length
      WR12        REGSYM    ---      WORD      y
      R14         REGSYM    ---      BYTE      num
      R15         REGSYM    ---      BYTE      pointnum
      R10         REGSYM    ---      CHAR      point
      REG=3       REGSYM    ---      ---       p
      REG=3       REGSYM    ---      ---       p

      ---         MODULE    ---      ---       zf_device_ips200
      00010D54H   PUBLIC    XDATA    WORD      ips200_pencolor
      00010D56H   PUBLIC    XDATA    WORD      ips200_bgcolor
      00010D58H   PUBLIC    XDATA    INT       ips200_display_dir
L251 LINKER/LOCATER V4.66.93.0                                                        09/12/2025  17:12:15  PAGE 89


      00010D5AH   PUBLIC    XDATA    WORD      ips200_x_max
      00010D5CH   PUBLIC    XDATA    WORD      ips200_y_max
      000000D0H   SFRSYM    DATA     BYTE      PSW
      0000009DH   SFRSYM    DATA     BYTE      IRCBAND
      00000097H   SFRSYM    DATA     BYTE      AUXR2
      000000EFH   SFRSYM    DATA     BYTE      AUXINTIF
      000000FDH   SFRSYM    DATA     BYTE      S4CON
      000000ACH   SFRSYM    DATA     BYTE      S3CON
      0000009AH   SFRSYM    DATA     BYTE      S2CON
      000000B7H   SFRSYM    DATA     BYTE      IPH
      000000CDH   SFRSYM    DATA     BYTE      SPSTAT
      000000DDH   SFRSYM    DATA     BYTE      T4T3M
      000000C1H   SFRSYM    DATA     BYTE      WDT_CONTR
      000000DFH   SFRSYM    DATA     BYTE      IP3
      000000F4H   SFRSYM    DATA     BYTE      USBCON
      000000B5H   SFRSYM    DATA     BYTE      IP2
      000000FFH   SFRSYM    DATA     BYTE      RSTCFG
      000000C7H   SFRSYM    DATA     BYTE      IAP_CONTR
      0000008EH   SFRSYM    DATA     BYTE      AUXR
      000000AFH   SFRSYM    DATA     BYTE      IE2
      00000088H   SFRSYM    DATA     BYTE      TCON
      00000089H   SFRSYM    DATA     BYTE      TMOD
      00000098H   SFRSYM    DATA     BYTE      SCON
      000000A0H.2 SFRSYM    DATA     BIT       P22
      000000A0H.1 SFRSYM    DATA     BIT       P21
      000000A0H.0 SFRSYM    DATA     BIT       P20
      00000087H   SFRSYM    DATA     BYTE      PCON
      000000BCH   SFRSYM    DATA     BYTE      ADC_CONTR
      000000D1H   SFRSYM    DATA     BYTE      PSW1
      000000E7H   SFRSYM    DATA     BYTE      CMPCR2
      000000E6H   SFRSYM    DATA     BYTE      CMPCR1
      000000DEH   SFRSYM    DATA     BYTE      ADCCFG
      000000B8H   SFRSYM    DATA     BYTE      IP
      0000008FH   SFRSYM    DATA     BYTE      INTCLKO
      000000EEH   SFRSYM    DATA     BYTE      IP3H
      000000B6H   SFRSYM    DATA     BYTE      IP2H
      000000BFH   SFRSYM    DATA     BYTE      P_SW4
      000000A8H   SFRSYM    DATA     BYTE      IE
      000000BBH   SFRSYM    DATA     BYTE      P_SW3
      000000BAH   SFRSYM    DATA     BYTE      P_SW2
      000000A2H   SFRSYM    DATA     BYTE      P_SW1
      000000CEH   SFRSYM    DATA     BYTE      SPCTL
      000000F8H   SFRSYM    DATA     BYTE      P7
      000000E8H   SFRSYM    DATA     BYTE      P6
      000000C8H   SFRSYM    DATA     BYTE      P5
      000000C0H   SFRSYM    DATA     BYTE      P4
      000000ABH   SFRSYM    DATA     BYTE      WKTCH
      000000B0H   SFRSYM    DATA     BYTE      P3
      000000A0H   SFRSYM    DATA     BYTE      P2
      00000090H   SFRSYM    DATA     BYTE      P1
      00000080H   SFRSYM    DATA     BYTE      P0
      R5          REGSYM    ---      BYTE      dat
      WR12        REGSYM    ---      WORD      x2
      WR14        REGSYM    ---      WORD      y2
      WR14        REGSYM    ---      WORD      color
      WR12        REGSYM    ---      WORD      i
      WR6         REGSYM    ---      INT       dir
      WR6         REGSYM    ---      WORD      pen
      WR4         REGSYM    ---      WORD      bgcolor
      WR12        REGSYM    ---      WORD      x
      WR14        REGSYM    ---      WORD      y
      WR12        REGSYM    ---      WORD      x
      WR14        REGSYM    ---      WORD      y
      REG=3       REGSYM    ---      ---       dat
      WR12        REGSYM    ---      WORD      x
L251 LINKER/LOCATER V4.66.93.0                                                        09/12/2025  17:12:15  PAGE 90


      WR14        REGSYM    ---      WORD      y
      WR12        REGSYM    ---      WORD      x
      WR14        REGSYM    ---      WORD      y
      WR12        REGSYM    ---      WORD      x
      WR14        REGSYM    ---      WORD      y
      WR12        REGSYM    ---      WORD      x
      WR14        REGSYM    ---      WORD      y
      WR12        REGSYM    ---      WORD      y
      R15         REGSYM    ---      BYTE      num
      R14         REGSYM    ---      BYTE      length
      WR12        REGSYM    ---      WORD      y
      R14         REGSYM    ---      BYTE      num
      R15         REGSYM    ---      BYTE      pointnum
      R10         REGSYM    ---      CHAR      point
      REG=3       REGSYM    ---      ---       p
      REG=3       REGSYM    ---      ---       p

      ---         MODULE    ---      ---       zf_device_dl1a
      00010D20H   PUBLIC    XDATA    WORD      dl1a_distance_mm
      00010D22H   PUBLIC    XDATA    BYTE      dl1a_finsh_flag
      000000D0H   SFRSYM    DATA     BYTE      PSW
      0000009DH   SFRSYM    DATA     BYTE      IRCBAND
      00000097H   SFRSYM    DATA     BYTE      AUXR2
      000000EFH   SFRSYM    DATA     BYTE      AUXINTIF
      000000FDH   SFRSYM    DATA     BYTE      S4CON
      000000ACH   SFRSYM    DATA     BYTE      S3CON
      0000009AH   SFRSYM    DATA     BYTE      S2CON
      000000B7H   SFRSYM    DATA     BYTE      IPH
      000000CDH   SFRSYM    DATA     BYTE      SPSTAT
      000000DDH   SFRSYM    DATA     BYTE      T4T3M
      000000C1H   SFRSYM    DATA     BYTE      WDT_CONTR
      000000DFH   SFRSYM    DATA     BYTE      IP3
      000000F4H   SFRSYM    DATA     BYTE      USBCON
      000000B5H   SFRSYM    DATA     BYTE      IP2
      000000FFH   SFRSYM    DATA     BYTE      RSTCFG
      000000C7H   SFRSYM    DATA     BYTE      IAP_CONTR
      0000008EH   SFRSYM    DATA     BYTE      AUXR
      000000AFH   SFRSYM    DATA     BYTE      IE2
      00000088H   SFRSYM    DATA     BYTE      TCON
      00000089H   SFRSYM    DATA     BYTE      TMOD
      00000098H   SFRSYM    DATA     BYTE      SCON
      00000087H   SFRSYM    DATA     BYTE      PCON
      000000BCH   SFRSYM    DATA     BYTE      ADC_CONTR
      000000D1H   SFRSYM    DATA     BYTE      PSW1
      000000E7H   SFRSYM    DATA     BYTE      CMPCR2
      000000E6H   SFRSYM    DATA     BYTE      CMPCR1
      000000DEH   SFRSYM    DATA     BYTE      ADCCFG
      000000B8H   SFRSYM    DATA     BYTE      IP
      0000008FH   SFRSYM    DATA     BYTE      INTCLKO
      000000EEH   SFRSYM    DATA     BYTE      IP3H
      000000B6H   SFRSYM    DATA     BYTE      IP2H
      000000BFH   SFRSYM    DATA     BYTE      P_SW4
      000000A8H   SFRSYM    DATA     BYTE      IE
      000000BBH   SFRSYM    DATA     BYTE      P_SW3
      000000BAH   SFRSYM    DATA     BYTE      P_SW2
      000000A2H   SFRSYM    DATA     BYTE      P_SW1
      000000CEH   SFRSYM    DATA     BYTE      SPCTL
      000000F8H   SFRSYM    DATA     BYTE      P7
      000000E8H   SFRSYM    DATA     BYTE      P6
      000000C8H   SFRSYM    DATA     BYTE      P5
      000000C0H   SFRSYM    DATA     BYTE      P4
      000000ABH   SFRSYM    DATA     BYTE      WKTCH
      000000B0H   SFRSYM    DATA     BYTE      P3
      000000A0H   SFRSYM    DATA     BYTE      P2
      00000090H   SFRSYM    DATA     BYTE      P1
L251 LINKER/LOCATER V4.66.93.0                                                        09/12/2025  17:12:15  PAGE 91


      00000080H   SFRSYM    DATA     BYTE      P0
      00FF9DA3H   SYMBOL    HCONST   ---       ?tpl?0001
      00FF9DABH   SYMBOL    HCONST   ---       ?tpl?0002
      00FF9DB1H   SYMBOL    HCONST   ---       ?tpl?0003
      00FF9DBBH   SYMBOL    HCONST   ---       ?tpl?0004
      00010D17H   SYMBOL    XDATA    ---       dl1a_iic_struct
      00010D23H   SYMBOL    XDATA    BYTE      dl1a_init_flag
      REG=3       REGSYM    ---      ---       type_is_aperture
      WR30        REGSYM    ---      WORD      timeout_period_mclks
      R5          REGSYM    ---      BYTE      vcsel_period_pclks
      DR24        REGSYM    ---      DWORD     macro_period_ns
      DR28        REGSYM    ---      DWORD     timeout_period_us
      R3          REGSYM    ---      BYTE      vcsel_period_pclks
      DR8         REGSYM    ---      DWORD     macro_period_ns
      WR4         REGSYM    ---      WORD      reg_val
      WR2         REGSYM    ---      WORD      timeout_mclks
      DR8         REGSYM    ---      DWORD     ls_byte
      WR4         REGSYM    ---      WORD      ms_byte
      WR6         REGSYM    ---      WORD      return_data
      REG=3       REGSYM    ---      ---       enables
      WR14        REGSYM    ---      INT       type
      REG=3       REGSYM    ---      ---       timeouts
      R10         REGSYM    ---      BYTE      vhv_init_byte
      R15         REGSYM    ---      BYTE      return_state
      DR12        REGSYM    ---      DWORD     budget_us
      DR12        REGSYM    ---      DWORD     budget_us
      DR28        REGSYM    ---      FLOAT     limit_mcps
      WR14        REGSYM    ---      WORD      limit_mcps_16bit
      R15         REGSYM    ---      BYTE      return_state
      R14         REGSYM    ---      BYTE      reg_data_buffer
      WR12        REGSYM    ---      WORD      i

      ---         MODULE    ---      ---       zf_device_ble6a20
      000000D0H   SFRSYM    DATA     BYTE      PSW
      0000009DH   SFRSYM    DATA     BYTE      IRCBAND
      00000097H   SFRSYM    DATA     BYTE      AUXR2
      000000EFH   SFRSYM    DATA     BYTE      AUXINTIF
      000000FDH   SFRSYM    DATA     BYTE      S4CON
      000000ACH   SFRSYM    DATA     BYTE      S3CON
      0000009AH   SFRSYM    DATA     BYTE      S2CON
      000000B7H   SFRSYM    DATA     BYTE      IPH
      000000CDH   SFRSYM    DATA     BYTE      SPSTAT
      000000DDH   SFRSYM    DATA     BYTE      T4T3M
      000000C1H   SFRSYM    DATA     BYTE      WDT_CONTR
      000000DFH   SFRSYM    DATA     BYTE      IP3
      000000F4H   SFRSYM    DATA     BYTE      USBCON
      000000B5H   SFRSYM    DATA     BYTE      IP2
      000000FFH   SFRSYM    DATA     BYTE      RSTCFG
      000000C7H   SFRSYM    DATA     BYTE      IAP_CONTR
      0000008EH   SFRSYM    DATA     BYTE      AUXR
      000000AFH   SFRSYM    DATA     BYTE      IE2
      00000088H   SFRSYM    DATA     BYTE      TCON
      00000089H   SFRSYM    DATA     BYTE      TMOD
      00000098H   SFRSYM    DATA     BYTE      SCON
      00000087H   SFRSYM    DATA     BYTE      PCON
      000000BCH   SFRSYM    DATA     BYTE      ADC_CONTR
      000000D1H   SFRSYM    DATA     BYTE      PSW1
      000000E7H   SFRSYM    DATA     BYTE      CMPCR2
      000000E6H   SFRSYM    DATA     BYTE      CMPCR1
      000000DEH   SFRSYM    DATA     BYTE      ADCCFG
      000000B8H   SFRSYM    DATA     BYTE      IP
      0000008FH   SFRSYM    DATA     BYTE      INTCLKO
      000000EEH   SFRSYM    DATA     BYTE      IP3H
      000000B6H   SFRSYM    DATA     BYTE      IP2H
      000000BFH   SFRSYM    DATA     BYTE      P_SW4
L251 LINKER/LOCATER V4.66.93.0                                                        09/12/2025  17:12:15  PAGE 92


      000000A8H   SFRSYM    DATA     BYTE      IE
      000000BBH   SFRSYM    DATA     BYTE      P_SW3
      000000BAH   SFRSYM    DATA     BYTE      P_SW2
      000000A2H   SFRSYM    DATA     BYTE      P_SW1
      000000CEH   SFRSYM    DATA     BYTE      SPCTL
      000000F8H   SFRSYM    DATA     BYTE      P7
      000000E8H   SFRSYM    DATA     BYTE      P6
      000000C8H   SFRSYM    DATA     BYTE      P5
      000000C0H   SFRSYM    DATA     BYTE      P4
      000000ABH   SFRSYM    DATA     BYTE      WKTCH
      000000B0H   SFRSYM    DATA     BYTE      P3
      000000A0H   SFRSYM    DATA     BYTE      P2
      00000090H   SFRSYM    DATA     BYTE      P1
      00000080H   SFRSYM    DATA     BYTE      P0
      00010BA9H   SYMBOL    XDATA    ---       ble6a20_buffer
      00010BE9H   SYMBOL    XDATA    ---       ble6a20_fifo
      R15         REGSYM    ---      BYTE      dat
      WR12        REGSYM    ---      WORD      time_cnt
      DR12        REGSYM    ---      DWORD     len
      REG=3       REGSYM    ---      ---       str
      REG=3       REGSYM    ---      ---       buff
      DR8         REGSYM    ---      DWORD     len
      R15         REGSYM    ---      BYTE      return_state

      ---         MODULE    ---      ---       zf_device_wireless_uart
      000000D0H   SFRSYM    DATA     BYTE      PSW
      0000009DH   SFRSYM    DATA     BYTE      IRCBAND
      00000097H   SFRSYM    DATA     BYTE      AUXR2
      000000EFH   SFRSYM    DATA     BYTE      AUXINTIF
      000000FDH   SFRSYM    DATA     BYTE      S4CON
      000000ACH   SFRSYM    DATA     BYTE      S3CON
      0000009AH   SFRSYM    DATA     BYTE      S2CON
      000000B7H   SFRSYM    DATA     BYTE      IPH
      000000CDH   SFRSYM    DATA     BYTE      SPSTAT
      000000DDH   SFRSYM    DATA     BYTE      T4T3M
      000000C1H   SFRSYM    DATA     BYTE      WDT_CONTR
      000000DFH   SFRSYM    DATA     BYTE      IP3
      000000F4H   SFRSYM    DATA     BYTE      USBCON
      000000B5H   SFRSYM    DATA     BYTE      IP2
      000000FFH   SFRSYM    DATA     BYTE      RSTCFG
      000000C7H   SFRSYM    DATA     BYTE      IAP_CONTR
      0000008EH   SFRSYM    DATA     BYTE      AUXR
      000000AFH   SFRSYM    DATA     BYTE      IE2
      00000088H   SFRSYM    DATA     BYTE      TCON
      00000089H   SFRSYM    DATA     BYTE      TMOD
      00000098H   SFRSYM    DATA     BYTE      SCON
      00000087H   SFRSYM    DATA     BYTE      PCON
      000000BCH   SFRSYM    DATA     BYTE      ADC_CONTR
      000000D1H   SFRSYM    DATA     BYTE      PSW1
      000000E7H   SFRSYM    DATA     BYTE      CMPCR2
      000000E6H   SFRSYM    DATA     BYTE      CMPCR1
      000000DEH   SFRSYM    DATA     BYTE      ADCCFG
      000000B8H   SFRSYM    DATA     BYTE      IP
      0000008FH   SFRSYM    DATA     BYTE      INTCLKO
      000000EEH   SFRSYM    DATA     BYTE      IP3H
      000000B6H   SFRSYM    DATA     BYTE      IP2H
      000000BFH   SFRSYM    DATA     BYTE      P_SW4
      000000A8H   SFRSYM    DATA     BYTE      IE
      000000BBH   SFRSYM    DATA     BYTE      P_SW3
      000000BAH   SFRSYM    DATA     BYTE      P_SW2
      000000A2H   SFRSYM    DATA     BYTE      P_SW1
      000000CEH   SFRSYM    DATA     BYTE      SPCTL
      000000F8H   SFRSYM    DATA     BYTE      P7
      000000E8H   SFRSYM    DATA     BYTE      P6
      000000C8H   SFRSYM    DATA     BYTE      P5
L251 LINKER/LOCATER V4.66.93.0                                                        09/12/2025  17:12:15  PAGE 93


      000000C0H   SFRSYM    DATA     BYTE      P4
      000000ABH   SFRSYM    DATA     BYTE      WKTCH
      000000B0H   SFRSYM    DATA     BYTE      P3
      000000A0H   SFRSYM    DATA     BYTE      P2
      00000090H   SFRSYM    DATA     BYTE      P1
      00000080H   SFRSYM    DATA     BYTE      P0
      00010C00H   SYMBOL    XDATA    ---       wireless_uart_fifo
      00010C17H   SYMBOL    XDATA    ---       wireless_uart_buffer
      R15         REGSYM    ---      BYTE      dat
      WR12        REGSYM    ---      WORD      time_cnt
      DR12        REGSYM    ---      DWORD     len
      REG=3       REGSYM    ---      ---       str
      REG=3       REGSYM    ---      ---       buff
      DR8         REGSYM    ---      DWORD     len
      R15         REGSYM    ---      BYTE      return_state

      ---         MODULE    ---      ---       zf_device_icm20602
      00010CEFH   PUBLIC    XDATA    INT       icm20602_acc_x
      00010CF1H   PUBLIC    XDATA    INT       icm20602_acc_y
      00010CF3H   PUBLIC    XDATA    INT       icm20602_acc_z
      00010CF5H   PUBLIC    XDATA    INT       icm20602_gyro_x
      00010CF7H   PUBLIC    XDATA    INT       icm20602_gyro_y
      00010CF9H   PUBLIC    XDATA    INT       icm20602_gyro_z
      00010CFBH   PUBLIC    XDATA    ---       icm20602_transition_factor
      000000D0H   SFRSYM    DATA     BYTE      PSW
      0000009DH   SFRSYM    DATA     BYTE      IRCBAND
      00000097H   SFRSYM    DATA     BYTE      AUXR2
      000000EFH   SFRSYM    DATA     BYTE      AUXINTIF
      000000FDH   SFRSYM    DATA     BYTE      S4CON
      000000ACH   SFRSYM    DATA     BYTE      S3CON
      0000009AH   SFRSYM    DATA     BYTE      S2CON
      000000B7H   SFRSYM    DATA     BYTE      IPH
      000000CDH   SFRSYM    DATA     BYTE      SPSTAT
      000000DDH   SFRSYM    DATA     BYTE      T4T3M
      000000C1H   SFRSYM    DATA     BYTE      WDT_CONTR
      000000DFH   SFRSYM    DATA     BYTE      IP3
      000000F4H   SFRSYM    DATA     BYTE      USBCON
      000000B5H   SFRSYM    DATA     BYTE      IP2
      000000FFH   SFRSYM    DATA     BYTE      RSTCFG
      000000C7H   SFRSYM    DATA     BYTE      IAP_CONTR
      0000008EH   SFRSYM    DATA     BYTE      AUXR
      000000AFH   SFRSYM    DATA     BYTE      IE2
      000000C0H.3 SFRSYM    DATA     BIT       P43
      000000C0H.2 SFRSYM    DATA     BIT       P42
      00000088H   SFRSYM    DATA     BYTE      TCON
      00000089H   SFRSYM    DATA     BYTE      TMOD
      000000C0H.1 SFRSYM    DATA     BIT       P41
      00000098H   SFRSYM    DATA     BYTE      SCON
      000000C0H.0 SFRSYM    DATA     BIT       P40
      00000087H   SFRSYM    DATA     BYTE      PCON
      000000BCH   SFRSYM    DATA     BYTE      ADC_CONTR
      000000D1H   SFRSYM    DATA     BYTE      PSW1
      000000E7H   SFRSYM    DATA     BYTE      CMPCR2
      000000E6H   SFRSYM    DATA     BYTE      CMPCR1
      000000DEH   SFRSYM    DATA     BYTE      ADCCFG
      000000B8H   SFRSYM    DATA     BYTE      IP
      0000008FH   SFRSYM    DATA     BYTE      INTCLKO
      000000EEH   SFRSYM    DATA     BYTE      IP3H
      000000B6H   SFRSYM    DATA     BYTE      IP2H
      000000BFH   SFRSYM    DATA     BYTE      P_SW4
      000000A8H   SFRSYM    DATA     BYTE      IE
      000000BBH   SFRSYM    DATA     BYTE      P_SW3
      000000BAH   SFRSYM    DATA     BYTE      P_SW2
      000000A2H   SFRSYM    DATA     BYTE      P_SW1
      000000CEH   SFRSYM    DATA     BYTE      SPCTL
L251 LINKER/LOCATER V4.66.93.0                                                        09/12/2025  17:12:15  PAGE 94


      000000F8H   SFRSYM    DATA     BYTE      P7
      000000E8H   SFRSYM    DATA     BYTE      P6
      000000C8H   SFRSYM    DATA     BYTE      P5
      000000C0H   SFRSYM    DATA     BYTE      P4
      000000ABH   SFRSYM    DATA     BYTE      WKTCH
      000000B0H   SFRSYM    DATA     BYTE      P3
      000000A0H   SFRSYM    DATA     BYTE      P2
      00000090H   SFRSYM    DATA     BYTE      P1
      00000080H   SFRSYM    DATA     BYTE      P0
      R7          REGSYM    ---      BYTE      byte
      R6          REGSYM    ---      BYTE      i
      R7          REGSYM    ---      BYTE      cmd
      R15         REGSYM    ---      BYTE      val
      R10         REGSYM    ---      BYTE      cmd
      REG=3       REGSYM    ---      ---       val
      R10         REGSYM    ---      BYTE      cmd
      REG=3       REGSYM    ---      ---       val
      R11         REGSYM    ---      BYTE      reg
      R10         REGSYM    ---      BYTE      dat
      R7          REGSYM    ---      BYTE      reg
      R3          REGSYM    ---      BYTE      reg
      REG=1       REGSYM    ---      ---       dat
      DR28        REGSYM    ---      DWORD     len
      R14         REGSYM    ---      BYTE      dat
      R15         REGSYM    ---      BYTE      return_state
      WR12        REGSYM    ---      WORD      timeout_count
      R14         REGSYM    ---      BYTE      val
      R15         REGSYM    ---      BYTE      return_state
      WR12        REGSYM    ---      WORD      timeout_count

      ---         MODULE    ---      ---       zf_device_imu660ra
      00010D03H   PUBLIC    XDATA    INT       imu660ra_acc_x
      00010D05H   PUBLIC    XDATA    INT       imu660ra_acc_y
      00010D07H   PUBLIC    XDATA    INT       imu660ra_acc_z
      00010D09H   PUBLIC    XDATA    INT       imu660ra_gyro_x
      00010D0BH   PUBLIC    XDATA    INT       imu660ra_gyro_y
      00010D0DH   PUBLIC    XDATA    INT       imu660ra_gyro_z
      00010D0FH   PUBLIC    XDATA    ---       imu660ra_transition_factor
      000000D0H   SFRSYM    DATA     BYTE      PSW
      0000009DH   SFRSYM    DATA     BYTE      IRCBAND
      00000097H   SFRSYM    DATA     BYTE      AUXR2
      000000EFH   SFRSYM    DATA     BYTE      AUXINTIF
      000000FDH   SFRSYM    DATA     BYTE      S4CON
      000000ACH   SFRSYM    DATA     BYTE      S3CON
      0000009AH   SFRSYM    DATA     BYTE      S2CON
      000000B7H   SFRSYM    DATA     BYTE      IPH
      000000CDH   SFRSYM    DATA     BYTE      SPSTAT
      000000DDH   SFRSYM    DATA     BYTE      T4T3M
      000000C1H   SFRSYM    DATA     BYTE      WDT_CONTR
      000000DFH   SFRSYM    DATA     BYTE      IP3
      000000F4H   SFRSYM    DATA     BYTE      USBCON
      000000B5H   SFRSYM    DATA     BYTE      IP2
      000000FFH   SFRSYM    DATA     BYTE      RSTCFG
      000000C7H   SFRSYM    DATA     BYTE      IAP_CONTR
      0000008EH   SFRSYM    DATA     BYTE      AUXR
      000000AFH   SFRSYM    DATA     BYTE      IE2
      000000C0H.3 SFRSYM    DATA     BIT       P43
      000000C0H.2 SFRSYM    DATA     BIT       P42
      00000088H   SFRSYM    DATA     BYTE      TCON
      00000089H   SFRSYM    DATA     BYTE      TMOD
      000000C0H.1 SFRSYM    DATA     BIT       P41
      00000098H   SFRSYM    DATA     BYTE      SCON
      000000C0H.0 SFRSYM    DATA     BIT       P40
      00000087H   SFRSYM    DATA     BYTE      PCON
      000000BCH   SFRSYM    DATA     BYTE      ADC_CONTR
L251 LINKER/LOCATER V4.66.93.0                                                        09/12/2025  17:12:15  PAGE 95


      000000D1H   SFRSYM    DATA     BYTE      PSW1
      000000E7H   SFRSYM    DATA     BYTE      CMPCR2
      000000E6H   SFRSYM    DATA     BYTE      CMPCR1
      000000DEH   SFRSYM    DATA     BYTE      ADCCFG
      000000B8H   SFRSYM    DATA     BYTE      IP
      0000008FH   SFRSYM    DATA     BYTE      INTCLKO
      000000EEH   SFRSYM    DATA     BYTE      IP3H
      000000B6H   SFRSYM    DATA     BYTE      IP2H
      000000BFH   SFRSYM    DATA     BYTE      P_SW4
      000000A8H   SFRSYM    DATA     BYTE      IE
      000000BBH   SFRSYM    DATA     BYTE      P_SW3
      000000BAH   SFRSYM    DATA     BYTE      P_SW2
      000000A2H   SFRSYM    DATA     BYTE      P_SW1
      000000CEH   SFRSYM    DATA     BYTE      SPCTL
      000000F8H   SFRSYM    DATA     BYTE      P7
      000000E8H   SFRSYM    DATA     BYTE      P6
      000000C8H   SFRSYM    DATA     BYTE      P5
      000000C0H   SFRSYM    DATA     BYTE      P4
      000000ABH   SFRSYM    DATA     BYTE      WKTCH
      000000B0H   SFRSYM    DATA     BYTE      P3
      000000A0H   SFRSYM    DATA     BYTE      P2
      00000090H   SFRSYM    DATA     BYTE      P1
      00000080H   SFRSYM    DATA     BYTE      P0
      R7          REGSYM    ---      BYTE      byte
      R6          REGSYM    ---      BYTE      i
      R7          REGSYM    ---      BYTE      cmd
      R15         REGSYM    ---      BYTE      val
      R7          REGSYM    ---      BYTE      cmd
      DR12        REGSYM    ---      DWORD     len
      R10         REGSYM    ---      BYTE      cmd
      REG=3       REGSYM    ---      ---       val
      R11         REGSYM    ---      BYTE      reg
      R10         REGSYM    ---      BYTE      dat
      R3          REGSYM    ---      BYTE      reg
      REG=1       REGSYM    ---      ---       dat
      DR28        REGSYM    ---      DWORD     len
      R7          REGSYM    ---      BYTE      reg
      R5          REGSYM    ---      BYTE      reg
      REG=3       REGSYM    ---      ---       dat
      R14         REGSYM    ---      BYTE      dat
      R15         REGSYM    ---      BYTE      return_state
      WR12        REGSYM    ---      WORD      timeout_count
      R15         REGSYM    ---      BYTE      return_state

      ---         MODULE    ---      ---       zf_device_imu660rb
      00010D3CH   PUBLIC    XDATA    INT       imu660rb_acc_x
      00010D3EH   PUBLIC    XDATA    INT       imu660rb_acc_y
      00010D40H   PUBLIC    XDATA    INT       imu660rb_acc_z
      00010D42H   PUBLIC    XDATA    INT       imu660rb_gyro_x
      00010D44H   PUBLIC    XDATA    INT       imu660rb_gyro_y
      00010D46H   PUBLIC    XDATA    INT       imu660rb_gyro_z
      000000D0H   SFRSYM    DATA     BYTE      PSW
      0000009DH   SFRSYM    DATA     BYTE      IRCBAND
      00000097H   SFRSYM    DATA     BYTE      AUXR2
      000000EFH   SFRSYM    DATA     BYTE      AUXINTIF
      000000FDH   SFRSYM    DATA     BYTE      S4CON
      000000ACH   SFRSYM    DATA     BYTE      S3CON
      0000009AH   SFRSYM    DATA     BYTE      S2CON
      000000B7H   SFRSYM    DATA     BYTE      IPH
      000000CDH   SFRSYM    DATA     BYTE      SPSTAT
      000000DDH   SFRSYM    DATA     BYTE      T4T3M
      000000C1H   SFRSYM    DATA     BYTE      WDT_CONTR
      000000DFH   SFRSYM    DATA     BYTE      IP3
      000000F4H   SFRSYM    DATA     BYTE      USBCON
      000000B5H   SFRSYM    DATA     BYTE      IP2
L251 LINKER/LOCATER V4.66.93.0                                                        09/12/2025  17:12:15  PAGE 96


      000000FFH   SFRSYM    DATA     BYTE      RSTCFG
      000000C7H   SFRSYM    DATA     BYTE      IAP_CONTR
      0000008EH   SFRSYM    DATA     BYTE      AUXR
      000000AFH   SFRSYM    DATA     BYTE      IE2
      000000C0H.3 SFRSYM    DATA     BIT       P43
      000000C0H.2 SFRSYM    DATA     BIT       P42
      00000088H   SFRSYM    DATA     BYTE      TCON
      00000089H   SFRSYM    DATA     BYTE      TMOD
      000000C0H.1 SFRSYM    DATA     BIT       P41
      00000098H   SFRSYM    DATA     BYTE      SCON
      000000C0H.0 SFRSYM    DATA     BIT       P40
      00000087H   SFRSYM    DATA     BYTE      PCON
      000000BCH   SFRSYM    DATA     BYTE      ADC_CONTR
      000000D1H   SFRSYM    DATA     BYTE      PSW1
      000000E7H   SFRSYM    DATA     BYTE      CMPCR2
      000000E6H   SFRSYM    DATA     BYTE      CMPCR1
      000000DEH   SFRSYM    DATA     BYTE      ADCCFG
      000000B8H   SFRSYM    DATA     BYTE      IP
      0000008FH   SFRSYM    DATA     BYTE      INTCLKO
      000000EEH   SFRSYM    DATA     BYTE      IP3H
      000000B6H   SFRSYM    DATA     BYTE      IP2H
      000000BFH   SFRSYM    DATA     BYTE      P_SW4
      000000A8H   SFRSYM    DATA     BYTE      IE
      000000BBH   SFRSYM    DATA     BYTE      P_SW3
      000000BAH   SFRSYM    DATA     BYTE      P_SW2
      000000A2H   SFRSYM    DATA     BYTE      P_SW1
      000000CEH   SFRSYM    DATA     BYTE      SPCTL
      000000F8H   SFRSYM    DATA     BYTE      P7
      000000E8H   SFRSYM    DATA     BYTE      P6
      000000C8H   SFRSYM    DATA     BYTE      P5
      000000C0H   SFRSYM    DATA     BYTE      P4
      000000ABH   SFRSYM    DATA     BYTE      WKTCH
      000000B0H   SFRSYM    DATA     BYTE      P3
      000000A0H   SFRSYM    DATA     BYTE      P2
      00000090H   SFRSYM    DATA     BYTE      P1
      00000080H   SFRSYM    DATA     BYTE      P0
      R7          REGSYM    ---      BYTE      byte
      R6          REGSYM    ---      BYTE      i
      R7          REGSYM    ---      BYTE      cmd
      R15         REGSYM    ---      BYTE      val
      R10         REGSYM    ---      BYTE      cmd
      REG=3       REGSYM    ---      ---       val
      R10         REGSYM    ---      BYTE      cmd
      REG=3       REGSYM    ---      ---       val
      R11         REGSYM    ---      BYTE      reg
      R10         REGSYM    ---      BYTE      dat
      R7          REGSYM    ---      BYTE      reg
      R3          REGSYM    ---      BYTE      reg
      REG=1       REGSYM    ---      ---       dat
      DR28        REGSYM    ---      DWORD     len
      R14         REGSYM    ---      BYTE      dat
      R15         REGSYM    ---      BYTE      return_state
      WR12        REGSYM    ---      WORD      timeout_count
      WR30        REGSYM    ---      INT       acc_value
      DR24        REGSYM    ---      FLOAT     acc_data
      WR30        REGSYM    ---      INT       gyro_value
      DR24        REGSYM    ---      FLOAT     gyro_data
      R15         REGSYM    ---      BYTE      return_state

      ---         MODULE    ---      ---       zf_device_imu963ra
      00010CD1H   PUBLIC    XDATA    INT       imu963ra_acc_x
      00010CD3H   PUBLIC    XDATA    INT       imu963ra_acc_y
      00010CD5H   PUBLIC    XDATA    INT       imu963ra_acc_z
      00010CD7H   PUBLIC    XDATA    INT       imu963ra_mag_x
      00010CD9H   PUBLIC    XDATA    INT       imu963ra_mag_y
L251 LINKER/LOCATER V4.66.93.0                                                        09/12/2025  17:12:15  PAGE 97


      00010CDBH   PUBLIC    XDATA    INT       imu963ra_mag_z
      00010CDDH   PUBLIC    XDATA    INT       imu963ra_gyro_x
      00010CDFH   PUBLIC    XDATA    INT       imu963ra_gyro_y
      00010CE1H   PUBLIC    XDATA    INT       imu963ra_gyro_z
      00010CE3H   PUBLIC    XDATA    ---       imu963ra_transition_factor
      000000D0H   SFRSYM    DATA     BYTE      PSW
      0000009DH   SFRSYM    DATA     BYTE      IRCBAND
      00000097H   SFRSYM    DATA     BYTE      AUXR2
      000000EFH   SFRSYM    DATA     BYTE      AUXINTIF
      000000FDH   SFRSYM    DATA     BYTE      S4CON
      000000ACH   SFRSYM    DATA     BYTE      S3CON
      0000009AH   SFRSYM    DATA     BYTE      S2CON
      000000B7H   SFRSYM    DATA     BYTE      IPH
      000000CDH   SFRSYM    DATA     BYTE      SPSTAT
      000000DDH   SFRSYM    DATA     BYTE      T4T3M
      000000C1H   SFRSYM    DATA     BYTE      WDT_CONTR
      000000DFH   SFRSYM    DATA     BYTE      IP3
      000000F4H   SFRSYM    DATA     BYTE      USBCON
      000000B5H   SFRSYM    DATA     BYTE      IP2
      000000FFH   SFRSYM    DATA     BYTE      RSTCFG
      000000C7H   SFRSYM    DATA     BYTE      IAP_CONTR
      0000008EH   SFRSYM    DATA     BYTE      AUXR
      000000AFH   SFRSYM    DATA     BYTE      IE2
      000000C0H.3 SFRSYM    DATA     BIT       P43
      000000C0H.2 SFRSYM    DATA     BIT       P42
      00000088H   SFRSYM    DATA     BYTE      TCON
      00000089H   SFRSYM    DATA     BYTE      TMOD
      000000C0H.1 SFRSYM    DATA     BIT       P41
      00000098H   SFRSYM    DATA     BYTE      SCON
      000000C0H.0 SFRSYM    DATA     BIT       P40
      00000087H   SFRSYM    DATA     BYTE      PCON
      000000BCH   SFRSYM    DATA     BYTE      ADC_CONTR
      000000D1H   SFRSYM    DATA     BYTE      PSW1
      000000E7H   SFRSYM    DATA     BYTE      CMPCR2
      000000E6H   SFRSYM    DATA     BYTE      CMPCR1
      000000DEH   SFRSYM    DATA     BYTE      ADCCFG
      000000B8H   SFRSYM    DATA     BYTE      IP
      0000008FH   SFRSYM    DATA     BYTE      INTCLKO
      000000EEH   SFRSYM    DATA     BYTE      IP3H
      000000B6H   SFRSYM    DATA     BYTE      IP2H
      000000BFH   SFRSYM    DATA     BYTE      P_SW4
      000000A8H   SFRSYM    DATA     BYTE      IE
      000000BBH   SFRSYM    DATA     BYTE      P_SW3
      000000BAH   SFRSYM    DATA     BYTE      P_SW2
      000000A2H   SFRSYM    DATA     BYTE      P_SW1
      000000CEH   SFRSYM    DATA     BYTE      SPCTL
      000000F8H   SFRSYM    DATA     BYTE      P7
      000000E8H   SFRSYM    DATA     BYTE      P6
      000000C8H   SFRSYM    DATA     BYTE      P5
      000000C0H   SFRSYM    DATA     BYTE      P4
      000000ABH   SFRSYM    DATA     BYTE      WKTCH
      000000B0H   SFRSYM    DATA     BYTE      P3
      000000A0H   SFRSYM    DATA     BYTE      P2
      00000090H   SFRSYM    DATA     BYTE      P1
      00000080H   SFRSYM    DATA     BYTE      P0
      R7          REGSYM    ---      BYTE      byte
      R6          REGSYM    ---      BYTE      i
      R7          REGSYM    ---      BYTE      cmd
      R15         REGSYM    ---      BYTE      val
      R10         REGSYM    ---      BYTE      cmd
      REG=3       REGSYM    ---      ---       val
      R10         REGSYM    ---      BYTE      cmd
      REG=3       REGSYM    ---      ---       val
      R11         REGSYM    ---      BYTE      reg
      R10         REGSYM    ---      BYTE      dat
L251 LINKER/LOCATER V4.66.93.0                                                        09/12/2025  17:12:15  PAGE 98


      R10         REGSYM    ---      BYTE      reg
      R3          REGSYM    ---      BYTE      reg
      REG=1       REGSYM    ---      ---       dat
      DR28        REGSYM    ---      DWORD     len
      R15         REGSYM    ---      BYTE      addr
      R13         REGSYM    ---      BYTE      reg
      R14         REGSYM    ---      BYTE      dat
      R12         REGSYM    ---      BYTE      return_state
      R10         REGSYM    ---      BYTE      addr
      R15         REGSYM    ---      BYTE      reg
      WR12        REGSYM    ---      WORD      timeout_count
      R10         REGSYM    ---      BYTE      addr
      R15         REGSYM    ---      BYTE      reg
      R15         REGSYM    ---      BYTE      return_state
      R14         REGSYM    ---      BYTE      dat
      WR12        REGSYM    ---      WORD      timeout_count
      R15         REGSYM    ---      BYTE      return_state
      R14         REGSYM    ---      BYTE      dat
      WR12        REGSYM    ---      WORD      timeout_count
      R11         REGSYM    ---      BYTE      temp_status
      R15         REGSYM    ---      BYTE      return_state

      ---         MODULE    ---      ---       zf_device_gps_tau1201
      0001085AH   PUBLIC    XDATA    BYTE      gps_tau1201_flag
      000108DBH   PUBLIC    XDATA    ---       gps_tau1201
      00010A0FH   PUBLIC    XDATA    INT       gps_gga_state
      00010A11H   PUBLIC    XDATA    INT       gps_rmc_state
      000000D0H   SFRSYM    DATA     BYTE      PSW
      0000009DH   SFRSYM    DATA     BYTE      IRCBAND
      00000097H   SFRSYM    DATA     BYTE      AUXR2
      000000EFH   SFRSYM    DATA     BYTE      AUXINTIF
      000000FDH   SFRSYM    DATA     BYTE      S4CON
      000000ACH   SFRSYM    DATA     BYTE      S3CON
      0000009AH   SFRSYM    DATA     BYTE      S2CON
      000000B7H   SFRSYM    DATA     BYTE      IPH
      000000CDH   SFRSYM    DATA     BYTE      SPSTAT
      000000DDH   SFRSYM    DATA     BYTE      T4T3M
      000000C1H   SFRSYM    DATA     BYTE      WDT_CONTR
      000000DFH   SFRSYM    DATA     BYTE      IP3
      000000F4H   SFRSYM    DATA     BYTE      USBCON
      000000B5H   SFRSYM    DATA     BYTE      IP2
      000000FFH   SFRSYM    DATA     BYTE      RSTCFG
      000000C7H   SFRSYM    DATA     BYTE      IAP_CONTR
      0000008EH   SFRSYM    DATA     BYTE      AUXR
      000000AFH   SFRSYM    DATA     BYTE      IE2
      00000088H   SFRSYM    DATA     BYTE      TCON
      00000089H   SFRSYM    DATA     BYTE      TMOD
      00000098H   SFRSYM    DATA     BYTE      SCON
      00000087H   SFRSYM    DATA     BYTE      PCON
      000000BCH   SFRSYM    DATA     BYTE      ADC_CONTR
      000000D1H   SFRSYM    DATA     BYTE      PSW1
      000000E7H   SFRSYM    DATA     BYTE      CMPCR2
      000000E6H   SFRSYM    DATA     BYTE      CMPCR1
      000000DEH   SFRSYM    DATA     BYTE      ADCCFG
      000000B8H   SFRSYM    DATA     BYTE      IP
      0000008FH   SFRSYM    DATA     BYTE      INTCLKO
      000000EEH   SFRSYM    DATA     BYTE      IP3H
      000000B6H   SFRSYM    DATA     BYTE      IP2H
      000000BFH   SFRSYM    DATA     BYTE      P_SW4
      000000A8H   SFRSYM    DATA     BYTE      IE
      000000BBH   SFRSYM    DATA     BYTE      P_SW3
      000000BAH   SFRSYM    DATA     BYTE      P_SW2
      000000A2H   SFRSYM    DATA     BYTE      P_SW1
      000000CEH   SFRSYM    DATA     BYTE      SPCTL
      000000F8H   SFRSYM    DATA     BYTE      P7
L251 LINKER/LOCATER V4.66.93.0                                                        09/12/2025  17:12:15  PAGE 99


      000000E8H   SFRSYM    DATA     BYTE      P6
      000000C8H   SFRSYM    DATA     BYTE      P5
      000000C0H   SFRSYM    DATA     BYTE      P4
      000000ABH   SFRSYM    DATA     BYTE      WKTCH
      000000B0H   SFRSYM    DATA     BYTE      P3
      000000A0H   SFRSYM    DATA     BYTE      P2
      00000090H   SFRSYM    DATA     BYTE      P1
      00000080H   SFRSYM    DATA     BYTE      P0
      00FFA07EH   SYMBOL    HCONST   ---       ?tpl?0001
      00FFA083H   SYMBOL    HCONST   ---       ?tpl?0002
      00FFA09FH   SYMBOL    HCONST   ---       ?tpl?0003
      00FFA0AAH   SYMBOL    HCONST   ---       ?tpl?0004
      00FFA0B5H   SYMBOL    HCONST   ---       ?tpl?0005
      00FFA0C0H   SYMBOL    HCONST   ---       ?tpl?0006
      00FFA0CBH   SYMBOL    HCONST   ---       ?tpl?0007
      00FFA0D6H   SYMBOL    HCONST   ---       ?tpl?0008
      00FFA0E1H   SYMBOL    HCONST   ---       ?tpl?0009
      00FFA0ECH   SYMBOL    HCONST   ---       ?tpl?000A
      00FFA0F7H   SYMBOL    HCONST   ---       ?tpl?000B
      00FFA102H   SYMBOL    HCONST   ---       ?tpl?000C
      00FFA10DH   SYMBOL    HCONST   ---       ?tpl?000D
      00010843H   SYMBOL    XDATA    ---       gps_tau1201_receiver_fifo
      0001085BH   SYMBOL    XDATA    ---       gps_gga_buffer
      0001090EH   SYMBOL    XDATA    BYTE      gps_tau1201_state
      0001090FH   SYMBOL    XDATA    ---       gps_rmc_buffer
      0001098FH   SYMBOL    XDATA    ---       gps_tau1201_receiver_buffer
      REG=3       REGSYM    ---      ---       str
      REG=7       REGSYM    ---      ---       temp
      R7          REGSYM    ---      BYTE      len
      R10         REGSYM    ---      BYTE      len1
      REG=3       REGSYM    ---      ---       s
      REG=3       REGSYM    ---      ---       s
      REG=3       REGSYM    ---      ---       s
      REG=7       REGSYM    ---      ---       time
      R6          REGSYM    ---      BYTE      day_num
      REG=7       REGSYM    ---      ---       line
      REG=3       REGSYM    ---      ---       gps
      REG=0       REGSYM    ---      ---       line
      R15         REGSYM    ---      BYTE      state
      DR12        REGSYM    ---      DWORD     data_len

      ---         MODULE    ---      ---       zf_device_tsl1401
      00010641H   PUBLIC    XDATA    BYTE      tsl1401_finish_flag
      00010642H   PUBLIC    XDATA    ---       tsl1401_data
      000000D0H   SFRSYM    DATA     BYTE      PSW
      0000009DH   SFRSYM    DATA     BYTE      IRCBAND
      00000097H   SFRSYM    DATA     BYTE      AUXR2
      000000EFH   SFRSYM    DATA     BYTE      AUXINTIF
      000000FDH   SFRSYM    DATA     BYTE      S4CON
      000000ACH   SFRSYM    DATA     BYTE      S3CON
      0000009AH   SFRSYM    DATA     BYTE      S2CON
      000000B7H   SFRSYM    DATA     BYTE      IPH
      000000CDH   SFRSYM    DATA     BYTE      SPSTAT
      000000DDH   SFRSYM    DATA     BYTE      T4T3M
      000000C1H   SFRSYM    DATA     BYTE      WDT_CONTR
      000000DFH   SFRSYM    DATA     BYTE      IP3
      000000F4H   SFRSYM    DATA     BYTE      USBCON
      000000B5H   SFRSYM    DATA     BYTE      IP2
      000000FFH   SFRSYM    DATA     BYTE      RSTCFG
      000000C7H   SFRSYM    DATA     BYTE      IAP_CONTR
      0000008EH   SFRSYM    DATA     BYTE      AUXR
      000000AFH   SFRSYM    DATA     BYTE      IE2
      00000088H   SFRSYM    DATA     BYTE      TCON
      00000089H   SFRSYM    DATA     BYTE      TMOD
      00000098H   SFRSYM    DATA     BYTE      SCON
L251 LINKER/LOCATER V4.66.93.0                                                        09/12/2025  17:12:15  PAGE 100


      00000087H   SFRSYM    DATA     BYTE      PCON
      000000BCH   SFRSYM    DATA     BYTE      ADC_CONTR
      000000D1H   SFRSYM    DATA     BYTE      PSW1
      000000E7H   SFRSYM    DATA     BYTE      CMPCR2
      000000E6H   SFRSYM    DATA     BYTE      CMPCR1
      000000DEH   SFRSYM    DATA     BYTE      ADCCFG
      000000B8H   SFRSYM    DATA     BYTE      IP
      0000008FH   SFRSYM    DATA     BYTE      INTCLKO
      000000EEH   SFRSYM    DATA     BYTE      IP3H
      000000B6H   SFRSYM    DATA     BYTE      IP2H
      000000BFH   SFRSYM    DATA     BYTE      P_SW4
      000000A8H   SFRSYM    DATA     BYTE      IE
      000000BBH   SFRSYM    DATA     BYTE      P_SW3
      000000BAH   SFRSYM    DATA     BYTE      P_SW2
      000000A2H   SFRSYM    DATA     BYTE      P_SW1
      000000CEH   SFRSYM    DATA     BYTE      SPCTL
      000000F8H   SFRSYM    DATA     BYTE      P7
      000000E8H   SFRSYM    DATA     BYTE      P6
      000000C8H   SFRSYM    DATA     BYTE      P5
      000000C0H   SFRSYM    DATA     BYTE      P4
      000000ABH   SFRSYM    DATA     BYTE      WKTCH
      000000B0H   SFRSYM    DATA     BYTE      P3
      000000A0H   SFRSYM    DATA     BYTE      P2
      00000090H   SFRSYM    DATA     BYTE      P1
      00000080H   SFRSYM    DATA     BYTE      P0
      00010842H   SYMBOL    XDATA    BYTE      tsl1401_init_state
      R15         REGSYM    ---      BYTE      i
      WR14        REGSYM    ---      INT       uart_n
      R13         REGSYM    ---      BYTE      index
      R12         REGSYM    ---      BYTE      i

      ---         MODULE    ---      ---       seekfree_assistant
      00010A1BH   PUBLIC    XDATA    ---       seekfree_assistant_oscilloscope_data
      00010A56H   PUBLIC    XDATA    ---       seekfree_assistant_parameter_update_flag
      00010A5EH   PUBLIC    XDATA    ---       seekfree_assistant_parameter
      000000D0H   SFRSYM    DATA     BYTE      PSW
      0000009DH   SFRSYM    DATA     BYTE      IRCBAND
      00000097H   SFRSYM    DATA     BYTE      AUXR2
      000000EFH   SFRSYM    DATA     BYTE      AUXINTIF
      000000FDH   SFRSYM    DATA     BYTE      S4CON
      000000ACH   SFRSYM    DATA     BYTE      S3CON
      0000009AH   SFRSYM    DATA     BYTE      S2CON
      000000B7H   SFRSYM    DATA     BYTE      IPH
      000000CDH   SFRSYM    DATA     BYTE      SPSTAT
      000000DDH   SFRSYM    DATA     BYTE      T4T3M
      000000C1H   SFRSYM    DATA     BYTE      WDT_CONTR
      000000DFH   SFRSYM    DATA     BYTE      IP3
      000000F4H   SFRSYM    DATA     BYTE      USBCON
      000000B5H   SFRSYM    DATA     BYTE      IP2
      000000FFH   SFRSYM    DATA     BYTE      RSTCFG
      000000C7H   SFRSYM    DATA     BYTE      IAP_CONTR
      0000008EH   SFRSYM    DATA     BYTE      AUXR
      000000AFH   SFRSYM    DATA     BYTE      IE2
      00000088H   SFRSYM    DATA     BYTE      TCON
      00000089H   SFRSYM    DATA     BYTE      TMOD
      00000098H   SFRSYM    DATA     BYTE      SCON
      00000087H   SFRSYM    DATA     BYTE      PCON
      000000BCH   SFRSYM    DATA     BYTE      ADC_CONTR
      000000D1H   SFRSYM    DATA     BYTE      PSW1
      000000E7H   SFRSYM    DATA     BYTE      CMPCR2
      000000E6H   SFRSYM    DATA     BYTE      CMPCR1
      000000DEH   SFRSYM    DATA     BYTE      ADCCFG
      000000B8H   SFRSYM    DATA     BYTE      IP
      0000008FH   SFRSYM    DATA     BYTE      INTCLKO
      000000EEH   SFRSYM    DATA     BYTE      IP3H
L251 LINKER/LOCATER V4.66.93.0                                                        09/12/2025  17:12:15  PAGE 101


      000000B6H   SFRSYM    DATA     BYTE      IP2H
      000000BFH   SFRSYM    DATA     BYTE      P_SW4
      000000A8H   SFRSYM    DATA     BYTE      IE
      000000BBH   SFRSYM    DATA     BYTE      P_SW3
      000000BAH   SFRSYM    DATA     BYTE      P_SW2
      000000A2H   SFRSYM    DATA     BYTE      P_SW1
      000000CEH   SFRSYM    DATA     BYTE      SPCTL
      000000F8H   SFRSYM    DATA     BYTE      P7
      000000A8H.7 SFRSYM    DATA     BIT       EA
      000000E8H   SFRSYM    DATA     BYTE      P6
      000000C8H   SFRSYM    DATA     BYTE      P5
      000000C0H   SFRSYM    DATA     BYTE      P4
      000000ABH   SFRSYM    DATA     BYTE      WKTCH
      000000B0H   SFRSYM    DATA     BYTE      P3
      000000A0H   SFRSYM    DATA     BYTE      P2
      00000090H   SFRSYM    DATA     BYTE      P1
      00000080H   SFRSYM    DATA     BYTE      P0
      00010A13H   SYMBOL    XDATA    ---       seekfree_assistant_camera_dot_data
      00010A3FH   SYMBOL    XDATA    ---       seekfree_assistant_fifo
      00010A7EH   SYMBOL    XDATA    ---       seekfree_assistant_camera_buffer
      00010AC8H   SYMBOL    XDATA    ---       seekfree_assistant_camera_data
      00010AD0H   SYMBOL    XDATA    ---       seekfree_assistant_buffer
      00FF9FD2H   SYMBOL    HCONST   ---       ?tpl?0001
      00FF9FF6H   SYMBOL    HCONST   ---       ?tpl?0002
      REG=6       REGSYM    ---      ---       buffer
      DR28        REGSYM    ---      DWORD     length
      R11         REGSYM    ---      BYTE      temp_sum
      WR12        REGSYM    ---      INT       camera_type
      R9          REGSYM    ---      BYTE      boundary_num
      WR14        REGSYM    ---      WORD      width
      WR6         REGSYM    ---      INT       camera_type
      REG=0       REGSYM    ---      ---       image_addr
      WR8         REGSYM    ---      WORD      width
      REG=7       REGSYM    ---      ---       seekfree_assistant_oscilloscope
      R15         REGSYM    ---      BYTE      packet_size
      R14         REGSYM    ---      BYTE      i
      REG=3       REGSYM    ---      ---       buffer
      WR8         REGSYM    ---      INT       boundary_type
      WR2         REGSYM    ---      WORD      dot_num
      REG=7       REGSYM    ---      ---       dot_x1
      R6          REGSYM    ---      BYTE      i
      R7          REGSYM    ---      BYTE      boundary_num
      R5          REGSYM    ---      BYTE      boundary_data_type
      R15         REGSYM    ---      BYTE      temp_sum
      WR12        REGSYM    ---      WORD      struct_len

      ---         MODULE    ---      ---       seekfree_assistant_interface
      00010D9CH   PUBLIC    XDATA    ---       seekfree_assistant_receive_callback
      00010D9EH   PUBLIC    XDATA    ---       seekfree_assistant_transfer_callback
      000000D0H   SFRSYM    DATA     BYTE      PSW
      0000009DH   SFRSYM    DATA     BYTE      IRCBAND
      00000097H   SFRSYM    DATA     BYTE      AUXR2
      000000EFH   SFRSYM    DATA     BYTE      AUXINTIF
      000000FDH   SFRSYM    DATA     BYTE      S4CON
      000000ACH   SFRSYM    DATA     BYTE      S3CON
      0000009AH   SFRSYM    DATA     BYTE      S2CON
      000000B7H   SFRSYM    DATA     BYTE      IPH
      000000CDH   SFRSYM    DATA     BYTE      SPSTAT
      000000DDH   SFRSYM    DATA     BYTE      T4T3M
      000000C1H   SFRSYM    DATA     BYTE      WDT_CONTR
      000000DFH   SFRSYM    DATA     BYTE      IP3
      000000F4H   SFRSYM    DATA     BYTE      USBCON
      000000B5H   SFRSYM    DATA     BYTE      IP2
      000000FFH   SFRSYM    DATA     BYTE      RSTCFG
      000000C7H   SFRSYM    DATA     BYTE      IAP_CONTR
L251 LINKER/LOCATER V4.66.93.0                                                        09/12/2025  17:12:15  PAGE 102


      0000008EH   SFRSYM    DATA     BYTE      AUXR
      000000AFH   SFRSYM    DATA     BYTE      IE2
      00000088H   SFRSYM    DATA     BYTE      TCON
      00000089H   SFRSYM    DATA     BYTE      TMOD
      00000098H   SFRSYM    DATA     BYTE      SCON
      00000087H   SFRSYM    DATA     BYTE      PCON
      000000BCH   SFRSYM    DATA     BYTE      ADC_CONTR
      000000D1H   SFRSYM    DATA     BYTE      PSW1
      000000E7H   SFRSYM    DATA     BYTE      CMPCR2
      000000E6H   SFRSYM    DATA     BYTE      CMPCR1
      000000DEH   SFRSYM    DATA     BYTE      ADCCFG
      000000B8H   SFRSYM    DATA     BYTE      IP
      0000008FH   SFRSYM    DATA     BYTE      INTCLKO
      000000EEH   SFRSYM    DATA     BYTE      IP3H
      000000B6H   SFRSYM    DATA     BYTE      IP2H
      000000BFH   SFRSYM    DATA     BYTE      P_SW4
      000000A8H   SFRSYM    DATA     BYTE      IE
      000000BBH   SFRSYM    DATA     BYTE      P_SW3
      000000BAH   SFRSYM    DATA     BYTE      P_SW2
      000000A2H   SFRSYM    DATA     BYTE      P_SW1
      000000CEH   SFRSYM    DATA     BYTE      SPCTL
      000000F8H   SFRSYM    DATA     BYTE      P7
      000000E8H   SFRSYM    DATA     BYTE      P6
      000000C8H   SFRSYM    DATA     BYTE      P5
      000000C0H   SFRSYM    DATA     BYTE      P4
      000000ABH   SFRSYM    DATA     BYTE      WKTCH
      000000B0H   SFRSYM    DATA     BYTE      P3
      000000A0H   SFRSYM    DATA     BYTE      P2
      00000090H   SFRSYM    DATA     BYTE      P1
      00000080H   SFRSYM    DATA     BYTE      P0
      WR6         REGSYM    ---      INT       transfer_device

      ---         MODULE    ---      ---       isr
      00FF86D2H   PUBLIC    CODE     ---       TM11_IRQHandler
      00FF7AA3H   PUBLIC    CODE     ---       DMA_UART1_IRQHandler
      00FF7E21H   PUBLIC    CODE     ---       DMA_UART2_IRQHandler
      00FF7EAAH   PUBLIC    CODE     ---       DMA_UART3_IRQHandler
      00FF7F33H   PUBLIC    CODE     ---       DMA_UART4_IRQHandler
      00FF88BFH   PUBLIC    CODE     ---       TM0_IRQHandler
      00FF88FDH   PUBLIC    CODE     ---       TM1_IRQHandler
      00FF893BH   PUBLIC    CODE     ---       TM2_IRQHandler
      00FF8979H   PUBLIC    CODE     ---       TM3_IRQHandler
      00FF89B7H   PUBLIC    CODE     ---       TM4_IRQHandler
      000000D0H   SFRSYM    DATA     BYTE      PSW
      0000009DH   SFRSYM    DATA     BYTE      IRCBAND
      00000097H   SFRSYM    DATA     BYTE      AUXR2
      000000EFH   SFRSYM    DATA     BYTE      AUXINTIF
      000000FDH   SFRSYM    DATA     BYTE      S4CON
      000000ACH   SFRSYM    DATA     BYTE      S3CON
      0000009AH   SFRSYM    DATA     BYTE      S2CON
      000000B7H   SFRSYM    DATA     BYTE      IPH
      000000CDH   SFRSYM    DATA     BYTE      SPSTAT
      000000DDH   SFRSYM    DATA     BYTE      T4T3M
      000000C1H   SFRSYM    DATA     BYTE      WDT_CONTR
      000000DFH   SFRSYM    DATA     BYTE      IP3
      000000F4H   SFRSYM    DATA     BYTE      USBCON
      000000B5H   SFRSYM    DATA     BYTE      IP2
      000000FFH   SFRSYM    DATA     BYTE      RSTCFG
      000000C7H   SFRSYM    DATA     BYTE      IAP_CONTR
      0000008EH   SFRSYM    DATA     BYTE      AUXR
      000000AFH   SFRSYM    DATA     BYTE      IE2
      00000088H   SFRSYM    DATA     BYTE      TCON
      00000089H   SFRSYM    DATA     BYTE      TMOD
      00000098H   SFRSYM    DATA     BYTE      SCON
      00000087H   SFRSYM    DATA     BYTE      PCON
L251 LINKER/LOCATER V4.66.93.0                                                        09/12/2025  17:12:15  PAGE 103


      000000BCH   SFRSYM    DATA     BYTE      ADC_CONTR
      000000D1H   SFRSYM    DATA     BYTE      PSW1
      000000E7H   SFRSYM    DATA     BYTE      CMPCR2
      000000E6H   SFRSYM    DATA     BYTE      CMPCR1
      000000DEH   SFRSYM    DATA     BYTE      ADCCFG
      000000B8H   SFRSYM    DATA     BYTE      IP
      0000008FH   SFRSYM    DATA     BYTE      INTCLKO
      000000EEH   SFRSYM    DATA     BYTE      IP3H
      000000B6H   SFRSYM    DATA     BYTE      IP2H
      000000BFH   SFRSYM    DATA     BYTE      P_SW4
      000000A8H   SFRSYM    DATA     BYTE      IE
      000000BBH   SFRSYM    DATA     BYTE      P_SW3
      000000BAH   SFRSYM    DATA     BYTE      P_SW2
      000000A2H   SFRSYM    DATA     BYTE      P_SW1
      000000CEH   SFRSYM    DATA     BYTE      SPCTL
      000000F8H   SFRSYM    DATA     BYTE      P7
      000000E8H   SFRSYM    DATA     BYTE      P6
      000000C8H   SFRSYM    DATA     BYTE      P5
      000000C0H   SFRSYM    DATA     BYTE      P4
      000000ABH   SFRSYM    DATA     BYTE      WKTCH
      000000B0H   SFRSYM    DATA     BYTE      P3
      000000A0H   SFRSYM    DATA     BYTE      P2
      00000090H   SFRSYM    DATA     BYTE      P1
      00000080H   SFRSYM    DATA     BYTE      P0

      00FF7AA3H   BLOCK     CODE     ---       LVL=0
      00FF7AB7H   BLOCK     CODE     NEAR LAB  LVL=1
      00010DA8H   SYMBOL    XDATA    BYTE      dwon_count
      ---         BLOCKEND  ---      ---       LVL=1
      00FF7AA3H   LINE      CODE     ---       #40
      00FF7AB7H   LINE      CODE     ---       #41
      00FF7AB7H   LINE      CODE     ---       #43
      00FF7AC5H   LINE      CODE     ---       #45
      00FF7AD5H   LINE      CODE     ---       #46
      00FF7ADAH   LINE      CODE     ---       #49
      00FF7AE1H   LINE      CODE     ---       #51
      00FF7AF0H   LINE      CODE     ---       #53
      00FF7AF3H   LINE      CODE     ---       #54
      00FF7AF5H   LINE      CODE     ---       #58
      00FF7AFAH   LINE      CODE     ---       #59
      00FF7AFAH   LINE      CODE     ---       #61
      00FF7B04H   LINE      CODE     ---       #63
      00FF7B10H   LINE      CODE     ---       #64
      00FF7B10H   LINE      CODE     ---       #67
      00FF7B1EH   LINE      CODE     ---       #69
      00FF7B2EH   LINE      CODE     ---       #70
      00FF7B33H   LINE      CODE     ---       #74
      ---         BLOCKEND  ---      ---       LVL=0

      00FF7E21H   BLOCK     CODE     ---       LVL=0
      00FF7E21H   LINE      CODE     ---       #79
      00FF7E35H   LINE      CODE     ---       #82
      00FF7E43H   LINE      CODE     ---       #84
      00FF7E53H   LINE      CODE     ---       #85
      00FF7E5AH   LINE      CODE     ---       #87
      00FF7E64H   LINE      CODE     ---       #89
      00FF7E70H   LINE      CODE     ---       #90
      00FF7E70H   LINE      CODE     ---       #93
      00FF7E7EH   LINE      CODE     ---       #95
      00FF7E8EH   LINE      CODE     ---       #96
      00FF7E95H   LINE      CODE     ---       #101
      ---         BLOCKEND  ---      ---       LVL=0

      00FF7EAAH   BLOCK     CODE     ---       LVL=0
      00FF7EAAH   LINE      CODE     ---       #104
L251 LINKER/LOCATER V4.66.93.0                                                        09/12/2025  17:12:15  PAGE 104


      00FF7EBEH   LINE      CODE     ---       #107
      00FF7ECCH   LINE      CODE     ---       #109
      00FF7EDCH   LINE      CODE     ---       #110
      00FF7EE3H   LINE      CODE     ---       #112
      00FF7EEDH   LINE      CODE     ---       #115
      00FF7EF9H   LINE      CODE     ---       #117
      00FF7EF9H   LINE      CODE     ---       #120
      00FF7F07H   LINE      CODE     ---       #122
      00FF7F17H   LINE      CODE     ---       #123
      00FF7F1EH   LINE      CODE     ---       #128
      ---         BLOCKEND  ---      ---       LVL=0

      00FF7F33H   BLOCK     CODE     ---       LVL=0
      00FF7F33H   LINE      CODE     ---       #131
      00FF7F47H   LINE      CODE     ---       #134
      00FF7F55H   LINE      CODE     ---       #136
      00FF7F65H   LINE      CODE     ---       #137
      00FF7F6CH   LINE      CODE     ---       #139
      00FF7F76H   LINE      CODE     ---       #141
      00FF7F82H   LINE      CODE     ---       #143
      00FF7F82H   LINE      CODE     ---       #146
      00FF7F90H   LINE      CODE     ---       #148
      00FF7FA0H   LINE      CODE     ---       #149
      00FF7FA7H   LINE      CODE     ---       #154
      ---         BLOCKEND  ---      ---       LVL=0

      00FF88BFH   BLOCK     CODE     ---       LVL=0
      00FF88BFH   LINE      CODE     ---       #158
      00FF88D3H   LINE      CODE     ---       #160
      00FF88D6H   LINE      CODE     ---       #162
      00FF88E0H   LINE      CODE     ---       #164
      00FF88E8H   LINE      CODE     ---       #165
      ---         BLOCKEND  ---      ---       LVL=0

      00FF88FDH   BLOCK     CODE     ---       LVL=0
      00FF88FDH   LINE      CODE     ---       #167
      00FF8911H   LINE      CODE     ---       #169
      00FF8914H   LINE      CODE     ---       #171
      00FF891EH   LINE      CODE     ---       #173
      00FF8926H   LINE      CODE     ---       #174
      ---         BLOCKEND  ---      ---       LVL=0

      00FF893BH   BLOCK     CODE     ---       LVL=0
      00FF893BH   LINE      CODE     ---       #176
      00FF894FH   LINE      CODE     ---       #178
      00FF8952H   LINE      CODE     ---       #180
      00FF895CH   LINE      CODE     ---       #182
      00FF8964H   LINE      CODE     ---       #183
      ---         BLOCKEND  ---      ---       LVL=0

      00FF8979H   BLOCK     CODE     ---       LVL=0
      00FF8979H   LINE      CODE     ---       #185
      00FF898DH   LINE      CODE     ---       #187
      00FF8990H   LINE      CODE     ---       #189
      00FF899AH   LINE      CODE     ---       #191
      00FF89A2H   LINE      CODE     ---       #192
      ---         BLOCKEND  ---      ---       LVL=0

      00FF89B7H   BLOCK     CODE     ---       LVL=0
      00FF89B7H   LINE      CODE     ---       #195
      00FF89CBH   LINE      CODE     ---       #197
      00FF89CEH   LINE      CODE     ---       #199
      00FF89D8H   LINE      CODE     ---       #201
      00FF89E0H   LINE      CODE     ---       #202
      ---         BLOCKEND  ---      ---       LVL=0
L251 LINKER/LOCATER V4.66.93.0                                                        09/12/2025  17:12:15  PAGE 105



      00FF86D2H   BLOCK     CODE     ---       LVL=0
      00FF86D2H   LINE      CODE     ---       #205
      00FF86E6H   LINE      CODE     ---       #207
      00FF86F6H   LINE      CODE     ---       #209
      00FF8700H   LINE      CODE     ---       #211
      00FF8708H   LINE      CODE     ---       #212
      ---         BLOCKEND  ---      ---       LVL=0

      ---         MODULE    ---      ---       main
      00FF7D94H   PUBLIC    CODE     ---       pit_handler
      00FF0066H   PUBLIC    CODE     ---       main
      00FF8A9FH   PUBLIC    CODE     ---       _m
      00010D8EH   PUBLIC    XDATA    FLOAT     test
      00010D92H   PUBLIC    XDATA    INT       T
      000000D0H   SFRSYM    DATA     BYTE      PSW
      0000009DH   SFRSYM    DATA     BYTE      IRCBAND
      00000097H   SFRSYM    DATA     BYTE      AUXR2
      000000EFH   SFRSYM    DATA     BYTE      AUXINTIF
      000000FDH   SFRSYM    DATA     BYTE      S4CON
      000000ACH   SFRSYM    DATA     BYTE      S3CON
      0000009AH   SFRSYM    DATA     BYTE      S2CON
      000000B7H   SFRSYM    DATA     BYTE      IPH
      000000CDH   SFRSYM    DATA     BYTE      SPSTAT
      000000DDH   SFRSYM    DATA     BYTE      T4T3M
      000000C1H   SFRSYM    DATA     BYTE      WDT_CONTR
      000000DFH   SFRSYM    DATA     BYTE      IP3
      000000F4H   SFRSYM    DATA     BYTE      USBCON
      000000B5H   SFRSYM    DATA     BYTE      IP2
      000000FFH   SFRSYM    DATA     BYTE      RSTCFG
      000000C7H   SFRSYM    DATA     BYTE      IAP_CONTR
      0000008EH   SFRSYM    DATA     BYTE      AUXR
      000000AFH   SFRSYM    DATA     BYTE      IE2
      00000088H   SFRSYM    DATA     BYTE      TCON
      00000089H   SFRSYM    DATA     BYTE      TMOD
      00000098H   SFRSYM    DATA     BYTE      SCON
      00000087H   SFRSYM    DATA     BYTE      PCON
      000000BCH   SFRSYM    DATA     BYTE      ADC_CONTR
      000000D1H   SFRSYM    DATA     BYTE      PSW1
      000000E7H   SFRSYM    DATA     BYTE      CMPCR2
      000000E6H   SFRSYM    DATA     BYTE      CMPCR1
      000000DEH   SFRSYM    DATA     BYTE      ADCCFG
      000000B8H   SFRSYM    DATA     BYTE      IP
      0000008FH   SFRSYM    DATA     BYTE      INTCLKO
      000000EEH   SFRSYM    DATA     BYTE      IP3H
      000000B6H   SFRSYM    DATA     BYTE      IP2H
      000000BFH   SFRSYM    DATA     BYTE      P_SW4
      000000A8H   SFRSYM    DATA     BYTE      IE
      000000BBH   SFRSYM    DATA     BYTE      P_SW3
      000000BAH   SFRSYM    DATA     BYTE      P_SW2
      000000A2H   SFRSYM    DATA     BYTE      P_SW1
      000000CEH   SFRSYM    DATA     BYTE      SPCTL
      000000F8H   SFRSYM    DATA     BYTE      P7
      000000A8H.7 SFRSYM    DATA     BIT       EA
      000000E8H   SFRSYM    DATA     BYTE      P6
      000000C8H   SFRSYM    DATA     BYTE      P5
      000000C0H   SFRSYM    DATA     BYTE      P4
      000000ABH   SFRSYM    DATA     BYTE      WKTCH
      000000B0H   SFRSYM    DATA     BYTE      P3
      000000A0H   SFRSYM    DATA     BYTE      P2
      00000090H   SFRSYM    DATA     BYTE      P1
      00000080H   SFRSYM    DATA     BYTE      P0

      00FF0066H   BLOCK     CODE     ---       LVL=0
      00FF0066H   LINE      CODE     ---       #5
L251 LINKER/LOCATER V4.66.93.0                                                        09/12/2025  17:12:15  PAGE 106


      ---         BLOCKEND  ---      ---       LVL=0

      00FF8A9FH   BLOCK     CODE     ---       LVL=0
      00FF8A9FH   LINE      CODE     ---       #5
      00FF8A9FH   LINE      CODE     ---       #7
      00FF8AAAH   LINE      CODE     ---       #8
      00FF8AADH   LINE      CODE     ---       #10
      00FF8AB7H   LINE      CODE     ---       #11
      00FF8ABAH   LINE      CODE     ---       #12
      00FF8ABAH   LINE      CODE     ---       #14
      00FF8AC0H   LINE      CODE     ---       #16
      00FF8AC2H   LINE      CODE     ---       #17
      00FF8AC9H   LINE      CODE     ---       #18
      00FF8ACEH   LINE      CODE     ---       #19
      00FF8AD0H   LINE      CODE     ---       #20
      ---         BLOCKEND  ---      ---       LVL=0

      00FF7D94H   BLOCK     CODE     ---       LVL=0
      00FF7D94H   LINE      CODE     ---       #23
      00FF7D94H   LINE      CODE     ---       #25
      00FF7DB4H   LINE      CODE     ---       #26
      00FF7DD6H   LINE      CODE     ---       #27
      00FF7DF8H   LINE      CODE     ---       #28
      00FF7E1AH   LINE      CODE     ---       #29
      00FF7E1DH   LINE      CODE     ---       #30
      00FF7E20H   LINE      CODE     ---       #31
      ---         BLOCKEND  ---      ---       LVL=0

      ---         MODULE    ---      ---       ADC_Get
      00FF71CEH   PUBLIC    CODE     ---       ADC_SampleAndFilter
      00FF6E65H   PUBLIC    CODE     ---       adc_filter
      00FF8B02H   PUBLIC    CODE     ---       ADC_GetInit
      00010C57H   PUBLIC    XDATA    ---       raw_adc_data
      00010C7FH   PUBLIC    XDATA    ---       filtered_adc
      00000020H.2 PUBLIC    BIT      BIT       Battery_Init
      000000D0H   SFRSYM    DATA     BYTE      PSW
      0000009DH   SFRSYM    DATA     BYTE      IRCBAND
      00000097H   SFRSYM    DATA     BYTE      AUXR2
      000000EFH   SFRSYM    DATA     BYTE      AUXINTIF
      000000FDH   SFRSYM    DATA     BYTE      S4CON
      000000ACH   SFRSYM    DATA     BYTE      S3CON
      0000009AH   SFRSYM    DATA     BYTE      S2CON
      000000B7H   SFRSYM    DATA     BYTE      IPH
      000000CDH   SFRSYM    DATA     BYTE      SPSTAT
      000000DDH   SFRSYM    DATA     BYTE      T4T3M
      000000C1H   SFRSYM    DATA     BYTE      WDT_CONTR
      000000DFH   SFRSYM    DATA     BYTE      IP3
      000000F4H   SFRSYM    DATA     BYTE      USBCON
      000000B5H   SFRSYM    DATA     BYTE      IP2
      000000FFH   SFRSYM    DATA     BYTE      RSTCFG
      000000C7H   SFRSYM    DATA     BYTE      IAP_CONTR
      0000008EH   SFRSYM    DATA     BYTE      AUXR
      000000AFH   SFRSYM    DATA     BYTE      IE2
      00000088H   SFRSYM    DATA     BYTE      TCON
      00000089H   SFRSYM    DATA     BYTE      TMOD
      00000098H   SFRSYM    DATA     BYTE      SCON
      00000087H   SFRSYM    DATA     BYTE      PCON
      000000BCH   SFRSYM    DATA     BYTE      ADC_CONTR
      000000D1H   SFRSYM    DATA     BYTE      PSW1
      000000E7H   SFRSYM    DATA     BYTE      CMPCR2
      000000E6H   SFRSYM    DATA     BYTE      CMPCR1
      000000DEH   SFRSYM    DATA     BYTE      ADCCFG
      000000B8H   SFRSYM    DATA     BYTE      IP
      0000008FH   SFRSYM    DATA     BYTE      INTCLKO
      000000EEH   SFRSYM    DATA     BYTE      IP3H
L251 LINKER/LOCATER V4.66.93.0                                                        09/12/2025  17:12:15  PAGE 107


      000000B6H   SFRSYM    DATA     BYTE      IP2H
      000000BFH   SFRSYM    DATA     BYTE      P_SW4
      000000A8H   SFRSYM    DATA     BYTE      IE
      000000BBH   SFRSYM    DATA     BYTE      P_SW3
      000000BAH   SFRSYM    DATA     BYTE      P_SW2
      000000A2H   SFRSYM    DATA     BYTE      P_SW1
      000000CEH   SFRSYM    DATA     BYTE      SPCTL
      000000F8H   SFRSYM    DATA     BYTE      P7
      000000E8H   SFRSYM    DATA     BYTE      P6
      000000C8H   SFRSYM    DATA     BYTE      P5
      000000C0H   SFRSYM    DATA     BYTE      P4
      000000ABH   SFRSYM    DATA     BYTE      WKTCH
      000000B0H   SFRSYM    DATA     BYTE      P3
      000000A0H   SFRSYM    DATA     BYTE      P2
      00000090H   SFRSYM    DATA     BYTE      P1
      00000080H   SFRSYM    DATA     BYTE      P0

      00FF8B02H   BLOCK     CODE     ---       LVL=0
      00FF8B02H   LINE      CODE     ---       #7
      00FF8B02H   LINE      CODE     ---       #9
      00FF8B0BH   LINE      CODE     ---       #10
      00FF8B16H   LINE      CODE     ---       #11
      00FF8B21H   LINE      CODE     ---       #12
      00FF8B2CH   LINE      CODE     ---       #13
      ---         BLOCKEND  ---      ---       LVL=0

      00FF6E65H   BLOCK     CODE     ---       LVL=0
      REG=7       REGSYM    ---      ---       samples
      R15         REGSYM    ---      BYTE      count
      00FF6E6BH   BLOCK     CODE     NEAR LAB  LVL=1
      0001043BH   SYMBOL    XDATA    ---       temp
      R14         REGSYM    ---      BYTE      i
      R7          REGSYM    ---      BYTE      j
      WR8         REGSYM    ---      WORD      swap
      DR24        REGSYM    ---      DWORD     sum
      ---         BLOCKEND  ---      ---       LVL=1
      00FF6E65H   LINE      CODE     ---       #16
      00FF6E6BH   LINE      CODE     ---       #17
      00FF6E6BH   LINE      CODE     ---       #21
      00FF6E6DH   LINE      CODE     ---       #23
      00FF6E72H   LINE      CODE     ---       #25
      00FF6E74H   LINE      CODE     ---       #26
      00FF6E78H   LINE      CODE     ---       #28
      00FF6E87H   LINE      CODE     ---       #29
      00FF6E8DH   LINE      CODE     ---       #30
      00FF6E99H   LINE      CODE     ---       #31
      00FF6E99H   LINE      CODE     ---       #33
      00FF6E9DH   LINE      CODE     ---       #35
      00FF6EBAH   LINE      CODE     ---       #36
      00FF6EC0H   LINE      CODE     ---       #38
      00FF6EC5H   LINE      CODE     ---       #40
      00FF6EC9H   LINE      CODE     ---       #42
      00FF6EF0H   LINE      CODE     ---       #44
      00FF6F02H   LINE      CODE     ---       #45
      00FF6F24H   LINE      CODE     ---       #46
      00FF6F35H   LINE      CODE     ---       #47
      00FF6F45H   LINE      CODE     ---       #49
      00FF6F54H   LINE      CODE     ---       #51
      00FF6F56H   LINE      CODE     ---       #52
      00FF6F5BH   LINE      CODE     ---       #54
      00FF6F71H   LINE      CODE     ---       #55
      00FF6F7DH   LINE      CODE     ---       #57
      00FF6F88H   LINE      CODE     ---       #58
      ---         BLOCKEND  ---      ---       LVL=0

L251 LINKER/LOCATER V4.66.93.0                                                        09/12/2025  17:12:15  PAGE 108


      00FF71CEH   BLOCK     CODE     ---       LVL=0
      00FF71D0H   BLOCK     CODE     NEAR LAB  LVL=1
      R14         REGSYM    ---      BYTE      sample_index
      R15         REGSYM    ---      BYTE      channel_index
      ---         BLOCKEND  ---      ---       LVL=1
      00FF71CEH   LINE      CODE     ---       #61
      00FF71D0H   LINE      CODE     ---       #62
      00FF71D0H   LINE      CODE     ---       #63
      00FF71D2H   LINE      CODE     ---       #64
      00FF71D4H   LINE      CODE     ---       #67
      00FF71D8H   LINE      CODE     ---       #69
      00FF71F3H   LINE      CODE     ---       #70
      00FF720EH   LINE      CODE     ---       #71
      00FF7229H   LINE      CODE     ---       #72
      00FF7242H   LINE      CODE     ---       #73
      00FF7249H   LINE      CODE     ---       #76
      00FF724DH   LINE      CODE     ---       #78
      00FF7273H   LINE      CODE     ---       #79
      00FF727AH   LINE      CODE     ---       #81
      00FF728EH   LINE      CODE     ---       #82
      00FF72A2H   LINE      CODE     ---       #83
      00FF72B6H   LINE      CODE     ---       #84
      00FF72CAH   LINE      CODE     ---       #85
      ---         BLOCKEND  ---      ---       LVL=0
      WR14        REGSYM    ---      WORD      battery_adc
      WR2         REGSYM    ---      WORD      ref_adc
      WR6         REGSYM    ---      WORD      battery_v
      R13         REGSYM    ---      BYTE      i

      ---         MODULE    ---      ---       control
      00010C87H   PUBLIC    XDATA    ---       servo_pid
      000000D0H   SFRSYM    DATA     BYTE      PSW
      0000009DH   SFRSYM    DATA     BYTE      IRCBAND
      00000097H   SFRSYM    DATA     BYTE      AUXR2
      000000EFH   SFRSYM    DATA     BYTE      AUXINTIF
      000000FDH   SFRSYM    DATA     BYTE      S4CON
      000000ACH   SFRSYM    DATA     BYTE      S3CON
      0000009AH   SFRSYM    DATA     BYTE      S2CON
      000000B7H   SFRSYM    DATA     BYTE      IPH
      000000CDH   SFRSYM    DATA     BYTE      SPSTAT
      000000DDH   SFRSYM    DATA     BYTE      T4T3M
      000000C1H   SFRSYM    DATA     BYTE      WDT_CONTR
      000000DFH   SFRSYM    DATA     BYTE      IP3
      000000F4H   SFRSYM    DATA     BYTE      USBCON
      000000B5H   SFRSYM    DATA     BYTE      IP2
      000000FFH   SFRSYM    DATA     BYTE      RSTCFG
      000000C7H   SFRSYM    DATA     BYTE      IAP_CONTR
      0000008EH   SFRSYM    DATA     BYTE      AUXR
      000000AFH   SFRSYM    DATA     BYTE      IE2
      00000088H   SFRSYM    DATA     BYTE      TCON
      00000089H   SFRSYM    DATA     BYTE      TMOD
      00000098H   SFRSYM    DATA     BYTE      SCON
      00000087H   SFRSYM    DATA     BYTE      PCON
      000000BCH   SFRSYM    DATA     BYTE      ADC_CONTR
      000000D1H   SFRSYM    DATA     BYTE      PSW1
      000000E7H   SFRSYM    DATA     BYTE      CMPCR2
      000000E6H   SFRSYM    DATA     BYTE      CMPCR1
      000000DEH   SFRSYM    DATA     BYTE      ADCCFG
      000000B8H   SFRSYM    DATA     BYTE      IP
      0000008FH   SFRSYM    DATA     BYTE      INTCLKO
      000000EEH   SFRSYM    DATA     BYTE      IP3H
      000000B6H   SFRSYM    DATA     BYTE      IP2H
      000000BFH   SFRSYM    DATA     BYTE      P_SW4
      000000A8H   SFRSYM    DATA     BYTE      IE
      000000BBH   SFRSYM    DATA     BYTE      P_SW3
L251 LINKER/LOCATER V4.66.93.0                                                        09/12/2025  17:12:15  PAGE 109


      000000BAH   SFRSYM    DATA     BYTE      P_SW2
      000000A2H   SFRSYM    DATA     BYTE      P_SW1
      000000CEH   SFRSYM    DATA     BYTE      SPCTL
      000000F8H   SFRSYM    DATA     BYTE      P7
      000000E8H   SFRSYM    DATA     BYTE      P6
      000000C8H   SFRSYM    DATA     BYTE      P5
      000000C0H   SFRSYM    DATA     BYTE      P4
      000000ABH   SFRSYM    DATA     BYTE      WKTCH
      000000B0H   SFRSYM    DATA     BYTE      P3
      000000A0H   SFRSYM    DATA     BYTE      P2
      00000090H   SFRSYM    DATA     BYTE      P1
      00000080H   SFRSYM    DATA     BYTE      P0
      WR4         REGSYM    ---      INT       value
      DR8         REGSYM    ---      FLOAT     point
      WR12        REGSYM    ---      INT       min
      WR14        REGSYM    ---      INT       max
      DR28        REGSYM    ---      FLOAT     servo_value
      WR14        REGSYM    ---      INT       pwm
      WR14        REGSYM    ---      INT       pwm

      ---         MODULE    ---      ---       eeprom
      00FF8044H   PUBLIC    CODE     ---       eeprom_save_Num
      000000D0H   SFRSYM    DATA     BYTE      PSW
      0000009DH   SFRSYM    DATA     BYTE      IRCBAND
      00000097H   SFRSYM    DATA     BYTE      AUXR2
      000000EFH   SFRSYM    DATA     BYTE      AUXINTIF
      000000FDH   SFRSYM    DATA     BYTE      S4CON
      000000ACH   SFRSYM    DATA     BYTE      S3CON
      0000009AH   SFRSYM    DATA     BYTE      S2CON
      000000B7H   SFRSYM    DATA     BYTE      IPH
      000000CDH   SFRSYM    DATA     BYTE      SPSTAT
      000000DDH   SFRSYM    DATA     BYTE      T4T3M
      000000C1H   SFRSYM    DATA     BYTE      WDT_CONTR
      000000DFH   SFRSYM    DATA     BYTE      IP3
      000000F4H   SFRSYM    DATA     BYTE      USBCON
      000000B5H   SFRSYM    DATA     BYTE      IP2
      000000FFH   SFRSYM    DATA     BYTE      RSTCFG
      000000C7H   SFRSYM    DATA     BYTE      IAP_CONTR
      0000008EH   SFRSYM    DATA     BYTE      AUXR
      000000AFH   SFRSYM    DATA     BYTE      IE2
      00000088H   SFRSYM    DATA     BYTE      TCON
      00000089H   SFRSYM    DATA     BYTE      TMOD
      00000098H   SFRSYM    DATA     BYTE      SCON
      00000087H   SFRSYM    DATA     BYTE      PCON
      000000BCH   SFRSYM    DATA     BYTE      ADC_CONTR
      000000D1H   SFRSYM    DATA     BYTE      PSW1
      000000E7H   SFRSYM    DATA     BYTE      CMPCR2
      000000E6H   SFRSYM    DATA     BYTE      CMPCR1
      000000DEH   SFRSYM    DATA     BYTE      ADCCFG
      000000B8H   SFRSYM    DATA     BYTE      IP
      0000008FH   SFRSYM    DATA     BYTE      INTCLKO
      000000EEH   SFRSYM    DATA     BYTE      IP3H
      000000B6H   SFRSYM    DATA     BYTE      IP2H
      000000BFH   SFRSYM    DATA     BYTE      P_SW4
      000000A8H   SFRSYM    DATA     BYTE      IE
      000000BBH   SFRSYM    DATA     BYTE      P_SW3
      000000BAH   SFRSYM    DATA     BYTE      P_SW2
      000000A2H   SFRSYM    DATA     BYTE      P_SW1
      000000CEH   SFRSYM    DATA     BYTE      SPCTL
      000000F8H   SFRSYM    DATA     BYTE      P7
      000000A8H.7 SFRSYM    DATA     BIT       EA
      000000E8H   SFRSYM    DATA     BYTE      P6
      000000C8H   SFRSYM    DATA     BYTE      P5
      000000C0H   SFRSYM    DATA     BYTE      P4
      000000ABH   SFRSYM    DATA     BYTE      WKTCH
L251 LINKER/LOCATER V4.66.93.0                                                        09/12/2025  17:12:15  PAGE 110


      000000B0H   SFRSYM    DATA     BYTE      P3
      000000A0H   SFRSYM    DATA     BYTE      P2
      00000090H   SFRSYM    DATA     BYTE      P1
      00000080H   SFRSYM    DATA     BYTE      P0
      00FF952CH   SYMBOL    HCONST   ---       ?tpl?0001
      00FF972CH   SYMBOL    HCONST   ---       ?tpl?0002
      00FF992CH   SYMBOL    HCONST   ---       ?tpl?0003

      00FF8044H   BLOCK     CODE     ---       LVL=0
      00FF8046H   BLOCK     CODE     NEAR LAB  LVL=1
      0001043BH   SYMBOL    XDATA    ---       temp
      DR12        REGSYM    ---      DWORD     sector_start
      00000020H.0 SYMBOL    BIT      BIT       flag
      DR4         REGSYM    ---      DWORD     array_size
      ---         BLOCKEND  ---      ---       LVL=1
      00FF8044H   LINE      CODE     ---       #8
      00FF8046H   LINE      CODE     ---       #9
      00FF8046H   LINE      CODE     ---       #10
      00FF805DH   LINE      CODE     ---       #11
      00FF805FH   LINE      CODE     ---       #15
      00FF8063H   LINE      CODE     ---       #16
      00FF8069H   LINE      CODE     ---       #17
      00FF8069H   LINE      CODE     ---       #18
      00FF8069H   LINE      CODE     ---       #21
      00FF806DH   LINE      CODE     ---       #22
      00FF806FH   LINE      CODE     ---       #25
      00FF8086H   LINE      CODE     ---       #28
      00FF80A1H   LINE      CODE     ---       #31
      00FF80A6H   LINE      CODE     ---       #32
      00FF80ADH   LINE      CODE     ---       #35
      00FF80C4H   LINE      CODE     ---       #38
      00FF80C8H   LINE      CODE     ---       #39
      ---         BLOCKEND  ---      ---       LVL=0
      DR4         REGSYM    ---      DWORD     sector_start
      DR28        REGSYM    ---      DWORD     addr
      REG=3       REGSYM    ---      ---       float_ptr
      R10         REGSYM    ---      BYTE      i
      DR0         REGSYM    ---      DWORD     addr
      REG=2       REGSYM    ---      ---       float_ptr

      ---         MODULE    ---      ---       function
      00FF0026H   PUBLIC    CODE     ---       Servo_Init
      00FF8248H   PUBLIC    CODE     ---       Motor_Init
      00FF887EH   PUBLIC    CODE     ---       init_all
      000000D0H   SFRSYM    DATA     BYTE      PSW
      0000009DH   SFRSYM    DATA     BYTE      IRCBAND
      00000097H   SFRSYM    DATA     BYTE      AUXR2
      000000EFH   SFRSYM    DATA     BYTE      AUXINTIF
      000000FDH   SFRSYM    DATA     BYTE      S4CON
      000000ACH   SFRSYM    DATA     BYTE      S3CON
      0000009AH   SFRSYM    DATA     BYTE      S2CON
      000000B7H   SFRSYM    DATA     BYTE      IPH
      000000CDH   SFRSYM    DATA     BYTE      SPSTAT
      000000DDH   SFRSYM    DATA     BYTE      T4T3M
      000000C1H   SFRSYM    DATA     BYTE      WDT_CONTR
      000000DFH   SFRSYM    DATA     BYTE      IP3
      000000F4H   SFRSYM    DATA     BYTE      USBCON
      000000B5H   SFRSYM    DATA     BYTE      IP2
      000000FFH   SFRSYM    DATA     BYTE      RSTCFG
      000000C7H   SFRSYM    DATA     BYTE      IAP_CONTR
      0000008EH   SFRSYM    DATA     BYTE      AUXR
      000000AFH   SFRSYM    DATA     BYTE      IE2
      00000088H   SFRSYM    DATA     BYTE      TCON
      00000089H   SFRSYM    DATA     BYTE      TMOD
      00000098H   SFRSYM    DATA     BYTE      SCON
L251 LINKER/LOCATER V4.66.93.0                                                        09/12/2025  17:12:15  PAGE 111


      00000087H   SFRSYM    DATA     BYTE      PCON
      000000BCH   SFRSYM    DATA     BYTE      ADC_CONTR
      000000D1H   SFRSYM    DATA     BYTE      PSW1
      000000E7H   SFRSYM    DATA     BYTE      CMPCR2
      000000E6H   SFRSYM    DATA     BYTE      CMPCR1
      000000DEH   SFRSYM    DATA     BYTE      ADCCFG
      000000B8H   SFRSYM    DATA     BYTE      IP
      0000008FH   SFRSYM    DATA     BYTE      INTCLKO
      000000EEH   SFRSYM    DATA     BYTE      IP3H
      000000B6H   SFRSYM    DATA     BYTE      IP2H
      000000BFH   SFRSYM    DATA     BYTE      P_SW4
      000000A8H   SFRSYM    DATA     BYTE      IE
      000000BBH   SFRSYM    DATA     BYTE      P_SW3
      000000BAH   SFRSYM    DATA     BYTE      P_SW2
      000000A2H   SFRSYM    DATA     BYTE      P_SW1
      000000CEH   SFRSYM    DATA     BYTE      SPCTL
      000000F8H   SFRSYM    DATA     BYTE      P7
      000000E8H   SFRSYM    DATA     BYTE      P6
      000000C8H   SFRSYM    DATA     BYTE      P5
      000000C0H   SFRSYM    DATA     BYTE      P4
      000000ABH   SFRSYM    DATA     BYTE      WKTCH
      000000B0H   SFRSYM    DATA     BYTE      P3
      000000A0H   SFRSYM    DATA     BYTE      P2
      00000090H   SFRSYM    DATA     BYTE      P1
      00000080H   SFRSYM    DATA     BYTE      P0
      REG=6       REGSYM    ---      ---       PID
      DR28        REGSYM    ---      FLOAT     NowData
      DR4         REGSYM    ---      FLOAT     error_val
      DR4         REGSYM    ---      FLOAT     right_1
      DR12        REGSYM    ---      FLOAT     number

      00FF8248H   BLOCK     CODE     ---       LVL=0
      00FF8248H   LINE      CODE     ---       #60
      00FF8248H   LINE      CODE     ---       #62
      00FF8261H   LINE      CODE     ---       #63
      00FF8278H   LINE      CODE     ---       #64
      00FF828FH   LINE      CODE     ---       #65
      00FF82A6H   LINE      CODE     ---       #66
      00FF82BDH   LINE      CODE     ---       #67
      ---         BLOCKEND  ---      ---       LVL=0

      00FF0026H   BLOCK     CODE     ---       LVL=0
      00FF0026H   LINE      CODE     ---       #69
      00FF0026H   LINE      CODE     ---       #71
      00FF0029H   LINE      CODE     ---       #72
      00FF0042H   LINE      CODE     ---       #73
      ---         BLOCKEND  ---      ---       LVL=0

      00FF887EH   BLOCK     CODE     ---       LVL=0
      00FF887EH   LINE      CODE     ---       #96
      00FF887EH   LINE      CODE     ---       #98
      00FF8881H   LINE      CODE     ---       #99
      00FF8884H   LINE      CODE     ---       #100
      00FF8887H   LINE      CODE     ---       #101
      00FF888AH   LINE      CODE     ---       #102
      00FF888DH   LINE      CODE     ---       #103
      00FF8898H   LINE      CODE     ---       #105
      00FF889BH   LINE      CODE     ---       #106
      00FF88BEH   LINE      CODE     ---       #107
      ---         BLOCKEND  ---      ---       LVL=0

      ---         MODULE    ---      ---       Key
      00FF70ADH   PUBLIC    CODE     ---       Key_scaner
      00FF8A2EH   PUBLIC    CODE     ---       Key_Number
      00010D5EH   PUBLIC    XDATA    BYTE      State
L251 LINKER/LOCATER V4.66.93.0                                                        09/12/2025  17:12:15  PAGE 112


      00010D5FH   PUBLIC    XDATA    INT       Trigg_time
      00010D61H   PUBLIC    XDATA    INT       Press_time
      00010D63H   PUBLIC    XDATA    BYTE      Key_count
      00010D64H   PUBLIC    XDATA    WORD      Time_dou
      00010D66H   PUBLIC    XDATA    BYTE      CAR_Mode
      00010D67H   PUBLIC    XDATA    BYTE      keynumber
      000000D0H   SFRSYM    DATA     BYTE      PSW
      0000009DH   SFRSYM    DATA     BYTE      IRCBAND
      00000097H   SFRSYM    DATA     BYTE      AUXR2
      000000EFH   SFRSYM    DATA     BYTE      AUXINTIF
      000000FDH   SFRSYM    DATA     BYTE      S4CON
      000000ACH   SFRSYM    DATA     BYTE      S3CON
      0000009AH   SFRSYM    DATA     BYTE      S2CON
      000000B7H   SFRSYM    DATA     BYTE      IPH
      000000CDH   SFRSYM    DATA     BYTE      SPSTAT
      000000DDH   SFRSYM    DATA     BYTE      T4T3M
      000000C1H   SFRSYM    DATA     BYTE      WDT_CONTR
      000000DFH   SFRSYM    DATA     BYTE      IP3
      000000F4H   SFRSYM    DATA     BYTE      USBCON
      000000B5H   SFRSYM    DATA     BYTE      IP2
      000000FFH   SFRSYM    DATA     BYTE      RSTCFG
      000000C7H   SFRSYM    DATA     BYTE      IAP_CONTR
      0000008EH   SFRSYM    DATA     BYTE      AUXR
      000000AFH   SFRSYM    DATA     BYTE      IE2
      00000088H   SFRSYM    DATA     BYTE      TCON
      00000089H   SFRSYM    DATA     BYTE      TMOD
      00000098H   SFRSYM    DATA     BYTE      SCON
      00000087H   SFRSYM    DATA     BYTE      PCON
      000000BCH   SFRSYM    DATA     BYTE      ADC_CONTR
      000000D1H   SFRSYM    DATA     BYTE      PSW1
      000000E7H   SFRSYM    DATA     BYTE      CMPCR2
      000000E6H   SFRSYM    DATA     BYTE      CMPCR1
      000000DEH   SFRSYM    DATA     BYTE      ADCCFG
      000000B8H   SFRSYM    DATA     BYTE      IP
      0000008FH   SFRSYM    DATA     BYTE      INTCLKO
      000000EEH   SFRSYM    DATA     BYTE      IP3H
      000000B6H   SFRSYM    DATA     BYTE      IP2H
      000000BFH   SFRSYM    DATA     BYTE      P_SW4
      000000A8H   SFRSYM    DATA     BYTE      IE
      000000BBH   SFRSYM    DATA     BYTE      P_SW3
      000000BAH   SFRSYM    DATA     BYTE      P_SW2
      000000A2H   SFRSYM    DATA     BYTE      P_SW1
      000000CEH   SFRSYM    DATA     BYTE      SPCTL
      000000F8H   SFRSYM    DATA     BYTE      P7
      000000E8H   SFRSYM    DATA     BYTE      P6
      000000C8H   SFRSYM    DATA     BYTE      P5
      000000C0H   SFRSYM    DATA     BYTE      P4
      000000ABH   SFRSYM    DATA     BYTE      WKTCH
      000000B0H   SFRSYM    DATA     BYTE      P3
      000000A0H   SFRSYM    DATA     BYTE      P2
      00000090H   SFRSYM    DATA     BYTE      P1
      00000080H   SFRSYM    DATA     BYTE      P0

      00FF8A2EH   BLOCK     CODE     ---       LVL=0
      00FF8A30H   BLOCK     CODE     NEAR LAB  LVL=1
      R15         REGSYM    ---      BYTE      KeyNumber
      ---         BLOCKEND  ---      ---       LVL=1
      00FF8A2EH   LINE      CODE     ---       #12
      00FF8A30H   LINE      CODE     ---       #13
      00FF8A30H   LINE      CODE     ---       #14
      00FF8A32H   LINE      CODE     ---       #16
      00FF8A3EH   LINE      CODE     ---       #17
      00FF8A4AH   LINE      CODE     ---       #18
      00FF8A56H   LINE      CODE     ---       #19
      00FF8A62H   LINE      CODE     ---       #20
L251 LINKER/LOCATER V4.66.93.0                                                        09/12/2025  17:12:15  PAGE 113


      00FF8A64H   LINE      CODE     ---       #21
      ---         BLOCKEND  ---      ---       LVL=0

      00FF70ADH   BLOCK     CODE     ---       LVL=0
      00FF70ADH   LINE      CODE     ---       #23
      00FF70ADH   LINE      CODE     ---       #25
      00FF70B4H   LINE      CODE     ---       #26
      00FF70CBH   LINE      CODE     ---       #28
      00FF70CBH   LINE      CODE     ---       #30
      00FF70D4H   LINE      CODE     ---       #32
      00FF70DAH   LINE      CODE     ---       #33
      00FF70DFH   LINE      CODE     ---       #34
      00FF70DFH   LINE      CODE     ---       #35
      00FF70E2H   LINE      CODE     ---       #37
      00FF70E2H   LINE      CODE     ---       #39
      00FF70E8H   LINE      CODE     ---       #41
      00FF70EDH   LINE      CODE     ---       #42
      00FF70F0H   LINE      CODE     ---       #45
      00FF70F6H   LINE      CODE     ---       #46
      00FF7109H   LINE      CODE     ---       #48
      00FF710FH   LINE      CODE     ---       #49
      00FF7117H   LINE      CODE     ---       #50
      00FF7117H   LINE      CODE     ---       #52
      00FF711AH   LINE      CODE     ---       #54
      00FF711AH   LINE      CODE     ---       #56
      00FF7120H   LINE      CODE     ---       #58
      00FF7126H   LINE      CODE     ---       #59
      00FF712BH   LINE      CODE     ---       #60
      00FF7133H   LINE      CODE     ---       #61
      00FF7136H   LINE      CODE     ---       #64
      00FF7141H   LINE      CODE     ---       #65
      00FF7150H   LINE      CODE     ---       #67
      00FF715BH   LINE      CODE     ---       #68
      00FF7162H   LINE      CODE     ---       #70
      00FF7169H   LINE      CODE     ---       #72
      00FF716FH   LINE      CODE     ---       #73
      00FF7171H   LINE      CODE     ---       #76
      00FF7177H   LINE      CODE     ---       #77
      00FF7177H   LINE      CODE     ---       #78
      00FF717FH   LINE      CODE     ---       #79
      00FF7181H   LINE      CODE     ---       #80
      00FF718DH   LINE      CODE     ---       #82
      00FF7195H   LINE      CODE     ---       #83
      00FF719DH   LINE      CODE     ---       #85
      00FF719DH   LINE      CODE     ---       #87
      00FF719DH   LINE      CODE     ---       #88
      00FF719FH   LINE      CODE     ---       #90
      00FF719FH   LINE      CODE     ---       #92
      00FF71A5H   LINE      CODE     ---       #94
      00FF71ABH   LINE      CODE     ---       #95
      00FF71BBH   LINE      CODE     ---       #97
      00FF71C0H   LINE      CODE     ---       #98
      00FF71C5H   LINE      CODE     ---       #99
      00FF71C7H   LINE      CODE     ---       #103
      00FF71CDH   LINE      CODE     ---       #104
      00FF71CDH   LINE      CODE     ---       #105
      00FF71CDH   LINE      CODE     ---       #107
      00FF71CDH   LINE      CODE     ---       #108
      ---         BLOCKEND  ---      ---       LVL=0

      ---         MODULE    ---      ---       menu
      00FF00A6H   PUBLIC    CODE     ---       menu_Init
      00FF8BA6H   PUBLIC    CODE     ---       menu_handle_key
      00FF756DH   PUBLIC    CODE     ---       handle_key1
      00FF665BH   PUBLIC    CODE     ---       handle_key2
L251 LINKER/LOCATER V4.66.93.0                                                        09/12/2025  17:12:15  PAGE 114


      00FF8C33H   PUBLIC    CODE     ---       handle_key3
      00FF7713H   PUBLIC    CODE     ---       handle_key4
      00FF7643H   PUBLIC    CODE     ---       Menu_SetChildren
      00FF01AEH   PUBLIC    CODE     ---       Key3_handle1
      00FF7890H   PUBLIC    CODE     ---       Key3_handle2
      00FF80CBH   PUBLIC    CODE     ---       Refesh_arrow
      00FF6BFDH   PUBLIC    CODE     ---       menu_display_content
      00010D48H   PUBLIC    XDATA    BYTE      Show_image_mode
      00010D49H   PUBLIC    XDATA    FLOAT     bujin
      00010D4DH   PUBLIC    XDATA    CHAR      mode
      00010D4EH   PUBLIC    XDATA    BYTE      Key
      00010D4FH   PUBLIC    XDATA    CHAR      Start_Show_Row
      00010D50H   PUBLIC    XDATA    CHAR      i
      00010D51H   PUBLIC    XDATA    CHAR      j
      00010D52H   PUBLIC    XDATA    CHAR      Key3_count
      00010D53H   PUBLIC    XDATA    CHAR      Flag
      000000D0H   SFRSYM    DATA     BYTE      PSW
      0000009DH   SFRSYM    DATA     BYTE      IRCBAND
      00000097H   SFRSYM    DATA     BYTE      AUXR2
      000000EFH   SFRSYM    DATA     BYTE      AUXINTIF
      000000FDH   SFRSYM    DATA     BYTE      S4CON
      000000ACH   SFRSYM    DATA     BYTE      S3CON
      0000009AH   SFRSYM    DATA     BYTE      S2CON
      000000B7H   SFRSYM    DATA     BYTE      IPH
      000000CDH   SFRSYM    DATA     BYTE      SPSTAT
      000000DDH   SFRSYM    DATA     BYTE      T4T3M
      000000C1H   SFRSYM    DATA     BYTE      WDT_CONTR
      000000DFH   SFRSYM    DATA     BYTE      IP3
      000000F4H   SFRSYM    DATA     BYTE      USBCON
      000000B5H   SFRSYM    DATA     BYTE      IP2
      000000FFH   SFRSYM    DATA     BYTE      RSTCFG
      000000C7H   SFRSYM    DATA     BYTE      IAP_CONTR
      0000008EH   SFRSYM    DATA     BYTE      AUXR
      000000AFH   SFRSYM    DATA     BYTE      IE2
      00000088H   SFRSYM    DATA     BYTE      TCON
      00000089H   SFRSYM    DATA     BYTE      TMOD
      00000098H   SFRSYM    DATA     BYTE      SCON
      00000087H   SFRSYM    DATA     BYTE      PCON
      000000BCH   SFRSYM    DATA     BYTE      ADC_CONTR
      000000D1H   SFRSYM    DATA     BYTE      PSW1
      000000E7H   SFRSYM    DATA     BYTE      CMPCR2
      000000E6H   SFRSYM    DATA     BYTE      CMPCR1
      000000DEH   SFRSYM    DATA     BYTE      ADCCFG
      000000B8H   SFRSYM    DATA     BYTE      IP
      0000008FH   SFRSYM    DATA     BYTE      INTCLKO
      000000EEH   SFRSYM    DATA     BYTE      IP3H
      000000B6H   SFRSYM    DATA     BYTE      IP2H
      000000BFH   SFRSYM    DATA     BYTE      P_SW4
      000000A8H   SFRSYM    DATA     BYTE      IE
      000000BBH   SFRSYM    DATA     BYTE      P_SW3
      000000BAH   SFRSYM    DATA     BYTE      P_SW2
      000000A2H   SFRSYM    DATA     BYTE      P_SW1
      000000CEH   SFRSYM    DATA     BYTE      SPCTL
      000000F8H   SFRSYM    DATA     BYTE      P7
      000000E8H   SFRSYM    DATA     BYTE      P6
      000000C8H   SFRSYM    DATA     BYTE      P5
      000000C0H   SFRSYM    DATA     BYTE      P4
      000000ABH   SFRSYM    DATA     BYTE      WKTCH
      000000B0H   SFRSYM    DATA     BYTE      P3
      000000A0H   SFRSYM    DATA     BYTE      P2
      00000090H   SFRSYM    DATA     BYTE      P1
      00000080H   SFRSYM    DATA     BYTE      P0

      00FF7643H   BLOCK     CODE     ---       LVL=0
      REG=6       REGSYM    ---      ---       parent
L251 LINKER/LOCATER V4.66.93.0                                                        09/12/2025  17:12:15  PAGE 115


      REG=7       REGSYM    ---      ---       child_indices
      00FF7643H   LINE      CODE     ---       #18
      00FF7647H   LINE      CODE     ---       #21
      00FF764EH   LINE      CODE     ---       #22
      00FF7666H   LINE      CODE     ---       #23
      00FF7675H   LINE      CODE     ---       #26
      00FF767CH   LINE      CODE     ---       #28
      00FF76A0H   LINE      CODE     ---       #30
      00FF76D0H   LINE      CODE     ---       #31
      00FF76EEH   LINE      CODE     ---       #32
      00FF7712H   LINE      CODE     ---       #35
      ---         BLOCKEND  ---      ---       LVL=0

      00FF80CBH   BLOCK     CODE     ---       LVL=0
      00FF80CBH   LINE      CODE     ---       #37
      00FF80CBH   LINE      CODE     ---       #39
      00FF80D1H   LINE      CODE     ---       #41
      00FF80DAH   LINE      CODE     ---       #43
      00FF80F9H   LINE      CODE     ---       #44
      00FF80FBH   LINE      CODE     ---       #47
      00FF810EH   LINE      CODE     ---       #48
      00FF810EH   LINE      CODE     ---       #49
      00FF8110H   LINE      CODE     ---       #52
      00FF8119H   LINE      CODE     ---       #54
      00FF8138H   LINE      CODE     ---       #55
      00FF813AH   LINE      CODE     ---       #58
      00FF814DH   LINE      CODE     ---       #59
      00FF814DH   LINE      CODE     ---       #60
      00FF814DH   LINE      CODE     ---       #61
      ---         BLOCKEND  ---      ---       LVL=0

      00FF6BFDH   BLOCK     CODE     ---       LVL=0
      00FF6BFDH   LINE      CODE     ---       #63
      00FF6BFDH   LINE      CODE     ---       #65
      00FF6C05H   LINE      CODE     ---       #67
      00FF6C3AH   LINE      CODE     ---       #68
      00FF6CB9H   LINE      CODE     ---       #70
      00FF6D1FH   LINE      CODE     ---       #71
      00FF6D31H   LINE      CODE     ---       #73
      ---         BLOCKEND  ---      ---       LVL=0

      00FF756DH   BLOCK     CODE     ---       LVL=0
      00FF756DH   LINE      CODE     ---       #75
      00FF756FH   LINE      CODE     ---       #77
      00FF7575H   LINE      CODE     ---       #79
      00FF757EH   LINE      CODE     ---       #81
      00FF7584H   LINE      CODE     ---       #82
      00FF7584H   LINE      CODE     ---       #83
      00FF758DH   LINE      CODE     ---       #85
      00FF75ACH   LINE      CODE     ---       #86
      00FF75AEH   LINE      CODE     ---       #89
      00FF75BDH   LINE      CODE     ---       #90
      00FF75CCH   LINE      CODE     ---       #91
      00FF75DBH   LINE      CODE     ---       #92
      00FF75E2H   LINE      CODE     ---       #93
      00FF75E5H   LINE      CODE     ---       #94
      00FF75E5H   LINE      CODE     ---       #95
      00FF75E8H   LINE      CODE     ---       #96
      00FF75EAH   LINE      CODE     ---       #97
      00FF75F1H   LINE      CODE     ---       #99
      00FF763AH   LINE      CODE     ---       #100
      00FF763DH   LINE      CODE     ---       #101
      00FF7640H   LINE      CODE     ---       #102
      ---         BLOCKEND  ---      ---       LVL=0

L251 LINKER/LOCATER V4.66.93.0                                                        09/12/2025  17:12:15  PAGE 116


      00FF665BH   BLOCK     CODE     ---       LVL=0
      00FF665BH   LINE      CODE     ---       #105
      00FF665BH   LINE      CODE     ---       #107
      00FF6664H   LINE      CODE     ---       #110
      00FF6664H   LINE      CODE     ---       #111
      00FF6670H   LINE      CODE     ---       #113
      00FF6692H   LINE      CODE     ---       #115
      00FF66A2H   LINE      CODE     ---       #116
      00FF66A2H   LINE      CODE     ---       #117
      00FF66BCH   LINE      CODE     ---       #118
      00FF66C8H   LINE      CODE     ---       #120
      00FF66F7H   LINE      CODE     ---       #122
      00FF6719H   LINE      CODE     ---       #123
      00FF673BH   LINE      CODE     ---       #124
      00FF675DH   LINE      CODE     ---       #125
      00FF677CH   LINE      CODE     ---       #126
      00FF677CH   LINE      CODE     ---       #127
      00FF677EH   LINE      CODE     ---       #130
      00FF67AAH   LINE      CODE     ---       #132
      00FF67BFH   LINE      CODE     ---       #133
      00FF67D4H   LINE      CODE     ---       #134
      00FF67E9H   LINE      CODE     ---       #135
      00FF67FCH   LINE      CODE     ---       #136
      00FF67FCH   LINE      CODE     ---       #137
      00FF67FCH   LINE      CODE     ---       #138
      ---         BLOCKEND  ---      ---       LVL=0

      00FF8C33H   BLOCK     CODE     ---       LVL=0
      00FF8C33H   LINE      CODE     ---       #141
      00FF8C33H   LINE      CODE     ---       #143
      00FF8C39H   LINE      CODE     ---       #146
      00FF8C44H   LINE      CODE     ---       #148
      00FF8C49H   LINE      CODE     ---       #149
      00FF8C4CH   LINE      CODE     ---       #150
      00FF8C4CH   LINE      CODE     ---       #151
      00FF8C4CH   LINE      CODE     ---       #152
      ---         BLOCKEND  ---      ---       LVL=0

      00FF7713H   BLOCK     CODE     ---       LVL=0
      00FF7713H   LINE      CODE     ---       #153
      00FF7715H   LINE      CODE     ---       #155
      00FF771CH   LINE      CODE     ---       #157
      00FF7765H   LINE      CODE     ---       #158
      00FF7768H   LINE      CODE     ---       #159
      00FF776AH   LINE      CODE     ---       #160
      00FF7770H   LINE      CODE     ---       #162
      00FF7779H   LINE      CODE     ---       #164
      00FF777FH   LINE      CODE     ---       #165
      00FF777FH   LINE      CODE     ---       #166
      00FF7788H   LINE      CODE     ---       #168
      00FF7791H   LINE      CODE     ---       #169
      00FF7796H   LINE      CODE     ---       #170
      00FF77B3H   LINE      CODE     ---       #171
      00FF77B5H   LINE      CODE     ---       #174
      00FF77C4H   LINE      CODE     ---       #175
      00FF77CBH   LINE      CODE     ---       #176
      00FF77CEH   LINE      CODE     ---       #177
      00FF77CEH   LINE      CODE     ---       #178
      00FF77D1H   LINE      CODE     ---       #179
      ---         BLOCKEND  ---      ---       LVL=0

      00FF01AEH   BLOCK     CODE     ---       LVL=0
      00FF01AEH   LINE      CODE     ---       #181
      00FF01AEH   LINE      CODE     ---       #183
      00FF01B4H   LINE      CODE     ---       #184
L251 LINKER/LOCATER V4.66.93.0                                                        09/12/2025  17:12:15  PAGE 117


      00FF01B7H   LINE      CODE     ---       #185
      ---         BLOCKEND  ---      ---       LVL=0

      00FF7890H   BLOCK     CODE     ---       LVL=0
      00FF7890H   LINE      CODE     ---       #186
      00FF7890H   LINE      CODE     ---       #188
      00FF7893H   LINE      CODE     ---       #189
      00FF78B5H   LINE      CODE     ---       #191
      00FF78DDH   LINE      CODE     ---       #192
      00FF78E3H   LINE      CODE     ---       #193
      00FF78E8H   LINE      CODE     ---       #194
      00FF78EAH   LINE      CODE     ---       #195
      00FF7907H   LINE      CODE     ---       #197
      00FF7923H   LINE      CODE     ---       #198
      00FF7929H   LINE      CODE     ---       #199
      00FF792EH   LINE      CODE     ---       #200
      00FF792EH   LINE      CODE     ---       #201
      00FF793FH   LINE      CODE     ---       #202
      00FF7942H   LINE      CODE     ---       #203
      00FF7945H   LINE      CODE     ---       #204
      ---         BLOCKEND  ---      ---       LVL=0

      00FF8BA6H   BLOCK     CODE     ---       LVL=0
      R7          REGSYM    ---      BYTE      Flag_Key
      00FF8BA6H   LINE      CODE     ---       #210
      00FF8BA8H   LINE      CODE     ---       #213
      00FF8BB9H   LINE      CODE     ---       #215
      00FF8BBEH   LINE      CODE     ---       #216
      00FF8BC3H   LINE      CODE     ---       #217
      00FF8BC8H   LINE      CODE     ---       #218
      00FF8BCBH   LINE      CODE     ---       #219
      00FF8BCBH   LINE      CODE     ---       #220
      ---         BLOCKEND  ---      ---       LVL=0

      00FF00A6H   BLOCK     CODE     ---       LVL=0
      00FF00A6H   LINE      CODE     ---       #225
      00FF00A6H   LINE      CODE     ---       #227
      00FF00B9H   LINE      CODE     ---       #228
      00FF00BCH   LINE      CODE     ---       #229
      00FF00BFH   LINE      CODE     ---       #232
      ---         BLOCKEND  ---      ---       LVL=0

      ---         MODULE    ---      ---       menu_font
      00010000H   PUBLIC    XDATA    ---       Page
      00010317H   PUBLIC    XDATA    ---       Pin
      0001031BH   PUBLIC    XDATA    ---       Num
      00010417H   PUBLIC    XDATA    FLOAT     ADC_1
      0001041BH   PUBLIC    XDATA    FLOAT     ADC_2
      0001041FH   PUBLIC    XDATA    FLOAT     ADC_3
      00010423H   PUBLIC    XDATA    FLOAT     ADC_4
      00010427H   PUBLIC    XDATA    ---       Page0_children
      00010431H   PUBLIC    XDATA    ---       Page1_children
      000000D0H   SFRSYM    DATA     BYTE      PSW
      0000009DH   SFRSYM    DATA     BYTE      IRCBAND
      00000097H   SFRSYM    DATA     BYTE      AUXR2
      000000EFH   SFRSYM    DATA     BYTE      AUXINTIF
      000000FDH   SFRSYM    DATA     BYTE      S4CON
      000000ACH   SFRSYM    DATA     BYTE      S3CON
      0000009AH   SFRSYM    DATA     BYTE      S2CON
      000000B7H   SFRSYM    DATA     BYTE      IPH
      000000CDH   SFRSYM    DATA     BYTE      SPSTAT
      000000DDH   SFRSYM    DATA     BYTE      T4T3M
      000000C1H   SFRSYM    DATA     BYTE      WDT_CONTR
      000000DFH   SFRSYM    DATA     BYTE      IP3
      000000F4H   SFRSYM    DATA     BYTE      USBCON
L251 LINKER/LOCATER V4.66.93.0                                                        09/12/2025  17:12:15  PAGE 118


      000000B5H   SFRSYM    DATA     BYTE      IP2
      000000FFH   SFRSYM    DATA     BYTE      RSTCFG
      000000C7H   SFRSYM    DATA     BYTE      IAP_CONTR
      0000008EH   SFRSYM    DATA     BYTE      AUXR
      000000AFH   SFRSYM    DATA     BYTE      IE2
      00000088H   SFRSYM    DATA     BYTE      TCON
      00000089H   SFRSYM    DATA     BYTE      TMOD
      00000098H   SFRSYM    DATA     BYTE      SCON
      00000087H   SFRSYM    DATA     BYTE      PCON
      000000BCH   SFRSYM    DATA     BYTE      ADC_CONTR
      000000D1H   SFRSYM    DATA     BYTE      PSW1
      000000E7H   SFRSYM    DATA     BYTE      CMPCR2
      000000E6H   SFRSYM    DATA     BYTE      CMPCR1
      000000DEH   SFRSYM    DATA     BYTE      ADCCFG
      000000B8H   SFRSYM    DATA     BYTE      IP
      0000008FH   SFRSYM    DATA     BYTE      INTCLKO
      000000EEH   SFRSYM    DATA     BYTE      IP3H
      000000B6H   SFRSYM    DATA     BYTE      IP2H
      000000BFH   SFRSYM    DATA     BYTE      P_SW4
      000000A8H   SFRSYM    DATA     BYTE      IE
      000000BBH   SFRSYM    DATA     BYTE      P_SW3
      000000BAH   SFRSYM    DATA     BYTE      P_SW2
      000000A2H   SFRSYM    DATA     BYTE      P_SW1
      000000CEH   SFRSYM    DATA     BYTE      SPCTL
      000000F8H   SFRSYM    DATA     BYTE      P7
      000000E8H   SFRSYM    DATA     BYTE      P6
      000000C8H   SFRSYM    DATA     BYTE      P5
      000000C0H   SFRSYM    DATA     BYTE      P4
      000000ABH   SFRSYM    DATA     BYTE      WKTCH
      000000B0H   SFRSYM    DATA     BYTE      P3
      000000A0H   SFRSYM    DATA     BYTE      P2
      00000090H   SFRSYM    DATA     BYTE      P1
      00000080H   SFRSYM    DATA     BYTE      P0

      ---         MODULE    ---      ---       ?C?DPADD
      00FF2225H   PUBLIC    CODE     ---       ?C?DPADD
      00FF2221H   PUBLIC    CODE     ---       ?C?DPSUB

      ---         MODULE    ---      ---       ?C?DPMUL
      00FF2334H   PUBLIC    CODE     ---       ?C?DPMUL

      ---         MODULE    ---      ---       ?C?DPDIV
      00FF2444H   PUBLIC    CODE     ---       ?C?DPDIV

      ---         MODULE    ---      ---       ?C?DPCMP
      00FF24E5H   PUBLIC    CODE     ---       ?C?DPCMP
      00FF24E3H   PUBLIC    CODE     ---       ?C?DPCMP3

      ---         MODULE    ---      ---       ?C?DPNEG
      00FF2544H   PUBLIC    CODE     ---       ?C?DPNEG

      ---         MODULE    ---      ---       ?C?DCAST
      00FF255CH   PUBLIC    CODE     NEAR LAB  ?C?DCASTC
      00FF2557H   PUBLIC    CODE     NEAR LAB  ?C?DCASTI
      00FF2552H   PUBLIC    CODE     NEAR LAB  ?C?DCASTL

      ---         MODULE    ---      ---       ?C?CASTD
      00FF259FH   PUBLIC    CODE     NEAR LAB  ?C?CASTD

      ---         MODULE    ---      ---       ?C?DCASTF
      00FF25FFH   PUBLIC    CODE     NEAR LAB  ?C?DCASTF

      ---         MODULE    ---      ---       ?C?FCASTD
      00FF2641H   PUBLIC    CODE     NEAR LAB  ?C?FCASTD

L251 LINKER/LOCATER V4.66.93.0                                                        09/12/2025  17:12:15  PAGE 119


      ---         MODULE    ---      ---       PRINTF
      000104B2H   PUBLIC    XDATA    ---       ?PRINTF?BYTE
      00FF2678H   PUBLIC    CODE     NEAR LAB  PRINTF

      ---         MODULE    ---      ---       SPRINTF
      00010463H   PUBLIC    XDATA    ---       ?SPRINTF?BYTE
      00FF26A4H   PUBLIC    CODE     NEAR LAB  SPRINTF

      ---         MODULE    ---      ---       SQRT?_
      00FF26CAH   PUBLIC    CODE     ---       SQRT?_

      ---         MODULE    ---      ---       pow

      ---         MODULE    ---      ---       SIN?_
      00FF2818H   PUBLIC    CODE     ---       COS?_
      00FF2839H   PUBLIC    CODE     ---       SIN?_
      00FF286EH   PUBLIC    CODE     ---       TAN?_

      ---         MODULE    ---      ---       ATAN?_
      00FF29B0H   PUBLIC    CODE     ---       ATAN?_

      ---         MODULE    ---      ---       ASIN?_
      00FF2ACBH   PUBLIC    CODE     ---       ASIN?_

      ---         MODULE    ---      ---       ?C?DPGETOPN
      00FF2AF5H   PUBLIC    CODE     ---       ?C?DPGETOPN2
      00FF2B40H   PUBLIC    CODE     ---       ?C?DPNANRESULT
      00FF2B4CH   PUBLIC    CODE     ---       ?C?DPOVERFLOW
      00FF2B18H   PUBLIC    CODE     ---       ?C?DPRESULT
      00FF2B31H   PUBLIC    CODE     ---       ?C?DPRESULT2
      00FF2B47H   PUBLIC    CODE     ---       ?C?DPUNDERFLOW

      ---         MODULE    ---      ---       _CHKDOUBLE_?_
      00FF2B5AH   PUBLIC    CODE     ---       _CHKDOUBLE_?_

      ---         MODULE    ---      ---       ?C?PRNFMT
      00FF2BA5H   PUBLIC    CODE     ---       ?C?PRNFMT

      ---         MODULE    ---      ---       ?C?DPSERIES
      00FF2FD3H   PUBLIC    CODE     ---       ?C?DP2SERIES
      00FF2FDEH   PUBLIC    CODE     ---       ?C?DPSERIES

      ---         MODULE    ---      ---       EXP?_
      00FF30BAH   PUBLIC    CODE     ---       EXP?_

      ---         MODULE    ---      ---       LOG?_
      00FF31A3H   PUBLIC    CODE     NEAR LAB  LOG?_

      ---         MODULE    ---      ---       ?C?DPCONVERT
      00FF32BEH   PUBLIC    CODE     ---       ?C?DPCONVERT
      00FF33E5H   PUBLIC    CODE     ---       ?C?DPROUND

      ---         MODULE    ---      ---       ?C?DTNPWR
      00FF34C0H   PUBLIC    CODE     ---       ?C?DTNPWR

      ---         MODULE    ---      ---       ?C?FPGETOPN
      00FF3546H   PUBLIC    CODE     ---       ?C?FPGETOPN2
      00FF3583H   PUBLIC    CODE     ---       ?C?FPNANRESULT
      00FF358BH   PUBLIC    CODE     ---       ?C?FPOVERFLOW
      00FF355FH   PUBLIC    CODE     ---       ?C?FPRESULT
      00FF3575H   PUBLIC    CODE     ---       ?C?FPRESULT2
      00FF3588H   PUBLIC    CODE     ---       ?C?FPUNDERFLOW

      ---         MODULE    ---      ---       ?C?FPADD
      00FF359DH   PUBLIC    CODE     ---       ?C?FPADD
L251 LINKER/LOCATER V4.66.93.0                                                        09/12/2025  17:12:15  PAGE 120


      00FF359AH   PUBLIC    CODE     ---       ?C?FPSUB

      ---         MODULE    ---      ---       ?C?FPMUL
      00FF3655H   PUBLIC    CODE     ---       ?C?FPMUL

      ---         MODULE    ---      ---       ?C?FPDIV
      00FF36F5H   PUBLIC    CODE     ---       ?C?FPDIV

      ---         MODULE    ---      ---       ?C?FPCMP
      00FF3778H   PUBLIC    CODE     ---       ?C?FPCMP
      00FF3776H   PUBLIC    CODE     ---       ?C?FPCMP3

      ---         MODULE    ---      ---       ?C?FPNEG
      00FF37BCH   PUBLIC    CODE     ---       ?C?FPNEG

      ---         MODULE    ---      ---       ?C?FCAST
      00FF37D4H   PUBLIC    CODE     NEAR LAB  ?C?FCASTC
      00FF37CFH   PUBLIC    CODE     NEAR LAB  ?C?FCASTI
      00FF37CAH   PUBLIC    CODE     NEAR LAB  ?C?FCASTL

      ---         MODULE    ---      ---       ?C?CASTF
      00FF3807H   PUBLIC    CODE     NEAR LAB  ?C?CASTF

      ---         MODULE    ---      ---       ?C?INITHDATA
      00FF85AFH   PUBLIC    CODE     ---       ?C?INITHDATA

      ---         MODULE    ---      ---       ?C?SIDIV
      00FF3844H   PUBLIC    CODE     ---       ?C?SIDIV

      ---         MODULE    ---      ---       ?C?LMUL
      00FF3876H   PUBLIC    CODE     ---       ?C?LMUL

      ---         MODULE    ---      ---       ?C?LIMUL
      00FF3887H   PUBLIC    CODE     ---       ?C?LIMUL

      ---         MODULE    ---      ---       ?C?ULDIV
      00FF3892H   PUBLIC    CODE     NEAR LAB  ?C?ULDIV
      00FF3890H   PUBLIC    CODE     NEAR LAB  ?C?ULIDIV

      ---         MODULE    ---      ---       ?C?SLDIV
      00FF38E3H   PUBLIC    CODE     NEAR LAB  ?C?SLDIV

      ---         MODULE    ---      ---       ?C?BMOVEPP
      00FF3919H   PUBLIC    CODE     ---       ?C?BMOVEPP
      00FF3917H   PUBLIC    CODE     ---       ?C?BMOVEPP8

      ---         MODULE    ---      ---       STRNCMP

      ---         MODULE    ---      ---       STRNCPY

      ---         MODULE    ---      ---       STRLEN

      ---         MODULE    ---      ---       STRCHR

      ---         MODULE    ---      ---       memcpy
      00FF8BCCH   PUBLIC    CODE     ---       memcpy?_

      ---         MODULE    ---      ---       memset

      ---         MODULE    ---      ---       ?C?INITHDATA_END
      00FF952AH   PUBLIC    HCONST   WORD      ?C?INITHDATA_END

Program Size: data=8.3 edata+hdata=1792 xdata=3497 const=6302 code=35939
L251 RUN COMPLETE.  0 WARNING(S),  0 ERROR(S)
