L251 LINKER/LOCATER V4.66.93.0                                                          10/23/2025  22:33:42  PAGE 1


L251 LINKER/LOCATER V4.66.93.0, INVOKED BY:
D:\KEIL\C251\BIN\L251.EXE .\out_file\ai8051u_isr.obj, .\out_file\zf_common_clock.obj, .\out_file\zf_common_debug.obj, .\
>> out_file\zf_common_fifo.obj, .\out_file\zf_common_font.obj, .\out_file\zf_common_function.obj, .\out_file\zf_common_t
>> ypedef.obj, .\out_file\zf_common_interrupt.obj, .\out_file\START251.obj, .\out_file\zf_driver_adc.obj, .\out_file\zf_
>> driver_delay.obj, .\out_file\zf_driver_eeprom.obj, .\out_file\zf_driver_encoder.obj, .\out_file\zf_driver_exti.obj, .
>> \out_file\zf_driver_gpio.obj, .\out_file\zf_driver_pit.obj, .\out_file\zf_driver_pwm.obj, .\out_file\zf_driver_soft_i
>> ic.obj, .\out_file\zf_driver_soft_spi.obj, .\out_file\zf_driver_spi.obj, .\out_file\zf_driver_timer.obj, .\out_file\z
>> f_driver_uart.obj, .\out_file\zf_device_config.obj, .\out_file\zf_device_type.obj, .\out_file\zf_device_tft180.obj, .
>> \out_file\zf_device_ips114.obj, .\out_file\zf_device_ips200.obj, .\out_file\zf_device_dl1a.obj, .\out_file\zf_device_
>> ble6a20.obj, .\out_file\zf_device_wireless_uart.obj, .\out_file\zf_device_icm20602.obj, .\out_file\zf_device_imu660ra
>> .obj, .\out_file\zf_device_imu660rb.obj, .\out_file\zf_device_imu963ra.obj, .\out_file\zf_device_gps_tau1201.obj, .\o
>> ut_file\zf_device_tsl1401.obj, .\out_file\seekfree_assistant.obj, .\out_file\seekfree_assistant_interface.obj, .\out_
>> file\isr.obj, .\out_file\main.obj, .\out_file\ADC_Get.obj, .\out_file\control.obj, .\out_file\eeprom.obj, .\out_file\
>> function.obj, .\out_file\Key.obj, .\out_file\menu.obj, .\out_file\menu_font.obj, .\out_file\Device_Test.obj, .\out_fi
>> le\oled.obj, .\out_file\Strategy.obj, .\out_file\Buzzer.obj TO .\out_file\SEEKFREE PRINT (.\out_file\SEEKFREE.map) CA
>> SE DISABLEWARNING (57, 16) REMOVEUNUSED CLASSES (EDATA (0X0-0X7FF), HDATA (0X0-0X7FF))


CPU MODE:     251 SOURCE MODE
INTR FRAME:   4 BYTES SAVED ON INTERRUPT
MEMORY MODEL: LARGE WITH DOUBLE PRECISION FLOATING POINT ARITHMETIC


INPUT MODULES INCLUDED:
  .\out_file\ai8051u_isr.obj (ai8051u_isr)
         COMMENT TYPE 0: A251 V4.69.13.0
  .\out_file\zf_common_clock.obj (zf_common_clock)
         COMMENT TYPE 0: C251 V5.60.0
  .\out_file\zf_common_debug.obj (zf_common_debug)
         COMMENT TYPE 0: C251 V5.60.0
  .\out_file\zf_common_fifo.obj (zf_common_fifo)
         COMMENT TYPE 0: C251 V5.60.0
  .\out_file\zf_common_font.obj (zf_common_font)
         COMMENT TYPE 0: C251 V5.60.0
  .\out_file\zf_common_function.obj (zf_common_function)
         COMMENT TYPE 0: C251 V5.60.0
  .\out_file\zf_common_typedef.obj (zf_common_typedef)
         COMMENT TYPE 0: C251 V5.60.0
  .\out_file\zf_common_interrupt.obj (zf_common_interrupt)
         COMMENT TYPE 0: C251 V5.60.0
  .\out_file\START251.obj (?C_START)
         COMMENT TYPE 0: A251 V4.69.13.0
  .\out_file\zf_driver_adc.obj (zf_driver_adc)
         COMMENT TYPE 0: C251 V5.60.0
  .\out_file\zf_driver_delay.obj (zf_driver_delay)
         COMMENT TYPE 0: C251 V5.60.0
  .\out_file\zf_driver_eeprom.obj (zf_driver_eeprom)
         COMMENT TYPE 0: C251 V5.60.0
  .\out_file\zf_driver_encoder.obj (zf_driver_encoder)
         COMMENT TYPE 0: C251 V5.60.0
  .\out_file\zf_driver_exti.obj (zf_driver_exti)
         COMMENT TYPE 0: C251 V5.60.0
  .\out_file\zf_driver_gpio.obj (zf_driver_gpio)
         COMMENT TYPE 0: C251 V5.60.0
  .\out_file\zf_driver_pit.obj (zf_driver_pit)
         COMMENT TYPE 0: C251 V5.60.0
  .\out_file\zf_driver_pwm.obj (zf_driver_pwm)
         COMMENT TYPE 0: C251 V5.60.0
  .\out_file\zf_driver_soft_iic.obj (zf_driver_soft_iic)
         COMMENT TYPE 0: C251 V5.60.0
  .\out_file\zf_driver_soft_spi.obj (zf_driver_soft_spi)
         COMMENT TYPE 0: C251 V5.60.0
  .\out_file\zf_driver_spi.obj (zf_driver_spi)
         COMMENT TYPE 0: C251 V5.60.0
  .\out_file\zf_driver_timer.obj (zf_driver_timer)
         COMMENT TYPE 0: C251 V5.60.0
L251 LINKER/LOCATER V4.66.93.0                                                        10/23/2025  22:33:42  PAGE 2


  .\out_file\zf_driver_uart.obj (zf_driver_uart)
         COMMENT TYPE 0: C251 V5.60.0
  .\out_file\zf_device_config.obj (zf_device_config)
         COMMENT TYPE 0: C251 V5.60.0
  .\out_file\zf_device_type.obj (zf_device_type)
         COMMENT TYPE 0: C251 V5.60.0
  .\out_file\zf_device_tft180.obj (zf_device_tft180)
         COMMENT TYPE 0: C251 V5.60.0
  .\out_file\zf_device_ips114.obj (zf_device_ips114)
         COMMENT TYPE 0: C251 V5.60.0
  .\out_file\zf_device_ips200.obj (zf_device_ips200)
         COMMENT TYPE 0: C251 V5.60.0
  .\out_file\zf_device_dl1a.obj (zf_device_dl1a)
         COMMENT TYPE 0: C251 V5.60.0
  .\out_file\zf_device_ble6a20.obj (zf_device_ble6a20)
         COMMENT TYPE 0: C251 V5.60.0
  .\out_file\zf_device_wireless_uart.obj (zf_device_wireless_uart)
         COMMENT TYPE 0: C251 V5.60.0
  .\out_file\zf_device_icm20602.obj (zf_device_icm20602)
         COMMENT TYPE 0: C251 V5.60.0
  .\out_file\zf_device_imu660ra.obj (zf_device_imu660ra)
         COMMENT TYPE 0: C251 V5.60.0
  .\out_file\zf_device_imu660rb.obj (zf_device_imu660rb)
         COMMENT TYPE 0: C251 V5.60.0
  .\out_file\zf_device_imu963ra.obj (zf_device_imu963ra)
         COMMENT TYPE 0: C251 V5.60.0
  .\out_file\zf_device_gps_tau1201.obj (zf_device_gps_tau1201)
         COMMENT TYPE 0: C251 V5.60.0
  .\out_file\zf_device_tsl1401.obj (zf_device_tsl1401)
         COMMENT TYPE 0: C251 V5.60.0
  .\out_file\seekfree_assistant.obj (seekfree_assistant)
         COMMENT TYPE 0: C251 V5.60.0
  .\out_file\seekfree_assistant_interface.obj (seekfree_assistant_interface)
         COMMENT TYPE 0: C251 V5.60.0
  .\out_file\isr.obj (isr)
         COMMENT TYPE 0: C251 V5.60.0
  .\out_file\main.obj (main)
         COMMENT TYPE 0: C251 V5.60.0
  .\out_file\ADC_Get.obj (ADC_Get)
         COMMENT TYPE 0: C251 V5.60.0
  .\out_file\control.obj (control)
         COMMENT TYPE 0: C251 V5.60.0
  .\out_file\eeprom.obj (eeprom)
         COMMENT TYPE 0: C251 V5.60.0
  .\out_file\function.obj (function)
         COMMENT TYPE 0: C251 V5.60.0
  .\out_file\Key.obj (Key)
         COMMENT TYPE 0: C251 V5.60.0
  .\out_file\menu.obj (menu)
         COMMENT TYPE 0: C251 V5.60.0
  .\out_file\menu_font.obj (menu_font)
         COMMENT TYPE 0: C251 V5.60.0
  .\out_file\Device_Test.obj (Device_Test)
         COMMENT TYPE 0: C251 V5.60.0
  .\out_file\oled.obj (oled)
         COMMENT TYPE 0: C251 V5.60.0
  .\out_file\Strategy.obj (Strategy)
         COMMENT TYPE 0: C251 V5.60.0
  .\out_file\Buzzer.obj (Buzzer)
         COMMENT TYPE 0: C251 V5.60.0
  D:\KEIL\C251\LIB\C2SDPL.LIB (?C?DPADD)
         COMMENT TYPE 0: A251 V4.69.6.0
  D:\KEIL\C251\LIB\C2SDPL.LIB (?C?DPMUL)
         COMMENT TYPE 0: A251 V4.69.6.0
  D:\KEIL\C251\LIB\C2SDPL.LIB (?C?DPDIV)
L251 LINKER/LOCATER V4.66.93.0                                                        10/23/2025  22:33:42  PAGE 3


         COMMENT TYPE 0: A251 V4.69.6.0
  D:\KEIL\C251\LIB\C2SDPL.LIB (?C?DPCMP)
         COMMENT TYPE 0: A251 V4.69.6.0
  D:\KEIL\C251\LIB\C2SDPL.LIB (?C?DPNEG)
         COMMENT TYPE 0: A251 V4.69.6.0
  D:\KEIL\C251\LIB\C2SDPL.LIB (?C?DCAST)
         COMMENT TYPE 0: A251 V4.69.6.0
  D:\KEIL\C251\LIB\C2SDPL.LIB (?C?CASTD)
         COMMENT TYPE 0: A251 V4.69.6.0
  D:\KEIL\C251\LIB\C2SDPL.LIB (?C?DCASTF)
         COMMENT TYPE 0: A251 V4.69.6.0
  D:\KEIL\C251\LIB\C2SDPL.LIB (?C?FCASTD)
         COMMENT TYPE 0: A251 V4.69.6.0
  D:\KEIL\C251\LIB\C2SDPL.LIB (PRINTF)
         COMMENT TYPE 0: A251 V4.69.6.0
  D:\KEIL\C251\LIB\C2SDPL.LIB (SPRINTF)
         COMMENT TYPE 0: A251 V4.69.6.0
  D:\KEIL\C251\LIB\C2SDPL.LIB (SQRT?_)
         COMMENT TYPE 0: A251 V4.69.6.0
  D:\KEIL\C251\LIB\C2SDPL.LIB (pow)
         COMMENT TYPE 0: C251 V5.58.7
  D:\KEIL\C251\LIB\C2SDPL.LIB (SIN?_)
         COMMENT TYPE 0: A251 V4.69.6.0
  D:\KEIL\C251\LIB\C2SDPL.LIB (ATAN?_)
         COMMENT TYPE 0: A251 V4.69.6.0
  D:\KEIL\C251\LIB\C2SDPL.LIB (ASIN?_)
         COMMENT TYPE 0: A251 V4.69.6.0
  D:\KEIL\C251\LIB\C2SDPL.LIB (?C?DPGETOPN)
         COMMENT TYPE 0: A251 V4.69.6.0
  D:\KEIL\C251\LIB\C2SDPL.LIB (_CHKDOUBLE_?_)
         COMMENT TYPE 0: A251 V4.69.6.0
  D:\KEIL\C251\LIB\C2SDPL.LIB (?C?PRNFMT)
         COMMENT TYPE 0: A251 V4.69.6.0
  D:\KEIL\C251\LIB\C2SDPL.LIB (?C?DPSERIES)
         COMMENT TYPE 0: A251 V4.69.6.0
  D:\KEIL\C251\LIB\C2SDPL.LIB (EXP?_)
         COMMENT TYPE 0: A251 V4.69.6.0
  D:\KEIL\C251\LIB\C2SDPL.LIB (LOG?_)
         COMMENT TYPE 0: A251 V4.69.6.0
  D:\KEIL\C251\LIB\C2SDPL.LIB (?C?DPCONVERT)
         COMMENT TYPE 0: A251 V4.69.6.0
  D:\KEIL\C251\LIB\C2SDPL.LIB (?C?DTNPWR)
         COMMENT TYPE 0: A251 V4.69.6.0
  D:\KEIL\C251\LIB\C2SFPL.LIB (?C?FPGETOPN)
         COMMENT TYPE 0: A251 V4.69.6.0
  D:\KEIL\C251\LIB\C2SFPL.LIB (?C?FPADD)
         COMMENT TYPE 0: A251 V4.69.6.0
  D:\KEIL\C251\LIB\C2SFPL.LIB (?C?FPMUL)
         COMMENT TYPE 0: A251 V4.69.6.0
  D:\KEIL\C251\LIB\C2SFPL.LIB (?C?FPDIV)
         COMMENT TYPE 0: A251 V4.69.6.0
  D:\KEIL\C251\LIB\C2SFPL.LIB (?C?FPCMP)
         COMMENT TYPE 0: A251 V4.69.6.0
  D:\KEIL\C251\LIB\C2SFPL.LIB (?C?FPNEG)
         COMMENT TYPE 0: A251 V4.69.6.0
  D:\KEIL\C251\LIB\C2SFPL.LIB (?C?FCAST)
         COMMENT TYPE 0: A251 V4.69.6.0
  D:\KEIL\C251\LIB\C2SFPL.LIB (?C?CASTF)
         COMMENT TYPE 0: A251 V4.69.6.0
  D:\KEIL\C251\LIB\C2SL.LIB (?C?INITHDATA)
         COMMENT TYPE 0: A251 V4.69.6.0
  D:\KEIL\C251\LIB\C2SL.LIB (?C?SIDIV)
         COMMENT TYPE 0: A251 V4.69.6.0
  D:\KEIL\C251\LIB\C2SL.LIB (?C?LMUL)
         COMMENT TYPE 0: A251 V4.69.6.0
L251 LINKER/LOCATER V4.66.93.0                                                        10/23/2025  22:33:42  PAGE 4


  D:\KEIL\C251\LIB\C2SL.LIB (?C?LIMUL)
         COMMENT TYPE 0: A251 V4.69.6.0
  D:\KEIL\C251\LIB\C2SL.LIB (?C?ULDIV)
         COMMENT TYPE 0: A251 V4.69.6.0
  D:\KEIL\C251\LIB\C2SL.LIB (?C?SLDIV)
         COMMENT TYPE 0: A251 V4.69.6.0
  D:\KEIL\C251\LIB\C2SL.LIB (?C?BMOVEPP)
         COMMENT TYPE 0: A251 V4.69.6.0
  D:\KEIL\C251\LIB\C2SL.LIB (STRNCMP)
         COMMENT TYPE 0: C251 V5.58.7
  D:\KEIL\C251\LIB\C2SL.LIB (STRNCPY)
         COMMENT TYPE 0: C251 V5.58.7
  D:\KEIL\C251\LIB\C2SL.LIB (STRLEN)
         COMMENT TYPE 0: C251 V5.58.7
  D:\KEIL\C251\LIB\C2SL.LIB (STRCHR)
         COMMENT TYPE 0: C251 V5.58.7
  D:\KEIL\C251\LIB\C2SL.LIB (memcpy)
         COMMENT TYPE 0: C251 V5.58.7
  D:\KEIL\C251\LIB\C2SL.LIB (memset)
         COMMENT TYPE 0: C251 V5.58.7
  D:\KEIL\C251\LIB\C2SL.LIB (?C?INITHDATA_END)
         COMMENT TYPE 0: A251 V4.69.6.0


ACTIVE MEMORY CLASSES OF MODULE:  .\out_file\SEEKFREE (ai8051u_isr)

BASE        START       END         USED      MEMORY CLASS
==========================================================
000000H     000000H     0007FFH     000700H   EDATA
000000H     000000H     0007FFH               HDATA
FF0000H     FF0000H     FFFFFFH     00B7F3H   CODE
010000H     010000H     01FFFFH     001319H   XDATA
000000H     FF0000H     FFFFFFH     002193H   HCONST
000020H.0   000020H.0   00002FH.7   000000H.1 BIT
FF0000H     FF0000H     FFFFFFH     000004H   CONST
000000H     000000H     00007FH     000008H   DATA


MEMORY MAP OF MODULE:  .\out_file\SEEKFREE (ai8051u_isr)


START     STOP      LENGTH    ALIGN  RELOC    MEMORY CLASS   SEGMENT NAME
=========================================================================
000000H   000007H   000008H   ---    AT..     DATA           "REG BANK 0"
000008H.0 00001FH.7 000018H.0 ---    ---      **GAP**
000020H.0 000020H.0 000000H.1 BIT    UNIT     BIT            ?BI?ADC_GET
000020H.1 000020H   000000H.7 ---    ---      **GAP**
000021H   000720H   000700H   BYTE   UNIT     EDATA          ?STACK
000721H   00FFFFH   00F8DFH   ---    ---      **GAP**
010000H   010A61H   000A62H   BYTE   INSEG    XDATA          ?XD?MENU_FONT
010A62H   010C63H   000202H   BYTE   INSEG    XDATA          ?XD?ZF_DEVICE_TSL1401
010C64H   010E33H   0001D0H   BYTE   INSEG    XDATA          ?XD?ZF_DEVICE_GPS_TAU1201
010E34H   010F70H   00013DH   BYTE   INSEG    XDATA          ?XD?SEEKFREE_ASSISTANT
010F71H   011009H   000099H   BYTE   INSEG    XDATA          ?XD?FUNCTION
01100AH   01109EH   000095H   BYTE   UNIT     XDATA          _XDATA_GROUP_
01109FH   0110F7H   000059H   BYTE   INSEG    XDATA          ?XD?ZF_COMMON_DEBUG
0110F8H   01114EH   000057H   BYTE   INSEG    XDATA          ?XD?ZF_DEVICE_BLE6A20
01114FH   0111A5H   000057H   BYTE   INSEG    XDATA          ?XD?ZF_DEVICE_WIRELESS_UART
0111A6H   0111E3H   00003EH   BYTE   INSEG    XDATA          ?XD?ADC_GET
0111E4H   01120EH   00002BH   BYTE   INSEG    XDATA          ?XD?STRATEGY
01120FH   01122CH   00001EH   BYTE   INSEG    XDATA          ?XD?ZF_COMMON_TYPEDEF
01122DH   01124AH   00001EH   BYTE   INSEG    XDATA          ?XD?ZF_DEVICE_IMU963RA
01124BH   01125EH   000014H   BYTE   INSEG    XDATA          ?XD?ZF_DEVICE_ICM20602
01125FH   011272H   000014H   BYTE   INSEG    XDATA          ?XD?ZF_DEVICE_IMU660RA
011273H   011283H   000011H   BYTE   INSEG    XDATA          ?XD?CONTROL
L251 LINKER/LOCATER V4.66.93.0                                                        10/23/2025  22:33:42  PAGE 5


011284H   011290H   00000DH   BYTE   INSEG    XDATA          ?XD?ZF_DEVICE_DL1A
011291H   01129DH   00000DH   BYTE   INSEG    XDATA          ?XD?MENU
01129EH   0112A9H   00000CH   BYTE   INSEG    XDATA          ?XD?ZF_DRIVER_TIMER
0112AAH   0112B5H   00000CH   BYTE   INSEG    XDATA          ?XD?ZF_DRIVER_UART
0112B6H   0112C1H   00000CH   BYTE   INSEG    XDATA          ?XD?ZF_DEVICE_IMU660RB
0112C2H   0112CCH   00000BH   BYTE   INSEG    XDATA          ?XD?KEY
0112CDH   0112D6H   00000AH   BYTE   INSEG    XDATA          ?XD?ZF_DEVICE_IPS200
0112D7H   0112DEH   000008H   BYTE   UNIT     XDATA          ?XD?SOFT_IIC_DELAY?ZF_DRIVER_SOFT_IIC
0112DFH   0112E6H   000008H   BYTE   INSEG    XDATA          ?XD?ZF_DEVICE_TYPE
0112E7H   0112EEH   000008H   BYTE   INSEG    XDATA          ?XD?ZF_DEVICE_TFT180
0112EFH   0112F6H   000008H   BYTE   INSEG    XDATA          ?XD?ZF_DEVICE_IPS114
0112F7H   0112FDH   000007H   BYTE   INSEG    XDATA          ?XD?MAIN
0112FEH   011303H   000006H   BYTE   INSEG    XDATA          ?XD?ZF_DRIVER_ENCODER
011304H   011307H   000004H   BYTE   INSEG    XDATA          ?XD?ZF_COMMON_CLOCK
011308H   01130BH   000004H   BYTE   INSEG    XDATA          ?XD?ZF_DRIVER_DELAY
01130CH   01130FH   000004H   BYTE   INSEG    XDATA          ?XD?SEEKFREE_ASSISTANT_INTERFACE
011310H   011312H   000003H   BYTE   UNIT     XDATA          ?XD?SOFT_IIC_READ_DATA?ZF_DRIVER_SOFT_IIC
011313H   011314H   000002H   BYTE   UNIT     XDATA          ?XD?SOFT_IIC_SEND_DATA?ZF_DRIVER_SOFT_IIC
011315H   011315H   000001H   BYTE   INSEG    XDATA          ?XD?ZF_DRIVER_ADC
011316H   011316H   000001H   BYTE   UNIT     XDATA          ?XD?SOFT_IIC_SEND_ACK?ZF_DRIVER_SOFT_IIC
011317H   011317H   000001H   BYTE   UNIT     XDATA          ?XD?SOFT_IIC_WAIT_ACK?ZF_DRIVER_SOFT_IIC
011318H   011318H   000001H   BYTE   INSEG    XDATA          ?XD?ISR
011319H   FEFFFFH   FDECE7H   ---    ---      **GAP**
FF0000H   FF0002H   000003H   ---    OFFS..   CODE           ?CO?START251?4
FF0003H   FF0008H   000006H   BYTE   INSEG    CODE           ?PR?SPI_WRITE_8BIT?ZF_DRIVER_SPI
FF0009H   FF000AH   000002H   BYTE   UNIT     HCONST         ?HC?MAIN
FF000BH   FF000DH   000003H   ---    OFFS..   CODE           ?PR?IV?1
FF000EH   FF001AH   00000DH   BYTE   INSEG    CODE           ?PR?TFT180_SET_COLOR?ZF_DEVICE_TFT180
FF001BH   FF001DH   000003H   ---    OFFS..   CODE           ?PR?IV?3
FF001EH   FF0020H   000003H   BYTE   INSEG    CODE           ?PR?INTERRUPT_GLOBAL_ENABLE?ZF_COMMON_INTERRUPT
FF0021H   FF0022H   000002H   ---    ---      **GAP**
FF0023H   FF0025H   000003H   ---    OFFS..   CODE           ?PR?IV?4
FF0026H   FF0042H   00001DH   BYTE   INSEG    CODE           ?PR?ENCONDER_INIT?FUNCTION
FF0043H   FF0045H   000003H   ---    OFFS..   CODE           ?PR?IV?8
FF0046H   FF005FH   00001AH   BYTE   INSEG    CODE           ?PR?SERVO_INIT?FUNCTION
FF0060H   FF0062H   000003H   ---    ---      **GAP**
FF0063H   FF0065H   000003H   ---    OFFS..   CODE           ?PR?IV?12
FF0066H   FF008AH   000025H   BYTE   INSEG    CODE           ?PR?MAIN?MAIN
FF008BH   FF008DH   000003H   ---    OFFS..   CODE           ?PR?IV?17
FF008EH   FF0091H   000004H   BYTE   UNIT     CONST          ?CO?PRINTF
FF0092H   FF0092H   000001H   ---    ---      **GAP**
FF0093H   FF0095H   000003H   ---    OFFS..   CODE           ?PR?IV?18
FF0096H   FF009AH   000005H   ---    ---      **GAP**
FF009BH   FF009DH   000003H   ---    OFFS..   CODE           ?PR?IV?19
FF009EH   FF00A2H   000005H   ---    ---      **GAP**
FF00A3H   FF00A5H   000003H   ---    OFFS..   CODE           ?PR?IV?20
FF00A6H   FF00BFH   00001AH   BYTE   INSEG    CODE           ?PR?HANDLE_KEY5?MENU
FF00C0H   FF00C2H   000003H   ---    ---      **GAP**
FF00C3H   FF00C5H   000003H   ---    OFFS..   CODE           ?PR?IV?24
FF00C6H   FF0198H   0000D3H   BYTE   INSEG    CODE           ?PR?GPIO_GET_LEVEL?ZF_DRIVER_GPIO
FF0199H   FF019AH   000002H   ---    ---      **GAP**
FF019BH   FF019DH   000003H   ---    OFFS..   CODE           ?CO?ai8051u_isr?1
FF019EH   FF01A7H   00000AH   BYTE   INSEG    CODE           ?PR?KEY3_HANDLE1?MENU
FF01A8H   FF01AAH   000003H   ---    ---      **GAP**
FF01ABH   FF01ADH   000003H   ---    OFFS..   CODE           ?CO?ai8051u_isr?2
FF01AEH   FF01B7H   00000AH   BYTE   INSEG    CODE           ?PR?BUZZER_ON?BUZZER
FF01B8H   FF01BAH   000003H   ---    ---      **GAP**
FF01BBH   FF01BDH   000003H   ---    OFFS..   CODE           ?CO?ai8051u_isr?3
FF01BEH   FF01C6H   000009H   BYTE   INSEG    CODE           ?PR?BUZZER_OFF?BUZZER
FF01C7H   FF01CAH   000004H   ---    ---      **GAP**
FF01CBH   FF01CDH   000003H   ---    OFFS..   CODE           ?CO?ai8051u_isr?4
FF01CEH   FF021AH   00004DH   BYTE   INSEG    CODE           ?PR?FIFO_HEAD_OFFSET?ZF_COMMON_FIFO
FF021BH   FF021DH   000003H   ---    OFFS..   CODE           ?CO?ai8051u_isr?5
FF021EH   FF221DH   002000H   BYTE   UNIT     CODE           ?CO?ZF_DEVICE_CONFIG
FF221EH   FF393FH   001722H   BYTE   UNIT     CODE           ?C?LIB_CODE
L251 LINKER/LOCATER V4.66.93.0                                                        10/23/2025  22:33:42  PAGE 6


FF3940H   FF4617H   000CD8H   BYTE   UNIT     CODE           ?CO?OLED
FF4618H   FF4E34H   00081DH   BYTE   INSEG    CODE           ?PR?ZF_SPRINTF?ZF_COMMON_FUNCTION
FF4E35H   FF5442H   00060EH   BYTE   INSEG    CODE           ?PR?SHOW_PARARM?FUNCTION
FF5443H   FF5A32H   0005F0H   BYTE   UNIT     CODE           ?CO?ZF_COMMON_FONT
FF5A33H   FF5F42H   000510H   BYTE   INSEG    CODE           ?PR?PWM_INIT?ZF_DRIVER_PWM
FF5F43H   FF63E7H   0004A5H   BYTE   INSEG    CODE           ?PR?SPI_INIT?ZF_DRIVER_SPI
FF63E8H   FF67E4H   0003FDH   BYTE   INSEG    CODE           ?PR?FIFO_WRITE_BUFFER?ZF_COMMON_FIFO
FF67E5H   FF6BB1H   0003CDH   BYTE   INSEG    CODE           ?PR?GPIO_SET_DIR?ZF_DRIVER_GPIO
FF6BB2H   FF6ED2H   000321H   BYTE   INSEG    CODE           ?PR?STATE_OF_ROAD?STRATEGY
FF6ED3H   FF71AEH   0002DCH   BYTE   INSEG    CODE           ?PR?TFT180_INIT?ZF_DEVICE_TFT180
FF71AFH   FF7467H   0002B9H   BYTE   INSEG    CODE           ?PR?GPIO_SET_LEVEL_SPEED?ZF_DRIVER_GPIO
FF7468H   FF76DEH   000277H   BYTE   INSEG    CODE           ?PR?HELP_TURN2?STRATEGY
FF76DFH   FF7916H   000238H   BYTE   INSEG    CODE           ?PR?PID_UPDATE?CONTROL
FF7917H   FF7B4BH   000235H   BYTE   INSEG    CODE           ?PR?UART_INIT?ZF_DRIVER_UART
FF7B4CH   FF7D71H   000226H   BYTE   INSEG    CODE           ?PR?GPIO_SET_MODE?ZF_DRIVER_GPIO
FF7D72H   FF7F4CH   0001DBH   BYTE   INSEG    CODE           ?PR?PIT_INIT?ZF_DRIVER_PIT
FF7F4DH   FF811CH   0001D0H   BYTE   INSEG    CODE           ?PR?TURN_MODE_INIT?FUNCTION
FF811DH   FF82E0H   0001C4H   BYTE   INSEG    CODE           ?PR?TFT180_SHOW_FLOAT?ZF_DEVICE_TFT180
FF82E1H   FF8480H   0001A0H   BYTE   INSEG    CODE           ?PR?CYCLE_UPDATE?CONTROL
FF8481H   FF8610H   000190H   BYTE   INSEG    CODE           ?PR?PWM_SET_DUTY?ZF_DRIVER_PWM
FF8611H   FF8783H   000173H   BYTE   INSEG    CODE           ?PR?GPIO_SET_LEVEL?ZF_DRIVER_GPIO
FF8784H   FF88D5H   000152H   BYTE   INSEG    CODE           ?PR?SPEED_DIFF?CONTROL
FF88D6H   FF8A1CH   000147H   BYTE   INSEG    CODE           ?PR?UART_DMA_INIT?ZF_DRIVER_UART
FF8A1DH   FF8B62H   000146H   BYTE   INSEG    CODE           ?PR?GPIO_SET_IMPEDANCE?ZF_DRIVER_GPIO
FF8B63H   FF8C97H   000135H   BYTE   INSEG    CODE           ?PR?MENU_DISPLAY_CONTENT?MENU
FF8C98H   FF8DCAH   000133H   BYTE   INSEG    CODE           ?PR?TFT180_SHOW_INT16?ZF_DEVICE_TFT180
FF8DCBH   FF8EECH   000122H   BYTE   INSEG    CODE           ?PR?TFT180_SET_REGION?ZF_DEVICE_TFT180
FF8EEDH   FF9006H   00011AH   BYTE   INSEG    CODE           ?PR?KEY_SCANER?KEY
FF9007H   FF9112H   00010CH   BYTE   INSEG    CODE           ?PR?ENCODER_DIR_INIT?ZF_DRIVER_ENCODER
FF9113H   FF9205H   0000F3H   BYTE   INSEG    CODE           ?PR?IF_CYCLE?STRATEGY
FF9206H   FF92E7H   0000E2H   BYTE   INSEG    CODE           ?PR?UART_WRITE_BUFFER?ZF_DRIVER_UART
FF92E8H   FF93C8H   0000E1H   BYTE   INSEG    CODE           ?PR?ADC_SAMPLEANDFILTER?ADC_GET
FF93C9H   FF94A8H   0000E0H   BYTE   INSEG    CODE           ?PR?TFT180_SHOW_CHAR?ZF_DEVICE_TFT180
FF94A9H   FF9586H   0000DEH   BYTE   INSEG    CODE           ?PR?CLOCK_INIT?ZF_COMMON_CLOCK
FF9587H   FF9662H   0000DCH   BYTE   INSEG    CODE           ?PR?HANDLE_KEY1?MENU
FF9663H   FF973AH   0000D8H   BYTE   INSEG    CODE           ?PR?MOTOR_RIGHT_PI_CONTROL?CONTROL
FF973BH   FF9812H   0000D8H   BYTE   INSEG    CODE           ?PR?MOTOR_LEFT_PI_CONTROL?CONTROL
FF9813H   FF98E2H   0000D0H   BYTE   INSEG    CODE           ?PR?MENU_SETCHILDREN?MENU
FF98E3H   FF99B0H   0000CEH   BYTE   INSEG    CODE           ?PR?KEY3_HANDLE2?MENU
FF99B1H   FF9A77H   0000C7H   BYTE   INSEG    CODE           ?PR?HANDLE_KEY4?MENU
FF9A78H   FF9B33H   0000BCH   BYTE   INSEG    CODE           ?PR?GPIO_INIT?ZF_DRIVER_GPIO
FF9B34H   FF9BEEH   0000BBH   BYTE   INSEG    CODE           ?PR?TURN_MODE?KEY
FF9BEFH   FF9CA8H   0000BAH   BYTE   INSEG    CODE           ?PR?INTERRUPT_SET_PRIORITY?ZF_COMMON_INTERRUPT
FF9CA9H   FF9D5CH   0000B4H   BYTE   INSEG    CODE           ?PR?SOFT_IIC_READ_DATA?ZF_DRIVER_SOFT_IIC
FF9D5DH   FF9E0FH   0000B3H   BYTE   INSEG    CODE           ?PR?FAST_SQRT?FUNCTION
FF9E10H   FF9EBFH   0000B0H   BYTE   INSEG    CODE           ?PR?_M?MAIN
FF9EC0H   FF9F6BH   0000ACH   BYTE   INSEG    CODE           ?PR?SERVO_CONTROL?FUNCTION
FF9F6CH   FFA015H   0000AAH   BYTE   INSEG    CODE           ?PR?PIT_HANDLER1?MAIN
FFA016H   FFA0BEH   0000A9H   BYTE   INSEG    CODE           ?PR?TFT180_SHOW_STRING?ZF_DEVICE_TFT180
FFA0BFH   FFA164H   0000A6H   BYTE   INSEG    CODE           ?PR?ADC_FILTER?ADC_GET
FFA165H   FFA209H   0000A5H   BYTE   INSEG    CODE           ?PR?ENCODER_GET_COUNT?ZF_DRIVER_ENCODER
FFA20AH   FFA2AEH   0000A5H   BYTE   INSEG    CODE           ?PR?DMA_UART1_IRQHANDLER?ISR
FFA2AFH   FFA34CH   00009EH   BYTE   INSEG    CODE           ?PR?MOTOR_UPDATE_SMOOTH?CONTROL
FFA34DH   FFA3E3H   000097H   BYTE   INSEG    CODE           ?PR?DEBUG_INIT?ZF_COMMON_DEBUG
FFA3E4H   FFA478H   000095H   BYTE   INSEG    CODE           ?PR?ENCODER_CLEAR_COUNT?ZF_DRIVER_ENCODER
FFA479H   FFA50CH   000094H   BYTE   INSEG    CODE           ?PR?NUMBER_CONVERSION_ASCII?ZF_COMMON_FUNCTION
FFA50DH   FFA5A0H   000094H   BYTE   INSEG    CODE           ?PR?SERVO_TURN_PID?CONTROL
FFA5A1H   FFA631H   000091H   BYTE   INSEG    CODE           ?PR?SOFT_IIC_SEND_DATA?ZF_DRIVER_SOFT_IIC
FFA632H   FFA6C1H   000090H   BYTE   INSEG    CODE           ?PR?UART_RX_START_BUFF?ZF_DRIVER_UART
FFA6C2H   FFA74CH   00008BH   BYTE   INSEG    CODE           ?PR?UNIFICATION?FUNCTION
FFA74DH   FFA7D5H   000089H   BYTE   INSEG    CODE           ?PR?DMA_UART2_IRQHANDLER?ISR
FFA7D6H   FFA85EH   000089H   BYTE   INSEG    CODE           ?PR?DMA_UART3_IRQHANDLER?ISR
FFA85FH   FFA8E7H   000089H   BYTE   INSEG    CODE           ?PR?DMA_UART4_IRQHANDLER?ISR
FFA8E8H   FFA96FH   000088H   BYTE   INSEG    CODE           ?PR?ADC_INIT?ZF_DRIVER_ADC
FFA970H   FFA9F2H   000083H   BYTE   INSEG    CODE           ?PR?REFESH_ARROW?MENU
L251 LINKER/LOCATER V4.66.93.0                                                        10/23/2025  22:33:42  PAGE 7


FFA9F3H   FFAA73H   000081H   BYTE   INSEG    CODE           ?PR?FIFO_INIT?ZF_COMMON_FIFO
FFAA74H   FFAAEFH   00007CH   BYTE   INSEG    CODE           ?PR?MENU_INIT?MENU
FFAAF0H   FFAB68H   000079H   BYTE   INSEG    CODE           ?PR?SOFT_IIC_WAIT_ACK?ZF_DRIVER_SOFT_IIC
FFAB69H   FFABDFH   000077H   BYTE   INSEG    CODE           ?PR?SHOW_BUJIN?MENU
FFABE0H   FFAC52H   000073H   BYTE   INSEG    CODE           ?PR?SOFT_IIC_SEND_ACK?ZF_DRIVER_SOFT_IIC
FFAC53H   FFACC4H   000072H   BYTE   INSEG    CODE           ?PR?INIT_ALL?FUNCTION
FFACC5H   FFAD2FH   00006BH   BYTE   INSEG    CODE           ?PR?SYSTEM_DELAY_MS?ZF_DRIVER_DELAY
FFAD30H   FFAD97H   000068H   BYTE   INSEG    CODE           ?PR?DEBUG_ASSERT_HANDLER?ZF_COMMON_DEBUG
FFAD98H   FFADFEH   000067H   BYTE   INSEG    CODE           ?PR?TFT180_CLEAR?ZF_DEVICE_TFT180
FFADFFH   FFAE60H   000062H   BYTE   INSEG    CODE           ?PR?SOFT_IIC_STOP?ZF_DRIVER_SOFT_IIC
FFAE61H   FFAEC2H   000062H   BYTE   INSEG    CODE           ?PR?UART_QUERY_BYTE?ZF_DRIVER_UART
FFAEC3H   FFAF1FH   00005DH   BYTE   INSEG    CODE           ?PR?SYSTEM_DELAY_INIT?ZF_DRIVER_DELAY
FFAF20H   FFAF7CH   00005DH   BYTE   INSEG    CODE           ?PR?MOTOR_INIT?FUNCTION
FFAF7DH   FFAF9DH   000021H   BYTE   UNIT     CODE           ?C_C51STARTUP
FFAF9EH   FFAF9FH   000002H   BYTE   UNIT     CODE           ?C_C51STARTUP?1
FFAFA0H   FFAFD0H   000031H   BYTE   UNIT     CODE           ?C_C51STARTUP?2
FFAFD1H   FFAFD3H   000003H   BYTE   UNIT     CODE           ?C_C51STARTUP?3
FFAFD4H   FFB02AH   000057H   BYTE   INSEG    CODE           ?PR?SOFT_IIC_START?ZF_DRIVER_SOFT_IIC
FFB02BH   FFB080H   000056H   BYTE   INSEG    CODE           ?PR?SERVE_TEST?DEVICE_TEST
FFB081H   FFB0D2H   000052H   BYTE   INSEG    CODE           ?PR?HANDLE_KEY3?MENU
FFB0D3H   FFB11EH   00004CH   BYTE   INSEG    CODE           ?PR?TIMER_FUNCITON_CHECK?ZF_DRIVER_TIMER
FFB11FH   FFB16AH   00004CH   BYTE   INSEG    CODE           ?PR?UART_FUNCITON_CHECK?ZF_DRIVER_UART
FFB16BH   FFB1B5H   00004BH   BYTE   INSEG    CODE           ?PR?TM11_IRQHANDLER?ISR
FFB1B6H   FFB1FEH   000049H   BYTE   INSEG    CODE           ?PR?MOTOR_UPDATE?CONTROL
FFB1FFH   FFB246H   000048H   BYTE   INSEG    CODE           ?PR?PRINTF_REVERSE_ORDER?ZF_COMMON_FUNCTION
FFB247H   FFB28BH   000045H   BYTE   INSEG    CODE           ?PR?UART_RX_INTERRUPT?ZF_DRIVER_UART
FFB28CH   FFB2D0H   000045H   BYTE   INSEG    CODE           ?PR?KEY_NUMBER?KEY
FFB2D1H   FFB313H   000043H   BYTE   INSEG    CODE           ?PR?HANDLE_KEY2?MENU
FFB314H   FFB355H   000042H   BYTE   INSEG    CODE           ?PR?SPI_WRITE_DAT?ZF_DRIVER_SPI
FFB356H   FFB393H   00003EH   BYTE   INSEG    CODE           ?PR?TM0_IRQHANDLER?ISR
FFB394H   FFB3D1H   00003EH   BYTE   INSEG    CODE           ?PR?TM1_IRQHANDLER?ISR
FFB3D2H   FFB40FH   00003EH   BYTE   INSEG    CODE           ?PR?TM2_IRQHANDLER?ISR
FFB410H   FFB44DH   00003EH   BYTE   INSEG    CODE           ?PR?TM3_IRQHANDLER?ISR
FFB44EH   FFB48BH   00003EH   BYTE   INSEG    CODE           ?PR?TM4_IRQHANDLER?ISR
FFB48CH   FFB4C9H   00003EH   BYTE   INSEG    CODE           ?PR?PROTECT?FUNCTION
FFB4CAH   FFB506H   00003DH   BYTE   INSEG    CODE           ?PR?MOTORL_SETSPEED?CONTROL
FFB507H   FFB543H   00003DH   BYTE   INSEG    CODE           ?PR?MOTORR_SETSPEED?CONTROL
FFB544H   FFB57CH   000039H   BYTE   INSEG    CODE           ?PR?DEBUG_INTERRUPR_HANDLER?ZF_COMMON_DEBUG
FFB57DH   FFB5B5H   000039H   BYTE   INSEG    CODE           ?PR?SPEED_CONTROL?FUNCTION
FFB5B6H   FFB5EDH   000038H   BYTE   INSEG    CODE           ?PR?SOFT_IIC_DELAY?ZF_DRIVER_SOFT_IIC
FFB5EEH   FFB620H   000033H   BYTE   INSEG    CODE           ?PR?PWM_TEST?DEVICE_TEST
FFB621H   FFB650H   000030H   BYTE   INSEG    CODE           ?PR?ADC_CONVERT?ZF_DRIVER_ADC
FFB651H   FFB67EH   00002EH   BYTE   INSEG    CODE           ?PR?SHOW_TEST_INFO?FUNCTION
FFB67FH   FFB6ACH   00002EH   BYTE   INSEG    CODE           ?PR?MENU_HANDLE_KEY?MENU
FFB6ADH   FFB6D9H   00002DH   BYTE   INSEG    CODE           ?PR?ADC_GETINIT?ADC_GET
FFB6DAH   FFB704H   00002BH   BYTE   INSEG    CODE           ?PR?SPEED_CONTROL_RING?FUNCTION
FFB705H   FFB72BH   000027H   BYTE   INSEG    CODE           ?PR?TFT180_SET_DIR?ZF_DEVICE_TFT180
FFB72CH   FFB750H   000025H   BYTE   INSEG    CODE           ?PR?MEMCPY?_?MEMCPY
FFB751H   FFB76FH   00001FH   BYTE   INSEG    CODE           ?PR?SPI_WRITE_16BIT?ZF_DRIVER_SPI
FFB770H   FFB789H   00001AH   BYTE   INSEG    CODE           ?PR?SET_SEVO?DEVICE_TEST
FFB78AH   FFB79FH   000016H   BYTE   INSEG    CODE           ?PR?TFT180_WRITE_INDEX?ZF_DEVICE_TFT180
FFB7A0H   FFB7B3H   000014H   BYTE   INSEG    CODE           ?PR?UART_WRITE_BYTE?ZF_DRIVER_UART
FFB7B4H   FFB7C5H   000012H   BYTE   INSEG    CODE           ?PR?CAR_STOP?FUNCTION
FFB7C6H   FFB7D6H   000011H   BYTE   INSEG    CODE           ?PR?SHOW_ALL_MENU?MENU
FFB7D7H   FFB7E7H   000011H   BYTE   INSEG    CODE           ?PR?BUZZER_INIT?BUZZER
FFB7E8H   FFB7F7H   000010H   BYTE   INSEG    CODE           ?PR?PUTCHAR?ZF_COMMON_DEBUG
FFB7F8H   FFB807H   000010H   BYTE   INSEG    CODE           ?PR?SER_SERVO_DUTY?CONTROL
FFB808H   FFB817H   000010H   BYTE   INSEG    CODE           ?PR?GO_FUNCTION?FUNCTION
FFB818H   FFC881H   00106AH   BYTE   UNIT     HCONST         ?C_INITHDATA
FFC882H   FFCE81H   000600H   BYTE   UNIT     HCONST         ?HC?EEPROM
FFCE82H   FFD081H   000200H   BYTE   UNIT     HCONST         ?HC?ZF_DRIVER_EEPROM
FFD082H   FFD1B0H   00012FH   BYTE   UNIT     HCONST         ?HC?ZF_DEVICE_DL1A
FFD1B1H   FFD2A6H   0000F6H   BYTE   UNIT     HCONST         ?HC?FUNCTION
FFD2A7H   FFD376H   0000D0H   BYTE   UNIT     HCONST         ?HC?ZF_DEVICE_IMU963RA
FFD377H   FFD41DH   0000A7H   BYTE   UNIT     HCONST         ?HC?ZF_DEVICE_IMU660RA
L251 LINKER/LOCATER V4.66.93.0                                                        10/23/2025  22:33:42  PAGE 8


FFD41EH   FFD4C1H   0000A4H   BYTE   UNIT     HCONST         ?HC?SEEKFREE_ASSISTANT
FFD4C2H   FFD563H   0000A2H   BYTE   UNIT     HCONST         ?HC?ZF_DEVICE_GPS_TAU1201
FFD564H   FFD5EDH   00008AH   BYTE   UNIT     HCONST         ?HC?ZF_DRIVER_PWM
FFD5EEH   FFD675H   000088H   BYTE   UNIT     HCONST         ?HC?ZF_DEVICE_ICM20602
FFD676H   FFD6B4H   00003FH   BYTE   UNIT     HCONST         ?HC?ZF_COMMON_FUNCTION
FFD6B5H   FFD6E8H   000034H   BYTE   UNIT     HCONST         ?HC?ZF_DEVICE_WIRELESS_UART
FFD6E9H   FFD71BH   000033H   BYTE   UNIT     HCONST         ?HC?ZF_DEVICE_TFT180
FFD71CH   FFD74EH   000033H   BYTE   UNIT     HCONST         ?HC?ZF_DEVICE_IPS114
FFD74FH   FFD781H   000033H   BYTE   UNIT     HCONST         ?HC?ZF_DEVICE_IPS200
FFD782H   FFD7B1H   000030H   BYTE   UNIT     HCONST         ?HC?KEY
FFD7B2H   FFD7E0H   00002FH   BYTE   UNIT     HCONST         ?HC?ZF_DRIVER_SOFT_IIC
FFD7E1H   FFD80FH   00002FH   BYTE   UNIT     HCONST         ?HC?ZF_DRIVER_SOFT_SPI
FFD810H   FFD83DH   00002EH   BYTE   UNIT     HCONST         ?HC?ZF_DRIVER_ENCODER
FFD83EH   FFD86BH   00002EH   BYTE   UNIT     HCONST         ?HC?ZF_DEVICE_BLE6A20
FFD86CH   FFD896H   00002BH   BYTE   UNIT     HCONST         ?HC?ZF_COMMON_FIFO
FFD897H   FFD8C1H   00002BH   BYTE   UNIT     HCONST         ?HC?ZF_DRIVER_GPIO
FFD8C2H   FFD8ECH   00002BH   BYTE   UNIT     HCONST         ?HC?ZF_DRIVER_UART
FFD8EDH   FFD916H   00002AH   BYTE   UNIT     HCONST         ?HC?ZF_DRIVER_ADC
FFD917H   FFD940H   00002AH   BYTE   UNIT     HCONST         ?HC?ZF_DRIVER_SPI
FFD941H   FFD968H   000028H   BYTE   UNIT     HCONST         ?HC?MENU
FFD969H   FFD98DH   000025H   BYTE   UNIT     HCONST         ?HC?ZF_COMMON_DEBUG
FFD98EH   FFD9A8H   00001BH   BYTE   UNIT     HCONST         ?HC?ZF_DEVICE_IMU660RB

* * * * * * * * *   R E M O V E D     S E G M E N T S   * * * * * * * *
   *DEL*:           00003EH   BYTE   INSEG    CODE           ?PR?DEBUG_READ_BUFFER?ZF_COMMON_DEBUG
   *DEL*:           000045H   BYTE   INSEG    CODE           ?PR?DEBUG_SEND_BUFFER?ZF_COMMON_DEBUG
   *DEL*:           000004H   BYTE   UNIT     XDATA          ?XD?DEBUG_SEND_BUFFER?ZF_COMMON_DEBUG
   *DEL*:           000004H   BYTE   UNIT     XDATA          ?XD?DEBUG_READ_BUFFER?ZF_COMMON_DEBUG
   *DEL*:           00043DH   BYTE   INSEG    CODE           ?PR?FIFO_READ_BUFFER?ZF_COMMON_FIFO
   *DEL*:           0000C7H   BYTE   INSEG    CODE           ?PR?FIFO_CLEAR?ZF_COMMON_FIFO
   *DEL*:           00004DH   BYTE   INSEG    CODE           ?PR?FIFO_END_OFFSET?ZF_COMMON_FIFO
   *DEL*:           000033H   BYTE   INSEG    CODE           ?PR?FIFO_USED?ZF_COMMON_FIFO
   *DEL*:           000002H   BYTE   UNIT     XDATA          ?XD?FIFO_CLEAR?ZF_COMMON_FIFO
   *DEL*:           000014H   BYTE   UNIT     XDATA          ?XD?FIFO_READ_BUFFER?ZF_COMMON_FIFO
   *DEL*:           0002D1H   BYTE   INSEG    CODE           ?PR?FUNC_DOUBLE_TO_STR?ZF_COMMON_FUNCTION
   *DEL*:           000245H   BYTE   INSEG    CODE           ?PR?FUNC_STR_TO_DOUBLE?ZF_COMMON_FUNCTION
   *DEL*:           000298H   BYTE   INSEG    CODE           ?PR?FUNC_FLOAT_TO_STR?ZF_COMMON_FUNCTION
   *DEL*:           00019DH   BYTE   INSEG    CODE           ?PR?FUNC_STR_TO_FLOAT?ZF_COMMON_FUNCTION
   *DEL*:           000024H   BYTE   INSEG    CODE           ?PR?FUNC_SOFT_DELAY?ZF_COMMON_FUNCTION
   *DEL*:           0000CCH   BYTE   INSEG    CODE           ?PR?FUNC_UINT_TO_STR?ZF_COMMON_FUNCTION
   *DEL*:           000079H   BYTE   INSEG    CODE           ?PR?FUNC_STR_TO_UINT?ZF_COMMON_FUNCTION
   *DEL*:           0000FAH   BYTE   INSEG    CODE           ?PR?FUNC_HEX_TO_STR?ZF_COMMON_FUNCTION
   *DEL*:           00011BH   BYTE   INSEG    CODE           ?PR?FUNC_STR_TO_HEX?ZF_COMMON_FUNCTION
   *DEL*:           000149H   BYTE   INSEG    CODE           ?PR?FUNC_INT_TO_STR?ZF_COMMON_FUNCTION
   *DEL*:           0000BAH   BYTE   INSEG    CODE           ?PR?FUNC_STR_TO_INT?ZF_COMMON_FUNCTION
   *DEL*:           000019H   BYTE   INSEG    CODE           ?PR?FUNC_GET_GREATEST_COMMON_DIVISOR?ZF_COMMON_FUNCTION
   *DEL*:           000004H   BYTE   UNIT     XDATA          ?XD?FUNC_SOFT_DELAY?ZF_COMMON_FUNCTION
   *DEL*:           000005H   BYTE   UNIT     XDATA          ?XD?FUNC_STR_TO_INT?ZF_COMMON_FUNCTION
   *DEL*:           000019H   BYTE   UNIT     XDATA          ?XD?FUNC_INT_TO_STR?ZF_COMMON_FUNCTION
   *DEL*:           000004H   BYTE   UNIT     XDATA          ?XD?FUNC_STR_TO_UINT?ZF_COMMON_FUNCTION
   *DEL*:           000015H   BYTE   UNIT     XDATA          ?XD?FUNC_UINT_TO_STR?ZF_COMMON_FUNCTION
   *DEL*:           00000DH   BYTE   UNIT     XDATA          ?XD?FUNC_STR_TO_FLOAT?ZF_COMMON_FUNCTION
   *DEL*:           000026H   BYTE   UNIT     XDATA          ?XD?FUNC_FLOAT_TO_STR?ZF_COMMON_FUNCTION
   *DEL*:           000019H   BYTE   UNIT     XDATA          ?XD?FUNC_STR_TO_DOUBLE?ZF_COMMON_FUNCTION
   *DEL*:           000038H   BYTE   UNIT     XDATA          ?XD?FUNC_DOUBLE_TO_STR?ZF_COMMON_FUNCTION
   *DEL*:           00000AH   BYTE   UNIT     XDATA          ?XD?FUNC_STR_TO_HEX?ZF_COMMON_FUNCTION
   *DEL*:           000021H   BYTE   UNIT     XDATA          ?XD?FUNC_HEX_TO_STR?ZF_COMMON_FUNCTION
   *DEL*:           000003H   BYTE   INSEG    CODE           ?PR?INTERRUPT_GLOBAL_DISABLE?ZF_COMMON_INTERRUPT
   *DEL*:           00006EH   BYTE   INSEG    CODE           ?PR?ADC_MEAN_FILTER_CONVERT?ZF_DRIVER_ADC
   *DEL*:           000004H   BYTE   UNIT     XDATA          ?XD?ADC_MEAN_FILTER_CONVERT?ZF_DRIVER_ADC
   *DEL*:           00006BH   BYTE   INSEG    CODE           ?PR?SYSTEM_DELAY_US?ZF_DRIVER_DELAY
   *DEL*:           00001CH   BYTE   INSEG    CODE           ?PR?IAP_SET_TPS?ZF_DRIVER_EEPROM
   *DEL*:           00000BH   BYTE   INSEG    CODE           ?PR?EEPROM_TRIG?ZF_DRIVER_EEPROM
   *DEL*:           000028H   BYTE   INSEG    CODE           ?PR?IAP_ERASE_PAGE?ZF_DRIVER_EEPROM
   *DEL*:           000004H   BYTE   INSEG    CODE           ?PR?IAP_IDLE?ZF_DRIVER_EEPROM
L251 LINKER/LOCATER V4.66.93.0                                                        10/23/2025  22:33:42  PAGE 9


   *DEL*:           000049H   BYTE   INSEG    CODE           ?PR?IAP_READ_BUFF?ZF_DRIVER_EEPROM
   *DEL*:           0000F8H   BYTE   INSEG    CODE           ?PR?EXTERN_IAP_WRITE_BUFF?ZF_DRIVER_EEPROM
   *DEL*:           000049H   BYTE   INSEG    CODE           ?PR?IAP_WRITE_BUFF?ZF_DRIVER_EEPROM
   *DEL*:           000023H   BYTE   INSEG    CODE           ?PR?IAP_READ_BYTE?ZF_DRIVER_EEPROM
   *DEL*:           000007H   BYTE   INSEG    CODE           ?PR?IAP_INIT?ZF_DRIVER_EEPROM
   *DEL*:           00002AH   BYTE   INSEG    CODE           ?PR?IAP_WRITE_BYTE?ZF_DRIVER_EEPROM
   *DEL*:           00000DH   BYTE   INSEG    CODE           ?PR?IAP_GET_CMD_STATE?ZF_DRIVER_EEPROM
   *DEL*:           000000H.1 BIT    UNIT     BIT            ?BI?IAP_READ_BYTE?ZF_DRIVER_EEPROM
   *DEL*:           000000H.1 BIT    UNIT     BIT            ?BI?IAP_WRITE_BYTE?ZF_DRIVER_EEPROM
   *DEL*:           000006H   BYTE   UNIT     XDATA          ?XD?IAP_READ_BUFF?ZF_DRIVER_EEPROM
   *DEL*:           000006H   BYTE   UNIT     XDATA          ?XD?IAP_WRITE_BUFF?ZF_DRIVER_EEPROM
   *DEL*:           000000H.1 BIT    UNIT     BIT            ?BI?IAP_ERASE_PAGE?ZF_DRIVER_EEPROM
   *DEL*:           000206H   BYTE   UNIT     XDATA          ?XD?EXTERN_IAP_WRITE_BUFF?ZF_DRIVER_EEPROM
   *DEL*:           00001BH   BYTE   INSEG    CODE           ?PR?GPIO_TOGGLE_LEVEL?ZF_DRIVER_GPIO
   *DEL*:           00025FH   BYTE   INSEG    CODE           ?PR?PWM_SET_FREQ?ZF_DRIVER_PWM
   *DEL*:           000010H   BYTE   UNIT     XDATA          ?XD?PWM_SET_FREQ?ZF_DRIVER_PWM
   *DEL*:           000052H   BYTE   INSEG    CODE           ?PR?SOFT_IIC_WRITE_8BIT_REGISTER?ZF_DRIVER_SOFT_IIC
   *DEL*:           00010DH   BYTE   INSEG    CODE           ?PR?SOFT_IIC_READ_16BIT_REGISTERS?ZF_DRIVER_SOFT_IIC
   *DEL*:           00006EH   BYTE   INSEG    CODE           ?PR?SOFT_IIC_SCCB_READ_REGISTER?ZF_DRIVER_SOFT_IIC
   *DEL*:           0000A5H   BYTE   INSEG    CODE           ?PR?SOFT_IIC_READ_16BIT_REGISTER?ZF_DRIVER_SOFT_IIC
   *DEL*:           000176H   BYTE   INSEG    CODE           ?PR?SOFT_IIC_TRANSFER_16BIT_ARRAY?ZF_DRIVER_SOFT_IIC
   *DEL*:           0000D0H   BYTE   INSEG    CODE           ?PR?SOFT_IIC_WRITE_16BIT_REGISTERS?ZF_DRIVER_SOFT_IIC
   *DEL*:           000052H   BYTE   INSEG    CODE           ?PR?SOFT_IIC_SCCB_WRITE_REGISTER?ZF_DRIVER_SOFT_IIC
   *DEL*:           00004CH   BYTE   INSEG    CODE           ?PR?SOFT_IIC_READ_8BIT?ZF_DRIVER_SOFT_IIC
   *DEL*:           0000BAH   BYTE   INSEG    CODE           ?PR?SOFT_IIC_READ_8BIT_ARRAY?ZF_DRIVER_SOFT_IIC
   *DEL*:           000082H   BYTE   INSEG    CODE           ?PR?SOFT_IIC_WRITE_16BIT_REGISTER?ZF_DRIVER_SOFT_IIC
   *DEL*:           000043H   BYTE   INSEG    CODE           ?PR?SOFT_IIC_WRITE_8BIT?ZF_DRIVER_SOFT_IIC
   *DEL*:           000098H   BYTE   INSEG    CODE           ?PR?SOFT_IIC_WRITE_8BIT_ARRAY?ZF_DRIVER_SOFT_IIC
   *DEL*:           00006FH   BYTE   INSEG    CODE           ?PR?SOFT_IIC_READ_16BIT?ZF_DRIVER_SOFT_IIC
   *DEL*:           0000E1H   BYTE   INSEG    CODE           ?PR?SOFT_IIC_READ_16BIT_ARRAY?ZF_DRIVER_SOFT_IIC
   *DEL*:           0000A6H   BYTE   INSEG    CODE           ?PR?SOFT_IIC_INIT?ZF_DRIVER_SOFT_IIC
   *DEL*:           0000D7H   BYTE   INSEG    CODE           ?PR?SOFT_IIC_READ_8BIT_REGISTERS?ZF_DRIVER_SOFT_IIC
   *DEL*:           00005CH   BYTE   INSEG    CODE           ?PR?SOFT_IIC_WRITE_16BIT?ZF_DRIVER_SOFT_IIC
   *DEL*:           0000B4H   BYTE   INSEG    CODE           ?PR?SOFT_IIC_WRITE_16BIT_ARRAY?ZF_DRIVER_SOFT_IIC
   *DEL*:           000069H   BYTE   INSEG    CODE           ?PR?SOFT_IIC_READ_8BIT_REGISTER?ZF_DRIVER_SOFT_IIC
   *DEL*:           000130H   BYTE   INSEG    CODE           ?PR?SOFT_IIC_TRANSFER_8BIT_ARRAY?ZF_DRIVER_SOFT_IIC
   *DEL*:           0000A5H   BYTE   INSEG    CODE           ?PR?SOFT_IIC_WRITE_8BIT_REGISTERS?ZF_DRIVER_SOFT_IIC
   *DEL*:           000001H   BYTE   UNIT     XDATA          ?XD?SOFT_IIC_WRITE_8BIT?ZF_DRIVER_SOFT_IIC
   *DEL*:           000008H   BYTE   UNIT     XDATA          ?XD?SOFT_IIC_WRITE_8BIT_ARRAY?ZF_DRIVER_SOFT_IIC
   *DEL*:           000002H   BYTE   UNIT     XDATA          ?XD?SOFT_IIC_WRITE_16BIT?ZF_DRIVER_SOFT_IIC
   *DEL*:           000008H   BYTE   UNIT     XDATA          ?XD?SOFT_IIC_WRITE_16BIT_ARRAY?ZF_DRIVER_SOFT_IIC
   *DEL*:           000002H   BYTE   UNIT     XDATA          ?XD?SOFT_IIC_WRITE_8BIT_REGISTER?ZF_DRIVER_SOFT_IIC
   *DEL*:           000009H   BYTE   UNIT     XDATA          ?XD?SOFT_IIC_WRITE_8BIT_REGISTERS?ZF_DRIVER_SOFT_IIC
   *DEL*:           000004H   BYTE   UNIT     XDATA          ?XD?SOFT_IIC_WRITE_16BIT_REGISTER?ZF_DRIVER_SOFT_IIC
   *DEL*:           00000AH   BYTE   UNIT     XDATA          ?XD?SOFT_IIC_WRITE_16BIT_REGISTERS?ZF_DRIVER_SOFT_IIC
   *DEL*:           000001H   BYTE   UNIT     XDATA          ?XD?SOFT_IIC_READ_8BIT?ZF_DRIVER_SOFT_IIC
   *DEL*:           000008H   BYTE   UNIT     XDATA          ?XD?SOFT_IIC_READ_8BIT_ARRAY?ZF_DRIVER_SOFT_IIC
   *DEL*:           000002H   BYTE   UNIT     XDATA          ?XD?SOFT_IIC_READ_16BIT?ZF_DRIVER_SOFT_IIC
   *DEL*:           000008H   BYTE   UNIT     XDATA          ?XD?SOFT_IIC_READ_16BIT_ARRAY?ZF_DRIVER_SOFT_IIC
   *DEL*:           000002H   BYTE   UNIT     XDATA          ?XD?SOFT_IIC_READ_8BIT_REGISTER?ZF_DRIVER_SOFT_IIC
   *DEL*:           000009H   BYTE   UNIT     XDATA          ?XD?SOFT_IIC_READ_8BIT_REGISTERS?ZF_DRIVER_SOFT_IIC
   *DEL*:           000004H   BYTE   UNIT     XDATA          ?XD?SOFT_IIC_READ_16BIT_REGISTER?ZF_DRIVER_SOFT_IIC
   *DEL*:           00000AH   BYTE   UNIT     XDATA          ?XD?SOFT_IIC_READ_16BIT_REGISTERS?ZF_DRIVER_SOFT_IIC
   *DEL*:           000010H   BYTE   UNIT     XDATA          ?XD?SOFT_IIC_TRANSFER_8BIT_ARRAY?ZF_DRIVER_SOFT_IIC
   *DEL*:           000010H   BYTE   UNIT     XDATA          ?XD?SOFT_IIC_TRANSFER_16BIT_ARRAY?ZF_DRIVER_SOFT_IIC
   *DEL*:           000002H   BYTE   UNIT     XDATA          ?XD?SOFT_IIC_SCCB_WRITE_REGISTER?ZF_DRIVER_SOFT_IIC
   *DEL*:           000002H   BYTE   UNIT     XDATA          ?XD?SOFT_IIC_SCCB_READ_REGISTER?ZF_DRIVER_SOFT_IIC
   *DEL*:           000009H   BYTE   UNIT     XDATA          ?XD?SOFT_IIC_INIT?ZF_DRIVER_SOFT_IIC
   *DEL*:           00023EH   BYTE   INSEG    CODE           ?PR?SOFT_SPI_INIT?ZF_DRIVER_SOFT_SPI
   *DEL*:           0000BBH   BYTE   INSEG    CODE           ?PR?SOFT_SPI_READ_8BIT_REGISTERS?ZF_DRIVER_SOFT_SPI
   *DEL*:           00004FH   BYTE   INSEG    CODE           ?PR?SOFT_SPI_WRITE_16BIT?ZF_DRIVER_SOFT_SPI
   *DEL*:           00010EH   BYTE   INSEG    CODE           ?PR?SOFT_SPI_8BIT_DATA_HANDLER?ZF_DRIVER_SOFT_SPI
   *DEL*:           0000A0H   BYTE   INSEG    CODE           ?PR?SOFT_SPI_WRITE_16BIT_ARRAY?ZF_DRIVER_SOFT_SPI
   *DEL*:           00005EH   BYTE   INSEG    CODE           ?PR?SOFT_SPI_READ_8BIT_REGISTER?ZF_DRIVER_SOFT_SPI
   *DEL*:           000102H   BYTE   INSEG    CODE           ?PR?SOFT_SPI_TRANSFER_8BIT?ZF_DRIVER_SOFT_SPI
L251 LINKER/LOCATER V4.66.93.0                                                        10/23/2025  22:33:42  PAGE 10


   *DEL*:           0000ADH   BYTE   INSEG    CODE           ?PR?SOFT_SPI_WRITE_8BIT_REGISTERS?ZF_DRIVER_SOFT_SPI
   *DEL*:           00005AH   BYTE   INSEG    CODE           ?PR?SOFT_SPI_WRITE_8BIT_REGISTER?ZF_DRIVER_SOFT_SPI
   *DEL*:           0000B8H   BYTE   INSEG    CODE           ?PR?SOFT_SPI_READ_16BIT_REGISTERS?ZF_DRIVER_SOFT_SPI
   *DEL*:           000133H   BYTE   INSEG    CODE           ?PR?SOFT_SPI_16BIT_DATA_HANDLER?ZF_DRIVER_SOFT_SPI
   *DEL*:           00006AH   BYTE   INSEG    CODE           ?PR?SOFT_SPI_READ_16BIT_REGISTER?ZF_DRIVER_SOFT_SPI
   *DEL*:           000104H   BYTE   INSEG    CODE           ?PR?SOFT_SPI_TRANSFER_16BIT?ZF_DRIVER_SOFT_SPI
   *DEL*:           0000A7H   BYTE   INSEG    CODE           ?PR?SOFT_SPI_WRITE_16BIT_REGISTERS?ZF_DRIVER_SOFT_SPI
   *DEL*:           000051H   BYTE   INSEG    CODE           ?PR?SOFT_SPI_READ_8BIT?ZF_DRIVER_SOFT_SPI
   *DEL*:           0000AEH   BYTE   INSEG    CODE           ?PR?SOFT_SPI_READ_8BIT_ARRAY?ZF_DRIVER_SOFT_SPI
   *DEL*:           000060H   BYTE   INSEG    CODE           ?PR?SOFT_SPI_WRITE_16BIT_REGISTER?ZF_DRIVER_SOFT_SPI
   *DEL*:           00004BH   BYTE   INSEG    CODE           ?PR?SOFT_SPI_WRITE_8BIT?ZF_DRIVER_SOFT_SPI
   *DEL*:           0000A0H   BYTE   INSEG    CODE           ?PR?SOFT_SPI_WRITE_8BIT_ARRAY?ZF_DRIVER_SOFT_SPI
   *DEL*:           000026H   BYTE   INSEG    CODE           ?PR?SOFT_SPI_DELAY?ZF_DRIVER_SOFT_SPI
   *DEL*:           000056H   BYTE   INSEG    CODE           ?PR?SOFT_SPI_READ_16BIT?ZF_DRIVER_SOFT_SPI
   *DEL*:           0000B1H   BYTE   INSEG    CODE           ?PR?SOFT_SPI_READ_16BIT_ARRAY?ZF_DRIVER_SOFT_SPI
   *DEL*:           000004H   BYTE   UNIT     XDATA          ?XD?SOFT_SPI_DELAY?ZF_DRIVER_SOFT_SPI
   *DEL*:           000003H   BYTE   UNIT     XDATA          ?XD?SOFT_SPI_8BIT_DATA_HANDLER?ZF_DRIVER_SOFT_SPI
   *DEL*:           000005H   BYTE   UNIT     XDATA          ?XD?SOFT_SPI_16BIT_DATA_HANDLER?ZF_DRIVER_SOFT_SPI
   *DEL*:           000001H   BYTE   UNIT     XDATA          ?XD?SOFT_SPI_WRITE_8BIT?ZF_DRIVER_SOFT_SPI
   *DEL*:           000008H   BYTE   UNIT     XDATA          ?XD?SOFT_SPI_WRITE_8BIT_ARRAY?ZF_DRIVER_SOFT_SPI
   *DEL*:           000002H   BYTE   UNIT     XDATA          ?XD?SOFT_SPI_WRITE_16BIT?ZF_DRIVER_SOFT_SPI
   *DEL*:           000008H   BYTE   UNIT     XDATA          ?XD?SOFT_SPI_WRITE_16BIT_ARRAY?ZF_DRIVER_SOFT_SPI
   *DEL*:           000002H   BYTE   UNIT     XDATA          ?XD?SOFT_SPI_WRITE_8BIT_REGISTER?ZF_DRIVER_SOFT_SPI
   *DEL*:           000009H   BYTE   UNIT     XDATA          ?XD?SOFT_SPI_WRITE_8BIT_REGISTERS?ZF_DRIVER_SOFT_SPI
   *DEL*:           000004H   BYTE   UNIT     XDATA          ?XD?SOFT_SPI_WRITE_16BIT_REGISTER?ZF_DRIVER_SOFT_SPI
   *DEL*:           00000AH   BYTE   UNIT     XDATA          ?XD?SOFT_SPI_WRITE_16BIT_REGISTERS?ZF_DRIVER_SOFT_SPI
   *DEL*:           000001H   BYTE   UNIT     XDATA          ?XD?SOFT_SPI_READ_8BIT?ZF_DRIVER_SOFT_SPI
   *DEL*:           000008H   BYTE   UNIT     XDATA          ?XD?SOFT_SPI_READ_8BIT_ARRAY?ZF_DRIVER_SOFT_SPI
   *DEL*:           000001H   BYTE   UNIT     XDATA          ?XD?SOFT_SPI_READ_16BIT?ZF_DRIVER_SOFT_SPI
   *DEL*:           000008H   BYTE   UNIT     XDATA          ?XD?SOFT_SPI_READ_16BIT_ARRAY?ZF_DRIVER_SOFT_SPI
   *DEL*:           000002H   BYTE   UNIT     XDATA          ?XD?SOFT_SPI_READ_8BIT_REGISTER?ZF_DRIVER_SOFT_SPI
   *DEL*:           000009H   BYTE   UNIT     XDATA          ?XD?SOFT_SPI_READ_8BIT_REGISTERS?ZF_DRIVER_SOFT_SPI
   *DEL*:           000004H   BYTE   UNIT     XDATA          ?XD?SOFT_SPI_READ_16BIT_REGISTER?ZF_DRIVER_SOFT_SPI
   *DEL*:           00000AH   BYTE   UNIT     XDATA          ?XD?SOFT_SPI_READ_16BIT_REGISTERS?ZF_DRIVER_SOFT_SPI
   *DEL*:           00000CH   BYTE   UNIT     XDATA          ?XD?SOFT_SPI_TRANSFER_8BIT?ZF_DRIVER_SOFT_SPI
   *DEL*:           00000CH   BYTE   UNIT     XDATA          ?XD?SOFT_SPI_TRANSFER_16BIT?ZF_DRIVER_SOFT_SPI
   *DEL*:           000011H   BYTE   UNIT     XDATA          ?XD?SOFT_SPI_INIT?ZF_DRIVER_SOFT_SPI
   *DEL*:           00001BH   BYTE   INSEG    CODE           ?PR?SPI_WRITE_8BIT_REGISTER?ZF_DRIVER_SPI
   *DEL*:           00007FH   BYTE   INSEG    CODE           ?PR?SPI_READ_16BIT_REGISTERS?ZF_DRIVER_SPI
   *DEL*:           000057H   BYTE   INSEG    CODE           ?PR?SPI_READ_16BIT_REGISTER?ZF_DRIVER_SPI
   *DEL*:           0000C3H   BYTE   INSEG    CODE           ?PR?SPI_TRANSFER_16BIT?ZF_DRIVER_SPI
   *DEL*:           000060H   BYTE   INSEG    CODE           ?PR?SPI_WRITE_16BIT_REGISTERS?ZF_DRIVER_SPI
   *DEL*:           000005H   BYTE   INSEG    CODE           ?PR?SPI_READ_8BIT?ZF_DRIVER_SPI
   *DEL*:           000037H   BYTE   INSEG    CODE           ?PR?SPI_READ_8BIT_ARRAY?ZF_DRIVER_SPI
   *DEL*:           000045H   BYTE   INSEG    CODE           ?PR?SPI_WRITE_16BIT_REGISTER?ZF_DRIVER_SPI
   *DEL*:           000036H   BYTE   INSEG    CODE           ?PR?SPI_WRITE_8BIT_ARRAY?ZF_DRIVER_SPI
   *DEL*:           000021H   BYTE   INSEG    CODE           ?PR?SPI_READ_16BIT?ZF_DRIVER_SPI
   *DEL*:           000051H   BYTE   INSEG    CODE           ?PR?SPI_READ_16BIT_ARRAY?ZF_DRIVER_SPI
   *DEL*:           000044H   BYTE   INSEG    CODE           ?PR?SPI_READ_8BIT_REGISTERS?ZF_DRIVER_SPI
   *DEL*:           000056H   BYTE   INSEG    CODE           ?PR?SPI_READ_DAT?ZF_DRIVER_SPI
   *DEL*:           00004CH   BYTE   INSEG    CODE           ?PR?SPI_WRITE_16BIT_ARRAY?ZF_DRIVER_SPI
   *DEL*:           000014H   BYTE   INSEG    CODE           ?PR?SPI_READ_8BIT_REGISTER?ZF_DRIVER_SPI
   *DEL*:           000077H   BYTE   INSEG    CODE           ?PR?SPI_TRANSFER_8BIT?ZF_DRIVER_SPI
   *DEL*:           000043H   BYTE   INSEG    CODE           ?PR?SPI_WRITE_8BIT_REGISTERS?ZF_DRIVER_SPI
   *DEL*:           000006H   BYTE   UNIT     XDATA          ?XD?SPI_WRITE_8BIT_ARRAY?ZF_DRIVER_SPI
   *DEL*:           000006H   BYTE   UNIT     XDATA          ?XD?SPI_WRITE_16BIT_ARRAY?ZF_DRIVER_SPI
   *DEL*:           000006H   BYTE   UNIT     XDATA          ?XD?SPI_WRITE_8BIT_REGISTERS?ZF_DRIVER_SPI
   *DEL*:           000002H   BYTE   UNIT     XDATA          ?XD?SPI_WRITE_16BIT_REGISTER?ZF_DRIVER_SPI
   *DEL*:           000008H   BYTE   UNIT     XDATA          ?XD?SPI_WRITE_16BIT_REGISTERS?ZF_DRIVER_SPI
   *DEL*:           000006H   BYTE   UNIT     XDATA          ?XD?SPI_READ_8BIT_ARRAY?ZF_DRIVER_SPI
   *DEL*:           000006H   BYTE   UNIT     XDATA          ?XD?SPI_READ_16BIT_ARRAY?ZF_DRIVER_SPI
   *DEL*:           000006H   BYTE   UNIT     XDATA          ?XD?SPI_READ_8BIT_REGISTERS?ZF_DRIVER_SPI
   *DEL*:           000002H   BYTE   UNIT     XDATA          ?XD?SPI_READ_16BIT_REGISTER?ZF_DRIVER_SPI
   *DEL*:           000008H   BYTE   UNIT     XDATA          ?XD?SPI_READ_16BIT_REGISTERS?ZF_DRIVER_SPI
   *DEL*:           00000AH   BYTE   UNIT     XDATA          ?XD?SPI_TRANSFER_8BIT?ZF_DRIVER_SPI
L251 LINKER/LOCATER V4.66.93.0                                                        10/23/2025  22:33:42  PAGE 11


   *DEL*:           00000AH   BYTE   UNIT     XDATA          ?XD?SPI_TRANSFER_16BIT?ZF_DRIVER_SPI
   *DEL*:           000052H   BYTE   INSEG    CODE           ?PR?UART_WRITE_STRING?ZF_DRIVER_UART
   *DEL*:           000053H   BYTE   INSEG    CODE           ?PR?UART_READ_BYTE?ZF_DRIVER_UART
   *DEL*:           000104H   BYTE   UNIT     XDATA          ?XD?UART_WRITE_STRING?ZF_DRIVER_UART
   *DEL*:           00000FH   BYTE   INSEG    CODE           ?PR?SET_TOF_TYPE?ZF_DEVICE_TYPE
   *DEL*:           000043H   BYTE   INSEG    CODE           ?PR?SET_GPS_TYPE?ZF_DEVICE_TYPE
   *DEL*:           000043H   BYTE   INSEG    CODE           ?PR?SET_WIRELESS_TYPE?ZF_DEVICE_TYPE
   *DEL*:           000061H   BYTE   INSEG    CODE           ?PR?TFT180_DRAW_POINT?ZF_DEVICE_TFT180
   *DEL*:           0000F3H   BYTE   INSEG    CODE           ?PR?TFT180_SHOW_UINT16?ZF_DEVICE_TFT180
   *DEL*:           000109H   BYTE   INSEG    CODE           ?PR?TFT180_SHOW_INT32?ZF_DEVICE_TFT180
   *DEL*:           0001E8H   BYTE   INSEG    CODE           ?PR?TFT180_SHOW_WAVE?ZF_DEVICE_TFT180
   *DEL*:           0000C3H   BYTE   INSEG    CODE           ?PR?TFT180_SHOW_UINT8?ZF_DEVICE_TFT180
   *DEL*:           0000F3H   BYTE   INSEG    CODE           ?PR?TFT180_SHOW_INT8?ZF_DEVICE_TFT180
   *DEL*:           000002H   BYTE   UNIT     XDATA          ?XD?TFT180_DRAW_POINT?ZF_DEVICE_TFT180
   *DEL*:           000005H   BYTE   UNIT     XDATA          ?XD?TFT180_SHOW_INT8?ZF_DEVICE_TFT180
   *DEL*:           000005H   BYTE   UNIT     XDATA          ?XD?TFT180_SHOW_UINT8?ZF_DEVICE_TFT180
   *DEL*:           000008H   BYTE   UNIT     XDATA          ?XD?TFT180_SHOW_UINT16?ZF_DEVICE_TFT180
   *DEL*:           000028H   BYTE   UNIT     XDATA          ?XD?TFT180_SHOW_INT32?ZF_DEVICE_TFT180
   *DEL*:           00001CH   BYTE   UNIT     XDATA          ?XD?TFT180_SHOW_WAVE?ZF_DEVICE_TFT180
   *DEL*:           0001C4H   BYTE   INSEG    CODE           ?PR?IPS114_SHOW_FLOAT?ZF_DEVICE_IPS114
   *DEL*:           000061H   BYTE   INSEG    CODE           ?PR?IPS114_DRAW_POINT?ZF_DEVICE_IPS114
   *DEL*:           0000A9H   BYTE   INSEG    CODE           ?PR?IPS114_SHOW_STRING?ZF_DEVICE_IPS114
   *DEL*:           0000E0H   BYTE   INSEG    CODE           ?PR?IPS114_SHOW_CHAR?ZF_DEVICE_IPS114
   *DEL*:           0000F3H   BYTE   INSEG    CODE           ?PR?IPS114_SHOW_UINT16?ZF_DEVICE_IPS114
   *DEL*:           00000DH   BYTE   INSEG    CODE           ?PR?IPS114_SET_COLOR?ZF_DEVICE_IPS114
   *DEL*:           000109H   BYTE   INSEG    CODE           ?PR?IPS114_SHOW_INT32?ZF_DEVICE_IPS114
   *DEL*:           000133H   BYTE   INSEG    CODE           ?PR?IPS114_SHOW_INT16?ZF_DEVICE_IPS114
   *DEL*:           0001E8H   BYTE   INSEG    CODE           ?PR?IPS114_SHOW_WAVE?ZF_DEVICE_IPS114
   *DEL*:           000027H   BYTE   INSEG    CODE           ?PR?IPS114_SET_DIR?ZF_DEVICE_IPS114
   *DEL*:           0001D0H   BYTE   INSEG    CODE           ?PR?IPS114_SHOW_CHINESE?ZF_DEVICE_IPS114
   *DEL*:           00005AH   BYTE   INSEG    CODE           ?PR?IPS114_CLEAR?ZF_DEVICE_IPS114
   *DEL*:           0000C3H   BYTE   INSEG    CODE           ?PR?IPS114_SHOW_UINT8?ZF_DEVICE_IPS114
   *DEL*:           0000F3H   BYTE   INSEG    CODE           ?PR?IPS114_SHOW_INT8?ZF_DEVICE_IPS114
   *DEL*:           000016H   BYTE   INSEG    CODE           ?PR?IPS114_WRITE_INDEX?ZF_DEVICE_IPS114
   *DEL*:           0001CFH   BYTE   INSEG    CODE           ?PR?IPS114_SET_REGION?ZF_DEVICE_IPS114
   *DEL*:           00025AH   BYTE   INSEG    CODE           ?PR?IPS114_INIT?ZF_DEVICE_IPS114
   *DEL*:           000004H   BYTE   UNIT     XDATA          ?XD?IPS114_SET_REGION?ZF_DEVICE_IPS114
   *DEL*:           000002H   BYTE   UNIT     XDATA          ?XD?IPS114_CLEAR?ZF_DEVICE_IPS114
   *DEL*:           000002H   BYTE   UNIT     XDATA          ?XD?IPS114_DRAW_POINT?ZF_DEVICE_IPS114
   *DEL*:           000004H   BYTE   UNIT     XDATA          ?XD?IPS114_SHOW_CHAR?ZF_DEVICE_IPS114
   *DEL*:           000006H   BYTE   UNIT     XDATA          ?XD?IPS114_SHOW_STRING?ZF_DEVICE_IPS114
   *DEL*:           000005H   BYTE   UNIT     XDATA          ?XD?IPS114_SHOW_INT8?ZF_DEVICE_IPS114
   *DEL*:           000005H   BYTE   UNIT     XDATA          ?XD?IPS114_SHOW_UINT8?ZF_DEVICE_IPS114
   *DEL*:           000008H   BYTE   UNIT     XDATA          ?XD?IPS114_SHOW_INT16?ZF_DEVICE_IPS114
   *DEL*:           000008H   BYTE   UNIT     XDATA          ?XD?IPS114_SHOW_UINT16?ZF_DEVICE_IPS114
   *DEL*:           000028H   BYTE   UNIT     XDATA          ?XD?IPS114_SHOW_INT32?ZF_DEVICE_IPS114
   *DEL*:           000031H   BYTE   UNIT     XDATA          ?XD?IPS114_SHOW_FLOAT?ZF_DEVICE_IPS114
   *DEL*:           00001CH   BYTE   UNIT     XDATA          ?XD?IPS114_SHOW_WAVE?ZF_DEVICE_IPS114
   *DEL*:           000015H   BYTE   UNIT     XDATA          ?XD?IPS114_SHOW_CHINESE?ZF_DEVICE_IPS114
   *DEL*:           0001C4H   BYTE   INSEG    CODE           ?PR?IPS200_SHOW_FLOAT?ZF_DEVICE_IPS200
   *DEL*:           000061H   BYTE   INSEG    CODE           ?PR?IPS200_DRAW_POINT?ZF_DEVICE_IPS200
   *DEL*:           0000A9H   BYTE   INSEG    CODE           ?PR?IPS200_SHOW_STRING?ZF_DEVICE_IPS200
   *DEL*:           0000E0H   BYTE   INSEG    CODE           ?PR?IPS200_SHOW_CHAR?ZF_DEVICE_IPS200
   *DEL*:           0000F3H   BYTE   INSEG    CODE           ?PR?IPS200_SHOW_UINT16?ZF_DEVICE_IPS200
   *DEL*:           00000DH   BYTE   INSEG    CODE           ?PR?IPS200_SET_COLOR?ZF_DEVICE_IPS200
   *DEL*:           000109H   BYTE   INSEG    CODE           ?PR?IPS200_SHOW_INT32?ZF_DEVICE_IPS200
   *DEL*:           000133H   BYTE   INSEG    CODE           ?PR?IPS200_SHOW_INT16?ZF_DEVICE_IPS200
   *DEL*:           0001E8H   BYTE   INSEG    CODE           ?PR?IPS200_SHOW_WAVE?ZF_DEVICE_IPS200
   *DEL*:           000007H   BYTE   INSEG    CODE           ?PR?IPS200_SET_DIR?ZF_DEVICE_IPS200
   *DEL*:           0001D0H   BYTE   INSEG    CODE           ?PR?IPS200_SHOW_CHINESE?ZF_DEVICE_IPS200
   *DEL*:           00005AH   BYTE   INSEG    CODE           ?PR?IPS200_CLEAR?ZF_DEVICE_IPS200
   *DEL*:           0000C3H   BYTE   INSEG    CODE           ?PR?IPS200_SHOW_UINT8?ZF_DEVICE_IPS200
   *DEL*:           0000F3H   BYTE   INSEG    CODE           ?PR?IPS200_SHOW_INT8?ZF_DEVICE_IPS200
   *DEL*:           000016H   BYTE   INSEG    CODE           ?PR?IPS200_WRITE_INDEX?ZF_DEVICE_IPS200
   *DEL*:           0000CCH   BYTE   INSEG    CODE           ?PR?IPS200_SET_REGION?ZF_DEVICE_IPS200
L251 LINKER/LOCATER V4.66.93.0                                                        10/23/2025  22:33:42  PAGE 12


   *DEL*:           00025AH   BYTE   INSEG    CODE           ?PR?IPS200_INIT?ZF_DEVICE_IPS200
   *DEL*:           000004H   BYTE   UNIT     XDATA          ?XD?IPS200_SET_REGION?ZF_DEVICE_IPS200
   *DEL*:           000002H   BYTE   UNIT     XDATA          ?XD?IPS200_CLEAR?ZF_DEVICE_IPS200
   *DEL*:           000002H   BYTE   UNIT     XDATA          ?XD?IPS200_DRAW_POINT?ZF_DEVICE_IPS200
   *DEL*:           000004H   BYTE   UNIT     XDATA          ?XD?IPS200_SHOW_CHAR?ZF_DEVICE_IPS200
   *DEL*:           000006H   BYTE   UNIT     XDATA          ?XD?IPS200_SHOW_STRING?ZF_DEVICE_IPS200
   *DEL*:           000005H   BYTE   UNIT     XDATA          ?XD?IPS200_SHOW_INT8?ZF_DEVICE_IPS200
   *DEL*:           000005H   BYTE   UNIT     XDATA          ?XD?IPS200_SHOW_UINT8?ZF_DEVICE_IPS200
   *DEL*:           000008H   BYTE   UNIT     XDATA          ?XD?IPS200_SHOW_INT16?ZF_DEVICE_IPS200
   *DEL*:           000008H   BYTE   UNIT     XDATA          ?XD?IPS200_SHOW_UINT16?ZF_DEVICE_IPS200
   *DEL*:           000028H   BYTE   UNIT     XDATA          ?XD?IPS200_SHOW_INT32?ZF_DEVICE_IPS200
   *DEL*:           000031H   BYTE   UNIT     XDATA          ?XD?IPS200_SHOW_FLOAT?ZF_DEVICE_IPS200
   *DEL*:           00001CH   BYTE   UNIT     XDATA          ?XD?IPS200_SHOW_WAVE?ZF_DEVICE_IPS200
   *DEL*:           000015H   BYTE   UNIT     XDATA          ?XD?IPS200_SHOW_CHINESE?ZF_DEVICE_IPS200
   *DEL*:           00003FH   BYTE   INSEG    CODE           ?PR?DL1A_TIMEOUT_MICROSECONDS_TO_MCLKS?ZF_DEVICE_DL1A
   *DEL*:           000041H   BYTE   INSEG    CODE           ?PR?DL1A_TIMEOUT_MCLKS_TO_MICROSECONDS?ZF_DEVICE_DL1A
   *DEL*:           000083H   BYTE   INSEG    CODE           ?PR?DL1A_SET_SIGNAL_RATE_LIMIT?ZF_DEVICE_DL1A
   *DEL*:           000018H   BYTE   INSEG    CODE           ?PR?DL1A_DECODE_TIMEOUT?ZF_DEVICE_DL1A
   *DEL*:           000233H   BYTE   INSEG    CODE           ?PR?DL1A_GET_SPAD_INFO?ZF_DEVICE_DL1A
   *DEL*:           000038H   BYTE   INSEG    CODE           ?PR?DL1A_ENCODE_TIMEOUT?ZF_DEVICE_DL1A
   *DEL*:           00006AH   BYTE   INSEG    CODE           ?PR?DL1A_GET_SEQUENCE_STEP_ENABLES?ZF_DEVICE_DL1A
   *DEL*:           0000C7H   BYTE   INSEG    CODE           ?PR?DL1A_GET_DISTANCE?ZF_DEVICE_DL1A
   *DEL*:           0000BAH   BYTE   INSEG    CODE           ?PR?DL1A_PERFORM_SINGLE_REF_CALIBRATION?ZF_DEVICE_DL1A
   *DEL*:           00013CH   BYTE   INSEG    CODE           ?PR?DL1A_GET_SEQUENCE_STEP_TIMEOUTS?ZF_DEVICE_DL1A
   *DEL*:           000001H   BYTE   INSEG    CODE           ?PR?DL1A_INT_HANDLER?ZF_DEVICE_DL1A
   *DEL*:           00009BH   BYTE   INSEG    CODE           ?PR?DL1A_GET_MEASUREMENT_TIMING_BUDGET?ZF_DEVICE_DL1A
   *DEL*:           0001D4H   BYTE   INSEG    CODE           ?PR?DL1A_SET_MEASUREMENT_TIMING_BUDGET?ZF_DEVICE_DL1A
   *DEL*:           0004C9H   BYTE   INSEG    CODE           ?PR?DL1A_INIT?ZF_DEVICE_DL1A
   *DEL*:           000086H   BYTE   INSEG    CODE           ?PR?DL1A_GET_VCSEL_PULSE_PERIOD?ZF_DEVICE_DL1A
   *DEL*:           000008H   BYTE   UNIT     XDATA          ?XD?DL1A_GET_SPAD_INFO?ZF_DEVICE_DL1A
   *DEL*:           000001H   BYTE   UNIT     XDATA          ?XD?DL1A_GET_SEQUENCE_STEP_ENABLES?ZF_DEVICE_DL1A
   *DEL*:           000001H   BYTE   UNIT     XDATA          ?XD?DL1A_GET_VCSEL_PULSE_PERIOD?ZF_DEVICE_DL1A
   *DEL*:           000008H   BYTE   UNIT     XDATA          ?XD?DL1A_GET_SEQUENCE_STEP_TIMEOUTS?ZF_DEVICE_DL1A
   *DEL*:           000003H   BYTE   UNIT     XDATA          ?XD?DL1A_PERFORM_SINGLE_REF_CALIBRATION?ZF_DEVICE_DL1A
   *DEL*:           00002BH   BYTE   UNIT     XDATA          ?XD?DL1A_SET_MEASUREMENT_TIMING_BUDGET?ZF_DEVICE_DL1A
   *DEL*:           00001BH   BYTE   UNIT     XDATA          ?XD?DL1A_GET_MEASUREMENT_TIMING_BUDGET?ZF_DEVICE_DL1A
   *DEL*:           000003H   BYTE   UNIT     XDATA          ?XD?DL1A_SET_SIGNAL_RATE_LIMIT?ZF_DEVICE_DL1A
   *DEL*:           000003H   BYTE   UNIT     XDATA          ?XD?DL1A_GET_DISTANCE?ZF_DEVICE_DL1A
   *DEL*:           0000CAH   BYTE   UNIT     XDATA          ?XD?DL1A_INIT?ZF_DEVICE_DL1A
   *DEL*:           00005EH   BYTE   INSEG    CODE           ?PR?BLE6A20_READ_BUFFER?ZF_DEVICE_BLE6A20
   *DEL*:           0000CFH   BYTE   INSEG    CODE           ?PR?BLE6A20_SEND_BUFFER?ZF_DEVICE_BLE6A20
   *DEL*:           00003FH   BYTE   INSEG    CODE           ?PR?BLE6A20_SEND_STRING?ZF_DEVICE_BLE6A20
   *DEL*:           000026H   BYTE   INSEG    CODE           ?PR?BLE6A20_CALLBACK?ZF_DEVICE_BLE6A20
   *DEL*:           000087H   BYTE   INSEG    CODE           ?PR?BLE6A20_INIT?ZF_DEVICE_BLE6A20
   *DEL*:           000044H   BYTE   INSEG    CODE           ?PR?BLE6A20_SEND_BYTE?ZF_DEVICE_BLE6A20
   *DEL*:           000008H   BYTE   UNIT     XDATA          ?XD?BLE6A20_SEND_BUFFER?ZF_DEVICE_BLE6A20
   *DEL*:           000004H   BYTE   UNIT     XDATA          ?XD?BLE6A20_SEND_STRING?ZF_DEVICE_BLE6A20
   *DEL*:           000004H   BYTE   UNIT     XDATA          ?XD?BLE6A20_READ_BUFFER?ZF_DEVICE_BLE6A20
   *DEL*:           000001H   BYTE   UNIT     XDATA          ?XD?BLE6A20_CALLBACK?ZF_DEVICE_BLE6A20
   *DEL*:           0000CDH   BYTE   INSEG    CODE           ?PR?WIRELESS_UART_SEND_BUFFER?ZF_DEVICE_WIRELESS_UART
   *DEL*:           00003FH   BYTE   INSEG    CODE           ?PR?WIRELESS_UART_SEND_STRING?ZF_DEVICE_WIRELESS_UART
   *DEL*:           000026H   BYTE   INSEG    CODE           ?PR?WIRELESS_UART_CALLBACK?ZF_DEVICE_WIRELESS_UART
   *DEL*:           00007AH   BYTE   INSEG    CODE           ?PR?WIRELESS_UART_INIT?ZF_DEVICE_WIRELESS_UART
   *DEL*:           000042H   BYTE   INSEG    CODE           ?PR?WIRELESS_UART_SEND_BYTE?ZF_DEVICE_WIRELESS_UART
   *DEL*:           00005EH   BYTE   INSEG    CODE           ?PR?WIRELESS_UART_READ_BUFFER?ZF_DEVICE_WIRELESS_UART
   *DEL*:           000008H   BYTE   UNIT     XDATA          ?XD?WIRELESS_UART_SEND_BUFFER?ZF_DEVICE_WIRELESS_UART
   *DEL*:           000004H   BYTE   UNIT     XDATA          ?XD?WIRELESS_UART_SEND_STRING?ZF_DEVICE_WIRELESS_UART
   *DEL*:           000004H   BYTE   UNIT     XDATA          ?XD?WIRELESS_UART_READ_BUFFER?ZF_DEVICE_WIRELESS_UART
   *DEL*:           000001H   BYTE   UNIT     XDATA          ?XD?WIRELESS_UART_CALLBACK?ZF_DEVICE_WIRELESS_UART
   *DEL*:           00001AH   BYTE   INSEG    CODE           ?PR?ICM20602_READ_REGISTER?ZF_DEVICE_ICM20602
   *DEL*:           00000CH   BYTE   INSEG    CODE           ?PR?ICM20602_WRITE_REGISTER?ZF_DEVICE_ICM20602
   *DEL*:           000021H   BYTE   INSEG    CODE           ?PR?ICM20602_SIMSPI_WR_BYTE?ZF_DEVICE_ICM20602
   *DEL*:           000031H   BYTE   INSEG    CODE           ?PR?ICM20602_SELF_CHECK?ZF_DEVICE_ICM20602
   *DEL*:           00003FH   BYTE   INSEG    CODE           ?PR?ICM20602_SIMSPI_R_REG_BYTES?ZF_DEVICE_ICM20602
   *DEL*:           000018H   BYTE   INSEG    CODE           ?PR?ICM20602_SIMSPI_R_REG_BYTE?ZF_DEVICE_ICM20602
L251 LINKER/LOCATER V4.66.93.0                                                        10/23/2025  22:33:42  PAGE 13


   *DEL*:           000011H   BYTE   INSEG    CODE           ?PR?ICM20602_SIMSPI_W_REG_BYTE?ZF_DEVICE_ICM20602
   *DEL*:           0001B9H   BYTE   INSEG    CODE           ?PR?ICM20602_INIT?ZF_DEVICE_ICM20602
   *DEL*:           000054H   BYTE   INSEG    CODE           ?PR?ICM20602_GET_ACC?ZF_DEVICE_ICM20602
   *DEL*:           000016H   BYTE   INSEG    CODE           ?PR?ICM20602_READ_REGISTERS?ZF_DEVICE_ICM20602
   *DEL*:           000054H   BYTE   INSEG    CODE           ?PR?ICM20602_GET_GYRO?ZF_DEVICE_ICM20602
   *DEL*:           000004H   BYTE   UNIT     XDATA          ?XD?ICM20602_SIMSPI_R_REG_BYTES?ZF_DEVICE_ICM20602
   *DEL*:           000001H   BYTE   UNIT     XDATA          ?XD?ICM20602_READ_REGISTER?ZF_DEVICE_ICM20602
   *DEL*:           000006H   BYTE   UNIT     XDATA          ?XD?ICM20602_GET_ACC?ZF_DEVICE_ICM20602
   *DEL*:           000006H   BYTE   UNIT     XDATA          ?XD?ICM20602_GET_GYRO?ZF_DEVICE_ICM20602
   *DEL*:           000054H   BYTE   INSEG    CODE           ?PR?IMU660RA_GET_GYRO?ZF_DEVICE_IMU660RA
   *DEL*:           00001EH   BYTE   INSEG    CODE           ?PR?IMU660RA_READ_REGISTER?ZF_DEVICE_IMU660RA
   *DEL*:           000014H   BYTE   INSEG    CODE           ?PR?IMU660RA_WRITE_REGISTERS?ZF_DEVICE_IMU660RA
   *DEL*:           00000CH   BYTE   INSEG    CODE           ?PR?IMU660RA_WRITE_REGISTER?ZF_DEVICE_IMU660RA
   *DEL*:           000023H   BYTE   INSEG    CODE           ?PR?IMU660RA_SIMSPI_WR_BYTE?ZF_DEVICE_IMU660RA
   *DEL*:           000041H   BYTE   INSEG    CODE           ?PR?IMU660RA_SELF_CHECK?ZF_DEVICE_IMU660RA
   *DEL*:           00003FH   BYTE   INSEG    CODE           ?PR?IMU660RA_SIMSPI_R_REG_BYTES?ZF_DEVICE_IMU660RA
   *DEL*:           000039H   BYTE   INSEG    CODE           ?PR?IMU660RA_SIMSPI_W_REG_BYTES?ZF_DEVICE_IMU660RA
   *DEL*:           000011H   BYTE   INSEG    CODE           ?PR?IMU660RA_SIMSPI_W_REG_BYTE?ZF_DEVICE_IMU660RA
   *DEL*:           0001E0H   BYTE   INSEG    CODE           ?PR?IMU660RA_INIT?ZF_DEVICE_IMU660RA
   *DEL*:           000054H   BYTE   INSEG    CODE           ?PR?IMU660RA_GET_ACC?ZF_DEVICE_IMU660RA
   *DEL*:           000079H   BYTE   INSEG    CODE           ?PR?IMU660RA_READ_REGISTERS?ZF_DEVICE_IMU660RA
   *DEL*:           000004H   BYTE   UNIT     XDATA          ?XD?IMU660RA_SIMSPI_W_REG_BYTES?ZF_DEVICE_IMU660RA
   *DEL*:           000004H   BYTE   UNIT     XDATA          ?XD?IMU660RA_SIMSPI_R_REG_BYTES?ZF_DEVICE_IMU660RA
   *DEL*:           000002H   BYTE   UNIT     XDATA          ?XD?IMU660RA_READ_REGISTER?ZF_DEVICE_IMU660RA
   *DEL*:           00000EH   BYTE   UNIT     XDATA          ?XD?IMU660RA_READ_REGISTERS?ZF_DEVICE_IMU660RA
   *DEL*:           000006H   BYTE   UNIT     XDATA          ?XD?IMU660RA_GET_ACC?ZF_DEVICE_IMU660RA
   *DEL*:           000006H   BYTE   UNIT     XDATA          ?XD?IMU660RA_GET_GYRO?ZF_DEVICE_IMU660RA
   *DEL*:           000054H   BYTE   INSEG    CODE           ?PR?IMU660RB_GET_GYRO?ZF_DEVICE_IMU660RB
   *DEL*:           00001AH   BYTE   INSEG    CODE           ?PR?IMU660RB_READ_REGISTER?ZF_DEVICE_IMU660RB
   *DEL*:           0000B1H   BYTE   INSEG    CODE           ?PR?IMU660RB_GYRO_TRANSITION?ZF_DEVICE_IMU660RB
   *DEL*:           00000CH   BYTE   INSEG    CODE           ?PR?IMU660RB_WRITE_REGISTER?ZF_DEVICE_IMU660RB
   *DEL*:           000023H   BYTE   INSEG    CODE           ?PR?IMU660RB_SIMSPI_WR_BYTE?ZF_DEVICE_IMU660RB
   *DEL*:           00002FH   BYTE   INSEG    CODE           ?PR?IMU660RB_SELF_CHECK?ZF_DEVICE_IMU660RB
   *DEL*:           00003FH   BYTE   INSEG    CODE           ?PR?IMU660RB_SIMSPI_R_REG_BYTES?ZF_DEVICE_IMU660RB
   *DEL*:           00001CH   BYTE   INSEG    CODE           ?PR?IMU660RB_SIMSPI_R_REG_BYTE?ZF_DEVICE_IMU660RB
   *DEL*:           000011H   BYTE   INSEG    CODE           ?PR?IMU660RB_SIMSPI_W_REG_BYTE?ZF_DEVICE_IMU660RB
   *DEL*:           00006AH   BYTE   INSEG    CODE           ?PR?IMU660RB_INIT?ZF_DEVICE_IMU660RB
   *DEL*:           000054H   BYTE   INSEG    CODE           ?PR?IMU660RB_GET_ACC?ZF_DEVICE_IMU660RB
   *DEL*:           000075H   BYTE   INSEG    CODE           ?PR?IMU660RB_ACC_TRANSITION?ZF_DEVICE_IMU660RB
   *DEL*:           000016H   BYTE   INSEG    CODE           ?PR?IMU660RB_READ_REGISTERS?ZF_DEVICE_IMU660RB
   *DEL*:           000004H   BYTE   UNIT     XDATA          ?XD?IMU660RB_SIMSPI_R_REG_BYTES?ZF_DEVICE_IMU660RB
   *DEL*:           000001H   BYTE   UNIT     XDATA          ?XD?IMU660RB_READ_REGISTER?ZF_DEVICE_IMU660RB
   *DEL*:           000006H   BYTE   UNIT     XDATA          ?XD?IMU660RB_GET_ACC?ZF_DEVICE_IMU660RB
   *DEL*:           000006H   BYTE   UNIT     XDATA          ?XD?IMU660RB_GET_GYRO?ZF_DEVICE_IMU660RB
   *DEL*:           000054H   BYTE   INSEG    CODE           ?PR?IMU963RA_GET_GYRO?ZF_DEVICE_IMU963RA
   *DEL*:           000023H   BYTE   INSEG    CODE           ?PR?IMU963RA_SIMSPI_WR_BYTE?ZF_DEVICE_IMU963RA
   *DEL*:           000052H   BYTE   INSEG    CODE           ?PR?IMU963RA_READ_MAG_REGISTER?ZF_DEVICE_IMU963RA
   *DEL*:           00002CH   BYTE   INSEG    CODE           ?PR?IMU963RA_CONNECT_MAG?ZF_DEVICE_IMU963RA
   *DEL*:           000016H   BYTE   INSEG    CODE           ?PR?IMU963RA_READ_ACC_GYRO_REGISTERS?ZF_DEVICE_IMU963RA
   *DEL*:           000066H   BYTE   INSEG    CODE           ?PR?IMU963RA_WRITE_MAG_REGISTER?ZF_DEVICE_IMU963RA
   *DEL*:           00001FH   BYTE   INSEG    CODE           ?PR?IMU963RA_READ_ACC_GYRO_REGISTER?ZF_DEVICE_IMU963RA
   *DEL*:           00003FH   BYTE   INSEG    CODE           ?PR?IMU963RA_SIMSPI_R_REG_BYTES?ZF_DEVICE_IMU963RA
   *DEL*:           00001CH   BYTE   INSEG    CODE           ?PR?IMU963RA_SIMSPI_R_REG_BYTE?ZF_DEVICE_IMU963RA
   *DEL*:           000034H   BYTE   INSEG    CODE           ?PR?IMU963RA_MAG_SELF_CHECK?ZF_DEVICE_IMU963RA
   *DEL*:           00000CH   BYTE   INSEG    CODE           ?PR?IMU963RA_WRITE_ACC_GYRO_REGISTER?ZF_DEVICE_IMU963RA
   *DEL*:           000017H   BYTE   INSEG    CODE           ?PR?IMU963RA_SIMSPI_W_REG_BYTE?ZF_DEVICE_IMU963RA
   *DEL*:           0002DBH   BYTE   INSEG    CODE           ?PR?IMU963RA_INIT?ZF_DEVICE_IMU963RA
   *DEL*:           000044H   BYTE   INSEG    CODE           ?PR?IMU963RA_ACC_GYRO_SELF_CHECK?ZF_DEVICE_IMU963RA
   *DEL*:           000054H   BYTE   INSEG    CODE           ?PR?IMU963RA_GET_ACC?ZF_DEVICE_IMU963RA
   *DEL*:           00006BH   BYTE   INSEG    CODE           ?PR?IMU963RA_GET_MAG?ZF_DEVICE_IMU963RA
   *DEL*:           000004H   BYTE   UNIT     XDATA          ?XD?IMU963RA_SIMSPI_R_REG_BYTES?ZF_DEVICE_IMU963RA
   *DEL*:           000001H   BYTE   UNIT     XDATA          ?XD?IMU963RA_READ_ACC_GYRO_REGISTER?ZF_DEVICE_IMU963RA
   *DEL*:           000002H   BYTE   UNIT     XDATA          ?XD?IMU963RA_WRITE_MAG_REGISTER?ZF_DEVICE_IMU963RA
   *DEL*:           000006H   BYTE   UNIT     XDATA          ?XD?IMU963RA_GET_ACC?ZF_DEVICE_IMU963RA
   *DEL*:           000006H   BYTE   UNIT     XDATA          ?XD?IMU963RA_GET_GYRO?ZF_DEVICE_IMU963RA
L251 LINKER/LOCATER V4.66.93.0                                                        10/23/2025  22:33:42  PAGE 14


   *DEL*:           000006H   BYTE   UNIT     XDATA          ?XD?IMU963RA_GET_MAG?ZF_DEVICE_IMU963RA
   *DEL*:           000094H   BYTE   INSEG    CODE           ?PR?GET_DOUBLE_NUMBER?ZF_DEVICE_GPS_TAU1201
   *DEL*:           00007DH   BYTE   INSEG    CODE           ?PR?GET_FLOAT_NUMBER?ZF_DEVICE_GPS_TAU1201
   *DEL*:           0000C5H   BYTE   INSEG    CODE           ?PR?UTC_TO_BTC?ZF_DEVICE_GPS_TAU1201
   *DEL*:           000372H   BYTE   INSEG    CODE           ?PR?GET_TWO_POINTS_DISTANCE?ZF_DEVICE_GPS_TAU1201
   *DEL*:           0000D9H   BYTE   INSEG    CODE           ?PR?GPS_GNGGA_PARSE?ZF_DEVICE_GPS_TAU1201
   *DEL*:           0005A6H   BYTE   INSEG    CODE           ?PR?GPS_GNRMC_PARSE?ZF_DEVICE_GPS_TAU1201
   *DEL*:           000196H   BYTE   INSEG    CODE           ?PR?GPS_DATA_PARSE?ZF_DEVICE_GPS_TAU1201
   *DEL*:           00006EH   BYTE   INSEG    CODE           ?PR?GET_INT_NUMBER?ZF_DEVICE_GPS_TAU1201
   *DEL*:           000290H   BYTE   INSEG    CODE           ?PR?GPS_INIT?ZF_DEVICE_GPS_TAU1201
   *DEL*:           000077H   BYTE   INSEG    CODE           ?PR?GET_PARAMETER_INDEX?ZF_DEVICE_GPS_TAU1201
   *DEL*:           00055CH   BYTE   INSEG    CODE           ?PR?GET_TWO_POINTS_AZIMUTH?ZF_DEVICE_GPS_TAU1201
   *DEL*:           000184H   BYTE   INSEG    CODE           ?PR?GPS_UART_CALLBACK?ZF_DEVICE_GPS_TAU1201
   *DEL*:           000003H   BYTE   UNIT     XDATA          ?XD?GET_PARAMETER_INDEX?ZF_DEVICE_GPS_TAU1201
   *DEL*:           00000DH   BYTE   UNIT     XDATA          ?XD?GET_INT_NUMBER?ZF_DEVICE_GPS_TAU1201
   *DEL*:           000014H   BYTE   UNIT     XDATA          ?XD?GET_FLOAT_NUMBER?ZF_DEVICE_GPS_TAU1201
   *DEL*:           000018H   BYTE   UNIT     XDATA          ?XD?GET_DOUBLE_NUMBER?ZF_DEVICE_GPS_TAU1201
   *DEL*:           00003BH   BYTE   UNIT     XDATA          ?XD?GPS_GNRMC_PARSE?ZF_DEVICE_GPS_TAU1201
   *DEL*:           000009H   BYTE   UNIT     XDATA          ?XD?GPS_GNGGA_PARSE?ZF_DEVICE_GPS_TAU1201
   *DEL*:           000060H   BYTE   UNIT     XDATA          ?XD?GET_TWO_POINTS_DISTANCE?ZF_DEVICE_GPS_TAU1201
   *DEL*:           000038H   BYTE   UNIT     XDATA          ?XD?GET_TWO_POINTS_AZIMUTH?ZF_DEVICE_GPS_TAU1201
   *DEL*:           000008H   BYTE   UNIT     XDATA          ?XD?GPS_DATA_PARSE?ZF_DEVICE_GPS_TAU1201
   *DEL*:           00000BH   BYTE   UNIT     XDATA          ?XD?GPS_UART_CALLBACK?ZF_DEVICE_GPS_TAU1201
   *DEL*:           000095H   BYTE   UNIT     XDATA          ?XD?GPS_INIT?ZF_DEVICE_GPS_TAU1201
   *DEL*:           000075H   BYTE   INSEG    CODE           ?PR?TSL1401_SEND_DATA?ZF_DEVICE_TSL1401
   *DEL*:           00003DH   BYTE   INSEG    CODE           ?PR?TSL1401_INIT?ZF_DEVICE_TSL1401
   *DEL*:           00009BH   BYTE   INSEG    CODE           ?PR?TSL1401_COLLECT_PIT_HANDLER?ZF_DEVICE_TSL1401
   *DEL*:           00034DH   BYTE   INSEG    CODE           ?PR?SEEKFREE_ASSISTANT_CAMERA_BOUNDARY_CONFIG?SEEKFREE_ASS
                                                             -ISTANT
   *DEL*:           000101H   BYTE   INSEG    CODE           ?PR?SEEKFREE_ASSISTANT_CAMERA_DOT_SEND?SEEKFREE_ASSISTANT
   *DEL*:           000102H   BYTE   INSEG    CODE           ?PR?SEEKFREE_ASSISTANT_OSCILLOSCOPE_SEND?SEEKFREE_ASSISTAN
                                                             -T
   *DEL*:           00002EH   BYTE   INSEG    CODE           ?PR?SEEKFREE_ASSISTANT_INIT?SEEKFREE_ASSISTANT
   *DEL*:           000017H   BYTE   INSEG    CODE           ?PR?SEEKFREE_ASSISTANT_SUM?SEEKFREE_ASSISTANT
   *DEL*:           000037H   BYTE   INSEG    CODE           ?PR?SEEKFREE_ASSISTANT_CAMERA_INFORMATION_CONFIG?SEEKFREE_
                                                             -ASSISTANT
   *DEL*:           000265H   BYTE   INSEG    CODE           ?PR?SEEKFREE_ASSISTANT_DATA_ANALYSIS?SEEKFREE_ASSISTANT
   *DEL*:           00012AH   BYTE   INSEG    CODE           ?PR?SEEKFREE_ASSISTANT_CAMERA_DATA_SEND?SEEKFREE_ASSISTANT
   *DEL*:           00003FH   BYTE   INSEG    CODE           ?PR?SEEKFREE_ASSISTANT_CAMERA_SEND?SEEKFREE_ASSISTANT
   *DEL*:           00000AH   BYTE   UNIT     XDATA          ?XD?SEEKFREE_ASSISTANT_CAMERA_DATA_SEND?SEEKFREE_ASSISTANT
   *DEL*:           000002H   BYTE   UNIT     XDATA          ?XD?SEEKFREE_ASSISTANT_CAMERA_INFORMATION_CONFIG?SEEKFREE_
                                                             -ASSISTANT
   *DEL*:           000024H   BYTE   UNIT     XDATA          ?XD?SEEKFREE_ASSISTANT_OSCILLOSCOPE_SEND?SEEKFREE_ASSISTAN
                                                             -T
   *DEL*:           000003H   BYTE   UNIT     XDATA          ?XD?SEEKFREE_ASSISTANT_CAMERA_DOT_SEND?SEEKFREE_ASSISTANT
   *DEL*:           000014H   BYTE   UNIT     XDATA          ?XD?SEEKFREE_ASSISTANT_CAMERA_BOUNDARY_CONFIG?SEEKFREE_ASS
                                                             -ISTANT
   *DEL*:           000088H   BYTE   UNIT     XDATA          ?XD?SEEKFREE_ASSISTANT_DATA_ANALYSIS?SEEKFREE_ASSISTANT
   *DEL*:           000000H.1 BIT    UNIT     BIT            ?BI?SEEKFREE_ASSISTANT_DATA_ANALYSIS?SEEKFREE_ASSISTANT
   *DEL*:           00004DH   BYTE   INSEG    CODE           ?PR?SEEKFREE_ASSISTANT_INTERFACE_INIT?SEEKFREE_ASSISTANT_I
                                                             -NTERFACE
   *DEL*:           00007BH   BYTE   INSEG    CODE           ?PR?BATTERY_GET?ADC_GET
   *DEL*:           000002H   BYTE   UNIT     XDATA          ?XD?BATTERY_GET?ADC_GET
   *DEL*:           00008FH   BYTE   INSEG    CODE           ?PR?SVERO_UPDATE_SMOOTH?CONTROL
   *DEL*:           000030H   BYTE   INSEG    CODE           ?PR?EEPROM_READ_FLOAT?EEPROM
   *DEL*:           0000D0H   BYTE   INSEG    CODE           ?PR?EEPROM_SAVE_FLOAT?EEPROM
   *DEL*:           000056H   BYTE   INSEG    CODE           ?PR?EEPROM_READ_NUM?EEPROM
   *DEL*:           000089H   BYTE   INSEG    CODE           ?PR?EEPROM_SAVE_NUM?EEPROM
   *DEL*:           000200H   BYTE   UNIT     XDATA          ?XD?EEPROM_SAVE_NUM?EEPROM
   *DEL*:           000000H.1 BIT    UNIT     BIT            ?BI?EEPROM_SAVE_NUM?EEPROM
   *DEL*:           000200H   BYTE   UNIT     XDATA          ?XD?EEPROM_READ_NUM?EEPROM
   *DEL*:           000000H.1 BIT    UNIT     BIT            ?BI?EEPROM_READ_NUM?EEPROM
   *DEL*:           00020AH   BYTE   UNIT     XDATA          ?XD?EEPROM_SAVE_FLOAT?EEPROM
   *DEL*:           000000H.1 BIT    UNIT     BIT            ?BI?EEPROM_SAVE_FLOAT?EEPROM
   *DEL*:           000004H   BYTE   UNIT     XDATA          ?XD?EEPROM_READ_FLOAT?EEPROM
L251 LINKER/LOCATER V4.66.93.0                                                        10/23/2025  22:33:42  PAGE 15


   *DEL*:           000000H.1 BIT    UNIT     BIT            ?BI?EEPROM_READ_FLOAT?EEPROM
   *DEL*:           0000C5H   BYTE   INSEG    CODE           ?PR?NORMAL_PID?FUNCTION
   *DEL*:           000004H   BYTE   UNIT     XDATA          ?XD?NORMAL_PID?FUNCTION
   *DEL*:           00002CH   BYTE   INSEG    CODE           ?PR?OLED_DISPLAYTURN?OLED
   *DEL*:           0000DEH   BYTE   INSEG    CODE           ?PR?OLED_INIT?OLED
   *DEL*:           0000F5H   BYTE   INSEG    CODE           ?PR?OLED_SHOWSTRING?OLED
   *DEL*:           000070H   BYTE   INSEG    CODE           ?PR?OLED_WR_BYTE?OLED
   *DEL*:           0001BEH   BYTE   INSEG    CODE           ?PR?OLED_SHOWCHAR?OLED
   *DEL*:           00001EH   BYTE   INSEG    CODE           ?PR?OLED_COLORTURN?OLED
   *DEL*:           00002BH   BYTE   INSEG    CODE           ?PR?OLED_SET_POS?OLED
   *DEL*:           000017H   BYTE   INSEG    CODE           ?PR?DELAY_MS?OLED
   *DEL*:           0001C9H   BYTE   INSEG    CODE           ?PR?OLED_SHOWNUM?OLED
   *DEL*:           000017H   BYTE   INSEG    CODE           ?PR?OLED_POW?OLED
   *DEL*:           00010AH   BYTE   INSEG    CODE           ?PR?OLED_SHOWCHINESE?OLED
   *DEL*:           00003AH   BYTE   INSEG    CODE           ?PR?OLED_CLEAR?OLED
   *DEL*:           000006H   BYTE   UNIT     XDATA          ?XD?OLED_SHOWCHAR?OLED
   *DEL*:           000007H   BYTE   UNIT     XDATA          ?XD?OLED_SHOWNUM?OLED
   *DEL*:           000005H   BYTE   UNIT     XDATA          ?XD?OLED_SHOWSTRING?OLED
   *DEL*:           000005H   BYTE   UNIT     XDATA          ?XD?OLED_SHOWCHINESE?OLED
   *DEL*:           000053H   BYTE   INSEG    CODE           ?PR?HELP_TURN?STRATEGY
   *DEL*:           0000A3H   BYTE   INSEG    CODE           ?PR?HELP_TURN_TWO?STRATEGY
   *DEL*:           000241H   BYTE   INSEG    CODE           ?PR?HELP_TURN3?STRATEGY
   *DEL*:           000004H   BYTE   UNIT     XDATA          ?XD?HELP_TURN3?STRATEGY
   *DEL*:           000002H   BYTE   UNIT     XDATA          ?XD?HELP_TURN_TWO?STRATEGY
   *DEL*:           00019BH   BYTE   INSEG    CODE           ?PR?POW?_?POW
   *DEL*:           000037H   BYTE   INSEG    CODE           ?PR?STRNCMP?_?STRNCMP
   *DEL*:           000030H   BYTE   INSEG    CODE           ?PR?STRNCPY?_?STRNCPY
   *DEL*:           00000EH   BYTE   INSEG    CODE           ?PR?STRLEN?_?STRLEN
   *DEL*:           00001FH   BYTE   INSEG    CODE           ?PR?STRCHR?_?STRCHR
   *DEL*:           00001AH   BYTE   INSEG    CODE           ?PR?MEMSET?_?MEMSET



OVERLAY MAP OF MODULE:   .\out_file\SEEKFREE (ai8051u_isr)


FUNCTION/MODULE                               XDATA_GROUP
--> CALLED FUNCTION/MODULE                    START  STOP
=========================================================
?C_C51STARTUP                                 ----- -----

*** NEW ROOT ********************************

?C_C51STARTUP?3                               ----- -----
  +--> main/main

main/main                                     ----- -----
  +--> _m/main
  +--> SPRINTF/SPRINTF

_m/main                                       ----- -----
  +--> clock_init/zf_common_clock
  +--> debug_init/zf_common_debug
  +--> init_all/function
  +--> pit_handler1/main
  +--> GO_Function/function
  +--> menu_handle_key/menu
  +--> PWM_Test/Device_Test
  +--> Serve_Test/Device_Test
  +--> Set_Sevo/Device_Test
  +--> Turn_mode_Init/function

clock_init/zf_common_clock                    ----- -----
  +--> system_delay_init/zf_driver_delay
  +--> interrupt_global_enable/zf_common_interrupt
L251 LINKER/LOCATER V4.66.93.0                                                        10/23/2025  22:33:42  PAGE 16



system_delay_init/zf_driver_delay             ----- -----
  +--> ?C?SLDIV/?C?SLDIV

?C?SLDIV/?C?SLDIV                             ----- -----
  +--> ?C?ULIDIV/?C?ULDIV

?C?ULIDIV/?C?ULDIV                            ----- -----

interrupt_global_enable/zf_common_interr+     ----- -----
... upt

debug_init/zf_common_debug                    ----- -----
  +--> uart_init/zf_driver_uart
  +--> fifo_init/zf_common_fifo
  +--> uart_rx_interrupt/zf_driver_uart
  +--> debug_interrupr_handler/zf_common_debug

uart_init/zf_driver_uart                      100AH 100FH
  +--> uart_funciton_check/zf_driver_uart
  +--> debug_assert_handler/zf_common_debug
  +--> timer_funciton_check/zf_driver_timer
  +--> gpio_init/zf_driver_gpio
  +--> ?C?ULIDIV/?C?ULDIV
  +--> uart_dma_init/zf_driver_uart

uart_funciton_check/zf_driver_uart            ----- -----

debug_assert_handler/zf_common_debug          1049H 1058H
  +--> PRINTF/PRINTF
  +--> system_delay_ms/zf_driver_delay

PRINTF/PRINTF                                 1059H 1080H
  +--> OUT/PRINTF

OUT/PRINTF                                    ----- -----
  +--> PUTCH/PRINTF

PUTCH/PRINTF                                  ----- -----
  +--> putchar/zf_common_debug
  +--> OUT/PRINTF

putchar/zf_common_debug                       ----- -----
  +--> uart_write_byte/zf_driver_uart

uart_write_byte/zf_driver_uart                1081H 1081H
  +--> uart_write_buffer/zf_driver_uart

uart_write_buffer/zf_driver_uart              ----- -----

system_delay_ms/zf_driver_delay               ----- -----

timer_funciton_check/zf_driver_timer          ----- -----

gpio_init/zf_driver_gpio                      101AH 101CH
  +--> debug_assert_handler/zf_common_debug
  +--> gpio_set_dir/zf_driver_gpio
  +--> gpio_set_mode/zf_driver_gpio
  +--> gpio_set_impedance/zf_driver_gpio
  +--> gpio_set_level/zf_driver_gpio

gpio_set_dir/zf_driver_gpio                   ----- -----
  +--> debug_assert_handler/zf_common_debug

gpio_set_mode/zf_driver_gpio                  ----- -----
L251 LINKER/LOCATER V4.66.93.0                                                        10/23/2025  22:33:42  PAGE 17


  +--> debug_assert_handler/zf_common_debug

gpio_set_impedance/zf_driver_gpio             ----- -----
  +--> debug_assert_handler/zf_common_debug

gpio_set_level/zf_driver_gpio                 ----- -----
  +--> debug_assert_handler/zf_common_debug

uart_dma_init/zf_driver_uart                  ----- -----

fifo_init/zf_common_fifo                      100AH 1013H
  +--> debug_assert_handler/zf_common_debug

uart_rx_interrupt/zf_driver_uart              ----- -----

debug_interrupr_handler/zf_common_debug       100AH 100AH
  +--> uart_query_byte/zf_driver_uart
  +--> fifo_write_buffer/zf_common_fifo

uart_query_byte/zf_driver_uart                ----- -----
  +--> uart_rx_start_buff/zf_driver_uart

uart_rx_start_buff/zf_driver_uart             ----- -----

fifo_write_buffer/zf_common_fifo              100BH 1018H
  +--> debug_assert_handler/zf_common_debug
  +--> memcpy?_/memcpy
  +--> fifo_head_offset/zf_common_fifo

memcpy?_/memcpy                               ----- -----

fifo_head_offset/zf_common_fifo               ----- -----

init_all/function                             ----- -----
  +--> system_delay_ms/zf_driver_delay
  +--> Motor_Init/function
  +--> Servo_Init/function
  +--> interrupt_set_priority/zf_common_interrupt
  +--> Buzzer_Init/Buzzer
  +--> Buzzer_OFF/Buzzer
  +--> enconder_init/function
  +--> ADC_GetInit/ADC_Get
  +--> tft180_init/zf_device_tft180
  +--> tft180_set_color/zf_device_tft180
  +--> menu_Init/menu
  +--> ?C?SLDIV/?C?SLDIV
  +--> pit_init/zf_driver_pit

Motor_Init/function                           ----- -----
  +--> pwm_init/zf_driver_pwm

pwm_init/zf_driver_pwm                        100AH 1017H
  +--> debug_assert_handler/zf_common_debug
  +--> gpio_init/zf_driver_gpio
  +--> ?C?ULIDIV/?C?ULDIV

Servo_Init/function                           ----- -----
  +--> pwm_init/zf_driver_pwm

interrupt_set_priority/zf_common_interru+     ----- -----
... pt

Buzzer_Init/Buzzer                            ----- -----
  +--> gpio_init/zf_driver_gpio

L251 LINKER/LOCATER V4.66.93.0                                                        10/23/2025  22:33:42  PAGE 18


Buzzer_OFF/Buzzer                             ----- -----
  +--> gpio_set_level/zf_driver_gpio

enconder_init/function                        ----- -----
  +--> encoder_dir_init/zf_driver_encoder

encoder_dir_init/zf_driver_encoder            100AH 100BH
  +--> timer_funciton_check/zf_driver_timer
  +--> debug_assert_handler/zf_common_debug
  +--> gpio_init/zf_driver_gpio

ADC_GetInit/ADC_Get                           ----- -----
  +--> adc_init/zf_driver_adc

adc_init/zf_driver_adc                        ----- -----

tft180_init/zf_device_tft180                  ----- -----
  +--> spi_init/zf_driver_spi
  +--> tft180_set_dir/zf_device_tft180
  +--> tft180_set_color/zf_device_tft180
  +--> system_delay_ms/zf_driver_delay
  +--> tft180_write_index/zf_device_tft180
  +--> spi_write_8bit/zf_driver_spi
  +--> tft180_clear/zf_device_tft180

spi_init/zf_driver_spi                        100AH 1019H
  +--> debug_assert_handler/zf_common_debug
  +--> gpio_init/zf_driver_gpio
  +--> gpio_set_level_speed/zf_driver_gpio
  +--> ?C?ULIDIV/?C?ULDIV
  +--> uart_funciton_check/zf_driver_uart

gpio_set_level_speed/zf_driver_gpio           ----- -----
  +--> debug_assert_handler/zf_common_debug

tft180_set_dir/zf_device_tft180               ----- -----

tft180_set_color/zf_device_tft180             ----- -----

tft180_write_index/zf_device_tft180           ----- -----
  +--> spi_write_8bit/zf_driver_spi

spi_write_8bit/zf_driver_spi                  ----- -----
  +--> spi_write_dat/zf_driver_spi

spi_write_dat/zf_driver_spi                   ----- -----
  +--> debug_assert_handler/zf_common_debug

tft180_clear/zf_device_tft180                 100AH 100DH
  +--> tft180_set_region/zf_device_tft180
  +--> spi_write_16bit/zf_driver_spi

tft180_set_region/zf_device_tft180            1045H 1048H
  +--> debug_assert_handler/zf_common_debug
  +--> tft180_write_index/zf_device_tft180
  +--> spi_write_16bit/zf_driver_spi

spi_write_16bit/zf_driver_spi                 ----- -----
  +--> spi_write_dat/zf_driver_spi

menu_Init/menu                                ----- -----
  +--> Menu_SetChildren/menu
  +--> Refesh_arrow/menu
  +--> menu_display_content/menu
  +--> Show_bujin/menu
L251 LINKER/LOCATER V4.66.93.0                                                        10/23/2025  22:33:42  PAGE 19



Menu_SetChildren/menu                         ----- -----

Refesh_arrow/menu                             ----- -----
  +--> tft180_show_string/zf_device_tft180

tft180_show_string/zf_device_tft180           103BH 1040H
  +--> debug_assert_handler/zf_common_debug
  +--> tft180_show_char/zf_device_tft180

tft180_show_char/zf_device_tft180             1041H 1044H
  +--> debug_assert_handler/zf_common_debug
  +--> tft180_set_region/zf_device_tft180
  +--> spi_write_16bit/zf_driver_spi

menu_display_content/menu                     ----- -----
  +--> tft180_show_string/zf_device_tft180
  +--> tft180_show_float/zf_device_tft180

tft180_show_float/zf_device_tft180            100AH 103AH
  +--> debug_assert_handler/zf_common_debug
  +--> zf_sprintf/zf_common_function
  +--> tft180_show_string/zf_device_tft180

zf_sprintf/zf_common_function                 103BH 109DH
  +--> number_conversion_ascii/zf_common_function
  +--> printf_reverse_order/zf_common_function
  +--> memcpy?_/memcpy

number_conversion_ascii/zf_common_functi+     109EH 109EH
... on
  +--> ?C?SLDIV/?C?SLDIV
  +--> ?C?ULIDIV/?C?ULDIV

printf_reverse_order/zf_common_function       ----- -----

Show_bujin/menu                               ----- -----
  +--> tft180_show_string/zf_device_tft180

pit_init/zf_driver_pit                        ----- -----
  +--> ?C?ULIDIV/?C?ULDIV

pit_handler1/main                             ----- -----
  +--> ADC_SampleAndFilter/ADC_Get
  +--> unification/function
  +--> Servo_turn_pid/control
  +--> if_Cycle/Strategy
  +--> Servo_Control/function
  +--> speed_control_ring/function
  +--> Speed_diff/control
  +--> State_of_road/Strategy
  +--> Speed_Control/function
  +--> Protect/function
  +--> Key_scaner/Key
  +--> Show_pararm/function

ADC_SampleAndFilter/ADC_Get                   ----- -----
  +--> adc_convert/zf_driver_adc
  +--> adc_filter/ADC_Get

adc_convert/zf_driver_adc                     ----- -----

adc_filter/ADC_Get                            ----- -----
  +--> ?C?ULIDIV/?C?ULDIV

L251 LINKER/LOCATER V4.66.93.0                                                        10/23/2025  22:33:42  PAGE 20


unification/function                          100AH 100FH
  +--> fast_sqrt/function

fast_sqrt/function                            1010H 1017H
  +--> memcpy?_/memcpy

Servo_turn_pid/control                        ----- -----

if_Cycle/Strategy                             ----- -----
  +--> Buzzer_ON/Buzzer
  +--> Buzzer_OFF/Buzzer
  +--> CAR_STOP/function

Buzzer_ON/Buzzer                              ----- -----
  +--> gpio_set_level/zf_driver_gpio

CAR_STOP/function                             ----- -----
  +--> MotorL_SetSpeed/control
  +--> MotorR_SetSpeed/control
  +--> Ser_Servo_Duty/control

MotorL_SetSpeed/control                       ----- -----
  +--> pwm_set_duty/zf_driver_pwm

pwm_set_duty/zf_driver_pwm                    100EH 1019H
  +--> debug_assert_handler/zf_common_debug

MotorR_SetSpeed/control                       ----- -----
  +--> pwm_set_duty/zf_driver_pwm

Ser_Servo_Duty/control                        ----- -----
  +--> pwm_set_duty/zf_driver_pwm

Servo_Control/function                        ----- -----
  +--> pwm_set_duty/zf_driver_pwm
  +--> Help_turn2/Strategy

Help_turn2/Strategy                           100AH 100DH
  +--> pwm_set_duty/zf_driver_pwm

speed_control_ring/function                   ----- -----
  +--> encoder_get_count/zf_driver_encoder
  +--> encoder_clear_count/zf_driver_encoder

encoder_get_count/zf_driver_encoder           ----- -----
  +--> gpio_get_level/zf_driver_gpio

gpio_get_level/zf_driver_gpio                 ----- -----
  +--> debug_assert_handler/zf_common_debug

encoder_clear_count/zf_driver_encoder         ----- -----

Speed_diff/control                            ----- -----

State_of_road/Strategy                        ----- -----
  +--> Motor_Update_Smooth/control
  +--> Buzzer_OFF/Buzzer
  +--> Buzzer_ON/Buzzer
  +--> CAR_STOP/function

Motor_Update_Smooth/control                   ----- -----
  +--> Motor_Update/control

Motor_Update/control                          ----- -----
  +--> Motor_Left_pi_control/control
L251 LINKER/LOCATER V4.66.93.0                                                        10/23/2025  22:33:42  PAGE 21


  +--> MotorL_SetSpeed/control
  +--> Motor_Right_pi_control/control
  +--> MotorR_SetSpeed/control

Motor_Left_pi_control/control                 ----- -----

Motor_Right_pi_control/control                ----- -----

Speed_Control/function                        ----- -----
  +--> Motor_Left_pi_control/control
  +--> MotorL_SetSpeed/control
  +--> Motor_Right_pi_control/control
  +--> MotorR_SetSpeed/control

Protect/function                              ----- -----

Key_scaner/Key                                ----- -----
  +--> Key_Number/Key
  +--> Turn_mode/Key

Key_Number/Key                                ----- -----
  +--> gpio_get_level/zf_driver_gpio

Turn_mode/Key                                 ----- -----

Show_pararm/function                          ----- -----
  +--> tft180_show_string/zf_device_tft180
  +--> tft180_show_float/zf_device_tft180
  +--> tft180_show_int16/zf_device_tft180
  +--> Motor_Left_pi_control/control
  +--> Motor_Right_pi_control/control
  +--> unification/function

tft180_show_int16/zf_device_tft180            100AH 1011H
  +--> debug_assert_handler/zf_common_debug
  +--> tft180_show_char/zf_device_tft180

GO_Function/function                          ----- -----
  +--> Turn_mode_Init/function

Turn_mode_Init/function                       ----- -----
  +--> CAR_STOP/function
  +--> Buzzer_OFF/Buzzer
  +--> show_test_info/function
  +--> Refesh_arrow/menu
  +--> menu_display_content/menu
  +--> Show_bujin/menu
  +--> PID_Update/control
  +--> Cycle_Update/control

show_test_info/function                       ----- -----
  +--> tft180_clear/zf_device_tft180
  +--> system_delay_ms/zf_driver_delay
  +--> tft180_show_string/zf_device_tft180

PID_Update/control                            ----- -----

Cycle_Update/control                          ----- -----

menu_handle_key/menu                          ----- -----
  +--> handle_key1/menu
  +--> handle_key2/menu
  +--> handle_key3/menu
  +--> handle_key4/menu
  +--> handle_key5/menu
L251 LINKER/LOCATER V4.66.93.0                                                        10/23/2025  22:33:42  PAGE 22



handle_key1/menu                              ----- -----
  +--> tft180_show_string/zf_device_tft180
  +--> tft180_clear/zf_device_tft180
  +--> menu_display_content/menu
  +--> Refesh_arrow/menu

handle_key2/menu                              ----- -----
  +--> Show_bujin/menu

handle_key3/menu                              ----- -----
  +--> Show_bujin/menu

handle_key4/menu                              ----- -----
  +--> menu_display_content/menu
  +--> tft180_show_string/zf_device_tft180
  +--> tft180_clear/zf_device_tft180
  +--> Refesh_arrow/menu

handle_key5/menu                              ----- -----
  +--> Key3_handle1/menu
  +--> Key3_handle2/menu

Key3_handle1/menu                             ----- -----
  +--> Refesh_arrow/menu

Key3_handle2/menu                             ----- -----
  +--> show_all_menu/menu
  +--> Refesh_arrow/menu

show_all_menu/menu                            ----- -----
  +--> tft180_clear/zf_device_tft180
  +--> Refesh_arrow/menu
  +--> menu_display_content/menu
  +--> Show_bujin/menu

PWM_Test/Device_Test                          ----- -----
  +--> MotorL_SetSpeed/control
  +--> MotorR_SetSpeed/control

Serve_Test/Device_Test                        ----- -----
  +--> Ser_Servo_Duty/control
  +--> system_delay_ms/zf_driver_delay

Set_Sevo/Device_Test                          ----- -----
  +--> Ser_Servo_Duty/control

SPRINTF/SPRINTF                               100AH 1031H
  +--> OUT/SPRINTF

OUT/SPRINTF                                   ----- -----
  +--> PUTCH/SPRINTF

PUTCH/SPRINTF                                 ----- -----

*** NEW ROOT ********************************

TM11_IRQHandler/isr                           ----- -----

*** NEW ROOT ********************************

DMA_UART1_IRQHandler/isr                      ----- -----
  +--> uart_rx_start_buff/zf_driver_uart

*** NEW ROOT ********************************
L251 LINKER/LOCATER V4.66.93.0                                                        10/23/2025  22:33:42  PAGE 23



DMA_UART2_IRQHandler/isr                      ----- -----
  +--> uart_rx_start_buff/zf_driver_uart

*** NEW ROOT ********************************

DMA_UART3_IRQHandler/isr                      ----- -----
  +--> uart_rx_start_buff/zf_driver_uart

*** NEW ROOT ********************************

DMA_UART4_IRQHandler/isr                      ----- -----
  +--> uart_rx_start_buff/zf_driver_uart

*** NEW ROOT ********************************

TM0_IRQHandler/isr                            ----- -----

*** NEW ROOT ********************************

TM1_IRQHandler/isr                            ----- -----

*** NEW ROOT ********************************

TM2_IRQHandler/isr                            ----- -----

*** NEW ROOT ********************************

TM3_IRQHandler/isr                            ----- -----

*** NEW ROOT ********************************

TM4_IRQHandler/isr                            ----- -----

*** NEW ROOT ********************************

?C_C51STARTUP?1                               ----- -----

*** NEW ROOT ********************************

?C_C51STARTUP?2                               ----- -----



PUBLIC SYMBOLS OF MODULE:  .\out_file\SEEKFREE (ai8051u_isr)


      VALUE       CLASS    TYPE      PUBLIC SYMBOL NAME
      =================================================
      00FF3919H   CODE     ---       ?C?BMOVEPP
      00FF3917H   CODE     ---       ?C?BMOVEPP8
      00FF259FH   CODE     NEAR LAB  ?C?CASTD
      00FF3807H   CODE     NEAR LAB  ?C?CASTF
      000000FFH   NUMBER   ---       ?C?CODESEG
      00FF255CH   CODE     NEAR LAB  ?C?DCASTC
      00FF25FFH   CODE     NEAR LAB  ?C?DCASTF
      00FF2557H   CODE     NEAR LAB  ?C?DCASTI
      00FF2552H   CODE     NEAR LAB  ?C?DCASTL
      00FF2FD3H   CODE     ---       ?C?DP2SERIES
      00FF2225H   CODE     ---       ?C?DPADD
      00FF24E5H   CODE     ---       ?C?DPCMP
      00FF24E3H   CODE     ---       ?C?DPCMP3
      00FF32BEH   CODE     ---       ?C?DPCONVERT
      00FF2444H   CODE     ---       ?C?DPDIV
      00FF2AF5H   CODE     ---       ?C?DPGETOPN2
L251 LINKER/LOCATER V4.66.93.0                                                        10/23/2025  22:33:42  PAGE 24


      00FF2334H   CODE     ---       ?C?DPMUL
      00FF2B40H   CODE     ---       ?C?DPNANRESULT
      00FF2544H   CODE     ---       ?C?DPNEG
      00FF2B4CH   CODE     ---       ?C?DPOVERFLOW
      00FF2B18H   CODE     ---       ?C?DPRESULT
      00FF2B31H   CODE     ---       ?C?DPRESULT2
      00FF33E5H   CODE     ---       ?C?DPROUND
      00FF2FDEH   CODE     ---       ?C?DPSERIES
      00FF2221H   CODE     ---       ?C?DPSUB
      00FF2B47H   CODE     ---       ?C?DPUNDERFLOW
      00FF34C0H   CODE     ---       ?C?DTNPWR
      00FF37D4H   CODE     NEAR LAB  ?C?FCASTC
      00FF2641H   CODE     NEAR LAB  ?C?FCASTD
      00FF37CFH   CODE     NEAR LAB  ?C?FCASTI
      00FF37CAH   CODE     NEAR LAB  ?C?FCASTL
      00FF359DH   CODE     ---       ?C?FPADD
      00FF3778H   CODE     ---       ?C?FPCMP
      00FF3776H   CODE     ---       ?C?FPCMP3
      00FF36F5H   CODE     ---       ?C?FPDIV
      00FF3546H   CODE     ---       ?C?FPGETOPN2
      00FF3655H   CODE     ---       ?C?FPMUL
      00FF3583H   CODE     ---       ?C?FPNANRESULT
      00FF37BCH   CODE     ---       ?C?FPNEG
      00FF358BH   CODE     ---       ?C?FPOVERFLOW
      00FF355FH   CODE     ---       ?C?FPRESULT
      00FF3575H   CODE     ---       ?C?FPRESULT2
      00FF359AH   CODE     ---       ?C?FPSUB
      00FF3588H   CODE     ---       ?C?FPUNDERFLOW
      00FFAFA0H   CODE     ---       ?C?INITHDATA
      00FFC880H   HCONST   WORD      ?C?INITHDATA_END
      00FF3887H   CODE     ---       ?C?LIMUL
      00FF3876H   CODE     ---       ?C?LMUL
      00FF2BA5H   CODE     ---       ?C?PRNFMT
      00FF3844H   CODE     ---       ?C?SIDIV
      00FF38E3H   CODE     NEAR LAB  ?C?SLDIV
      00FF0000H   CODE     ---       ?C?STARTUP
      00FF3892H   CODE     NEAR LAB  ?C?ULDIV
      00FF3890H   CODE     NEAR LAB  ?C?ULIDIV
      00000001H   NUMBER   ---       ?C?XDATASEG
      00FF0000H   CODE     ---       ?C_STARTUP
      00011006H   XDATA    BYTE      ?fifo_init?BYTE
*DEL*:1FFFFFFCH   XDATA    BYTE      ?fifo_read_buffer?BYTE
      00011007H   XDATA    BYTE      ?fifo_write_buffer?BYTE
*DEL*:1FFFFFFCH   XDATA    BYTE      ?func_double_to_str?BYTE
*DEL*:00000000H   XDATA    BYTE      ?get_two_points_azimuth?BYTE
*DEL*:00000000H   XDATA    BYTE      ?get_two_points_distance?BYTE
*DEL*:1FFFFFF8H   XDATA    BYTE      ?Help_turn3?BYTE
*DEL*:1FFFFFF8H   XDATA    BYTE      ?Help_turn_Two?BYTE
*DEL*:1FFFFFFCH   XDATA    BYTE      ?iap_read_buff?BYTE
*DEL*:1FFFFFFCH   XDATA    BYTE      ?iap_write_buff?BYTE
*DEL*:1FFFFFFCH   XDATA    BYTE      ?ips114_show_chinese?BYTE
*DEL*:1FFFFFFEH   XDATA    BYTE      ?ips114_show_float?BYTE
*DEL*:1FFFFFFCH   XDATA    BYTE      ?ips114_show_wave?BYTE
*DEL*:1FFFFFFCH   XDATA    BYTE      ?ips200_show_chinese?BYTE
*DEL*:1FFFFFFEH   XDATA    BYTE      ?ips200_show_float?BYTE
*DEL*:1FFFFFFCH   XDATA    BYTE      ?ips200_show_wave?BYTE
*DEL*:1FFFFFF8H   XDATA    BYTE      ?Normal_PID?BYTE
      00011081H   XDATA    ---       ?printf?BYTE
      00011008H   XDATA    BYTE      ?pwm_init?BYTE
*DEL*:1FFFFFFEH   XDATA    BYTE      ?pwm_set_freq?BYTE
*DEL*:1FFFFFF8H   XDATA    BYTE      ?seekfree_assistant_camera_boundary_config?BYTE
*DEL*:1FFFFFFBH   XDATA    BYTE      ?seekfree_assistant_camera_data_send?BYTE
*DEL*:1FFFFFF8H   XDATA    BYTE      ?seekfree_assistant_camera_information_config?BYTE
*DEL*:1FFFFFFCH   XDATA    BYTE      ?soft_iic_init?BYTE
*DEL*:1FFFFFFCH   XDATA    BYTE      ?soft_iic_read_16bit_array?BYTE
L251 LINKER/LOCATER V4.66.93.0                                                        10/23/2025  22:33:42  PAGE 25


*DEL*:1FFFFFFCH   XDATA    BYTE      ?soft_iic_read_16bit_registers?BYTE
*DEL*:1FFFFFFCH   XDATA    BYTE      ?soft_iic_read_8bit_array?BYTE
*DEL*:1FFFFFFCH   XDATA    BYTE      ?soft_iic_read_8bit_registers?BYTE
*DEL*:1FFFFFFCH   XDATA    BYTE      ?soft_iic_transfer_16bit_array?BYTE
*DEL*:1FFFFFFCH   XDATA    BYTE      ?soft_iic_transfer_8bit_array?BYTE
*DEL*:1FFFFFFCH   XDATA    BYTE      ?soft_iic_write_16bit_array?BYTE
*DEL*:1FFFFFFCH   XDATA    BYTE      ?soft_iic_write_16bit_registers?BYTE
*DEL*:1FFFFFFCH   XDATA    BYTE      ?soft_iic_write_8bit_array?BYTE
*DEL*:1FFFFFFCH   XDATA    BYTE      ?soft_iic_write_8bit_registers?BYTE
*DEL*:1FFFFFFCH   XDATA    BYTE      ?soft_spi_init?BYTE
*DEL*:1FFFFFFCH   XDATA    BYTE      ?soft_spi_read_16bit_array?BYTE
*DEL*:1FFFFFFCH   XDATA    BYTE      ?soft_spi_read_16bit_registers?BYTE
*DEL*:1FFFFFFCH   XDATA    BYTE      ?soft_spi_read_8bit_array?BYTE
*DEL*:1FFFFFFCH   XDATA    BYTE      ?soft_spi_read_8bit_registers?BYTE
*DEL*:1FFFFFFCH   XDATA    BYTE      ?soft_spi_transfer_16bit?BYTE
*DEL*:1FFFFFFCH   XDATA    BYTE      ?soft_spi_transfer_8bit?BYTE
*DEL*:1FFFFFFCH   XDATA    BYTE      ?soft_spi_write_16bit_array?BYTE
*DEL*:1FFFFFFCH   XDATA    BYTE      ?soft_spi_write_16bit_registers?BYTE
*DEL*:1FFFFFFCH   XDATA    BYTE      ?soft_spi_write_8bit_array?BYTE
*DEL*:1FFFFFFCH   XDATA    BYTE      ?soft_spi_write_8bit_registers?BYTE
      00011006H   XDATA    BYTE      ?spi_init?BYTE
*DEL*:1FFFFFFCH   XDATA    BYTE      ?spi_read_16bit_array?BYTE
*DEL*:1FFFFFFCH   XDATA    BYTE      ?spi_read_16bit_registers?BYTE
*DEL*:1FFFFFFCH   XDATA    BYTE      ?spi_read_8bit_array?BYTE
*DEL*:1FFFFFFBH   XDATA    BYTE      ?spi_read_8bit_registers?BYTE
*DEL*:1FFFFFFCH   XDATA    BYTE      ?spi_transfer_16bit?BYTE
*DEL*:1FFFFFFCH   XDATA    BYTE      ?spi_transfer_8bit?BYTE
*DEL*:1FFFFFFCH   XDATA    BYTE      ?spi_write_16bit_array?BYTE
*DEL*:1FFFFFFCH   XDATA    BYTE      ?spi_write_16bit_registers?BYTE
*DEL*:1FFFFFFCH   XDATA    BYTE      ?spi_write_8bit_array?BYTE
*DEL*:1FFFFFFBH   XDATA    BYTE      ?spi_write_8bit_registers?BYTE
      00011032H   XDATA    ---       ?sprintf?BYTE
      00011008H   XDATA    BYTE      ?tft180_show_float?BYTE
*DEL*:1FFFFFFCH   XDATA    BYTE      ?tft180_show_wave?BYTE
      00011006H   XDATA    BYTE      ?uart_init?BYTE
      00011063H   XDATA    BYTE      ?zf_sprintf?BYTE
      00FF2B5AH   CODE     ---       _chkdouble_?_
      00FF9E10H   CODE     ---       _m
*SFR* 000000D0H.6 DATA     BIT       AC
*SFR* 000000E0H   DATA     BYTE      ACC
      000111FAH   XDATA    WORD      Accel_Time
      00010A00H   XDATA    WORD      ADC_1
      00010A02H   XDATA    WORD      ADC_2
      00010A04H   XDATA    WORD      ADC_3
      00010A06H   XDATA    WORD      ADC_4
      00010A08H   XDATA    WORD      ADC_5
      00010A0AH   XDATA    WORD      ADC_6
      00010A28H   XDATA    WORD      ADC_8
*SFR* 000000BCH   DATA     BYTE      ADC_CONTR
      00FFB621H   CODE     ---       adc_convert
      00FFA0BFH   CODE     ---       adc_filter
      00FFB6ADH   CODE     ---       ADC_GetInit
      00FFA8E8H   CODE     ---       adc_init
*DEL*:00000000H   CODE     ---       adc_mean_filter_convert
      000111CEH   XDATA    ---       ADC_Num
*SFR* 000000BDH   DATA     BYTE      ADC_RES
*SFR* 000000BEH   DATA     BYTE      ADC_RESL
      00FF92E8H   CODE     ---       ADC_SampleAndFilter
      00010F7AH   XDATA    BYTE      ADC_Show_Flag
*SFR* 000000DEH   DATA     BYTE      ADCCFG
      00FF3940H   CODE     ---       asc2_0806
      00FF3B68H   CODE     ---       asc2_1608
      00FF5443H   CODE     ---       ascii_font_8x16
      00FF2ACBH   CODE     ---       asin?_
      00FF29B0H   CODE     ---       atan?_
L251 LINKER/LOCATER V4.66.93.0                                                        10/23/2025  22:33:42  PAGE 26


*SFR* 000000EFH   DATA     BYTE      AUXINTIF
*SFR* 0000008EH   DATA     BYTE      AUXR
*SFR* 00000097H   DATA     BYTE      AUXR2
*SFR* 000000F0H   DATA     BYTE      B
*DEL*:00000000H   CODE     ---       battery_get
      00000020H.0 BIT      BIT       Battery_Init
      00011200H   XDATA    WORD      Bend_Time
*DEL*:00000000H   CODE     ---       ble6a20_callback
*DEL*:00000000H   CODE     ---       ble6a20_init
*DEL*:00000000H   CODE     ---       ble6a20_read_buffer
*DEL*:00000000H   CODE     ---       ble6a20_send_buffer
*DEL*:00000000H   CODE     ---       ble6a20_send_byte
*DEL*:00000000H   CODE     ---       ble6a20_send_string
      00011292H   XDATA    FLOAT     bujin
      00FFB7D7H   CODE     ---       Buzzer_Init
      00FF01BEH   CODE     ---       Buzzer_OFF
      00FF01AEH   CODE     ---       Buzzer_ON
*SFR* 000000C8H.1 DATA     BIT       C_T2
      0001127BH   XDATA    BYTE      CAR_Mode
      00FFB7B4H   CODE     ---       CAR_STOP
*SFR* 000000FAH   DATA     BYTE      CCAP0H
*SFR* 000000EAH   DATA     BYTE      CCAP0L
*SFR* 000000FBH   DATA     BYTE      CCAP1H
*SFR* 000000EBH   DATA     BYTE      CCAP1L
*SFR* 000000FCH   DATA     BYTE      CCAP2H
*SFR* 000000ECH   DATA     BYTE      CCAP2L
*SFR* 000000FDH   DATA     BYTE      CCAP3H
*SFR* 000000EDH   DATA     BYTE      CCAP3L
*SFR* 000000FEH   DATA     BYTE      CCAP4H
*SFR* 000000EEH   DATA     BYTE      CCAP4L
*SFR* 000000DAH   DATA     BYTE      CCAPM0
*SFR* 000000DBH   DATA     BYTE      CCAPM1
*SFR* 000000DCH   DATA     BYTE      CCAPM2
*SFR* 000000DDH   DATA     BYTE      CCAPM3
*SFR* 000000DEH   DATA     BYTE      CCAPM4
*SFR* 000000D8H.0 DATA     BIT       CCF0
*SFR* 000000D8H.1 DATA     BIT       CCF1
*SFR* 000000D8H.2 DATA     BIT       CCF2
*SFR* 000000D8H.3 DATA     BIT       CCF3
*SFR* 000000D8H.4 DATA     BIT       CCF4
*SFR* 000000D8H   DATA     BYTE      CCON
*SFR* 00000090H.3 DATA     BIT       CEX0
*SFR* 00000090H.4 DATA     BIT       CEX1
*SFR* 00000090H.5 DATA     BIT       CEX2
*SFR* 00000090H.6 DATA     BIT       CEX3
*SFR* 00000090H.7 DATA     BIT       CEX4
*SFR* 000000D8H.7 DATA     BIT       CF
*SFR* 000000F9H   DATA     BYTE      CH
*SFR* 000000EAH   DATA     BYTE      CKCON
*SFR* 000000E9H   DATA     BYTE      CL
      00FF94A9H   CODE     ---       clock_init
*SFR* 000000D9H   DATA     BYTE      CMOD
*SFR* 000000E6H   DATA     BYTE      CMPCR1
*SFR* 000000E7H   DATA     BYTE      CMPCR2
      000111F5H   XDATA    WORD      Continue_Time
      00FF2818H   CODE     ---       cos?_
*SFR* 000000C8H.0 DATA     BIT       CP_RL2
*SFR* 000000D8H.6 DATA     BIT       CR
      00011273H   XDATA    FLOAT     Current_dajiao
      00011277H   XDATA    FLOAT     Current_Speed
*SFR* 000000D0H.7 DATA     BIT       CY
      00011202H   XDATA    BYTE      Cycle_Stat
      00FF82E1H   CODE     ---       Cycle_Update
      00010FDBH   XDATA    INT       dajiao
      00FFAD30H   CODE     ---       debug_assert_handler
L251 LINKER/LOCATER V4.66.93.0                                                        10/23/2025  22:33:42  PAGE 27


      00FFA34DH   CODE     ---       debug_init
      00FFB544H   CODE     ---       debug_interrupr_handler
*DEL*:00000000H   CODE     ---       debug_read_buffer
*DEL*:00000000H   CODE     ---       debug_send_buffer
      0001109FH   XDATA    ---       debug_uart_buffer
      000110E0H   XDATA    ---       debug_uart_fifo
*DEL*:00000000H   CODE     ---       delay_ms
      000112FBH   XDATA    INT       delta_Speed
      0001128DH   XDATA    WORD      dl1a_distance_mm
      0001128FH   XDATA    BYTE      dl1a_finsh_flag
*DEL*:00000000H   CODE     ---       dl1a_get_distance
*DEL*:00000000H   CODE     ---       dl1a_init
*DEL*:00000000H   CODE     ---       dl1a_int_handler
      00FFA20AH   CODE     ---       DMA_UART1_IRQHandler
      00FFA74DH   CODE     ---       DMA_UART2_IRQHandler
      00FFA7D6H   CODE     ---       DMA_UART3_IRQHandler
      00FFA85FH   CODE     ---       DMA_UART4_IRQHandler
*SFR* 00000083H   DATA     BYTE      DPH
*SFR* 00000082H   DATA     BYTE      DPL
*SFR* 00000084H   DATA     BYTE      DPXL
*SFR* 000000A8H.7 DATA     BIT       EA
*SFR* 000000A8H.6 DATA     BIT       EC
*SFR* 00000090H.2 DATA     BIT       ECI
*DEL*:00000000H   CODE     ---       eeprom_read_float
*DEL*:00000000H   CODE     ---       eeprom_read_Num
*DEL*:00000000H   CODE     ---       eeprom_save_float
*DEL*:00000000H   CODE     ---       eeprom_save_Num
*DEL*:00000000H   CODE     ---       eeprom_trig
      00FFA3E4H   CODE     ---       encoder_clear_count
      00010F74H   XDATA    INT       encoder_data_dir_1
      00010F76H   XDATA    INT       encoder_data_dir_2
      00FF9007H   CODE     ---       encoder_dir_init
      00FFA165H   CODE     ---       encoder_get_count
      00FF0026H   CODE     ---       enconder_init
      000111F9H   XDATA    BYTE      Enter_Flag_Left
      000111EBH   XDATA    WORD      Entern_Continue_Time
      000111F1H   XDATA    WORD      Entern_Delay_Time
      000111F7H   XDATA    WORD      Entern_Flag_Time
*SFR* 000000A8H.4 DATA     BIT       ES
*SFR* 000000A8H.1 DATA     BIT       ET0
*SFR* 000000A8H.3 DATA     BIT       ET1
*SFR* 000000A8H.5 DATA     BIT       ET2
*SFR* 000000A8H.0 DATA     BIT       EX0
*SFR* 000000A8H.2 DATA     BIT       EX1
*SFR* 000000C8H.3 DATA     BIT       EXEN2
*SFR* 000000C8H.6 DATA     BIT       EXF2
      00FF30BAH   CODE     ---       exp?_
*DEL*:00000000H   CODE     ---       extern_iap_write_buff
*SFR* 000000D0H.5 DATA     BIT       F0
      00FF9D5DH   CODE     ---       fast_sqrt
*SFR* 00000098H.7 DATA     BIT       FE
*DEL*:00000000H   CODE     ---       fifo_clear
      00FFA9F3H   CODE     ---       fifo_init
*DEL*:00000000H   CODE     ---       fifo_read_buffer
*DEL*:00000000H   CODE     ---       fifo_used
      00FF63E8H   CODE     ---       fifo_write_buffer
      000111DCH   XDATA    ---       filtered_adc
      0001129DH   XDATA    CHAR      Flag
*DEL*:00000000H   CODE     ---       func_double_to_str
*DEL*:00000000H   CODE     ---       func_float_to_str
*DEL*:00000000H   CODE     ---       func_get_greatest_common_divisor
*DEL*:00000000H   CODE     ---       func_hex_to_str
*DEL*:00000000H   CODE     ---       func_int_to_str
*DEL*:00000000H   CODE     ---       func_soft_delay
*DEL*:00000000H   CODE     ---       func_str_to_double
L251 LINKER/LOCATER V4.66.93.0                                                        10/23/2025  22:33:42  PAGE 28


*DEL*:00000000H   CODE     ---       func_str_to_float
*DEL*:00000000H   CODE     ---       func_str_to_hex
*DEL*:00000000H   CODE     ---       func_str_to_int
*DEL*:00000000H   CODE     ---       func_str_to_uint
*DEL*:00000000H   CODE     ---       func_uint_to_str
*DEL*:00000000H   CODE     ---       get_two_points_azimuth
*DEL*:00000000H   CODE     ---       get_two_points_distance
      00FFB808H   CODE     ---       GO_Function
      00010F78H   XDATA    BYTE      GO_PID_Control
      00010F7BH   XDATA    BYTE      GO_PID_Control1
      00010F7CH   XDATA    BYTE      GO_PID_Control2
      00010FA9H   XDATA    BYTE      GO_PID_Control3
      00FF00C6H   CODE     ---       gpio_get_level
      00FF9A78H   CODE     ---       gpio_init
      00FF8A1DH   CODE     ---       gpio_set_impedance
      00FF8611H   CODE     ---       gpio_set_level
      00FF71AFH   CODE     ---       gpio_set_level_speed
*DEL*:00000000H   CODE     ---       gpio_toggle_level
*DEL*:00000000H   CODE     ---       gps_data_parse
      00010E30H   XDATA    INT       gps_gga_state
*DEL*:00000000H   CODE     ---       gps_init
      00010E32H   XDATA    INT       gps_rmc_state
      00010CFCH   XDATA    ---       gps_tau1201
      00010C7BH   XDATA    BYTE      gps_tau1201_flag
      000112E5H   XDATA    INT       gps_type
*DEL*:00000000H   CODE     ---       gps_uart_callback
      00FF9587H   CODE     ---       handle_key1
      00FFB2D1H   CODE     ---       handle_key2
      00FFB081H   CODE     ---       handle_key3
      00FF99B1H   CODE     ---       handle_key4
      00FF00A6H   CODE     ---       handle_key5
*DEL*:00000000H   CODE     ---       Help_turn
      00FF7468H   CODE     ---       Help_turn2
*DEL*:00000000H   CODE     ---       Help_turn3
*DEL*:00000000H   CODE     ---       Help_turn_Two
      00FF4158H   CODE     ---       Hzk
      00011299H   XDATA    CHAR      i
*SFR* 000000F6H   DATA     BYTE      IAP_ADDRE
*SFR* 000000C3H   DATA     BYTE      IAP_ADDRH
*SFR* 000000C4H   DATA     BYTE      IAP_ADDRL
*SFR* 000000C5H   DATA     BYTE      IAP_CMD
*SFR* 000000C7H   DATA     BYTE      IAP_CONTR
*SFR* 000000C2H   DATA     BYTE      IAP_DATA
*DEL*:00000000H   CODE     ---       iap_erase_page
*DEL*:00000000H   CODE     ---       iap_get_cmd_state
*DEL*:00000000H   CODE     ---       iap_idle
*DEL*:00000000H   CODE     ---       iap_init
*DEL*:00000000H   CODE     ---       iap_read_buff
*DEL*:00000000H   CODE     ---       iap_read_byte
*DEL*:00000000H   CODE     ---       iap_set_tps
*SFR* 000000F5H   DATA     BYTE      IAP_TPS
*SFR* 000000C6H   DATA     BYTE      IAP_TRIG
*DEL*:00000000H   CODE     ---       iap_write_buff
*DEL*:00000000H   CODE     ---       iap_write_byte
      0001124BH   XDATA    INT       icm20602_acc_x
      0001124DH   XDATA    INT       icm20602_acc_y
      0001124FH   XDATA    INT       icm20602_acc_z
*DEL*:00000000H   CODE     ---       icm20602_get_acc
*DEL*:00000000H   CODE     ---       icm20602_get_gyro
      00011251H   XDATA    INT       icm20602_gyro_x
      00011253H   XDATA    INT       icm20602_gyro_y
      00011255H   XDATA    INT       icm20602_gyro_z
*DEL*:00000000H   CODE     ---       icm20602_init
      00011257H   XDATA    ---       icm20602_transition_factor
*SFR* 000000A8H   DATA     BYTE      IE
L251 LINKER/LOCATER V4.66.93.0                                                        10/23/2025  22:33:42  PAGE 29


*SFR* 000000A8H   DATA     BYTE      IE0
*SFR* 00000088H.1 DATA     BIT       IE0_
*SFR* 000000B1H   DATA     BYTE      IE1
*SFR* 00000088H.3 DATA     BIT       IE1_
*SFR* 000000AFH   DATA     BYTE      IE2
      000111EDH   XDATA    WORD      if2_time
      00FF9113H   CODE     ---       if_Cycle
      000111FCH   XDATA    WORD      if_time
      0001125FH   XDATA    INT       imu660ra_acc_x
      00011261H   XDATA    INT       imu660ra_acc_y
      00011263H   XDATA    INT       imu660ra_acc_z
      00FF021EH   CODE     ---       imu660ra_config_file
*DEL*:00000000H   CODE     ---       imu660ra_get_acc
*DEL*:00000000H   CODE     ---       imu660ra_get_gyro
      00011265H   XDATA    INT       imu660ra_gyro_x
      00011267H   XDATA    INT       imu660ra_gyro_y
      00011269H   XDATA    INT       imu660ra_gyro_z
*DEL*:00000000H   CODE     ---       imu660ra_init
      0001126BH   XDATA    ---       imu660ra_transition_factor
*DEL*:00000000H   CODE     ---       imu660rb_acc_transition
      000112B6H   XDATA    INT       imu660rb_acc_x
      000112B8H   XDATA    INT       imu660rb_acc_y
      000112BAH   XDATA    INT       imu660rb_acc_z
*DEL*:00000000H   CODE     ---       imu660rb_get_acc
*DEL*:00000000H   CODE     ---       imu660rb_get_gyro
*DEL*:00000000H   CODE     ---       imu660rb_gyro_transition
      000112BCH   XDATA    INT       imu660rb_gyro_x
      000112BEH   XDATA    INT       imu660rb_gyro_y
      000112C0H   XDATA    INT       imu660rb_gyro_z
*DEL*:00000000H   CODE     ---       imu660rb_init
      0001122DH   XDATA    INT       imu963ra_acc_x
      0001122FH   XDATA    INT       imu963ra_acc_y
      00011231H   XDATA    INT       imu963ra_acc_z
*DEL*:00000000H   CODE     ---       imu963ra_get_acc
*DEL*:00000000H   CODE     ---       imu963ra_get_gyro
*DEL*:00000000H   CODE     ---       imu963ra_get_mag
      00011239H   XDATA    INT       imu963ra_gyro_x
      0001123BH   XDATA    INT       imu963ra_gyro_y
      0001123DH   XDATA    INT       imu963ra_gyro_z
*DEL*:00000000H   CODE     ---       imu963ra_init
      00011233H   XDATA    INT       imu963ra_mag_x
      00011235H   XDATA    INT       imu963ra_mag_y
      00011237H   XDATA    INT       imu963ra_mag_z
      0001123FH   XDATA    ---       imu963ra_transition_factor
      00FFAC53H   CODE     ---       init_all
      00010F79H   XDATA    BYTE      Init_Fg
      000112CCH   XDATA    BYTE      Init_Flag
*SFR* 000000B0H.2 DATA     BIT       INT0
      0001121BH   XDATA    ---       int0_irq_handler
*SFR* 000000B0H.3 DATA     BIT       INT1
      0001121FH   XDATA    ---       int1_irq_handler
      00011223H   XDATA    ---       int2_irq_handler
      00011227H   XDATA    ---       int3_irq_handler
      0001122BH   XDATA    ---       int4_irq_handler
*SFR* 0000008FH   DATA     BYTE      INTCLKO
*DEL*:00000000H   CODE     ---       interrupt_global_disable
      00FF001EH   CODE     ---       interrupt_global_enable
      00FF9BEFH   CODE     ---       interrupt_set_priority
*SFR* 000000B8H   DATA     BYTE      IP
*SFR* 000000B5H   DATA     BYTE      IP2
*SFR* 000000B6H   DATA     BYTE      IP2H
*SFR* 000000DFH   DATA     BYTE      IP3
*SFR* 000000EEH   DATA     BYTE      IP3H
*SFR* 000000B7H   DATA     BYTE      IPH
*SFR* 000000B7H   DATA     BYTE      IPH0
L251 LINKER/LOCATER V4.66.93.0                                                        10/23/2025  22:33:42  PAGE 30


*SFR* 000000B8H   DATA     BYTE      IPL0
      000112F1H   XDATA    WORD      ips114_bgcolor
*DEL*:00000000H   CODE     ---       ips114_clear
      000112F3H   XDATA    INT       ips114_display_dir
*DEL*:00000000H   CODE     ---       ips114_draw_point
*DEL*:00000000H   CODE     ---       ips114_init
      000112EFH   XDATA    WORD      ips114_pencolor
*DEL*:00000000H   CODE     ---       ips114_set_color
*DEL*:00000000H   CODE     ---       ips114_set_dir
*DEL*:00000000H   CODE     ---       ips114_show_char
*DEL*:00000000H   CODE     ---       ips114_show_chinese
*DEL*:00000000H   CODE     ---       ips114_show_float
*DEL*:00000000H   CODE     ---       ips114_show_int16
*DEL*:00000000H   CODE     ---       ips114_show_int32
*DEL*:00000000H   CODE     ---       ips114_show_int8
*DEL*:00000000H   CODE     ---       ips114_show_string
*DEL*:00000000H   CODE     ---       ips114_show_uint16
*DEL*:00000000H   CODE     ---       ips114_show_uint8
*DEL*:00000000H   CODE     ---       ips114_show_wave
      000112F5H   XDATA    BYTE      ips114_x_max
      000112F6H   XDATA    BYTE      ips114_y_max
      000112CFH   XDATA    WORD      ips200_bgcolor
*DEL*:00000000H   CODE     ---       ips200_clear
      000112D1H   XDATA    INT       ips200_display_dir
*DEL*:00000000H   CODE     ---       ips200_draw_point
*DEL*:00000000H   CODE     ---       ips200_init
      000112CDH   XDATA    WORD      ips200_pencolor
*DEL*:00000000H   CODE     ---       ips200_set_color
*DEL*:00000000H   CODE     ---       ips200_set_dir
*DEL*:00000000H   CODE     ---       ips200_show_char
*DEL*:00000000H   CODE     ---       ips200_show_chinese
*DEL*:00000000H   CODE     ---       ips200_show_float
*DEL*:00000000H   CODE     ---       ips200_show_int16
*DEL*:00000000H   CODE     ---       ips200_show_int32
*DEL*:00000000H   CODE     ---       ips200_show_int8
*DEL*:00000000H   CODE     ---       ips200_show_string
*DEL*:00000000H   CODE     ---       ips200_show_uint16
*DEL*:00000000H   CODE     ---       ips200_show_uint8
*DEL*:00000000H   CODE     ---       ips200_show_wave
      000112D3H   XDATA    WORD      ips200_x_max
      000112D5H   XDATA    WORD      ips200_y_max
*SFR* 0000009DH   DATA     BYTE      IRCBAND
*SFR* 00000088H.0 DATA     BIT       IT0
*SFR* 00000088H.2 DATA     BIT       IT1
      0001129AH   XDATA    CHAR      j
      00011297H   XDATA    BYTE      Key
      0001129BH   XDATA    CHAR      Key3_count
      00FF019EH   CODE     ---       Key3_handle1
      00FF98E3H   CODE     ---       Key3_handle2
      000112C7H   XDATA    BYTE      Key_count
      00010F71H   XDATA    BYTE      Key_Flag
      00FFB28CH   CODE     ---       Key_Number
      00FF8EEDH   CODE     ---       Key_scaner
      000112CAH   XDATA    BYTE      keynumber
      000112CBH   XDATA    BYTE      last_keynumber
      00011280H   XDATA    FLOAT     Left_Speed
      00FF31A3H   CODE     NEAR LAB  log?_
      000111E4H   XDATA    WORD      Long_Time
      00010FDEH   XDATA    ---       M_left_pid
      00010F7DH   XDATA    ---       M_Right_pid
      00FF0066H   CODE     ---       MAIN
      00FFB72CH   CODE     ---       memcpy?_
*DEL*:00000000H   CODE     ---       memset?_
      00FF8B63H   CODE     ---       menu_display_content
      00FFB67FH   CODE     ---       menu_handle_key
L251 LINKER/LOCATER V4.66.93.0                                                        10/23/2025  22:33:42  PAGE 31


      00FFAA74H   CODE     ---       menu_Init
      00FF9813H   CODE     ---       Menu_SetChildren
      00011296H   XDATA    CHAR      mode
      000111FEH   XDATA    INT       Mode_Flag
      00FFD782H   HCONST   ---       mode_map
      00FFAF20H   CODE     ---       Motor_Init
      00FF973BH   CODE     ---       Motor_Left_pi_control
      00FF9663H   CODE     ---       Motor_Right_pi_control
      00FFB1B6H   CODE     ---       Motor_Update
      00FFA2AFH   CODE     ---       Motor_Update_Smooth
      00FFB4CAH   CODE     ---       MotorL_SetSpeed
      00FFB507H   CODE     ---       MotorR_SetSpeed
*DEL*:00000000H   CODE     ---       Normal_PID
      00010790H   XDATA    ---       Num
*DEL*:00000000H   CODE     ---       OLED_Clear
*DEL*:00000000H   CODE     ---       OLED_ColorTurn
*DEL*:00000000H   CODE     ---       OLED_DisplayTurn
*DEL*:00000000H   CODE     ---       OLED_Init
*DEL*:00000000H   CODE     ---       oled_pow
*DEL*:00000000H   CODE     ---       OLED_Set_Pos
*DEL*:00000000H   CODE     ---       OLED_ShowChar
*DEL*:00000000H   CODE     ---       OLED_ShowChinese
*DEL*:00000000H   CODE     ---       OLED_ShowNum
*DEL*:00000000H   CODE     ---       OLED_ShowString
*DEL*:00000000H   CODE     ---       OLED_WR_Byte
*SFR* 000000D0H.2 DATA     BIT       OV
*SFR* 000000D0H.0 DATA     BIT       P
*SFR* 00000080H   DATA     BYTE      P0
*SFR* 00000094H   DATA     BYTE      P0M0
*SFR* 00000093H   DATA     BYTE      P0M1
*SFR* 00000090H   DATA     BYTE      P1
*SFR* 00000092H   DATA     BYTE      P1M0
*SFR* 00000091H   DATA     BYTE      P1M1
*SFR* 000000A0H   DATA     BYTE      P2
*SFR* 000000A0H.0 DATA     BIT       P20
*SFR* 000000A0H.1 DATA     BIT       P21
*SFR* 000000A0H.2 DATA     BIT       P22
*SFR* 00000096H   DATA     BYTE      P2M0
*SFR* 00000095H   DATA     BYTE      P2M1
*SFR* 000000B0H   DATA     BYTE      P3
*SFR* 000000B2H   DATA     BYTE      P3M0
*SFR* 000000B1H   DATA     BYTE      P3M1
*SFR* 000000C0H   DATA     BYTE      P4
*SFR* 000000C0H.0 DATA     BIT       P40
*SFR* 000000C0H.1 DATA     BIT       P41
*SFR* 000000C0H.2 DATA     BIT       P42
*SFR* 000000C0H.3 DATA     BIT       P43
*SFR* 000000B4H   DATA     BYTE      P4M0
*SFR* 000000B3H   DATA     BYTE      P4M1
*SFR* 000000C8H   DATA     BYTE      P5
*SFR* 000000CAH   DATA     BYTE      P5M0
*SFR* 000000C9H   DATA     BYTE      P5M1
*SFR* 000000E8H   DATA     BYTE      P6
*SFR* 000000CCH   DATA     BYTE      P6M0
*SFR* 000000CBH   DATA     BYTE      P6M1
*SFR* 000000F8H   DATA     BYTE      P7
*SFR* 000000E2H   DATA     BYTE      P7M0
*SFR* 000000E1H   DATA     BYTE      P7M1
*SFR* 000000A2H   DATA     BYTE      P_SW1
*SFR* 000000BAH   DATA     BYTE      P_SW2
*SFR* 000000BBH   DATA     BYTE      P_SW3
*SFR* 000000BFH   DATA     BYTE      P_SW4
      00010000H   XDATA    ---       Page
      00010A0CH   XDATA    ---       Page0_children
      00010A1AH   XDATA    ---       Page1_children
L251 LINKER/LOCATER V4.66.93.0                                                        10/23/2025  22:33:42  PAGE 32


      00010A2AH   XDATA    ---       Page2_children
      00010A38H   XDATA    ---       Page3_children
      00010A46H   XDATA    ---       Page4_children
      00010A54H   XDATA    ---       Page5_children
*SFR* 00000087H   DATA     BYTE      PCON
      00FF76DFH   CODE     ---       PID_Update
      0001078CH   XDATA    ---       Pin
      00FF9F6CH   CODE     ---       pit_handler1
      00FF7D72H   CODE     ---       pit_init
*DEL*:00000000H   CODE     ---       pow?_
*SFR* 000000B8H.6 DATA     BIT       PPC
      000112C5H   XDATA    INT       Press_time
      00FF2678H   CODE     NEAR LAB  printf
      00FFB48CH   CODE     ---       Protect
      00010FDAH   XDATA    BYTE      Protect_flag
*SFR* 000000B8H.4 DATA     BIT       PS
*SFR* 000000D0H   DATA     BYTE      PSW
*SFR* 000000D1H   DATA     BYTE      PSW1
*SFR* 000000B8H.1 DATA     BIT       PT0
*SFR* 000000B8H.3 DATA     BIT       PT1
*SFR* 000000B8H.5 DATA     BIT       PT2
      00FFB7E8H   CODE     ---       putchar
      00FFD5B6H   HCONST   ---       PWM_ARR_ADDR
      00FFD5BEH   HCONST   ---       PWM_CCER_ADDR
      00FFD5CEH   HCONST   ---       PWM_CCMR_ADDR
      00FFD596H   HCONST   ---       PWM_CCR_ADDR
      00FF5A33H   CODE     ---       pwm_init
      00FFD58EH   HCONST   ---       PWM_PSCR_ADDR
      00FF8481H   CODE     ---       pwm_set_duty
*DEL*:00000000H   CODE     ---       pwm_set_freq
      00FFB5EEH   CODE     ---       PWM_Test
*SFR* 000000B8H.0 DATA     BIT       PX0
*SFR* 000000B8H.2 DATA     BIT       PX1
      000111A6H   XDATA    ---       raw_adc_data
*SFR* 00000098H.2 DATA     BIT       RB8
*SFR* 000000CBH   DATA     BYTE      RCAP2H
*SFR* 000000CAH   DATA     BYTE      RCAP2L
*SFR* 000000C8H.5 DATA     BIT       RCLK
*SFR* 000000B0H.7 DATA     BIT       RD
      00FFA970H   CODE     ---       Refesh_arrow
*SFR* 00000098H.4 DATA     BIT       REN
*SFR* 00000098H.0 DATA     BIT       RI
      0001127CH   XDATA    FLOAT     Right_Speed
      000111E8H   XDATA    BYTE      Road_Stat
*SFR* 000000D0H.3 DATA     BIT       RS0
*SFR* 000000D0H.4 DATA     BIT       RS1
*SFR* 000000FFH   DATA     BYTE      RSTCFG
*SFR* 000000B0H.0 DATA     BIT       RXD
*SFR* 0000009BH   DATA     BYTE      S2BUF
*SFR* 0000009AH   DATA     BYTE      S2CON
*SFR* 0000009AH.1 DATA     BIT       S2TI
*SFR* 000000ACH   DATA     BYTE      S3CON
*SFR* 000000FDH   DATA     BYTE      S4CON
*SFR* 000000A9H   DATA     BYTE      SADDR
*SFR* 000000B9H   DATA     BYTE      SADEN
      0001129CH   XDATA    BYTE      Save_Flag
*SFR* 00000099H   DATA     BYTE      SBUF
*SFR* 00000098H   DATA     BYTE      SCON
*DEL*:00000000H   CODE     ---       seekfree_assistant_camera_boundary_config
*DEL*:00000000H   CODE     ---       seekfree_assistant_camera_data_send
*DEL*:00000000H   CODE     ---       seekfree_assistant_camera_dot_send
*DEL*:00000000H   CODE     ---       seekfree_assistant_camera_information_config
*DEL*:00000000H   CODE     ---       seekfree_assistant_camera_send
*DEL*:00000000H   CODE     ---       seekfree_assistant_data_analysis
*DEL*:00000000H   CODE     ---       seekfree_assistant_init
L251 LINKER/LOCATER V4.66.93.0                                                        10/23/2025  22:33:42  PAGE 33


*DEL*:00000000H   CODE     ---       seekfree_assistant_interface_init
      00010E3CH   XDATA    ---       seekfree_assistant_oscilloscope_data
*DEL*:00000000H   CODE     ---       seekfree_assistant_oscilloscope_send
      00010E7FH   XDATA    ---       seekfree_assistant_parameter
      00010E77H   XDATA    ---       seekfree_assistant_parameter_update_flag
      0001130CH   XDATA    ---       seekfree_assistant_receive_callback
      0001130EH   XDATA    ---       seekfree_assistant_transfer_callback
      00FFB7F8H   CODE     ---       Ser_Servo_Duty
      00FFB02BH   CODE     ---       Serve_Test
      00FF9EC0H   CODE     ---       Servo_Control
      00010FDDH   XDATA    BYTE      Servo_Flag
      00FF0046H   CODE     ---       Servo_Init
      00010FAAH   XDATA    ---       servo_pid
      00FFA50DH   CODE     ---       Servo_turn_pid
*DEL*:00000000H   CODE     ---       set_gps_type
      00FFB770H   CODE     ---       Set_Sevo
      00010FD8H   XDATA    INT       Set_T
*DEL*:00000000H   CODE     ---       set_tof_type
*DEL*:00000000H   CODE     ---       set_wireless_type
      000111E6H   XDATA    WORD      Short_Time
      00FFB7C6H   CODE     ---       show_all_menu
      00FFAB69H   CODE     ---       Show_bujin
      00011291H   XDATA    BYTE      Show_image_mode
      00FF4E35H   CODE     ---       Show_pararm
      00FFB651H   CODE     ---       show_test_info
      00FF2839H   CODE     ---       sin?_
      000111F3H   XDATA    WORD      SLOW_Time
*SFR* 00000098H.7 DATA     BIT       SM0
*SFR* 00000098H.6 DATA     BIT       SM1
*SFR* 00000098H.5 DATA     BIT       SM2
      00FFB5B6H   CODE     ---       soft_iic_delay
*DEL*:00000000H   CODE     ---       soft_iic_init
*DEL*:00000000H   CODE     ---       soft_iic_read_16bit
*DEL*:00000000H   CODE     ---       soft_iic_read_16bit_array
*DEL*:00000000H   CODE     ---       soft_iic_read_16bit_register
*DEL*:00000000H   CODE     ---       soft_iic_read_16bit_registers
*DEL*:00000000H   CODE     ---       soft_iic_read_8bit
*DEL*:00000000H   CODE     ---       soft_iic_read_8bit_array
*DEL*:00000000H   CODE     ---       soft_iic_read_8bit_register
*DEL*:00000000H   CODE     ---       soft_iic_read_8bit_registers
      00FF9CA9H   CODE     ---       soft_iic_read_data
*DEL*:00000000H   CODE     ---       soft_iic_sccb_read_register
*DEL*:00000000H   CODE     ---       soft_iic_sccb_write_register
      00FFABE0H   CODE     ---       soft_iic_send_ack
      00FFA5A1H   CODE     ---       soft_iic_send_data
      00FFAFD4H   CODE     ---       soft_iic_start
      00FFADFFH   CODE     ---       soft_iic_stop
*DEL*:00000000H   CODE     ---       soft_iic_transfer_16bit_array
*DEL*:00000000H   CODE     ---       soft_iic_transfer_8bit_array
      00FFAAF0H   CODE     ---       soft_iic_wait_ack
*DEL*:00000000H   CODE     ---       soft_iic_write_16bit
*DEL*:00000000H   CODE     ---       soft_iic_write_16bit_array
*DEL*:00000000H   CODE     ---       soft_iic_write_16bit_register
*DEL*:00000000H   CODE     ---       soft_iic_write_16bit_registers
*DEL*:00000000H   CODE     ---       soft_iic_write_8bit
*DEL*:00000000H   CODE     ---       soft_iic_write_8bit_array
*DEL*:00000000H   CODE     ---       soft_iic_write_8bit_register
*DEL*:00000000H   CODE     ---       soft_iic_write_8bit_registers
*DEL*:00000000H   CODE     ---       soft_spi_delay
*DEL*:00000000H   CODE     ---       soft_spi_init
*DEL*:00000000H   CODE     ---       soft_spi_read_16bit
*DEL*:00000000H   CODE     ---       soft_spi_read_16bit_array
*DEL*:00000000H   CODE     ---       soft_spi_read_16bit_register
*DEL*:00000000H   CODE     ---       soft_spi_read_16bit_registers
*DEL*:00000000H   CODE     ---       soft_spi_read_8bit
L251 LINKER/LOCATER V4.66.93.0                                                        10/23/2025  22:33:42  PAGE 34


*DEL*:00000000H   CODE     ---       soft_spi_read_8bit_array
*DEL*:00000000H   CODE     ---       soft_spi_read_8bit_register
*DEL*:00000000H   CODE     ---       soft_spi_read_8bit_registers
*DEL*:00000000H   CODE     ---       soft_spi_transfer_16bit
*DEL*:00000000H   CODE     ---       soft_spi_transfer_8bit
*DEL*:00000000H   CODE     ---       soft_spi_write_16bit
*DEL*:00000000H   CODE     ---       soft_spi_write_16bit_array
*DEL*:00000000H   CODE     ---       soft_spi_write_16bit_register
*DEL*:00000000H   CODE     ---       soft_spi_write_16bit_registers
*DEL*:00000000H   CODE     ---       soft_spi_write_8bit
*DEL*:00000000H   CODE     ---       soft_spi_write_8bit_array
*DEL*:00000000H   CODE     ---       soft_spi_write_8bit_register
*DEL*:00000000H   CODE     ---       soft_spi_write_8bit_registers
*SFR* 00000081H   DATA     BYTE      SP
*SFR* 000000CEH   DATA     BYTE      SPCTL
*SFR* 000000CFH   DATA     BYTE      SPDAT
      00FFB57DH   CODE     ---       Speed_Control
      00FFB6DAH   CODE     ---       speed_control_ring
      00FF8784H   CODE     ---       Speed_diff
      00010FD6H   XDATA    INT       Speed_Mode
      000112FDH   XDATA    BYTE      speed_update_flag
*SFR* 000000BEH   DATA     BYTE      SPH
      00FF5F43H   CODE     ---       spi_init
*DEL*:00000000H   CODE     ---       spi_read_16bit
*DEL*:00000000H   CODE     ---       spi_read_16bit_array
*DEL*:00000000H   CODE     ---       spi_read_16bit_register
*DEL*:00000000H   CODE     ---       spi_read_16bit_registers
*DEL*:00000000H   CODE     ---       spi_read_8bit
*DEL*:00000000H   CODE     ---       spi_read_8bit_array
*DEL*:00000000H   CODE     ---       spi_read_8bit_register
*DEL*:00000000H   CODE     ---       spi_read_8bit_registers
*DEL*:00000000H   CODE     ---       spi_read_dat
*DEL*:00000000H   CODE     ---       spi_transfer_16bit
*DEL*:00000000H   CODE     ---       spi_transfer_8bit
      00FFB751H   CODE     ---       spi_write_16bit
*DEL*:00000000H   CODE     ---       spi_write_16bit_array
*DEL*:00000000H   CODE     ---       spi_write_16bit_register
*DEL*:00000000H   CODE     ---       spi_write_16bit_registers
      00FF0003H   CODE     ---       spi_write_8bit
*DEL*:00000000H   CODE     ---       spi_write_8bit_array
*DEL*:00000000H   CODE     ---       spi_write_8bit_register
*DEL*:00000000H   CODE     ---       spi_write_8bit_registers
      00FFB314H   CODE     ---       spi_write_dat
      00FF26A4H   CODE     NEAR LAB  sprintf
*SFR* 000000CDH   DATA     BYTE      SPSTAT
      00FF26CAH   CODE     ---       sqrt?_
      00011298H   XDATA    CHAR      Start_Show_Row
      000112C2H   XDATA    BYTE      State
      00FF6BB2H   CODE     ---       State_of_road
*DEL*:00000000H   CODE     ---       strchr?_
*DEL*:00000000H   CODE     ---       strlen?_
*DEL*:00000000H   CODE     ---       strncmp?_
*DEL*:00000000H   CODE     ---       strncpy?_
*DEL*:00000000H   CODE     ---       Svero_Update_Smooth
      00011304H   XDATA    LONG      system_clock
      00FFAEC3H   CODE     ---       system_delay_init
      00FFACC5H   CODE     ---       system_delay_ms
*DEL*:00000000H   CODE     ---       system_delay_us
      000112F9H   XDATA    INT       T
*SFR* 000000B0H.4 DATA     BIT       T0
*SFR* 000000B0H.5 DATA     BIT       T1
*SFR* 00000090H.0 DATA     BIT       T2
*SFR* 000000C8H   DATA     BYTE      T2CON
*SFR* 00000090H.1 DATA     BIT       T2EX
*SFR* 000000D6H   DATA     BYTE      T2H
L251 LINKER/LOCATER V4.66.93.0                                                        10/23/2025  22:33:42  PAGE 35


*SFR* 000000D7H   DATA     BYTE      T2L
*SFR* 000000C9H   DATA     BYTE      T2MOD
      00010F72H   XDATA    INT       T3
*SFR* 000000D4H   DATA     BYTE      T3H
*SFR* 000000D5H   DATA     BYTE      T3L
      000112F7H   XDATA    INT       T4
*SFR* 000000D2H   DATA     BYTE      T4H
*SFR* 000000D3H   DATA     BYTE      T4L
*SFR* 000000DDH   DATA     BYTE      T4T3M
      00FF286EH   CODE     ---       TAN?_
*SFR* 00000098H.3 DATA     BIT       TB8
*SFR* 000000C8H.4 DATA     BIT       TCLK
*SFR* 00000088H   DATA     BYTE      TCON
*SFR* 00000088H.5 DATA     BIT       TF0
*SFR* 00000088H.7 DATA     BIT       TF1
*SFR* 000000C8H.7 DATA     BIT       TF2
      000112E9H   XDATA    WORD      tft180_bgcolor
      00FFAD98H   CODE     ---       tft180_clear
      000112EBH   XDATA    INT       tft180_display_dir
*DEL*:00000000H   CODE     ---       tft180_draw_point
      00FF6ED3H   CODE     ---       tft180_init
      000112E7H   XDATA    WORD      tft180_pencolor
      00FF000EH   CODE     ---       tft180_set_color
      00FFB705H   CODE     ---       tft180_set_dir
      00FF93C9H   CODE     ---       tft180_show_char
      00FF811DH   CODE     ---       tft180_show_float
      00FF8C98H   CODE     ---       tft180_show_int16
*DEL*:00000000H   CODE     ---       tft180_show_int32
*DEL*:00000000H   CODE     ---       tft180_show_int8
      00FFA016H   CODE     ---       tft180_show_string
*DEL*:00000000H   CODE     ---       tft180_show_uint16
*DEL*:00000000H   CODE     ---       tft180_show_uint8
*DEL*:00000000H   CODE     ---       tft180_show_wave
      000112EDH   XDATA    BYTE      tft180_x_max
      000112EEH   XDATA    BYTE      tft180_y_max
*SFR* 0000008CH   DATA     BYTE      TH0
*SFR* 0000008DH   DATA     BYTE      TH1
*SFR* 000000CDH   DATA     BYTE      TH2
*SFR* 00000098H.1 DATA     BIT       TI
      00011219H   XDATA    ---       tim0_irq_handler
      0001120FH   XDATA    ---       tim11_irq_handler
      0001121DH   XDATA    ---       tim1_irq_handler
      00011221H   XDATA    ---       tim2_irq_handler
      00011225H   XDATA    ---       tim3_irq_handler
      00011229H   XDATA    ---       tim4_irq_handler
      000112C8H   XDATA    WORD      Time_dou
      00FFB0D3H   CODE     ---       timer_funciton_check
*SFR* 0000008AH   DATA     BYTE      TL0
*SFR* 0000008BH   DATA     BYTE      TL1
*SFR* 000000CCH   DATA     BYTE      TL2
      00FFB356H   CODE     ---       TM0_IRQHandler
      00FFB16BH   CODE     ---       TM11_IRQHandler
      00FFB394H   CODE     ---       TM1_IRQHandler
      00FFB3D2H   CODE     ---       TM2_IRQHandler
      00FFB410H   CODE     ---       TM3_IRQHandler
      00FFB44EH   CODE     ---       TM4_IRQHandler
*SFR* 00000089H   DATA     BYTE      TMOD
      000112DFH   XDATA    ---       tof_module_exti_handler
      000112E3H   XDATA    INT       tof_type
*SFR* 00000088H.4 DATA     BIT       TR0
*SFR* 00000088H.6 DATA     BIT       TR1
*SFR* 000000C8H.2 DATA     BIT       TR2
      000112C3H   XDATA    INT       Trigg_time
*DEL*:00000000H   CODE     ---       tsl1401_collect_pit_handler
      00010A63H   XDATA    ---       tsl1401_data
L251 LINKER/LOCATER V4.66.93.0                                                        10/23/2025  22:33:42  PAGE 36


      00010A62H   XDATA    BYTE      tsl1401_finish_flag
*DEL*:00000000H   CODE     ---       tsl1401_init
*DEL*:00000000H   CODE     ---       tsl1401_send_data
      00FF9B34H   CODE     ---       Turn_mode
      00FF7F4DH   CODE     ---       Turn_mode_Init
      000111EFH   XDATA    INT       turn_Value
*SFR* 000000B0H.1 DATA     BIT       TXD
      00011211H   XDATA    ---       uart1_irq_handler
      00011213H   XDATA    ---       uart2_irq_handler
      00011215H   XDATA    ---       uart3_irq_handler
      00011217H   XDATA    ---       uart4_irq_handler
      00FF88D6H   CODE     ---       uart_dma_init
      00FFB11FH   CODE     ---       uart_funciton_check
      00FF7917H   CODE     ---       uart_init
      00FFAE61H   CODE     ---       uart_query_byte
*DEL*:00000000H   CODE     ---       uart_read_byte
      000112B2H   XDATA    ---       uart_rx_buff
      00FFB247H   CODE     ---       uart_rx_interrupt
      00FFA632H   CODE     ---       uart_rx_start_buff
      00FF9206H   CODE     ---       uart_write_buffer
      00FFB7A0H   CODE     ---       uart_write_byte
*DEL*:00000000H   CODE     ---       uart_write_string
      00FFA6C2H   CODE     ---       unification
*SFR* 000000F4H   DATA     BYTE      USBCON
      000111E9H   XDATA    INT       Wait_Time
*SFR* 000000C1H   DATA     BYTE      WDT_CONTR
*SFR* 000000A6H   DATA     BYTE      WDTRST
      000112E1H   XDATA    INT       wireless_type
*DEL*:00000000H   CODE     ---       wireless_uart_callback
*DEL*:00000000H   CODE     ---       wireless_uart_init
*DEL*:00000000H   CODE     ---       wireless_uart_read_buffer
*DEL*:00000000H   CODE     ---       wireless_uart_send_buffer
*DEL*:00000000H   CODE     ---       wireless_uart_send_byte
*DEL*:00000000H   CODE     ---       wireless_uart_send_string
*SFR* 000000ABH   DATA     BYTE      WKTCH
*SFR* 000000B0H.6 DATA     BIT       WR
*SFR* 000000E9H   DATA     BYTE      WTST
      00FF4618H   CODE     ---       zf_sprintf



SYMBOL TABLE OF MODULE:  .\out_file\SEEKFREE (ai8051u_isr)

      VALUE       REP       CLASS    TYPE      SYMBOL NAME
      ====================================================
      ---         MODULE    ---      ---       ai8051u_isr

      00FF019BH   BLOCK     CODE     NEAR LAB  LVL=0
      00FF019BH   LINE      CODE     ---       #3
      ---         BLOCKEND  ---      ---       LVL=0

      00FF01ABH   BLOCK     CODE     NEAR LAB  LVL=0
      00FF01ABH   LINE      CODE     ---       #6
      ---         BLOCKEND  ---      ---       LVL=0

      00FF01BBH   BLOCK     CODE     NEAR LAB  LVL=0
      00FF01BBH   LINE      CODE     ---       #9
      ---         BLOCKEND  ---      ---       LVL=0

      00FF01CBH   BLOCK     CODE     NEAR LAB  LVL=0
      00FF01CBH   LINE      CODE     ---       #12
      ---         BLOCKEND  ---      ---       LVL=0

      00FF021BH   BLOCK     CODE     NEAR LAB  LVL=0
      00FF021BH   LINE      CODE     ---       #15
L251 LINKER/LOCATER V4.66.93.0                                                        10/23/2025  22:33:42  PAGE 37


      ---         BLOCKEND  ---      ---       LVL=0

      ---         MODULE    ---      ---       zf_common_clock
      00FF94A9H   PUBLIC    CODE     ---       clock_init
      00011304H   PUBLIC    XDATA    LONG      system_clock
      00000094H   SFRSYM    DATA     BYTE      P0M0
      000000D0H   SFRSYM    DATA     BYTE      PSW
      0000009DH   SFRSYM    DATA     BYTE      IRCBAND
      00000097H   SFRSYM    DATA     BYTE      AUXR2
      000000EAH   SFRSYM    DATA     BYTE      CKCON
      000000EFH   SFRSYM    DATA     BYTE      AUXINTIF
      000000FDH   SFRSYM    DATA     BYTE      S4CON
      000000ACH   SFRSYM    DATA     BYTE      S3CON
      0000009AH   SFRSYM    DATA     BYTE      S2CON
      000000B7H   SFRSYM    DATA     BYTE      IPH
      000000CDH   SFRSYM    DATA     BYTE      SPSTAT
      000000DDH   SFRSYM    DATA     BYTE      T4T3M
      000000C1H   SFRSYM    DATA     BYTE      WDT_CONTR
      000000E9H   SFRSYM    DATA     BYTE      WTST
      000000DFH   SFRSYM    DATA     BYTE      IP3
      000000F4H   SFRSYM    DATA     BYTE      USBCON
      000000B5H   SFRSYM    DATA     BYTE      IP2
      000000FFH   SFRSYM    DATA     BYTE      RSTCFG
      000000C7H   SFRSYM    DATA     BYTE      IAP_CONTR
      0000008EH   SFRSYM    DATA     BYTE      AUXR
      000000AFH   SFRSYM    DATA     BYTE      IE2
      00000088H   SFRSYM    DATA     BYTE      TCON
      00000089H   SFRSYM    DATA     BYTE      TMOD
      00000098H   SFRSYM    DATA     BYTE      SCON
      00000087H   SFRSYM    DATA     BYTE      PCON
      000000BCH   SFRSYM    DATA     BYTE      ADC_CONTR
      000000D1H   SFRSYM    DATA     BYTE      PSW1
      000000E7H   SFRSYM    DATA     BYTE      CMPCR2
      000000E6H   SFRSYM    DATA     BYTE      CMPCR1
      000000DEH   SFRSYM    DATA     BYTE      ADCCFG
      000000B8H   SFRSYM    DATA     BYTE      IP
      0000008FH   SFRSYM    DATA     BYTE      INTCLKO
      000000EEH   SFRSYM    DATA     BYTE      IP3H
      000000B6H   SFRSYM    DATA     BYTE      IP2H
      000000BFH   SFRSYM    DATA     BYTE      P_SW4
      000000A8H   SFRSYM    DATA     BYTE      IE
      000000BBH   SFRSYM    DATA     BYTE      P_SW3
      000000BAH   SFRSYM    DATA     BYTE      P_SW2
      000000A2H   SFRSYM    DATA     BYTE      P_SW1
      000000CEH   SFRSYM    DATA     BYTE      SPCTL
      000000F8H   SFRSYM    DATA     BYTE      P7
      000000E1H   SFRSYM    DATA     BYTE      P7M1
      000000E8H   SFRSYM    DATA     BYTE      P6
      000000C8H   SFRSYM    DATA     BYTE      P5
      000000CBH   SFRSYM    DATA     BYTE      P6M1
      000000E2H   SFRSYM    DATA     BYTE      P7M0
      000000C0H   SFRSYM    DATA     BYTE      P4
      000000C9H   SFRSYM    DATA     BYTE      P5M1
      000000CCH   SFRSYM    DATA     BYTE      P6M0
      000000ABH   SFRSYM    DATA     BYTE      WKTCH
      000000B0H   SFRSYM    DATA     BYTE      P3
      000000B3H   SFRSYM    DATA     BYTE      P4M1
      000000CAH   SFRSYM    DATA     BYTE      P5M0
      000000A0H   SFRSYM    DATA     BYTE      P2
      000000B1H   SFRSYM    DATA     BYTE      P3M1
      000000B4H   SFRSYM    DATA     BYTE      P4M0
      00000090H   SFRSYM    DATA     BYTE      P1
      00000095H   SFRSYM    DATA     BYTE      P2M1
      000000B2H   SFRSYM    DATA     BYTE      P3M0
      00000080H   SFRSYM    DATA     BYTE      P0
L251 LINKER/LOCATER V4.66.93.0                                                        10/23/2025  22:33:42  PAGE 38


      00000091H   SFRSYM    DATA     BYTE      P1M1
      00000096H   SFRSYM    DATA     BYTE      P2M0
      00000092H   SFRSYM    DATA     BYTE      P1M0
      00000093H   SFRSYM    DATA     BYTE      P0M1

      00FF94A9H   BLOCK     CODE     ---       LVL=0
      DR12        REGSYM    ---      DWORD     clock
      00FF94A9H   LINE      CODE     ---       #47
      00FF94ADH   LINE      CODE     ---       #49
      00FF94B0H   LINE      CODE     ---       #50
      00FF94B3H   LINE      CODE     ---       #51
      00FF94B6H   LINE      CODE     ---       #54
      00FF94C3H   LINE      CODE     ---       #55
      00FF94D1H   LINE      CODE     ---       #56
      00FF94DDH   LINE      CODE     ---       #57
      00FF94EAH   LINE      CODE     ---       #58
      00FF94F6H   LINE      CODE     ---       #60
      00FF94F9H   LINE      CODE     ---       #63
      00FF9503H   LINE      CODE     ---       #65
      00FF9506H   LINE      CODE     ---       #66
      00FF9509H   LINE      CODE     ---       #67
      00FF950CH   LINE      CODE     ---       #68
      00FF950FH   LINE      CODE     ---       #69
      00FF9512H   LINE      CODE     ---       #70
      00FF9515H   LINE      CODE     ---       #71
      00FF9518H   LINE      CODE     ---       #72
      00FF951BH   LINE      CODE     ---       #73
      00FF951EH   LINE      CODE     ---       #74
      00FF9521H   LINE      CODE     ---       #75
      00FF9524H   LINE      CODE     ---       #76
      00FF9527H   LINE      CODE     ---       #77
      00FF952AH   LINE      CODE     ---       #78
      00FF952DH   LINE      CODE     ---       #79
      00FF9530H   LINE      CODE     ---       #80
      00FF9533H   LINE      CODE     ---       #83
      00FF9536H   LINE      CODE     ---       #84
      00FF9539H   LINE      CODE     ---       #85
      00FF953CH   LINE      CODE     ---       #86
      00FF953FH   LINE      CODE     ---       #87
      00FF9542H   LINE      CODE     ---       #88
      00FF9545H   LINE      CODE     ---       #89
      00FF9548H   LINE      CODE     ---       #90
      00FF954BH   LINE      CODE     ---       #91
      00FF954EH   LINE      CODE     ---       #92
      00FF9551H   LINE      CODE     ---       #93
      00FF955DH   LINE      CODE     ---       #94
      00FF9569H   LINE      CODE     ---       #96
      00FF9575H   LINE      CODE     ---       #97
      00FF9581H   LINE      CODE     ---       #100
      00FF9584H   LINE      CODE     ---       #101
      ---         BLOCKEND  ---      ---       LVL=0

      ---         MODULE    ---      ---       zf_common_debug
      00FFB544H   PUBLIC    CODE     ---       debug_interrupr_handler
      00FFA34DH   PUBLIC    CODE     ---       debug_init
      00FFAD30H   PUBLIC    CODE     ---       debug_assert_handler
      00FFB7E8H   PUBLIC    CODE     ---       putchar
      0001109FH   PUBLIC    XDATA    ---       debug_uart_buffer
      000110E0H   PUBLIC    XDATA    ---       debug_uart_fifo
      000000D0H   SFRSYM    DATA     BYTE      PSW
      0000009DH   SFRSYM    DATA     BYTE      IRCBAND
      00000097H   SFRSYM    DATA     BYTE      AUXR2
      000000EFH   SFRSYM    DATA     BYTE      AUXINTIF
      000000FDH   SFRSYM    DATA     BYTE      S4CON
      000000ACH   SFRSYM    DATA     BYTE      S3CON
L251 LINKER/LOCATER V4.66.93.0                                                        10/23/2025  22:33:42  PAGE 39


      0000009AH   SFRSYM    DATA     BYTE      S2CON
      000000B7H   SFRSYM    DATA     BYTE      IPH
      000000CDH   SFRSYM    DATA     BYTE      SPSTAT
      000000DDH   SFRSYM    DATA     BYTE      T4T3M
      000000C1H   SFRSYM    DATA     BYTE      WDT_CONTR
      000000DFH   SFRSYM    DATA     BYTE      IP3
      000000F4H   SFRSYM    DATA     BYTE      USBCON
      000000B5H   SFRSYM    DATA     BYTE      IP2
      000000FFH   SFRSYM    DATA     BYTE      RSTCFG
      000000C7H   SFRSYM    DATA     BYTE      IAP_CONTR
      0000008EH   SFRSYM    DATA     BYTE      AUXR
      000000AFH   SFRSYM    DATA     BYTE      IE2
      00000088H   SFRSYM    DATA     BYTE      TCON
      00000089H   SFRSYM    DATA     BYTE      TMOD
      00000098H   SFRSYM    DATA     BYTE      SCON
      00000087H   SFRSYM    DATA     BYTE      PCON
      000000BCH   SFRSYM    DATA     BYTE      ADC_CONTR
      000000D1H   SFRSYM    DATA     BYTE      PSW1
      000000E7H   SFRSYM    DATA     BYTE      CMPCR2
      000000E6H   SFRSYM    DATA     BYTE      CMPCR1
      000000DEH   SFRSYM    DATA     BYTE      ADCCFG
      000000B8H   SFRSYM    DATA     BYTE      IP
      0000008FH   SFRSYM    DATA     BYTE      INTCLKO
      000000EEH   SFRSYM    DATA     BYTE      IP3H
      000000B6H   SFRSYM    DATA     BYTE      IP2H
      000000BFH   SFRSYM    DATA     BYTE      P_SW4
      000000A8H   SFRSYM    DATA     BYTE      IE
      000000BBH   SFRSYM    DATA     BYTE      P_SW3
      000000BAH   SFRSYM    DATA     BYTE      P_SW2
      000000A2H   SFRSYM    DATA     BYTE      P_SW1
      000000CEH   SFRSYM    DATA     BYTE      SPCTL
      000000F8H   SFRSYM    DATA     BYTE      P7
      000000E8H   SFRSYM    DATA     BYTE      P6
      000000C8H   SFRSYM    DATA     BYTE      P5
      000000C0H   SFRSYM    DATA     BYTE      P4
      000000ABH   SFRSYM    DATA     BYTE      WKTCH
      000000B0H   SFRSYM    DATA     BYTE      P3
      000000A0H   SFRSYM    DATA     BYTE      P2
      00000090H   SFRSYM    DATA     BYTE      P1
      00000080H   SFRSYM    DATA     BYTE      P0
      00FFD981H   SYMBOL    HCONST   ---       ?tpl?0001
      000110DFH   SYMBOL    XDATA    BYTE      zf_debug_assert_enable
      000110F7H   SYMBOL    XDATA    BYTE      zf_debug_init_flag
      DR12        REGSYM    ---      DWORD     len
      REG=2       REGSYM    ---      ---       buff

      00FFB544H   BLOCK     CODE     ---       LVL=0
      0001100AH   SYMBOL    XDATA    BYTE      dat
      00FFB544H   LINE      CODE     ---       #281
      00FFB548H   LINE      CODE     ---       #283
      00FFB54EH   LINE      CODE     ---       #285
      00FFB55BH   LINE      CODE     ---       #286
      00FFB57CH   LINE      CODE     ---       #287
      ---         BLOCKEND  ---      ---       LVL=0

      00FFB7E8H   BLOCK     CODE     ---       LVL=0
      R15         REGSYM    ---      CHAR      c
      00FFB7E8H   LINE      CODE     ---       #303
      00FFB7ECH   LINE      CODE     ---       #305
      00FFB7F3H   LINE      CODE     ---       #307
      00FFB7F5H   LINE      CODE     ---       #308
      ---         BLOCKEND  ---      ---       LVL=0

      00FFAD30H   BLOCK     CODE     ---       LVL=0
      00011049H   SYMBOL    XDATA    BYTE      pass
L251 LINKER/LOCATER V4.66.93.0                                                        10/23/2025  22:33:42  PAGE 40


      REG=3       REGSYM    ---      ---       file
      0001104AH   SYMBOL    XDATA    INT       line
      00FFAD3EH   BLOCK     CODE     NEAR LAB  LVL=1
      0001104CH   SYMBOL    XDATA    ---       log_str
      ---         BLOCKEND  ---      ---       LVL=1
      00FFAD30H   LINE      CODE     ---       #346
      00FFAD3EH   LINE      CODE     ---       #347
      00FFAD3EH   LINE      CODE     ---       #348
      00FFAD53H   LINE      CODE     ---       #350
      00FFAD55H   LINE      CODE     ---       #366
      00FFAD88H   LINE      CODE     ---       #369
      00FFAD8FH   LINE      CODE     ---       #370
      00FFAD95H   LINE      CODE     ---       #371
      ---         BLOCKEND  ---      ---       LVL=0

      00FFA34DH   BLOCK     CODE     ---       LVL=0
      00FFA34FH   BLOCK     CODE     NEAR LAB  LVL=1
      R15         REGSYM    ---      BYTE      uartx
      ---         BLOCKEND  ---      ---       LVL=1
      00FFA34DH   LINE      CODE     ---       #453
      00FFA34FH   LINE      CODE     ---       #454
      00FFA34FH   LINE      CODE     ---       #455
      00FFA351H   LINE      CODE     ---       #461
      00FFA36CH   LINE      CODE     ---       #468
      00FFA399H   LINE      CODE     ---       #469
      00FFA3A0H   LINE      CODE     ---       #472
      00FFA3A4H   LINE      CODE     ---       #474
      00FFA3AEH   LINE      CODE     ---       #475
      00FFA3B0H   LINE      CODE     ---       #476
      00FFA3B5H   LINE      CODE     ---       #478
      00FFA3BFH   LINE      CODE     ---       #479
      00FFA3C1H   LINE      CODE     ---       #480
      00FFA3C6H   LINE      CODE     ---       #482
      00FFA3D0H   LINE      CODE     ---       #483
      00FFA3D2H   LINE      CODE     ---       #484
      00FFA3D7H   LINE      CODE     ---       #486
      00FFA3E1H   LINE      CODE     ---       #487
      ---         BLOCKEND  ---      ---       LVL=0

      ---         MODULE    ---      ---       zf_common_fifo
      00FF63E8H   PUBLIC    CODE     ---       fifo_write_buffer
      00FFA9F3H   PUBLIC    CODE     ---       fifo_init
      00011007H   PUBLIC    XDATA    BYTE      ?fifo_write_buffer?BYTE
      00011006H   PUBLIC    XDATA    BYTE      ?fifo_init?BYTE
      000000D0H   SFRSYM    DATA     BYTE      PSW
      0000009DH   SFRSYM    DATA     BYTE      IRCBAND
      00000097H   SFRSYM    DATA     BYTE      AUXR2
      000000EFH   SFRSYM    DATA     BYTE      AUXINTIF
      000000FDH   SFRSYM    DATA     BYTE      S4CON
      000000ACH   SFRSYM    DATA     BYTE      S3CON
      0000009AH   SFRSYM    DATA     BYTE      S2CON
      000000B7H   SFRSYM    DATA     BYTE      IPH
      000000CDH   SFRSYM    DATA     BYTE      SPSTAT
      000000DDH   SFRSYM    DATA     BYTE      T4T3M
      000000C1H   SFRSYM    DATA     BYTE      WDT_CONTR
      000000DFH   SFRSYM    DATA     BYTE      IP3
      000000F4H   SFRSYM    DATA     BYTE      USBCON
      000000B5H   SFRSYM    DATA     BYTE      IP2
      000000FFH   SFRSYM    DATA     BYTE      RSTCFG
      000000C7H   SFRSYM    DATA     BYTE      IAP_CONTR
      0000008EH   SFRSYM    DATA     BYTE      AUXR
      000000AFH   SFRSYM    DATA     BYTE      IE2
      00000088H   SFRSYM    DATA     BYTE      TCON
      00000089H   SFRSYM    DATA     BYTE      TMOD
      00000098H   SFRSYM    DATA     BYTE      SCON
L251 LINKER/LOCATER V4.66.93.0                                                        10/23/2025  22:33:42  PAGE 41


      00000087H   SFRSYM    DATA     BYTE      PCON
      000000BCH   SFRSYM    DATA     BYTE      ADC_CONTR
      000000D1H   SFRSYM    DATA     BYTE      PSW1
      000000E7H   SFRSYM    DATA     BYTE      CMPCR2
      000000E6H   SFRSYM    DATA     BYTE      CMPCR1
      000000DEH   SFRSYM    DATA     BYTE      ADCCFG
      000000B8H   SFRSYM    DATA     BYTE      IP
      0000008FH   SFRSYM    DATA     BYTE      INTCLKO
      000000EEH   SFRSYM    DATA     BYTE      IP3H
      000000B6H   SFRSYM    DATA     BYTE      IP2H
      000000BFH   SFRSYM    DATA     BYTE      P_SW4
      000000A8H   SFRSYM    DATA     BYTE      IE
      000000BBH   SFRSYM    DATA     BYTE      P_SW3
      000000BAH   SFRSYM    DATA     BYTE      P_SW2
      000000A2H   SFRSYM    DATA     BYTE      P_SW1
      000000CEH   SFRSYM    DATA     BYTE      SPCTL
      000000F8H   SFRSYM    DATA     BYTE      P7
      000000E8H   SFRSYM    DATA     BYTE      P6
      000000C8H   SFRSYM    DATA     BYTE      P5
      000000C0H   SFRSYM    DATA     BYTE      P4
      000000ABH   SFRSYM    DATA     BYTE      WKTCH
      000000B0H   SFRSYM    DATA     BYTE      P3
      000000A0H   SFRSYM    DATA     BYTE      P2
      00000090H   SFRSYM    DATA     BYTE      P1
      00000080H   SFRSYM    DATA     BYTE      P0
      00FF01CEH   SYMBOL    CODE     ---       fifo_head_offset

      00FF01CEH   BLOCK     CODE     ---       LVL=0
      REG=7       REGSYM    ---      ---       fifo
      DR24        REGSYM    ---      DWORD     offset
      00FF01CEH   LINE      CODE     ---       #51
      00FF01D2H   LINE      CODE     ---       #53
      00FF01E6H   LINE      CODE     ---       #55
      00FF01E8H   LINE      CODE     ---       #57
      00FF0206H   LINE      CODE     ---       #58
      00FF021AH   LINE      CODE     ---       #59
      ---         BLOCKEND  ---      ---       LVL=0
      REG=7       REGSYM    ---      ---       fifo
      DR24        REGSYM    ---      DWORD     offset
      REG=3       REGSYM    ---      ---       fifo
      REG=3       REGSYM    ---      ---       fifo

      00FF63E8H   BLOCK     CODE     ---       LVL=0
      REG=3       REGSYM    ---      ---       fifo
      0001100BH   SYMBOL    XDATA    ---       dat
      0001100FH   SYMBOL    XDATA    DWORD     length
      00FF63F6H   BLOCK     CODE     NEAR LAB  LVL=1
      00011013H   SYMBOL    XDATA    INT       return_state
      00011015H   SYMBOL    XDATA    DWORD     temp_length
      ---         BLOCKEND  ---      ---       LVL=1
      00FF63E8H   LINE      CODE     ---       #178
      00FF63F6H   LINE      CODE     ---       #179
      00FF63F6H   LINE      CODE     ---       #180
      00FF63FEH   LINE      CODE     ---       #181
      00FF640AH   LINE      CODE     ---       #182
      00FF6424H   LINE      CODE     ---       #184
      00FF6424H   LINE      CODE     ---       #186
      00FF6432H   LINE      CODE     ---       #188
      00FF643CH   LINE      CODE     ---       #189
      00FF643FH   LINE      CODE     ---       #190
      00FF643FH   LINE      CODE     ---       #191
      00FF644AH   LINE      CODE     ---       #193
      00FF6454H   LINE      CODE     ---       #194
      00FF6457H   LINE      CODE     ---       #195
      00FF6457H   LINE      CODE     ---       #196
L251 LINKER/LOCATER V4.66.93.0                                                        10/23/2025  22:33:42  PAGE 42


      00FF645FH   LINE      CODE     ---       #198
      00FF6478H   LINE      CODE     ---       #200
      00FF6494H   LINE      CODE     ---       #202
      00FF64AFH   LINE      CODE     ---       #204
      00FF64C8H   LINE      CODE     ---       #206
      00FF64C8H   LINE      CODE     ---       #208
      00FF64F5H   LINE      CODE     ---       #211
      00FF6504H   LINE      CODE     ---       #212
      00FF654FH   LINE      CODE     ---       #216
      00FF656AH   LINE      CODE     ---       #217
      00FF656DH   LINE      CODE     ---       #218
      00FF656DH   LINE      CODE     ---       #220
      00FF659EH   LINE      CODE     ---       #223
      00FF65ADH   LINE      CODE     ---       #224
      00FF65FAH   LINE      CODE     ---       #228
      00FF6615H   LINE      CODE     ---       #229
      00FF6618H   LINE      CODE     ---       #230
      00FF6618H   LINE      CODE     ---       #232
      00FF664DH   LINE      CODE     ---       #235
      00FF665CH   LINE      CODE     ---       #236
      00FF66AFH   LINE      CODE     ---       #240
      00FF66CAH   LINE      CODE     ---       #241
      00FF66CAH   LINE      CODE     ---       #242
      00FF66CAH   LINE      CODE     ---       #243
      00FF66CDH   LINE      CODE     ---       #246
      00FF66E3H   LINE      CODE     ---       #248
      00FF66E3H   LINE      CODE     ---       #250
      00FF6710H   LINE      CODE     ---       #253
      00FF671FH   LINE      CODE     ---       #254
      00FF6722H   LINE      CODE     ---       #255
      00FF6722H   LINE      CODE     ---       #257
      00FF6753H   LINE      CODE     ---       #260
      00FF6762H   LINE      CODE     ---       #261
      00FF6764H   LINE      CODE     ---       #262
      00FF6764H   LINE      CODE     ---       #264
      00FF6799H   LINE      CODE     ---       #267
      00FF67A8H   LINE      CODE     ---       #268
      00FF67A8H   LINE      CODE     ---       #269
      00FF67A8H   LINE      CODE     ---       #270
      00FF67A8H   LINE      CODE     ---       #272
      00FF67C8H   LINE      CODE     ---       #273
      00FF67CAH   LINE      CODE     ---       #276
      00FF67D4H   LINE      CODE     ---       #277
      00FF67D4H   LINE      CODE     ---       #278
      00FF67DCH   LINE      CODE     ---       #279
      00FF67DCH   LINE      CODE     ---       #281
      00FF67E2H   LINE      CODE     ---       #282
      ---         BLOCKEND  ---      ---       LVL=0
      REG=3       REGSYM    ---      ---       fifo

      00FFA9F3H   BLOCK     CODE     ---       LVL=0
      REG=3       REGSYM    ---      ---       fifo
      0001100AH   SYMBOL    XDATA    INT       type
      0001100CH   SYMBOL    XDATA    ---       buffer_addr
      00011010H   SYMBOL    XDATA    DWORD     siz
      00FFA9F3H   LINE      CODE     ---       #549
      00FFA9FDH   LINE      CODE     ---       #551
      00FFAA17H   LINE      CODE     ---       #552
      00FFAA17H   LINE      CODE     ---       #554
      00FFAA29H   LINE      CODE     ---       #555
      00FFAA2DH   LINE      CODE     ---       #556
      00FFAA37H   LINE      CODE     ---       #557
      00FFAA41H   LINE      CODE     ---       #558
      00FFAA4BH   LINE      CODE     ---       #559
      00FFAA5DH   LINE      CODE     ---       #560
L251 LINKER/LOCATER V4.66.93.0                                                        10/23/2025  22:33:42  PAGE 43


      00FFAA6FH   LINE      CODE     ---       #561
      00FFAA6FH   LINE      CODE     ---       #562
      00FFAA71H   LINE      CODE     ---       #563
      ---         BLOCKEND  ---      ---       LVL=0

      ---         MODULE    ---      ---       zf_common_font
      00FF5443H   PUBLIC    CODE     ---       ascii_font_8x16
      000000D0H   SFRSYM    DATA     BYTE      PSW
      0000009DH   SFRSYM    DATA     BYTE      IRCBAND
      00000097H   SFRSYM    DATA     BYTE      AUXR2
      000000EFH   SFRSYM    DATA     BYTE      AUXINTIF
      000000FDH   SFRSYM    DATA     BYTE      S4CON
      000000ACH   SFRSYM    DATA     BYTE      S3CON
      0000009AH   SFRSYM    DATA     BYTE      S2CON
      000000B7H   SFRSYM    DATA     BYTE      IPH
      000000CDH   SFRSYM    DATA     BYTE      SPSTAT
      000000DDH   SFRSYM    DATA     BYTE      T4T3M
      000000C1H   SFRSYM    DATA     BYTE      WDT_CONTR
      000000DFH   SFRSYM    DATA     BYTE      IP3
      000000F4H   SFRSYM    DATA     BYTE      USBCON
      000000B5H   SFRSYM    DATA     BYTE      IP2
      000000FFH   SFRSYM    DATA     BYTE      RSTCFG
      000000C7H   SFRSYM    DATA     BYTE      IAP_CONTR
      0000008EH   SFRSYM    DATA     BYTE      AUXR
      000000AFH   SFRSYM    DATA     BYTE      IE2
      00000088H   SFRSYM    DATA     BYTE      TCON
      00000089H   SFRSYM    DATA     BYTE      TMOD
      00000098H   SFRSYM    DATA     BYTE      SCON
      00000087H   SFRSYM    DATA     BYTE      PCON
      000000BCH   SFRSYM    DATA     BYTE      ADC_CONTR
      000000D1H   SFRSYM    DATA     BYTE      PSW1
      000000E7H   SFRSYM    DATA     BYTE      CMPCR2
      000000E6H   SFRSYM    DATA     BYTE      CMPCR1
      000000DEH   SFRSYM    DATA     BYTE      ADCCFG
      000000B8H   SFRSYM    DATA     BYTE      IP
      0000008FH   SFRSYM    DATA     BYTE      INTCLKO
      000000EEH   SFRSYM    DATA     BYTE      IP3H
      000000B6H   SFRSYM    DATA     BYTE      IP2H
      000000BFH   SFRSYM    DATA     BYTE      P_SW4
      000000A8H   SFRSYM    DATA     BYTE      IE
      000000BBH   SFRSYM    DATA     BYTE      P_SW3
      000000BAH   SFRSYM    DATA     BYTE      P_SW2
      000000A2H   SFRSYM    DATA     BYTE      P_SW1
      000000CEH   SFRSYM    DATA     BYTE      SPCTL
      000000F8H   SFRSYM    DATA     BYTE      P7
      000000E8H   SFRSYM    DATA     BYTE      P6
      000000C8H   SFRSYM    DATA     BYTE      P5
      000000C0H   SFRSYM    DATA     BYTE      P4
      000000ABH   SFRSYM    DATA     BYTE      WKTCH
      000000B0H   SFRSYM    DATA     BYTE      P3
      000000A0H   SFRSYM    DATA     BYTE      P2
      00000090H   SFRSYM    DATA     BYTE      P1
      00000080H   SFRSYM    DATA     BYTE      P0

      ---         MODULE    ---      ---       zf_common_function
      00FF4618H   PUBLIC    CODE     ---       zf_sprintf
      00011063H   PUBLIC    XDATA    BYTE      ?zf_sprintf?BYTE
      000000D0H   SFRSYM    DATA     BYTE      PSW
      0000009DH   SFRSYM    DATA     BYTE      IRCBAND
      00000097H   SFRSYM    DATA     BYTE      AUXR2
      000000EFH   SFRSYM    DATA     BYTE      AUXINTIF
      000000FDH   SFRSYM    DATA     BYTE      S4CON
      000000ACH   SFRSYM    DATA     BYTE      S3CON
      0000009AH   SFRSYM    DATA     BYTE      S2CON
      000000B7H   SFRSYM    DATA     BYTE      IPH
L251 LINKER/LOCATER V4.66.93.0                                                        10/23/2025  22:33:42  PAGE 44


      000000CDH   SFRSYM    DATA     BYTE      SPSTAT
      000000DDH   SFRSYM    DATA     BYTE      T4T3M
      000000C1H   SFRSYM    DATA     BYTE      WDT_CONTR
      000000DFH   SFRSYM    DATA     BYTE      IP3
      000000F4H   SFRSYM    DATA     BYTE      USBCON
      000000B5H   SFRSYM    DATA     BYTE      IP2
      000000FFH   SFRSYM    DATA     BYTE      RSTCFG
      000000C7H   SFRSYM    DATA     BYTE      IAP_CONTR
      0000008EH   SFRSYM    DATA     BYTE      AUXR
      000000AFH   SFRSYM    DATA     BYTE      IE2
      00000088H   SFRSYM    DATA     BYTE      TCON
      00000089H   SFRSYM    DATA     BYTE      TMOD
      00000098H   SFRSYM    DATA     BYTE      SCON
      00000087H   SFRSYM    DATA     BYTE      PCON
      000000BCH   SFRSYM    DATA     BYTE      ADC_CONTR
      000000D1H   SFRSYM    DATA     BYTE      PSW1
      000000E7H   SFRSYM    DATA     BYTE      CMPCR2
      000000E6H   SFRSYM    DATA     BYTE      CMPCR1
      000000DEH   SFRSYM    DATA     BYTE      ADCCFG
      000000B8H   SFRSYM    DATA     BYTE      IP
      0000008FH   SFRSYM    DATA     BYTE      INTCLKO
      000000EEH   SFRSYM    DATA     BYTE      IP3H
      000000B6H   SFRSYM    DATA     BYTE      IP2H
      000000BFH   SFRSYM    DATA     BYTE      P_SW4
      000000A8H   SFRSYM    DATA     BYTE      IE
      000000BBH   SFRSYM    DATA     BYTE      P_SW3
      000000BAH   SFRSYM    DATA     BYTE      P_SW2
      000000A2H   SFRSYM    DATA     BYTE      P_SW1
      000000CEH   SFRSYM    DATA     BYTE      SPCTL
      000000F8H   SFRSYM    DATA     BYTE      P7
      000000E8H   SFRSYM    DATA     BYTE      P6
      000000C8H   SFRSYM    DATA     BYTE      P5
      000000C0H   SFRSYM    DATA     BYTE      P4
      000000ABH   SFRSYM    DATA     BYTE      WKTCH
      000000B0H   SFRSYM    DATA     BYTE      P3
      000000A0H   SFRSYM    DATA     BYTE      P2
      00000090H   SFRSYM    DATA     BYTE      P1
      00000080H   SFRSYM    DATA     BYTE      P0
      00FFD6A5H   SYMBOL    HCONST   ---       ?tpl?0001
      00FFA479H   SYMBOL    CODE     ---       number_conversion_ascii
      00FFB1FFH   SYMBOL    CODE     ---       printf_reverse_order
      DR8         REGSYM    ---      DWORD     num1
      DR28        REGSYM    ---      DWORD     num2
      REG=3       REGSYM    ---      ---       str
      REG=3       REGSYM    ---      ---       str
      REG=3       REGSYM    ---      ---       str
      REG=3       REGSYM    ---      ---       str
      REG=3       REGSYM    ---      ---       str
      REG=3       REGSYM    ---      ---       str
      REG=3       REGSYM    ---      ---       str
      REG=3       REGSYM    ---      ---       str
      REG=3       REGSYM    ---      ---       str
      REG=3       REGSYM    ---      ---       str

      00FFA479H   BLOCK     CODE     ---       LVL=0
      DR24        REGSYM    ---      DWORD     dat
      REG=7       REGSYM    ---      ---       p
      R10         REGSYM    ---      BYTE      neg_type
      0001109EH   SYMBOL    XDATA    BYTE      radix
      00FFA481H   BLOCK     CODE     NEAR LAB  LVL=1
      DR20        REGSYM    ---      LONG      neg_dat
      DR24        REGSYM    ---      DWORD     pos_dat
      R14         REGSYM    ---      BYTE      temp_data
      R15         REGSYM    ---      BYTE      valid_num
      ---         BLOCKEND  ---      ---       LVL=1
L251 LINKER/LOCATER V4.66.93.0                                                        10/23/2025  22:33:42  PAGE 45


      00FFA479H   LINE      CODE     ---       #647
      00FFA481H   LINE      CODE     ---       #648
      00FFA481H   LINE      CODE     ---       #651
      00FFA483H   LINE      CODE     ---       #652
      00FFA485H   LINE      CODE     ---       #654
      00FFA489H   LINE      CODE     ---       #656
      00FFA48BH   LINE      CODE     ---       #657
      00FFA491H   LINE      CODE     ---       #659
      00FFA49BH   LINE      CODE     ---       #660
      00FFA49BH   LINE      CODE     ---       #661
      00FFA49BH   LINE      CODE     ---       #663
      00FFA4B1H   LINE      CODE     ---       #664
      00FFA4C0H   LINE      CODE     ---       #665
      00FFA4C2H   LINE      CODE     ---       #667
      00FFA4C8H   LINE      CODE     ---       #669
      00FFA4C8H   LINE      CODE     ---       #670
      00FFA4C8H   LINE      CODE     ---       #671
      00FFA4CAH   LINE      CODE     ---       #672
      00FFA4CCH   LINE      CODE     ---       #673
      00FFA4CEH   LINE      CODE     ---       #676
      00FFA4CEH   LINE      CODE     ---       #677
      00FFA4CEH   LINE      CODE     ---       #679
      00FFA4DDH   LINE      CODE     ---       #680
      00FFA4E2H   LINE      CODE     ---       #682
      00FFA4E5H   LINE      CODE     ---       #683
      00FFA4E7H   LINE      CODE     ---       #686
      00FFA4EAH   LINE      CODE     ---       #687
      00FFA4EAH   LINE      CODE     ---       #689
      00FFA4EDH   LINE      CODE     ---       #691
      00FFA4FCH   LINE      CODE     ---       #692
      00FFA4FEH   LINE      CODE     ---       #694
      00FFA504H   LINE      CODE     ---       #696
      00FFA504H   LINE      CODE     ---       #697
      00FFA504H   LINE      CODE     ---       #698
      00FFA506H   LINE      CODE     ---       #699
      00FFA508H   LINE      CODE     ---       #700
      00FFA508H   LINE      CODE     ---       #701
      00FFA50AH   LINE      CODE     ---       #702
      ---         BLOCKEND  ---      ---       LVL=0

      00FFB1FFH   BLOCK     CODE     ---       LVL=0
      REG=7       REGSYM    ---      ---       d_buff
      DR24        REGSYM    ---      DWORD     len
      00FFB203H   BLOCK     CODE     NEAR LAB  LVL=1
      DR4         REGSYM    ---      DWORD     i
      R3          REGSYM    ---      CHAR      temp_data
      ---         BLOCKEND  ---      ---       LVL=1
      00FFB1FFH   LINE      CODE     ---       #712
      00FFB203H   LINE      CODE     ---       #713
      00FFB203H   LINE      CODE     ---       #716
      00FFB207H   LINE      CODE     ---       #718
      00FFB214H   LINE      CODE     ---       #719
      00FFB22CH   LINE      CODE     ---       #720
      00FFB235H   LINE      CODE     ---       #721
      00FFB246H   LINE      CODE     ---       #722
      ---         BLOCKEND  ---      ---       LVL=0

      00FF4618H   BLOCK     CODE     ---       LVL=0
      REG=3       REGSYM    ---      ---       buff
      00011067H   SYMBOL    XDATA    ---       format
      00FF4626H   BLOCK     CODE     NEAR LAB  LVL=1
      0001106BH   SYMBOL    XDATA    DWORD     buff_len
      0001106FH   SYMBOL    XDATA    ---       arg
      00FF4647H   BLOCK     CODE     NEAR LAB  LVL=2
      00011073H   SYMBOL    XDATA    CHAR      ret
L251 LINKER/LOCATER V4.66.93.0                                                        10/23/2025  22:33:42  PAGE 46


      00FF4788H   BLOCK     CODE     NEAR LAB  LVL=3
      00011074H   SYMBOL    XDATA    CHAR      ch
      ---         BLOCKEND  ---      ---       LVL=3
      00FF47CFH   BLOCK     CODE     NEAR LAB  LVL=3
      00011074H   SYMBOL    XDATA    ---       vstr
      00011095H   SYMBOL    XDATA    LONG      ival
      00011099H   SYMBOL    XDATA    BYTE      vlen
      ---         BLOCKEND  ---      ---       LVL=3
      00FF489AH   BLOCK     CODE     NEAR LAB  LVL=3
      00011074H   SYMBOL    XDATA    ---       vstr
      00011095H   SYMBOL    XDATA    DOUBLE    ival
      0001109DH   SYMBOL    XDATA    BYTE      vlen
      ---         BLOCKEND  ---      ---       LVL=3
      00FF4AE5H   BLOCK     CODE     NEAR LAB  LVL=3
      00011074H   SYMBOL    XDATA    ---       vstr
      00011095H   SYMBOL    XDATA    DWORD     ival
      00011099H   SYMBOL    XDATA    BYTE      vlen
      ---         BLOCKEND  ---      ---       LVL=3
      00FF4B83H   BLOCK     CODE     NEAR LAB  LVL=3
      00011074H   SYMBOL    XDATA    ---       vstr
      00011095H   SYMBOL    XDATA    DWORD     ival
      00011099H   SYMBOL    XDATA    BYTE      vlen
      ---         BLOCKEND  ---      ---       LVL=3
      00FF4C21H   BLOCK     CODE     NEAR LAB  LVL=3
      00011074H   SYMBOL    XDATA    ---       vstr
      00011095H   SYMBOL    XDATA    DWORD     ival
      00011099H   SYMBOL    XDATA    BYTE      vlen
      ---         BLOCKEND  ---      ---       LVL=3
      00FF4CBFH   BLOCK     CODE     NEAR LAB  LVL=3
      00011074H   SYMBOL    XDATA    ---       pc
      ---         BLOCKEND  ---      ---       LVL=3
      00FF4D39H   BLOCK     CODE     NEAR LAB  LVL=3
      00011074H   SYMBOL    XDATA    ---       vstr
      00011095H   SYMBOL    XDATA    DWORD     ival
      ---         BLOCKEND  ---      ---       LVL=3
      ---         BLOCKEND  ---      ---       LVL=2
      ---         BLOCKEND  ---      ---       LVL=1
      00FF4618H   LINE      CODE     ---       #733
      00FF4626H   LINE      CODE     ---       #734
      00FF4626H   LINE      CODE     ---       #735
      00FF4632H   LINE      CODE     ---       #737
      00FF4644H   LINE      CODE     ---       #739
      00FF4647H   LINE      CODE     ---       #740
      00FF4647H   LINE      CODE     ---       #741
      00FF4658H   LINE      CODE     ---       #742
      00FF4664H   LINE      CODE     ---       #744
      00FF4788H   LINE      CODE     ---       #746
      00FF4788H   LINE      CODE     ---       #749
      00FF4788H   LINE      CODE     ---       #751
      00FF4788H   LINE      CODE     ---       #752
      00FF4788H   LINE      CODE     ---       #753
      00FF47B0H   LINE      CODE     ---       #754
      00FF47B7H   LINE      CODE     ---       #755
      00FF47B9H   LINE      CODE     ---       #756
      00FF47CCH   LINE      CODE     ---       #758
      00FF47CFH   LINE      CODE     ---       #760
      00FF47CFH   LINE      CODE     ---       #761
      00FF47CFH   LINE      CODE     ---       #762
      00FF47CFH   LINE      CODE     ---       #764
      00FF47FDH   LINE      CODE     ---       #765
      00FF481EH   LINE      CODE     ---       #767
      00FF482EH   LINE      CODE     ---       #769
      00FF4844H   LINE      CODE     ---       #770
      00FF484AH   LINE      CODE     ---       #771
      00FF484AH   LINE      CODE     ---       #772
L251 LINKER/LOCATER V4.66.93.0                                                        10/23/2025  22:33:42  PAGE 47


      00FF485DH   LINE      CODE     ---       #773
      00FF4874H   LINE      CODE     ---       #774
      00FF487CH   LINE      CODE     ---       #775
      00FF4897H   LINE      CODE     ---       #777
      00FF489AH   LINE      CODE     ---       #779
      00FF489AH   LINE      CODE     ---       #780
      00FF489AH   LINE      CODE     ---       #781
      00FF489AH   LINE      CODE     ---       #783
      00FF48DAH   LINE      CODE     ---       #784
      00FF4906H   LINE      CODE     ---       #786
      00FF4921H   LINE      CODE     ---       #788
      00FF4937H   LINE      CODE     ---       #789
      00FF493DH   LINE      CODE     ---       #790
      00FF493DH   LINE      CODE     ---       #791
      00FF4950H   LINE      CODE     ---       #792
      00FF4967H   LINE      CODE     ---       #793
      00FF496FH   LINE      CODE     ---       #794
      00FF498AH   LINE      CODE     ---       #796
      00FF49DCH   LINE      CODE     ---       #797
      00FF49FAH   LINE      CODE     ---       #799
      00FF4A26H   LINE      CODE     ---       #800
      00FF4A28H   LINE      CODE     ---       #803
      00FF4A4CH   LINE      CODE     ---       #804
      00FF4A52H   LINE      CODE     ---       #805
      00FF4A52H   LINE      CODE     ---       #807
      00FF4A54H   LINE      CODE     ---       #809
      00FF4A6AH   LINE      CODE     ---       #810
      00FF4A70H   LINE      CODE     ---       #811
      00FF4A79H   LINE      CODE     ---       #813
      00FF4A8FH   LINE      CODE     ---       #814
      00FF4A95H   LINE      CODE     ---       #816
      00FF4AA8H   LINE      CODE     ---       #817
      00FF4ABFH   LINE      CODE     ---       #818
      00FF4AC7H   LINE      CODE     ---       #819
      00FF4AE2H   LINE      CODE     ---       #821
      00FF4AE5H   LINE      CODE     ---       #823
      00FF4AE5H   LINE      CODE     ---       #824
      00FF4AE5H   LINE      CODE     ---       #826
      00FF4B13H   LINE      CODE     ---       #827
      00FF4B33H   LINE      CODE     ---       #829
      00FF4B46H   LINE      CODE     ---       #830
      00FF4B5DH   LINE      CODE     ---       #831
      00FF4B65H   LINE      CODE     ---       #832
      00FF4B80H   LINE      CODE     ---       #834
      00FF4B83H   LINE      CODE     ---       #836
      00FF4B83H   LINE      CODE     ---       #837
      00FF4B83H   LINE      CODE     ---       #839
      00FF4BB1H   LINE      CODE     ---       #840
      00FF4BD1H   LINE      CODE     ---       #842
      00FF4BE4H   LINE      CODE     ---       #843
      00FF4BFBH   LINE      CODE     ---       #844
      00FF4C03H   LINE      CODE     ---       #845
      00FF4C1EH   LINE      CODE     ---       #848
      00FF4C21H   LINE      CODE     ---       #850
      00FF4C21H   LINE      CODE     ---       #851
      00FF4C21H   LINE      CODE     ---       #852
      00FF4C21H   LINE      CODE     ---       #854
      00FF4C4FH   LINE      CODE     ---       #855
      00FF4C6FH   LINE      CODE     ---       #857
      00FF4C82H   LINE      CODE     ---       #858
      00FF4C99H   LINE      CODE     ---       #859
      00FF4CA1H   LINE      CODE     ---       #860
      00FF4CBCH   LINE      CODE     ---       #862
      00FF4CBFH   LINE      CODE     ---       #864
      00FF4CBFH   LINE      CODE     ---       #865
L251 LINKER/LOCATER V4.66.93.0                                                        10/23/2025  22:33:42  PAGE 48


      00FF4CBFH   LINE      CODE     ---       #866
      00FF4CEDH   LINE      CODE     ---       #867
      00FF4CEFH   LINE      CODE     ---       #869
      00FF4CFFH   LINE      CODE     ---       #870
      00FF4D01H   LINE      CODE     ---       #871
      00FF4D14H   LINE      CODE     ---       #872
      00FF4D27H   LINE      CODE     ---       #873
      00FF4D36H   LINE      CODE     ---       #875
      00FF4D39H   LINE      CODE     ---       #877
      00FF4D39H   LINE      CODE     ---       #878
      00FF4D39H   LINE      CODE     ---       #880
      00FF4D67H   LINE      CODE     ---       #882
      00FF4D83H   LINE      CODE     ---       #883
      00FF4D92H   LINE      CODE     ---       #884
      00FF4DA7H   LINE      CODE     ---       #885
      00FF4DABH   LINE      CODE     ---       #886
      00FF4DC0H   LINE      CODE     ---       #888
      00FF4DC2H   LINE      CODE     ---       #890
      00FF4DC2H   LINE      CODE     ---       #892
      00FF4DC7H   LINE      CODE     ---       #893
      00FF4DC9H   LINE      CODE     ---       #894
      00FF4DDCH   LINE      CODE     ---       #896
      00FF4DDEH   LINE      CODE     ---       #898
      00FF4DDEH   LINE      CODE     ---       #899
      00FF4DDEH   LINE      CODE     ---       #900
      00FF4DDEH   LINE      CODE     ---       #901
      00FF4DDEH   LINE      CODE     ---       #904
      00FF4DEEH   LINE      CODE     ---       #905
      00FF4DF0H   LINE      CODE     ---       #906
      00FF4E03H   LINE      CODE     ---       #907
      00FF4E03H   LINE      CODE     ---       #908
      00FF4E16H   LINE      CODE     ---       #909
      00FF4E28H   LINE      CODE     ---       #912
      00FF4E32H   LINE      CODE     ---       #913
      ---         BLOCKEND  ---      ---       LVL=0

      ---         MODULE    ---      ---       zf_common_typedef
      0001120FH   PUBLIC    XDATA    ---       tim11_irq_handler
      00011211H   PUBLIC    XDATA    ---       uart1_irq_handler
      00011213H   PUBLIC    XDATA    ---       uart2_irq_handler
      00011215H   PUBLIC    XDATA    ---       uart3_irq_handler
      00011217H   PUBLIC    XDATA    ---       uart4_irq_handler
      00011219H   PUBLIC    XDATA    ---       tim0_irq_handler
      0001121BH   PUBLIC    XDATA    ---       int0_irq_handler
      0001121DH   PUBLIC    XDATA    ---       tim1_irq_handler
      0001121FH   PUBLIC    XDATA    ---       int1_irq_handler
      00011221H   PUBLIC    XDATA    ---       tim2_irq_handler
      00011223H   PUBLIC    XDATA    ---       int2_irq_handler
      00011225H   PUBLIC    XDATA    ---       tim3_irq_handler
      00011227H   PUBLIC    XDATA    ---       int3_irq_handler
      00011229H   PUBLIC    XDATA    ---       tim4_irq_handler
      0001122BH   PUBLIC    XDATA    ---       int4_irq_handler
      000000D0H   SFRSYM    DATA     BYTE      PSW
      0000009DH   SFRSYM    DATA     BYTE      IRCBAND
      00000097H   SFRSYM    DATA     BYTE      AUXR2
      000000EFH   SFRSYM    DATA     BYTE      AUXINTIF
      000000FDH   SFRSYM    DATA     BYTE      S4CON
      000000ACH   SFRSYM    DATA     BYTE      S3CON
      0000009AH   SFRSYM    DATA     BYTE      S2CON
      000000B7H   SFRSYM    DATA     BYTE      IPH
      000000CDH   SFRSYM    DATA     BYTE      SPSTAT
      000000DDH   SFRSYM    DATA     BYTE      T4T3M
      000000C1H   SFRSYM    DATA     BYTE      WDT_CONTR
      000000DFH   SFRSYM    DATA     BYTE      IP3
      000000F4H   SFRSYM    DATA     BYTE      USBCON
L251 LINKER/LOCATER V4.66.93.0                                                        10/23/2025  22:33:42  PAGE 49


      000000B5H   SFRSYM    DATA     BYTE      IP2
      000000FFH   SFRSYM    DATA     BYTE      RSTCFG
      000000C7H   SFRSYM    DATA     BYTE      IAP_CONTR
      0000008EH   SFRSYM    DATA     BYTE      AUXR
      000000AFH   SFRSYM    DATA     BYTE      IE2
      00000088H   SFRSYM    DATA     BYTE      TCON
      00000089H   SFRSYM    DATA     BYTE      TMOD
      00000098H   SFRSYM    DATA     BYTE      SCON
      00000087H   SFRSYM    DATA     BYTE      PCON
      000000BCH   SFRSYM    DATA     BYTE      ADC_CONTR
      000000D1H   SFRSYM    DATA     BYTE      PSW1
      000000E7H   SFRSYM    DATA     BYTE      CMPCR2
      000000E6H   SFRSYM    DATA     BYTE      CMPCR1
      000000DEH   SFRSYM    DATA     BYTE      ADCCFG
      000000B8H   SFRSYM    DATA     BYTE      IP
      0000008FH   SFRSYM    DATA     BYTE      INTCLKO
      000000EEH   SFRSYM    DATA     BYTE      IP3H
      000000B6H   SFRSYM    DATA     BYTE      IP2H
      000000BFH   SFRSYM    DATA     BYTE      P_SW4
      000000A8H   SFRSYM    DATA     BYTE      IE
      000000BBH   SFRSYM    DATA     BYTE      P_SW3
      000000BAH   SFRSYM    DATA     BYTE      P_SW2
      000000A2H   SFRSYM    DATA     BYTE      P_SW1
      000000CEH   SFRSYM    DATA     BYTE      SPCTL
      000000F8H   SFRSYM    DATA     BYTE      P7
      000000E8H   SFRSYM    DATA     BYTE      P6
      000000C8H   SFRSYM    DATA     BYTE      P5
      000000C0H   SFRSYM    DATA     BYTE      P4
      000000ABH   SFRSYM    DATA     BYTE      WKTCH
      000000B0H   SFRSYM    DATA     BYTE      P3
      000000A0H   SFRSYM    DATA     BYTE      P2
      00000090H   SFRSYM    DATA     BYTE      P1
      00000080H   SFRSYM    DATA     BYTE      P0

      ---         MODULE    ---      ---       zf_common_interrupt
      00FF9BEFH   PUBLIC    CODE     ---       interrupt_set_priority
      00FF001EH   PUBLIC    CODE     ---       interrupt_global_enable
      000000D0H   SFRSYM    DATA     BYTE      PSW
      0000009DH   SFRSYM    DATA     BYTE      IRCBAND
      00000097H   SFRSYM    DATA     BYTE      AUXR2
      000000EFH   SFRSYM    DATA     BYTE      AUXINTIF
      000000FDH   SFRSYM    DATA     BYTE      S4CON
      000000ACH   SFRSYM    DATA     BYTE      S3CON
      0000009AH   SFRSYM    DATA     BYTE      S2CON
      000000B7H   SFRSYM    DATA     BYTE      IPH
      000000CDH   SFRSYM    DATA     BYTE      SPSTAT
      000000DDH   SFRSYM    DATA     BYTE      T4T3M
      000000C1H   SFRSYM    DATA     BYTE      WDT_CONTR
      000000DFH   SFRSYM    DATA     BYTE      IP3
      000000F4H   SFRSYM    DATA     BYTE      USBCON
      000000B5H   SFRSYM    DATA     BYTE      IP2
      000000FFH   SFRSYM    DATA     BYTE      RSTCFG
      000000C7H   SFRSYM    DATA     BYTE      IAP_CONTR
      0000008EH   SFRSYM    DATA     BYTE      AUXR
      000000AFH   SFRSYM    DATA     BYTE      IE2
      00000088H   SFRSYM    DATA     BYTE      TCON
      00000089H   SFRSYM    DATA     BYTE      TMOD
      00000098H   SFRSYM    DATA     BYTE      SCON
      00000087H   SFRSYM    DATA     BYTE      PCON
      000000BCH   SFRSYM    DATA     BYTE      ADC_CONTR
      000000D1H   SFRSYM    DATA     BYTE      PSW1
      000000E7H   SFRSYM    DATA     BYTE      CMPCR2
      000000E6H   SFRSYM    DATA     BYTE      CMPCR1
      000000DEH   SFRSYM    DATA     BYTE      ADCCFG
      000000B8H   SFRSYM    DATA     BYTE      IP
L251 LINKER/LOCATER V4.66.93.0                                                        10/23/2025  22:33:42  PAGE 50


      0000008FH   SFRSYM    DATA     BYTE      INTCLKO
      000000EEH   SFRSYM    DATA     BYTE      IP3H
      000000B6H   SFRSYM    DATA     BYTE      IP2H
      000000BFH   SFRSYM    DATA     BYTE      P_SW4
      000000A8H   SFRSYM    DATA     BYTE      IE
      000000BBH   SFRSYM    DATA     BYTE      P_SW3
      000000BAH   SFRSYM    DATA     BYTE      P_SW2
      000000A2H   SFRSYM    DATA     BYTE      P_SW1
      000000CEH   SFRSYM    DATA     BYTE      SPCTL
      000000F8H   SFRSYM    DATA     BYTE      P7
      000000A8H.7 SFRSYM    DATA     BIT       EA
      000000E8H   SFRSYM    DATA     BYTE      P6
      000000C8H   SFRSYM    DATA     BYTE      P5
      000000C0H   SFRSYM    DATA     BYTE      P4
      000000ABH   SFRSYM    DATA     BYTE      WKTCH
      000000B0H   SFRSYM    DATA     BYTE      P3
      000000A0H   SFRSYM    DATA     BYTE      P2
      00000090H   SFRSYM    DATA     BYTE      P1
      00000080H   SFRSYM    DATA     BYTE      P0

      00FF9BEFH   BLOCK     CODE     ---       LVL=0
      WR4         REGSYM    ---      INT       irqn
      R3          REGSYM    ---      BYTE      priority
      00FF9BEFH   LINE      CODE     ---       #48
      00FF9BF3H   LINE      CODE     ---       #50
      00FF9BFDH   LINE      CODE     ---       #52
      00FF9C11H   LINE      CODE     ---       #53
      00FF9C2AH   LINE      CODE     ---       #54
      00FF9C2CH   LINE      CODE     ---       #55
      00FF9C3CH   LINE      CODE     ---       #57
      00FF9C50H   LINE      CODE     ---       #58
      00FF9C69H   LINE      CODE     ---       #59
      00FF9C6BH   LINE      CODE     ---       #60
      00FF9C7BH   LINE      CODE     ---       #62
      00FF9C8FH   LINE      CODE     ---       #63
      00FF9CA8H   LINE      CODE     ---       #64
      ---         BLOCKEND  ---      ---       LVL=0

      00FF001EH   BLOCK     CODE     ---       LVL=0
      00FF001EH   LINE      CODE     ---       #88
      00FF001EH   LINE      CODE     ---       #90
      00FF0020H   LINE      CODE     ---       #91
      ---         BLOCKEND  ---      ---       LVL=0

      ---         MODULE    ---      ---       ?C_START
      00FF0000H   PUBLIC    CODE     ---       ?C?STARTUP
      00FF0000H   PUBLIC    CODE     ---       ?C_STARTUP
      000000D0H.6 SFRSYM    DATA     BIT       AC
      000000E0H   SFRSYM    DATA     BYTE      ACC
      000000F0H   SFRSYM    DATA     BYTE      B
      000000FAH   SFRSYM    DATA     BYTE      CCAP0H
      000000EAH   SFRSYM    DATA     BYTE      CCAP0L
      000000FBH   SFRSYM    DATA     BYTE      CCAP1H
      000000EBH   SFRSYM    DATA     BYTE      CCAP1L
      000000FCH   SFRSYM    DATA     BYTE      CCAP2H
      000000ECH   SFRSYM    DATA     BYTE      CCAP2L
      000000FDH   SFRSYM    DATA     BYTE      CCAP3H
      000000EDH   SFRSYM    DATA     BYTE      CCAP3L
      000000FEH   SFRSYM    DATA     BYTE      CCAP4H
      000000EEH   SFRSYM    DATA     BYTE      CCAP4L
      000000DAH   SFRSYM    DATA     BYTE      CCAPM0
      000000DBH   SFRSYM    DATA     BYTE      CCAPM1
      000000DCH   SFRSYM    DATA     BYTE      CCAPM2
      000000DDH   SFRSYM    DATA     BYTE      CCAPM3
      000000DEH   SFRSYM    DATA     BYTE      CCAPM4
L251 LINKER/LOCATER V4.66.93.0                                                        10/23/2025  22:33:42  PAGE 51


      000000D8H.0 SFRSYM    DATA     BIT       CCF0
      000000D8H.1 SFRSYM    DATA     BIT       CCF1
      000000D8H.2 SFRSYM    DATA     BIT       CCF2
      000000D8H.3 SFRSYM    DATA     BIT       CCF3
      000000D8H.4 SFRSYM    DATA     BIT       CCF4
      000000D8H   SFRSYM    DATA     BYTE      CCON
      00000090H.3 SFRSYM    DATA     BIT       CEX0
      00000090H.4 SFRSYM    DATA     BIT       CEX1
      00000090H.5 SFRSYM    DATA     BIT       CEX2
      00000090H.6 SFRSYM    DATA     BIT       CEX3
      00000090H.7 SFRSYM    DATA     BIT       CEX4
      000000D8H.7 SFRSYM    DATA     BIT       CF
      000000F9H   SFRSYM    DATA     BYTE      CH
      000000E9H   SFRSYM    DATA     BYTE      CL
      000000D9H   SFRSYM    DATA     BYTE      CMOD
      000000C8H.0 SFRSYM    DATA     BIT       CP_RL2
      000000D8H.6 SFRSYM    DATA     BIT       CR
      000000D0H.7 SFRSYM    DATA     BIT       CY
      000000C8H.1 SFRSYM    DATA     BIT       C_T2
      00000083H   SFRSYM    DATA     BYTE      DPH
      00000082H   SFRSYM    DATA     BYTE      DPL
      00000084H   SFRSYM    DATA     BYTE      DPXL
      000000A8H.7 SFRSYM    DATA     BIT       EA
      000000A8H.6 SFRSYM    DATA     BIT       EC
      00000090H.2 SFRSYM    DATA     BIT       ECI
      000000A8H.4 SFRSYM    DATA     BIT       ES
      000000A8H.1 SFRSYM    DATA     BIT       ET0
      000000A8H.3 SFRSYM    DATA     BIT       ET1
      000000A8H.5 SFRSYM    DATA     BIT       ET2
      000000A8H.0 SFRSYM    DATA     BIT       EX0
      000000A8H.2 SFRSYM    DATA     BIT       EX1
      000000C8H.3 SFRSYM    DATA     BIT       EXEN2
      000000C8H.6 SFRSYM    DATA     BIT       EXF2
      000000D0H.5 SFRSYM    DATA     BIT       F0
      00000098H.7 SFRSYM    DATA     BIT       FE
      000000A8H   SFRSYM    DATA     BYTE      IE0
      00000088H.1 SFRSYM    DATA     BIT       IE0_
      000000B1H   SFRSYM    DATA     BYTE      IE1
      00000088H.3 SFRSYM    DATA     BIT       IE1_
      000000B0H.2 SFRSYM    DATA     BIT       INT0
      000000B0H.3 SFRSYM    DATA     BIT       INT1
      000000B7H   SFRSYM    DATA     BYTE      IPH0
      000000B8H   SFRSYM    DATA     BYTE      IPL0
      00000088H.0 SFRSYM    DATA     BIT       IT0
      00000088H.2 SFRSYM    DATA     BIT       IT1
      000000D0H.2 SFRSYM    DATA     BIT       OV
      000000D0H.0 SFRSYM    DATA     BIT       P
      00000080H   SFRSYM    DATA     BYTE      P0
      00000090H   SFRSYM    DATA     BYTE      P1
      000000A0H   SFRSYM    DATA     BYTE      P2
      000000B0H   SFRSYM    DATA     BYTE      P3
      00000087H   SFRSYM    DATA     BYTE      PCON
      000000B8H.6 SFRSYM    DATA     BIT       PPC
      000000B8H.4 SFRSYM    DATA     BIT       PS
      000000D0H   SFRSYM    DATA     BYTE      PSW
      000000D1H   SFRSYM    DATA     BYTE      PSW1
      000000B8H.1 SFRSYM    DATA     BIT       PT0
      000000B8H.3 SFRSYM    DATA     BIT       PT1
      000000B8H.5 SFRSYM    DATA     BIT       PT2
      000000B8H.0 SFRSYM    DATA     BIT       PX0
      000000B8H.2 SFRSYM    DATA     BIT       PX1
      00000098H.2 SFRSYM    DATA     BIT       RB8
      000000CBH   SFRSYM    DATA     BYTE      RCAP2H
      000000CAH   SFRSYM    DATA     BYTE      RCAP2L
      000000C8H.5 SFRSYM    DATA     BIT       RCLK
L251 LINKER/LOCATER V4.66.93.0                                                        10/23/2025  22:33:42  PAGE 52


      000000B0H.7 SFRSYM    DATA     BIT       RD
      00000098H.4 SFRSYM    DATA     BIT       REN
      00000098H.0 SFRSYM    DATA     BIT       RI
      000000D0H.3 SFRSYM    DATA     BIT       RS0
      000000D0H.4 SFRSYM    DATA     BIT       RS1
      000000B0H.0 SFRSYM    DATA     BIT       RXD
      000000A9H   SFRSYM    DATA     BYTE      SADDR
      000000B9H   SFRSYM    DATA     BYTE      SADEN
      00000099H   SFRSYM    DATA     BYTE      SBUF
      00000098H   SFRSYM    DATA     BYTE      SCON
      00000098H.7 SFRSYM    DATA     BIT       SM0
      00000098H.6 SFRSYM    DATA     BIT       SM1
      00000098H.5 SFRSYM    DATA     BIT       SM2
      00000081H   SFRSYM    DATA     BYTE      SP
      000000BEH   SFRSYM    DATA     BYTE      SPH
      000000B0H.4 SFRSYM    DATA     BIT       T0
      000000B0H.5 SFRSYM    DATA     BIT       T1
      00000090H.0 SFRSYM    DATA     BIT       T2
      000000C8H   SFRSYM    DATA     BYTE      T2CON
      00000090H.1 SFRSYM    DATA     BIT       T2EX
      000000C9H   SFRSYM    DATA     BYTE      T2MOD
      00000098H.3 SFRSYM    DATA     BIT       TB8
      000000C8H.4 SFRSYM    DATA     BIT       TCLK
      00000088H   SFRSYM    DATA     BYTE      TCON
      00000088H.5 SFRSYM    DATA     BIT       TF0
      00000088H.7 SFRSYM    DATA     BIT       TF1
      000000C8H.7 SFRSYM    DATA     BIT       TF2
      0000008CH   SFRSYM    DATA     BYTE      TH0
      0000008DH   SFRSYM    DATA     BYTE      TH1
      000000CDH   SFRSYM    DATA     BYTE      TH2
      00000098H.1 SFRSYM    DATA     BIT       TI
      0000008AH   SFRSYM    DATA     BYTE      TL0
      0000008BH   SFRSYM    DATA     BYTE      TL1
      000000CCH   SFRSYM    DATA     BYTE      TL2
      00000089H   SFRSYM    DATA     BYTE      TMOD
      00000088H.4 SFRSYM    DATA     BIT       TR0
      00000088H.6 SFRSYM    DATA     BIT       TR1
      000000C8H.2 SFRSYM    DATA     BIT       TR2
      000000B0H.1 SFRSYM    DATA     BIT       TXD
      000000A6H   SFRSYM    DATA     BYTE      WDTRST
      000000B0H.6 SFRSYM    DATA     BIT       WR
      00000800H   SYMBOL    NUMBER   ---       EDATALEN
      00FFAF85H   SYMBOL    CODE     ---       EDATALOOP
      00000001H   SYMBOL    NUMBER   ---       EDF
      00000001H   SYMBOL    NUMBER   ---       EMAP
      00000000H   SYMBOL    NUMBER   ---       HDATALEN
      00010000H   SYMBOL    NUMBER   ---       HDATASTART
      00000000H   SYMBOL    NUMBER   ---       IBPSTACK
      00000100H   SYMBOL    NUMBER   ---       IBPSTACKTOP
      00000001H   SYMBOL    NUMBER   ---       INTR
      00000001H   SYMBOL    NUMBER   ---       PAGM
      00000003H   SYMBOL    NUMBER   ---       RDRG
      00000001H   SYMBOL    NUMBER   ---       SRCM
      00000700H   SYMBOL    NUMBER   ---       STACKSIZE
      00FFAF7DH   SYMBOL    CODE     ---       STARTUP1
      00000003H   SYMBOL    NUMBER   ---       WSA
      00000003H   SYMBOL    NUMBER   ---       WSB
      00000001H   SYMBOL    NUMBER   ---       XALE
      00000000H   SYMBOL    NUMBER   ---       XBPSTACK
      00010000H   SYMBOL    NUMBER   ---       XBPSTACKTOP
      00008000H   SYMBOL    NUMBER   ---       XDATALEN
      00FFAF94H   SYMBOL    CODE     ---       XDATALOOP
      00010000H   SYMBOL    NUMBER   ---       XDATASTART

      00FF0000H   BLOCK     CODE     NEAR LAB  LVL=0
L251 LINKER/LOCATER V4.66.93.0                                                        10/23/2025  22:33:42  PAGE 53


      00FF0000H   LINE      CODE     ---       #183
      ---         BLOCKEND  ---      ---       LVL=0

      00FFAF7DH   BLOCK     CODE     NEAR LAB  LVL=0
      00FFAF7DH   LINE      CODE     ---       #188
      00FFAF80H   LINE      CODE     ---       #191
      00FFAF84H   LINE      CODE     ---       #192
      00FFAF85H   LINE      CODE     ---       #193
      00FFAF88H   LINE      CODE     ---       #194
      00FFAF8AH   LINE      CODE     ---       #195
      00FFAF8CH   LINE      CODE     ---       #199
      00FFAF8FH   LINE      CODE     ---       #200
      00FFAF93H   LINE      CODE     ---       #201
      00FFAF94H   LINE      CODE     ---       #202
      00FFAF95H   LINE      CODE     ---       #203
      00FFAF96H   LINE      CODE     ---       #204
      00FFAF98H   LINE      CODE     ---       #205
      00FFAF9AH   LINE      CODE     ---       #235
      ---         BLOCKEND  ---      ---       LVL=0

      00FFAFD1H   BLOCK     CODE     NEAR LAB  LVL=0
      00FFAFD1H   LINE      CODE     ---       #238
      ---         BLOCKEND  ---      ---       LVL=0

      ---         MODULE    ---      ---       zf_driver_adc
      00FFB621H   PUBLIC    CODE     ---       adc_convert
      00FFA8E8H   PUBLIC    CODE     ---       adc_init
      00000094H   SFRSYM    DATA     BYTE      P0M0
      000000D0H   SFRSYM    DATA     BYTE      PSW
      0000009DH   SFRSYM    DATA     BYTE      IRCBAND
      00000097H   SFRSYM    DATA     BYTE      AUXR2
      000000EFH   SFRSYM    DATA     BYTE      AUXINTIF
      000000FDH   SFRSYM    DATA     BYTE      S4CON
      000000ACH   SFRSYM    DATA     BYTE      S3CON
      0000009AH   SFRSYM    DATA     BYTE      S2CON
      000000B7H   SFRSYM    DATA     BYTE      IPH
      000000CDH   SFRSYM    DATA     BYTE      SPSTAT
      000000BEH   SFRSYM    DATA     BYTE      ADC_RESL
      000000DDH   SFRSYM    DATA     BYTE      T4T3M
      000000C1H   SFRSYM    DATA     BYTE      WDT_CONTR
      000000DFH   SFRSYM    DATA     BYTE      IP3
      000000F4H   SFRSYM    DATA     BYTE      USBCON
      000000B5H   SFRSYM    DATA     BYTE      IP2
      000000FFH   SFRSYM    DATA     BYTE      RSTCFG
      000000C7H   SFRSYM    DATA     BYTE      IAP_CONTR
      0000008EH   SFRSYM    DATA     BYTE      AUXR
      000000AFH   SFRSYM    DATA     BYTE      IE2
      00000088H   SFRSYM    DATA     BYTE      TCON
      00000089H   SFRSYM    DATA     BYTE      TMOD
      00000098H   SFRSYM    DATA     BYTE      SCON
      00000087H   SFRSYM    DATA     BYTE      PCON
      000000BCH   SFRSYM    DATA     BYTE      ADC_CONTR
      000000D1H   SFRSYM    DATA     BYTE      PSW1
      000000E7H   SFRSYM    DATA     BYTE      CMPCR2
      000000E6H   SFRSYM    DATA     BYTE      CMPCR1
      000000DEH   SFRSYM    DATA     BYTE      ADCCFG
      000000B8H   SFRSYM    DATA     BYTE      IP
      0000008FH   SFRSYM    DATA     BYTE      INTCLKO
      000000EEH   SFRSYM    DATA     BYTE      IP3H
      000000B6H   SFRSYM    DATA     BYTE      IP2H
      000000BDH   SFRSYM    DATA     BYTE      ADC_RES
      000000BFH   SFRSYM    DATA     BYTE      P_SW4
      000000A8H   SFRSYM    DATA     BYTE      IE
      000000BBH   SFRSYM    DATA     BYTE      P_SW3
      000000BAH   SFRSYM    DATA     BYTE      P_SW2
L251 LINKER/LOCATER V4.66.93.0                                                        10/23/2025  22:33:42  PAGE 54


      000000A2H   SFRSYM    DATA     BYTE      P_SW1
      000000CEH   SFRSYM    DATA     BYTE      SPCTL
      000000F8H   SFRSYM    DATA     BYTE      P7
      000000E8H   SFRSYM    DATA     BYTE      P6
      000000C8H   SFRSYM    DATA     BYTE      P5
      000000C0H   SFRSYM    DATA     BYTE      P4
      000000ABH   SFRSYM    DATA     BYTE      WKTCH
      000000B0H   SFRSYM    DATA     BYTE      P3
      000000A0H   SFRSYM    DATA     BYTE      P2
      00000090H   SFRSYM    DATA     BYTE      P1
      00000080H   SFRSYM    DATA     BYTE      P0
      00000091H   SFRSYM    DATA     BYTE      P1M1
      00000092H   SFRSYM    DATA     BYTE      P1M0
      00000093H   SFRSYM    DATA     BYTE      P0M1
      00011315H   SYMBOL    XDATA    BYTE      adc_resolution
      WR14        REGSYM    ---      INT       ch
      R13         REGSYM    ---      BYTE      count
      R12         REGSYM    ---      BYTE      i

      00FFB621H   BLOCK     CODE     ---       LVL=0
      WR6         REGSYM    ---      INT       ch
      WR6         REGSYM    ---      WORD      adc_value
      00FFB621H   LINE      CODE     ---       #75
      00FFB621H   LINE      CODE     ---       #76
      00FFB621H   LINE      CODE     ---       #79
      00FFB624H   LINE      CODE     ---       #80
      00FFB628H   LINE      CODE     ---       #82
      00FFB62BH   LINE      CODE     ---       #84
      00FFB630H   LINE      CODE     ---       #86
      00FFB633H   LINE      CODE     ---       #88
      00FFB635H   LINE      CODE     ---       #89
      00FFB639H   LINE      CODE     ---       #90
      00FFB63FH   LINE      CODE     ---       #92
      00FFB642H   LINE      CODE     ---       #93
      00FFB645H   LINE      CODE     ---       #95
      00FFB650H   LINE      CODE     ---       #98
      00FFB650H   LINE      CODE     ---       #99
      ---         BLOCKEND  ---      ---       LVL=0

      00FFA8E8H   BLOCK     CODE     ---       LVL=0
      WR4         REGSYM    ---      INT       ch
      WR2         REGSYM    ---      INT       resolution
      00FFA8E8H   LINE      CODE     ---       #108
      00FFA8ECH   LINE      CODE     ---       #110
      00FFA8EFH   LINE      CODE     ---       #112
      00FFA8F2H   LINE      CODE     ---       #113
      00FFA8F8H   LINE      CODE     ---       #115
      00FFA906H   LINE      CODE     ---       #118
      00FFA91BH   LINE      CODE     ---       #119
      00FFA92EH   LINE      CODE     ---       #120
      00FFA930H   LINE      CODE     ---       #121
      00FFA93AH   LINE      CODE     ---       #124
      00FFA94FH   LINE      CODE     ---       #125
      00FFA962H   LINE      CODE     ---       #126
      00FFA962H   LINE      CODE     ---       #128
      00FFA966H   LINE      CODE     ---       #130
      00FFA969H   LINE      CODE     ---       #132
      00FFA96FH   LINE      CODE     ---       #133
      ---         BLOCKEND  ---      ---       LVL=0

      ---         MODULE    ---      ---       zf_driver_delay
      00FFAEC3H   PUBLIC    CODE     ---       system_delay_init
      00FFACC5H   PUBLIC    CODE     ---       system_delay_ms
      000000D0H   SFRSYM    DATA     BYTE      PSW
      0000009DH   SFRSYM    DATA     BYTE      IRCBAND
L251 LINKER/LOCATER V4.66.93.0                                                        10/23/2025  22:33:42  PAGE 55


      00000097H   SFRSYM    DATA     BYTE      AUXR2
      000000EFH   SFRSYM    DATA     BYTE      AUXINTIF
      000000FDH   SFRSYM    DATA     BYTE      S4CON
      000000ACH   SFRSYM    DATA     BYTE      S3CON
      0000009AH   SFRSYM    DATA     BYTE      S2CON
      000000B7H   SFRSYM    DATA     BYTE      IPH
      000000CDH   SFRSYM    DATA     BYTE      SPSTAT
      000000DDH   SFRSYM    DATA     BYTE      T4T3M
      000000C1H   SFRSYM    DATA     BYTE      WDT_CONTR
      000000DFH   SFRSYM    DATA     BYTE      IP3
      000000F4H   SFRSYM    DATA     BYTE      USBCON
      000000B5H   SFRSYM    DATA     BYTE      IP2
      000000FFH   SFRSYM    DATA     BYTE      RSTCFG
      000000C7H   SFRSYM    DATA     BYTE      IAP_CONTR
      0000008EH   SFRSYM    DATA     BYTE      AUXR
      000000AFH   SFRSYM    DATA     BYTE      IE2
      00000088H   SFRSYM    DATA     BYTE      TCON
      00000089H   SFRSYM    DATA     BYTE      TMOD
      00000098H   SFRSYM    DATA     BYTE      SCON
      00000087H   SFRSYM    DATA     BYTE      PCON
      000000BCH   SFRSYM    DATA     BYTE      ADC_CONTR
      000000D1H   SFRSYM    DATA     BYTE      PSW1
      000000E7H   SFRSYM    DATA     BYTE      CMPCR2
      000000E6H   SFRSYM    DATA     BYTE      CMPCR1
      000000DEH   SFRSYM    DATA     BYTE      ADCCFG
      000000B8H   SFRSYM    DATA     BYTE      IP
      0000008FH   SFRSYM    DATA     BYTE      INTCLKO
      000000EEH   SFRSYM    DATA     BYTE      IP3H
      000000B6H   SFRSYM    DATA     BYTE      IP2H
      000000BFH   SFRSYM    DATA     BYTE      P_SW4
      000000A8H   SFRSYM    DATA     BYTE      IE
      000000BBH   SFRSYM    DATA     BYTE      P_SW3
      000000BAH   SFRSYM    DATA     BYTE      P_SW2
      000000A2H   SFRSYM    DATA     BYTE      P_SW1
      000000CEH   SFRSYM    DATA     BYTE      SPCTL
      000000F8H   SFRSYM    DATA     BYTE      P7
      000000E8H   SFRSYM    DATA     BYTE      P6
      000000C8H   SFRSYM    DATA     BYTE      P5
      000000C0H   SFRSYM    DATA     BYTE      P4
      000000ABH   SFRSYM    DATA     BYTE      WKTCH
      000000B0H   SFRSYM    DATA     BYTE      P3
      000000A0H   SFRSYM    DATA     BYTE      P2
      00000090H   SFRSYM    DATA     BYTE      P1
      00000080H   SFRSYM    DATA     BYTE      P0
      00011308H   SYMBOL    XDATA    WORD      pca_delay_1ms
      0001130AH   SYMBOL    XDATA    WORD      pca_delay_1us

      00FFAEC3H   BLOCK     CODE     ---       LVL=0
      00FFAEC3H   LINE      CODE     ---       #48
      00FFAEC3H   LINE      CODE     ---       #50
      00FFAEDAH   LINE      CODE     ---       #51
      00FFAEF5H   LINE      CODE     ---       #53
      00FFAF02H   LINE      CODE     ---       #54
      00FFAF0FH   LINE      CODE     ---       #55
      00FFAF1FH   LINE      CODE     ---       #57
      ---         BLOCKEND  ---      ---       LVL=0

      00FFACC5H   BLOCK     CODE     ---       LVL=0
      WR8         REGSYM    ---      WORD      ms
      00FFACC7H   BLOCK     CODE     NEAR LAB  LVL=1
      WR6         REGSYM    ---      WORD      temp
      ---         BLOCKEND  ---      ---       LVL=1
      00FFACC5H   LINE      CODE     ---       #65
      00FFACC7H   LINE      CODE     ---       #66
      00FFACC7H   LINE      CODE     ---       #69
L251 LINKER/LOCATER V4.66.93.0                                                        10/23/2025  22:33:42  PAGE 56


      00FFACC9H   LINE      CODE     ---       #71
      00FFACEDH   LINE      CODE     ---       #73
      00FFACFAH   LINE      CODE     ---       #74
      00FFAD09H   LINE      CODE     ---       #76
      00FFAD17H   LINE      CODE     ---       #77
      00FFAD27H   LINE      CODE     ---       #78
      00FFAD2FH   LINE      CODE     ---       #79
      ---         BLOCKEND  ---      ---       LVL=0
      WR8         REGSYM    ---      WORD      ms
      WR6         REGSYM    ---      WORD      temp

      ---         MODULE    ---      ---       zf_driver_eeprom
      000000D0H   SFRSYM    DATA     BYTE      PSW
      0000009DH   SFRSYM    DATA     BYTE      IRCBAND
      00000097H   SFRSYM    DATA     BYTE      AUXR2
      000000C6H   SFRSYM    DATA     BYTE      IAP_TRIG
      000000EFH   SFRSYM    DATA     BYTE      AUXINTIF
      000000FDH   SFRSYM    DATA     BYTE      S4CON
      000000ACH   SFRSYM    DATA     BYTE      S3CON
      0000009AH   SFRSYM    DATA     BYTE      S2CON
      000000B7H   SFRSYM    DATA     BYTE      IPH
      000000CDH   SFRSYM    DATA     BYTE      SPSTAT
      000000DDH   SFRSYM    DATA     BYTE      T4T3M
      000000C1H   SFRSYM    DATA     BYTE      WDT_CONTR
      000000C2H   SFRSYM    DATA     BYTE      IAP_DATA
      000000DFH   SFRSYM    DATA     BYTE      IP3
      000000F4H   SFRSYM    DATA     BYTE      USBCON
      000000B5H   SFRSYM    DATA     BYTE      IP2
      000000FFH   SFRSYM    DATA     BYTE      RSTCFG
      000000C7H   SFRSYM    DATA     BYTE      IAP_CONTR
      0000008EH   SFRSYM    DATA     BYTE      AUXR
      000000AFH   SFRSYM    DATA     BYTE      IE2
      00000088H   SFRSYM    DATA     BYTE      TCON
      00000089H   SFRSYM    DATA     BYTE      TMOD
      00000098H   SFRSYM    DATA     BYTE      SCON
      000000F5H   SFRSYM    DATA     BYTE      IAP_TPS
      00000087H   SFRSYM    DATA     BYTE      PCON
      000000BCH   SFRSYM    DATA     BYTE      ADC_CONTR
      000000D1H   SFRSYM    DATA     BYTE      PSW1
      000000E7H   SFRSYM    DATA     BYTE      CMPCR2
      000000E6H   SFRSYM    DATA     BYTE      CMPCR1
      000000C4H   SFRSYM    DATA     BYTE      IAP_ADDRL
      000000C3H   SFRSYM    DATA     BYTE      IAP_ADDRH
      000000F6H   SFRSYM    DATA     BYTE      IAP_ADDRE
      000000DEH   SFRSYM    DATA     BYTE      ADCCFG
      000000B8H   SFRSYM    DATA     BYTE      IP
      0000008FH   SFRSYM    DATA     BYTE      INTCLKO
      000000EEH   SFRSYM    DATA     BYTE      IP3H
      000000B6H   SFRSYM    DATA     BYTE      IP2H
      000000C5H   SFRSYM    DATA     BYTE      IAP_CMD
      000000BFH   SFRSYM    DATA     BYTE      P_SW4
      000000A8H   SFRSYM    DATA     BYTE      IE
      000000BBH   SFRSYM    DATA     BYTE      P_SW3
      000000BAH   SFRSYM    DATA     BYTE      P_SW2
      000000A2H   SFRSYM    DATA     BYTE      P_SW1
      000000CEH   SFRSYM    DATA     BYTE      SPCTL
      000000F8H   SFRSYM    DATA     BYTE      P7
      000000A8H.7 SFRSYM    DATA     BIT       EA
      000000E8H   SFRSYM    DATA     BYTE      P6
      000000C8H   SFRSYM    DATA     BYTE      P5
      000000C0H   SFRSYM    DATA     BYTE      P4
      000000ABH   SFRSYM    DATA     BYTE      WKTCH
      000000B0H   SFRSYM    DATA     BYTE      P3
      000000A0H   SFRSYM    DATA     BYTE      P2
      00000090H   SFRSYM    DATA     BYTE      P1
L251 LINKER/LOCATER V4.66.93.0                                                        10/23/2025  22:33:42  PAGE 57


      00000080H   SFRSYM    DATA     BYTE      P0
      00FFCE82H   SYMBOL    HCONST   ---       ?tpl?0001
      R7          REGSYM    ---      BYTE      write_time
      DR0         REGSYM    ---      DWORD     addr
      R11         REGSYM    ---      BYTE      temp
      DR0         REGSYM    ---      DWORD     addr
      R15         REGSYM    ---      BYTE      byte
      REG=3       REGSYM    ---      ---       buf
      REG=3       REGSYM    ---      ---       buf
      DR0         REGSYM    ---      DWORD     addr
      REG=3       REGSYM    ---      ---       buf

      ---         MODULE    ---      ---       zf_driver_encoder
      00FFA165H   PUBLIC    CODE     ---       encoder_get_count
      00FF9007H   PUBLIC    CODE     ---       encoder_dir_init
      00FFA3E4H   PUBLIC    CODE     ---       encoder_clear_count
      000000D0H   SFRSYM    DATA     BYTE      PSW
      0000009DH   SFRSYM    DATA     BYTE      IRCBAND
      00000097H   SFRSYM    DATA     BYTE      AUXR2
      000000EFH   SFRSYM    DATA     BYTE      AUXINTIF
      000000FDH   SFRSYM    DATA     BYTE      S4CON
      000000ACH   SFRSYM    DATA     BYTE      S3CON
      0000009AH   SFRSYM    DATA     BYTE      S2CON
      000000B7H   SFRSYM    DATA     BYTE      IPH
      000000CDH   SFRSYM    DATA     BYTE      SPSTAT
      000000DDH   SFRSYM    DATA     BYTE      T4T3M
      000000C1H   SFRSYM    DATA     BYTE      WDT_CONTR
      00000088H.6 SFRSYM    DATA     BIT       TR1
      00000088H.4 SFRSYM    DATA     BIT       TR0
      000000D3H   SFRSYM    DATA     BYTE      T4L
      000000D5H   SFRSYM    DATA     BYTE      T3L
      000000D7H   SFRSYM    DATA     BYTE      T2L
      0000008BH   SFRSYM    DATA     BYTE      TL1
      0000008AH   SFRSYM    DATA     BYTE      TL0
      000000D2H   SFRSYM    DATA     BYTE      T4H
      000000D4H   SFRSYM    DATA     BYTE      T3H
      000000D6H   SFRSYM    DATA     BYTE      T2H
      0000008DH   SFRSYM    DATA     BYTE      TH1
      0000008CH   SFRSYM    DATA     BYTE      TH0
      000000DFH   SFRSYM    DATA     BYTE      IP3
      000000F4H   SFRSYM    DATA     BYTE      USBCON
      000000B5H   SFRSYM    DATA     BYTE      IP2
      000000FFH   SFRSYM    DATA     BYTE      RSTCFG
      000000C7H   SFRSYM    DATA     BYTE      IAP_CONTR
      0000008EH   SFRSYM    DATA     BYTE      AUXR
      000000AFH   SFRSYM    DATA     BYTE      IE2
      00000088H   SFRSYM    DATA     BYTE      TCON
      00000089H   SFRSYM    DATA     BYTE      TMOD
      00000098H   SFRSYM    DATA     BYTE      SCON
      00000087H   SFRSYM    DATA     BYTE      PCON
      000000BCH   SFRSYM    DATA     BYTE      ADC_CONTR
      000000D1H   SFRSYM    DATA     BYTE      PSW1
      000000E7H   SFRSYM    DATA     BYTE      CMPCR2
      000000E6H   SFRSYM    DATA     BYTE      CMPCR1
      000000DEH   SFRSYM    DATA     BYTE      ADCCFG
      000000B8H   SFRSYM    DATA     BYTE      IP
      0000008FH   SFRSYM    DATA     BYTE      INTCLKO
      000000EEH   SFRSYM    DATA     BYTE      IP3H
      000000B6H   SFRSYM    DATA     BYTE      IP2H
      000000BFH   SFRSYM    DATA     BYTE      P_SW4
      000000A8H   SFRSYM    DATA     BYTE      IE
      000000BBH   SFRSYM    DATA     BYTE      P_SW3
      000000BAH   SFRSYM    DATA     BYTE      P_SW2
      000000A2H   SFRSYM    DATA     BYTE      P_SW1
      000000CEH   SFRSYM    DATA     BYTE      SPCTL
L251 LINKER/LOCATER V4.66.93.0                                                        10/23/2025  22:33:42  PAGE 58


      000000F8H   SFRSYM    DATA     BYTE      P7
      000000E8H   SFRSYM    DATA     BYTE      P6
      000000C8H   SFRSYM    DATA     BYTE      P5
      000000C0H   SFRSYM    DATA     BYTE      P4
      000000ABH   SFRSYM    DATA     BYTE      WKTCH
      000000B0H   SFRSYM    DATA     BYTE      P3
      000000A0H   SFRSYM    DATA     BYTE      P2
      00000090H   SFRSYM    DATA     BYTE      P1
      00000080H   SFRSYM    DATA     BYTE      P0
      000112FEH   SYMBOL    XDATA    ---       encoder_dir_pin

      00FFA165H   BLOCK     CODE     ---       LVL=0
      WR2         REGSYM    ---      INT       encoder_n
      00FFA169H   BLOCK     CODE     NEAR LAB  LVL=1
      WR14        REGSYM    ---      INT       dat
      ---         BLOCKEND  ---      ---       LVL=1
      00FFA165H   LINE      CODE     ---       #48
      00FFA169H   LINE      CODE     ---       #49
      00FFA169H   LINE      CODE     ---       #50
      00FFA16BH   LINE      CODE     ---       #52
      00FFA187H   LINE      CODE     ---       #54
      00FFA187H   LINE      CODE     ---       #56
      00FFA18DH   LINE      CODE     ---       #57
      00FFA193H   LINE      CODE     ---       #58
      00FFA195H   LINE      CODE     ---       #61
      00FFA195H   LINE      CODE     ---       #63
      00FFA19BH   LINE      CODE     ---       #64
      00FFA1A1H   LINE      CODE     ---       #65
      00FFA1A3H   LINE      CODE     ---       #68
      00FFA1A3H   LINE      CODE     ---       #70
      00FFA1A9H   LINE      CODE     ---       #71
      00FFA1AFH   LINE      CODE     ---       #72
      00FFA1B1H   LINE      CODE     ---       #75
      00FFA1B1H   LINE      CODE     ---       #77
      00FFA1B7H   LINE      CODE     ---       #78
      00FFA1BDH   LINE      CODE     ---       #79
      00FFA1BFH   LINE      CODE     ---       #82
      00FFA1BFH   LINE      CODE     ---       #84
      00FFA1C5H   LINE      CODE     ---       #85
      00FFA1CBH   LINE      CODE     ---       #86
      00FFA1CDH   LINE      CODE     ---       #89
      00FFA1CDH   LINE      CODE     ---       #91
      00FFA1DCH   LINE      CODE     ---       #92
      00FFA1EBH   LINE      CODE     ---       #93
      00FFA1EBH   LINE      CODE     ---       #96
      00FFA1EBH   LINE      CODE     ---       #98
      00FFA1FFH   LINE      CODE     ---       #100
      00FFA205H   LINE      CODE     ---       #101
      00FFA205H   LINE      CODE     ---       #103
      00FFA207H   LINE      CODE     ---       #104
      ---         BLOCKEND  ---      ---       LVL=0

      00FFA3E4H   BLOCK     CODE     ---       LVL=0
      WR6         REGSYM    ---      INT       encoder_n
      00FFA3E4H   LINE      CODE     ---       #113
      00FFA3E4H   LINE      CODE     ---       #115
      00FFA3FEH   LINE      CODE     ---       #117
      00FFA3FEH   LINE      CODE     ---       #119
      00FFA400H   LINE      CODE     ---       #120
      00FFA403H   LINE      CODE     ---       #121
      00FFA406H   LINE      CODE     ---       #122
      00FFA408H   LINE      CODE     ---       #123
      00FFA40AH   LINE      CODE     ---       #126
      00FFA40AH   LINE      CODE     ---       #128
      00FFA40CH   LINE      CODE     ---       #129
L251 LINKER/LOCATER V4.66.93.0                                                        10/23/2025  22:33:42  PAGE 59


      00FFA40FH   LINE      CODE     ---       #130
      00FFA412H   LINE      CODE     ---       #131
      00FFA414H   LINE      CODE     ---       #132
      00FFA416H   LINE      CODE     ---       #135
      00FFA416H   LINE      CODE     ---       #137
      00FFA419H   LINE      CODE     ---       #138
      00FFA41CH   LINE      CODE     ---       #139
      00FFA41FH   LINE      CODE     ---       #140
      00FFA422H   LINE      CODE     ---       #141
      00FFA424H   LINE      CODE     ---       #144
      00FFA424H   LINE      CODE     ---       #146
      00FFA427H   LINE      CODE     ---       #147
      00FFA42AH   LINE      CODE     ---       #148
      00FFA42DH   LINE      CODE     ---       #149
      00FFA430H   LINE      CODE     ---       #150
      00FFA432H   LINE      CODE     ---       #153
      00FFA432H   LINE      CODE     ---       #155
      00FFA435H   LINE      CODE     ---       #156
      00FFA438H   LINE      CODE     ---       #157
      00FFA43BH   LINE      CODE     ---       #158
      00FFA43EH   LINE      CODE     ---       #159
      00FFA440H   LINE      CODE     ---       #162
      00FFA440H   LINE      CODE     ---       #164
      00FFA450H   LINE      CODE     ---       #165
      00FFA45CH   LINE      CODE     ---       #166
      00FFA468H   LINE      CODE     ---       #167
      00FFA478H   LINE      CODE     ---       #168
      00FFA478H   LINE      CODE     ---       #170
      00FFA478H   LINE      CODE     ---       #171
      ---         BLOCKEND  ---      ---       LVL=0

      00FF9007H   BLOCK     CODE     ---       LVL=0
      WR14        REGSYM    ---      INT       encoder_n
      WR12        REGSYM    ---      INT       dir_pin
      0001100AH   SYMBOL    XDATA    INT       lsb_pin
      00FF9007H   LINE      CODE     ---       #183
      00FF9013H   LINE      CODE     ---       #189
      00FF9029H   LINE      CODE     ---       #190
      00FF9045H   LINE      CODE     ---       #191
      00FF9065H   LINE      CODE     ---       #194
      00FF9071H   LINE      CODE     ---       #196
      00FF9084H   LINE      CODE     ---       #198
      00FF9093H   LINE      CODE     ---       #200
      00FF90ADH   LINE      CODE     ---       #202
      00FF90ADH   LINE      CODE     ---       #204
      00FF90B0H   LINE      CODE     ---       #205
      00FF90B3H   LINE      CODE     ---       #206
      00FF90B6H   LINE      CODE     ---       #207
      00FF90B8H   LINE      CODE     ---       #208
      00FF90BAH   LINE      CODE     ---       #211
      00FF90BAH   LINE      CODE     ---       #213
      00FF90BDH   LINE      CODE     ---       #214
      00FF90C0H   LINE      CODE     ---       #215
      00FF90C3H   LINE      CODE     ---       #216
      00FF90C5H   LINE      CODE     ---       #217
      00FF90C7H   LINE      CODE     ---       #220
      00FF90C7H   LINE      CODE     ---       #222
      00FF90CAH   LINE      CODE     ---       #223
      00FF90CDH   LINE      CODE     ---       #224
      00FF90D0H   LINE      CODE     ---       #225
      00FF90D2H   LINE      CODE     ---       #228
      00FF90D2H   LINE      CODE     ---       #230
      00FF90D5H   LINE      CODE     ---       #231
      00FF90D8H   LINE      CODE     ---       #232
      00FF90DBH   LINE      CODE     ---       #233
L251 LINKER/LOCATER V4.66.93.0                                                        10/23/2025  22:33:42  PAGE 60


      00FF90DDH   LINE      CODE     ---       #236
      00FF90DDH   LINE      CODE     ---       #238
      00FF90E0H   LINE      CODE     ---       #239
      00FF90E3H   LINE      CODE     ---       #240
      00FF90E6H   LINE      CODE     ---       #241
      00FF90E8H   LINE      CODE     ---       #244
      00FF90E8H   LINE      CODE     ---       #246
      00FF90F4H   LINE      CODE     ---       #247
      00FF9100H   LINE      CODE     ---       #248
      00FF9110H   LINE      CODE     ---       #249
      00FF9110H   LINE      CODE     ---       #251
      00FF9110H   LINE      CODE     ---       #252
      ---         BLOCKEND  ---      ---       LVL=0

      ---         MODULE    ---      ---       zf_driver_exti
      000000D0H   SFRSYM    DATA     BYTE      PSW
      0000009DH   SFRSYM    DATA     BYTE      IRCBAND
      00000097H   SFRSYM    DATA     BYTE      AUXR2
      000000EFH   SFRSYM    DATA     BYTE      AUXINTIF
      000000FDH   SFRSYM    DATA     BYTE      S4CON
      000000ACH   SFRSYM    DATA     BYTE      S3CON
      0000009AH   SFRSYM    DATA     BYTE      S2CON
      000000B7H   SFRSYM    DATA     BYTE      IPH
      000000CDH   SFRSYM    DATA     BYTE      SPSTAT
      000000DDH   SFRSYM    DATA     BYTE      T4T3M
      000000C1H   SFRSYM    DATA     BYTE      WDT_CONTR
      000000DFH   SFRSYM    DATA     BYTE      IP3
      000000F4H   SFRSYM    DATA     BYTE      USBCON
      000000B5H   SFRSYM    DATA     BYTE      IP2
      000000FFH   SFRSYM    DATA     BYTE      RSTCFG
      000000C7H   SFRSYM    DATA     BYTE      IAP_CONTR
      0000008EH   SFRSYM    DATA     BYTE      AUXR
      000000AFH   SFRSYM    DATA     BYTE      IE2
      00000088H   SFRSYM    DATA     BYTE      TCON
      00000089H   SFRSYM    DATA     BYTE      TMOD
      00000098H   SFRSYM    DATA     BYTE      SCON
      00000087H   SFRSYM    DATA     BYTE      PCON
      000000BCH   SFRSYM    DATA     BYTE      ADC_CONTR
      000000D1H   SFRSYM    DATA     BYTE      PSW1
      000000E7H   SFRSYM    DATA     BYTE      CMPCR2
      000000E6H   SFRSYM    DATA     BYTE      CMPCR1
      000000DEH   SFRSYM    DATA     BYTE      ADCCFG
      000000B8H   SFRSYM    DATA     BYTE      IP
      0000008FH   SFRSYM    DATA     BYTE      INTCLKO
      000000EEH   SFRSYM    DATA     BYTE      IP3H
      000000B6H   SFRSYM    DATA     BYTE      IP2H
      000000BFH   SFRSYM    DATA     BYTE      P_SW4
      000000A8H   SFRSYM    DATA     BYTE      IE
      000000BBH   SFRSYM    DATA     BYTE      P_SW3
      000000BAH   SFRSYM    DATA     BYTE      P_SW2
      000000A2H   SFRSYM    DATA     BYTE      P_SW1
      000000CEH   SFRSYM    DATA     BYTE      SPCTL
      000000F8H   SFRSYM    DATA     BYTE      P7
      000000E8H   SFRSYM    DATA     BYTE      P6
      000000C8H   SFRSYM    DATA     BYTE      P5
      000000C0H   SFRSYM    DATA     BYTE      P4
      000000ABH   SFRSYM    DATA     BYTE      WKTCH
      000000B0H   SFRSYM    DATA     BYTE      P3
      000000A0H   SFRSYM    DATA     BYTE      P2
      00000090H   SFRSYM    DATA     BYTE      P1
      00000080H   SFRSYM    DATA     BYTE      P0

      ---         MODULE    ---      ---       zf_driver_gpio
      00FF9A78H   PUBLIC    CODE     ---       gpio_init
      00FF00C6H   PUBLIC    CODE     ---       gpio_get_level
L251 LINKER/LOCATER V4.66.93.0                                                        10/23/2025  22:33:42  PAGE 61


      00FF71AFH   PUBLIC    CODE     ---       gpio_set_level_speed
      00FF8611H   PUBLIC    CODE     ---       gpio_set_level
      00FF8A1DH   PUBLIC    CODE     ---       gpio_set_impedance
      00000094H   SFRSYM    DATA     BYTE      P0M0
      000000D0H   SFRSYM    DATA     BYTE      PSW
      0000009DH   SFRSYM    DATA     BYTE      IRCBAND
      00000097H   SFRSYM    DATA     BYTE      AUXR2
      000000EFH   SFRSYM    DATA     BYTE      AUXINTIF
      000000FDH   SFRSYM    DATA     BYTE      S4CON
      000000ACH   SFRSYM    DATA     BYTE      S3CON
      0000009AH   SFRSYM    DATA     BYTE      S2CON
      000000B7H   SFRSYM    DATA     BYTE      IPH
      000000CDH   SFRSYM    DATA     BYTE      SPSTAT
      000000DDH   SFRSYM    DATA     BYTE      T4T3M
      000000C1H   SFRSYM    DATA     BYTE      WDT_CONTR
      000000DFH   SFRSYM    DATA     BYTE      IP3
      000000F4H   SFRSYM    DATA     BYTE      USBCON
      000000B5H   SFRSYM    DATA     BYTE      IP2
      000000FFH   SFRSYM    DATA     BYTE      RSTCFG
      000000C7H   SFRSYM    DATA     BYTE      IAP_CONTR
      0000008EH   SFRSYM    DATA     BYTE      AUXR
      000000AFH   SFRSYM    DATA     BYTE      IE2
      00000088H   SFRSYM    DATA     BYTE      TCON
      00000089H   SFRSYM    DATA     BYTE      TMOD
      00000098H   SFRSYM    DATA     BYTE      SCON
      00000087H   SFRSYM    DATA     BYTE      PCON
      000000BCH   SFRSYM    DATA     BYTE      ADC_CONTR
      000000D1H   SFRSYM    DATA     BYTE      PSW1
      000000E7H   SFRSYM    DATA     BYTE      CMPCR2
      000000E6H   SFRSYM    DATA     BYTE      CMPCR1
      000000DEH   SFRSYM    DATA     BYTE      ADCCFG
      000000B8H   SFRSYM    DATA     BYTE      IP
      0000008FH   SFRSYM    DATA     BYTE      INTCLKO
      000000EEH   SFRSYM    DATA     BYTE      IP3H
      000000B6H   SFRSYM    DATA     BYTE      IP2H
      000000BFH   SFRSYM    DATA     BYTE      P_SW4
      000000A8H   SFRSYM    DATA     BYTE      IE
      000000BBH   SFRSYM    DATA     BYTE      P_SW3
      000000BAH   SFRSYM    DATA     BYTE      P_SW2
      000000A2H   SFRSYM    DATA     BYTE      P_SW1
      000000CEH   SFRSYM    DATA     BYTE      SPCTL
      000000F8H   SFRSYM    DATA     BYTE      P7
      000000E8H   SFRSYM    DATA     BYTE      P6
      000000C8H   SFRSYM    DATA     BYTE      P5
      000000C0H   SFRSYM    DATA     BYTE      P4
      000000C9H   SFRSYM    DATA     BYTE      P5M1
      000000ABH   SFRSYM    DATA     BYTE      WKTCH
      000000B0H   SFRSYM    DATA     BYTE      P3
      000000B3H   SFRSYM    DATA     BYTE      P4M1
      000000CAH   SFRSYM    DATA     BYTE      P5M0
      000000A0H   SFRSYM    DATA     BYTE      P2
      000000B1H   SFRSYM    DATA     BYTE      P3M1
      000000B4H   SFRSYM    DATA     BYTE      P4M0
      00000090H   SFRSYM    DATA     BYTE      P1
      00000095H   SFRSYM    DATA     BYTE      P2M1
      000000B2H   SFRSYM    DATA     BYTE      P3M0
      00000080H   SFRSYM    DATA     BYTE      P0
      00000091H   SFRSYM    DATA     BYTE      P1M1
      00000096H   SFRSYM    DATA     BYTE      P2M0
      00000092H   SFRSYM    DATA     BYTE      P1M0
      00000093H   SFRSYM    DATA     BYTE      P0M1
      00FF67E5H   SYMBOL    CODE     ---       gpio_set_dir
      00FF7B4CH   SYMBOL    CODE     ---       gpio_set_mode

      00FF7B4CH   BLOCK     CODE     ---       LVL=0
L251 LINKER/LOCATER V4.66.93.0                                                        10/23/2025  22:33:42  PAGE 62


      WR4         REGSYM    ---      INT       pin
      WR8         REGSYM    ---      INT       mode
      00FF7B4CH   LINE      CODE     ---       #45
      00FF7B50H   LINE      CODE     ---       #51
      00FF7B5CH   LINE      CODE     ---       #53
      00FF7B8BH   LINE      CODE     ---       #54
      00FF7BBAH   LINE      CODE     ---       #55
      00FF7BBDH   LINE      CODE     ---       #56
      00FF7BC3H   LINE      CODE     ---       #58
      00FF7BF0H   LINE      CODE     ---       #59
      00FF7BF3H   LINE      CODE     ---       #60
      00FF7BFFH   LINE      CODE     ---       #62
      00FF7C2CH   LINE      CODE     ---       #63
      00FF7C2FH   LINE      CODE     ---       #64
      00FF7C38H   LINE      CODE     ---       #66
      00FF7C6EH   LINE      CODE     ---       #68
      00FF7C6EH   LINE      CODE     ---       #70
      00FF7C81H   LINE      CODE     ---       #71
      00FF7C94H   LINE      CODE     ---       #73
      00FF7C97H   LINE      CODE     ---       #75
      00FF7C97H   LINE      CODE     ---       #77
      00FF7CAAH   LINE      CODE     ---       #78
      00FF7CBDH   LINE      CODE     ---       #80
      00FF7CC0H   LINE      CODE     ---       #82
      00FF7CC0H   LINE      CODE     ---       #84
      00FF7CD3H   LINE      CODE     ---       #85
      00FF7CE6H   LINE      CODE     ---       #87
      00FF7CE9H   LINE      CODE     ---       #89
      00FF7CE9H   LINE      CODE     ---       #91
      00FF7CFCH   LINE      CODE     ---       #92
      00FF7D0FH   LINE      CODE     ---       #94
      00FF7D11H   LINE      CODE     ---       #96
      00FF7D11H   LINE      CODE     ---       #98
      00FF7D24H   LINE      CODE     ---       #99
      00FF7D37H   LINE      CODE     ---       #101
      00FF7D39H   LINE      CODE     ---       #103
      00FF7D39H   LINE      CODE     ---       #105
      00FF7D4CH   LINE      CODE     ---       #106
      00FF7D5FH   LINE      CODE     ---       #108
      00FF7D61H   LINE      CODE     ---       #109
      00FF7D61H   LINE      CODE     ---       #112
      00FF7D61H   LINE      CODE     ---       #113
      00FF7D61H   LINE      CODE     ---       #114
      00FF7D61H   LINE      CODE     ---       #117
      00FF7D71H   LINE      CODE     ---       #119
      00FF7D71H   LINE      CODE     ---       #120
      ---         BLOCKEND  ---      ---       LVL=0

      00FF71AFH   BLOCK     CODE     ---       LVL=0
      WR14        REGSYM    ---      INT       pin
      WR12        REGSYM    ---      INT       speed
      00FF71AFH   LINE      CODE     ---       #123
      00FF71B5H   LINE      CODE     ---       #125
      00FF71EFH   LINE      CODE     ---       #127
      00FF71EFH   LINE      CODE     ---       #129
      00FF71F3H   LINE      CODE     ---       #131
      00FF7216H   LINE      CODE     ---       #132
      00FF7219H   LINE      CODE     ---       #133
      00FF721FH   LINE      CODE     ---       #135
      00FF7240H   LINE      CODE     ---       #136
      00FF7243H   LINE      CODE     ---       #139
      00FF7253H   LINE      CODE     ---       #141
      00FF7253H   LINE      CODE     ---       #143
      00FF7256H   LINE      CODE     ---       #145
      00FF7256H   LINE      CODE     ---       #147
L251 LINKER/LOCATER V4.66.93.0                                                        10/23/2025  22:33:42  PAGE 63


      00FF725AH   LINE      CODE     ---       #149
      00FF727DH   LINE      CODE     ---       #150
      00FF7280H   LINE      CODE     ---       #151
      00FF7286H   LINE      CODE     ---       #153
      00FF72A7H   LINE      CODE     ---       #154
      00FF72AAH   LINE      CODE     ---       #157
      00FF72BAH   LINE      CODE     ---       #159
      00FF72BAH   LINE      CODE     ---       #161
      00FF72BDH   LINE      CODE     ---       #163
      00FF72BDH   LINE      CODE     ---       #165
      00FF72C1H   LINE      CODE     ---       #167
      00FF72E4H   LINE      CODE     ---       #168
      00FF72E7H   LINE      CODE     ---       #169
      00FF72EDH   LINE      CODE     ---       #171
      00FF730EH   LINE      CODE     ---       #172
      00FF7311H   LINE      CODE     ---       #175
      00FF7321H   LINE      CODE     ---       #177
      00FF7321H   LINE      CODE     ---       #179
      00FF7324H   LINE      CODE     ---       #181
      00FF7324H   LINE      CODE     ---       #183
      00FF7328H   LINE      CODE     ---       #185
      00FF734BH   LINE      CODE     ---       #186
      00FF734EH   LINE      CODE     ---       #187
      00FF7354H   LINE      CODE     ---       #189
      00FF7375H   LINE      CODE     ---       #190
      00FF7378H   LINE      CODE     ---       #193
      00FF7388H   LINE      CODE     ---       #195
      00FF7388H   LINE      CODE     ---       #197
      00FF738BH   LINE      CODE     ---       #199
      00FF738BH   LINE      CODE     ---       #201
      00FF738FH   LINE      CODE     ---       #203
      00FF73B2H   LINE      CODE     ---       #204
      00FF73B5H   LINE      CODE     ---       #205
      00FF73BBH   LINE      CODE     ---       #207
      00FF73DCH   LINE      CODE     ---       #208
      00FF73DFH   LINE      CODE     ---       #211
      00FF73EFH   LINE      CODE     ---       #213
      00FF73EFH   LINE      CODE     ---       #215
      00FF73F1H   LINE      CODE     ---       #217
      00FF73F1H   LINE      CODE     ---       #219
      00FF73F5H   LINE      CODE     ---       #221
      00FF7418H   LINE      CODE     ---       #222
      00FF741AH   LINE      CODE     ---       #223
      00FF7420H   LINE      CODE     ---       #225
      00FF7441H   LINE      CODE     ---       #226
      00FF7443H   LINE      CODE     ---       #229
      00FF7453H   LINE      CODE     ---       #231
      00FF7453H   LINE      CODE     ---       #233
      00FF7455H   LINE      CODE     ---       #235
      00FF7455H   LINE      CODE     ---       #237
      00FF7465H   LINE      CODE     ---       #239
      00FF7465H   LINE      CODE     ---       #240
      00FF7465H   LINE      CODE     ---       #241
      ---         BLOCKEND  ---      ---       LVL=0

      00FF67E5H   BLOCK     CODE     ---       LVL=0
      WR4         REGSYM    ---      INT       pin
      WR2         REGSYM    ---      INT       dir
      00FF67E5H   LINE      CODE     ---       #245
      00FF67E9H   LINE      CODE     ---       #247
      00FF6823H   LINE      CODE     ---       #249
      00FF6823H   LINE      CODE     ---       #251
      00FF6829H   LINE      CODE     ---       #253
      00FF683EH   LINE      CODE     ---       #254
      00FF6853H   LINE      CODE     ---       #255
L251 LINKER/LOCATER V4.66.93.0                                                        10/23/2025  22:33:42  PAGE 64


      00FF6856H   LINE      CODE     ---       #261
      00FF685CH   LINE      CODE     ---       #263
      00FF6871H   LINE      CODE     ---       #264
      00FF6884H   LINE      CODE     ---       #265
      00FF6887H   LINE      CODE     ---       #266
      00FF688EH   LINE      CODE     ---       #268
      00FF68A1H   LINE      CODE     ---       #269
      00FF68B6H   LINE      CODE     ---       #270
      00FF68B6H   LINE      CODE     ---       #272
      00FF68B9H   LINE      CODE     ---       #274
      00FF68B9H   LINE      CODE     ---       #276
      00FF68BFH   LINE      CODE     ---       #278
      00FF68D4H   LINE      CODE     ---       #279
      00FF68E9H   LINE      CODE     ---       #280
      00FF68ECH   LINE      CODE     ---       #286
      00FF68F2H   LINE      CODE     ---       #288
      00FF6907H   LINE      CODE     ---       #289
      00FF691AH   LINE      CODE     ---       #290
      00FF691DH   LINE      CODE     ---       #291
      00FF6924H   LINE      CODE     ---       #293
      00FF6937H   LINE      CODE     ---       #294
      00FF694CH   LINE      CODE     ---       #295
      00FF694CH   LINE      CODE     ---       #297
      00FF694FH   LINE      CODE     ---       #299
      00FF694FH   LINE      CODE     ---       #301
      00FF6955H   LINE      CODE     ---       #303
      00FF696AH   LINE      CODE     ---       #304
      00FF697FH   LINE      CODE     ---       #305
      00FF6982H   LINE      CODE     ---       #311
      00FF6988H   LINE      CODE     ---       #313
      00FF699DH   LINE      CODE     ---       #314
      00FF69B0H   LINE      CODE     ---       #315
      00FF69B3H   LINE      CODE     ---       #316
      00FF69BAH   LINE      CODE     ---       #318
      00FF69CDH   LINE      CODE     ---       #319
      00FF69E2H   LINE      CODE     ---       #320
      00FF69E2H   LINE      CODE     ---       #322
      00FF69E5H   LINE      CODE     ---       #324
      00FF69E5H   LINE      CODE     ---       #326
      00FF69EBH   LINE      CODE     ---       #328
      00FF6A00H   LINE      CODE     ---       #329
      00FF6A15H   LINE      CODE     ---       #330
      00FF6A18H   LINE      CODE     ---       #336
      00FF6A1EH   LINE      CODE     ---       #338
      00FF6A33H   LINE      CODE     ---       #339
      00FF6A46H   LINE      CODE     ---       #340
      00FF6A49H   LINE      CODE     ---       #341
      00FF6A50H   LINE      CODE     ---       #343
      00FF6A63H   LINE      CODE     ---       #344
      00FF6A78H   LINE      CODE     ---       #345
      00FF6A78H   LINE      CODE     ---       #347
      00FF6A7BH   LINE      CODE     ---       #349
      00FF6A7BH   LINE      CODE     ---       #351
      00FF6A81H   LINE      CODE     ---       #353
      00FF6A96H   LINE      CODE     ---       #354
      00FF6AABH   LINE      CODE     ---       #355
      00FF6AAEH   LINE      CODE     ---       #361
      00FF6AB4H   LINE      CODE     ---       #363
      00FF6AC9H   LINE      CODE     ---       #364
      00FF6ADCH   LINE      CODE     ---       #365
      00FF6ADFH   LINE      CODE     ---       #366
      00FF6AE6H   LINE      CODE     ---       #368
      00FF6AF9H   LINE      CODE     ---       #369
      00FF6B0EH   LINE      CODE     ---       #370
      00FF6B0EH   LINE      CODE     ---       #372
L251 LINKER/LOCATER V4.66.93.0                                                        10/23/2025  22:33:42  PAGE 65


      00FF6B11H   LINE      CODE     ---       #374
      00FF6B11H   LINE      CODE     ---       #376
      00FF6B17H   LINE      CODE     ---       #378
      00FF6B2CH   LINE      CODE     ---       #379
      00FF6B41H   LINE      CODE     ---       #380
      00FF6B43H   LINE      CODE     ---       #386
      00FF6B49H   LINE      CODE     ---       #388
      00FF6B5EH   LINE      CODE     ---       #389
      00FF6B71H   LINE      CODE     ---       #390
      00FF6B73H   LINE      CODE     ---       #391
      00FF6B77H   LINE      CODE     ---       #393
      00FF6B8AH   LINE      CODE     ---       #394
      00FF6B9FH   LINE      CODE     ---       #395
      00FF6B9FH   LINE      CODE     ---       #397
      00FF6BA1H   LINE      CODE     ---       #399
      00FF6BA1H   LINE      CODE     ---       #401
      00FF6BB1H   LINE      CODE     ---       #403
      00FF6BB1H   LINE      CODE     ---       #404
      00FF6BB1H   LINE      CODE     ---       #405
      ---         BLOCKEND  ---      ---       LVL=0

      00FF00C6H   BLOCK     CODE     ---       LVL=0
      WR4         REGSYM    ---      INT       pin
      00FF00CAH   BLOCK     CODE     NEAR LAB  LVL=1
      R15         REGSYM    ---      BYTE      status
      ---         BLOCKEND  ---      ---       LVL=1
      00FF00C6H   LINE      CODE     ---       #413
      00FF00CAH   LINE      CODE     ---       #414
      00FF00CAH   LINE      CODE     ---       #415
      00FF00CCH   LINE      CODE     ---       #417
      00FF00F9H   LINE      CODE     ---       #419
      00FF00F9H   LINE      CODE     ---       #421
      00FF010DH   LINE      CODE     ---       #423
      00FF010FH   LINE      CODE     ---       #425
      00FF010FH   LINE      CODE     ---       #427
      00FF0123H   LINE      CODE     ---       #429
      00FF0125H   LINE      CODE     ---       #431
      00FF0125H   LINE      CODE     ---       #433
      00FF0139H   LINE      CODE     ---       #435
      00FF013BH   LINE      CODE     ---       #437
      00FF013BH   LINE      CODE     ---       #439
      00FF014FH   LINE      CODE     ---       #441
      00FF0151H   LINE      CODE     ---       #443
      00FF0151H   LINE      CODE     ---       #445
      00FF0165H   LINE      CODE     ---       #447
      00FF0167H   LINE      CODE     ---       #449
      00FF0167H   LINE      CODE     ---       #451
      00FF017BH   LINE      CODE     ---       #453
      00FF017DH   LINE      CODE     ---       #455
      00FF017DH   LINE      CODE     ---       #457
      00FF018DH   LINE      CODE     ---       #459
      00FF018DH   LINE      CODE     ---       #460
      00FF018DH   LINE      CODE     ---       #462
      00FF0196H   LINE      CODE     ---       #463
      ---         BLOCKEND  ---      ---       LVL=0

      00FF8611H   BLOCK     CODE     ---       LVL=0
      WR4         REGSYM    ---      INT       pin
      R10         REGSYM    ---      BYTE      dat
      00FF8611H   LINE      CODE     ---       #472
      00FF8615H   LINE      CODE     ---       #474
      00FF864CH   LINE      CODE     ---       #476
      00FF864CH   LINE      CODE     ---       #478
      00FF8650H   LINE      CODE     ---       #480
      00FF8663H   LINE      CODE     ---       #481
L251 LINKER/LOCATER V4.66.93.0                                                        10/23/2025  22:33:42  PAGE 66


      00FF8666H   LINE      CODE     ---       #484
      00FF867BH   LINE      CODE     ---       #485
      00FF867BH   LINE      CODE     ---       #487
      00FF867EH   LINE      CODE     ---       #489
      00FF867EH   LINE      CODE     ---       #491
      00FF8682H   LINE      CODE     ---       #493
      00FF8695H   LINE      CODE     ---       #494
      00FF8698H   LINE      CODE     ---       #497
      00FF86ADH   LINE      CODE     ---       #498
      00FF86ADH   LINE      CODE     ---       #500
      00FF86B0H   LINE      CODE     ---       #502
      00FF86B0H   LINE      CODE     ---       #504
      00FF86B4H   LINE      CODE     ---       #506
      00FF86C7H   LINE      CODE     ---       #507
      00FF86CAH   LINE      CODE     ---       #510
      00FF86DFH   LINE      CODE     ---       #511
      00FF86DFH   LINE      CODE     ---       #513
      00FF86E2H   LINE      CODE     ---       #515
      00FF86E2H   LINE      CODE     ---       #517
      00FF86E6H   LINE      CODE     ---       #519
      00FF86F9H   LINE      CODE     ---       #520
      00FF86FCH   LINE      CODE     ---       #523
      00FF8711H   LINE      CODE     ---       #524
      00FF8711H   LINE      CODE     ---       #526
      00FF8713H   LINE      CODE     ---       #528
      00FF8713H   LINE      CODE     ---       #530
      00FF8717H   LINE      CODE     ---       #532
      00FF872AH   LINE      CODE     ---       #533
      00FF872CH   LINE      CODE     ---       #536
      00FF8741H   LINE      CODE     ---       #537
      00FF8741H   LINE      CODE     ---       #539
      00FF8743H   LINE      CODE     ---       #541
      00FF8743H   LINE      CODE     ---       #543
      00FF8747H   LINE      CODE     ---       #545
      00FF875AH   LINE      CODE     ---       #546
      00FF875CH   LINE      CODE     ---       #549
      00FF8771H   LINE      CODE     ---       #550
      00FF8771H   LINE      CODE     ---       #552
      00FF8773H   LINE      CODE     ---       #554
      00FF8773H   LINE      CODE     ---       #556
      00FF8783H   LINE      CODE     ---       #558
      00FF8783H   LINE      CODE     ---       #559
      00FF8783H   LINE      CODE     ---       #560
      ---         BLOCKEND  ---      ---       LVL=0
      WR14        REGSYM    ---      INT       pin

      00FF8A1DH   BLOCK     CODE     ---       LVL=0
      WR4         REGSYM    ---      INT       pin
      00FF8A1DH   LINE      CODE     ---       #587
      00FF8A1FH   LINE      CODE     ---       #589
      00FF8A53H   LINE      CODE     ---       #591
      00FF8A53H   LINE      CODE     ---       #593
      00FF8A66H   LINE      CODE     ---       #594
      00FF8A7BH   LINE      CODE     ---       #596
      00FF8A7EH   LINE      CODE     ---       #598
      00FF8A7EH   LINE      CODE     ---       #600
      00FF8A91H   LINE      CODE     ---       #601
      00FF8AA6H   LINE      CODE     ---       #603
      00FF8AA9H   LINE      CODE     ---       #605
      00FF8AA9H   LINE      CODE     ---       #607
      00FF8ABCH   LINE      CODE     ---       #608
      00FF8AD1H   LINE      CODE     ---       #610
      00FF8AD4H   LINE      CODE     ---       #612
      00FF8AD4H   LINE      CODE     ---       #614
      00FF8AE7H   LINE      CODE     ---       #615
L251 LINKER/LOCATER V4.66.93.0                                                        10/23/2025  22:33:42  PAGE 67


      00FF8AFCH   LINE      CODE     ---       #617
      00FF8AFEH   LINE      CODE     ---       #619
      00FF8AFEH   LINE      CODE     ---       #621
      00FF8B11H   LINE      CODE     ---       #622
      00FF8B26H   LINE      CODE     ---       #624
      00FF8B28H   LINE      CODE     ---       #626
      00FF8B28H   LINE      CODE     ---       #628
      00FF8B3BH   LINE      CODE     ---       #629
      00FF8B50H   LINE      CODE     ---       #631
      00FF8B52H   LINE      CODE     ---       #633
      00FF8B52H   LINE      CODE     ---       #635
      00FF8B62H   LINE      CODE     ---       #637
      00FF8B62H   LINE      CODE     ---       #638
      00FF8B62H   LINE      CODE     ---       #639
      ---         BLOCKEND  ---      ---       LVL=0

      00FF9A78H   BLOCK     CODE     ---       LVL=0
      WR14        REGSYM    ---      INT       pin
      0001101AH   SYMBOL    XDATA    INT       dir
      0001101CH   SYMBOL    XDATA    BYTE      dat
      WR12        REGSYM    ---      INT       mode
      00FF9A78H   LINE      CODE     ---       #650
      00FF9A88H   LINE      CODE     ---       #652
      00FF9AB0H   LINE      CODE     ---       #654
      00FF9ABCH   LINE      CODE     ---       #656
      00FF9AC5H   LINE      CODE     ---       #657
      00FF9ACCH   LINE      CODE     ---       #658
      00FF9ACEH   LINE      CODE     ---       #659
      00FF9AD8H   LINE      CODE     ---       #661
      00FF9ADCH   LINE      CODE     ---       #663
      00FF9AE1H   LINE      CODE     ---       #664
      00FF9AE3H   LINE      CODE     ---       #667
      00FF9AEAH   LINE      CODE     ---       #668
      00FF9AF1H   LINE      CODE     ---       #669
      00FF9AF1H   LINE      CODE     ---       #670
      00FF9AF3H   LINE      CODE     ---       #671
      00FF9AFFH   LINE      CODE     ---       #673
      00FF9B05H   LINE      CODE     ---       #675
      00FF9B0EH   LINE      CODE     ---       #676
      00FF9B17H   LINE      CODE     ---       #677
      00FF9B19H   LINE      CODE     ---       #678
      00FF9B1FH   LINE      CODE     ---       #680
      00FF9B28H   LINE      CODE     ---       #681
      00FF9B28H   LINE      CODE     ---       #683
      00FF9B31H   LINE      CODE     ---       #684
      ---         BLOCKEND  ---      ---       LVL=0

      ---         MODULE    ---      ---       zf_driver_pit
      00FF7D72H   PUBLIC    CODE     ---       pit_init
      000000D0H   SFRSYM    DATA     BYTE      PSW
      0000009DH   SFRSYM    DATA     BYTE      IRCBAND
      00000097H   SFRSYM    DATA     BYTE      AUXR2
      000000EFH   SFRSYM    DATA     BYTE      AUXINTIF
      000000FDH   SFRSYM    DATA     BYTE      S4CON
      000000ACH   SFRSYM    DATA     BYTE      S3CON
      0000009AH   SFRSYM    DATA     BYTE      S2CON
      000000B7H   SFRSYM    DATA     BYTE      IPH
      000000CDH   SFRSYM    DATA     BYTE      SPSTAT
      000000DDH   SFRSYM    DATA     BYTE      T4T3M
      000000C1H   SFRSYM    DATA     BYTE      WDT_CONTR
      00000088H.6 SFRSYM    DATA     BIT       TR1
      00000088H.4 SFRSYM    DATA     BIT       TR0
      000000D3H   SFRSYM    DATA     BYTE      T4L
      000000D5H   SFRSYM    DATA     BYTE      T3L
      000000D7H   SFRSYM    DATA     BYTE      T2L
L251 LINKER/LOCATER V4.66.93.0                                                        10/23/2025  22:33:42  PAGE 68


      0000008BH   SFRSYM    DATA     BYTE      TL1
      0000008AH   SFRSYM    DATA     BYTE      TL0
      000000D2H   SFRSYM    DATA     BYTE      T4H
      000000D4H   SFRSYM    DATA     BYTE      T3H
      000000D6H   SFRSYM    DATA     BYTE      T2H
      0000008DH   SFRSYM    DATA     BYTE      TH1
      0000008CH   SFRSYM    DATA     BYTE      TH0
      000000DFH   SFRSYM    DATA     BYTE      IP3
      000000F4H   SFRSYM    DATA     BYTE      USBCON
      000000B5H   SFRSYM    DATA     BYTE      IP2
      000000FFH   SFRSYM    DATA     BYTE      RSTCFG
      000000A8H.3 SFRSYM    DATA     BIT       ET1
      000000A8H.1 SFRSYM    DATA     BIT       ET0
      000000C7H   SFRSYM    DATA     BYTE      IAP_CONTR
      0000008EH   SFRSYM    DATA     BYTE      AUXR
      000000AFH   SFRSYM    DATA     BYTE      IE2
      00000088H   SFRSYM    DATA     BYTE      TCON
      00000089H   SFRSYM    DATA     BYTE      TMOD
      00000098H   SFRSYM    DATA     BYTE      SCON
      00000087H   SFRSYM    DATA     BYTE      PCON
      000000BCH   SFRSYM    DATA     BYTE      ADC_CONTR
      000000D1H   SFRSYM    DATA     BYTE      PSW1
      000000E7H   SFRSYM    DATA     BYTE      CMPCR2
      000000E6H   SFRSYM    DATA     BYTE      CMPCR1
      000000DEH   SFRSYM    DATA     BYTE      ADCCFG
      000000B8H   SFRSYM    DATA     BYTE      IP
      0000008FH   SFRSYM    DATA     BYTE      INTCLKO
      000000EEH   SFRSYM    DATA     BYTE      IP3H
      000000B6H   SFRSYM    DATA     BYTE      IP2H
      000000BFH   SFRSYM    DATA     BYTE      P_SW4
      000000A8H   SFRSYM    DATA     BYTE      IE
      000000BBH   SFRSYM    DATA     BYTE      P_SW3
      000000BAH   SFRSYM    DATA     BYTE      P_SW2
      000000A2H   SFRSYM    DATA     BYTE      P_SW1
      000000CEH   SFRSYM    DATA     BYTE      SPCTL
      000000F8H   SFRSYM    DATA     BYTE      P7
      000000E8H   SFRSYM    DATA     BYTE      P6
      000000C8H   SFRSYM    DATA     BYTE      P5
      000000C0H   SFRSYM    DATA     BYTE      P4
      000000ABH   SFRSYM    DATA     BYTE      WKTCH
      000000B0H   SFRSYM    DATA     BYTE      P3
      000000A0H   SFRSYM    DATA     BYTE      P2
      00000090H   SFRSYM    DATA     BYTE      P1
      00000080H   SFRSYM    DATA     BYTE      P0

      00FF7D72H   BLOCK     CODE     ---       LVL=0
      WR30        REGSYM    ---      INT       pit_n
      DR24        REGSYM    ---      DWORD     period
      00FF7D78H   BLOCK     CODE     NEAR LAB  LVL=1
      R15         REGSYM    ---      BYTE      freq_div
      WR22        REGSYM    ---      WORD      period_temp
      WR28        REGSYM    ---      WORD      temp
      ---         BLOCKEND  ---      ---       LVL=1
      00FF7D72H   LINE      CODE     ---       #50
      00FF7D78H   LINE      CODE     ---       #51
      00FF7D78H   LINE      CODE     ---       #52
      00FF7D7AH   LINE      CODE     ---       #53
      00FF7D7CH   LINE      CODE     ---       #54
      00FF7D7EH   LINE      CODE     ---       #57
      00FF7D8AH   LINE      CODE     ---       #60
      00FF7D95H   LINE      CODE     ---       #62
      00FF7D99H   LINE      CODE     ---       #64
      00FF7D9CH   LINE      CODE     ---       #65
      00FF7D9FH   LINE      CODE     ---       #66
      00FF7DA5H   LINE      CODE     ---       #68
L251 LINKER/LOCATER V4.66.93.0                                                        10/23/2025  22:33:42  PAGE 69


      00FF7DA8H   LINE      CODE     ---       #69
      00FF7DABH   LINE      CODE     ---       #70
      00FF7DB1H   LINE      CODE     ---       #72
      00FF7DB4H   LINE      CODE     ---       #73
      00FF7DB6H   LINE      CODE     ---       #74
      00FF7DBCH   LINE      CODE     ---       #76
      00FF7DBFH   LINE      CODE     ---       #77
      00FF7DC1H   LINE      CODE     ---       #78
      00FF7DC7H   LINE      CODE     ---       #80
      00FF7DCAH   LINE      CODE     ---       #81
      00FF7DCCH   LINE      CODE     ---       #82
      00FF7DD2H   LINE      CODE     ---       #84
      00FF7DE2H   LINE      CODE     ---       #85
      00FF7DE4H   LINE      CODE     ---       #91
      00FF7DE8H   LINE      CODE     ---       #93
      00FF7DEBH   LINE      CODE     ---       #94
      00FF7DEDH   LINE      CODE     ---       #95
      00FF7DF3H   LINE      CODE     ---       #97
      00FF7DF6H   LINE      CODE     ---       #98
      00FF7DF8H   LINE      CODE     ---       #99
      00FF7DFEH   LINE      CODE     ---       #101
      00FF7E01H   LINE      CODE     ---       #102
      00FF7E03H   LINE      CODE     ---       #103
      00FF7E09H   LINE      CODE     ---       #105
      00FF7E0CH   LINE      CODE     ---       #106
      00FF7E0EH   LINE      CODE     ---       #107
      00FF7E14H   LINE      CODE     ---       #109
      00FF7E17H   LINE      CODE     ---       #110
      00FF7E19H   LINE      CODE     ---       #111
      00FF7E1FH   LINE      CODE     ---       #113
      00FF7E2FH   LINE      CODE     ---       #114
      00FF7E2FH   LINE      CODE     ---       #118
      00FF7E3FH   LINE      CODE     ---       #119
      00FF7E4CH   LINE      CODE     ---       #121
      00FF7E50H   LINE      CODE     ---       #123
      00FF7E54H   LINE      CODE     ---       #125
      00FF7E5FH   LINE      CODE     ---       #126
      00FF7E63H   LINE      CODE     ---       #127
      00FF7E69H   LINE      CODE     ---       #128
      00FF7E6FH   LINE      CODE     ---       #129
      00FF7E71H   LINE      CODE     ---       #130
      00FF7E73H   LINE      CODE     ---       #131
      00FF7E76H   LINE      CODE     ---       #132
      00FF7E7CH   LINE      CODE     ---       #134
      00FF7E87H   LINE      CODE     ---       #135
      00FF7E8BH   LINE      CODE     ---       #136
      00FF7E91H   LINE      CODE     ---       #137
      00FF7E97H   LINE      CODE     ---       #138
      00FF7E99H   LINE      CODE     ---       #139
      00FF7E9BH   LINE      CODE     ---       #140
      00FF7E9EH   LINE      CODE     ---       #141
      00FF7EA4H   LINE      CODE     ---       #143
      00FF7EAFH   LINE      CODE     ---       #144
      00FF7EB5H   LINE      CODE     ---       #145
      00FF7EBBH   LINE      CODE     ---       #146
      00FF7EBEH   LINE      CODE     ---       #147
      00FF7EC1H   LINE      CODE     ---       #148
      00FF7EC4H   LINE      CODE     ---       #149
      00FF7ECAH   LINE      CODE     ---       #151
      00FF7ED5H   LINE      CODE     ---       #152
      00FF7EDBH   LINE      CODE     ---       #153
      00FF7EE1H   LINE      CODE     ---       #154
      00FF7EE4H   LINE      CODE     ---       #155
      00FF7EE7H   LINE      CODE     ---       #156
      00FF7EE9H   LINE      CODE     ---       #157
L251 LINKER/LOCATER V4.66.93.0                                                        10/23/2025  22:33:42  PAGE 70


      00FF7EEFH   LINE      CODE     ---       #159
      00FF7EFAH   LINE      CODE     ---       #160
      00FF7F00H   LINE      CODE     ---       #161
      00FF7F06H   LINE      CODE     ---       #162
      00FF7F09H   LINE      CODE     ---       #163
      00FF7F0CH   LINE      CODE     ---       #164
      00FF7F0EH   LINE      CODE     ---       #165
      00FF7F14H   LINE      CODE     ---       #167
      00FF7F1FH   LINE      CODE     ---       #168
      00FF7F2EH   LINE      CODE     ---       #169
      00FF7F3DH   LINE      CODE     ---       #170
      00FF7F4AH   LINE      CODE     ---       #172
      ---         BLOCKEND  ---      ---       LVL=0

      ---         MODULE    ---      ---       zf_driver_pwm
      00FFD58EH   PUBLIC    HCONST   ---       PWM_PSCR_ADDR
      00FFD596H   PUBLIC    HCONST   ---       PWM_CCR_ADDR
      00FFD5B6H   PUBLIC    HCONST   ---       PWM_ARR_ADDR
      00FFD5BEH   PUBLIC    HCONST   ---       PWM_CCER_ADDR
      00FFD5CEH   PUBLIC    HCONST   ---       PWM_CCMR_ADDR
      00FF8481H   PUBLIC    CODE     ---       pwm_set_duty
      00FF5A33H   PUBLIC    CODE     ---       pwm_init
      00011008H   PUBLIC    XDATA    BYTE      ?pwm_init?BYTE
      000000D0H   SFRSYM    DATA     BYTE      PSW
      0000009DH   SFRSYM    DATA     BYTE      IRCBAND
      00000097H   SFRSYM    DATA     BYTE      AUXR2
      000000EFH   SFRSYM    DATA     BYTE      AUXINTIF
      000000FDH   SFRSYM    DATA     BYTE      S4CON
      000000ACH   SFRSYM    DATA     BYTE      S3CON
      0000009AH   SFRSYM    DATA     BYTE      S2CON
      000000B7H   SFRSYM    DATA     BYTE      IPH
      000000CDH   SFRSYM    DATA     BYTE      SPSTAT
      000000DDH   SFRSYM    DATA     BYTE      T4T3M
      000000C1H   SFRSYM    DATA     BYTE      WDT_CONTR
      000000DFH   SFRSYM    DATA     BYTE      IP3
      000000F4H   SFRSYM    DATA     BYTE      USBCON
      000000B5H   SFRSYM    DATA     BYTE      IP2
      000000FFH   SFRSYM    DATA     BYTE      RSTCFG
      000000C7H   SFRSYM    DATA     BYTE      IAP_CONTR
      0000008EH   SFRSYM    DATA     BYTE      AUXR
      000000AFH   SFRSYM    DATA     BYTE      IE2
      00000088H   SFRSYM    DATA     BYTE      TCON
      00000089H   SFRSYM    DATA     BYTE      TMOD
      00000098H   SFRSYM    DATA     BYTE      SCON
      00000087H   SFRSYM    DATA     BYTE      PCON
      000000BCH   SFRSYM    DATA     BYTE      ADC_CONTR
      000000D1H   SFRSYM    DATA     BYTE      PSW1
      000000E7H   SFRSYM    DATA     BYTE      CMPCR2
      000000E6H   SFRSYM    DATA     BYTE      CMPCR1
      000000DEH   SFRSYM    DATA     BYTE      ADCCFG
      000000B8H   SFRSYM    DATA     BYTE      IP
      0000008FH   SFRSYM    DATA     BYTE      INTCLKO
      000000EEH   SFRSYM    DATA     BYTE      IP3H
      000000B6H   SFRSYM    DATA     BYTE      IP2H
      000000BFH   SFRSYM    DATA     BYTE      P_SW4
      000000A8H   SFRSYM    DATA     BYTE      IE
      000000BBH   SFRSYM    DATA     BYTE      P_SW3
      000000BAH   SFRSYM    DATA     BYTE      P_SW2
      000000A2H   SFRSYM    DATA     BYTE      P_SW1
      000000CEH   SFRSYM    DATA     BYTE      SPCTL
      000000F8H   SFRSYM    DATA     BYTE      P7
      000000E8H   SFRSYM    DATA     BYTE      P6
      000000C8H   SFRSYM    DATA     BYTE      P5
      000000C0H   SFRSYM    DATA     BYTE      P4
      000000ABH   SFRSYM    DATA     BYTE      WKTCH
L251 LINKER/LOCATER V4.66.93.0                                                        10/23/2025  22:33:42  PAGE 71


      000000B0H   SFRSYM    DATA     BYTE      P3
      000000A0H   SFRSYM    DATA     BYTE      P2
      00000090H   SFRSYM    DATA     BYTE      P1
      00000080H   SFRSYM    DATA     BYTE      P0
      WR14        REGSYM    ---      INT       pin
      WR12        REGSYM    ---      WORD      freq_div

      00FF8481H   BLOCK     CODE     ---       LVL=0
      WR14        REGSYM    ---      INT       pin
      0001100EH   SYMBOL    XDATA    DWORD     duty
      00FF848FH   BLOCK     CODE     NEAR LAB  LVL=1
      00011012H   SYMBOL    XDATA    DWORD     match_temp
      00011016H   SYMBOL    XDATA    DWORD     arr
      ---         BLOCKEND  ---      ---       LVL=1
      00FF8481H   LINE      CODE     ---       #132
      00FF848FH   LINE      CODE     ---       #133
      00FF848FH   LINE      CODE     ---       #135
      00FF84EDH   LINE      CODE     ---       #138
      00FF8511H   LINE      CODE     ---       #140
      00FF8521H   LINE      CODE     ---       #142
      00FF855AH   LINE      CODE     ---       #143
      00FF855CH   LINE      CODE     ---       #146
      00FF8572H   LINE      CODE     ---       #147
      00FF8572H   LINE      CODE     ---       #150
      00FF85C0H   LINE      CODE     ---       #151
      00FF860EH   LINE      CODE     ---       #153
      ---         BLOCKEND  ---      ---       LVL=0

      00FF5A33H   BLOCK     CODE     ---       LVL=0
      WR14        REGSYM    ---      INT       pin
      0001100AH   SYMBOL    XDATA    DWORD     freq
      0001100EH   SYMBOL    XDATA    DWORD     duty
      00FF5A41H   BLOCK     CODE     NEAR LAB  LVL=1
      00011012H   SYMBOL    XDATA    WORD      match_temp
      00011014H   SYMBOL    XDATA    DWORD     period_temp
      WR12        REGSYM    ---      WORD      freq_div
      ---         BLOCKEND  ---      ---       LVL=1
      00FF5A33H   LINE      CODE     ---       #164
      00FF5A41H   LINE      CODE     ---       #165
      00FF5A41H   LINE      CODE     ---       #167
      00FF5A49H   LINE      CODE     ---       #168
      00FF5A55H   LINE      CODE     ---       #169
      00FF5A57H   LINE      CODE     ---       #172
      00FF5A7BH   LINE      CODE     ---       #174
      00FF5A8DH   LINE      CODE     ---       #178
      00FF5AAAH   LINE      CODE     ---       #179
      00FF5ACBH   LINE      CODE     ---       #180
      00FF5AE8H   LINE      CODE     ---       #182
      00FF5AF8H   LINE      CODE     ---       #184
      00FF5B2DH   LINE      CODE     ---       #185
      00FF5B2FH   LINE      CODE     ---       #188
      00FF5B41H   LINE      CODE     ---       #189
      00FF5B41H   LINE      CODE     ---       #191
      00FF5B6BH   LINE      CODE     ---       #192
      00FF5B95H   LINE      CODE     ---       #194
      00FF5BC7H   LINE      CODE     ---       #195
      00FF5BF9H   LINE      CODE     ---       #197
      00FF5C45H   LINE      CODE     ---       #198
      00FF5C8FH   LINE      CODE     ---       #200
      00FF5C9EH   LINE      CODE     ---       #202
      00FF5CDDH   LINE      CODE     ---       #203
      00FF5D12H   LINE      CODE     ---       #204
      00FF5D8CH   LINE      CODE     ---       #206
      00FF5D99H   LINE      CODE     ---       #207
      00FF5DA6H   LINE      CODE     ---       #208
L251 LINKER/LOCATER V4.66.93.0                                                        10/23/2025  22:33:42  PAGE 72


      00FF5DA9H   LINE      CODE     ---       #209
      00FF5DBCH   LINE      CODE     ---       #211
      00FF5DFBH   LINE      CODE     ---       #212
      00FF5E30H   LINE      CODE     ---       #213
      00FF5E98H   LINE      CODE     ---       #215
      00FF5EA5H   LINE      CODE     ---       #216
      00FF5EB2H   LINE      CODE     ---       #217
      00FF5EB2H   LINE      CODE     ---       #219
      00FF5EF9H   LINE      CODE     ---       #220
      00FF5F40H   LINE      CODE     ---       #221
      ---         BLOCKEND  ---      ---       LVL=0

      ---         MODULE    ---      ---       zf_driver_soft_iic
      00FFAAF0H   PUBLIC    CODE     ---       soft_iic_wait_ack
      00FFADFFH   PUBLIC    CODE     ---       soft_iic_stop
      00FFB5B6H   PUBLIC    CODE     ---       soft_iic_delay
      00FF9CA9H   PUBLIC    CODE     ---       soft_iic_read_data
      00FFA5A1H   PUBLIC    CODE     ---       soft_iic_send_data
      00FFAFD4H   PUBLIC    CODE     ---       soft_iic_start
      00FFABE0H   PUBLIC    CODE     ---       soft_iic_send_ack
      000000D0H   SFRSYM    DATA     BYTE      PSW
      0000009DH   SFRSYM    DATA     BYTE      IRCBAND
      00000097H   SFRSYM    DATA     BYTE      AUXR2
      000000EFH   SFRSYM    DATA     BYTE      AUXINTIF
      000000FDH   SFRSYM    DATA     BYTE      S4CON
      000000ACH   SFRSYM    DATA     BYTE      S3CON
      0000009AH   SFRSYM    DATA     BYTE      S2CON
      000000B7H   SFRSYM    DATA     BYTE      IPH
      000000CDH   SFRSYM    DATA     BYTE      SPSTAT
      000000DDH   SFRSYM    DATA     BYTE      T4T3M
      000000C1H   SFRSYM    DATA     BYTE      WDT_CONTR
      000000DFH   SFRSYM    DATA     BYTE      IP3
      000000F4H   SFRSYM    DATA     BYTE      USBCON
      000000B5H   SFRSYM    DATA     BYTE      IP2
      000000FFH   SFRSYM    DATA     BYTE      RSTCFG
      000000C7H   SFRSYM    DATA     BYTE      IAP_CONTR
      0000008EH   SFRSYM    DATA     BYTE      AUXR
      000000AFH   SFRSYM    DATA     BYTE      IE2
      00000088H   SFRSYM    DATA     BYTE      TCON
      00000089H   SFRSYM    DATA     BYTE      TMOD
      00000098H   SFRSYM    DATA     BYTE      SCON
      00000087H   SFRSYM    DATA     BYTE      PCON
      000000BCH   SFRSYM    DATA     BYTE      ADC_CONTR
      000000D1H   SFRSYM    DATA     BYTE      PSW1
      000000E7H   SFRSYM    DATA     BYTE      CMPCR2
      000000E6H   SFRSYM    DATA     BYTE      CMPCR1
      000000DEH   SFRSYM    DATA     BYTE      ADCCFG
      000000B8H   SFRSYM    DATA     BYTE      IP
      0000008FH   SFRSYM    DATA     BYTE      INTCLKO
      000000EEH   SFRSYM    DATA     BYTE      IP3H
      000000B6H   SFRSYM    DATA     BYTE      IP2H
      000000BFH   SFRSYM    DATA     BYTE      P_SW4
      000000A8H   SFRSYM    DATA     BYTE      IE
      000000BBH   SFRSYM    DATA     BYTE      P_SW3
      000000BAH   SFRSYM    DATA     BYTE      P_SW2
      000000A2H   SFRSYM    DATA     BYTE      P_SW1
      000000CEH   SFRSYM    DATA     BYTE      SPCTL
      000000F8H   SFRSYM    DATA     BYTE      P7
      000000E8H   SFRSYM    DATA     BYTE      P6
      000000C8H   SFRSYM    DATA     BYTE      P5
      000000C0H   SFRSYM    DATA     BYTE      P4
      000000ABH   SFRSYM    DATA     BYTE      WKTCH
      000000B0H   SFRSYM    DATA     BYTE      P3
      000000A0H   SFRSYM    DATA     BYTE      P2
      00000090H   SFRSYM    DATA     BYTE      P1
L251 LINKER/LOCATER V4.66.93.0                                                        10/23/2025  22:33:42  PAGE 73


      00000080H   SFRSYM    DATA     BYTE      P0

      00FFB5B6H   BLOCK     CODE     ---       LVL=0
      000112D7H   SYMBOL    XDATA    DWORD     delay
      00FFB5C0H   BLOCK     CODE     NEAR LAB  LVL=1
      000112DBH   SYMBOL    XDATA    DWORD     count
      ---         BLOCKEND  ---      ---       LVL=1
      00FFB5B6H   LINE      CODE     ---       #53
      00FFB5C0H   LINE      CODE     ---       #54
      00FFB5C0H   LINE      CODE     ---       #55
      00FFB5D4H   LINE      CODE     ---       #56
      00FFB5EDH   LINE      CODE     ---       #57
      ---         BLOCKEND  ---      ---       LVL=0

      00FFAFD4H   BLOCK     CODE     ---       LVL=0
      REG=3       REGSYM    ---      ---       soft_iic_obj
      00FFAFD4H   LINE      CODE     ---       #67
      00FFAFD8H   LINE      CODE     ---       #69
      00FFAFF2H   LINE      CODE     ---       #70
      00FFAFFAH   LINE      CODE     ---       #71
      00FFB003H   LINE      CODE     ---       #73
      00FFB00EH   LINE      CODE     ---       #74
      00FFB016H   LINE      CODE     ---       #75
      00FFB021H   LINE      CODE     ---       #76
      00FFB028H   LINE      CODE     ---       #77
      ---         BLOCKEND  ---      ---       LVL=0

      00FFADFFH   BLOCK     CODE     ---       LVL=0
      REG=3       REGSYM    ---      ---       soft_iic_obj
      00FFADFFH   LINE      CODE     ---       #86
      00FFAE03H   LINE      CODE     ---       #88
      00FFAE1DH   LINE      CODE     ---       #89
      00FFAE25H   LINE      CODE     ---       #90
      00FFAE2CH   LINE      CODE     ---       #92
      00FFAE37H   LINE      CODE     ---       #93
      00FFAE3FH   LINE      CODE     ---       #94
      00FFAE4AH   LINE      CODE     ---       #95
      00FFAE53H   LINE      CODE     ---       #96
      00FFAE5EH   LINE      CODE     ---       #97
      ---         BLOCKEND  ---      ---       LVL=0

      00FFABE0H   BLOCK     CODE     ---       LVL=0
      REG=3       REGSYM    ---      ---       soft_iic_obj
      00011316H   SYMBOL    XDATA    BYTE      ack
      00FFABE0H   LINE      CODE     ---       #107
      00FFABE8H   LINE      CODE     ---       #109
      00FFAC02H   LINE      CODE     ---       #110
      00FFAC09H   LINE      CODE     ---       #112
      00FFAC0FH   LINE      CODE     ---       #114
      00FFAC18H   LINE      CODE     ---       #115
      00FFAC1AH   LINE      CODE     ---       #118
      00FFAC22H   LINE      CODE     ---       #119
      00FFAC22H   LINE      CODE     ---       #121
      00FFAC2DH   LINE      CODE     ---       #122
      00FFAC35H   LINE      CODE     ---       #123
      00FFAC40H   LINE      CODE     ---       #124
      00FFAC47H   LINE      CODE     ---       #125
      00FFAC50H   LINE      CODE     ---       #126
      ---         BLOCKEND  ---      ---       LVL=0

      00FFAAF0H   BLOCK     CODE     ---       LVL=0
      REG=3       REGSYM    ---      ---       soft_iic_obj
      00FFAAF4H   BLOCK     CODE     NEAR LAB  LVL=1
      00011317H   SYMBOL    XDATA    BYTE      temp
      ---         BLOCKEND  ---      ---       LVL=1
L251 LINKER/LOCATER V4.66.93.0                                                        10/23/2025  22:33:42  PAGE 74


      00FFAAF0H   LINE      CODE     ---       #135
      00FFAAF4H   LINE      CODE     ---       #136
      00FFAAF4H   LINE      CODE     ---       #137
      00FFAAF9H   LINE      CODE     ---       #138
      00FFAB13H   LINE      CODE     ---       #140
      00FFAB1AH   LINE      CODE     ---       #141
      00FFAB23H   LINE      CODE     ---       #145
      00FFAB2EH   LINE      CODE     ---       #147
      00FFAB36H   LINE      CODE     ---       #148
      00FFAB41H   LINE      CODE     ---       #150
      00FFAB4AH   LINE      CODE     ---       #152
      00FFAB50H   LINE      CODE     ---       #153
      00FFAB50H   LINE      CODE     ---       #154
      00FFAB57H   LINE      CODE     ---       #158
      00FFAB62H   LINE      CODE     ---       #160
      00FFAB66H   LINE      CODE     ---       #161
      ---         BLOCKEND  ---      ---       LVL=0

      00FFA5A1H   BLOCK     CODE     ---       LVL=0
      REG=3       REGSYM    ---      ---       soft_iic_obj
      00011313H   SYMBOL    XDATA    BYTE      dat
      00FFA5A9H   BLOCK     CODE     NEAR LAB  LVL=1
      00011314H   SYMBOL    XDATA    BYTE      temp
      ---         BLOCKEND  ---      ---       LVL=1
      00FFA5A1H   LINE      CODE     ---       #170
      00FFA5A9H   LINE      CODE     ---       #171
      00FFA5A9H   LINE      CODE     ---       #172
      00FFA5AFH   LINE      CODE     ---       #174
      00FFA5C9H   LINE      CODE     ---       #176
      00FFA5CBH   LINE      CODE     ---       #179
      00FFA5F0H   LINE      CODE     ---       #180
      00FFA5F7H   LINE      CODE     ---       #182
      00FFA602H   LINE      CODE     ---       #183
      00FFA60AH   LINE      CODE     ---       #184
      00FFA615H   LINE      CODE     ---       #185
      00FFA61CH   LINE      CODE     ---       #186
      00FFA622H   LINE      CODE     ---       #187
      00FFA62FH   LINE      CODE     ---       #188
      ---         BLOCKEND  ---      ---       LVL=0

      00FF9CA9H   BLOCK     CODE     ---       LVL=0
      REG=3       REGSYM    ---      ---       soft_iic_obj
      00011310H   SYMBOL    XDATA    BYTE      ack
      00FF9CB1H   BLOCK     CODE     NEAR LAB  LVL=1
      00011311H   SYMBOL    XDATA    BYTE      dat
      00011312H   SYMBOL    XDATA    BYTE      temp
      ---         BLOCKEND  ---      ---       LVL=1
      00FF9CA9H   LINE      CODE     ---       #197
      00FF9CB1H   LINE      CODE     ---       #198
      00FF9CB1H   LINE      CODE     ---       #199
      00FF9CB6H   LINE      CODE     ---       #200
      00FF9CBCH   LINE      CODE     ---       #201
      00FF9CD6H   LINE      CODE     ---       #202
      00FF9CDDH   LINE      CODE     ---       #203
      00FF9CE8H   LINE      CODE     ---       #204
      00FF9CF1H   LINE      CODE     ---       #209
      00FF9CF3H   LINE      CODE     ---       #211
      00FF9CFAH   LINE      CODE     ---       #212
      00FF9D05H   LINE      CODE     ---       #213
      00FF9D0DH   LINE      CODE     ---       #214
      00FF9D18H   LINE      CODE     ---       #215
      00FF9D2DH   LINE      CODE     ---       #216
      00FF9D3BH   LINE      CODE     ---       #217
      00FF9D42H   LINE      CODE     ---       #221
      00FF9D4DH   LINE      CODE     ---       #222
L251 LINKER/LOCATER V4.66.93.0                                                        10/23/2025  22:33:42  PAGE 75


      00FF9D56H   LINE      CODE     ---       #223
      00FF9D5AH   LINE      CODE     ---       #224
      ---         BLOCKEND  ---      ---       LVL=0
      REG=3       REGSYM    ---      ---       soft_iic_obj
      REG=3       REGSYM    ---      ---       soft_iic_obj
      REG=3       REGSYM    ---      ---       soft_iic_obj
      REG=3       REGSYM    ---      ---       soft_iic_obj
      REG=3       REGSYM    ---      ---       soft_iic_obj
      REG=3       REGSYM    ---      ---       soft_iic_obj
      REG=3       REGSYM    ---      ---       soft_iic_obj
      REG=3       REGSYM    ---      ---       soft_iic_obj
      REG=3       REGSYM    ---      ---       soft_iic_obj
      REG=3       REGSYM    ---      ---       soft_iic_obj
      REG=3       REGSYM    ---      ---       soft_iic_obj
      REG=3       REGSYM    ---      ---       soft_iic_obj
      REG=3       REGSYM    ---      ---       soft_iic_obj
      REG=3       REGSYM    ---      ---       soft_iic_obj
      REG=3       REGSYM    ---      ---       soft_iic_obj
      REG=3       REGSYM    ---      ---       soft_iic_obj
      REG=3       REGSYM    ---      ---       soft_iic_obj
      REG=3       REGSYM    ---      ---       soft_iic_obj
      REG=3       REGSYM    ---      ---       soft_iic_obj
      REG=3       REGSYM    ---      ---       soft_iic_obj
      REG=3       REGSYM    ---      ---       soft_iic_obj

      ---         MODULE    ---      ---       zf_driver_soft_spi
      000000D0H   SFRSYM    DATA     BYTE      PSW
      0000009DH   SFRSYM    DATA     BYTE      IRCBAND
      00000097H   SFRSYM    DATA     BYTE      AUXR2
      000000EFH   SFRSYM    DATA     BYTE      AUXINTIF
      000000FDH   SFRSYM    DATA     BYTE      S4CON
      000000ACH   SFRSYM    DATA     BYTE      S3CON
      0000009AH   SFRSYM    DATA     BYTE      S2CON
      000000B7H   SFRSYM    DATA     BYTE      IPH
      000000CDH   SFRSYM    DATA     BYTE      SPSTAT
      000000DDH   SFRSYM    DATA     BYTE      T4T3M
      000000C1H   SFRSYM    DATA     BYTE      WDT_CONTR
      000000DFH   SFRSYM    DATA     BYTE      IP3
      000000F4H   SFRSYM    DATA     BYTE      USBCON
      000000B5H   SFRSYM    DATA     BYTE      IP2
      000000FFH   SFRSYM    DATA     BYTE      RSTCFG
      000000C7H   SFRSYM    DATA     BYTE      IAP_CONTR
      0000008EH   SFRSYM    DATA     BYTE      AUXR
      000000AFH   SFRSYM    DATA     BYTE      IE2
      00000088H   SFRSYM    DATA     BYTE      TCON
      00000089H   SFRSYM    DATA     BYTE      TMOD
      00000098H   SFRSYM    DATA     BYTE      SCON
      00000087H   SFRSYM    DATA     BYTE      PCON
      000000BCH   SFRSYM    DATA     BYTE      ADC_CONTR
      000000D1H   SFRSYM    DATA     BYTE      PSW1
      000000E7H   SFRSYM    DATA     BYTE      CMPCR2
      000000E6H   SFRSYM    DATA     BYTE      CMPCR1
      000000DEH   SFRSYM    DATA     BYTE      ADCCFG
      000000B8H   SFRSYM    DATA     BYTE      IP
      0000008FH   SFRSYM    DATA     BYTE      INTCLKO
      000000EEH   SFRSYM    DATA     BYTE      IP3H
      000000B6H   SFRSYM    DATA     BYTE      IP2H
      000000BFH   SFRSYM    DATA     BYTE      P_SW4
      000000A8H   SFRSYM    DATA     BYTE      IE
      000000BBH   SFRSYM    DATA     BYTE      P_SW3
      000000BAH   SFRSYM    DATA     BYTE      P_SW2
      000000A2H   SFRSYM    DATA     BYTE      P_SW1
      000000CEH   SFRSYM    DATA     BYTE      SPCTL
      000000F8H   SFRSYM    DATA     BYTE      P7
      000000E8H   SFRSYM    DATA     BYTE      P6
L251 LINKER/LOCATER V4.66.93.0                                                        10/23/2025  22:33:42  PAGE 76


      000000C8H   SFRSYM    DATA     BYTE      P5
      000000C0H   SFRSYM    DATA     BYTE      P4
      000000ABH   SFRSYM    DATA     BYTE      WKTCH
      000000B0H   SFRSYM    DATA     BYTE      P3
      000000A0H   SFRSYM    DATA     BYTE      P2
      00000090H   SFRSYM    DATA     BYTE      P1
      00000080H   SFRSYM    DATA     BYTE      P0
      DR0         REGSYM    ---      DWORD     x
      REG=3       REGSYM    ---      ---       soft_spi_obj
      R10         REGSYM    ---      BYTE      dat
      REG=3       REGSYM    ---      ---       soft_spi_obj
      WR6         REGSYM    ---      WORD      dat
      REG=3       REGSYM    ---      ---       soft_spi_obj
      REG=3       REGSYM    ---      ---       soft_spi_obj
      REG=3       REGSYM    ---      ---       soft_spi_obj
      REG=3       REGSYM    ---      ---       soft_spi_obj
      REG=3       REGSYM    ---      ---       soft_spi_obj
      REG=3       REGSYM    ---      ---       soft_spi_obj
      REG=3       REGSYM    ---      ---       soft_spi_obj
      REG=3       REGSYM    ---      ---       soft_spi_obj
      REG=3       REGSYM    ---      ---       soft_spi_obj
      REG=3       REGSYM    ---      ---       soft_spi_obj
      REG=3       REGSYM    ---      ---       soft_spi_obj
      REG=3       REGSYM    ---      ---       soft_spi_obj
      REG=3       REGSYM    ---      ---       soft_spi_obj
      REG=3       REGSYM    ---      ---       soft_spi_obj
      REG=3       REGSYM    ---      ---       soft_spi_obj
      REG=3       REGSYM    ---      ---       soft_spi_obj
      REG=3       REGSYM    ---      ---       soft_spi_obj
      REG=3       REGSYM    ---      ---       soft_spi_obj
      REG=3       REGSYM    ---      ---       soft_spi_obj

      ---         MODULE    ---      ---       zf_driver_spi
      00FF0003H   PUBLIC    CODE     ---       spi_write_8bit
      00FF5F43H   PUBLIC    CODE     ---       spi_init
      00FFB751H   PUBLIC    CODE     ---       spi_write_16bit
      00FFB314H   PUBLIC    CODE     ---       spi_write_dat
      00011006H   PUBLIC    XDATA    BYTE      ?spi_init?BYTE
      000000CFH   SFRSYM    DATA     BYTE      SPDAT
      000000D0H   SFRSYM    DATA     BYTE      PSW
      0000009DH   SFRSYM    DATA     BYTE      IRCBAND
      00000097H   SFRSYM    DATA     BYTE      AUXR2
      000000EFH   SFRSYM    DATA     BYTE      AUXINTIF
      000000FDH   SFRSYM    DATA     BYTE      S4CON
      000000ACH   SFRSYM    DATA     BYTE      S3CON
      0000009AH   SFRSYM    DATA     BYTE      S2CON
      0000009BH   SFRSYM    DATA     BYTE      S2BUF
      000000B7H   SFRSYM    DATA     BYTE      IPH
      000000CDH   SFRSYM    DATA     BYTE      SPSTAT
      000000DDH   SFRSYM    DATA     BYTE      T4T3M
      000000C1H   SFRSYM    DATA     BYTE      WDT_CONTR
      000000DFH   SFRSYM    DATA     BYTE      IP3
      000000F4H   SFRSYM    DATA     BYTE      USBCON
      000000B5H   SFRSYM    DATA     BYTE      IP2
      000000FFH   SFRSYM    DATA     BYTE      RSTCFG
      000000C7H   SFRSYM    DATA     BYTE      IAP_CONTR
      0000008EH   SFRSYM    DATA     BYTE      AUXR
      000000AFH   SFRSYM    DATA     BYTE      IE2
      00000088H   SFRSYM    DATA     BYTE      TCON
      00000089H   SFRSYM    DATA     BYTE      TMOD
      00000098H   SFRSYM    DATA     BYTE      SCON
      00000087H   SFRSYM    DATA     BYTE      PCON
      00000099H   SFRSYM    DATA     BYTE      SBUF
      000000BCH   SFRSYM    DATA     BYTE      ADC_CONTR
      000000D1H   SFRSYM    DATA     BYTE      PSW1
L251 LINKER/LOCATER V4.66.93.0                                                        10/23/2025  22:33:42  PAGE 77


      000000E7H   SFRSYM    DATA     BYTE      CMPCR2
      000000E6H   SFRSYM    DATA     BYTE      CMPCR1
      0000009AH.1 SFRSYM    DATA     BIT       S2TI
      00000098H.1 SFRSYM    DATA     BIT       TI
      000000DEH   SFRSYM    DATA     BYTE      ADCCFG
      000000B8H   SFRSYM    DATA     BYTE      IP
      0000008FH   SFRSYM    DATA     BYTE      INTCLKO
      000000EEH   SFRSYM    DATA     BYTE      IP3H
      000000B6H   SFRSYM    DATA     BYTE      IP2H
      000000BFH   SFRSYM    DATA     BYTE      P_SW4
      000000A8H   SFRSYM    DATA     BYTE      IE
      000000BBH   SFRSYM    DATA     BYTE      P_SW3
      000000BAH   SFRSYM    DATA     BYTE      P_SW2
      000000A2H   SFRSYM    DATA     BYTE      P_SW1
      000000CEH   SFRSYM    DATA     BYTE      SPCTL
      000000F8H   SFRSYM    DATA     BYTE      P7
      000000E8H   SFRSYM    DATA     BYTE      P6
      000000C8H   SFRSYM    DATA     BYTE      P5
      000000C0H   SFRSYM    DATA     BYTE      P4
      000000ABH   SFRSYM    DATA     BYTE      WKTCH
      000000B0H   SFRSYM    DATA     BYTE      P3
      000000A0H   SFRSYM    DATA     BYTE      P2
      00000090H   SFRSYM    DATA     BYTE      P1
      00000080H   SFRSYM    DATA     BYTE      P0

      00FFB314H   BLOCK     CODE     ---       LVL=0
      WR6         REGSYM    ---      INT       spi_n
      R10         REGSYM    ---      BYTE      dat
      00FFB314H   LINE      CODE     ---       #81
      00FFB316H   LINE      CODE     ---       #83
      00FFB322H   LINE      CODE     ---       #85
      00FFB322H   LINE      CODE     ---       #86
      00FFB325H   LINE      CODE     ---       #87
      00FFB328H   LINE      CODE     ---       #88
      00FFB32DH   LINE      CODE     ---       #89
      00FFB32FH   LINE      CODE     ---       #90
      00FFB32FH   LINE      CODE     ---       #91
      00FFB331H   LINE      CODE     ---       #92
      00FFB334H   LINE      CODE     ---       #93
      00FFB337H   LINE      CODE     ---       #94
      00FFB339H   LINE      CODE     ---       #95
      00FFB339H   LINE      CODE     ---       #96
      00FFB33CH   LINE      CODE     ---       #97
      00FFB33FH   LINE      CODE     ---       #98
      00FFB343H   LINE      CODE     ---       #99
      00FFB345H   LINE      CODE     ---       #100
      00FFB345H   LINE      CODE     ---       #101
      00FFB355H   LINE      CODE     ---       #102
      00FFB355H   LINE      CODE     ---       #103
      00FFB355H   LINE      CODE     ---       #104
      ---         BLOCKEND  ---      ---       LVL=0
      WR8         REGSYM    ---      INT       spi_n
      R10         REGSYM    ---      BYTE      dat
      R15         REGSYM    ---      BYTE      ret

      00FF0003H   BLOCK     CODE     ---       LVL=0
      WR6         REGSYM    ---      INT       spi_n
      R5          REGSYM    ---      BYTE      dat
      00FF0003H   LINE      CODE     ---       #147
      00FF0005H   LINE      CODE     ---       #149
      00FF0008H   LINE      CODE     ---       #150
      ---         BLOCKEND  ---      ---       LVL=0
      REG=3       REGSYM    ---      ---       dat

      00FFB751H   BLOCK     CODE     ---       LVL=0
L251 LINKER/LOCATER V4.66.93.0                                                        10/23/2025  22:33:42  PAGE 78


      WR12        REGSYM    ---      INT       spi_n
      WR14        REGSYM    ---      WORD      dat
      00FFB751H   LINE      CODE     ---       #175
      00FFB757H   LINE      CODE     ---       #177
      00FFB763H   LINE      CODE     ---       #178
      00FFB76DH   LINE      CODE     ---       #179
      ---         BLOCKEND  ---      ---       LVL=0
      REG=3       REGSYM    ---      ---       dat
      WR14        REGSYM    ---      INT       spi_n
      R5          REGSYM    ---      BYTE      register_name
      R13         REGSYM    ---      BYTE      dat
      R5          REGSYM    ---      BYTE      register_name
      REG=3       REGSYM    ---      ---       dat
      WR14        REGSYM    ---      INT       spi_n
      WR12        REGSYM    ---      WORD      dat
      WR14        REGSYM    ---      INT       spi_n
      WR12        REGSYM    ---      WORD      register_name
      WR6         REGSYM    ---      INT       spi_n
      REG=3       REGSYM    ---      ---       dat
      WR14        REGSYM    ---      INT       spi_n
      WR12        REGSYM    ---      WORD      dat
      REG=3       REGSYM    ---      ---       dat
      WR14        REGSYM    ---      INT       spi_n
      R5          REGSYM    ---      BYTE      register_name
      R5          REGSYM    ---      BYTE      register_name
      REG=3       REGSYM    ---      ---       dat
      WR14        REGSYM    ---      INT       spi_n
      WR12        REGSYM    ---      WORD      register_name
      REG=3       REGSYM    ---      ---       dat
      REG=3       REGSYM    ---      ---       write_buffer
      REG=3       REGSYM    ---      ---       write_buffer

      00FF5F43H   BLOCK     CODE     ---       LVL=0
      0001100AH   SYMBOL    XDATA    INT       spi_n
      0001100CH   SYMBOL    XDATA    INT       mode
      DR12        REGSYM    ---      DWORD     baud
      0001100EH   SYMBOL    XDATA    INT       sck_pin
      00011010H   SYMBOL    XDATA    INT       mosi_pin
      00011012H   SYMBOL    XDATA    INT       miso_pin
      00011014H   SYMBOL    XDATA    INT       cs_pin
      00FF5F53H   BLOCK     CODE     NEAR LAB  LVL=1
      00011016H   SYMBOL    XDATA    DWORD     spi_psc
      ---         BLOCKEND  ---      ---       LVL=1
      00FF5F43H   LINE      CODE     ---       #465
      00FF5F53H   LINE      CODE     ---       #466
      00FF5F53H   LINE      CODE     ---       #467
      00FF5F5FH   LINE      CODE     ---       #469
      00FF5F75H   LINE      CODE     ---       #471
      00FF5F85H   LINE      CODE     ---       #473
      00FF5F85H   LINE      CODE     ---       #475
      00FF5F9BH   LINE      CODE     ---       #476
      00FF5FB1H   LINE      CODE     ---       #478
      00FF5FBDH   LINE      CODE     ---       #480
      00FF5FD3H   LINE      CODE     ---       #481
      00FF5FD3H   LINE      CODE     ---       #483
      00FF5FDFH   LINE      CODE     ---       #485
      00FF5FF4H   LINE      CODE     ---       #486
      00FF5FF4H   LINE      CODE     ---       #489
      00FF5FFAH   LINE      CODE     ---       #491
      00FF6008H   LINE      CODE     ---       #492
      00FF6016H   LINE      CODE     ---       #493
      00FF6022H   LINE      CODE     ---       #495
      00FF6030H   LINE      CODE     ---       #496
      00FF6030H   LINE      CODE     ---       #497
      00FF603CH   LINE      CODE     ---       #499
L251 LINKER/LOCATER V4.66.93.0                                                        10/23/2025  22:33:42  PAGE 79


      00FF604AH   LINE      CODE     ---       #500
      00FF604AH   LINE      CODE     ---       #503
      00FF6057H   LINE      CODE     ---       #505
      00FF605AH   LINE      CODE     ---       #507
      00FF6078H   LINE      CODE     ---       #509
      00FF6078H   LINE      CODE     ---       #510
      00FF607CH   LINE      CODE     ---       #511
      00FF607EH   LINE      CODE     ---       #513
      00FF607EH   LINE      CODE     ---       #514
      00FF6081H   LINE      CODE     ---       #515
      00FF6083H   LINE      CODE     ---       #517
      00FF6083H   LINE      CODE     ---       #518
      00FF6086H   LINE      CODE     ---       #519
      00FF6088H   LINE      CODE     ---       #521
      00FF6088H   LINE      CODE     ---       #522
      00FF608BH   LINE      CODE     ---       #523
      00FF608BH   LINE      CODE     ---       #524
      00FF608BH   LINE      CODE     ---       #526
      00FF608EH   LINE      CODE     ---       #527
      00FF6091H   LINE      CODE     ---       #528
      00FF6094H   LINE      CODE     ---       #531
      00FF60ADH   LINE      CODE     ---       #533
      00FF60B0H   LINE      CODE     ---       #535
      00FF60C0H   LINE      CODE     ---       #537
      00FF60C3H   LINE      CODE     ---       #538
      00FF60C5H   LINE      CODE     ---       #539
      00FF60D5H   LINE      CODE     ---       #541
      00FF60D8H   LINE      CODE     ---       #542
      00FF60DAH   LINE      CODE     ---       #543
      00FF60EAH   LINE      CODE     ---       #545
      00FF60EEH   LINE      CODE     ---       #546
      00FF60F0H   LINE      CODE     ---       #549
      00FF60F3H   LINE      CODE     ---       #550
      00FF60F3H   LINE      CODE     ---       #553
      00FF6105H   LINE      CODE     ---       #555
      00FF6105H   LINE      CODE     ---       #556
      00FF6105H   LINE      CODE     ---       #558
      00FF6105H   LINE      CODE     ---       #559
      00FF6108H   LINE      CODE     ---       #560
      00FF610AH   LINE      CODE     ---       #562
      00FF610AH   LINE      CODE     ---       #563
      00FF610DH   LINE      CODE     ---       #564
      00FF610FH   LINE      CODE     ---       #566
      00FF610FH   LINE      CODE     ---       #567
      00FF6112H   LINE      CODE     ---       #568
      00FF6112H   LINE      CODE     ---       #569
      00FF6112H   LINE      CODE     ---       #571
      00FF6115H   LINE      CODE     ---       #572
      00FF6118H   LINE      CODE     ---       #573
      00FF6127H   LINE      CODE     ---       #582
      00FF613FH   LINE      CODE     ---       #585
      00FF6142H   LINE      CODE     ---       #587
      00FF6160H   LINE      CODE     ---       #589
      00FF6160H   LINE      CODE     ---       #590
      00FF6164H   LINE      CODE     ---       #591
      00FF6166H   LINE      CODE     ---       #593
      00FF6166H   LINE      CODE     ---       #594
      00FF6169H   LINE      CODE     ---       #595
      00FF616BH   LINE      CODE     ---       #597
      00FF616BH   LINE      CODE     ---       #598
      00FF616EH   LINE      CODE     ---       #599
      00FF6170H   LINE      CODE     ---       #601
      00FF6170H   LINE      CODE     ---       #602
      00FF6173H   LINE      CODE     ---       #603
      00FF6173H   LINE      CODE     ---       #604
L251 LINKER/LOCATER V4.66.93.0                                                        10/23/2025  22:33:42  PAGE 80


      00FF6173H   LINE      CODE     ---       #606
      00FF6176H   LINE      CODE     ---       #607
      00FF6183H   LINE      CODE     ---       #611
      00FF619CH   LINE      CODE     ---       #615
      00FF61ACH   LINE      CODE     ---       #617
      00FF61BCH   LINE      CODE     ---       #618
      00FF61BEH   LINE      CODE     ---       #619
      00FF61CEH   LINE      CODE     ---       #621
      00FF61DEH   LINE      CODE     ---       #622
      00FF61E0H   LINE      CODE     ---       #623
      00FF61F0H   LINE      CODE     ---       #625
      00FF61FEH   LINE      CODE     ---       #626
      00FF6200H   LINE      CODE     ---       #629
      00FF6210H   LINE      CODE     ---       #630
      00FF6210H   LINE      CODE     ---       #634
      00FF6228H   LINE      CODE     ---       #636
      00FF6228H   LINE      CODE     ---       #637
      00FF6236H   LINE      CODE     ---       #638
      00FF6238H   LINE      CODE     ---       #640
      00FF6238H   LINE      CODE     ---       #641
      00FF6248H   LINE      CODE     ---       #642
      00FF624AH   LINE      CODE     ---       #644
      00FF624AH   LINE      CODE     ---       #645
      00FF625AH   LINE      CODE     ---       #646
      00FF625CH   LINE      CODE     ---       #648
      00FF625CH   LINE      CODE     ---       #649
      00FF626CH   LINE      CODE     ---       #650
      00FF626CH   LINE      CODE     ---       #651
      00FF626CH   LINE      CODE     ---       #653
      00FF627CH   LINE      CODE     ---       #654
      00FF627FH   LINE      CODE     ---       #655
      00FF628EH   LINE      CODE     ---       #664
      00FF62A8H   LINE      CODE     ---       #666
      00FF62ABH   LINE      CODE     ---       #668
      00FF62C9H   LINE      CODE     ---       #670
      00FF62C9H   LINE      CODE     ---       #671
      00FF62CDH   LINE      CODE     ---       #672
      00FF62CFH   LINE      CODE     ---       #674
      00FF62CFH   LINE      CODE     ---       #675
      00FF62D2H   LINE      CODE     ---       #676
      00FF62D4H   LINE      CODE     ---       #678
      00FF62D4H   LINE      CODE     ---       #679
      00FF62D7H   LINE      CODE     ---       #680
      00FF62D9H   LINE      CODE     ---       #682
      00FF62D9H   LINE      CODE     ---       #683
      00FF62DCH   LINE      CODE     ---       #684
      00FF62DCH   LINE      CODE     ---       #685
      00FF62DCH   LINE      CODE     ---       #687
      00FF62DFH   LINE      CODE     ---       #688
      00FF62ECH   LINE      CODE     ---       #692
      00FF6305H   LINE      CODE     ---       #694
      00FF6315H   LINE      CODE     ---       #696
      00FF6325H   LINE      CODE     ---       #697
      00FF6327H   LINE      CODE     ---       #698
      00FF6337H   LINE      CODE     ---       #700
      00FF6347H   LINE      CODE     ---       #701
      00FF6349H   LINE      CODE     ---       #702
      00FF6359H   LINE      CODE     ---       #704
      00FF6367H   LINE      CODE     ---       #705
      00FF6369H   LINE      CODE     ---       #708
      00FF6379H   LINE      CODE     ---       #709
      00FF6379H   LINE      CODE     ---       #713
      00FF6391H   LINE      CODE     ---       #715
      00FF6391H   LINE      CODE     ---       #716
      00FF639FH   LINE      CODE     ---       #717
L251 LINKER/LOCATER V4.66.93.0                                                        10/23/2025  22:33:42  PAGE 81


      00FF63A1H   LINE      CODE     ---       #719
      00FF63A1H   LINE      CODE     ---       #720
      00FF63B1H   LINE      CODE     ---       #721
      00FF63B3H   LINE      CODE     ---       #723
      00FF63B3H   LINE      CODE     ---       #724
      00FF63C3H   LINE      CODE     ---       #725
      00FF63C5H   LINE      CODE     ---       #727
      00FF63C5H   LINE      CODE     ---       #728
      00FF63D5H   LINE      CODE     ---       #729
      00FF63D5H   LINE      CODE     ---       #730
      00FF63D5H   LINE      CODE     ---       #732
      00FF63E5H   LINE      CODE     ---       #733
      ---         BLOCKEND  ---      ---       LVL=0

      ---         MODULE    ---      ---       zf_driver_timer
      00FFB0D3H   PUBLIC    CODE     ---       timer_funciton_check
      000000D0H   SFRSYM    DATA     BYTE      PSW
      0000009DH   SFRSYM    DATA     BYTE      IRCBAND
      00000097H   SFRSYM    DATA     BYTE      AUXR2
      000000EFH   SFRSYM    DATA     BYTE      AUXINTIF
      000000FDH   SFRSYM    DATA     BYTE      S4CON
      000000ACH   SFRSYM    DATA     BYTE      S3CON
      0000009AH   SFRSYM    DATA     BYTE      S2CON
      000000B7H   SFRSYM    DATA     BYTE      IPH
      000000CDH   SFRSYM    DATA     BYTE      SPSTAT
      000000DDH   SFRSYM    DATA     BYTE      T4T3M
      000000C1H   SFRSYM    DATA     BYTE      WDT_CONTR
      000000DFH   SFRSYM    DATA     BYTE      IP3
      000000F4H   SFRSYM    DATA     BYTE      USBCON
      000000B5H   SFRSYM    DATA     BYTE      IP2
      000000FFH   SFRSYM    DATA     BYTE      RSTCFG
      000000C7H   SFRSYM    DATA     BYTE      IAP_CONTR
      0000008EH   SFRSYM    DATA     BYTE      AUXR
      000000AFH   SFRSYM    DATA     BYTE      IE2
      00000088H   SFRSYM    DATA     BYTE      TCON
      00000089H   SFRSYM    DATA     BYTE      TMOD
      00000098H   SFRSYM    DATA     BYTE      SCON
      00000087H   SFRSYM    DATA     BYTE      PCON
      000000BCH   SFRSYM    DATA     BYTE      ADC_CONTR
      000000D1H   SFRSYM    DATA     BYTE      PSW1
      000000E7H   SFRSYM    DATA     BYTE      CMPCR2
      000000E6H   SFRSYM    DATA     BYTE      CMPCR1
      000000DEH   SFRSYM    DATA     BYTE      ADCCFG
      000000B8H   SFRSYM    DATA     BYTE      IP
      0000008FH   SFRSYM    DATA     BYTE      INTCLKO
      000000EEH   SFRSYM    DATA     BYTE      IP3H
      000000B6H   SFRSYM    DATA     BYTE      IP2H
      000000BFH   SFRSYM    DATA     BYTE      P_SW4
      000000A8H   SFRSYM    DATA     BYTE      IE
      000000BBH   SFRSYM    DATA     BYTE      P_SW3
      000000BAH   SFRSYM    DATA     BYTE      P_SW2
      000000A2H   SFRSYM    DATA     BYTE      P_SW1
      000000CEH   SFRSYM    DATA     BYTE      SPCTL
      000000F8H   SFRSYM    DATA     BYTE      P7
      000000E8H   SFRSYM    DATA     BYTE      P6
      000000C8H   SFRSYM    DATA     BYTE      P5
      000000C0H   SFRSYM    DATA     BYTE      P4
      000000ABH   SFRSYM    DATA     BYTE      WKTCH
      000000B0H   SFRSYM    DATA     BYTE      P3
      000000A0H   SFRSYM    DATA     BYTE      P2
      00000090H   SFRSYM    DATA     BYTE      P1
      00000080H   SFRSYM    DATA     BYTE      P0
      0001129EH   SYMBOL    XDATA    ---       timer_function_state

      00FFB0D3H   BLOCK     CODE     ---       LVL=0
L251 LINKER/LOCATER V4.66.93.0                                                        10/23/2025  22:33:42  PAGE 82


      WR2         REGSYM    ---      INT       index
      WR0         REGSYM    ---      INT       mode
      00FFB0D7H   BLOCK     CODE     NEAR LAB  LVL=1
      R10         REGSYM    ---      BYTE      return_state
      ---         BLOCKEND  ---      ---       LVL=1
      00FFB0D3H   LINE      CODE     ---       #58
      00FFB0D7H   LINE      CODE     ---       #59
      00FFB0D7H   LINE      CODE     ---       #60
      00FFB0DAH   LINE      CODE     ---       #61
      00FFB0EFH   LINE      CODE     ---       #63
      00FFB100H   LINE      CODE     ---       #64
      00FFB102H   LINE      CODE     ---       #65
      00FFB115H   LINE      CODE     ---       #67
      00FFB118H   LINE      CODE     ---       #68
      00FFB11AH   LINE      CODE     ---       #71
      00FFB11CH   LINE      CODE     ---       #72
      00FFB11CH   LINE      CODE     ---       #73
      00FFB11EH   LINE      CODE     ---       #74
      ---         BLOCKEND  ---      ---       LVL=0

      ---         MODULE    ---      ---       zf_driver_uart
      00FFA632H   PUBLIC    CODE     ---       uart_rx_start_buff
      00FF9206H   PUBLIC    CODE     ---       uart_write_buffer
      00FF7917H   PUBLIC    CODE     ---       uart_init
      00FFB247H   PUBLIC    CODE     ---       uart_rx_interrupt
      00FFB7A0H   PUBLIC    CODE     ---       uart_write_byte
      00FF88D6H   PUBLIC    CODE     ---       uart_dma_init
      00FFB11FH   PUBLIC    CODE     ---       uart_funciton_check
      00FFAE61H   PUBLIC    CODE     ---       uart_query_byte
      000112B2H   PUBLIC    XDATA    ---       uart_rx_buff
      00011006H   PUBLIC    XDATA    BYTE      ?uart_init?BYTE
      000000D0H   SFRSYM    DATA     BYTE      PSW
      0000009DH   SFRSYM    DATA     BYTE      IRCBAND
      00000097H   SFRSYM    DATA     BYTE      AUXR2
      000000EFH   SFRSYM    DATA     BYTE      AUXINTIF
      000000FDH   SFRSYM    DATA     BYTE      S4CON
      000000ACH   SFRSYM    DATA     BYTE      S3CON
      0000009AH   SFRSYM    DATA     BYTE      S2CON
      000000B7H   SFRSYM    DATA     BYTE      IPH
      000000CDH   SFRSYM    DATA     BYTE      SPSTAT
      000000DDH   SFRSYM    DATA     BYTE      T4T3M
      000000C1H   SFRSYM    DATA     BYTE      WDT_CONTR
      00000088H.6 SFRSYM    DATA     BIT       TR1
      000000D7H   SFRSYM    DATA     BYTE      T2L
      000000D6H   SFRSYM    DATA     BYTE      T2H
      000000DFH   SFRSYM    DATA     BYTE      IP3
      000000F4H   SFRSYM    DATA     BYTE      USBCON
      000000B5H   SFRSYM    DATA     BYTE      IP2
      000000FFH   SFRSYM    DATA     BYTE      RSTCFG
      000000C7H   SFRSYM    DATA     BYTE      IAP_CONTR
      0000008EH   SFRSYM    DATA     BYTE      AUXR
      000000AFH   SFRSYM    DATA     BYTE      IE2
      00000088H   SFRSYM    DATA     BYTE      TCON
      00000089H   SFRSYM    DATA     BYTE      TMOD
      00000098H   SFRSYM    DATA     BYTE      SCON
      00000087H   SFRSYM    DATA     BYTE      PCON
      000000BCH   SFRSYM    DATA     BYTE      ADC_CONTR
      000000D1H   SFRSYM    DATA     BYTE      PSW1
      000000E7H   SFRSYM    DATA     BYTE      CMPCR2
      000000E6H   SFRSYM    DATA     BYTE      CMPCR1
      000000DEH   SFRSYM    DATA     BYTE      ADCCFG
      000000B8H   SFRSYM    DATA     BYTE      IP
      0000008FH   SFRSYM    DATA     BYTE      INTCLKO
      000000EEH   SFRSYM    DATA     BYTE      IP3H
      000000B6H   SFRSYM    DATA     BYTE      IP2H
L251 LINKER/LOCATER V4.66.93.0                                                        10/23/2025  22:33:42  PAGE 83


      000000BFH   SFRSYM    DATA     BYTE      P_SW4
      000000A8H   SFRSYM    DATA     BYTE      IE
      000000BBH   SFRSYM    DATA     BYTE      P_SW3
      000000BAH   SFRSYM    DATA     BYTE      P_SW2
      000000A2H   SFRSYM    DATA     BYTE      P_SW1
      000000CEH   SFRSYM    DATA     BYTE      SPCTL
      000000F8H   SFRSYM    DATA     BYTE      P7
      000000E8H   SFRSYM    DATA     BYTE      P6
      000000C8H   SFRSYM    DATA     BYTE      P5
      000000C0H   SFRSYM    DATA     BYTE      P4
      000000ABH   SFRSYM    DATA     BYTE      WKTCH
      000000B0H   SFRSYM    DATA     BYTE      P3
      000000A0H   SFRSYM    DATA     BYTE      P2
      00000090H   SFRSYM    DATA     BYTE      P1
      00000080H   SFRSYM    DATA     BYTE      P0
      000112AAH   SYMBOL    XDATA    ---       uart_function_state

      00FFB11FH   BLOCK     CODE     ---       LVL=0
      WR2         REGSYM    ---      INT       index
      WR0         REGSYM    ---      INT       mode
      00FFB123H   BLOCK     CODE     NEAR LAB  LVL=1
      R10         REGSYM    ---      BYTE      return_state
      ---         BLOCKEND  ---      ---       LVL=1
      00FFB11FH   LINE      CODE     ---       #83
      00FFB123H   LINE      CODE     ---       #84
      00FFB123H   LINE      CODE     ---       #85
      00FFB126H   LINE      CODE     ---       #86
      00FFB13BH   LINE      CODE     ---       #88
      00FFB14CH   LINE      CODE     ---       #89
      00FFB14EH   LINE      CODE     ---       #90
      00FFB161H   LINE      CODE     ---       #92
      00FFB164H   LINE      CODE     ---       #93
      00FFB166H   LINE      CODE     ---       #96
      00FFB168H   LINE      CODE     ---       #97
      00FFB168H   LINE      CODE     ---       #98
      00FFB16AH   LINE      CODE     ---       #99
      ---         BLOCKEND  ---      ---       LVL=0

      00FF9206H   BLOCK     CODE     ---       LVL=0
      WR0         REGSYM    ---      INT       uart_n
      REG=7       REGSYM    ---      ---       buff
      WR8         REGSYM    ---      WORD      len
      00FF9206H   LINE      CODE     ---       #108
      00FF920CH   LINE      CODE     ---       #112
      00FF9226H   LINE      CODE     ---       #113
      00FF9228H   LINE      CODE     ---       #114
      00FF9242H   LINE      CODE     ---       #115
      00FF925BH   LINE      CODE     ---       #116
      00FF927BH   LINE      CODE     ---       #117
      00FF9297H   LINE      CODE     ---       #118
      00FF92B2H   LINE      CODE     ---       #120
      00FF92CDH   LINE      CODE     ---       #122
      00FF92E7H   LINE      CODE     ---       #124
      ---         BLOCKEND  ---      ---       LVL=0
      REG=3       REGSYM    ---      ---       str

      00FFB7A0H   BLOCK     CODE     ---       LVL=0
      WR6         REGSYM    ---      INT       uart_n
      00011081H   SYMBOL    XDATA    BYTE      dat
      00FFB7A0H   LINE      CODE     ---       #154
      00FFB7A4H   LINE      CODE     ---       #156
      00FFB7B3H   LINE      CODE     ---       #157
      ---         BLOCKEND  ---      ---       LVL=0

      00FFA632H   BLOCK     CODE     ---       LVL=0
L251 LINKER/LOCATER V4.66.93.0                                                        10/23/2025  22:33:42  PAGE 84


      WR8         REGSYM    ---      INT       uart_n
      00FFA632H   LINE      CODE     ---       #165
      00FFA634H   LINE      CODE     ---       #167
      00FFA64EH   LINE      CODE     ---       #168
      00FFA664H   LINE      CODE     ---       #169
      00FFA684H   LINE      CODE     ---       #170
      00FFA6A6H   LINE      CODE     ---       #171
      00FFA6C1H   LINE      CODE     ---       #172
      ---         BLOCKEND  ---      ---       LVL=0

      00FFB247H   BLOCK     CODE     ---       LVL=0
      WR2         REGSYM    ---      INT       uart_n
      R5          REGSYM    ---      BYTE      status
      00FFB247H   LINE      CODE     ---       #183
      00FFB24BH   LINE      CODE     ---       #185
      00FFB24FH   LINE      CODE     ---       #187
      00FFB26CH   LINE      CODE     ---       #188
      00FFB26EH   LINE      CODE     ---       #191
      00FFB28BH   LINE      CODE     ---       #192
      00FFB28BH   LINE      CODE     ---       #193
      ---         BLOCKEND  ---      ---       LVL=0
      WR8         REGSYM    ---      INT       uart_n
      R15         REGSYM    ---      BYTE      dat

      00FFAE61H   BLOCK     CODE     ---       LVL=0
      WR2         REGSYM    ---      INT       uart_n
      REG=7       REGSYM    ---      ---       dat
      00FFAE67H   BLOCK     CODE     NEAR LAB  LVL=1
      R15         REGSYM    ---      BYTE      ret
      ---         BLOCKEND  ---      ---       LVL=1
      00FFAE61H   LINE      CODE     ---       #227
      00FFAE67H   LINE      CODE     ---       #228
      00FFAE67H   LINE      CODE     ---       #229
      00FFAE69H   LINE      CODE     ---       #232
      00FFAE79H   LINE      CODE     ---       #234
      00FFAE95H   LINE      CODE     ---       #236
      00FFAE98H   LINE      CODE     ---       #238
      00FFAEB5H   LINE      CODE     ---       #239
      00FFAEB7H   LINE      CODE     ---       #242
      00FFAEB9H   LINE      CODE     ---       #243
      00FFAEB9H   LINE      CODE     ---       #246
      00FFAEBEH   LINE      CODE     ---       #248
      00FFAEC0H   LINE      CODE     ---       #249
      ---         BLOCKEND  ---      ---       LVL=0

      00FF88D6H   BLOCK     CODE     ---       LVL=0
      WR8         REGSYM    ---      INT       uart_n
      00FF88D6H   LINE      CODE     ---       #257
      00FF88D8H   LINE      CODE     ---       #259
      00FF88F2H   LINE      CODE     ---       #260
      00FF890CH   LINE      CODE     ---       #261
      00FF8926H   LINE      CODE     ---       #263
      00FF8940H   LINE      CODE     ---       #264
      00FF895AH   LINE      CODE     ---       #265
      00FF8974H   LINE      CODE     ---       #267
      00FF898EH   LINE      CODE     ---       #268
      00FF89A4H   LINE      CODE     ---       #269
      00FF89C4H   LINE      CODE     ---       #270
      00FF89E6H   LINE      CODE     ---       #271
      00FF8A01H   LINE      CODE     ---       #272
      00FF8A1CH   LINE      CODE     ---       #274
      ---         BLOCKEND  ---      ---       LVL=0

      00FF7917H   BLOCK     CODE     ---       LVL=0
      WR12        REGSYM    ---      INT       uart_n
L251 LINKER/LOCATER V4.66.93.0                                                        10/23/2025  22:33:42  PAGE 85


      0001100AH   SYMBOL    XDATA    DWORD     baud
      WR14        REGSYM    ---      INT       tx_pin
      0001100EH   SYMBOL    XDATA    INT       rx_pin
      00FF7927H   BLOCK     CODE     NEAR LAB  LVL=1
      WR6         REGSYM    ---      WORD      brt
      ---         BLOCKEND  ---      ---       LVL=1
      00FF7917H   LINE      CODE     ---       #286
      00FF7927H   LINE      CODE     ---       #287
      00FF7927H   LINE      CODE     ---       #296
      00FF793DH   LINE      CODE     ---       #303
      00FF7957H   LINE      CODE     ---       #308
      00FF7985H   LINE      CODE     ---       #311
      00FF7997H   LINE      CODE     ---       #312
      00FF79ABH   LINE      CODE     ---       #314
      00FF79DCH   LINE      CODE     ---       #316
      00FF79FCH   LINE      CODE     ---       #318
      00FF79FCH   LINE      CODE     ---       #332
      00FF79FFH   LINE      CODE     ---       #333
      00FF7A03H   LINE      CODE     ---       #334
      00FF7A09H   LINE      CODE     ---       #335
      00FF7A0CH   LINE      CODE     ---       #336
      00FF7A0EH   LINE      CODE     ---       #339
      00FF7A11H   LINE      CODE     ---       #341
      00FF7A23H   LINE      CODE     ---       #343
      00FF7A27H   LINE      CODE     ---       #344
      00FF7A2AH   LINE      CODE     ---       #345
      00FF7A3CH   LINE      CODE     ---       #347
      00FF7A3FH   LINE      CODE     ---       #348
      00FF7A42H   LINE      CODE     ---       #349
      00FF7A54H   LINE      CODE     ---       #351
      00FF7A57H   LINE      CODE     ---       #352
      00FF7A5AH   LINE      CODE     ---       #353
      00FF7A72H   LINE      CODE     ---       #355
      00FF7A75H   LINE      CODE     ---       #356
      00FF7A75H   LINE      CODE     ---       #359
      00FF7A78H   LINE      CODE     ---       #362
      00FF7A78H   LINE      CODE     ---       #366
      00FF7A7BH   LINE      CODE     ---       #367
      00FF7A7FH   LINE      CODE     ---       #368
      00FF7A85H   LINE      CODE     ---       #369
      00FF7A88H   LINE      CODE     ---       #372
      00FF7A8BH   LINE      CODE     ---       #374
      00FF7A9DH   LINE      CODE     ---       #376
      00FF7AA1H   LINE      CODE     ---       #377
      00FF7AA4H   LINE      CODE     ---       #378
      00FF7ABCH   LINE      CODE     ---       #380
      00FF7ABFH   LINE      CODE     ---       #381
      00FF7ABFH   LINE      CODE     ---       #385
      00FF7AC2H   LINE      CODE     ---       #388
      00FF7AC2H   LINE      CODE     ---       #392
      00FF7AC5H   LINE      CODE     ---       #393
      00FF7AC9H   LINE      CODE     ---       #394
      00FF7ACFH   LINE      CODE     ---       #395
      00FF7AD2H   LINE      CODE     ---       #405
      00FF7AD5H   LINE      CODE     ---       #407
      00FF7AE7H   LINE      CODE     ---       #409
      00FF7AEBH   LINE      CODE     ---       #410
      00FF7AEDH   LINE      CODE     ---       #411
      00FF7AFFH   LINE      CODE     ---       #413
      00FF7B02H   LINE      CODE     ---       #414
      00FF7B02H   LINE      CODE     ---       #418
      00FF7B04H   LINE      CODE     ---       #421
      00FF7B04H   LINE      CODE     ---       #425
      00FF7B07H   LINE      CODE     ---       #426
      00FF7B0BH   LINE      CODE     ---       #427
L251 LINKER/LOCATER V4.66.93.0                                                        10/23/2025  22:33:42  PAGE 86


      00FF7B11H   LINE      CODE     ---       #428
      00FF7B14H   LINE      CODE     ---       #438
      00FF7B17H   LINE      CODE     ---       #440
      00FF7B29H   LINE      CODE     ---       #442
      00FF7B2DH   LINE      CODE     ---       #443
      00FF7B2FH   LINE      CODE     ---       #444
      00FF7B41H   LINE      CODE     ---       #448
      00FF7B44H   LINE      CODE     ---       #449
      00FF7B44H   LINE      CODE     ---       #453
      00FF7B44H   LINE      CODE     ---       #456
      00FF7B44H   LINE      CODE     ---       #459
      00FF7B49H   LINE      CODE     ---       #461
      ---         BLOCKEND  ---      ---       LVL=0

      ---         MODULE    ---      ---       zf_device_config
      00FF021EH   PUBLIC    CODE     ---       imu660ra_config_file

      ---         MODULE    ---      ---       zf_device_type
      000112DFH   PUBLIC    XDATA    ---       tof_module_exti_handler
      000112E1H   PUBLIC    XDATA    INT       wireless_type
      000112E3H   PUBLIC    XDATA    INT       tof_type
      000112E5H   PUBLIC    XDATA    INT       gps_type
      000000D0H   SFRSYM    DATA     BYTE      PSW
      0000009DH   SFRSYM    DATA     BYTE      IRCBAND
      00000097H   SFRSYM    DATA     BYTE      AUXR2
      000000EFH   SFRSYM    DATA     BYTE      AUXINTIF
      000000FDH   SFRSYM    DATA     BYTE      S4CON
      000000ACH   SFRSYM    DATA     BYTE      S3CON
      0000009AH   SFRSYM    DATA     BYTE      S2CON
      000000B7H   SFRSYM    DATA     BYTE      IPH
      000000CDH   SFRSYM    DATA     BYTE      SPSTAT
      000000DDH   SFRSYM    DATA     BYTE      T4T3M
      000000C1H   SFRSYM    DATA     BYTE      WDT_CONTR
      000000DFH   SFRSYM    DATA     BYTE      IP3
      000000F4H   SFRSYM    DATA     BYTE      USBCON
      000000B5H   SFRSYM    DATA     BYTE      IP2
      000000FFH   SFRSYM    DATA     BYTE      RSTCFG
      000000C7H   SFRSYM    DATA     BYTE      IAP_CONTR
      0000008EH   SFRSYM    DATA     BYTE      AUXR
      000000AFH   SFRSYM    DATA     BYTE      IE2
      00000088H   SFRSYM    DATA     BYTE      TCON
      00000089H   SFRSYM    DATA     BYTE      TMOD
      00000098H   SFRSYM    DATA     BYTE      SCON
      00000087H   SFRSYM    DATA     BYTE      PCON
      000000BCH   SFRSYM    DATA     BYTE      ADC_CONTR
      000000D1H   SFRSYM    DATA     BYTE      PSW1
      000000E7H   SFRSYM    DATA     BYTE      CMPCR2
      000000E6H   SFRSYM    DATA     BYTE      CMPCR1
      000000DEH   SFRSYM    DATA     BYTE      ADCCFG
      000000B8H   SFRSYM    DATA     BYTE      IP
      0000008FH   SFRSYM    DATA     BYTE      INTCLKO
      000000EEH   SFRSYM    DATA     BYTE      IP3H
      000000B6H   SFRSYM    DATA     BYTE      IP2H
      000000BFH   SFRSYM    DATA     BYTE      P_SW4
      000000A8H   SFRSYM    DATA     BYTE      IE
      000000BBH   SFRSYM    DATA     BYTE      P_SW3
      000000BAH   SFRSYM    DATA     BYTE      P_SW2
      000000A2H   SFRSYM    DATA     BYTE      P_SW1
      000000CEH   SFRSYM    DATA     BYTE      SPCTL
      000000F8H   SFRSYM    DATA     BYTE      P7
      000000E8H   SFRSYM    DATA     BYTE      P6
      000000C8H   SFRSYM    DATA     BYTE      P5
      000000C0H   SFRSYM    DATA     BYTE      P4
      000000ABH   SFRSYM    DATA     BYTE      WKTCH
      000000B0H   SFRSYM    DATA     BYTE      P3
L251 LINKER/LOCATER V4.66.93.0                                                        10/23/2025  22:33:42  PAGE 87


      000000A0H   SFRSYM    DATA     BYTE      P2
      00000090H   SFRSYM    DATA     BYTE      P1
      00000080H   SFRSYM    DATA     BYTE      P0
      WR6         REGSYM    ---      INT       type_set
      WR4         REGSYM    ---      INT       uartx
      REG=0       REGSYM    ---      ---       uart_callback
      WR6         REGSYM    ---      INT       type_set
      REG=0       REGSYM    ---      ---       exti_callback
      WR6         REGSYM    ---      INT       type_set
      WR4         REGSYM    ---      INT       uartx
      REG=0       REGSYM    ---      ---       uart_callback

      ---         MODULE    ---      ---       zf_device_tft180
      00FF6ED3H   PUBLIC    CODE     ---       tft180_init
      00FF811DH   PUBLIC    CODE     ---       tft180_show_float
      00FFA016H   PUBLIC    CODE     ---       tft180_show_string
      00FF93C9H   PUBLIC    CODE     ---       tft180_show_char
      00FF000EH   PUBLIC    CODE     ---       tft180_set_color
      00FF8C98H   PUBLIC    CODE     ---       tft180_show_int16
      00FFB705H   PUBLIC    CODE     ---       tft180_set_dir
      00FFAD98H   PUBLIC    CODE     ---       tft180_clear
      000112E7H   PUBLIC    XDATA    WORD      tft180_pencolor
      000112E9H   PUBLIC    XDATA    WORD      tft180_bgcolor
      000112EBH   PUBLIC    XDATA    INT       tft180_display_dir
      000112EDH   PUBLIC    XDATA    BYTE      tft180_x_max
      000112EEH   PUBLIC    XDATA    BYTE      tft180_y_max
      00011008H   PUBLIC    XDATA    BYTE      ?tft180_show_float?BYTE
      000000D0H   SFRSYM    DATA     BYTE      PSW
      0000009DH   SFRSYM    DATA     BYTE      IRCBAND
      00000097H   SFRSYM    DATA     BYTE      AUXR2
      000000EFH   SFRSYM    DATA     BYTE      AUXINTIF
      000000FDH   SFRSYM    DATA     BYTE      S4CON
      000000ACH   SFRSYM    DATA     BYTE      S3CON
      0000009AH   SFRSYM    DATA     BYTE      S2CON
      000000B7H   SFRSYM    DATA     BYTE      IPH
      000000CDH   SFRSYM    DATA     BYTE      SPSTAT
      000000DDH   SFRSYM    DATA     BYTE      T4T3M
      000000C1H   SFRSYM    DATA     BYTE      WDT_CONTR
      000000DFH   SFRSYM    DATA     BYTE      IP3
      000000F4H   SFRSYM    DATA     BYTE      USBCON
      000000B5H   SFRSYM    DATA     BYTE      IP2
      000000FFH   SFRSYM    DATA     BYTE      RSTCFG
      000000C7H   SFRSYM    DATA     BYTE      IAP_CONTR
      0000008EH   SFRSYM    DATA     BYTE      AUXR
      000000AFH   SFRSYM    DATA     BYTE      IE2
      00000088H   SFRSYM    DATA     BYTE      TCON
      00000089H   SFRSYM    DATA     BYTE      TMOD
      00000098H   SFRSYM    DATA     BYTE      SCON
      000000A0H.2 SFRSYM    DATA     BIT       P22
      000000A0H.1 SFRSYM    DATA     BIT       P21
      000000A0H.0 SFRSYM    DATA     BIT       P20
      00000087H   SFRSYM    DATA     BYTE      PCON
      000000BCH   SFRSYM    DATA     BYTE      ADC_CONTR
      000000D1H   SFRSYM    DATA     BYTE      PSW1
      000000E7H   SFRSYM    DATA     BYTE      CMPCR2
      000000E6H   SFRSYM    DATA     BYTE      CMPCR1
      000000DEH   SFRSYM    DATA     BYTE      ADCCFG
      000000B8H   SFRSYM    DATA     BYTE      IP
      0000008FH   SFRSYM    DATA     BYTE      INTCLKO
      000000EEH   SFRSYM    DATA     BYTE      IP3H
      000000B6H   SFRSYM    DATA     BYTE      IP2H
      000000BFH   SFRSYM    DATA     BYTE      P_SW4
      000000A8H   SFRSYM    DATA     BYTE      IE
      000000BBH   SFRSYM    DATA     BYTE      P_SW3
      000000BAH   SFRSYM    DATA     BYTE      P_SW2
L251 LINKER/LOCATER V4.66.93.0                                                        10/23/2025  22:33:42  PAGE 88


      000000A2H   SFRSYM    DATA     BYTE      P_SW1
      000000CEH   SFRSYM    DATA     BYTE      SPCTL
      000000F8H   SFRSYM    DATA     BYTE      P7
      000000E8H   SFRSYM    DATA     BYTE      P6
      000000C8H   SFRSYM    DATA     BYTE      P5
      000000C0H   SFRSYM    DATA     BYTE      P4
      000000ABH   SFRSYM    DATA     BYTE      WKTCH
      000000B0H   SFRSYM    DATA     BYTE      P3
      000000A0H   SFRSYM    DATA     BYTE      P2
      00000090H   SFRSYM    DATA     BYTE      P1
      00000080H   SFRSYM    DATA     BYTE      P0
      00FF8DCBH   SYMBOL    CODE     ---       tft180_set_region
      00FFB78AH   SYMBOL    CODE     ---       tft180_write_index

      00FFB78AH   BLOCK     CODE     ---       LVL=0
      R5          REGSYM    ---      BYTE      dat
      00FFB78AH   LINE      CODE     ---       #80
      00FFB78CH   LINE      CODE     ---       #82
      00FFB78EH   LINE      CODE     ---       #83
      00FFB790H   LINE      CODE     ---       #84
      00FFB792H   LINE      CODE     ---       #85
      00FFB799H   LINE      CODE     ---       #86
      00FFB79BH   LINE      CODE     ---       #87
      00FFB79DH   LINE      CODE     ---       #88
      00FFB79FH   LINE      CODE     ---       #89
      ---         BLOCKEND  ---      ---       LVL=0

      00FF8DCBH   BLOCK     CODE     ---       LVL=0
      00011045H   SYMBOL    XDATA    WORD      x1
      00011047H   SYMBOL    XDATA    WORD      y1
      WR12        REGSYM    ---      WORD      x2
      WR14        REGSYM    ---      WORD      y2
      00FF8DCBH   LINE      CODE     ---       #100
      00FF8DDDH   LINE      CODE     ---       #102
      00FF8E01H   LINE      CODE     ---       #103
      00FF8E25H   LINE      CODE     ---       #104
      00FF8E43H   LINE      CODE     ---       #105
      00FF8E61H   LINE      CODE     ---       #107
      00FF8E77H   LINE      CODE     ---       #109
      00FF8E7CH   LINE      CODE     ---       #110
      00FF8E89H   LINE      CODE     ---       #111
      00FF8E92H   LINE      CODE     ---       #113
      00FF8E97H   LINE      CODE     ---       #114
      00FF8EA4H   LINE      CODE     ---       #115
      00FF8EADH   LINE      CODE     ---       #116
      00FF8EAFH   LINE      CODE     ---       #119
      00FF8EB4H   LINE      CODE     ---       #120
      00FF8EC1H   LINE      CODE     ---       #121
      00FF8ECAH   LINE      CODE     ---       #123
      00FF8ECFH   LINE      CODE     ---       #124
      00FF8EDCH   LINE      CODE     ---       #125
      00FF8EE5H   LINE      CODE     ---       #126
      00FF8EE5H   LINE      CODE     ---       #127
      00FF8EEAH   LINE      CODE     ---       #128
      ---         BLOCKEND  ---      ---       LVL=0

      00FFAD98H   BLOCK     CODE     ---       LVL=0
      WR14        REGSYM    ---      WORD      color
      00FFAD9CH   BLOCK     CODE     NEAR LAB  LVL=1
      0001100AH   SYMBOL    XDATA    DWORD     i
      ---         BLOCKEND  ---      ---       LVL=1
      00FFAD98H   LINE      CODE     ---       #138
      00FFAD9CH   LINE      CODE     ---       #139
      00FFAD9CH   LINE      CODE     ---       #140
      00FFADB9H   LINE      CODE     ---       #142
L251 LINKER/LOCATER V4.66.93.0                                                        10/23/2025  22:33:42  PAGE 89


      00FFADD0H   LINE      CODE     ---       #143
      00FFADD2H   LINE      CODE     ---       #145
      00FFADD9H   LINE      CODE     ---       #146
      00FFADFCH   LINE      CODE     ---       #147
      ---         BLOCKEND  ---      ---       LVL=0

      00FFB705H   BLOCK     CODE     ---       LVL=0
      WR6         REGSYM    ---      INT       dir
      00FFB705H   LINE      CODE     ---       #155
      00FFB705H   LINE      CODE     ---       #157
      00FFB70BH   LINE      CODE     ---       #158
      00FFB711H   LINE      CODE     ---       #160
      00FFB717H   LINE      CODE     ---       #161
      00FFB71DH   LINE      CODE     ---       #162
      00FFB71FH   LINE      CODE     ---       #165
      00FFB725H   LINE      CODE     ---       #166
      00FFB72BH   LINE      CODE     ---       #167
      00FFB72BH   LINE      CODE     ---       #168
      ---         BLOCKEND  ---      ---       LVL=0

      00FF000EH   BLOCK     CODE     ---       LVL=0
      WR6         REGSYM    ---      WORD      pen
      WR4         REGSYM    ---      WORD      bgcolor
      00FF000EH   LINE      CODE     ---       #177
      00FF000EH   LINE      CODE     ---       #179
      00FF0014H   LINE      CODE     ---       #180
      00FF001AH   LINE      CODE     ---       #181
      ---         BLOCKEND  ---      ---       LVL=0
      WR12        REGSYM    ---      WORD      x
      WR14        REGSYM    ---      WORD      y

      00FF93C9H   BLOCK     CODE     ---       LVL=0
      WR12        REGSYM    ---      WORD      x
      WR14        REGSYM    ---      WORD      y
      00011041H   SYMBOL    XDATA    CHAR      dat
      00FF93D3H   BLOCK     CODE     NEAR LAB  LVL=1
      00011042H   SYMBOL    XDATA    BYTE      i
      00011043H   SYMBOL    XDATA    BYTE      j
      00011044H   SYMBOL    XDATA    BYTE      temp
      ---         BLOCKEND  ---      ---       LVL=1
      00FF93C9H   LINE      CODE     ---       #208
      00FF93D3H   LINE      CODE     ---       #209
      00FF93D3H   LINE      CODE     ---       #213
      00FF93F1H   LINE      CODE     ---       #214
      00FF940FH   LINE      CODE     ---       #216
      00FF9417H   LINE      CODE     ---       #218
      00FF9432H   LINE      CODE     ---       #219
      00FF9458H   LINE      CODE     ---       #220
      00FF945FH   LINE      CODE     ---       #222
      00FF9466H   LINE      CODE     ---       #223
      00FF9473H   LINE      CODE     ---       #225
      00FF947EH   LINE      CODE     ---       #226
      00FF9485H   LINE      CODE     ---       #227
      00FF9494H   LINE      CODE     ---       #228
      00FF94A6H   LINE      CODE     ---       #229
      ---         BLOCKEND  ---      ---       LVL=0

      00FFA016H   BLOCK     CODE     ---       LVL=0
      0001103BH   SYMBOL    XDATA    WORD      x
      0001103DH   SYMBOL    XDATA    WORD      y
      REG=3       REGSYM    ---      ---       dat
      00FFA026H   BLOCK     CODE     NEAR LAB  LVL=1
      0001103FH   SYMBOL    XDATA    WORD      j
      ---         BLOCKEND  ---      ---       LVL=1
      00FFA016H   LINE      CODE     ---       #239
L251 LINKER/LOCATER V4.66.93.0                                                        10/23/2025  22:33:42  PAGE 90


      00FFA026H   LINE      CODE     ---       #240
      00FFA026H   LINE      CODE     ---       #241
      00FFA02EH   LINE      CODE     ---       #243
      00FFA052H   LINE      CODE     ---       #244
      00FFA076H   LINE      CODE     ---       #247
      00FFA078H   LINE      CODE     ---       #249
      00FFA0A2H   LINE      CODE     ---       #250
      00FFA0ADH   LINE      CODE     ---       #251
      00FFA0BCH   LINE      CODE     ---       #252
      ---         BLOCKEND  ---      ---       LVL=0
      WR12        REGSYM    ---      WORD      x
      WR14        REGSYM    ---      WORD      y
      WR12        REGSYM    ---      WORD      x
      WR14        REGSYM    ---      WORD      y

      00FF8C98H   BLOCK     CODE     ---       LVL=0
      WR12        REGSYM    ---      WORD      x
      WR14        REGSYM    ---      WORD      y
      0001100AH   SYMBOL    XDATA    INT       dat
      00FF8CA4H   BLOCK     CODE     NEAR LAB  LVL=1
      0001100CH   SYMBOL    XDATA    ---       a
      00011011H   SYMBOL    XDATA    BYTE      i
      ---         BLOCKEND  ---      ---       LVL=1
      00FF8C98H   LINE      CODE     ---       #326
      00FF8CA4H   LINE      CODE     ---       #327
      00FF8CA4H   LINE      CODE     ---       #331
      00FF8CC2H   LINE      CODE     ---       #332
      00FF8CE0H   LINE      CODE     ---       #334
      00FF8CECH   LINE      CODE     ---       #336
      00FF8CF5H   LINE      CODE     ---       #337
      00FF8D07H   LINE      CODE     ---       #338
      00FF8D09H   LINE      CODE     ---       #339
      00FF8D12H   LINE      CODE     ---       #341
      00FF8D25H   LINE      CODE     ---       #342
      00FF8D3FH   LINE      CODE     ---       #343
      00FF8D59H   LINE      CODE     ---       #344
      00FF8D73H   LINE      CODE     ---       #345
      00FF8D86H   LINE      CODE     ---       #347
      00FF8D8BH   LINE      CODE     ---       #348
      00FF8D8DH   LINE      CODE     ---       #350
      00FF8DB9H   LINE      CODE     ---       #351
      00FF8DBFH   LINE      CODE     ---       #352
      00FF8DC8H   LINE      CODE     ---       #353
      ---         BLOCKEND  ---      ---       LVL=0
      WR12        REGSYM    ---      WORD      x
      WR14        REGSYM    ---      WORD      y
      WR12        REGSYM    ---      WORD      y
      R15         REGSYM    ---      BYTE      num
      R14         REGSYM    ---      BYTE      length

      00FF811DH   BLOCK     CODE     ---       LVL=0
      0001100AH   SYMBOL    XDATA    WORD      x
      WR12        REGSYM    ---      WORD      y
      0001100CH   SYMBOL    XDATA    DOUBLE    dat
      R14         REGSYM    ---      BYTE      num
      R15         REGSYM    ---      BYTE      pointnum
      00FF812BH   BLOCK     CODE     NEAR LAB  LVL=1
      00011016H   SYMBOL    XDATA    BYTE      length
      00011017H   SYMBOL    XDATA    ---       buff
      00011039H   SYMBOL    XDATA    CHAR      start
      0001103AH   SYMBOL    XDATA    CHAR      end
      R10         REGSYM    ---      CHAR      point
      ---         BLOCKEND  ---      ---       LVL=1
      00FF811DH   LINE      CODE     ---       #437
      00FF812BH   LINE      CODE     ---       #438
L251 LINKER/LOCATER V4.66.93.0                                                        10/23/2025  22:33:42  PAGE 91


      00FF812BH   LINE      CODE     ---       #443
      00FF814FH   LINE      CODE     ---       #444
      00FF816DH   LINE      CODE     ---       #446
      00FF8175H   LINE      CODE     ---       #447
      00FF817DH   LINE      CODE     ---       #449
      00FF81D7H   LINE      CODE     ---       #452
      00FF8214H   LINE      CODE     ---       #453
      00FF821AH   LINE      CODE     ---       #454
      00FF821AH   LINE      CODE     ---       #455
      00FF8226H   LINE      CODE     ---       #456
      00FF8234H   LINE      CODE     ---       #457
      00FF8240H   LINE      CODE     ---       #458
      00FF8242H   LINE      CODE     ---       #460
      00FF8258H   LINE      CODE     ---       #461
      00FF825EH   LINE      CODE     ---       #462
      00FF8264H   LINE      CODE     ---       #463
      00FF826DH   LINE      CODE     ---       #465
      00FF82A0H   LINE      CODE     ---       #466
      00FF82B6H   LINE      CODE     ---       #468
      00FF82CBH   LINE      CODE     ---       #470
      00FF82DEH   LINE      CODE     ---       #471
      ---         BLOCKEND  ---      ---       LVL=0
      REG=3       REGSYM    ---      ---       p

      00FF6ED3H   BLOCK     CODE     ---       LVL=0
      00FF6ED3H   LINE      CODE     ---       #515
      00FF6ED3H   LINE      CODE     ---       #520
      00FF6F0AH   LINE      CODE     ---       #528
      00FF6F13H   LINE      CODE     ---       #529
      00FF6F22H   LINE      CODE     ---       #531
      00FF6F24H   LINE      CODE     ---       #532
      00FF6F2BH   LINE      CODE     ---       #534
      00FF6F2DH   LINE      CODE     ---       #535
      00FF6F34H   LINE      CODE     ---       #537
      00FF6F39H   LINE      CODE     ---       #538
      00FF6F40H   LINE      CODE     ---       #540
      00FF6F45H   LINE      CODE     ---       #541
      00FF6F4CH   LINE      CODE     ---       #542
      00FF6F53H   LINE      CODE     ---       #543
      00FF6F5AH   LINE      CODE     ---       #545
      00FF6F5FH   LINE      CODE     ---       #546
      00FF6F66H   LINE      CODE     ---       #547
      00FF6F6DH   LINE      CODE     ---       #548
      00FF6F74H   LINE      CODE     ---       #550
      00FF6F79H   LINE      CODE     ---       #551
      00FF6F80H   LINE      CODE     ---       #552
      00FF6F87H   LINE      CODE     ---       #553
      00FF6F8EH   LINE      CODE     ---       #554
      00FF6F95H   LINE      CODE     ---       #555
      00FF6F9CH   LINE      CODE     ---       #556
      00FF6FA3H   LINE      CODE     ---       #558
      00FF6FA8H   LINE      CODE     ---       #559
      00FF6FAFH   LINE      CODE     ---       #561
      00FF6FB4H   LINE      CODE     ---       #562
      00FF6FBBH   LINE      CODE     ---       #563
      00FF6FC2H   LINE      CODE     ---       #564
      00FF6FC9H   LINE      CODE     ---       #565
      00FF6FCEH   LINE      CODE     ---       #566
      00FF6FD5H   LINE      CODE     ---       #568
      00FF6FDAH   LINE      CODE     ---       #569
      00FF6FE1H   LINE      CODE     ---       #570
      00FF6FE7H   LINE      CODE     ---       #572
      00FF6FECH   LINE      CODE     ---       #573
      00FF6FF3H   LINE      CODE     ---       #574
      00FF6FFAH   LINE      CODE     ---       #575
L251 LINKER/LOCATER V4.66.93.0                                                        10/23/2025  22:33:42  PAGE 92


      00FF6FFFH   LINE      CODE     ---       #576
      00FF7006H   LINE      CODE     ---       #577
      00FF700DH   LINE      CODE     ---       #579
      00FF7012H   LINE      CODE     ---       #580
      00FF7019H   LINE      CODE     ---       #582
      00FF701EH   LINE      CODE     ---       #583
      00FF7036H   LINE      CODE     ---       #585
      00FF703FH   LINE      CODE     ---       #586
      00FF7047H   LINE      CODE     ---       #587
      00FF7050H   LINE      CODE     ---       #588
      00FF7057H   LINE      CODE     ---       #589
      00FF7057H   LINE      CODE     ---       #591
      00FF705CH   LINE      CODE     ---       #592
      00FF7063H   LINE      CODE     ---       #593
      00FF706AH   LINE      CODE     ---       #594
      00FF7071H   LINE      CODE     ---       #595
      00FF7078H   LINE      CODE     ---       #596
      00FF707FH   LINE      CODE     ---       #597
      00FF7086H   LINE      CODE     ---       #598
      00FF708DH   LINE      CODE     ---       #599
      00FF7094H   LINE      CODE     ---       #600
      00FF709BH   LINE      CODE     ---       #601
      00FF70A2H   LINE      CODE     ---       #602
      00FF70A9H   LINE      CODE     ---       #603
      00FF70B0H   LINE      CODE     ---       #604
      00FF70B6H   LINE      CODE     ---       #605
      00FF70BDH   LINE      CODE     ---       #606
      00FF70C4H   LINE      CODE     ---       #607
      00FF70CBH   LINE      CODE     ---       #609
      00FF70D0H   LINE      CODE     ---       #610
      00FF70D7H   LINE      CODE     ---       #611
      00FF70DEH   LINE      CODE     ---       #612
      00FF70E5H   LINE      CODE     ---       #613
      00FF70ECH   LINE      CODE     ---       #614
      00FF70F3H   LINE      CODE     ---       #615
      00FF70FAH   LINE      CODE     ---       #616
      00FF7101H   LINE      CODE     ---       #617
      00FF7108H   LINE      CODE     ---       #618
      00FF710FH   LINE      CODE     ---       #619
      00FF7116H   LINE      CODE     ---       #620
      00FF711DH   LINE      CODE     ---       #621
      00FF7124H   LINE      CODE     ---       #622
      00FF712AH   LINE      CODE     ---       #623
      00FF7131H   LINE      CODE     ---       #624
      00FF7138H   LINE      CODE     ---       #625
      00FF713FH   LINE      CODE     ---       #627
      00FF7144H   LINE      CODE     ---       #628
      00FF714AH   LINE      CODE     ---       #629
      00FF7151H   LINE      CODE     ---       #630
      00FF7157H   LINE      CODE     ---       #631
      00FF715EH   LINE      CODE     ---       #633
      00FF7163H   LINE      CODE     ---       #634
      00FF7169H   LINE      CODE     ---       #635
      00FF7170H   LINE      CODE     ---       #636
      00FF7176H   LINE      CODE     ---       #637
      00FF717DH   LINE      CODE     ---       #639
      00FF7182H   LINE      CODE     ---       #640
      00FF7189H   LINE      CODE     ---       #641
      00FF718EH   LINE      CODE     ---       #642
      00FF7194H   LINE      CODE     ---       #644
      00FF7199H   LINE      CODE     ---       #645
      00FF71A0H   LINE      CODE     ---       #646
      00FF71A5H   LINE      CODE     ---       #648
      00FF71AEH   LINE      CODE     ---       #649
      ---         BLOCKEND  ---      ---       LVL=0
L251 LINKER/LOCATER V4.66.93.0                                                        10/23/2025  22:33:42  PAGE 93



      ---         MODULE    ---      ---       zf_device_ips114
      000112EFH   PUBLIC    XDATA    WORD      ips114_pencolor
      000112F1H   PUBLIC    XDATA    WORD      ips114_bgcolor
      000112F3H   PUBLIC    XDATA    INT       ips114_display_dir
      000112F5H   PUBLIC    XDATA    BYTE      ips114_x_max
      000112F6H   PUBLIC    XDATA    BYTE      ips114_y_max
      000000D0H   SFRSYM    DATA     BYTE      PSW
      0000009DH   SFRSYM    DATA     BYTE      IRCBAND
      00000097H   SFRSYM    DATA     BYTE      AUXR2
      000000EFH   SFRSYM    DATA     BYTE      AUXINTIF
      000000FDH   SFRSYM    DATA     BYTE      S4CON
      000000ACH   SFRSYM    DATA     BYTE      S3CON
      0000009AH   SFRSYM    DATA     BYTE      S2CON
      000000B7H   SFRSYM    DATA     BYTE      IPH
      000000CDH   SFRSYM    DATA     BYTE      SPSTAT
      000000DDH   SFRSYM    DATA     BYTE      T4T3M
      000000C1H   SFRSYM    DATA     BYTE      WDT_CONTR
      000000DFH   SFRSYM    DATA     BYTE      IP3
      000000F4H   SFRSYM    DATA     BYTE      USBCON
      000000B5H   SFRSYM    DATA     BYTE      IP2
      000000FFH   SFRSYM    DATA     BYTE      RSTCFG
      000000C7H   SFRSYM    DATA     BYTE      IAP_CONTR
      0000008EH   SFRSYM    DATA     BYTE      AUXR
      000000AFH   SFRSYM    DATA     BYTE      IE2
      00000088H   SFRSYM    DATA     BYTE      TCON
      00000089H   SFRSYM    DATA     BYTE      TMOD
      00000098H   SFRSYM    DATA     BYTE      SCON
      000000A0H.2 SFRSYM    DATA     BIT       P22
      000000A0H.1 SFRSYM    DATA     BIT       P21
      000000A0H.0 SFRSYM    DATA     BIT       P20
      00000087H   SFRSYM    DATA     BYTE      PCON
      000000BCH   SFRSYM    DATA     BYTE      ADC_CONTR
      000000D1H   SFRSYM    DATA     BYTE      PSW1
      000000E7H   SFRSYM    DATA     BYTE      CMPCR2
      000000E6H   SFRSYM    DATA     BYTE      CMPCR1
      000000DEH   SFRSYM    DATA     BYTE      ADCCFG
      000000B8H   SFRSYM    DATA     BYTE      IP
      0000008FH   SFRSYM    DATA     BYTE      INTCLKO
      000000EEH   SFRSYM    DATA     BYTE      IP3H
      000000B6H   SFRSYM    DATA     BYTE      IP2H
      000000BFH   SFRSYM    DATA     BYTE      P_SW4
      000000A8H   SFRSYM    DATA     BYTE      IE
      000000BBH   SFRSYM    DATA     BYTE      P_SW3
      000000BAH   SFRSYM    DATA     BYTE      P_SW2
      000000A2H   SFRSYM    DATA     BYTE      P_SW1
      000000CEH   SFRSYM    DATA     BYTE      SPCTL
      000000F8H   SFRSYM    DATA     BYTE      P7
      000000E8H   SFRSYM    DATA     BYTE      P6
      000000C8H   SFRSYM    DATA     BYTE      P5
      000000C0H   SFRSYM    DATA     BYTE      P4
      000000ABH   SFRSYM    DATA     BYTE      WKTCH
      000000B0H   SFRSYM    DATA     BYTE      P3
      000000A0H   SFRSYM    DATA     BYTE      P2
      00000090H   SFRSYM    DATA     BYTE      P1
      00000080H   SFRSYM    DATA     BYTE      P0
      R5          REGSYM    ---      BYTE      dat
      WR12        REGSYM    ---      WORD      x2
      WR14        REGSYM    ---      WORD      y2
      WR14        REGSYM    ---      WORD      color
      WR12        REGSYM    ---      WORD      i
      WR6         REGSYM    ---      INT       dir
      WR6         REGSYM    ---      WORD      pen
      WR4         REGSYM    ---      WORD      bgcolor
      WR12        REGSYM    ---      WORD      x
L251 LINKER/LOCATER V4.66.93.0                                                        10/23/2025  22:33:42  PAGE 94


      WR14        REGSYM    ---      WORD      y
      WR12        REGSYM    ---      WORD      x
      WR14        REGSYM    ---      WORD      y
      REG=3       REGSYM    ---      ---       dat
      WR12        REGSYM    ---      WORD      x
      WR14        REGSYM    ---      WORD      y
      WR12        REGSYM    ---      WORD      x
      WR14        REGSYM    ---      WORD      y
      WR12        REGSYM    ---      WORD      x
      WR14        REGSYM    ---      WORD      y
      WR12        REGSYM    ---      WORD      x
      WR14        REGSYM    ---      WORD      y
      WR12        REGSYM    ---      WORD      y
      R15         REGSYM    ---      BYTE      num
      R14         REGSYM    ---      BYTE      length
      WR12        REGSYM    ---      WORD      y
      R14         REGSYM    ---      BYTE      num
      R15         REGSYM    ---      BYTE      pointnum
      R10         REGSYM    ---      CHAR      point
      REG=3       REGSYM    ---      ---       p
      REG=3       REGSYM    ---      ---       p

      ---         MODULE    ---      ---       zf_device_ips200
      000112CDH   PUBLIC    XDATA    WORD      ips200_pencolor
      000112CFH   PUBLIC    XDATA    WORD      ips200_bgcolor
      000112D1H   PUBLIC    XDATA    INT       ips200_display_dir
      000112D3H   PUBLIC    XDATA    WORD      ips200_x_max
      000112D5H   PUBLIC    XDATA    WORD      ips200_y_max
      000000D0H   SFRSYM    DATA     BYTE      PSW
      0000009DH   SFRSYM    DATA     BYTE      IRCBAND
      00000097H   SFRSYM    DATA     BYTE      AUXR2
      000000EFH   SFRSYM    DATA     BYTE      AUXINTIF
      000000FDH   SFRSYM    DATA     BYTE      S4CON
      000000ACH   SFRSYM    DATA     BYTE      S3CON
      0000009AH   SFRSYM    DATA     BYTE      S2CON
      000000B7H   SFRSYM    DATA     BYTE      IPH
      000000CDH   SFRSYM    DATA     BYTE      SPSTAT
      000000DDH   SFRSYM    DATA     BYTE      T4T3M
      000000C1H   SFRSYM    DATA     BYTE      WDT_CONTR
      000000DFH   SFRSYM    DATA     BYTE      IP3
      000000F4H   SFRSYM    DATA     BYTE      USBCON
      000000B5H   SFRSYM    DATA     BYTE      IP2
      000000FFH   SFRSYM    DATA     BYTE      RSTCFG
      000000C7H   SFRSYM    DATA     BYTE      IAP_CONTR
      0000008EH   SFRSYM    DATA     BYTE      AUXR
      000000AFH   SFRSYM    DATA     BYTE      IE2
      00000088H   SFRSYM    DATA     BYTE      TCON
      00000089H   SFRSYM    DATA     BYTE      TMOD
      00000098H   SFRSYM    DATA     BYTE      SCON
      000000A0H.2 SFRSYM    DATA     BIT       P22
      000000A0H.1 SFRSYM    DATA     BIT       P21
      000000A0H.0 SFRSYM    DATA     BIT       P20
      00000087H   SFRSYM    DATA     BYTE      PCON
      000000BCH   SFRSYM    DATA     BYTE      ADC_CONTR
      000000D1H   SFRSYM    DATA     BYTE      PSW1
      000000E7H   SFRSYM    DATA     BYTE      CMPCR2
      000000E6H   SFRSYM    DATA     BYTE      CMPCR1
      000000DEH   SFRSYM    DATA     BYTE      ADCCFG
      000000B8H   SFRSYM    DATA     BYTE      IP
      0000008FH   SFRSYM    DATA     BYTE      INTCLKO
      000000EEH   SFRSYM    DATA     BYTE      IP3H
      000000B6H   SFRSYM    DATA     BYTE      IP2H
      000000BFH   SFRSYM    DATA     BYTE      P_SW4
      000000A8H   SFRSYM    DATA     BYTE      IE
      000000BBH   SFRSYM    DATA     BYTE      P_SW3
L251 LINKER/LOCATER V4.66.93.0                                                        10/23/2025  22:33:42  PAGE 95


      000000BAH   SFRSYM    DATA     BYTE      P_SW2
      000000A2H   SFRSYM    DATA     BYTE      P_SW1
      000000CEH   SFRSYM    DATA     BYTE      SPCTL
      000000F8H   SFRSYM    DATA     BYTE      P7
      000000E8H   SFRSYM    DATA     BYTE      P6
      000000C8H   SFRSYM    DATA     BYTE      P5
      000000C0H   SFRSYM    DATA     BYTE      P4
      000000ABH   SFRSYM    DATA     BYTE      WKTCH
      000000B0H   SFRSYM    DATA     BYTE      P3
      000000A0H   SFRSYM    DATA     BYTE      P2
      00000090H   SFRSYM    DATA     BYTE      P1
      00000080H   SFRSYM    DATA     BYTE      P0
      R5          REGSYM    ---      BYTE      dat
      WR12        REGSYM    ---      WORD      x2
      WR14        REGSYM    ---      WORD      y2
      WR14        REGSYM    ---      WORD      color
      WR12        REGSYM    ---      WORD      i
      WR6         REGSYM    ---      INT       dir
      WR6         REGSYM    ---      WORD      pen
      WR4         REGSYM    ---      WORD      bgcolor
      WR12        REGSYM    ---      WORD      x
      WR14        REGSYM    ---      WORD      y
      WR12        REGSYM    ---      WORD      x
      WR14        REGSYM    ---      WORD      y
      REG=3       REGSYM    ---      ---       dat
      WR12        REGSYM    ---      WORD      x
      WR14        REGSYM    ---      WORD      y
      WR12        REGSYM    ---      WORD      x
      WR14        REGSYM    ---      WORD      y
      WR12        REGSYM    ---      WORD      x
      WR14        REGSYM    ---      WORD      y
      WR12        REGSYM    ---      WORD      x
      WR14        REGSYM    ---      WORD      y
      WR12        REGSYM    ---      WORD      y
      R15         REGSYM    ---      BYTE      num
      R14         REGSYM    ---      BYTE      length
      WR12        REGSYM    ---      WORD      y
      R14         REGSYM    ---      BYTE      num
      R15         REGSYM    ---      BYTE      pointnum
      R10         REGSYM    ---      CHAR      point
      REG=3       REGSYM    ---      ---       p
      REG=3       REGSYM    ---      ---       p

      ---         MODULE    ---      ---       zf_device_dl1a
      0001128DH   PUBLIC    XDATA    WORD      dl1a_distance_mm
      0001128FH   PUBLIC    XDATA    BYTE      dl1a_finsh_flag
      000000D0H   SFRSYM    DATA     BYTE      PSW
      0000009DH   SFRSYM    DATA     BYTE      IRCBAND
      00000097H   SFRSYM    DATA     BYTE      AUXR2
      000000EFH   SFRSYM    DATA     BYTE      AUXINTIF
      000000FDH   SFRSYM    DATA     BYTE      S4CON
      000000ACH   SFRSYM    DATA     BYTE      S3CON
      0000009AH   SFRSYM    DATA     BYTE      S2CON
      000000B7H   SFRSYM    DATA     BYTE      IPH
      000000CDH   SFRSYM    DATA     BYTE      SPSTAT
      000000DDH   SFRSYM    DATA     BYTE      T4T3M
      000000C1H   SFRSYM    DATA     BYTE      WDT_CONTR
      000000DFH   SFRSYM    DATA     BYTE      IP3
      000000F4H   SFRSYM    DATA     BYTE      USBCON
      000000B5H   SFRSYM    DATA     BYTE      IP2
      000000FFH   SFRSYM    DATA     BYTE      RSTCFG
      000000C7H   SFRSYM    DATA     BYTE      IAP_CONTR
      0000008EH   SFRSYM    DATA     BYTE      AUXR
      000000AFH   SFRSYM    DATA     BYTE      IE2
      00000088H   SFRSYM    DATA     BYTE      TCON
L251 LINKER/LOCATER V4.66.93.0                                                        10/23/2025  22:33:42  PAGE 96


      00000089H   SFRSYM    DATA     BYTE      TMOD
      00000098H   SFRSYM    DATA     BYTE      SCON
      00000087H   SFRSYM    DATA     BYTE      PCON
      000000BCH   SFRSYM    DATA     BYTE      ADC_CONTR
      000000D1H   SFRSYM    DATA     BYTE      PSW1
      000000E7H   SFRSYM    DATA     BYTE      CMPCR2
      000000E6H   SFRSYM    DATA     BYTE      CMPCR1
      000000DEH   SFRSYM    DATA     BYTE      ADCCFG
      000000B8H   SFRSYM    DATA     BYTE      IP
      0000008FH   SFRSYM    DATA     BYTE      INTCLKO
      000000EEH   SFRSYM    DATA     BYTE      IP3H
      000000B6H   SFRSYM    DATA     BYTE      IP2H
      000000BFH   SFRSYM    DATA     BYTE      P_SW4
      000000A8H   SFRSYM    DATA     BYTE      IE
      000000BBH   SFRSYM    DATA     BYTE      P_SW3
      000000BAH   SFRSYM    DATA     BYTE      P_SW2
      000000A2H   SFRSYM    DATA     BYTE      P_SW1
      000000CEH   SFRSYM    DATA     BYTE      SPCTL
      000000F8H   SFRSYM    DATA     BYTE      P7
      000000E8H   SFRSYM    DATA     BYTE      P6
      000000C8H   SFRSYM    DATA     BYTE      P5
      000000C0H   SFRSYM    DATA     BYTE      P4
      000000ABH   SFRSYM    DATA     BYTE      WKTCH
      000000B0H   SFRSYM    DATA     BYTE      P3
      000000A0H   SFRSYM    DATA     BYTE      P2
      00000090H   SFRSYM    DATA     BYTE      P1
      00000080H   SFRSYM    DATA     BYTE      P0
      00FFD0F9H   SYMBOL    HCONST   ---       ?tpl?0001
      00FFD101H   SYMBOL    HCONST   ---       ?tpl?0002
      00FFD107H   SYMBOL    HCONST   ---       ?tpl?0003
      00FFD111H   SYMBOL    HCONST   ---       ?tpl?0004
      00011284H   SYMBOL    XDATA    ---       dl1a_iic_struct
      00011290H   SYMBOL    XDATA    BYTE      dl1a_init_flag
      REG=3       REGSYM    ---      ---       type_is_aperture
      WR30        REGSYM    ---      WORD      timeout_period_mclks
      R5          REGSYM    ---      BYTE      vcsel_period_pclks
      DR24        REGSYM    ---      DWORD     macro_period_ns
      DR28        REGSYM    ---      DWORD     timeout_period_us
      R3          REGSYM    ---      BYTE      vcsel_period_pclks
      DR8         REGSYM    ---      DWORD     macro_period_ns
      WR4         REGSYM    ---      WORD      reg_val
      WR2         REGSYM    ---      WORD      timeout_mclks
      DR8         REGSYM    ---      DWORD     ls_byte
      WR4         REGSYM    ---      WORD      ms_byte
      WR6         REGSYM    ---      WORD      return_data
      REG=3       REGSYM    ---      ---       enables
      WR14        REGSYM    ---      INT       type
      REG=3       REGSYM    ---      ---       timeouts
      R10         REGSYM    ---      BYTE      vhv_init_byte
      R15         REGSYM    ---      BYTE      return_state
      DR12        REGSYM    ---      DWORD     budget_us
      DR12        REGSYM    ---      DWORD     budget_us
      DR28        REGSYM    ---      FLOAT     limit_mcps
      WR14        REGSYM    ---      WORD      limit_mcps_16bit
      R15         REGSYM    ---      BYTE      return_state
      R14         REGSYM    ---      BYTE      reg_data_buffer
      WR12        REGSYM    ---      WORD      i

      ---         MODULE    ---      ---       zf_device_ble6a20
      000000D0H   SFRSYM    DATA     BYTE      PSW
      0000009DH   SFRSYM    DATA     BYTE      IRCBAND
      00000097H   SFRSYM    DATA     BYTE      AUXR2
      000000EFH   SFRSYM    DATA     BYTE      AUXINTIF
      000000FDH   SFRSYM    DATA     BYTE      S4CON
      000000ACH   SFRSYM    DATA     BYTE      S3CON
L251 LINKER/LOCATER V4.66.93.0                                                        10/23/2025  22:33:42  PAGE 97


      0000009AH   SFRSYM    DATA     BYTE      S2CON
      000000B7H   SFRSYM    DATA     BYTE      IPH
      000000CDH   SFRSYM    DATA     BYTE      SPSTAT
      000000DDH   SFRSYM    DATA     BYTE      T4T3M
      000000C1H   SFRSYM    DATA     BYTE      WDT_CONTR
      000000DFH   SFRSYM    DATA     BYTE      IP3
      000000F4H   SFRSYM    DATA     BYTE      USBCON
      000000B5H   SFRSYM    DATA     BYTE      IP2
      000000FFH   SFRSYM    DATA     BYTE      RSTCFG
      000000C7H   SFRSYM    DATA     BYTE      IAP_CONTR
      0000008EH   SFRSYM    DATA     BYTE      AUXR
      000000AFH   SFRSYM    DATA     BYTE      IE2
      00000088H   SFRSYM    DATA     BYTE      TCON
      00000089H   SFRSYM    DATA     BYTE      TMOD
      00000098H   SFRSYM    DATA     BYTE      SCON
      00000087H   SFRSYM    DATA     BYTE      PCON
      000000BCH   SFRSYM    DATA     BYTE      ADC_CONTR
      000000D1H   SFRSYM    DATA     BYTE      PSW1
      000000E7H   SFRSYM    DATA     BYTE      CMPCR2
      000000E6H   SFRSYM    DATA     BYTE      CMPCR1
      000000DEH   SFRSYM    DATA     BYTE      ADCCFG
      000000B8H   SFRSYM    DATA     BYTE      IP
      0000008FH   SFRSYM    DATA     BYTE      INTCLKO
      000000EEH   SFRSYM    DATA     BYTE      IP3H
      000000B6H   SFRSYM    DATA     BYTE      IP2H
      000000BFH   SFRSYM    DATA     BYTE      P_SW4
      000000A8H   SFRSYM    DATA     BYTE      IE
      000000BBH   SFRSYM    DATA     BYTE      P_SW3
      000000BAH   SFRSYM    DATA     BYTE      P_SW2
      000000A2H   SFRSYM    DATA     BYTE      P_SW1
      000000CEH   SFRSYM    DATA     BYTE      SPCTL
      000000F8H   SFRSYM    DATA     BYTE      P7
      000000E8H   SFRSYM    DATA     BYTE      P6
      000000C8H   SFRSYM    DATA     BYTE      P5
      000000C0H   SFRSYM    DATA     BYTE      P4
      000000ABH   SFRSYM    DATA     BYTE      WKTCH
      000000B0H   SFRSYM    DATA     BYTE      P3
      000000A0H   SFRSYM    DATA     BYTE      P2
      00000090H   SFRSYM    DATA     BYTE      P1
      00000080H   SFRSYM    DATA     BYTE      P0
      000110F8H   SYMBOL    XDATA    ---       ble6a20_buffer
      00011138H   SYMBOL    XDATA    ---       ble6a20_fifo
      R15         REGSYM    ---      BYTE      dat
      WR12        REGSYM    ---      WORD      time_cnt
      DR12        REGSYM    ---      DWORD     len
      REG=3       REGSYM    ---      ---       str
      REG=3       REGSYM    ---      ---       buff
      DR8         REGSYM    ---      DWORD     len
      R15         REGSYM    ---      BYTE      return_state

      ---         MODULE    ---      ---       zf_device_wireless_uart
      000000D0H   SFRSYM    DATA     BYTE      PSW
      0000009DH   SFRSYM    DATA     BYTE      IRCBAND
      00000097H   SFRSYM    DATA     BYTE      AUXR2
      000000EFH   SFRSYM    DATA     BYTE      AUXINTIF
      000000FDH   SFRSYM    DATA     BYTE      S4CON
      000000ACH   SFRSYM    DATA     BYTE      S3CON
      0000009AH   SFRSYM    DATA     BYTE      S2CON
      000000B7H   SFRSYM    DATA     BYTE      IPH
      000000CDH   SFRSYM    DATA     BYTE      SPSTAT
      000000DDH   SFRSYM    DATA     BYTE      T4T3M
      000000C1H   SFRSYM    DATA     BYTE      WDT_CONTR
      000000DFH   SFRSYM    DATA     BYTE      IP3
      000000F4H   SFRSYM    DATA     BYTE      USBCON
      000000B5H   SFRSYM    DATA     BYTE      IP2
L251 LINKER/LOCATER V4.66.93.0                                                        10/23/2025  22:33:42  PAGE 98


      000000FFH   SFRSYM    DATA     BYTE      RSTCFG
      000000C7H   SFRSYM    DATA     BYTE      IAP_CONTR
      0000008EH   SFRSYM    DATA     BYTE      AUXR
      000000AFH   SFRSYM    DATA     BYTE      IE2
      00000088H   SFRSYM    DATA     BYTE      TCON
      00000089H   SFRSYM    DATA     BYTE      TMOD
      00000098H   SFRSYM    DATA     BYTE      SCON
      00000087H   SFRSYM    DATA     BYTE      PCON
      000000BCH   SFRSYM    DATA     BYTE      ADC_CONTR
      000000D1H   SFRSYM    DATA     BYTE      PSW1
      000000E7H   SFRSYM    DATA     BYTE      CMPCR2
      000000E6H   SFRSYM    DATA     BYTE      CMPCR1
      000000DEH   SFRSYM    DATA     BYTE      ADCCFG
      000000B8H   SFRSYM    DATA     BYTE      IP
      0000008FH   SFRSYM    DATA     BYTE      INTCLKO
      000000EEH   SFRSYM    DATA     BYTE      IP3H
      000000B6H   SFRSYM    DATA     BYTE      IP2H
      000000BFH   SFRSYM    DATA     BYTE      P_SW4
      000000A8H   SFRSYM    DATA     BYTE      IE
      000000BBH   SFRSYM    DATA     BYTE      P_SW3
      000000BAH   SFRSYM    DATA     BYTE      P_SW2
      000000A2H   SFRSYM    DATA     BYTE      P_SW1
      000000CEH   SFRSYM    DATA     BYTE      SPCTL
      000000F8H   SFRSYM    DATA     BYTE      P7
      000000E8H   SFRSYM    DATA     BYTE      P6
      000000C8H   SFRSYM    DATA     BYTE      P5
      000000C0H   SFRSYM    DATA     BYTE      P4
      000000ABH   SFRSYM    DATA     BYTE      WKTCH
      000000B0H   SFRSYM    DATA     BYTE      P3
      000000A0H   SFRSYM    DATA     BYTE      P2
      00000090H   SFRSYM    DATA     BYTE      P1
      00000080H   SFRSYM    DATA     BYTE      P0
      0001114FH   SYMBOL    XDATA    ---       wireless_uart_fifo
      00011166H   SYMBOL    XDATA    ---       wireless_uart_buffer
      R15         REGSYM    ---      BYTE      dat
      WR12        REGSYM    ---      WORD      time_cnt
      DR12        REGSYM    ---      DWORD     len
      REG=3       REGSYM    ---      ---       str
      REG=3       REGSYM    ---      ---       buff
      DR8         REGSYM    ---      DWORD     len
      R15         REGSYM    ---      BYTE      return_state

      ---         MODULE    ---      ---       zf_device_icm20602
      0001124BH   PUBLIC    XDATA    INT       icm20602_acc_x
      0001124DH   PUBLIC    XDATA    INT       icm20602_acc_y
      0001124FH   PUBLIC    XDATA    INT       icm20602_acc_z
      00011251H   PUBLIC    XDATA    INT       icm20602_gyro_x
      00011253H   PUBLIC    XDATA    INT       icm20602_gyro_y
      00011255H   PUBLIC    XDATA    INT       icm20602_gyro_z
      00011257H   PUBLIC    XDATA    ---       icm20602_transition_factor
      000000D0H   SFRSYM    DATA     BYTE      PSW
      0000009DH   SFRSYM    DATA     BYTE      IRCBAND
      00000097H   SFRSYM    DATA     BYTE      AUXR2
      000000EFH   SFRSYM    DATA     BYTE      AUXINTIF
      000000FDH   SFRSYM    DATA     BYTE      S4CON
      000000ACH   SFRSYM    DATA     BYTE      S3CON
      0000009AH   SFRSYM    DATA     BYTE      S2CON
      000000B7H   SFRSYM    DATA     BYTE      IPH
      000000CDH   SFRSYM    DATA     BYTE      SPSTAT
      000000DDH   SFRSYM    DATA     BYTE      T4T3M
      000000C1H   SFRSYM    DATA     BYTE      WDT_CONTR
      000000DFH   SFRSYM    DATA     BYTE      IP3
      000000F4H   SFRSYM    DATA     BYTE      USBCON
      000000B5H   SFRSYM    DATA     BYTE      IP2
      000000FFH   SFRSYM    DATA     BYTE      RSTCFG
L251 LINKER/LOCATER V4.66.93.0                                                        10/23/2025  22:33:42  PAGE 99


      000000C7H   SFRSYM    DATA     BYTE      IAP_CONTR
      0000008EH   SFRSYM    DATA     BYTE      AUXR
      000000AFH   SFRSYM    DATA     BYTE      IE2
      000000C0H.3 SFRSYM    DATA     BIT       P43
      000000C0H.2 SFRSYM    DATA     BIT       P42
      00000088H   SFRSYM    DATA     BYTE      TCON
      00000089H   SFRSYM    DATA     BYTE      TMOD
      000000C0H.1 SFRSYM    DATA     BIT       P41
      00000098H   SFRSYM    DATA     BYTE      SCON
      000000C0H.0 SFRSYM    DATA     BIT       P40
      00000087H   SFRSYM    DATA     BYTE      PCON
      000000BCH   SFRSYM    DATA     BYTE      ADC_CONTR
      000000D1H   SFRSYM    DATA     BYTE      PSW1
      000000E7H   SFRSYM    DATA     BYTE      CMPCR2
      000000E6H   SFRSYM    DATA     BYTE      CMPCR1
      000000DEH   SFRSYM    DATA     BYTE      ADCCFG
      000000B8H   SFRSYM    DATA     BYTE      IP
      0000008FH   SFRSYM    DATA     BYTE      INTCLKO
      000000EEH   SFRSYM    DATA     BYTE      IP3H
      000000B6H   SFRSYM    DATA     BYTE      IP2H
      000000BFH   SFRSYM    DATA     BYTE      P_SW4
      000000A8H   SFRSYM    DATA     BYTE      IE
      000000BBH   SFRSYM    DATA     BYTE      P_SW3
      000000BAH   SFRSYM    DATA     BYTE      P_SW2
      000000A2H   SFRSYM    DATA     BYTE      P_SW1
      000000CEH   SFRSYM    DATA     BYTE      SPCTL
      000000F8H   SFRSYM    DATA     BYTE      P7
      000000E8H   SFRSYM    DATA     BYTE      P6
      000000C8H   SFRSYM    DATA     BYTE      P5
      000000C0H   SFRSYM    DATA     BYTE      P4
      000000ABH   SFRSYM    DATA     BYTE      WKTCH
      000000B0H   SFRSYM    DATA     BYTE      P3
      000000A0H   SFRSYM    DATA     BYTE      P2
      00000090H   SFRSYM    DATA     BYTE      P1
      00000080H   SFRSYM    DATA     BYTE      P0
      R7          REGSYM    ---      BYTE      byte
      R6          REGSYM    ---      BYTE      i
      R7          REGSYM    ---      BYTE      cmd
      R15         REGSYM    ---      BYTE      val
      R10         REGSYM    ---      BYTE      cmd
      REG=3       REGSYM    ---      ---       val
      R10         REGSYM    ---      BYTE      cmd
      REG=3       REGSYM    ---      ---       val
      R11         REGSYM    ---      BYTE      reg
      R10         REGSYM    ---      BYTE      dat
      R7          REGSYM    ---      BYTE      reg
      R3          REGSYM    ---      BYTE      reg
      REG=1       REGSYM    ---      ---       dat
      DR28        REGSYM    ---      DWORD     len
      R14         REGSYM    ---      BYTE      dat
      R15         REGSYM    ---      BYTE      return_state
      WR12        REGSYM    ---      WORD      timeout_count
      R14         REGSYM    ---      BYTE      val
      R15         REGSYM    ---      BYTE      return_state
      WR12        REGSYM    ---      WORD      timeout_count

      ---         MODULE    ---      ---       zf_device_imu660ra
      0001125FH   PUBLIC    XDATA    INT       imu660ra_acc_x
      00011261H   PUBLIC    XDATA    INT       imu660ra_acc_y
      00011263H   PUBLIC    XDATA    INT       imu660ra_acc_z
      00011265H   PUBLIC    XDATA    INT       imu660ra_gyro_x
      00011267H   PUBLIC    XDATA    INT       imu660ra_gyro_y
      00011269H   PUBLIC    XDATA    INT       imu660ra_gyro_z
      0001126BH   PUBLIC    XDATA    ---       imu660ra_transition_factor
      000000D0H   SFRSYM    DATA     BYTE      PSW
L251 LINKER/LOCATER V4.66.93.0                                                        10/23/2025  22:33:42  PAGE 100


      0000009DH   SFRSYM    DATA     BYTE      IRCBAND
      00000097H   SFRSYM    DATA     BYTE      AUXR2
      000000EFH   SFRSYM    DATA     BYTE      AUXINTIF
      000000FDH   SFRSYM    DATA     BYTE      S4CON
      000000ACH   SFRSYM    DATA     BYTE      S3CON
      0000009AH   SFRSYM    DATA     BYTE      S2CON
      000000B7H   SFRSYM    DATA     BYTE      IPH
      000000CDH   SFRSYM    DATA     BYTE      SPSTAT
      000000DDH   SFRSYM    DATA     BYTE      T4T3M
      000000C1H   SFRSYM    DATA     BYTE      WDT_CONTR
      000000DFH   SFRSYM    DATA     BYTE      IP3
      000000F4H   SFRSYM    DATA     BYTE      USBCON
      000000B5H   SFRSYM    DATA     BYTE      IP2
      000000FFH   SFRSYM    DATA     BYTE      RSTCFG
      000000C7H   SFRSYM    DATA     BYTE      IAP_CONTR
      0000008EH   SFRSYM    DATA     BYTE      AUXR
      000000AFH   SFRSYM    DATA     BYTE      IE2
      000000C0H.3 SFRSYM    DATA     BIT       P43
      000000C0H.2 SFRSYM    DATA     BIT       P42
      00000088H   SFRSYM    DATA     BYTE      TCON
      00000089H   SFRSYM    DATA     BYTE      TMOD
      000000C0H.1 SFRSYM    DATA     BIT       P41
      00000098H   SFRSYM    DATA     BYTE      SCON
      000000C0H.0 SFRSYM    DATA     BIT       P40
      00000087H   SFRSYM    DATA     BYTE      PCON
      000000BCH   SFRSYM    DATA     BYTE      ADC_CONTR
      000000D1H   SFRSYM    DATA     BYTE      PSW1
      000000E7H   SFRSYM    DATA     BYTE      CMPCR2
      000000E6H   SFRSYM    DATA     BYTE      CMPCR1
      000000DEH   SFRSYM    DATA     BYTE      ADCCFG
      000000B8H   SFRSYM    DATA     BYTE      IP
      0000008FH   SFRSYM    DATA     BYTE      INTCLKO
      000000EEH   SFRSYM    DATA     BYTE      IP3H
      000000B6H   SFRSYM    DATA     BYTE      IP2H
      000000BFH   SFRSYM    DATA     BYTE      P_SW4
      000000A8H   SFRSYM    DATA     BYTE      IE
      000000BBH   SFRSYM    DATA     BYTE      P_SW3
      000000BAH   SFRSYM    DATA     BYTE      P_SW2
      000000A2H   SFRSYM    DATA     BYTE      P_SW1
      000000CEH   SFRSYM    DATA     BYTE      SPCTL
      000000F8H   SFRSYM    DATA     BYTE      P7
      000000E8H   SFRSYM    DATA     BYTE      P6
      000000C8H   SFRSYM    DATA     BYTE      P5
      000000C0H   SFRSYM    DATA     BYTE      P4
      000000ABH   SFRSYM    DATA     BYTE      WKTCH
      000000B0H   SFRSYM    DATA     BYTE      P3
      000000A0H   SFRSYM    DATA     BYTE      P2
      00000090H   SFRSYM    DATA     BYTE      P1
      00000080H   SFRSYM    DATA     BYTE      P0
      R7          REGSYM    ---      BYTE      byte
      R6          REGSYM    ---      BYTE      i
      R7          REGSYM    ---      BYTE      cmd
      R15         REGSYM    ---      BYTE      val
      R7          REGSYM    ---      BYTE      cmd
      DR12        REGSYM    ---      DWORD     len
      R10         REGSYM    ---      BYTE      cmd
      REG=3       REGSYM    ---      ---       val
      R11         REGSYM    ---      BYTE      reg
      R10         REGSYM    ---      BYTE      dat
      R3          REGSYM    ---      BYTE      reg
      REG=1       REGSYM    ---      ---       dat
      DR28        REGSYM    ---      DWORD     len
      R7          REGSYM    ---      BYTE      reg
      R5          REGSYM    ---      BYTE      reg
      REG=3       REGSYM    ---      ---       dat
L251 LINKER/LOCATER V4.66.93.0                                                        10/23/2025  22:33:42  PAGE 101


      R14         REGSYM    ---      BYTE      dat
      R15         REGSYM    ---      BYTE      return_state
      WR12        REGSYM    ---      WORD      timeout_count
      R15         REGSYM    ---      BYTE      return_state

      ---         MODULE    ---      ---       zf_device_imu660rb
      000112B6H   PUBLIC    XDATA    INT       imu660rb_acc_x
      000112B8H   PUBLIC    XDATA    INT       imu660rb_acc_y
      000112BAH   PUBLIC    XDATA    INT       imu660rb_acc_z
      000112BCH   PUBLIC    XDATA    INT       imu660rb_gyro_x
      000112BEH   PUBLIC    XDATA    INT       imu660rb_gyro_y
      000112C0H   PUBLIC    XDATA    INT       imu660rb_gyro_z
      000000D0H   SFRSYM    DATA     BYTE      PSW
      0000009DH   SFRSYM    DATA     BYTE      IRCBAND
      00000097H   SFRSYM    DATA     BYTE      AUXR2
      000000EFH   SFRSYM    DATA     BYTE      AUXINTIF
      000000FDH   SFRSYM    DATA     BYTE      S4CON
      000000ACH   SFRSYM    DATA     BYTE      S3CON
      0000009AH   SFRSYM    DATA     BYTE      S2CON
      000000B7H   SFRSYM    DATA     BYTE      IPH
      000000CDH   SFRSYM    DATA     BYTE      SPSTAT
      000000DDH   SFRSYM    DATA     BYTE      T4T3M
      000000C1H   SFRSYM    DATA     BYTE      WDT_CONTR
      000000DFH   SFRSYM    DATA     BYTE      IP3
      000000F4H   SFRSYM    DATA     BYTE      USBCON
      000000B5H   SFRSYM    DATA     BYTE      IP2
      000000FFH   SFRSYM    DATA     BYTE      RSTCFG
      000000C7H   SFRSYM    DATA     BYTE      IAP_CONTR
      0000008EH   SFRSYM    DATA     BYTE      AUXR
      000000AFH   SFRSYM    DATA     BYTE      IE2
      000000C0H.3 SFRSYM    DATA     BIT       P43
      000000C0H.2 SFRSYM    DATA     BIT       P42
      00000088H   SFRSYM    DATA     BYTE      TCON
      00000089H   SFRSYM    DATA     BYTE      TMOD
      000000C0H.1 SFRSYM    DATA     BIT       P41
      00000098H   SFRSYM    DATA     BYTE      SCON
      000000C0H.0 SFRSYM    DATA     BIT       P40
      00000087H   SFRSYM    DATA     BYTE      PCON
      000000BCH   SFRSYM    DATA     BYTE      ADC_CONTR
      000000D1H   SFRSYM    DATA     BYTE      PSW1
      000000E7H   SFRSYM    DATA     BYTE      CMPCR2
      000000E6H   SFRSYM    DATA     BYTE      CMPCR1
      000000DEH   SFRSYM    DATA     BYTE      ADCCFG
      000000B8H   SFRSYM    DATA     BYTE      IP
      0000008FH   SFRSYM    DATA     BYTE      INTCLKO
      000000EEH   SFRSYM    DATA     BYTE      IP3H
      000000B6H   SFRSYM    DATA     BYTE      IP2H
      000000BFH   SFRSYM    DATA     BYTE      P_SW4
      000000A8H   SFRSYM    DATA     BYTE      IE
      000000BBH   SFRSYM    DATA     BYTE      P_SW3
      000000BAH   SFRSYM    DATA     BYTE      P_SW2
      000000A2H   SFRSYM    DATA     BYTE      P_SW1
      000000CEH   SFRSYM    DATA     BYTE      SPCTL
      000000F8H   SFRSYM    DATA     BYTE      P7
      000000E8H   SFRSYM    DATA     BYTE      P6
      000000C8H   SFRSYM    DATA     BYTE      P5
      000000C0H   SFRSYM    DATA     BYTE      P4
      000000ABH   SFRSYM    DATA     BYTE      WKTCH
      000000B0H   SFRSYM    DATA     BYTE      P3
      000000A0H   SFRSYM    DATA     BYTE      P2
      00000090H   SFRSYM    DATA     BYTE      P1
      00000080H   SFRSYM    DATA     BYTE      P0
      R7          REGSYM    ---      BYTE      byte
      R6          REGSYM    ---      BYTE      i
      R7          REGSYM    ---      BYTE      cmd
L251 LINKER/LOCATER V4.66.93.0                                                        10/23/2025  22:33:42  PAGE 102


      R15         REGSYM    ---      BYTE      val
      R10         REGSYM    ---      BYTE      cmd
      REG=3       REGSYM    ---      ---       val
      R10         REGSYM    ---      BYTE      cmd
      REG=3       REGSYM    ---      ---       val
      R11         REGSYM    ---      BYTE      reg
      R10         REGSYM    ---      BYTE      dat
      R7          REGSYM    ---      BYTE      reg
      R3          REGSYM    ---      BYTE      reg
      REG=1       REGSYM    ---      ---       dat
      DR28        REGSYM    ---      DWORD     len
      R14         REGSYM    ---      BYTE      dat
      R15         REGSYM    ---      BYTE      return_state
      WR12        REGSYM    ---      WORD      timeout_count
      WR30        REGSYM    ---      INT       acc_value
      DR24        REGSYM    ---      FLOAT     acc_data
      WR30        REGSYM    ---      INT       gyro_value
      DR24        REGSYM    ---      FLOAT     gyro_data
      R15         REGSYM    ---      BYTE      return_state

      ---         MODULE    ---      ---       zf_device_imu963ra
      0001122DH   PUBLIC    XDATA    INT       imu963ra_acc_x
      0001122FH   PUBLIC    XDATA    INT       imu963ra_acc_y
      00011231H   PUBLIC    XDATA    INT       imu963ra_acc_z
      00011233H   PUBLIC    XDATA    INT       imu963ra_mag_x
      00011235H   PUBLIC    XDATA    INT       imu963ra_mag_y
      00011237H   PUBLIC    XDATA    INT       imu963ra_mag_z
      00011239H   PUBLIC    XDATA    INT       imu963ra_gyro_x
      0001123BH   PUBLIC    XDATA    INT       imu963ra_gyro_y
      0001123DH   PUBLIC    XDATA    INT       imu963ra_gyro_z
      0001123FH   PUBLIC    XDATA    ---       imu963ra_transition_factor
      000000D0H   SFRSYM    DATA     BYTE      PSW
      0000009DH   SFRSYM    DATA     BYTE      IRCBAND
      00000097H   SFRSYM    DATA     BYTE      AUXR2
      000000EFH   SFRSYM    DATA     BYTE      AUXINTIF
      000000FDH   SFRSYM    DATA     BYTE      S4CON
      000000ACH   SFRSYM    DATA     BYTE      S3CON
      0000009AH   SFRSYM    DATA     BYTE      S2CON
      000000B7H   SFRSYM    DATA     BYTE      IPH
      000000CDH   SFRSYM    DATA     BYTE      SPSTAT
      000000DDH   SFRSYM    DATA     BYTE      T4T3M
      000000C1H   SFRSYM    DATA     BYTE      WDT_CONTR
      000000DFH   SFRSYM    DATA     BYTE      IP3
      000000F4H   SFRSYM    DATA     BYTE      USBCON
      000000B5H   SFRSYM    DATA     BYTE      IP2
      000000FFH   SFRSYM    DATA     BYTE      RSTCFG
      000000C7H   SFRSYM    DATA     BYTE      IAP_CONTR
      0000008EH   SFRSYM    DATA     BYTE      AUXR
      000000AFH   SFRSYM    DATA     BYTE      IE2
      000000C0H.3 SFRSYM    DATA     BIT       P43
      000000C0H.2 SFRSYM    DATA     BIT       P42
      00000088H   SFRSYM    DATA     BYTE      TCON
      00000089H   SFRSYM    DATA     BYTE      TMOD
      000000C0H.1 SFRSYM    DATA     BIT       P41
      00000098H   SFRSYM    DATA     BYTE      SCON
      000000C0H.0 SFRSYM    DATA     BIT       P40
      00000087H   SFRSYM    DATA     BYTE      PCON
      000000BCH   SFRSYM    DATA     BYTE      ADC_CONTR
      000000D1H   SFRSYM    DATA     BYTE      PSW1
      000000E7H   SFRSYM    DATA     BYTE      CMPCR2
      000000E6H   SFRSYM    DATA     BYTE      CMPCR1
      000000DEH   SFRSYM    DATA     BYTE      ADCCFG
      000000B8H   SFRSYM    DATA     BYTE      IP
      0000008FH   SFRSYM    DATA     BYTE      INTCLKO
      000000EEH   SFRSYM    DATA     BYTE      IP3H
L251 LINKER/LOCATER V4.66.93.0                                                        10/23/2025  22:33:42  PAGE 103


      000000B6H   SFRSYM    DATA     BYTE      IP2H
      000000BFH   SFRSYM    DATA     BYTE      P_SW4
      000000A8H   SFRSYM    DATA     BYTE      IE
      000000BBH   SFRSYM    DATA     BYTE      P_SW3
      000000BAH   SFRSYM    DATA     BYTE      P_SW2
      000000A2H   SFRSYM    DATA     BYTE      P_SW1
      000000CEH   SFRSYM    DATA     BYTE      SPCTL
      000000F8H   SFRSYM    DATA     BYTE      P7
      000000E8H   SFRSYM    DATA     BYTE      P6
      000000C8H   SFRSYM    DATA     BYTE      P5
      000000C0H   SFRSYM    DATA     BYTE      P4
      000000ABH   SFRSYM    DATA     BYTE      WKTCH
      000000B0H   SFRSYM    DATA     BYTE      P3
      000000A0H   SFRSYM    DATA     BYTE      P2
      00000090H   SFRSYM    DATA     BYTE      P1
      00000080H   SFRSYM    DATA     BYTE      P0
      R7          REGSYM    ---      BYTE      byte
      R6          REGSYM    ---      BYTE      i
      R7          REGSYM    ---      BYTE      cmd
      R15         REGSYM    ---      BYTE      val
      R10         REGSYM    ---      BYTE      cmd
      REG=3       REGSYM    ---      ---       val
      R10         REGSYM    ---      BYTE      cmd
      REG=3       REGSYM    ---      ---       val
      R11         REGSYM    ---      BYTE      reg
      R10         REGSYM    ---      BYTE      dat
      R10         REGSYM    ---      BYTE      reg
      R3          REGSYM    ---      BYTE      reg
      REG=1       REGSYM    ---      ---       dat
      DR28        REGSYM    ---      DWORD     len
      R15         REGSYM    ---      BYTE      addr
      R13         REGSYM    ---      BYTE      reg
      R14         REGSYM    ---      BYTE      dat
      R12         REGSYM    ---      BYTE      return_state
      R10         REGSYM    ---      BYTE      addr
      R15         REGSYM    ---      BYTE      reg
      WR12        REGSYM    ---      WORD      timeout_count
      R10         REGSYM    ---      BYTE      addr
      R15         REGSYM    ---      BYTE      reg
      R15         REGSYM    ---      BYTE      return_state
      R14         REGSYM    ---      BYTE      dat
      WR12        REGSYM    ---      WORD      timeout_count
      R15         REGSYM    ---      BYTE      return_state
      R14         REGSYM    ---      BYTE      dat
      WR12        REGSYM    ---      WORD      timeout_count
      R11         REGSYM    ---      BYTE      temp_status
      R15         REGSYM    ---      BYTE      return_state

      ---         MODULE    ---      ---       zf_device_gps_tau1201
      00010C7BH   PUBLIC    XDATA    BYTE      gps_tau1201_flag
      00010CFCH   PUBLIC    XDATA    ---       gps_tau1201
      00010E30H   PUBLIC    XDATA    INT       gps_gga_state
      00010E32H   PUBLIC    XDATA    INT       gps_rmc_state
      000000D0H   SFRSYM    DATA     BYTE      PSW
      0000009DH   SFRSYM    DATA     BYTE      IRCBAND
      00000097H   SFRSYM    DATA     BYTE      AUXR2
      000000EFH   SFRSYM    DATA     BYTE      AUXINTIF
      000000FDH   SFRSYM    DATA     BYTE      S4CON
      000000ACH   SFRSYM    DATA     BYTE      S3CON
      0000009AH   SFRSYM    DATA     BYTE      S2CON
      000000B7H   SFRSYM    DATA     BYTE      IPH
      000000CDH   SFRSYM    DATA     BYTE      SPSTAT
      000000DDH   SFRSYM    DATA     BYTE      T4T3M
      000000C1H   SFRSYM    DATA     BYTE      WDT_CONTR
      000000DFH   SFRSYM    DATA     BYTE      IP3
L251 LINKER/LOCATER V4.66.93.0                                                        10/23/2025  22:33:42  PAGE 104


      000000F4H   SFRSYM    DATA     BYTE      USBCON
      000000B5H   SFRSYM    DATA     BYTE      IP2
      000000FFH   SFRSYM    DATA     BYTE      RSTCFG
      000000C7H   SFRSYM    DATA     BYTE      IAP_CONTR
      0000008EH   SFRSYM    DATA     BYTE      AUXR
      000000AFH   SFRSYM    DATA     BYTE      IE2
      00000088H   SFRSYM    DATA     BYTE      TCON
      00000089H   SFRSYM    DATA     BYTE      TMOD
      00000098H   SFRSYM    DATA     BYTE      SCON
      00000087H   SFRSYM    DATA     BYTE      PCON
      000000BCH   SFRSYM    DATA     BYTE      ADC_CONTR
      000000D1H   SFRSYM    DATA     BYTE      PSW1
      000000E7H   SFRSYM    DATA     BYTE      CMPCR2
      000000E6H   SFRSYM    DATA     BYTE      CMPCR1
      000000DEH   SFRSYM    DATA     BYTE      ADCCFG
      000000B8H   SFRSYM    DATA     BYTE      IP
      0000008FH   SFRSYM    DATA     BYTE      INTCLKO
      000000EEH   SFRSYM    DATA     BYTE      IP3H
      000000B6H   SFRSYM    DATA     BYTE      IP2H
      000000BFH   SFRSYM    DATA     BYTE      P_SW4
      000000A8H   SFRSYM    DATA     BYTE      IE
      000000BBH   SFRSYM    DATA     BYTE      P_SW3
      000000BAH   SFRSYM    DATA     BYTE      P_SW2
      000000A2H   SFRSYM    DATA     BYTE      P_SW1
      000000CEH   SFRSYM    DATA     BYTE      SPCTL
      000000F8H   SFRSYM    DATA     BYTE      P7
      000000E8H   SFRSYM    DATA     BYTE      P6
      000000C8H   SFRSYM    DATA     BYTE      P5
      000000C0H   SFRSYM    DATA     BYTE      P4
      000000ABH   SFRSYM    DATA     BYTE      WKTCH
      000000B0H   SFRSYM    DATA     BYTE      P3
      000000A0H   SFRSYM    DATA     BYTE      P2
      00000090H   SFRSYM    DATA     BYTE      P1
      00000080H   SFRSYM    DATA     BYTE      P0
      00FFD4CAH   SYMBOL    HCONST   ---       ?tpl?0001
      00FFD4CFH   SYMBOL    HCONST   ---       ?tpl?0002
      00FFD4EBH   SYMBOL    HCONST   ---       ?tpl?0003
      00FFD4F6H   SYMBOL    HCONST   ---       ?tpl?0004
      00FFD501H   SYMBOL    HCONST   ---       ?tpl?0005
      00FFD50CH   SYMBOL    HCONST   ---       ?tpl?0006
      00FFD517H   SYMBOL    HCONST   ---       ?tpl?0007
      00FFD522H   SYMBOL    HCONST   ---       ?tpl?0008
      00FFD52DH   SYMBOL    HCONST   ---       ?tpl?0009
      00FFD538H   SYMBOL    HCONST   ---       ?tpl?000A
      00FFD543H   SYMBOL    HCONST   ---       ?tpl?000B
      00FFD54EH   SYMBOL    HCONST   ---       ?tpl?000C
      00FFD559H   SYMBOL    HCONST   ---       ?tpl?000D
      00010C64H   SYMBOL    XDATA    ---       gps_tau1201_receiver_fifo
      00010C7CH   SYMBOL    XDATA    ---       gps_gga_buffer
      00010D2FH   SYMBOL    XDATA    BYTE      gps_tau1201_state
      00010D30H   SYMBOL    XDATA    ---       gps_rmc_buffer
      00010DB0H   SYMBOL    XDATA    ---       gps_tau1201_receiver_buffer
      REG=3       REGSYM    ---      ---       str
      REG=7       REGSYM    ---      ---       temp
      R7          REGSYM    ---      BYTE      len
      R10         REGSYM    ---      BYTE      len1
      REG=3       REGSYM    ---      ---       s
      REG=3       REGSYM    ---      ---       s
      REG=3       REGSYM    ---      ---       s
      REG=7       REGSYM    ---      ---       time
      R6          REGSYM    ---      BYTE      day_num
      REG=7       REGSYM    ---      ---       line
      REG=3       REGSYM    ---      ---       gps
      REG=0       REGSYM    ---      ---       line
      R15         REGSYM    ---      BYTE      state
L251 LINKER/LOCATER V4.66.93.0                                                        10/23/2025  22:33:42  PAGE 105


      DR12        REGSYM    ---      DWORD     data_len

      ---         MODULE    ---      ---       zf_device_tsl1401
      00010A62H   PUBLIC    XDATA    BYTE      tsl1401_finish_flag
      00010A63H   PUBLIC    XDATA    ---       tsl1401_data
      000000D0H   SFRSYM    DATA     BYTE      PSW
      0000009DH   SFRSYM    DATA     BYTE      IRCBAND
      00000097H   SFRSYM    DATA     BYTE      AUXR2
      000000EFH   SFRSYM    DATA     BYTE      AUXINTIF
      000000FDH   SFRSYM    DATA     BYTE      S4CON
      000000ACH   SFRSYM    DATA     BYTE      S3CON
      0000009AH   SFRSYM    DATA     BYTE      S2CON
      000000B7H   SFRSYM    DATA     BYTE      IPH
      000000CDH   SFRSYM    DATA     BYTE      SPSTAT
      000000DDH   SFRSYM    DATA     BYTE      T4T3M
      000000C1H   SFRSYM    DATA     BYTE      WDT_CONTR
      000000DFH   SFRSYM    DATA     BYTE      IP3
      000000F4H   SFRSYM    DATA     BYTE      USBCON
      000000B5H   SFRSYM    DATA     BYTE      IP2
      000000FFH   SFRSYM    DATA     BYTE      RSTCFG
      000000C7H   SFRSYM    DATA     BYTE      IAP_CONTR
      0000008EH   SFRSYM    DATA     BYTE      AUXR
      000000AFH   SFRSYM    DATA     BYTE      IE2
      00000088H   SFRSYM    DATA     BYTE      TCON
      00000089H   SFRSYM    DATA     BYTE      TMOD
      00000098H   SFRSYM    DATA     BYTE      SCON
      00000087H   SFRSYM    DATA     BYTE      PCON
      000000BCH   SFRSYM    DATA     BYTE      ADC_CONTR
      000000D1H   SFRSYM    DATA     BYTE      PSW1
      000000E7H   SFRSYM    DATA     BYTE      CMPCR2
      000000E6H   SFRSYM    DATA     BYTE      CMPCR1
      000000DEH   SFRSYM    DATA     BYTE      ADCCFG
      000000B8H   SFRSYM    DATA     BYTE      IP
      0000008FH   SFRSYM    DATA     BYTE      INTCLKO
      000000EEH   SFRSYM    DATA     BYTE      IP3H
      000000B6H   SFRSYM    DATA     BYTE      IP2H
      000000BFH   SFRSYM    DATA     BYTE      P_SW4
      000000A8H   SFRSYM    DATA     BYTE      IE
      000000BBH   SFRSYM    DATA     BYTE      P_SW3
      000000BAH   SFRSYM    DATA     BYTE      P_SW2
      000000A2H   SFRSYM    DATA     BYTE      P_SW1
      000000CEH   SFRSYM    DATA     BYTE      SPCTL
      000000F8H   SFRSYM    DATA     BYTE      P7
      000000E8H   SFRSYM    DATA     BYTE      P6
      000000C8H   SFRSYM    DATA     BYTE      P5
      000000C0H   SFRSYM    DATA     BYTE      P4
      000000ABH   SFRSYM    DATA     BYTE      WKTCH
      000000B0H   SFRSYM    DATA     BYTE      P3
      000000A0H   SFRSYM    DATA     BYTE      P2
      00000090H   SFRSYM    DATA     BYTE      P1
      00000080H   SFRSYM    DATA     BYTE      P0
      00010C63H   SYMBOL    XDATA    BYTE      tsl1401_init_state
      R15         REGSYM    ---      BYTE      i
      WR14        REGSYM    ---      INT       uart_n
      R13         REGSYM    ---      BYTE      index
      R12         REGSYM    ---      BYTE      i

      ---         MODULE    ---      ---       seekfree_assistant
      00010E3CH   PUBLIC    XDATA    ---       seekfree_assistant_oscilloscope_data
      00010E77H   PUBLIC    XDATA    ---       seekfree_assistant_parameter_update_flag
      00010E7FH   PUBLIC    XDATA    ---       seekfree_assistant_parameter
      000000D0H   SFRSYM    DATA     BYTE      PSW
      0000009DH   SFRSYM    DATA     BYTE      IRCBAND
      00000097H   SFRSYM    DATA     BYTE      AUXR2
      000000EFH   SFRSYM    DATA     BYTE      AUXINTIF
L251 LINKER/LOCATER V4.66.93.0                                                        10/23/2025  22:33:42  PAGE 106


      000000FDH   SFRSYM    DATA     BYTE      S4CON
      000000ACH   SFRSYM    DATA     BYTE      S3CON
      0000009AH   SFRSYM    DATA     BYTE      S2CON
      000000B7H   SFRSYM    DATA     BYTE      IPH
      000000CDH   SFRSYM    DATA     BYTE      SPSTAT
      000000DDH   SFRSYM    DATA     BYTE      T4T3M
      000000C1H   SFRSYM    DATA     BYTE      WDT_CONTR
      000000DFH   SFRSYM    DATA     BYTE      IP3
      000000F4H   SFRSYM    DATA     BYTE      USBCON
      000000B5H   SFRSYM    DATA     BYTE      IP2
      000000FFH   SFRSYM    DATA     BYTE      RSTCFG
      000000C7H   SFRSYM    DATA     BYTE      IAP_CONTR
      0000008EH   SFRSYM    DATA     BYTE      AUXR
      000000AFH   SFRSYM    DATA     BYTE      IE2
      00000088H   SFRSYM    DATA     BYTE      TCON
      00000089H   SFRSYM    DATA     BYTE      TMOD
      00000098H   SFRSYM    DATA     BYTE      SCON
      00000087H   SFRSYM    DATA     BYTE      PCON
      000000BCH   SFRSYM    DATA     BYTE      ADC_CONTR
      000000D1H   SFRSYM    DATA     BYTE      PSW1
      000000E7H   SFRSYM    DATA     BYTE      CMPCR2
      000000E6H   SFRSYM    DATA     BYTE      CMPCR1
      000000DEH   SFRSYM    DATA     BYTE      ADCCFG
      000000B8H   SFRSYM    DATA     BYTE      IP
      0000008FH   SFRSYM    DATA     BYTE      INTCLKO
      000000EEH   SFRSYM    DATA     BYTE      IP3H
      000000B6H   SFRSYM    DATA     BYTE      IP2H
      000000BFH   SFRSYM    DATA     BYTE      P_SW4
      000000A8H   SFRSYM    DATA     BYTE      IE
      000000BBH   SFRSYM    DATA     BYTE      P_SW3
      000000BAH   SFRSYM    DATA     BYTE      P_SW2
      000000A2H   SFRSYM    DATA     BYTE      P_SW1
      000000CEH   SFRSYM    DATA     BYTE      SPCTL
      000000F8H   SFRSYM    DATA     BYTE      P7
      000000A8H.7 SFRSYM    DATA     BIT       EA
      000000E8H   SFRSYM    DATA     BYTE      P6
      000000C8H   SFRSYM    DATA     BYTE      P5
      000000C0H   SFRSYM    DATA     BYTE      P4
      000000ABH   SFRSYM    DATA     BYTE      WKTCH
      000000B0H   SFRSYM    DATA     BYTE      P3
      000000A0H   SFRSYM    DATA     BYTE      P2
      00000090H   SFRSYM    DATA     BYTE      P1
      00000080H   SFRSYM    DATA     BYTE      P0
      00010E34H   SYMBOL    XDATA    ---       seekfree_assistant_camera_dot_data
      00010E60H   SYMBOL    XDATA    ---       seekfree_assistant_fifo
      00010E9FH   SYMBOL    XDATA    ---       seekfree_assistant_camera_buffer
      00010EE9H   SYMBOL    XDATA    ---       seekfree_assistant_camera_data
      00010EF1H   SYMBOL    XDATA    ---       seekfree_assistant_buffer
      00FFD41EH   SYMBOL    HCONST   ---       ?tpl?0001
      00FFD442H   SYMBOL    HCONST   ---       ?tpl?0002
      REG=6       REGSYM    ---      ---       buffer
      DR28        REGSYM    ---      DWORD     length
      R11         REGSYM    ---      BYTE      temp_sum
      WR12        REGSYM    ---      INT       camera_type
      R9          REGSYM    ---      BYTE      boundary_num
      WR14        REGSYM    ---      WORD      width
      WR6         REGSYM    ---      INT       camera_type
      REG=0       REGSYM    ---      ---       image_addr
      WR8         REGSYM    ---      WORD      width
      REG=7       REGSYM    ---      ---       seekfree_assistant_oscilloscope
      R15         REGSYM    ---      BYTE      packet_size
      R14         REGSYM    ---      BYTE      i
      REG=3       REGSYM    ---      ---       buffer
      WR8         REGSYM    ---      INT       boundary_type
      WR2         REGSYM    ---      WORD      dot_num
L251 LINKER/LOCATER V4.66.93.0                                                        10/23/2025  22:33:42  PAGE 107


      REG=7       REGSYM    ---      ---       dot_x1
      R6          REGSYM    ---      BYTE      i
      R7          REGSYM    ---      BYTE      boundary_num
      R5          REGSYM    ---      BYTE      boundary_data_type
      R15         REGSYM    ---      BYTE      temp_sum
      WR12        REGSYM    ---      WORD      struct_len

      ---         MODULE    ---      ---       seekfree_assistant_interface
      0001130CH   PUBLIC    XDATA    ---       seekfree_assistant_receive_callback
      0001130EH   PUBLIC    XDATA    ---       seekfree_assistant_transfer_callback
      000000D0H   SFRSYM    DATA     BYTE      PSW
      0000009DH   SFRSYM    DATA     BYTE      IRCBAND
      00000097H   SFRSYM    DATA     BYTE      AUXR2
      000000EFH   SFRSYM    DATA     BYTE      AUXINTIF
      000000FDH   SFRSYM    DATA     BYTE      S4CON
      000000ACH   SFRSYM    DATA     BYTE      S3CON
      0000009AH   SFRSYM    DATA     BYTE      S2CON
      000000B7H   SFRSYM    DATA     BYTE      IPH
      000000CDH   SFRSYM    DATA     BYTE      SPSTAT
      000000DDH   SFRSYM    DATA     BYTE      T4T3M
      000000C1H   SFRSYM    DATA     BYTE      WDT_CONTR
      000000DFH   SFRSYM    DATA     BYTE      IP3
      000000F4H   SFRSYM    DATA     BYTE      USBCON
      000000B5H   SFRSYM    DATA     BYTE      IP2
      000000FFH   SFRSYM    DATA     BYTE      RSTCFG
      000000C7H   SFRSYM    DATA     BYTE      IAP_CONTR
      0000008EH   SFRSYM    DATA     BYTE      AUXR
      000000AFH   SFRSYM    DATA     BYTE      IE2
      00000088H   SFRSYM    DATA     BYTE      TCON
      00000089H   SFRSYM    DATA     BYTE      TMOD
      00000098H   SFRSYM    DATA     BYTE      SCON
      00000087H   SFRSYM    DATA     BYTE      PCON
      000000BCH   SFRSYM    DATA     BYTE      ADC_CONTR
      000000D1H   SFRSYM    DATA     BYTE      PSW1
      000000E7H   SFRSYM    DATA     BYTE      CMPCR2
      000000E6H   SFRSYM    DATA     BYTE      CMPCR1
      000000DEH   SFRSYM    DATA     BYTE      ADCCFG
      000000B8H   SFRSYM    DATA     BYTE      IP
      0000008FH   SFRSYM    DATA     BYTE      INTCLKO
      000000EEH   SFRSYM    DATA     BYTE      IP3H
      000000B6H   SFRSYM    DATA     BYTE      IP2H
      000000BFH   SFRSYM    DATA     BYTE      P_SW4
      000000A8H   SFRSYM    DATA     BYTE      IE
      000000BBH   SFRSYM    DATA     BYTE      P_SW3
      000000BAH   SFRSYM    DATA     BYTE      P_SW2
      000000A2H   SFRSYM    DATA     BYTE      P_SW1
      000000CEH   SFRSYM    DATA     BYTE      SPCTL
      000000F8H   SFRSYM    DATA     BYTE      P7
      000000E8H   SFRSYM    DATA     BYTE      P6
      000000C8H   SFRSYM    DATA     BYTE      P5
      000000C0H   SFRSYM    DATA     BYTE      P4
      000000ABH   SFRSYM    DATA     BYTE      WKTCH
      000000B0H   SFRSYM    DATA     BYTE      P3
      000000A0H   SFRSYM    DATA     BYTE      P2
      00000090H   SFRSYM    DATA     BYTE      P1
      00000080H   SFRSYM    DATA     BYTE      P0
      WR6         REGSYM    ---      INT       transfer_device

      ---         MODULE    ---      ---       isr
      00FFB16BH   PUBLIC    CODE     ---       TM11_IRQHandler
      00FFA20AH   PUBLIC    CODE     ---       DMA_UART1_IRQHandler
      00FFA74DH   PUBLIC    CODE     ---       DMA_UART2_IRQHandler
      00FFA7D6H   PUBLIC    CODE     ---       DMA_UART3_IRQHandler
      00FFA85FH   PUBLIC    CODE     ---       DMA_UART4_IRQHandler
      00FFB356H   PUBLIC    CODE     ---       TM0_IRQHandler
L251 LINKER/LOCATER V4.66.93.0                                                        10/23/2025  22:33:42  PAGE 108


      00FFB394H   PUBLIC    CODE     ---       TM1_IRQHandler
      00FFB3D2H   PUBLIC    CODE     ---       TM2_IRQHandler
      00FFB410H   PUBLIC    CODE     ---       TM3_IRQHandler
      00FFB44EH   PUBLIC    CODE     ---       TM4_IRQHandler
      000000D0H   SFRSYM    DATA     BYTE      PSW
      0000009DH   SFRSYM    DATA     BYTE      IRCBAND
      00000097H   SFRSYM    DATA     BYTE      AUXR2
      000000EFH   SFRSYM    DATA     BYTE      AUXINTIF
      000000FDH   SFRSYM    DATA     BYTE      S4CON
      000000ACH   SFRSYM    DATA     BYTE      S3CON
      0000009AH   SFRSYM    DATA     BYTE      S2CON
      000000B7H   SFRSYM    DATA     BYTE      IPH
      000000CDH   SFRSYM    DATA     BYTE      SPSTAT
      000000DDH   SFRSYM    DATA     BYTE      T4T3M
      000000C1H   SFRSYM    DATA     BYTE      WDT_CONTR
      000000DFH   SFRSYM    DATA     BYTE      IP3
      000000F4H   SFRSYM    DATA     BYTE      USBCON
      000000B5H   SFRSYM    DATA     BYTE      IP2
      000000FFH   SFRSYM    DATA     BYTE      RSTCFG
      000000C7H   SFRSYM    DATA     BYTE      IAP_CONTR
      0000008EH   SFRSYM    DATA     BYTE      AUXR
      000000AFH   SFRSYM    DATA     BYTE      IE2
      00000088H   SFRSYM    DATA     BYTE      TCON
      00000089H   SFRSYM    DATA     BYTE      TMOD
      00000098H   SFRSYM    DATA     BYTE      SCON
      00000087H   SFRSYM    DATA     BYTE      PCON
      000000BCH   SFRSYM    DATA     BYTE      ADC_CONTR
      000000D1H   SFRSYM    DATA     BYTE      PSW1
      000000E7H   SFRSYM    DATA     BYTE      CMPCR2
      000000E6H   SFRSYM    DATA     BYTE      CMPCR1
      000000DEH   SFRSYM    DATA     BYTE      ADCCFG
      000000B8H   SFRSYM    DATA     BYTE      IP
      0000008FH   SFRSYM    DATA     BYTE      INTCLKO
      000000EEH   SFRSYM    DATA     BYTE      IP3H
      000000B6H   SFRSYM    DATA     BYTE      IP2H
      000000BFH   SFRSYM    DATA     BYTE      P_SW4
      000000A8H   SFRSYM    DATA     BYTE      IE
      000000BBH   SFRSYM    DATA     BYTE      P_SW3
      000000BAH   SFRSYM    DATA     BYTE      P_SW2
      000000A2H   SFRSYM    DATA     BYTE      P_SW1
      000000CEH   SFRSYM    DATA     BYTE      SPCTL
      000000F8H   SFRSYM    DATA     BYTE      P7
      000000E8H   SFRSYM    DATA     BYTE      P6
      000000C8H   SFRSYM    DATA     BYTE      P5
      000000C0H   SFRSYM    DATA     BYTE      P4
      000000ABH   SFRSYM    DATA     BYTE      WKTCH
      000000B0H   SFRSYM    DATA     BYTE      P3
      000000A0H   SFRSYM    DATA     BYTE      P2
      00000090H   SFRSYM    DATA     BYTE      P1
      00000080H   SFRSYM    DATA     BYTE      P0

      00FFA20AH   BLOCK     CODE     ---       LVL=0
      00FFA21EH   BLOCK     CODE     NEAR LAB  LVL=1
      00011318H   SYMBOL    XDATA    BYTE      dwon_count
      ---         BLOCKEND  ---      ---       LVL=1
      00FFA20AH   LINE      CODE     ---       #40
      00FFA21EH   LINE      CODE     ---       #41
      00FFA21EH   LINE      CODE     ---       #43
      00FFA22CH   LINE      CODE     ---       #45
      00FFA23CH   LINE      CODE     ---       #46
      00FFA241H   LINE      CODE     ---       #49
      00FFA248H   LINE      CODE     ---       #51
      00FFA257H   LINE      CODE     ---       #53
      00FFA25AH   LINE      CODE     ---       #54
      00FFA25CH   LINE      CODE     ---       #58
L251 LINKER/LOCATER V4.66.93.0                                                        10/23/2025  22:33:42  PAGE 109


      00FFA261H   LINE      CODE     ---       #59
      00FFA261H   LINE      CODE     ---       #61
      00FFA26BH   LINE      CODE     ---       #63
      00FFA277H   LINE      CODE     ---       #64
      00FFA277H   LINE      CODE     ---       #67
      00FFA285H   LINE      CODE     ---       #69
      00FFA295H   LINE      CODE     ---       #70
      00FFA29AH   LINE      CODE     ---       #74
      ---         BLOCKEND  ---      ---       LVL=0

      00FFA74DH   BLOCK     CODE     ---       LVL=0
      00FFA74DH   LINE      CODE     ---       #79
      00FFA761H   LINE      CODE     ---       #82
      00FFA76FH   LINE      CODE     ---       #84
      00FFA77FH   LINE      CODE     ---       #85
      00FFA786H   LINE      CODE     ---       #87
      00FFA790H   LINE      CODE     ---       #89
      00FFA79CH   LINE      CODE     ---       #90
      00FFA79CH   LINE      CODE     ---       #93
      00FFA7AAH   LINE      CODE     ---       #95
      00FFA7BAH   LINE      CODE     ---       #96
      00FFA7C1H   LINE      CODE     ---       #101
      ---         BLOCKEND  ---      ---       LVL=0

      00FFA7D6H   BLOCK     CODE     ---       LVL=0
      00FFA7D6H   LINE      CODE     ---       #104
      00FFA7EAH   LINE      CODE     ---       #107
      00FFA7F8H   LINE      CODE     ---       #109
      00FFA808H   LINE      CODE     ---       #110
      00FFA80FH   LINE      CODE     ---       #112
      00FFA819H   LINE      CODE     ---       #115
      00FFA825H   LINE      CODE     ---       #117
      00FFA825H   LINE      CODE     ---       #120
      00FFA833H   LINE      CODE     ---       #122
      00FFA843H   LINE      CODE     ---       #123
      00FFA84AH   LINE      CODE     ---       #128
      ---         BLOCKEND  ---      ---       LVL=0

      00FFA85FH   BLOCK     CODE     ---       LVL=0
      00FFA85FH   LINE      CODE     ---       #131
      00FFA873H   LINE      CODE     ---       #134
      00FFA881H   LINE      CODE     ---       #136
      00FFA891H   LINE      CODE     ---       #137
      00FFA898H   LINE      CODE     ---       #139
      00FFA8A2H   LINE      CODE     ---       #141
      00FFA8AEH   LINE      CODE     ---       #143
      00FFA8AEH   LINE      CODE     ---       #146
      00FFA8BCH   LINE      CODE     ---       #148
      00FFA8CCH   LINE      CODE     ---       #149
      00FFA8D3H   LINE      CODE     ---       #154
      ---         BLOCKEND  ---      ---       LVL=0

      00FFB356H   BLOCK     CODE     ---       LVL=0
      00FFB356H   LINE      CODE     ---       #158
      00FFB36AH   LINE      CODE     ---       #160
      00FFB36DH   LINE      CODE     ---       #162
      00FFB377H   LINE      CODE     ---       #164
      00FFB37FH   LINE      CODE     ---       #165
      ---         BLOCKEND  ---      ---       LVL=0

      00FFB394H   BLOCK     CODE     ---       LVL=0
      00FFB394H   LINE      CODE     ---       #167
      00FFB3A8H   LINE      CODE     ---       #169
      00FFB3ABH   LINE      CODE     ---       #171
      00FFB3B5H   LINE      CODE     ---       #173
L251 LINKER/LOCATER V4.66.93.0                                                        10/23/2025  22:33:42  PAGE 110


      00FFB3BDH   LINE      CODE     ---       #174
      ---         BLOCKEND  ---      ---       LVL=0

      00FFB3D2H   BLOCK     CODE     ---       LVL=0
      00FFB3D2H   LINE      CODE     ---       #176
      00FFB3E6H   LINE      CODE     ---       #178
      00FFB3E9H   LINE      CODE     ---       #180
      00FFB3F3H   LINE      CODE     ---       #182
      00FFB3FBH   LINE      CODE     ---       #183
      ---         BLOCKEND  ---      ---       LVL=0

      00FFB410H   BLOCK     CODE     ---       LVL=0
      00FFB410H   LINE      CODE     ---       #185
      00FFB424H   LINE      CODE     ---       #187
      00FFB427H   LINE      CODE     ---       #189
      00FFB431H   LINE      CODE     ---       #191
      00FFB439H   LINE      CODE     ---       #192
      ---         BLOCKEND  ---      ---       LVL=0

      00FFB44EH   BLOCK     CODE     ---       LVL=0
      00FFB44EH   LINE      CODE     ---       #195
      00FFB462H   LINE      CODE     ---       #197
      00FFB465H   LINE      CODE     ---       #199
      00FFB46FH   LINE      CODE     ---       #201
      00FFB477H   LINE      CODE     ---       #202
      ---         BLOCKEND  ---      ---       LVL=0

      00FFB16BH   BLOCK     CODE     ---       LVL=0
      00FFB16BH   LINE      CODE     ---       #205
      00FFB17FH   LINE      CODE     ---       #207
      00FFB18FH   LINE      CODE     ---       #209
      00FFB199H   LINE      CODE     ---       #211
      00FFB1A1H   LINE      CODE     ---       #212
      ---         BLOCKEND  ---      ---       LVL=0

      ---         MODULE    ---      ---       main
      00FF0066H   PUBLIC    CODE     ---       main
      00FF9F6CH   PUBLIC    CODE     ---       pit_handler1
      00FF9E10H   PUBLIC    CODE     ---       _m
      000112F7H   PUBLIC    XDATA    INT       T4
      000112F9H   PUBLIC    XDATA    INT       T
      000112FBH   PUBLIC    XDATA    INT       delta_Speed
      000112FDH   PUBLIC    XDATA    BYTE      speed_update_flag
      000000D0H   SFRSYM    DATA     BYTE      PSW
      0000009DH   SFRSYM    DATA     BYTE      IRCBAND
      00000097H   SFRSYM    DATA     BYTE      AUXR2
      000000EFH   SFRSYM    DATA     BYTE      AUXINTIF
      000000FDH   SFRSYM    DATA     BYTE      S4CON
      000000ACH   SFRSYM    DATA     BYTE      S3CON
      0000009AH   SFRSYM    DATA     BYTE      S2CON
      000000B7H   SFRSYM    DATA     BYTE      IPH
      000000CDH   SFRSYM    DATA     BYTE      SPSTAT
      000000DDH   SFRSYM    DATA     BYTE      T4T3M
      000000C1H   SFRSYM    DATA     BYTE      WDT_CONTR
      000000DFH   SFRSYM    DATA     BYTE      IP3
      000000F4H   SFRSYM    DATA     BYTE      USBCON
      000000B5H   SFRSYM    DATA     BYTE      IP2
      000000FFH   SFRSYM    DATA     BYTE      RSTCFG
      000000C7H   SFRSYM    DATA     BYTE      IAP_CONTR
      0000008EH   SFRSYM    DATA     BYTE      AUXR
      000000AFH   SFRSYM    DATA     BYTE      IE2
      00000088H   SFRSYM    DATA     BYTE      TCON
      00000089H   SFRSYM    DATA     BYTE      TMOD
      00000098H   SFRSYM    DATA     BYTE      SCON
      00000087H   SFRSYM    DATA     BYTE      PCON
L251 LINKER/LOCATER V4.66.93.0                                                        10/23/2025  22:33:42  PAGE 111


      000000BCH   SFRSYM    DATA     BYTE      ADC_CONTR
      000000D1H   SFRSYM    DATA     BYTE      PSW1
      000000E7H   SFRSYM    DATA     BYTE      CMPCR2
      000000E6H   SFRSYM    DATA     BYTE      CMPCR1
      000000DEH   SFRSYM    DATA     BYTE      ADCCFG
      000000B8H   SFRSYM    DATA     BYTE      IP
      0000008FH   SFRSYM    DATA     BYTE      INTCLKO
      000000EEH   SFRSYM    DATA     BYTE      IP3H
      000000B6H   SFRSYM    DATA     BYTE      IP2H
      000000BFH   SFRSYM    DATA     BYTE      P_SW4
      000000A8H   SFRSYM    DATA     BYTE      IE
      000000BBH   SFRSYM    DATA     BYTE      P_SW3
      000000BAH   SFRSYM    DATA     BYTE      P_SW2
      000000A2H   SFRSYM    DATA     BYTE      P_SW1
      000000CEH   SFRSYM    DATA     BYTE      SPCTL
      000000F8H   SFRSYM    DATA     BYTE      P7
      000000A8H.7 SFRSYM    DATA     BIT       EA
      000000E8H   SFRSYM    DATA     BYTE      P6
      000000C8H   SFRSYM    DATA     BYTE      P5
      000000C0H   SFRSYM    DATA     BYTE      P4
      000000ABH   SFRSYM    DATA     BYTE      WKTCH
      000000B0H   SFRSYM    DATA     BYTE      P3
      000000A0H   SFRSYM    DATA     BYTE      P2
      00000090H   SFRSYM    DATA     BYTE      P1
      00000080H   SFRSYM    DATA     BYTE      P0

      00FF0066H   BLOCK     CODE     ---       LVL=0
      00FF0066H   LINE      CODE     ---       #9
      ---         BLOCKEND  ---      ---       LVL=0

      00FF9E10H   BLOCK     CODE     ---       LVL=0
      00FF9E10H   LINE      CODE     ---       #9
      00FF9E10H   LINE      CODE     ---       #11
      00FF9E1BH   LINE      CODE     ---       #12
      00FF9E1EH   LINE      CODE     ---       #14
      00FF9E21H   LINE      CODE     ---       #15
      00FF9E2BH   LINE      CODE     ---       #17
      00FF9E2BH   LINE      CODE     ---       #20
      00FF9E57H   LINE      CODE     ---       #22
      00FF9E57H   LINE      CODE     ---       #24
      00FF9E5AH   LINE      CODE     ---       #25
      00FF9E60H   LINE      CODE     ---       #27
      00FF9E62H   LINE      CODE     ---       #28
      00FF9E69H   LINE      CODE     ---       #29
      00FF9E6EH   LINE      CODE     ---       #30
      00FF9E70H   LINE      CODE     ---       #31
      00FF9E70H   LINE      CODE     ---       #32
      00FF9E72H   LINE      CODE     ---       #34
      00FF9E72H   LINE      CODE     ---       #36
      00FF9E75H   LINE      CODE     ---       #37
      00FF9E7BH   LINE      CODE     ---       #43
      00FF9E7BH   LINE      CODE     ---       #44
      00FF9E7DH   LINE      CODE     ---       #46
      00FF9E7DH   LINE      CODE     ---       #48
      00FF9E80H   LINE      CODE     ---       #49
      00FF9E82H   LINE      CODE     ---       #51
      00FF9E82H   LINE      CODE     ---       #53
      00FF9E85H   LINE      CODE     ---       #54
      00FF9E87H   LINE      CODE     ---       #56
      00FF9E87H   LINE      CODE     ---       #58
      00FF9E8AH   LINE      CODE     ---       #59
      00FF9E8CH   LINE      CODE     ---       #61
      00FF9E8CH   LINE      CODE     ---       #63
      00FF9E8FH   LINE      CODE     ---       #64
      00FF9E92H   LINE      CODE     ---       #65
L251 LINKER/LOCATER V4.66.93.0                                                        10/23/2025  22:33:42  PAGE 112


      00FF9E94H   LINE      CODE     ---       #67
      00FF9E94H   LINE      CODE     ---       #69
      00FF9E97H   LINE      CODE     ---       #70
      00FF9E9AH   LINE      CODE     ---       #71
      00FF9E9CH   LINE      CODE     ---       #73
      00FF9E9CH   LINE      CODE     ---       #75
      00FF9E9FH   LINE      CODE     ---       #76
      00FF9EA1H   LINE      CODE     ---       #78
      00FF9EA1H   LINE      CODE     ---       #80
      00FF9EA4H   LINE      CODE     ---       #81
      00FF9EA7H   LINE      CODE     ---       #82
      00FF9EA7H   LINE      CODE     ---       #84
      00FF9EA7H   LINE      CODE     ---       #85
      00FF9EB0H   LINE      CODE     ---       #87
      00FF9EB5H   LINE      CODE     ---       #88
      00FF9EBAH   LINE      CODE     ---       #89
      00FF9EBDH   LINE      CODE     ---       #90
      ---         BLOCKEND  ---      ---       LVL=0

      00FF9F6CH   BLOCK     CODE     ---       LVL=0
      00FF9F6CH   LINE      CODE     ---       #97
      00FF9F6CH   LINE      CODE     ---       #99
      00FF9F77H   LINE      CODE     ---       #100
      00FF9F7AH   LINE      CODE     ---       #101
      00FF9F86H   LINE      CODE     ---       #102
      00FF9F89H   LINE      CODE     ---       #103
      00FF9F8FH   LINE      CODE     ---       #105
      00FF9F92H   LINE      CODE     ---       #106
      00FF9F92H   LINE      CODE     ---       #107
      00FF9F95H   LINE      CODE     ---       #109
      00FF9FB9H   LINE      CODE     ---       #111
      00FF9FD8H   LINE      CODE     ---       #112
      00FF9FE4H   LINE      CODE     ---       #114
      00FF9FE7H   LINE      CODE     ---       #115
      00FF9FE9H   LINE      CODE     ---       #118
      00FF9FECH   LINE      CODE     ---       #119
      00FF9FECH   LINE      CODE     ---       #120
      00FF9FECH   LINE      CODE     ---       #122
      00FF9FF8H   LINE      CODE     ---       #124
      00FFA000H   LINE      CODE     ---       #125
      00FFA003H   LINE      CODE     ---       #126
      00FFA009H   LINE      CODE     ---       #128
      00FFA00CH   LINE      CODE     ---       #129
      00FFA00CH   LINE      CODE     ---       #130
      00FFA012H   LINE      CODE     ---       #132
      00FFA015H   LINE      CODE     ---       #133
      00FFA015H   LINE      CODE     ---       #135
      ---         BLOCKEND  ---      ---       LVL=0

      ---         MODULE    ---      ---       ADC_Get
      00FF92E8H   PUBLIC    CODE     ---       ADC_SampleAndFilter
      00FFA0BFH   PUBLIC    CODE     ---       adc_filter
      00FFB6ADH   PUBLIC    CODE     ---       ADC_GetInit
      000111A6H   PUBLIC    XDATA    ---       raw_adc_data
      000111CEH   PUBLIC    XDATA    ---       ADC_Num
      000111DCH   PUBLIC    XDATA    ---       filtered_adc
      00000020H.0 PUBLIC    BIT      BIT       Battery_Init
      000000D0H   SFRSYM    DATA     BYTE      PSW
      0000009DH   SFRSYM    DATA     BYTE      IRCBAND
      00000097H   SFRSYM    DATA     BYTE      AUXR2
      000000EFH   SFRSYM    DATA     BYTE      AUXINTIF
      000000FDH   SFRSYM    DATA     BYTE      S4CON
      000000ACH   SFRSYM    DATA     BYTE      S3CON
      0000009AH   SFRSYM    DATA     BYTE      S2CON
      000000B7H   SFRSYM    DATA     BYTE      IPH
L251 LINKER/LOCATER V4.66.93.0                                                        10/23/2025  22:33:42  PAGE 113


      000000CDH   SFRSYM    DATA     BYTE      SPSTAT
      000000DDH   SFRSYM    DATA     BYTE      T4T3M
      000000C1H   SFRSYM    DATA     BYTE      WDT_CONTR
      000000DFH   SFRSYM    DATA     BYTE      IP3
      000000F4H   SFRSYM    DATA     BYTE      USBCON
      000000B5H   SFRSYM    DATA     BYTE      IP2
      000000FFH   SFRSYM    DATA     BYTE      RSTCFG
      000000C7H   SFRSYM    DATA     BYTE      IAP_CONTR
      0000008EH   SFRSYM    DATA     BYTE      AUXR
      000000AFH   SFRSYM    DATA     BYTE      IE2
      00000088H   SFRSYM    DATA     BYTE      TCON
      00000089H   SFRSYM    DATA     BYTE      TMOD
      00000098H   SFRSYM    DATA     BYTE      SCON
      00000087H   SFRSYM    DATA     BYTE      PCON
      000000BCH   SFRSYM    DATA     BYTE      ADC_CONTR
      000000D1H   SFRSYM    DATA     BYTE      PSW1
      000000E7H   SFRSYM    DATA     BYTE      CMPCR2
      000000E6H   SFRSYM    DATA     BYTE      CMPCR1
      000000DEH   SFRSYM    DATA     BYTE      ADCCFG
      000000B8H   SFRSYM    DATA     BYTE      IP
      0000008FH   SFRSYM    DATA     BYTE      INTCLKO
      000000EEH   SFRSYM    DATA     BYTE      IP3H
      000000B6H   SFRSYM    DATA     BYTE      IP2H
      000000BFH   SFRSYM    DATA     BYTE      P_SW4
      000000A8H   SFRSYM    DATA     BYTE      IE
      000000BBH   SFRSYM    DATA     BYTE      P_SW3
      000000BAH   SFRSYM    DATA     BYTE      P_SW2
      000000A2H   SFRSYM    DATA     BYTE      P_SW1
      000000CEH   SFRSYM    DATA     BYTE      SPCTL
      000000F8H   SFRSYM    DATA     BYTE      P7
      000000E8H   SFRSYM    DATA     BYTE      P6
      000000C8H   SFRSYM    DATA     BYTE      P5
      000000C0H   SFRSYM    DATA     BYTE      P4
      000000ABH   SFRSYM    DATA     BYTE      WKTCH
      000000B0H   SFRSYM    DATA     BYTE      P3
      000000A0H   SFRSYM    DATA     BYTE      P2
      00000090H   SFRSYM    DATA     BYTE      P1
      00000080H   SFRSYM    DATA     BYTE      P0

      00FFB6ADH   BLOCK     CODE     ---       LVL=0
      00FFB6ADH   LINE      CODE     ---       #7
      00FFB6ADH   LINE      CODE     ---       #9
      00FFB6B8H   LINE      CODE     ---       #10
      00FFB6C3H   LINE      CODE     ---       #11
      00FFB6CEH   LINE      CODE     ---       #12
      00FFB6D9H   LINE      CODE     ---       #17
      ---         BLOCKEND  ---      ---       LVL=0

      00FFA0BFH   BLOCK     CODE     ---       LVL=0
      REG=7       REGSYM    ---      ---       samples
      R15         REGSYM    ---      BYTE      count
      00FFA0C5H   BLOCK     CODE     NEAR LAB  LVL=1
      R14         REGSYM    ---      BYTE      i
      DR20        REGSYM    ---      DWORD     sum
      WR24        REGSYM    ---      WORD      max
      WR26        REGSYM    ---      WORD      min
      ---         BLOCKEND  ---      ---       LVL=1
      00FFA0BFH   LINE      CODE     ---       #20
      00FFA0C5H   LINE      CODE     ---       #21
      00FFA0C5H   LINE      CODE     ---       #23
      00FFA0C7H   LINE      CODE     ---       #24
      00FFA0CAH   LINE      CODE     ---       #25
      00FFA0CDH   LINE      CODE     ---       #27
      00FFA0D2H   LINE      CODE     ---       #29
      00FFA0D6H   LINE      CODE     ---       #31
L251 LINKER/LOCATER V4.66.93.0                                                        10/23/2025  22:33:42  PAGE 114


      00FFA0E5H   LINE      CODE     ---       #32
      00FFA0EBH   LINE      CODE     ---       #33
      00FFA0F6H   LINE      CODE     ---       #34
      00FFA0F6H   LINE      CODE     ---       #35
      00FFA0FAH   LINE      CODE     ---       #37
      00FFA118H   LINE      CODE     ---       #38
      00FFA136H   LINE      CODE     ---       #39
      00FFA145H   LINE      CODE     ---       #40
      00FFA14BH   LINE      CODE     ---       #41
      00FFA162H   LINE      CODE     ---       #42
      ---         BLOCKEND  ---      ---       LVL=0

      00FF92E8H   BLOCK     CODE     ---       LVL=0
      00FF92EAH   BLOCK     CODE     NEAR LAB  LVL=1
      R14         REGSYM    ---      BYTE      sample_index
      R15         REGSYM    ---      BYTE      channel_index
      ---         BLOCKEND  ---      ---       LVL=1
      00FF92E8H   LINE      CODE     ---       #45
      00FF92EAH   LINE      CODE     ---       #46
      00FF92EAH   LINE      CODE     ---       #47
      00FF92ECH   LINE      CODE     ---       #48
      00FF92EEH   LINE      CODE     ---       #51
      00FF92F2H   LINE      CODE     ---       #53
      00FF930DH   LINE      CODE     ---       #54
      00FF9328H   LINE      CODE     ---       #55
      00FF9343H   LINE      CODE     ---       #56
      00FF935EH   LINE      CODE     ---       #57
      00FF9365H   LINE      CODE     ---       #60
      00FF9369H   LINE      CODE     ---       #62
      00FF938FH   LINE      CODE     ---       #63
      00FF9396H   LINE      CODE     ---       #64
      00FF93A2H   LINE      CODE     ---       #65
      00FF93AEH   LINE      CODE     ---       #66
      00FF93BAH   LINE      CODE     ---       #67
      00FF93C6H   LINE      CODE     ---       #68
      ---         BLOCKEND  ---      ---       LVL=0
      WR14        REGSYM    ---      WORD      battery_adc
      WR2         REGSYM    ---      WORD      ref_adc
      WR6         REGSYM    ---      WORD      battery_v
      R13         REGSYM    ---      BYTE      i

      ---         MODULE    ---      ---       control
      00FF9663H   PUBLIC    CODE     ---       Motor_Right_pi_control
      00FF973BH   PUBLIC    CODE     ---       Motor_Left_pi_control
      00FF76DFH   PUBLIC    CODE     ---       PID_Update
      00FFB7F8H   PUBLIC    CODE     ---       Ser_Servo_Duty
      00FF82E1H   PUBLIC    CODE     ---       Cycle_Update
      00FFA2AFH   PUBLIC    CODE     ---       Motor_Update_Smooth
      00FFB1B6H   PUBLIC    CODE     ---       Motor_Update
      00FFA50DH   PUBLIC    CODE     ---       Servo_turn_pid
      00FFB4CAH   PUBLIC    CODE     ---       MotorL_SetSpeed
      00FFB507H   PUBLIC    CODE     ---       MotorR_SetSpeed
      00FF8784H   PUBLIC    CODE     ---       Speed_diff
      00011273H   PUBLIC    XDATA    FLOAT     Current_dajiao
      00011277H   PUBLIC    XDATA    FLOAT     Current_Speed
      0001127BH   PUBLIC    XDATA    BYTE      CAR_Mode
      0001127CH   PUBLIC    XDATA    FLOAT     Right_Speed
      00011280H   PUBLIC    XDATA    FLOAT     Left_Speed
      000000D0H   SFRSYM    DATA     BYTE      PSW
      0000009DH   SFRSYM    DATA     BYTE      IRCBAND
      00000097H   SFRSYM    DATA     BYTE      AUXR2
      000000EFH   SFRSYM    DATA     BYTE      AUXINTIF
      000000FDH   SFRSYM    DATA     BYTE      S4CON
      000000ACH   SFRSYM    DATA     BYTE      S3CON
      0000009AH   SFRSYM    DATA     BYTE      S2CON
L251 LINKER/LOCATER V4.66.93.0                                                        10/23/2025  22:33:42  PAGE 115


      000000B7H   SFRSYM    DATA     BYTE      IPH
      000000CDH   SFRSYM    DATA     BYTE      SPSTAT
      000000DDH   SFRSYM    DATA     BYTE      T4T3M
      000000C1H   SFRSYM    DATA     BYTE      WDT_CONTR
      000000DFH   SFRSYM    DATA     BYTE      IP3
      000000F4H   SFRSYM    DATA     BYTE      USBCON
      000000B5H   SFRSYM    DATA     BYTE      IP2
      000000FFH   SFRSYM    DATA     BYTE      RSTCFG
      000000C7H   SFRSYM    DATA     BYTE      IAP_CONTR
      0000008EH   SFRSYM    DATA     BYTE      AUXR
      000000AFH   SFRSYM    DATA     BYTE      IE2
      00000088H   SFRSYM    DATA     BYTE      TCON
      00000089H   SFRSYM    DATA     BYTE      TMOD
      00000098H   SFRSYM    DATA     BYTE      SCON
      00000087H   SFRSYM    DATA     BYTE      PCON
      000000BCH   SFRSYM    DATA     BYTE      ADC_CONTR
      000000D1H   SFRSYM    DATA     BYTE      PSW1
      000000E7H   SFRSYM    DATA     BYTE      CMPCR2
      000000E6H   SFRSYM    DATA     BYTE      CMPCR1
      000000DEH   SFRSYM    DATA     BYTE      ADCCFG
      000000B8H   SFRSYM    DATA     BYTE      IP
      0000008FH   SFRSYM    DATA     BYTE      INTCLKO
      000000EEH   SFRSYM    DATA     BYTE      IP3H
      000000B6H   SFRSYM    DATA     BYTE      IP2H
      000000BFH   SFRSYM    DATA     BYTE      P_SW4
      000000A8H   SFRSYM    DATA     BYTE      IE
      000000BBH   SFRSYM    DATA     BYTE      P_SW3
      000000BAH   SFRSYM    DATA     BYTE      P_SW2
      000000A2H   SFRSYM    DATA     BYTE      P_SW1
      000000CEH   SFRSYM    DATA     BYTE      SPCTL
      000000F8H   SFRSYM    DATA     BYTE      P7
      000000E8H   SFRSYM    DATA     BYTE      P6
      000000C8H   SFRSYM    DATA     BYTE      P5
      000000C0H   SFRSYM    DATA     BYTE      P4
      000000ABH   SFRSYM    DATA     BYTE      WKTCH
      000000B0H   SFRSYM    DATA     BYTE      P3
      000000A0H   SFRSYM    DATA     BYTE      P2
      00000090H   SFRSYM    DATA     BYTE      P1
      00000080H   SFRSYM    DATA     BYTE      P0

      00FFB7F8H   BLOCK     CODE     ---       LVL=0
      WR4         REGSYM    ---      INT       value
      00FFB7F8H   LINE      CODE     ---       #9
      00FFB7FAH   LINE      CODE     ---       #11
      00FFB807H   LINE      CODE     ---       #12
      ---         BLOCKEND  ---      ---       LVL=0

      00FFA50DH   BLOCK     CODE     ---       LVL=0
      DR0         REGSYM    ---      FLOAT     Current
      00FFA50FH   BLOCK     CODE     NEAR LAB  LVL=1
      DR20        REGSYM    ---      FLOAT     kp
      DR24        REGSYM    ---      FLOAT     kd
      DR8         REGSYM    ---      FLOAT     last_error
      DR28        REGSYM    ---      FLOAT     error
      DR28        REGSYM    ---      FLOAT     temp
      DR24        REGSYM    ---      FLOAT     out
      ---         BLOCKEND  ---      ---       LVL=1
      00FFA50DH   LINE      CODE     ---       #21
      00FFA50FH   LINE      CODE     ---       #22
      00FFA50FH   LINE      CODE     ---       #23
      00FFA519H   LINE      CODE     ---       #24
      00FFA523H   LINE      CODE     ---       #25
      00FFA52DH   LINE      CODE     ---       #26
      00FFA52FH   LINE      CODE     ---       #29
      00FFA54BH   LINE      CODE     ---       #31
L251 LINKER/LOCATER V4.66.93.0                                                        10/23/2025  22:33:42  PAGE 116


      00FFA555H   LINE      CODE     ---       #33
      00FFA581H   LINE      CODE     ---       #34
      00FFA5A0H   LINE      CODE     ---       #35
      ---         BLOCKEND  ---      ---       LVL=0

      00FF973BH   BLOCK     CODE     ---       LVL=0
      WR2         REGSYM    ---      INT       point
      00FF973DH   BLOCK     CODE     NEAR LAB  LVL=1
      DR20        REGSYM    ---      FLOAT     kp
      DR16        REGSYM    ---      FLOAT     ki
      DR28        REGSYM    ---      FLOAT     out
      WR26        REGSYM    ---      INT       error
      DR20        REGSYM    ---      FLOAT     delta_out
      ---         BLOCKEND  ---      ---       LVL=1
      00FF973BH   LINE      CODE     ---       #40
      00FF973DH   LINE      CODE     ---       #41
      00FF973DH   LINE      CODE     ---       #42
      00FF9747H   LINE      CODE     ---       #43
      00FF9751H   LINE      CODE     ---       #44
      00FF9753H   LINE      CODE     ---       #46
      00FF975DH   LINE      CODE     ---       #48
      00FF978BH   LINE      CODE     ---       #50
      00FF97A2H   LINE      CODE     ---       #51
      00FF97B9H   LINE      CODE     ---       #52
      00FF97CAH   LINE      CODE     ---       #54
      00FF97DFH   LINE      CODE     ---       #55
      00FF97F2H   LINE      CODE     ---       #57
      00FF9803H   LINE      CODE     ---       #58
      00FF980DH   LINE      CODE     ---       #60
      00FF9812H   LINE      CODE     ---       #61
      ---         BLOCKEND  ---      ---       LVL=0

      00FF9663H   BLOCK     CODE     ---       LVL=0
      WR2         REGSYM    ---      INT       point
      00FF9665H   BLOCK     CODE     NEAR LAB  LVL=1
      DR20        REGSYM    ---      FLOAT     kp
      DR16        REGSYM    ---      FLOAT     ki
      DR28        REGSYM    ---      FLOAT     out
      WR26        REGSYM    ---      INT       error
      DR20        REGSYM    ---      FLOAT     delta_out
      ---         BLOCKEND  ---      ---       LVL=1
      00FF9663H   LINE      CODE     ---       #67
      00FF9665H   LINE      CODE     ---       #68
      00FF9665H   LINE      CODE     ---       #69
      00FF966FH   LINE      CODE     ---       #70
      00FF9679H   LINE      CODE     ---       #71
      00FF967BH   LINE      CODE     ---       #73
      00FF9685H   LINE      CODE     ---       #75
      00FF96B3H   LINE      CODE     ---       #77
      00FF96CAH   LINE      CODE     ---       #78
      00FF96E1H   LINE      CODE     ---       #79
      00FF96F2H   LINE      CODE     ---       #81
      00FF9707H   LINE      CODE     ---       #82
      00FF971AH   LINE      CODE     ---       #84
      00FF972BH   LINE      CODE     ---       #85
      00FF9735H   LINE      CODE     ---       #87
      00FF973AH   LINE      CODE     ---       #88
      ---         BLOCKEND  ---      ---       LVL=0

      00FFB4CAH   BLOCK     CODE     ---       LVL=0
      WR14        REGSYM    ---      INT       pwm
      00FFB4CAH   LINE      CODE     ---       #95
      00FFB4CEH   LINE      CODE     ---       #98
      00FFB4D4H   LINE      CODE     ---       #100
      00FFB4E1H   LINE      CODE     ---       #101
L251 LINKER/LOCATER V4.66.93.0                                                        10/23/2025  22:33:42  PAGE 117


      00FFB4EAH   LINE      CODE     ---       #102
      00FFB4ECH   LINE      CODE     ---       #105
      00FFB4FBH   LINE      CODE     ---       #106
      00FFB504H   LINE      CODE     ---       #107
      00FFB504H   LINE      CODE     ---       #108
      ---         BLOCKEND  ---      ---       LVL=0

      00FFB507H   BLOCK     CODE     ---       LVL=0
      WR14        REGSYM    ---      INT       pwm
      00FFB507H   LINE      CODE     ---       #115
      00FFB50BH   LINE      CODE     ---       #117
      00FFB511H   LINE      CODE     ---       #119
      00FFB51EH   LINE      CODE     ---       #120
      00FFB527H   LINE      CODE     ---       #121
      00FFB529H   LINE      CODE     ---       #124
      00FFB538H   LINE      CODE     ---       #125
      00FFB541H   LINE      CODE     ---       #126
      00FFB541H   LINE      CODE     ---       #127
      ---         BLOCKEND  ---      ---       LVL=0

      00FFB1B6H   BLOCK     CODE     ---       LVL=0
      DR12        REGSYM    ---      FLOAT     X
      00FFB1B6H   LINE      CODE     ---       #135
      00FFB1BAH   LINE      CODE     ---       #172
      00FFB1DBH   LINE      CODE     ---       #173
      00FFB1FCH   LINE      CODE     ---       #174
      ---         BLOCKEND  ---      ---       LVL=0

      00FFA2AFH   BLOCK     CODE     ---       LVL=0
      DR28        REGSYM    ---      FLOAT     target
      00FFA2B1H   BLOCK     CODE     NEAR LAB  LVL=1
      DR24        REGSYM    ---      FLOAT     step
      ---         BLOCKEND  ---      ---       LVL=1
      00FFA2AFH   LINE      CODE     ---       #176
      00FFA2B1H   LINE      CODE     ---       #177
      00FFA2B1H   LINE      CODE     ---       #178
      00FFA2B9H   LINE      CODE     ---       #179
      00FFA2CAH   LINE      CODE     ---       #181
      00FFA2E0H   LINE      CODE     ---       #182
      00FFA2FBH   LINE      CODE     ---       #183
      00FFA2FDH   LINE      CODE     ---       #184
      00FFA30EH   LINE      CODE     ---       #186
      00FFA324H   LINE      CODE     ---       #187
      00FFA33FH   LINE      CODE     ---       #188
      00FFA33FH   LINE      CODE     ---       #189
      00FFA34CH   LINE      CODE     ---       #190
      ---         BLOCKEND  ---      ---       LVL=0

      00FF76DFH   BLOCK     CODE     ---       LVL=0
      00FF76DFH   LINE      CODE     ---       #191
      00FF76DFH   LINE      CODE     ---       #193
      00FF76FDH   LINE      CODE     ---       #195
      00FF76FDH   LINE      CODE     ---       #197
      00FF7711H   LINE      CODE     ---       #198
      00FF771DH   LINE      CODE     ---       #199
      00FF7731H   LINE      CODE     ---       #200
      00FF7745H   LINE      CODE     ---       #201
      00FF7759H   LINE      CODE     ---       #202
      00FF776DH   LINE      CODE     ---       #203
      00FF7781H   LINE      CODE     ---       #204
      00FF7784H   LINE      CODE     ---       #205
      00FF7784H   LINE      CODE     ---       #207
      00FF7798H   LINE      CODE     ---       #208
      00FF77A4H   LINE      CODE     ---       #209
      00FF77B8H   LINE      CODE     ---       #210
L251 LINKER/LOCATER V4.66.93.0                                                        10/23/2025  22:33:42  PAGE 118


      00FF77CCH   LINE      CODE     ---       #211
      00FF77E0H   LINE      CODE     ---       #212
      00FF77F4H   LINE      CODE     ---       #213
      00FF7808H   LINE      CODE     ---       #214
      00FF780BH   LINE      CODE     ---       #215
      00FF780BH   LINE      CODE     ---       #217
      00FF781FH   LINE      CODE     ---       #218
      00FF782BH   LINE      CODE     ---       #219
      00FF783FH   LINE      CODE     ---       #220
      00FF7853H   LINE      CODE     ---       #221
      00FF7867H   LINE      CODE     ---       #222
      00FF787BH   LINE      CODE     ---       #223
      00FF788FH   LINE      CODE     ---       #224
      00FF7892H   LINE      CODE     ---       #225
      00FF7892H   LINE      CODE     ---       #227
      00FF78A6H   LINE      CODE     ---       #228
      00FF78B2H   LINE      CODE     ---       #229
      00FF78C6H   LINE      CODE     ---       #230
      00FF78DAH   LINE      CODE     ---       #231
      00FF78EEH   LINE      CODE     ---       #232
      00FF7902H   LINE      CODE     ---       #233
      00FF7916H   LINE      CODE     ---       #234
      00FF7916H   LINE      CODE     ---       #235
      00FF7916H   LINE      CODE     ---       #237
      ---         BLOCKEND  ---      ---       LVL=0

      00FF82E1H   BLOCK     CODE     ---       LVL=0
      00FF82E1H   LINE      CODE     ---       #239
      00FF82E1H   LINE      CODE     ---       #241
      00FF82FCH   LINE      CODE     ---       #243
      00FF82FCH   LINE      CODE     ---       #245
      00FF830FH   LINE      CODE     ---       #246
      00FF8322H   LINE      CODE     ---       #247
      00FF8335H   LINE      CODE     ---       #248
      00FF8348H   LINE      CODE     ---       #249
      00FF835BH   LINE      CODE     ---       #250
      00FF835EH   LINE      CODE     ---       #251
      00FF835EH   LINE      CODE     ---       #253
      00FF8371H   LINE      CODE     ---       #254
      00FF8384H   LINE      CODE     ---       #255
      00FF8397H   LINE      CODE     ---       #256
      00FF83AAH   LINE      CODE     ---       #257
      00FF83BDH   LINE      CODE     ---       #258
      00FF83C0H   LINE      CODE     ---       #259
      00FF83C0H   LINE      CODE     ---       #261
      00FF83D3H   LINE      CODE     ---       #262
      00FF83E6H   LINE      CODE     ---       #263
      00FF83F9H   LINE      CODE     ---       #264
      00FF840CH   LINE      CODE     ---       #265
      00FF841FH   LINE      CODE     ---       #266
      00FF8421H   LINE      CODE     ---       #267
      00FF8421H   LINE      CODE     ---       #269
      00FF8434H   LINE      CODE     ---       #270
      00FF8447H   LINE      CODE     ---       #271
      00FF845AH   LINE      CODE     ---       #272
      00FF846DH   LINE      CODE     ---       #273
      00FF8480H   LINE      CODE     ---       #274
      00FF8480H   LINE      CODE     ---       #275
      00FF8480H   LINE      CODE     ---       #276
      ---         BLOCKEND  ---      ---       LVL=0

      00FF8784H   BLOCK     CODE     ---       LVL=0
      DR24        REGSYM    ---      FLOAT     value
      DR28        REGSYM    ---      FLOAT     Pargarm
      00FF8784H   LINE      CODE     ---       #320
L251 LINKER/LOCATER V4.66.93.0                                                        10/23/2025  22:33:42  PAGE 119


      00FF8788H   LINE      CODE     ---       #322
      00FF87A3H   LINE      CODE     ---       #324
      00FF87A3H   LINE      CODE     ---       #326
      00FF87C3H   LINE      CODE     ---       #327
      00FF87E1H   LINE      CODE     ---       #328
      00FF87E4H   LINE      CODE     ---       #330
      00FF87E4H   LINE      CODE     ---       #332
      00FF8804H   LINE      CODE     ---       #333
      00FF8822H   LINE      CODE     ---       #334
      00FF8825H   LINE      CODE     ---       #336
      00FF8825H   LINE      CODE     ---       #338
      00FF8845H   LINE      CODE     ---       #339
      00FF8863H   LINE      CODE     ---       #340
      00FF8865H   LINE      CODE     ---       #342
      00FF8865H   LINE      CODE     ---       #344
      00FF8885H   LINE      CODE     ---       #345
      00FF88A3H   LINE      CODE     ---       #346
      00FF88A5H   LINE      CODE     ---       #348
      00FF88A5H   LINE      CODE     ---       #350
      00FF88B1H   LINE      CODE     ---       #351
      00FF88BDH   LINE      CODE     ---       #352
      00FF88C9H   LINE      CODE     ---       #353
      00FF88D5H   LINE      CODE     ---       #355
      00FF88D5H   LINE      CODE     ---       #356
      ---         BLOCKEND  ---      ---       LVL=0
      DR28        REGSYM    ---      FLOAT     target
      DR24        REGSYM    ---      FLOAT     step

      ---         MODULE    ---      ---       eeprom
      000000D0H   SFRSYM    DATA     BYTE      PSW
      0000009DH   SFRSYM    DATA     BYTE      IRCBAND
      00000097H   SFRSYM    DATA     BYTE      AUXR2
      000000EFH   SFRSYM    DATA     BYTE      AUXINTIF
      000000FDH   SFRSYM    DATA     BYTE      S4CON
      000000ACH   SFRSYM    DATA     BYTE      S3CON
      0000009AH   SFRSYM    DATA     BYTE      S2CON
      000000B7H   SFRSYM    DATA     BYTE      IPH
      000000CDH   SFRSYM    DATA     BYTE      SPSTAT
      000000DDH   SFRSYM    DATA     BYTE      T4T3M
      000000C1H   SFRSYM    DATA     BYTE      WDT_CONTR
      000000DFH   SFRSYM    DATA     BYTE      IP3
      000000F4H   SFRSYM    DATA     BYTE      USBCON
      000000B5H   SFRSYM    DATA     BYTE      IP2
      000000FFH   SFRSYM    DATA     BYTE      RSTCFG
      000000C7H   SFRSYM    DATA     BYTE      IAP_CONTR
      0000008EH   SFRSYM    DATA     BYTE      AUXR
      000000AFH   SFRSYM    DATA     BYTE      IE2
      00000088H   SFRSYM    DATA     BYTE      TCON
      00000089H   SFRSYM    DATA     BYTE      TMOD
      00000098H   SFRSYM    DATA     BYTE      SCON
      00000087H   SFRSYM    DATA     BYTE      PCON
      000000BCH   SFRSYM    DATA     BYTE      ADC_CONTR
      000000D1H   SFRSYM    DATA     BYTE      PSW1
      000000E7H   SFRSYM    DATA     BYTE      CMPCR2
      000000E6H   SFRSYM    DATA     BYTE      CMPCR1
      000000DEH   SFRSYM    DATA     BYTE      ADCCFG
      000000B8H   SFRSYM    DATA     BYTE      IP
      0000008FH   SFRSYM    DATA     BYTE      INTCLKO
      000000EEH   SFRSYM    DATA     BYTE      IP3H
      000000B6H   SFRSYM    DATA     BYTE      IP2H
      000000BFH   SFRSYM    DATA     BYTE      P_SW4
      000000A8H   SFRSYM    DATA     BYTE      IE
      000000BBH   SFRSYM    DATA     BYTE      P_SW3
      000000BAH   SFRSYM    DATA     BYTE      P_SW2
      000000A2H   SFRSYM    DATA     BYTE      P_SW1
L251 LINKER/LOCATER V4.66.93.0                                                        10/23/2025  22:33:42  PAGE 120


      000000CEH   SFRSYM    DATA     BYTE      SPCTL
      000000F8H   SFRSYM    DATA     BYTE      P7
      000000A8H.7 SFRSYM    DATA     BIT       EA
      000000E8H   SFRSYM    DATA     BYTE      P6
      000000C8H   SFRSYM    DATA     BYTE      P5
      000000C0H   SFRSYM    DATA     BYTE      P4
      000000ABH   SFRSYM    DATA     BYTE      WKTCH
      000000B0H   SFRSYM    DATA     BYTE      P3
      000000A0H   SFRSYM    DATA     BYTE      P2
      00000090H   SFRSYM    DATA     BYTE      P1
      00000080H   SFRSYM    DATA     BYTE      P0
      00FFC882H   SYMBOL    HCONST   ---       ?tpl?0001
      00FFCA82H   SYMBOL    HCONST   ---       ?tpl?0002
      00FFCC82H   SYMBOL    HCONST   ---       ?tpl?0003
      DR12        REGSYM    ---      DWORD     sector_start
      DR4         REGSYM    ---      DWORD     array_size
      DR4         REGSYM    ---      DWORD     sector_start
      DR28        REGSYM    ---      DWORD     addr
      REG=3       REGSYM    ---      ---       float_ptr
      R10         REGSYM    ---      BYTE      i
      DR0         REGSYM    ---      DWORD     addr
      REG=2       REGSYM    ---      ---       float_ptr

      ---         MODULE    ---      ---       function
      00FFB7B4H   PUBLIC    CODE     ---       CAR_STOP
      00FF0046H   PUBLIC    CODE     ---       Servo_Init
      00FFAF20H   PUBLIC    CODE     ---       Motor_Init
      00FF4E35H   PUBLIC    CODE     ---       Show_pararm
      00FFB6DAH   PUBLIC    CODE     ---       speed_control_ring
      00FFA6C2H   PUBLIC    CODE     ---       unification
      00FF7F4DH   PUBLIC    CODE     ---       Turn_mode_Init
      00FFB57DH   PUBLIC    CODE     ---       Speed_Control
      00FFB808H   PUBLIC    CODE     ---       GO_Function
      00FFAC53H   PUBLIC    CODE     ---       init_all
      00FF9EC0H   PUBLIC    CODE     ---       Servo_Control
      00FF9D5DH   PUBLIC    CODE     ---       fast_sqrt
      00FFB48CH   PUBLIC    CODE     ---       Protect
      00FF0026H   PUBLIC    CODE     ---       enconder_init
      00FFB651H   PUBLIC    CODE     ---       show_test_info
      00010F71H   PUBLIC    XDATA    BYTE      Key_Flag
      00010F72H   PUBLIC    XDATA    INT       T3
      00010F74H   PUBLIC    XDATA    INT       encoder_data_dir_1
      00010F76H   PUBLIC    XDATA    INT       encoder_data_dir_2
      00010F78H   PUBLIC    XDATA    BYTE      GO_PID_Control
      00010F79H   PUBLIC    XDATA    BYTE      Init_Fg
      00010F7AH   PUBLIC    XDATA    BYTE      ADC_Show_Flag
      00010F7BH   PUBLIC    XDATA    BYTE      GO_PID_Control1
      00010F7CH   PUBLIC    XDATA    BYTE      GO_PID_Control2
      00010F7DH   PUBLIC    XDATA    ---       M_Right_pid
      00010FA9H   PUBLIC    XDATA    BYTE      GO_PID_Control3
      00010FAAH   PUBLIC    XDATA    ---       servo_pid
      00010FD6H   PUBLIC    XDATA    INT       Speed_Mode
      00010FD8H   PUBLIC    XDATA    INT       Set_T
      00010FDAH   PUBLIC    XDATA    BYTE      Protect_flag
      00010FDBH   PUBLIC    XDATA    INT       dajiao
      00010FDDH   PUBLIC    XDATA    BYTE      Servo_Flag
      00010FDEH   PUBLIC    XDATA    ---       M_left_pid
      000000D0H   SFRSYM    DATA     BYTE      PSW
      0000009DH   SFRSYM    DATA     BYTE      IRCBAND
      00000097H   SFRSYM    DATA     BYTE      AUXR2
      000000EFH   SFRSYM    DATA     BYTE      AUXINTIF
      000000FDH   SFRSYM    DATA     BYTE      S4CON
      000000ACH   SFRSYM    DATA     BYTE      S3CON
      0000009AH   SFRSYM    DATA     BYTE      S2CON
      000000B7H   SFRSYM    DATA     BYTE      IPH
L251 LINKER/LOCATER V4.66.93.0                                                        10/23/2025  22:33:42  PAGE 121


      000000CDH   SFRSYM    DATA     BYTE      SPSTAT
      000000DDH   SFRSYM    DATA     BYTE      T4T3M
      000000C1H   SFRSYM    DATA     BYTE      WDT_CONTR
      000000DFH   SFRSYM    DATA     BYTE      IP3
      000000F4H   SFRSYM    DATA     BYTE      USBCON
      000000B5H   SFRSYM    DATA     BYTE      IP2
      000000FFH   SFRSYM    DATA     BYTE      RSTCFG
      000000C7H   SFRSYM    DATA     BYTE      IAP_CONTR
      0000008EH   SFRSYM    DATA     BYTE      AUXR
      000000AFH   SFRSYM    DATA     BYTE      IE2
      00000088H   SFRSYM    DATA     BYTE      TCON
      00000089H   SFRSYM    DATA     BYTE      TMOD
      00000098H   SFRSYM    DATA     BYTE      SCON
      00000087H   SFRSYM    DATA     BYTE      PCON
      000000BCH   SFRSYM    DATA     BYTE      ADC_CONTR
      000000D1H   SFRSYM    DATA     BYTE      PSW1
      000000E7H   SFRSYM    DATA     BYTE      CMPCR2
      000000E6H   SFRSYM    DATA     BYTE      CMPCR1
      000000DEH   SFRSYM    DATA     BYTE      ADCCFG
      000000B8H   SFRSYM    DATA     BYTE      IP
      0000008FH   SFRSYM    DATA     BYTE      INTCLKO
      000000EEH   SFRSYM    DATA     BYTE      IP3H
      000000B6H   SFRSYM    DATA     BYTE      IP2H
      000000BFH   SFRSYM    DATA     BYTE      P_SW4
      000000A8H   SFRSYM    DATA     BYTE      IE
      000000BBH   SFRSYM    DATA     BYTE      P_SW3
      000000BAH   SFRSYM    DATA     BYTE      P_SW2
      000000A2H   SFRSYM    DATA     BYTE      P_SW1
      000000CEH   SFRSYM    DATA     BYTE      SPCTL
      000000F8H   SFRSYM    DATA     BYTE      P7
      000000A8H.7 SFRSYM    DATA     BIT       EA
      000000E8H   SFRSYM    DATA     BYTE      P6
      000000C8H   SFRSYM    DATA     BYTE      P5
      000000C0H   SFRSYM    DATA     BYTE      P4
      000000ABH   SFRSYM    DATA     BYTE      WKTCH
      000000B0H   SFRSYM    DATA     BYTE      P3
      000000A0H   SFRSYM    DATA     BYTE      P2
      00000090H   SFRSYM    DATA     BYTE      P1
      00000080H   SFRSYM    DATA     BYTE      P0
      REG=6       REGSYM    ---      ---       PID
      DR28        REGSYM    ---      FLOAT     NowData

      00FFA6C2H   BLOCK     CODE     ---       LVL=0
      00FFA6C4H   BLOCK     CODE     NEAR LAB  LVL=1
      0001100AH   SYMBOL    XDATA    INT       left_1
      WR6         REGSYM    ---      INT       left_2
      WR10        REGSYM    ---      INT       right_2
      WR2         REGSYM    ---      INT       right_1
      0001100CH   SYMBOL    XDATA    LONG      he
      ---         BLOCKEND  ---      ---       LVL=1
      00FFA6C2H   LINE      CODE     ---       #45
      00FFA6C4H   LINE      CODE     ---       #46
      00FFA6C4H   LINE      CODE     ---       #47
      00FFA6D0H   LINE      CODE     ---       #48
      00FFA6D6H   LINE      CODE     ---       #49
      00FFA6DCH   LINE      CODE     ---       #50
      00FFA6E2H   LINE      CODE     ---       #52
      00FFA6F6H   LINE      CODE     ---       #53
      00FFA70AH   LINE      CODE     ---       #54
      00FFA74AH   LINE      CODE     ---       #55
      ---         BLOCKEND  ---      ---       LVL=0

      00FF9D5DH   BLOCK     CODE     ---       LVL=0
      DR12        REGSYM    ---      FLOAT     number
      00FF9D61H   BLOCK     CODE     NEAR LAB  LVL=1
L251 LINKER/LOCATER V4.66.93.0                                                        10/23/2025  22:33:42  PAGE 122


      00011010H   SYMBOL    XDATA    DWORD     i
      00011014H   SYMBOL    XDATA    FLOAT     x
      ---         BLOCKEND  ---      ---       LVL=1
      00FF9D5DH   LINE      CODE     ---       #57
      00FF9D61H   LINE      CODE     ---       #58
      00FF9D61H   LINE      CODE     ---       #60
      00FF9D6BH   LINE      CODE     ---       #62
      00FF9D79H   LINE      CODE     ---       #64
      00FF9D94H   LINE      CODE     ---       #66
      00FF9DB9H   LINE      CODE     ---       #68
      00FF9DD4H   LINE      CODE     ---       #70
      00FF9E03H   LINE      CODE     ---       #71
      00FF9E0DH   LINE      CODE     ---       #72
      ---         BLOCKEND  ---      ---       LVL=0

      00FFAF20H   BLOCK     CODE     ---       LVL=0
      00FFAF20H   LINE      CODE     ---       #74
      00FFAF20H   LINE      CODE     ---       #77
      00FFAF37H   LINE      CODE     ---       #78
      00FFAF4EH   LINE      CODE     ---       #79
      00FFAF65H   LINE      CODE     ---       #80
      00FFAF7CH   LINE      CODE     ---       #81
      ---         BLOCKEND  ---      ---       LVL=0

      00FF0046H   BLOCK     CODE     ---       LVL=0
      00FF0046H   LINE      CODE     ---       #84
      00FF0046H   LINE      CODE     ---       #86
      00FF005FH   LINE      CODE     ---       #87
      ---         BLOCKEND  ---      ---       LVL=0

      00FFB7B4H   BLOCK     CODE     ---       LVL=0
      00FFB7B4H   LINE      CODE     ---       #88
      00FFB7B4H   LINE      CODE     ---       #90
      00FFB7B9H   LINE      CODE     ---       #91
      00FFB7BEH   LINE      CODE     ---       #92
      00FFB7C5H   LINE      CODE     ---       #93
      ---         BLOCKEND  ---      ---       LVL=0

      00FFB48CH   BLOCK     CODE     ---       LVL=0
      00FFB48CH   LINE      CODE     ---       #96
      00FFB48CH   LINE      CODE     ---       #98
      00FFB492H   LINE      CODE     ---       #100
      00FFB4C3H   LINE      CODE     ---       #102
      00FFB4C9H   LINE      CODE     ---       #103
      00FFB4C9H   LINE      CODE     ---       #105
      ---         BLOCKEND  ---      ---       LVL=0

      00FFAC53H   BLOCK     CODE     ---       LVL=0
      00FFAC53H   LINE      CODE     ---       #107
      00FFAC53H   LINE      CODE     ---       #109
      00FFAC55H   LINE      CODE     ---       #111
      00FFAC5CH   LINE      CODE     ---       #112
      00FFAC5FH   LINE      CODE     ---       #113
      00FFAC62H   LINE      CODE     ---       #115
      00FFAC6BH   LINE      CODE     ---       #116
      00FFAC72H   LINE      CODE     ---       #117
      00FFAC75H   LINE      CODE     ---       #118
      00FFAC78H   LINE      CODE     ---       #119
      00FFAC7BH   LINE      CODE     ---       #122
      00FFAC7EH   LINE      CODE     ---       #123
      00FFAC81H   LINE      CODE     ---       #124
      00FFAC88H   LINE      CODE     ---       #125
      00FFAC93H   LINE      CODE     ---       #127
      00FFAC96H   LINE      CODE     ---       #128
      00FFAC9DH   LINE      CODE     ---       #130
L251 LINKER/LOCATER V4.66.93.0                                                        10/23/2025  22:33:42  PAGE 123


      00FFACC2H   LINE      CODE     ---       #132
      00FFACC4H   LINE      CODE     ---       #134
      ---         BLOCKEND  ---      ---       LVL=0

      00FFB651H   BLOCK     CODE     ---       LVL=0
      REG=3       REGSYM    ---      ---       info
      00FFB651H   LINE      CODE     ---       #135
      00FFB655H   LINE      CODE     ---       #137
      00FFB65CH   LINE      CODE     ---       #138
      00FFB663H   LINE      CODE     ---       #139
      00FFB66EH   LINE      CODE     ---       #140
      00FFB675H   LINE      CODE     ---       #141
      00FFB67CH   LINE      CODE     ---       #143
      ---         BLOCKEND  ---      ---       LVL=0

      00FF7F4DH   BLOCK     CODE     ---       LVL=0
      00FF7F4DH   LINE      CODE     ---       #145
      00FF7F4DH   LINE      CODE     ---       #147
      00FF7F4FH   LINE      CODE     ---       #148
      00FF7F7EH   LINE      CODE     ---       #150
      00FF7F7EH   LINE      CODE     ---       #152
      00FF7F81H   LINE      CODE     ---       #153
      00FF7F84H   LINE      CODE     ---       #154
      00FF7F89H   LINE      CODE     ---       #155
      00FF7F8FH   LINE      CODE     ---       #157
      00FF7F94H   LINE      CODE     ---       #158
      00FF7F9FH   LINE      CODE     ---       #159
      00FF7FA2H   LINE      CODE     ---       #160
      00FF7FA5H   LINE      CODE     ---       #161
      00FF7FA8H   LINE      CODE     ---       #162
      00FF7FABH   LINE      CODE     ---       #163
      00FF7FB0H   LINE      CODE     ---       #164
      00FF7FB5H   LINE      CODE     ---       #165
      00FF7FBAH   LINE      CODE     ---       #166
      00FF7FBFH   LINE      CODE     ---       #167
      00FF7FC2H   LINE      CODE     ---       #169
      00FF7FC2H   LINE      CODE     ---       #171
      00FF7FC7H   LINE      CODE     ---       #172
      00FF7FCCH   LINE      CODE     ---       #174
      00FF7FDFH   LINE      CODE     ---       #175
      00FF7FE5H   LINE      CODE     ---       #177
      00FF7FF0H   LINE      CODE     ---       #178
      00FF7FF6H   LINE      CODE     ---       #180
      00FF7FF9H   LINE      CODE     ---       #181
      00FF7FFCH   LINE      CODE     ---       #182
      00FF7FFFH   LINE      CODE     ---       #184
      00FF7FFFH   LINE      CODE     ---       #186
      00FF8004H   LINE      CODE     ---       #187
      00FF8009H   LINE      CODE     ---       #189
      00FF801CH   LINE      CODE     ---       #190
      00FF8022H   LINE      CODE     ---       #192
      00FF802DH   LINE      CODE     ---       #193
      00FF8033H   LINE      CODE     ---       #195
      00FF8036H   LINE      CODE     ---       #196
      00FF8039H   LINE      CODE     ---       #197
      00FF803CH   LINE      CODE     ---       #199
      00FF803CH   LINE      CODE     ---       #201
      00FF8041H   LINE      CODE     ---       #202
      00FF8046H   LINE      CODE     ---       #204
      00FF8059H   LINE      CODE     ---       #205
      00FF805FH   LINE      CODE     ---       #206
      00FF806AH   LINE      CODE     ---       #207
      00FF8070H   LINE      CODE     ---       #209
      00FF8073H   LINE      CODE     ---       #210
      00FF8076H   LINE      CODE     ---       #211
L251 LINKER/LOCATER V4.66.93.0                                                        10/23/2025  22:33:42  PAGE 124


      00FF8079H   LINE      CODE     ---       #213
      00FF8079H   LINE      CODE     ---       #215
      00FF807EH   LINE      CODE     ---       #216
      00FF8083H   LINE      CODE     ---       #218
      00FF8096H   LINE      CODE     ---       #219
      00FF809CH   LINE      CODE     ---       #220
      00FF80A7H   LINE      CODE     ---       #221
      00FF80ADH   LINE      CODE     ---       #224
      00FF80B0H   LINE      CODE     ---       #225
      00FF80B3H   LINE      CODE     ---       #226
      00FF80B5H   LINE      CODE     ---       #228
      00FF80B5H   LINE      CODE     ---       #230
      00FF80BBH   LINE      CODE     ---       #231
      00FF80C0H   LINE      CODE     ---       #232
      00FF80CBH   LINE      CODE     ---       #233
      00FF80CDH   LINE      CODE     ---       #235
      00FF80CDH   LINE      CODE     ---       #237
      00FF80D3H   LINE      CODE     ---       #238
      00FF80D8H   LINE      CODE     ---       #239
      00FF80E3H   LINE      CODE     ---       #240
      00FF80E5H   LINE      CODE     ---       #242
      00FF80E5H   LINE      CODE     ---       #244
      00FF80EBH   LINE      CODE     ---       #245
      00FF80F1H   LINE      CODE     ---       #246
      00FF80F7H   LINE      CODE     ---       #247
      00FF8102H   LINE      CODE     ---       #248
      00FF8104H   LINE      CODE     ---       #250
      00FF8104H   LINE      CODE     ---       #252
      00FF810AH   LINE      CODE     ---       #253
      00FF810FH   LINE      CODE     ---       #254
      00FF811AH   LINE      CODE     ---       #255
      00FF811AH   LINE      CODE     ---       #257
      00FF811AH   LINE      CODE     ---       #259
      00FF811CH   LINE      CODE     ---       #260
      ---         BLOCKEND  ---      ---       LVL=0

      00FF4E35H   BLOCK     CODE     ---       LVL=0
      00FF4E35H   LINE      CODE     ---       #262
      00FF4E35H   LINE      CODE     ---       #264
      00FF4E65H   LINE      CODE     ---       #266
      00FF4E65H   LINE      CODE     ---       #267
      00FF4E65H   LINE      CODE     ---       #269
      00FF4EA5H   LINE      CODE     ---       #270
      00FF4EE5H   LINE      CODE     ---       #271
      00FF4EE8H   LINE      CODE     ---       #272
      00FF4EE8H   LINE      CODE     ---       #274
      00FF4F06H   LINE      CODE     ---       #275
      00FF4F28H   LINE      CODE     ---       #276
      00FF4F5FH   LINE      CODE     ---       #277
      00FF4F96H   LINE      CODE     ---       #278
      00FF4FD3H   LINE      CODE     ---       #282
      00FF4FD6H   LINE      CODE     ---       #283
      00FF4FD6H   LINE      CODE     ---       #284
      00FF4FD6H   LINE      CODE     ---       #286
      00FF5014H   LINE      CODE     ---       #287
      00FF5051H   LINE      CODE     ---       #288
      00FF5091H   LINE      CODE     ---       #289
      00FF50D1H   LINE      CODE     ---       #290
      00FF510EH   LINE      CODE     ---       #291
      00FF5111H   LINE      CODE     ---       #292
      00FF5111H   LINE      CODE     ---       #294
      00FF514FH   LINE      CODE     ---       #295
      00FF518CH   LINE      CODE     ---       #296
      00FF51CCH   LINE      CODE     ---       #297
      00FF520CH   LINE      CODE     ---       #298
L251 LINKER/LOCATER V4.66.93.0                                                        10/23/2025  22:33:42  PAGE 125


      00FF5249H   LINE      CODE     ---       #299
      00FF524CH   LINE      CODE     ---       #300
      00FF524CH   LINE      CODE     ---       #302
      00FF5289H   LINE      CODE     ---       #303
      00FF52C9H   LINE      CODE     ---       #304
      00FF5309H   LINE      CODE     ---       #305
      00FF5346H   LINE      CODE     ---       #306
      00FF5349H   LINE      CODE     ---       #307
      00FF5349H   LINE      CODE     ---       #309
      00FF5367H   LINE      CODE     ---       #310
      00FF5389H   LINE      CODE     ---       #311
      00FF53ABH   LINE      CODE     ---       #312
      00FF53CDH   LINE      CODE     ---       #313
      00FF53EFH   LINE      CODE     ---       #314
      00FF5411H   LINE      CODE     ---       #318
      00FF5413H   LINE      CODE     ---       #319
      00FF5413H   LINE      CODE     ---       #321
      00FF5442H   LINE      CODE     ---       #322
      00FF5442H   LINE      CODE     ---       #323
      00FF5442H   LINE      CODE     ---       #325
      ---         BLOCKEND  ---      ---       LVL=0

      00FFB808H   BLOCK     CODE     ---       LVL=0
      00FFB808H   LINE      CODE     ---       #335
      00FFB808H   LINE      CODE     ---       #337
      00FFB80FH   LINE      CODE     ---       #339
      00FFB812H   LINE      CODE     ---       #340
      00FFB817H   LINE      CODE     ---       #341
      ---         BLOCKEND  ---      ---       LVL=0

      00FF0026H   BLOCK     CODE     ---       LVL=0
      00FF0026H   LINE      CODE     ---       #344
      00FF0026H   LINE      CODE     ---       #346
      00FF0033H   LINE      CODE     ---       #347
      00FF0042H   LINE      CODE     ---       #348
      ---         BLOCKEND  ---      ---       LVL=0

      00FFB6DAH   BLOCK     CODE     ---       LVL=0
      00FFB6DAH   LINE      CODE     ---       #349
      00FFB6DAH   LINE      CODE     ---       #351
      00FFB6EBH   LINE      CODE     ---       #352
      00FFB6F8H   LINE      CODE     ---       #353
      00FFB6FDH   LINE      CODE     ---       #354
      00FFB704H   LINE      CODE     ---       #355
      ---         BLOCKEND  ---      ---       LVL=0

      00FFB57DH   BLOCK     CODE     ---       LVL=0
      00FFB57DH   LINE      CODE     ---       #357
      00FFB57DH   LINE      CODE     ---       #359
      00FFB599H   LINE      CODE     ---       #360
      00FFB5B5H   LINE      CODE     ---       #361
      ---         BLOCKEND  ---      ---       LVL=0

      00FF9EC0H   BLOCK     CODE     ---       LVL=0
      00FF9EC0H   LINE      CODE     ---       #363
      00FF9EC0H   LINE      CODE     ---       #365
      00FF9EC6H   LINE      CODE     ---       #367
      00FF9ED2H   LINE      CODE     ---       #369
      00FF9EE7H   LINE      CODE     ---       #370
      00FF9EEAH   LINE      CODE     ---       #371
      00FF9EF6H   LINE      CODE     ---       #373
      00FF9F0DH   LINE      CODE     ---       #374
      00FF9F0FH   LINE      CODE     ---       #377
      00FF9F3CH   LINE      CODE     ---       #379
      00FF9F3CH   LINE      CODE     ---       #380
L251 LINKER/LOCATER V4.66.93.0                                                        10/23/2025  22:33:42  PAGE 126


      00FF9F3EH   LINE      CODE     ---       #383
      00FF9F6BH   LINE      CODE     ---       #385
      00FF9F6BH   LINE      CODE     ---       #386
      ---         BLOCKEND  ---      ---       LVL=0

      ---         MODULE    ---      ---       Key
      00FF8EEDH   PUBLIC    CODE     ---       Key_scaner
      00FF9B34H   PUBLIC    CODE     ---       Turn_mode
      00FFB28CH   PUBLIC    CODE     ---       Key_Number
      000112C2H   PUBLIC    XDATA    BYTE      State
      000112C3H   PUBLIC    XDATA    INT       Trigg_time
      000112C5H   PUBLIC    XDATA    INT       Press_time
      000112C7H   PUBLIC    XDATA    BYTE      Key_count
      000112C8H   PUBLIC    XDATA    WORD      Time_dou
      000112CAH   PUBLIC    XDATA    BYTE      keynumber
      000112CBH   PUBLIC    XDATA    BYTE      last_keynumber
      000112CCH   PUBLIC    XDATA    BYTE      Init_Flag
      00FFD782H   PUBLIC    HCONST   ---       mode_map
      000000D0H   SFRSYM    DATA     BYTE      PSW
      0000009DH   SFRSYM    DATA     BYTE      IRCBAND
      00000097H   SFRSYM    DATA     BYTE      AUXR2
      000000EFH   SFRSYM    DATA     BYTE      AUXINTIF
      000000FDH   SFRSYM    DATA     BYTE      S4CON
      000000ACH   SFRSYM    DATA     BYTE      S3CON
      0000009AH   SFRSYM    DATA     BYTE      S2CON
      000000B7H   SFRSYM    DATA     BYTE      IPH
      000000CDH   SFRSYM    DATA     BYTE      SPSTAT
      000000DDH   SFRSYM    DATA     BYTE      T4T3M
      000000C1H   SFRSYM    DATA     BYTE      WDT_CONTR
      000000DFH   SFRSYM    DATA     BYTE      IP3
      000000F4H   SFRSYM    DATA     BYTE      USBCON
      000000B5H   SFRSYM    DATA     BYTE      IP2
      000000FFH   SFRSYM    DATA     BYTE      RSTCFG
      000000C7H   SFRSYM    DATA     BYTE      IAP_CONTR
      0000008EH   SFRSYM    DATA     BYTE      AUXR
      000000AFH   SFRSYM    DATA     BYTE      IE2
      00000088H   SFRSYM    DATA     BYTE      TCON
      00000089H   SFRSYM    DATA     BYTE      TMOD
      00000098H   SFRSYM    DATA     BYTE      SCON
      00000087H   SFRSYM    DATA     BYTE      PCON
      000000BCH   SFRSYM    DATA     BYTE      ADC_CONTR
      000000D1H   SFRSYM    DATA     BYTE      PSW1
      000000E7H   SFRSYM    DATA     BYTE      CMPCR2
      000000E6H   SFRSYM    DATA     BYTE      CMPCR1
      000000DEH   SFRSYM    DATA     BYTE      ADCCFG
      000000B8H   SFRSYM    DATA     BYTE      IP
      0000008FH   SFRSYM    DATA     BYTE      INTCLKO
      000000EEH   SFRSYM    DATA     BYTE      IP3H
      000000B6H   SFRSYM    DATA     BYTE      IP2H
      000000BFH   SFRSYM    DATA     BYTE      P_SW4
      000000A8H   SFRSYM    DATA     BYTE      IE
      000000BBH   SFRSYM    DATA     BYTE      P_SW3
      000000BAH   SFRSYM    DATA     BYTE      P_SW2
      000000A2H   SFRSYM    DATA     BYTE      P_SW1
      000000CEH   SFRSYM    DATA     BYTE      SPCTL
      000000F8H   SFRSYM    DATA     BYTE      P7
      000000E8H   SFRSYM    DATA     BYTE      P6
      000000C8H   SFRSYM    DATA     BYTE      P5
      000000C0H   SFRSYM    DATA     BYTE      P4
      000000ABH   SFRSYM    DATA     BYTE      WKTCH
      000000B0H   SFRSYM    DATA     BYTE      P3
      000000A0H   SFRSYM    DATA     BYTE      P2
      00000090H   SFRSYM    DATA     BYTE      P1
      00000080H   SFRSYM    DATA     BYTE      P0

L251 LINKER/LOCATER V4.66.93.0                                                        10/23/2025  22:33:42  PAGE 127


      00FFB28CH   BLOCK     CODE     ---       LVL=0
      00FFB28EH   BLOCK     CODE     NEAR LAB  LVL=1
      R15         REGSYM    ---      BYTE      KeyNumber
      ---         BLOCKEND  ---      ---       LVL=1
      00FFB28CH   LINE      CODE     ---       #26
      00FFB28EH   LINE      CODE     ---       #27
      00FFB28EH   LINE      CODE     ---       #28
      00FFB290H   LINE      CODE     ---       #35
      00FFB29CH   LINE      CODE     ---       #36
      00FFB2A8H   LINE      CODE     ---       #37
      00FFB2B4H   LINE      CODE     ---       #38
      00FFB2C0H   LINE      CODE     ---       #39
      00FFB2CCH   LINE      CODE     ---       #47
      00FFB2CEH   LINE      CODE     ---       #48
      ---         BLOCKEND  ---      ---       LVL=0

      00FF9B34H   BLOCK     CODE     ---       LVL=0
      WR8         REGSYM    ---      INT       i
      00FF9B34H   LINE      CODE     ---       #49
      00FF9B34H   LINE      CODE     ---       #50
      00FF9B34H   LINE      CODE     ---       #52
      00FF9B39H   LINE      CODE     ---       #54
      00FF9B69H   LINE      CODE     ---       #56
      00FF9BA0H   LINE      CODE     ---       #57
      00FF9BDBH   LINE      CODE     ---       #58
      00FF9BE1H   LINE      CODE     ---       #59
      00FF9BE3H   LINE      CODE     ---       #60
      00FF9BE3H   LINE      CODE     ---       #62
      00FF9BEEH   LINE      CODE     ---       #63
      ---         BLOCKEND  ---      ---       LVL=0

      00FF8EEDH   BLOCK     CODE     ---       LVL=0
      00FF8EEDH   LINE      CODE     ---       #64
      00FF8EEDH   LINE      CODE     ---       #66
      00FF8EF4H   LINE      CODE     ---       #67
      00FF8F0BH   LINE      CODE     ---       #69
      00FF8F0BH   LINE      CODE     ---       #71
      00FF8F14H   LINE      CODE     ---       #73
      00FF8F1AH   LINE      CODE     ---       #74
      00FF8F1FH   LINE      CODE     ---       #75
      00FF8F1FH   LINE      CODE     ---       #76
      00FF8F22H   LINE      CODE     ---       #78
      00FF8F22H   LINE      CODE     ---       #80
      00FF8F28H   LINE      CODE     ---       #82
      00FF8F2DH   LINE      CODE     ---       #83
      00FF8F30H   LINE      CODE     ---       #86
      00FF8F36H   LINE      CODE     ---       #87
      00FF8F49H   LINE      CODE     ---       #89
      00FF8F4FH   LINE      CODE     ---       #90
      00FF8F57H   LINE      CODE     ---       #92
      00FF8F57H   LINE      CODE     ---       #94
      00FF8F5AH   LINE      CODE     ---       #96
      00FF8F5AH   LINE      CODE     ---       #98
      00FF8F60H   LINE      CODE     ---       #101
      00FF8F66H   LINE      CODE     ---       #102
      00FF8F6BH   LINE      CODE     ---       #103
      00FF8F73H   LINE      CODE     ---       #104
      00FF8F76H   LINE      CODE     ---       #107
      00FF8F81H   LINE      CODE     ---       #108
      00FF8F8DH   LINE      CODE     ---       #110
      00FF8F98H   LINE      CODE     ---       #111
      00FF8F9FH   LINE      CODE     ---       #113
      00FF8FA2H   LINE      CODE     ---       #114
      00FF8FA8H   LINE      CODE     ---       #115
      00FF8FB0H   LINE      CODE     ---       #116
L251 LINKER/LOCATER V4.66.93.0                                                        10/23/2025  22:33:42  PAGE 128


      00FF8FB5H   LINE      CODE     ---       #117
      00FF8FB7H   LINE      CODE     ---       #118
      00FF8FC3H   LINE      CODE     ---       #120
      00FF8FCBH   LINE      CODE     ---       #121
      00FF8FD3H   LINE      CODE     ---       #123
      00FF8FD3H   LINE      CODE     ---       #125
      00FF8FD3H   LINE      CODE     ---       #126
      00FF8FD5H   LINE      CODE     ---       #128
      00FF8FD5H   LINE      CODE     ---       #130
      00FF8FDBH   LINE      CODE     ---       #132
      00FF8FE1H   LINE      CODE     ---       #133
      00FF8FF1H   LINE      CODE     ---       #135
      00FF8FF6H   LINE      CODE     ---       #136
      00FF8FFEH   LINE      CODE     ---       #137
      00FF9000H   LINE      CODE     ---       #141
      00FF9006H   LINE      CODE     ---       #142
      00FF9006H   LINE      CODE     ---       #143
      00FF9006H   LINE      CODE     ---       #145
      00FF9006H   LINE      CODE     ---       #146
      ---         BLOCKEND  ---      ---       LVL=0

      ---         MODULE    ---      ---       menu
      00FFAB69H   PUBLIC    CODE     ---       Show_bujin
      00FFAA74H   PUBLIC    CODE     ---       menu_Init
      00FFB67FH   PUBLIC    CODE     ---       menu_handle_key
      00FF9587H   PUBLIC    CODE     ---       handle_key1
      00FFB2D1H   PUBLIC    CODE     ---       handle_key2
      00FFB081H   PUBLIC    CODE     ---       handle_key3
      00FF99B1H   PUBLIC    CODE     ---       handle_key4
      00FF00A6H   PUBLIC    CODE     ---       handle_key5
      00FF9813H   PUBLIC    CODE     ---       Menu_SetChildren
      00FF019EH   PUBLIC    CODE     ---       Key3_handle1
      00FF98E3H   PUBLIC    CODE     ---       Key3_handle2
      00FFA970H   PUBLIC    CODE     ---       Refesh_arrow
      00FF8B63H   PUBLIC    CODE     ---       menu_display_content
      00FFB7C6H   PUBLIC    CODE     ---       show_all_menu
      00011291H   PUBLIC    XDATA    BYTE      Show_image_mode
      00011292H   PUBLIC    XDATA    FLOAT     bujin
      00011296H   PUBLIC    XDATA    CHAR      mode
      00011297H   PUBLIC    XDATA    BYTE      Key
      00011298H   PUBLIC    XDATA    CHAR      Start_Show_Row
      00011299H   PUBLIC    XDATA    CHAR      i
      0001129AH   PUBLIC    XDATA    CHAR      j
      0001129BH   PUBLIC    XDATA    CHAR      Key3_count
      0001129CH   PUBLIC    XDATA    BYTE      Save_Flag
      0001129DH   PUBLIC    XDATA    CHAR      Flag
      000000D0H   SFRSYM    DATA     BYTE      PSW
      0000009DH   SFRSYM    DATA     BYTE      IRCBAND
      00000097H   SFRSYM    DATA     BYTE      AUXR2
      000000EFH   SFRSYM    DATA     BYTE      AUXINTIF
      000000FDH   SFRSYM    DATA     BYTE      S4CON
      000000ACH   SFRSYM    DATA     BYTE      S3CON
      0000009AH   SFRSYM    DATA     BYTE      S2CON
      000000B7H   SFRSYM    DATA     BYTE      IPH
      000000CDH   SFRSYM    DATA     BYTE      SPSTAT
      000000DDH   SFRSYM    DATA     BYTE      T4T3M
      000000C1H   SFRSYM    DATA     BYTE      WDT_CONTR
      000000DFH   SFRSYM    DATA     BYTE      IP3
      000000F4H   SFRSYM    DATA     BYTE      USBCON
      000000B5H   SFRSYM    DATA     BYTE      IP2
      000000FFH   SFRSYM    DATA     BYTE      RSTCFG
      000000C7H   SFRSYM    DATA     BYTE      IAP_CONTR
      0000008EH   SFRSYM    DATA     BYTE      AUXR
      000000AFH   SFRSYM    DATA     BYTE      IE2
      00000088H   SFRSYM    DATA     BYTE      TCON
L251 LINKER/LOCATER V4.66.93.0                                                        10/23/2025  22:33:42  PAGE 129


      00000089H   SFRSYM    DATA     BYTE      TMOD
      00000098H   SFRSYM    DATA     BYTE      SCON
      00000087H   SFRSYM    DATA     BYTE      PCON
      000000BCH   SFRSYM    DATA     BYTE      ADC_CONTR
      000000D1H   SFRSYM    DATA     BYTE      PSW1
      000000E7H   SFRSYM    DATA     BYTE      CMPCR2
      000000E6H   SFRSYM    DATA     BYTE      CMPCR1
      000000DEH   SFRSYM    DATA     BYTE      ADCCFG
      000000B8H   SFRSYM    DATA     BYTE      IP
      0000008FH   SFRSYM    DATA     BYTE      INTCLKO
      000000EEH   SFRSYM    DATA     BYTE      IP3H
      000000B6H   SFRSYM    DATA     BYTE      IP2H
      000000BFH   SFRSYM    DATA     BYTE      P_SW4
      000000A8H   SFRSYM    DATA     BYTE      IE
      000000BBH   SFRSYM    DATA     BYTE      P_SW3
      000000BAH   SFRSYM    DATA     BYTE      P_SW2
      000000A2H   SFRSYM    DATA     BYTE      P_SW1
      000000CEH   SFRSYM    DATA     BYTE      SPCTL
      000000F8H   SFRSYM    DATA     BYTE      P7
      000000E8H   SFRSYM    DATA     BYTE      P6
      000000C8H   SFRSYM    DATA     BYTE      P5
      000000C0H   SFRSYM    DATA     BYTE      P4
      000000ABH   SFRSYM    DATA     BYTE      WKTCH
      000000B0H   SFRSYM    DATA     BYTE      P3
      000000A0H   SFRSYM    DATA     BYTE      P2
      00000090H   SFRSYM    DATA     BYTE      P1
      00000080H   SFRSYM    DATA     BYTE      P0

      00FF9813H   BLOCK     CODE     ---       LVL=0
      REG=6       REGSYM    ---      ---       parent
      REG=7       REGSYM    ---      ---       child_indices
      00FF9813H   LINE      CODE     ---       #19
      00FF9817H   LINE      CODE     ---       #22
      00FF981EH   LINE      CODE     ---       #23
      00FF9836H   LINE      CODE     ---       #24
      00FF9845H   LINE      CODE     ---       #27
      00FF984CH   LINE      CODE     ---       #29
      00FF9870H   LINE      CODE     ---       #31
      00FF98A0H   LINE      CODE     ---       #32
      00FF98BEH   LINE      CODE     ---       #33
      00FF98E2H   LINE      CODE     ---       #36
      ---         BLOCKEND  ---      ---       LVL=0

      00FFA970H   BLOCK     CODE     ---       LVL=0
      00FFA970H   LINE      CODE     ---       #38
      00FFA970H   LINE      CODE     ---       #40
      00FFA976H   LINE      CODE     ---       #42
      00FFA97FH   LINE      CODE     ---       #44
      00FFA99EH   LINE      CODE     ---       #45
      00FFA9A0H   LINE      CODE     ---       #48
      00FFA9B3H   LINE      CODE     ---       #49
      00FFA9B3H   LINE      CODE     ---       #50
      00FFA9B5H   LINE      CODE     ---       #53
      00FFA9BEH   LINE      CODE     ---       #55
      00FFA9DDH   LINE      CODE     ---       #56
      00FFA9DFH   LINE      CODE     ---       #59
      00FFA9F2H   LINE      CODE     ---       #60
      00FFA9F2H   LINE      CODE     ---       #61
      00FFA9F2H   LINE      CODE     ---       #62
      ---         BLOCKEND  ---      ---       LVL=0

      00FF8B63H   BLOCK     CODE     ---       LVL=0
      00FF8B63H   LINE      CODE     ---       #64
      00FF8B63H   LINE      CODE     ---       #66
      00FF8B6BH   LINE      CODE     ---       #68
L251 LINKER/LOCATER V4.66.93.0                                                        10/23/2025  22:33:42  PAGE 130


      00FF8BA0H   LINE      CODE     ---       #69
      00FF8C1FH   LINE      CODE     ---       #71
      00FF8C85H   LINE      CODE     ---       #72
      00FF8C97H   LINE      CODE     ---       #74
      ---         BLOCKEND  ---      ---       LVL=0

      00FFAB69H   BLOCK     CODE     ---       LVL=0
      00FFAB69H   LINE      CODE     ---       #75
      00FFAB69H   LINE      CODE     ---       #77
      00FFAB95H   LINE      CODE     ---       #79
      00FFABA8H   LINE      CODE     ---       #80
      00FFABBBH   LINE      CODE     ---       #81
      00FFABCEH   LINE      CODE     ---       #82
      00FFABDFH   LINE      CODE     ---       #83
      00FFABDFH   LINE      CODE     ---       #84
      ---         BLOCKEND  ---      ---       LVL=0

      00FFB7C6H   BLOCK     CODE     ---       LVL=0
      00FFB7C6H   LINE      CODE     ---       #86
      00FFB7C6H   LINE      CODE     ---       #88
      00FFB7CDH   LINE      CODE     ---       #89
      00FFB7D0H   LINE      CODE     ---       #90
      00FFB7D3H   LINE      CODE     ---       #91
      00FFB7D6H   LINE      CODE     ---       #92
      ---         BLOCKEND  ---      ---       LVL=0

      00FF9587H   BLOCK     CODE     ---       LVL=0
      00FF9587H   LINE      CODE     ---       #93
      00FF9589H   LINE      CODE     ---       #95
      00FF958FH   LINE      CODE     ---       #97
      00FF9598H   LINE      CODE     ---       #99
      00FF959EH   LINE      CODE     ---       #100
      00FF959EH   LINE      CODE     ---       #101
      00FF95A7H   LINE      CODE     ---       #103
      00FF95C6H   LINE      CODE     ---       #104
      00FF95C8H   LINE      CODE     ---       #107
      00FF95D7H   LINE      CODE     ---       #108
      00FF95E6H   LINE      CODE     ---       #109
      00FF95F5H   LINE      CODE     ---       #110
      00FF95FCH   LINE      CODE     ---       #111
      00FF95FFH   LINE      CODE     ---       #112
      00FF95FFH   LINE      CODE     ---       #113
      00FF9602H   LINE      CODE     ---       #114
      00FF9604H   LINE      CODE     ---       #115
      00FF960BH   LINE      CODE     ---       #117
      00FF9654H   LINE      CODE     ---       #118
      00FF965AH   LINE      CODE     ---       #119
      00FF965DH   LINE      CODE     ---       #120
      00FF9660H   LINE      CODE     ---       #121
      ---         BLOCKEND  ---      ---       LVL=0

      00FFB2D1H   BLOCK     CODE     ---       LVL=0
      00FFB2D1H   LINE      CODE     ---       #124
      00FFB2D1H   LINE      CODE     ---       #126
      00FFB2EBH   LINE      CODE     ---       #127
      00FFB300H   LINE      CODE     ---       #129
      00FFB310H   LINE      CODE     ---       #130
      00FFB310H   LINE      CODE     ---       #131
      00FFB313H   LINE      CODE     ---       #133
      ---         BLOCKEND  ---      ---       LVL=0

      00FFB081H   BLOCK     CODE     ---       LVL=0
      00FFB081H   LINE      CODE     ---       #135
      00FFB081H   LINE      CODE     ---       #137
      00FFB09BH   LINE      CODE     ---       #138
L251 LINKER/LOCATER V4.66.93.0                                                        10/23/2025  22:33:42  PAGE 131


      00FFB0BDH   LINE      CODE     ---       #140
      00FFB0CFH   LINE      CODE     ---       #141
      00FFB0CFH   LINE      CODE     ---       #142
      00FFB0D2H   LINE      CODE     ---       #143
      ---         BLOCKEND  ---      ---       LVL=0

      00FF99B1H   BLOCK     CODE     ---       LVL=0
      00FF99B1H   LINE      CODE     ---       #144
      00FF99B3H   LINE      CODE     ---       #146
      00FF99BAH   LINE      CODE     ---       #148
      00FF9A03H   LINE      CODE     ---       #149
      00FF9A09H   LINE      CODE     ---       #150
      00FF9A0CH   LINE      CODE     ---       #151
      00FF9A0EH   LINE      CODE     ---       #152
      00FF9A14H   LINE      CODE     ---       #154
      00FF9A1DH   LINE      CODE     ---       #156
      00FF9A23H   LINE      CODE     ---       #157
      00FF9A23H   LINE      CODE     ---       #158
      00FF9A2CH   LINE      CODE     ---       #160
      00FF9A35H   LINE      CODE     ---       #161
      00FF9A3AH   LINE      CODE     ---       #162
      00FF9A57H   LINE      CODE     ---       #163
      00FF9A59H   LINE      CODE     ---       #166
      00FF9A68H   LINE      CODE     ---       #167
      00FF9A6FH   LINE      CODE     ---       #168
      00FF9A72H   LINE      CODE     ---       #169
      00FF9A72H   LINE      CODE     ---       #170
      00FF9A75H   LINE      CODE     ---       #171
      ---         BLOCKEND  ---      ---       LVL=0

      00FF00A6H   BLOCK     CODE     ---       LVL=0
      00FF00A6H   LINE      CODE     ---       #173
      00FF00A6H   LINE      CODE     ---       #175
      00FF00ACH   LINE      CODE     ---       #178
      00FF00B7H   LINE      CODE     ---       #180
      00FF00BCH   LINE      CODE     ---       #181
      00FF00BFH   LINE      CODE     ---       #182
      00FF00BFH   LINE      CODE     ---       #183
      00FF00BFH   LINE      CODE     ---       #184
      ---         BLOCKEND  ---      ---       LVL=0

      00FF019EH   BLOCK     CODE     ---       LVL=0
      00FF019EH   LINE      CODE     ---       #185
      00FF019EH   LINE      CODE     ---       #187
      00FF01A4H   LINE      CODE     ---       #188
      00FF01A7H   LINE      CODE     ---       #189
      ---         BLOCKEND  ---      ---       LVL=0

      00FF98E3H   BLOCK     CODE     ---       LVL=0
      00FF98E3H   LINE      CODE     ---       #190
      00FF98E3H   LINE      CODE     ---       #192
      00FF98E9H   LINE      CODE     ---       #195
      00FF98EEH   LINE      CODE     ---       #196
      00FF98EEH   LINE      CODE     ---       #197
      00FF9910H   LINE      CODE     ---       #199
      00FF9938H   LINE      CODE     ---       #200
      00FF993EH   LINE      CODE     ---       #201
      00FF9943H   LINE      CODE     ---       #202
      00FF994DH   LINE      CODE     ---       #203
      00FF9950H   LINE      CODE     ---       #204
      00FF9952H   LINE      CODE     ---       #205
      00FF996FH   LINE      CODE     ---       #207
      00FF998BH   LINE      CODE     ---       #208
      00FF9991H   LINE      CODE     ---       #209
      00FF9996H   LINE      CODE     ---       #210
L251 LINKER/LOCATER V4.66.93.0                                                        10/23/2025  22:33:42  PAGE 132


      00FF99A0H   LINE      CODE     ---       #211
      00FF99A3H   LINE      CODE     ---       #212
      00FF99A3H   LINE      CODE     ---       #213
      00FF99ADH   LINE      CODE     ---       #214
      00FF99B0H   LINE      CODE     ---       #215
      ---         BLOCKEND  ---      ---       LVL=0

      00FFB67FH   BLOCK     CODE     ---       LVL=0
      R7          REGSYM    ---      BYTE      Flag_Key
      00FFB67FH   LINE      CODE     ---       #221
      00FFB681H   LINE      CODE     ---       #224
      00FFB695H   LINE      CODE     ---       #226
      00FFB69AH   LINE      CODE     ---       #227
      00FFB69FH   LINE      CODE     ---       #228
      00FFB6A4H   LINE      CODE     ---       #229
      00FFB6A9H   LINE      CODE     ---       #230
      00FFB6ACH   LINE      CODE     ---       #231
      00FFB6ACH   LINE      CODE     ---       #232
      ---         BLOCKEND  ---      ---       LVL=0

      00FFAA74H   BLOCK     CODE     ---       LVL=0
      00FFAA74H   LINE      CODE     ---       #237
      00FFAA74H   LINE      CODE     ---       #239
      00FFAA87H   LINE      CODE     ---       #240
      00FFAA9AH   LINE      CODE     ---       #241
      00FFAAADH   LINE      CODE     ---       #242
      00FFAAC0H   LINE      CODE     ---       #243
      00FFAAD3H   LINE      CODE     ---       #244
      00FFAAE6H   LINE      CODE     ---       #245
      00FFAAE9H   LINE      CODE     ---       #246
      00FFAAECH   LINE      CODE     ---       #247
      00FFAAEFH   LINE      CODE     ---       #249
      ---         BLOCKEND  ---      ---       LVL=0

      ---         MODULE    ---      ---       menu_font
      00010000H   PUBLIC    XDATA    ---       Page
      0001078CH   PUBLIC    XDATA    ---       Pin
      00010790H   PUBLIC    XDATA    ---       Num
      00010A00H   PUBLIC    XDATA    WORD      ADC_1
      00010A02H   PUBLIC    XDATA    WORD      ADC_2
      00010A04H   PUBLIC    XDATA    WORD      ADC_3
      00010A06H   PUBLIC    XDATA    WORD      ADC_4
      00010A08H   PUBLIC    XDATA    WORD      ADC_5
      00010A0AH   PUBLIC    XDATA    WORD      ADC_6
      00010A0CH   PUBLIC    XDATA    ---       Page0_children
      00010A1AH   PUBLIC    XDATA    ---       Page1_children
      00010A28H   PUBLIC    XDATA    WORD      ADC_8
      00010A2AH   PUBLIC    XDATA    ---       Page2_children
      00010A38H   PUBLIC    XDATA    ---       Page3_children
      00010A46H   PUBLIC    XDATA    ---       Page4_children
      00010A54H   PUBLIC    XDATA    ---       Page5_children
      000000D0H   SFRSYM    DATA     BYTE      PSW
      0000009DH   SFRSYM    DATA     BYTE      IRCBAND
      00000097H   SFRSYM    DATA     BYTE      AUXR2
      000000EFH   SFRSYM    DATA     BYTE      AUXINTIF
      000000FDH   SFRSYM    DATA     BYTE      S4CON
      000000ACH   SFRSYM    DATA     BYTE      S3CON
      0000009AH   SFRSYM    DATA     BYTE      S2CON
      000000B7H   SFRSYM    DATA     BYTE      IPH
      000000CDH   SFRSYM    DATA     BYTE      SPSTAT
      000000DDH   SFRSYM    DATA     BYTE      T4T3M
      000000C1H   SFRSYM    DATA     BYTE      WDT_CONTR
      000000DFH   SFRSYM    DATA     BYTE      IP3
      000000F4H   SFRSYM    DATA     BYTE      USBCON
      000000B5H   SFRSYM    DATA     BYTE      IP2
L251 LINKER/LOCATER V4.66.93.0                                                        10/23/2025  22:33:42  PAGE 133


      000000FFH   SFRSYM    DATA     BYTE      RSTCFG
      000000C7H   SFRSYM    DATA     BYTE      IAP_CONTR
      0000008EH   SFRSYM    DATA     BYTE      AUXR
      000000AFH   SFRSYM    DATA     BYTE      IE2
      00000088H   SFRSYM    DATA     BYTE      TCON
      00000089H   SFRSYM    DATA     BYTE      TMOD
      00000098H   SFRSYM    DATA     BYTE      SCON
      00000087H   SFRSYM    DATA     BYTE      PCON
      000000BCH   SFRSYM    DATA     BYTE      ADC_CONTR
      000000D1H   SFRSYM    DATA     BYTE      PSW1
      000000E7H   SFRSYM    DATA     BYTE      CMPCR2
      000000E6H   SFRSYM    DATA     BYTE      CMPCR1
      000000DEH   SFRSYM    DATA     BYTE      ADCCFG
      000000B8H   SFRSYM    DATA     BYTE      IP
      0000008FH   SFRSYM    DATA     BYTE      INTCLKO
      000000EEH   SFRSYM    DATA     BYTE      IP3H
      000000B6H   SFRSYM    DATA     BYTE      IP2H
      000000BFH   SFRSYM    DATA     BYTE      P_SW4
      000000A8H   SFRSYM    DATA     BYTE      IE
      000000BBH   SFRSYM    DATA     BYTE      P_SW3
      000000BAH   SFRSYM    DATA     BYTE      P_SW2
      000000A2H   SFRSYM    DATA     BYTE      P_SW1
      000000CEH   SFRSYM    DATA     BYTE      SPCTL
      000000F8H   SFRSYM    DATA     BYTE      P7
      000000E8H   SFRSYM    DATA     BYTE      P6
      000000C8H   SFRSYM    DATA     BYTE      P5
      000000C0H   SFRSYM    DATA     BYTE      P4
      000000ABH   SFRSYM    DATA     BYTE      WKTCH
      000000B0H   SFRSYM    DATA     BYTE      P3
      000000A0H   SFRSYM    DATA     BYTE      P2
      00000090H   SFRSYM    DATA     BYTE      P1
      00000080H   SFRSYM    DATA     BYTE      P0

      ---         MODULE    ---      ---       Device_Test
      00FFB02BH   PUBLIC    CODE     ---       Serve_Test
      00FFB770H   PUBLIC    CODE     ---       Set_Sevo
      00FFB5EEH   PUBLIC    CODE     ---       PWM_Test
      000000D0H   SFRSYM    DATA     BYTE      PSW
      0000009DH   SFRSYM    DATA     BYTE      IRCBAND
      00000097H   SFRSYM    DATA     BYTE      AUXR2
      000000EFH   SFRSYM    DATA     BYTE      AUXINTIF
      000000FDH   SFRSYM    DATA     BYTE      S4CON
      000000ACH   SFRSYM    DATA     BYTE      S3CON
      0000009AH   SFRSYM    DATA     BYTE      S2CON
      000000B7H   SFRSYM    DATA     BYTE      IPH
      000000CDH   SFRSYM    DATA     BYTE      SPSTAT
      000000DDH   SFRSYM    DATA     BYTE      T4T3M
      000000C1H   SFRSYM    DATA     BYTE      WDT_CONTR
      000000DFH   SFRSYM    DATA     BYTE      IP3
      000000F4H   SFRSYM    DATA     BYTE      USBCON
      000000B5H   SFRSYM    DATA     BYTE      IP2
      000000FFH   SFRSYM    DATA     BYTE      RSTCFG
      000000C7H   SFRSYM    DATA     BYTE      IAP_CONTR
      0000008EH   SFRSYM    DATA     BYTE      AUXR
      000000AFH   SFRSYM    DATA     BYTE      IE2
      00000088H   SFRSYM    DATA     BYTE      TCON
      00000089H   SFRSYM    DATA     BYTE      TMOD
      00000098H   SFRSYM    DATA     BYTE      SCON
      00000087H   SFRSYM    DATA     BYTE      PCON
      000000BCH   SFRSYM    DATA     BYTE      ADC_CONTR
      000000D1H   SFRSYM    DATA     BYTE      PSW1
      000000E7H   SFRSYM    DATA     BYTE      CMPCR2
      000000E6H   SFRSYM    DATA     BYTE      CMPCR1
      000000DEH   SFRSYM    DATA     BYTE      ADCCFG
      000000B8H   SFRSYM    DATA     BYTE      IP
L251 LINKER/LOCATER V4.66.93.0                                                        10/23/2025  22:33:42  PAGE 134


      0000008FH   SFRSYM    DATA     BYTE      INTCLKO
      000000EEH   SFRSYM    DATA     BYTE      IP3H
      000000B6H   SFRSYM    DATA     BYTE      IP2H
      000000BFH   SFRSYM    DATA     BYTE      P_SW4
      000000A8H   SFRSYM    DATA     BYTE      IE
      000000BBH   SFRSYM    DATA     BYTE      P_SW3
      000000BAH   SFRSYM    DATA     BYTE      P_SW2
      000000A2H   SFRSYM    DATA     BYTE      P_SW1
      000000CEH   SFRSYM    DATA     BYTE      SPCTL
      000000F8H   SFRSYM    DATA     BYTE      P7
      000000E8H   SFRSYM    DATA     BYTE      P6
      000000C8H   SFRSYM    DATA     BYTE      P5
      000000C0H   SFRSYM    DATA     BYTE      P4
      000000ABH   SFRSYM    DATA     BYTE      WKTCH
      000000B0H   SFRSYM    DATA     BYTE      P3
      000000A0H   SFRSYM    DATA     BYTE      P2
      00000090H   SFRSYM    DATA     BYTE      P1
      00000080H   SFRSYM    DATA     BYTE      P0

      00FFB02BH   BLOCK     CODE     ---       LVL=0
      00FFB02DH   BLOCK     CODE     NEAR LAB  LVL=1
      R14         REGSYM    ---      BYTE      a
      R15         REGSYM    ---      BYTE      j
      ---         BLOCKEND  ---      ---       LVL=1
      00FFB02BH   LINE      CODE     ---       #3
      00FFB02DH   LINE      CODE     ---       #4
      00FFB02DH   LINE      CODE     ---       #8
      00FFB031H   LINE      CODE     ---       #10
      00FFB035H   LINE      CODE     ---       #12
      00FFB03EH   LINE      CODE     ---       #13
      00FFB045H   LINE      CODE     ---       #14
      00FFB053H   LINE      CODE     ---       #16
      00FFB057H   LINE      CODE     ---       #18
      00FFB062H   LINE      CODE     ---       #19
      00FFB069H   LINE      CODE     ---       #20
      00FFB077H   LINE      CODE     ---       #22
      00FFB07EH   LINE      CODE     ---       #23
      ---         BLOCKEND  ---      ---       LVL=0

      00FFB5EEH   BLOCK     CODE     ---       LVL=0
      00FFB5EEH   LINE      CODE     ---       #25
      00FFB5EEH   LINE      CODE     ---       #27
      00FFB607H   LINE      CODE     ---       #28
      00FFB620H   LINE      CODE     ---       #29
      ---         BLOCKEND  ---      ---       LVL=0

      00FFB770H   BLOCK     CODE     ---       LVL=0
      00FFB770H   LINE      CODE     ---       #31
      00FFB770H   LINE      CODE     ---       #33
      00FFB789H   LINE      CODE     ---       #34
      ---         BLOCKEND  ---      ---       LVL=0

      ---         MODULE    ---      ---       oled
      00FF3940H   PUBLIC    CODE     ---       asc2_0806
      00FF3B68H   PUBLIC    CODE     ---       asc2_1608
      00FF4158H   PUBLIC    CODE     ---       Hzk
      000000D0H   SFRSYM    DATA     BYTE      PSW
      0000009DH   SFRSYM    DATA     BYTE      IRCBAND
      00000097H   SFRSYM    DATA     BYTE      AUXR2
      000000EFH   SFRSYM    DATA     BYTE      AUXINTIF
      000000FDH   SFRSYM    DATA     BYTE      S4CON
      000000ACH   SFRSYM    DATA     BYTE      S3CON
      0000009AH   SFRSYM    DATA     BYTE      S2CON
      000000B7H   SFRSYM    DATA     BYTE      IPH
      000000CDH   SFRSYM    DATA     BYTE      SPSTAT
L251 LINKER/LOCATER V4.66.93.0                                                        10/23/2025  22:33:42  PAGE 135


      000000DDH   SFRSYM    DATA     BYTE      T4T3M
      000000C1H   SFRSYM    DATA     BYTE      WDT_CONTR
      000000DFH   SFRSYM    DATA     BYTE      IP3
      000000F4H   SFRSYM    DATA     BYTE      USBCON
      000000B5H   SFRSYM    DATA     BYTE      IP2
      000000FFH   SFRSYM    DATA     BYTE      RSTCFG
      000000C7H   SFRSYM    DATA     BYTE      IAP_CONTR
      0000008EH   SFRSYM    DATA     BYTE      AUXR
      000000AFH   SFRSYM    DATA     BYTE      IE2
      00000088H   SFRSYM    DATA     BYTE      TCON
      00000089H   SFRSYM    DATA     BYTE      TMOD
      00000098H   SFRSYM    DATA     BYTE      SCON
      00000087H   SFRSYM    DATA     BYTE      PCON
      000000BCH   SFRSYM    DATA     BYTE      ADC_CONTR
      000000D1H   SFRSYM    DATA     BYTE      PSW1
      000000E7H   SFRSYM    DATA     BYTE      CMPCR2
      000000E6H   SFRSYM    DATA     BYTE      CMPCR1
      000000DEH   SFRSYM    DATA     BYTE      ADCCFG
      000000B8H   SFRSYM    DATA     BYTE      IP
      0000008FH   SFRSYM    DATA     BYTE      INTCLKO
      000000EEH   SFRSYM    DATA     BYTE      IP3H
      000000B6H   SFRSYM    DATA     BYTE      IP2H
      000000BFH   SFRSYM    DATA     BYTE      P_SW4
      000000A8H   SFRSYM    DATA     BYTE      IE
      000000BBH   SFRSYM    DATA     BYTE      P_SW3
      000000BAH   SFRSYM    DATA     BYTE      P_SW2
      000000A2H   SFRSYM    DATA     BYTE      P_SW1
      000000CEH   SFRSYM    DATA     BYTE      SPCTL
      000000F8H   SFRSYM    DATA     BYTE      P7
      000000E8H   SFRSYM    DATA     BYTE      P6
      000000C8H   SFRSYM    DATA     BYTE      P5
      000000C0H   SFRSYM    DATA     BYTE      P4
      000000ABH   SFRSYM    DATA     BYTE      WKTCH
      000000B0H   SFRSYM    DATA     BYTE      P3
      000000A0H   SFRSYM    DATA     BYTE      P2
      00000090H   SFRSYM    DATA     BYTE      P1
      00000080H   SFRSYM    DATA     BYTE      P0
      WR2         REGSYM    ---      WORD      ms
      WR0         REGSYM    ---      WORD      a
      R15         REGSYM    ---      BYTE      i
      R15         REGSYM    ---      BYTE      i
      R15         REGSYM    ---      BYTE      dat
      R10         REGSYM    ---      BYTE      cmd
      R14         REGSYM    ---      BYTE      i
      R15         REGSYM    ---      BYTE      x
      R10         REGSYM    ---      BYTE      y
      R15         REGSYM    ---      BYTE      i
      R14         REGSYM    ---      BYTE      n
      R13         REGSYM    ---      BYTE      x
      R14         REGSYM    ---      BYTE      y
      R3          REGSYM    ---      BYTE      chr
      R15         REGSYM    ---      BYTE      sizey
      R12         REGSYM    ---      BYTE      facial
      R3          REGSYM    ---      BYTE      m
      R10         REGSYM    ---      BYTE      n
      WR6         REGSYM    ---      WORD      result
      WR14        REGSYM    ---      WORD      num
      R12         REGSYM    ---      BYTE      len
      R13         REGSYM    ---      BYTE      sizey
      REG=3       REGSYM    ---      ---       chr
      R12         REGSYM    ---      BYTE      x
      R13         REGSYM    ---      BYTE      y
      R14         REGSYM    ---      BYTE      no
      R15         REGSYM    ---      BYTE      sizey

L251 LINKER/LOCATER V4.66.93.0                                                        10/23/2025  22:33:42  PAGE 136


      ---         MODULE    ---      ---       Strategy
      00FF9113H   PUBLIC    CODE     ---       if_Cycle
      00FF6BB2H   PUBLIC    CODE     ---       State_of_road
      00FF7468H   PUBLIC    CODE     ---       Help_turn2
      000111E4H   PUBLIC    XDATA    WORD      Long_Time
      000111E6H   PUBLIC    XDATA    WORD      Short_Time
      000111E8H   PUBLIC    XDATA    BYTE      Road_Stat
      000111E9H   PUBLIC    XDATA    INT       Wait_Time
      000111EBH   PUBLIC    XDATA    WORD      Entern_Continue_Time
      000111EDH   PUBLIC    XDATA    WORD      if2_time
      000111EFH   PUBLIC    XDATA    INT       turn_Value
      000111F1H   PUBLIC    XDATA    WORD      Entern_Delay_Time
      000111F3H   PUBLIC    XDATA    WORD      SLOW_Time
      000111F5H   PUBLIC    XDATA    WORD      Continue_Time
      000111F7H   PUBLIC    XDATA    WORD      Entern_Flag_Time
      000111F9H   PUBLIC    XDATA    BYTE      Enter_Flag_Left
      000111FAH   PUBLIC    XDATA    WORD      Accel_Time
      000111FCH   PUBLIC    XDATA    WORD      if_time
      000111FEH   PUBLIC    XDATA    INT       Mode_Flag
      00011200H   PUBLIC    XDATA    WORD      Bend_Time
      00011202H   PUBLIC    XDATA    BYTE      Cycle_Stat
      000000D0H   SFRSYM    DATA     BYTE      PSW
      0000009DH   SFRSYM    DATA     BYTE      IRCBAND
      00000097H   SFRSYM    DATA     BYTE      AUXR2
      000000EFH   SFRSYM    DATA     BYTE      AUXINTIF
      000000FDH   SFRSYM    DATA     BYTE      S4CON
      000000ACH   SFRSYM    DATA     BYTE      S3CON
      0000009AH   SFRSYM    DATA     BYTE      S2CON
      000000B7H   SFRSYM    DATA     BYTE      IPH
      000000CDH   SFRSYM    DATA     BYTE      SPSTAT
      000000DDH   SFRSYM    DATA     BYTE      T4T3M
      000000C1H   SFRSYM    DATA     BYTE      WDT_CONTR
      000000DFH   SFRSYM    DATA     BYTE      IP3
      000000F4H   SFRSYM    DATA     BYTE      USBCON
      000000B5H   SFRSYM    DATA     BYTE      IP2
      000000FFH   SFRSYM    DATA     BYTE      RSTCFG
      000000C7H   SFRSYM    DATA     BYTE      IAP_CONTR
      0000008EH   SFRSYM    DATA     BYTE      AUXR
      000000AFH   SFRSYM    DATA     BYTE      IE2
      00000088H   SFRSYM    DATA     BYTE      TCON
      00000089H   SFRSYM    DATA     BYTE      TMOD
      00000098H   SFRSYM    DATA     BYTE      SCON
      00000087H   SFRSYM    DATA     BYTE      PCON
      000000BCH   SFRSYM    DATA     BYTE      ADC_CONTR
      000000D1H   SFRSYM    DATA     BYTE      PSW1
      000000E7H   SFRSYM    DATA     BYTE      CMPCR2
      000000E6H   SFRSYM    DATA     BYTE      CMPCR1
      000000DEH   SFRSYM    DATA     BYTE      ADCCFG
      000000B8H   SFRSYM    DATA     BYTE      IP
      0000008FH   SFRSYM    DATA     BYTE      INTCLKO
      000000EEH   SFRSYM    DATA     BYTE      IP3H
      000000B6H   SFRSYM    DATA     BYTE      IP2H
      000000BFH   SFRSYM    DATA     BYTE      P_SW4
      000000A8H   SFRSYM    DATA     BYTE      IE
      000000BBH   SFRSYM    DATA     BYTE      P_SW3
      000000BAH   SFRSYM    DATA     BYTE      P_SW2
      000000A2H   SFRSYM    DATA     BYTE      P_SW1
      000000CEH   SFRSYM    DATA     BYTE      SPCTL
      000000F8H   SFRSYM    DATA     BYTE      P7
      000000E8H   SFRSYM    DATA     BYTE      P6
      000000C8H   SFRSYM    DATA     BYTE      P5
      000000C0H   SFRSYM    DATA     BYTE      P4
      000000ABH   SFRSYM    DATA     BYTE      WKTCH
      000000B0H   SFRSYM    DATA     BYTE      P3
      000000A0H   SFRSYM    DATA     BYTE      P2
L251 LINKER/LOCATER V4.66.93.0                                                        10/23/2025  22:33:42  PAGE 137


      00000090H   SFRSYM    DATA     BYTE      P1
      00000080H   SFRSYM    DATA     BYTE      P0

      00FF9113H   BLOCK     CODE     ---       LVL=0
      00FF9113H   LINE      CODE     ---       #26
      00FF9113H   LINE      CODE     ---       #28
      00FF911FH   LINE      CODE     ---       #30
      00FF912AH   LINE      CODE     ---       #31
      00FF912DH   LINE      CODE     ---       #32
      00FF912DH   LINE      CODE     ---       #35
      00FF9142H   LINE      CODE     ---       #37
      00FF9142H   LINE      CODE     ---       #40
      00FF915AH   LINE      CODE     ---       #42
      00FF9165H   LINE      CODE     ---       #43
      00FF9178H   LINE      CODE     ---       #45
      00FF917DH   LINE      CODE     ---       #46
      00FF9185H   LINE      CODE     ---       #47
      00FF9187H   LINE      CODE     ---       #51
      00FF918FH   LINE      CODE     ---       #52
      00FF918FH   LINE      CODE     ---       #53
      00FF9191H   LINE      CODE     ---       #55
      00FF9191H   LINE      CODE     ---       #57
      00FF919CH   LINE      CODE     ---       #58
      00FF91ACH   LINE      CODE     ---       #60
      00FF91B2H   LINE      CODE     ---       #61
      00FF91BAH   LINE      CODE     ---       #62
      00FF91BAH   LINE      CODE     ---       #63
      00FF91BCH   LINE      CODE     ---       #65
      00FF91BCH   LINE      CODE     ---       #67
      00FF91C2H   LINE      CODE     ---       #68
      00FF91C5H   LINE      CODE     ---       #69
      00FF91D0H   LINE      CODE     ---       #70
      00FF91E0H   LINE      CODE     ---       #72
      00FF91E6H   LINE      CODE     ---       #73
      00FF91F0H   LINE      CODE     ---       #74
      00FF91F8H   LINE      CODE     ---       #75
      00FF91FDH   LINE      CODE     ---       #76
      00FF9200H   LINE      CODE     ---       #77
      00FF9200H   LINE      CODE     ---       #78
      00FF9202H   LINE      CODE     ---       #80
      00FF9202H   LINE      CODE     ---       #82
      00FF9205H   LINE      CODE     ---       #83
      00FF9205H   LINE      CODE     ---       #85
      00FF9205H   LINE      CODE     ---       #86
      00FF9205H   LINE      CODE     ---       #88
      ---         BLOCKEND  ---      ---       LVL=0
      WR2         REGSYM    ---      INT       left
      WR4         REGSYM    ---      INT       right

      00FF7468H   BLOCK     CODE     ---       LVL=0
      WR14        REGSYM    ---      INT       temp
      WR2         REGSYM    ---      INT       value
      WR0         REGSYM    ---      INT       ADC_Flag
      00FF7470H   BLOCK     CODE     NEAR LAB  LVL=1
      00011203H   SYMBOL    XDATA    INT       last_dir
      00011205H   SYMBOL    XDATA    INT       first_double
      WR24        REGSYM    ---      INT       left
      WR6         REGSYM    ---      INT       right
      WR26        REGSYM    ---      INT       target
      00011207H   SYMBOL    XDATA    FLOAT     smooth_temp
      WR10        REGSYM    ---      INT       delta
      0001100AH   SYMBOL    XDATA    FLOAT     smooth
      ---         BLOCKEND  ---      ---       LVL=1
      00FF7468H   LINE      CODE     ---       #115
      00FF7470H   LINE      CODE     ---       #116
L251 LINKER/LOCATER V4.66.93.0                                                        10/23/2025  22:33:42  PAGE 138


      00FF7470H   LINE      CODE     ---       #120
      00FF747EH   LINE      CODE     ---       #121
      00FF748CH   LINE      CODE     ---       #122
      00FF748EH   LINE      CODE     ---       #125
      00FF7492H   LINE      CODE     ---       #126
      00FF74A4H   LINE      CODE     ---       #127
      00FF74AFH   LINE      CODE     ---       #129
      00FF74BDH   LINE      CODE     ---       #131
      00FF74C7H   LINE      CODE     ---       #133
      00FF74CBH   LINE      CODE     ---       #135
      00FF74CFH   LINE      CODE     ---       #136
      00FF74D9H   LINE      CODE     ---       #137
      00FF74DBH   LINE      CODE     ---       #140
      00FF74DDH   LINE      CODE     ---       #141
      00FF74E7H   LINE      CODE     ---       #142
      00FF74E7H   LINE      CODE     ---       #143
      00FF74EFH   LINE      CODE     ---       #144
      00FF74F2H   LINE      CODE     ---       #147
      00FF750AH   LINE      CODE     ---       #150
      00FF751CH   LINE      CODE     ---       #151
      00FF752CH   LINE      CODE     ---       #152
      00FF752EH   LINE      CODE     ---       #153
      00FF7530H   LINE      CODE     ---       #154
      00FF7534H   LINE      CODE     ---       #156
      00FF7538H   LINE      CODE     ---       #157
      00FF7542H   LINE      CODE     ---       #158
      00FF7544H   LINE      CODE     ---       #161
      00FF7546H   LINE      CODE     ---       #162
      00FF7550H   LINE      CODE     ---       #163
      00FF7550H   LINE      CODE     ---       #164
      00FF7550H   LINE      CODE     ---       #165
      00FF7552H   LINE      CODE     ---       #166
      00FF7556H   LINE      CODE     ---       #168
      00FF755AH   LINE      CODE     ---       #169
      00FF7564H   LINE      CODE     ---       #170
      00FF756EH   LINE      CODE     ---       #171
      00FF7570H   LINE      CODE     ---       #174
      00FF7572H   LINE      CODE     ---       #175
      00FF757CH   LINE      CODE     ---       #176
      00FF7586H   LINE      CODE     ---       #177
      00FF7586H   LINE      CODE     ---       #178
      00FF75CBH   LINE      CODE     ---       #179
      00FF75F0H   LINE      CODE     ---       #180
      00FF75F3H   LINE      CODE     ---       #183
      00FF764EH   LINE      CODE     ---       #185
      00FF765FH   LINE      CODE     ---       #186
      00FF7670H   LINE      CODE     ---       #187
      00FF7672H   LINE      CODE     ---       #190
      00FF76B7H   LINE      CODE     ---       #191
      00FF76DCH   LINE      CODE     ---       #192
      00FF76DCH   LINE      CODE     ---       #193
      00FF76DCH   LINE      CODE     ---       #194
      ---         BLOCKEND  ---      ---       LVL=0
      REG=7       REGSYM    ---      ---       temp
      WR24        REGSYM    ---      INT       value
      WR26        REGSYM    ---      INT       value2
      0001120BH   SYMBOL    XDATA    INT       last_dir
      0001120DH   SYMBOL    XDATA    INT       first_double
      WR16        REGSYM    ---      INT       left
      WR18        REGSYM    ---      INT       right
      DR20        REGSYM    ---      FLOAT     K
      WR6         REGSYM    ---      INT       delta
      WR8         REGSYM    ---      INT       temp
      WR10        REGSYM    ---      INT       value
      WR2         REGSYM    ---      INT       value2
L251 LINKER/LOCATER V4.66.93.0                                                        10/23/2025  22:33:42  PAGE 139


      WR0         REGSYM    ---      INT       ADC_Flag
      WR30        REGSYM    ---      INT       left
      WR4         REGSYM    ---      INT       right

      00FF6BB2H   BLOCK     CODE     ---       LVL=0
      00FF6BB2H   LINE      CODE     ---       #333
      00FF6BB2H   LINE      CODE     ---       #335
      00FF6BCFH   LINE      CODE     ---       #337
      00FF6BCFH   LINE      CODE     ---       #339
      00FF6BDCH   LINE      CODE     ---       #340
      00FF6C0EH   LINE      CODE     ---       #342
      00FF6C19H   LINE      CODE     ---       #343
      00FF6C21H   LINE      CODE     ---       #344
      00FF6C3AH   LINE      CODE     ---       #346
      00FF6C42H   LINE      CODE     ---       #347
      00FF6C48H   LINE      CODE     ---       #348
      00FF6C4AH   LINE      CODE     ---       #352
      00FF6C52H   LINE      CODE     ---       #353
      00FF6C5DH   LINE      CODE     ---       #355
      00FF6C76H   LINE      CODE     ---       #357
      00FF6C7EH   LINE      CODE     ---       #358
      00FF6C84H   LINE      CODE     ---       #359
      00FF6C84H   LINE      CODE     ---       #361
      00FF6C84H   LINE      CODE     ---       #362
      00FF6C94H   LINE      CODE     ---       #363
      00FF6C94H   LINE      CODE     ---       #365
      00FF6C94H   LINE      CODE     ---       #367
      00FF6CA1H   LINE      CODE     ---       #368
      00FF6CACH   LINE      CODE     ---       #369
      00FF6CDEH   LINE      CODE     ---       #371
      00FF6CE9H   LINE      CODE     ---       #372
      00FF6D02H   LINE      CODE     ---       #374
      00FF6D0EH   LINE      CODE     ---       #376
      00FF6D14H   LINE      CODE     ---       #377
      00FF6D1CH   LINE      CODE     ---       #378
      00FF6D1EH   LINE      CODE     ---       #381
      00FF6D24H   LINE      CODE     ---       #382
      00FF6D24H   LINE      CODE     ---       #383
      00FF6D2CH   LINE      CODE     ---       #384
      00FF6D34H   LINE      CODE     ---       #385
      00FF6D36H   LINE      CODE     ---       #389
      00FF6D3EH   LINE      CODE     ---       #390
      00FF6D3EH   LINE      CODE     ---       #391
      00FF6D4EH   LINE      CODE     ---       #392
      00FF6D4EH   LINE      CODE     ---       #394
      00FF6D4EH   LINE      CODE     ---       #396
      00FF6D5BH   LINE      CODE     ---       #397
      00FF6D8DH   LINE      CODE     ---       #399
      00FF6D95H   LINE      CODE     ---       #400
      00FF6D97H   LINE      CODE     ---       #403
      00FF6DA2H   LINE      CODE     ---       #404
      00FF6DBBH   LINE      CODE     ---       #406
      00FF6DC3H   LINE      CODE     ---       #407
      00FF6DC8H   LINE      CODE     ---       #408
      00FF6DC8H   LINE      CODE     ---       #410
      00FF6DD8H   LINE      CODE     ---       #411
      00FF6DD8H   LINE      CODE     ---       #413
      00FF6DD8H   LINE      CODE     ---       #415
      00FF6DE3H   LINE      CODE     ---       #416
      00FF6DFCH   LINE      CODE     ---       #418
      00FF6DFFH   LINE      CODE     ---       #419
      00FF6E0CH   LINE      CODE     ---       #420
      00FF6E0EH   LINE      CODE     ---       #423
      00FF6E11H   LINE      CODE     ---       #425
      00FF6E1EH   LINE      CODE     ---       #426
L251 LINKER/LOCATER V4.66.93.0                                                        10/23/2025  22:33:42  PAGE 140


      00FF6E1EH   LINE      CODE     ---       #428
      00FF6E50H   LINE      CODE     ---       #430
      00FF6E5BH   LINE      CODE     ---       #431
      00FF6E74H   LINE      CODE     ---       #433
      00FF6E77H   LINE      CODE     ---       #434
      00FF6E7FH   LINE      CODE     ---       #435
      00FF6E87H   LINE      CODE     ---       #436
      00FF6E8CH   LINE      CODE     ---       #437
      00FF6E8EH   LINE      CODE     ---       #442
      00FF6E96H   LINE      CODE     ---       #443
      00FF6E96H   LINE      CODE     ---       #444
      00FF6EAFH   LINE      CODE     ---       #446
      00FF6EBEH   LINE      CODE     ---       #447
      00FF6EBEH   LINE      CODE     ---       #450
      00FF6ECDH   LINE      CODE     ---       #451
      00FF6ECDH   LINE      CODE     ---       #453
      00FF6ECDH   LINE      CODE     ---       #455
      00FF6ECDH   LINE      CODE     ---       #457
      00FF6ED0H   LINE      CODE     ---       #458
      00FF6ED2H   LINE      CODE     ---       #459
      00FF6ED2H   LINE      CODE     ---       #462
      00FF6ED2H   LINE      CODE     ---       #463
      ---         BLOCKEND  ---      ---       LVL=0

      ---         MODULE    ---      ---       Buzzer
      00FF01AEH   PUBLIC    CODE     ---       Buzzer_ON
      00FF01BEH   PUBLIC    CODE     ---       Buzzer_OFF
      00FFB7D7H   PUBLIC    CODE     ---       Buzzer_Init
      000000D0H   SFRSYM    DATA     BYTE      PSW
      0000009DH   SFRSYM    DATA     BYTE      IRCBAND
      00000097H   SFRSYM    DATA     BYTE      AUXR2
      000000EFH   SFRSYM    DATA     BYTE      AUXINTIF
      000000FDH   SFRSYM    DATA     BYTE      S4CON
      000000ACH   SFRSYM    DATA     BYTE      S3CON
      0000009AH   SFRSYM    DATA     BYTE      S2CON
      000000B7H   SFRSYM    DATA     BYTE      IPH
      000000CDH   SFRSYM    DATA     BYTE      SPSTAT
      000000DDH   SFRSYM    DATA     BYTE      T4T3M
      000000C1H   SFRSYM    DATA     BYTE      WDT_CONTR
      000000DFH   SFRSYM    DATA     BYTE      IP3
      000000F4H   SFRSYM    DATA     BYTE      USBCON
      000000B5H   SFRSYM    DATA     BYTE      IP2
      000000FFH   SFRSYM    DATA     BYTE      RSTCFG
      000000C7H   SFRSYM    DATA     BYTE      IAP_CONTR
      0000008EH   SFRSYM    DATA     BYTE      AUXR
      000000AFH   SFRSYM    DATA     BYTE      IE2
      00000088H   SFRSYM    DATA     BYTE      TCON
      00000089H   SFRSYM    DATA     BYTE      TMOD
      00000098H   SFRSYM    DATA     BYTE      SCON
      00000087H   SFRSYM    DATA     BYTE      PCON
      000000BCH   SFRSYM    DATA     BYTE      ADC_CONTR
      000000D1H   SFRSYM    DATA     BYTE      PSW1
      000000E7H   SFRSYM    DATA     BYTE      CMPCR2
      000000E6H   SFRSYM    DATA     BYTE      CMPCR1
      000000DEH   SFRSYM    DATA     BYTE      ADCCFG
      000000B8H   SFRSYM    DATA     BYTE      IP
      0000008FH   SFRSYM    DATA     BYTE      INTCLKO
      000000EEH   SFRSYM    DATA     BYTE      IP3H
      000000B6H   SFRSYM    DATA     BYTE      IP2H
      000000BFH   SFRSYM    DATA     BYTE      P_SW4
      000000A8H   SFRSYM    DATA     BYTE      IE
      000000BBH   SFRSYM    DATA     BYTE      P_SW3
      000000BAH   SFRSYM    DATA     BYTE      P_SW2
      000000A2H   SFRSYM    DATA     BYTE      P_SW1
      000000CEH   SFRSYM    DATA     BYTE      SPCTL
L251 LINKER/LOCATER V4.66.93.0                                                        10/23/2025  22:33:42  PAGE 141


      000000F8H   SFRSYM    DATA     BYTE      P7
      000000E8H   SFRSYM    DATA     BYTE      P6
      000000C8H   SFRSYM    DATA     BYTE      P5
      000000C0H   SFRSYM    DATA     BYTE      P4
      000000ABH   SFRSYM    DATA     BYTE      WKTCH
      000000B0H   SFRSYM    DATA     BYTE      P3
      000000A0H   SFRSYM    DATA     BYTE      P2
      00000090H   SFRSYM    DATA     BYTE      P1
      00000080H   SFRSYM    DATA     BYTE      P0

      00FFB7D7H   BLOCK     CODE     ---       LVL=0
      00FFB7D7H   LINE      CODE     ---       #2
      00FFB7D7H   LINE      CODE     ---       #4
      00FFB7E7H   LINE      CODE     ---       #5
      ---         BLOCKEND  ---      ---       LVL=0

      00FF01AEH   BLOCK     CODE     ---       LVL=0
      00FF01AEH   LINE      CODE     ---       #6
      00FF01AEH   LINE      CODE     ---       #8
      00FF01B7H   LINE      CODE     ---       #9
      ---         BLOCKEND  ---      ---       LVL=0

      00FF01BEH   BLOCK     CODE     ---       LVL=0
      00FF01BEH   LINE      CODE     ---       #11
      00FF01BEH   LINE      CODE     ---       #13
      00FF01C6H   LINE      CODE     ---       #14
      ---         BLOCKEND  ---      ---       LVL=0

      ---         MODULE    ---      ---       ?C?DPADD
      00FF2225H   PUBLIC    CODE     ---       ?C?DPADD
      00FF2221H   PUBLIC    CODE     ---       ?C?DPSUB

      ---         MODULE    ---      ---       ?C?DPMUL
      00FF2334H   PUBLIC    CODE     ---       ?C?DPMUL

      ---         MODULE    ---      ---       ?C?DPDIV
      00FF2444H   PUBLIC    CODE     ---       ?C?DPDIV

      ---         MODULE    ---      ---       ?C?DPCMP
      00FF24E5H   PUBLIC    CODE     ---       ?C?DPCMP
      00FF24E3H   PUBLIC    CODE     ---       ?C?DPCMP3

      ---         MODULE    ---      ---       ?C?DPNEG
      00FF2544H   PUBLIC    CODE     ---       ?C?DPNEG

      ---         MODULE    ---      ---       ?C?DCAST
      00FF255CH   PUBLIC    CODE     NEAR LAB  ?C?DCASTC
      00FF2557H   PUBLIC    CODE     NEAR LAB  ?C?DCASTI
      00FF2552H   PUBLIC    CODE     NEAR LAB  ?C?DCASTL

      ---         MODULE    ---      ---       ?C?CASTD
      00FF259FH   PUBLIC    CODE     NEAR LAB  ?C?CASTD

      ---         MODULE    ---      ---       ?C?DCASTF
      00FF25FFH   PUBLIC    CODE     NEAR LAB  ?C?DCASTF

      ---         MODULE    ---      ---       ?C?FCASTD
      00FF2641H   PUBLIC    CODE     NEAR LAB  ?C?FCASTD

      ---         MODULE    ---      ---       PRINTF
      00011081H   PUBLIC    XDATA    ---       ?PRINTF?BYTE
      00FF2678H   PUBLIC    CODE     NEAR LAB  PRINTF

      ---         MODULE    ---      ---       SPRINTF
      00011032H   PUBLIC    XDATA    ---       ?SPRINTF?BYTE
L251 LINKER/LOCATER V4.66.93.0                                                        10/23/2025  22:33:42  PAGE 142


      00FF26A4H   PUBLIC    CODE     NEAR LAB  SPRINTF

      ---         MODULE    ---      ---       SQRT?_
      00FF26CAH   PUBLIC    CODE     ---       SQRT?_

      ---         MODULE    ---      ---       pow

      ---         MODULE    ---      ---       SIN?_
      00FF2818H   PUBLIC    CODE     ---       COS?_
      00FF2839H   PUBLIC    CODE     ---       SIN?_
      00FF286EH   PUBLIC    CODE     ---       TAN?_

      ---         MODULE    ---      ---       ATAN?_
      00FF29B0H   PUBLIC    CODE     ---       ATAN?_

      ---         MODULE    ---      ---       ASIN?_
      00FF2ACBH   PUBLIC    CODE     ---       ASIN?_

      ---         MODULE    ---      ---       ?C?DPGETOPN
      00FF2AF5H   PUBLIC    CODE     ---       ?C?DPGETOPN2
      00FF2B40H   PUBLIC    CODE     ---       ?C?DPNANRESULT
      00FF2B4CH   PUBLIC    CODE     ---       ?C?DPOVERFLOW
      00FF2B18H   PUBLIC    CODE     ---       ?C?DPRESULT
      00FF2B31H   PUBLIC    CODE     ---       ?C?DPRESULT2
      00FF2B47H   PUBLIC    CODE     ---       ?C?DPUNDERFLOW

      ---         MODULE    ---      ---       _CHKDOUBLE_?_
      00FF2B5AH   PUBLIC    CODE     ---       _CHKDOUBLE_?_

      ---         MODULE    ---      ---       ?C?PRNFMT
      00FF2BA5H   PUBLIC    CODE     ---       ?C?PRNFMT

      ---         MODULE    ---      ---       ?C?DPSERIES
      00FF2FD3H   PUBLIC    CODE     ---       ?C?DP2SERIES
      00FF2FDEH   PUBLIC    CODE     ---       ?C?DPSERIES

      ---         MODULE    ---      ---       EXP?_
      00FF30BAH   PUBLIC    CODE     ---       EXP?_

      ---         MODULE    ---      ---       LOG?_
      00FF31A3H   PUBLIC    CODE     NEAR LAB  LOG?_

      ---         MODULE    ---      ---       ?C?DPCONVERT
      00FF32BEH   PUBLIC    CODE     ---       ?C?DPCONVERT
      00FF33E5H   PUBLIC    CODE     ---       ?C?DPROUND

      ---         MODULE    ---      ---       ?C?DTNPWR
      00FF34C0H   PUBLIC    CODE     ---       ?C?DTNPWR

      ---         MODULE    ---      ---       ?C?FPGETOPN
      00FF3546H   PUBLIC    CODE     ---       ?C?FPGETOPN2
      00FF3583H   PUBLIC    CODE     ---       ?C?FPNANRESULT
      00FF358BH   PUBLIC    CODE     ---       ?C?FPOVERFLOW
      00FF355FH   PUBLIC    CODE     ---       ?C?FPRESULT
      00FF3575H   PUBLIC    CODE     ---       ?C?FPRESULT2
      00FF3588H   PUBLIC    CODE     ---       ?C?FPUNDERFLOW

      ---         MODULE    ---      ---       ?C?FPADD
      00FF359DH   PUBLIC    CODE     ---       ?C?FPADD
      00FF359AH   PUBLIC    CODE     ---       ?C?FPSUB

      ---         MODULE    ---      ---       ?C?FPMUL
      00FF3655H   PUBLIC    CODE     ---       ?C?FPMUL

      ---         MODULE    ---      ---       ?C?FPDIV
L251 LINKER/LOCATER V4.66.93.0                                                        10/23/2025  22:33:42  PAGE 143


      00FF36F5H   PUBLIC    CODE     ---       ?C?FPDIV

      ---         MODULE    ---      ---       ?C?FPCMP
      00FF3778H   PUBLIC    CODE     ---       ?C?FPCMP
      00FF3776H   PUBLIC    CODE     ---       ?C?FPCMP3

      ---         MODULE    ---      ---       ?C?FPNEG
      00FF37BCH   PUBLIC    CODE     ---       ?C?FPNEG

      ---         MODULE    ---      ---       ?C?FCAST
      00FF37D4H   PUBLIC    CODE     NEAR LAB  ?C?FCASTC
      00FF37CFH   PUBLIC    CODE     NEAR LAB  ?C?FCASTI
      00FF37CAH   PUBLIC    CODE     NEAR LAB  ?C?FCASTL

      ---         MODULE    ---      ---       ?C?CASTF
      00FF3807H   PUBLIC    CODE     NEAR LAB  ?C?CASTF

      ---         MODULE    ---      ---       ?C?INITHDATA
      00FFAFA0H   PUBLIC    CODE     ---       ?C?INITHDATA

      ---         MODULE    ---      ---       ?C?SIDIV
      00FF3844H   PUBLIC    CODE     ---       ?C?SIDIV

      ---         MODULE    ---      ---       ?C?LMUL
      00FF3876H   PUBLIC    CODE     ---       ?C?LMUL

      ---         MODULE    ---      ---       ?C?LIMUL
      00FF3887H   PUBLIC    CODE     ---       ?C?LIMUL

      ---         MODULE    ---      ---       ?C?ULDIV
      00FF3892H   PUBLIC    CODE     NEAR LAB  ?C?ULDIV
      00FF3890H   PUBLIC    CODE     NEAR LAB  ?C?ULIDIV

      ---         MODULE    ---      ---       ?C?SLDIV
      00FF38E3H   PUBLIC    CODE     NEAR LAB  ?C?SLDIV

      ---         MODULE    ---      ---       ?C?BMOVEPP
      00FF3919H   PUBLIC    CODE     ---       ?C?BMOVEPP
      00FF3917H   PUBLIC    CODE     ---       ?C?BMOVEPP8

      ---         MODULE    ---      ---       STRNCMP

      ---         MODULE    ---      ---       STRNCPY

      ---         MODULE    ---      ---       STRLEN

      ---         MODULE    ---      ---       STRCHR

      ---         MODULE    ---      ---       memcpy
      00FFB72CH   PUBLIC    CODE     ---       memcpy?_

      ---         MODULE    ---      ---       memset

      ---         MODULE    ---      ---       ?C?INITHDATA_END
      00FFC880H   PUBLIC    HCONST   WORD      ?C?INITHDATA_END

Program Size: data=8.1 edata+hdata=1792 xdata=4889 const=8599 code=47091
L251 RUN COMPLETE.  0 WARNING(S),  0 ERROR(S)
