L251 LINKER/LOCATER V4.66.93.0                                                          10/15/2025  21:40:28  PAGE 1


L251 LINKER/LOCATER V4.66.93.0, INVOKED BY:
D:\KEIL\C251\BIN\L251.EXE .\out_file\ai8051u_isr.obj, .\out_file\zf_common_clock.obj, .\out_file\zf_common_debug.obj, .\
>> out_file\zf_common_fifo.obj, .\out_file\zf_common_font.obj, .\out_file\zf_common_function.obj, .\out_file\zf_common_t
>> ypedef.obj, .\out_file\zf_common_interrupt.obj, .\out_file\START251.obj, .\out_file\zf_driver_adc.obj, .\out_file\zf_
>> driver_delay.obj, .\out_file\zf_driver_eeprom.obj, .\out_file\zf_driver_encoder.obj, .\out_file\zf_driver_exti.obj, .
>> \out_file\zf_driver_gpio.obj, .\out_file\zf_driver_pit.obj, .\out_file\zf_driver_pwm.obj, .\out_file\zf_driver_soft_i
>> ic.obj, .\out_file\zf_driver_soft_spi.obj, .\out_file\zf_driver_spi.obj, .\out_file\zf_driver_timer.obj, .\out_file\z
>> f_driver_uart.obj, .\out_file\zf_device_config.obj, .\out_file\zf_device_type.obj, .\out_file\zf_device_tft180.obj, .
>> \out_file\zf_device_ips114.obj, .\out_file\zf_device_ips200.obj, .\out_file\zf_device_dl1a.obj, .\out_file\zf_device_
>> ble6a20.obj, .\out_file\zf_device_wireless_uart.obj, .\out_file\zf_device_icm20602.obj, .\out_file\zf_device_imu660ra
>> .obj, .\out_file\zf_device_imu660rb.obj, .\out_file\zf_device_imu963ra.obj, .\out_file\zf_device_gps_tau1201.obj, .\o
>> ut_file\zf_device_tsl1401.obj, .\out_file\seekfree_assistant.obj, .\out_file\seekfree_assistant_interface.obj, .\out_
>> file\isr.obj, .\out_file\main.obj, .\out_file\ADC_Get.obj, .\out_file\control.obj, .\out_file\eeprom.obj, .\out_file\
>> function.obj, .\out_file\Key.obj, .\out_file\menu.obj, .\out_file\menu_font.obj, .\out_file\Device_Test.obj, .\out_fi
>> le\oled.obj, .\out_file\Strategy.obj, .\out_file\Buzzer.obj TO .\out_file\SEEKFREE PRINT (.\out_file\SEEKFREE.map) CA
>> SE DISABLEWARNING (57, 16) REMOVEUNUSED CLASSES (EDATA (0X0-0X7FF), HDATA (0X0-0X7FF))


CPU MODE:     251 SOURCE MODE
INTR FRAME:   4 BYTES SAVED ON INTERRUPT
MEMORY MODEL: LARGE WITH DOUBLE PRECISION FLOATING POINT ARITHMETIC


INPUT MODULES INCLUDED:
  .\out_file\ai8051u_isr.obj (ai8051u_isr)
         COMMENT TYPE 0: A251 V4.69.13.0
  .\out_file\zf_common_clock.obj (zf_common_clock)
         COMMENT TYPE 0: C251 V5.60.0
  .\out_file\zf_common_debug.obj (zf_common_debug)
         COMMENT TYPE 0: C251 V5.60.0
  .\out_file\zf_common_fifo.obj (zf_common_fifo)
         COMMENT TYPE 0: C251 V5.60.0
  .\out_file\zf_common_font.obj (zf_common_font)
         COMMENT TYPE 0: C251 V5.60.0
  .\out_file\zf_common_function.obj (zf_common_function)
         COMMENT TYPE 0: C251 V5.60.0
  .\out_file\zf_common_typedef.obj (zf_common_typedef)
         COMMENT TYPE 0: C251 V5.60.0
  .\out_file\zf_common_interrupt.obj (zf_common_interrupt)
         COMMENT TYPE 0: C251 V5.60.0
  .\out_file\START251.obj (?C_START)
         COMMENT TYPE 0: A251 V4.69.13.0
  .\out_file\zf_driver_adc.obj (zf_driver_adc)
         COMMENT TYPE 0: C251 V5.60.0
  .\out_file\zf_driver_delay.obj (zf_driver_delay)
         COMMENT TYPE 0: C251 V5.60.0
  .\out_file\zf_driver_eeprom.obj (zf_driver_eeprom)
         COMMENT TYPE 0: C251 V5.60.0
  .\out_file\zf_driver_encoder.obj (zf_driver_encoder)
         COMMENT TYPE 0: C251 V5.60.0
  .\out_file\zf_driver_exti.obj (zf_driver_exti)
         COMMENT TYPE 0: C251 V5.60.0
  .\out_file\zf_driver_gpio.obj (zf_driver_gpio)
         COMMENT TYPE 0: C251 V5.60.0
  .\out_file\zf_driver_pit.obj (zf_driver_pit)
         COMMENT TYPE 0: C251 V5.60.0
  .\out_file\zf_driver_pwm.obj (zf_driver_pwm)
         COMMENT TYPE 0: C251 V5.60.0
  .\out_file\zf_driver_soft_iic.obj (zf_driver_soft_iic)
         COMMENT TYPE 0: C251 V5.60.0
  .\out_file\zf_driver_soft_spi.obj (zf_driver_soft_spi)
         COMMENT TYPE 0: C251 V5.60.0
  .\out_file\zf_driver_spi.obj (zf_driver_spi)
         COMMENT TYPE 0: C251 V5.60.0
  .\out_file\zf_driver_timer.obj (zf_driver_timer)
         COMMENT TYPE 0: C251 V5.60.0
L251 LINKER/LOCATER V4.66.93.0                                                        10/15/2025  21:40:28  PAGE 2


  .\out_file\zf_driver_uart.obj (zf_driver_uart)
         COMMENT TYPE 0: C251 V5.60.0
  .\out_file\zf_device_config.obj (zf_device_config)
         COMMENT TYPE 0: C251 V5.60.0
  .\out_file\zf_device_type.obj (zf_device_type)
         COMMENT TYPE 0: C251 V5.60.0
  .\out_file\zf_device_tft180.obj (zf_device_tft180)
         COMMENT TYPE 0: C251 V5.60.0
  .\out_file\zf_device_ips114.obj (zf_device_ips114)
         COMMENT TYPE 0: C251 V5.60.0
  .\out_file\zf_device_ips200.obj (zf_device_ips200)
         COMMENT TYPE 0: C251 V5.60.0
  .\out_file\zf_device_dl1a.obj (zf_device_dl1a)
         COMMENT TYPE 0: C251 V5.60.0
  .\out_file\zf_device_ble6a20.obj (zf_device_ble6a20)
         COMMENT TYPE 0: C251 V5.60.0
  .\out_file\zf_device_wireless_uart.obj (zf_device_wireless_uart)
         COMMENT TYPE 0: C251 V5.60.0
  .\out_file\zf_device_icm20602.obj (zf_device_icm20602)
         COMMENT TYPE 0: C251 V5.60.0
  .\out_file\zf_device_imu660ra.obj (zf_device_imu660ra)
         COMMENT TYPE 0: C251 V5.60.0
  .\out_file\zf_device_imu660rb.obj (zf_device_imu660rb)
         COMMENT TYPE 0: C251 V5.60.0
  .\out_file\zf_device_imu963ra.obj (zf_device_imu963ra)
         COMMENT TYPE 0: C251 V5.60.0
  .\out_file\zf_device_gps_tau1201.obj (zf_device_gps_tau1201)
         COMMENT TYPE 0: C251 V5.60.0
  .\out_file\zf_device_tsl1401.obj (zf_device_tsl1401)
         COMMENT TYPE 0: C251 V5.60.0
  .\out_file\seekfree_assistant.obj (seekfree_assistant)
         COMMENT TYPE 0: C251 V5.60.0
  .\out_file\seekfree_assistant_interface.obj (seekfree_assistant_interface)
         COMMENT TYPE 0: C251 V5.60.0
  .\out_file\isr.obj (isr)
         COMMENT TYPE 0: C251 V5.60.0
  .\out_file\main.obj (main)
         COMMENT TYPE 0: C251 V5.60.0
  .\out_file\ADC_Get.obj (ADC_Get)
         COMMENT TYPE 0: C251 V5.60.0
  .\out_file\control.obj (control)
         COMMENT TYPE 0: C251 V5.60.0
  .\out_file\eeprom.obj (eeprom)
         COMMENT TYPE 0: C251 V5.60.0
  .\out_file\function.obj (function)
         COMMENT TYPE 0: C251 V5.60.0
  .\out_file\Key.obj (Key)
         COMMENT TYPE 0: C251 V5.60.0
  .\out_file\menu.obj (menu)
         COMMENT TYPE 0: C251 V5.60.0
  .\out_file\menu_font.obj (menu_font)
         COMMENT TYPE 0: C251 V5.60.0
  .\out_file\Device_Test.obj (Device_Test)
         COMMENT TYPE 0: C251 V5.60.0
  .\out_file\oled.obj (oled)
         COMMENT TYPE 0: C251 V5.60.0
  .\out_file\Strategy.obj (Strategy)
         COMMENT TYPE 0: C251 V5.60.0
  .\out_file\Buzzer.obj (Buzzer)
         COMMENT TYPE 0: C251 V5.60.0
  D:\KEIL\C251\LIB\C2SDPL.LIB (?C?DPADD)
         COMMENT TYPE 0: A251 V4.69.6.0
  D:\KEIL\C251\LIB\C2SDPL.LIB (?C?DPMUL)
         COMMENT TYPE 0: A251 V4.69.6.0
  D:\KEIL\C251\LIB\C2SDPL.LIB (?C?DPDIV)
L251 LINKER/LOCATER V4.66.93.0                                                        10/15/2025  21:40:28  PAGE 3


         COMMENT TYPE 0: A251 V4.69.6.0
  D:\KEIL\C251\LIB\C2SDPL.LIB (?C?DPCMP)
         COMMENT TYPE 0: A251 V4.69.6.0
  D:\KEIL\C251\LIB\C2SDPL.LIB (?C?DPNEG)
         COMMENT TYPE 0: A251 V4.69.6.0
  D:\KEIL\C251\LIB\C2SDPL.LIB (?C?DCAST)
         COMMENT TYPE 0: A251 V4.69.6.0
  D:\KEIL\C251\LIB\C2SDPL.LIB (?C?CASTD)
         COMMENT TYPE 0: A251 V4.69.6.0
  D:\KEIL\C251\LIB\C2SDPL.LIB (?C?DCASTF)
         COMMENT TYPE 0: A251 V4.69.6.0
  D:\KEIL\C251\LIB\C2SDPL.LIB (?C?FCASTD)
         COMMENT TYPE 0: A251 V4.69.6.0
  D:\KEIL\C251\LIB\C2SDPL.LIB (PRINTF)
         COMMENT TYPE 0: A251 V4.69.6.0
  D:\KEIL\C251\LIB\C2SDPL.LIB (SPRINTF)
         COMMENT TYPE 0: A251 V4.69.6.0
  D:\KEIL\C251\LIB\C2SDPL.LIB (SQRT?_)
         COMMENT TYPE 0: A251 V4.69.6.0
  D:\KEIL\C251\LIB\C2SDPL.LIB (pow)
         COMMENT TYPE 0: C251 V5.58.7
  D:\KEIL\C251\LIB\C2SDPL.LIB (SIN?_)
         COMMENT TYPE 0: A251 V4.69.6.0
  D:\KEIL\C251\LIB\C2SDPL.LIB (ATAN?_)
         COMMENT TYPE 0: A251 V4.69.6.0
  D:\KEIL\C251\LIB\C2SDPL.LIB (ASIN?_)
         COMMENT TYPE 0: A251 V4.69.6.0
  D:\KEIL\C251\LIB\C2SDPL.LIB (?C?DPGETOPN)
         COMMENT TYPE 0: A251 V4.69.6.0
  D:\KEIL\C251\LIB\C2SDPL.LIB (_CHKDOUBLE_?_)
         COMMENT TYPE 0: A251 V4.69.6.0
  D:\KEIL\C251\LIB\C2SDPL.LIB (?C?PRNFMT)
         COMMENT TYPE 0: A251 V4.69.6.0
  D:\KEIL\C251\LIB\C2SDPL.LIB (?C?DPSERIES)
         COMMENT TYPE 0: A251 V4.69.6.0
  D:\KEIL\C251\LIB\C2SDPL.LIB (EXP?_)
         COMMENT TYPE 0: A251 V4.69.6.0
  D:\KEIL\C251\LIB\C2SDPL.LIB (LOG?_)
         COMMENT TYPE 0: A251 V4.69.6.0
  D:\KEIL\C251\LIB\C2SDPL.LIB (?C?DPCONVERT)
         COMMENT TYPE 0: A251 V4.69.6.0
  D:\KEIL\C251\LIB\C2SDPL.LIB (?C?DTNPWR)
         COMMENT TYPE 0: A251 V4.69.6.0
  D:\KEIL\C251\LIB\C2SFPL.LIB (?C?FPGETOPN)
         COMMENT TYPE 0: A251 V4.69.6.0
  D:\KEIL\C251\LIB\C2SFPL.LIB (?C?FPADD)
         COMMENT TYPE 0: A251 V4.69.6.0
  D:\KEIL\C251\LIB\C2SFPL.LIB (?C?FPMUL)
         COMMENT TYPE 0: A251 V4.69.6.0
  D:\KEIL\C251\LIB\C2SFPL.LIB (?C?FPDIV)
         COMMENT TYPE 0: A251 V4.69.6.0
  D:\KEIL\C251\LIB\C2SFPL.LIB (?C?FPCMP)
         COMMENT TYPE 0: A251 V4.69.6.0
  D:\KEIL\C251\LIB\C2SFPL.LIB (?C?FPNEG)
         COMMENT TYPE 0: A251 V4.69.6.0
  D:\KEIL\C251\LIB\C2SFPL.LIB (?C?FCAST)
         COMMENT TYPE 0: A251 V4.69.6.0
  D:\KEIL\C251\LIB\C2SFPL.LIB (?C?CASTF)
         COMMENT TYPE 0: A251 V4.69.6.0
  D:\KEIL\C251\LIB\C2SL.LIB (?C?INITHDATA)
         COMMENT TYPE 0: A251 V4.69.6.0
  D:\KEIL\C251\LIB\C2SL.LIB (?C?SIDIV)
         COMMENT TYPE 0: A251 V4.69.6.0
  D:\KEIL\C251\LIB\C2SL.LIB (?C?LMUL)
         COMMENT TYPE 0: A251 V4.69.6.0
L251 LINKER/LOCATER V4.66.93.0                                                        10/15/2025  21:40:28  PAGE 4


  D:\KEIL\C251\LIB\C2SL.LIB (?C?LIMUL)
         COMMENT TYPE 0: A251 V4.69.6.0
  D:\KEIL\C251\LIB\C2SL.LIB (?C?ULDIV)
         COMMENT TYPE 0: A251 V4.69.6.0
  D:\KEIL\C251\LIB\C2SL.LIB (?C?SLDIV)
         COMMENT TYPE 0: A251 V4.69.6.0
  D:\KEIL\C251\LIB\C2SL.LIB (?C?BMOVEPP)
         COMMENT TYPE 0: A251 V4.69.6.0
  D:\KEIL\C251\LIB\C2SL.LIB (STRNCMP)
         COMMENT TYPE 0: C251 V5.58.7
  D:\KEIL\C251\LIB\C2SL.LIB (STRNCPY)
         COMMENT TYPE 0: C251 V5.58.7
  D:\KEIL\C251\LIB\C2SL.LIB (STRLEN)
         COMMENT TYPE 0: C251 V5.58.7
  D:\KEIL\C251\LIB\C2SL.LIB (STRCHR)
         COMMENT TYPE 0: C251 V5.58.7
  D:\KEIL\C251\LIB\C2SL.LIB (memcpy)
         COMMENT TYPE 0: C251 V5.58.7
  D:\KEIL\C251\LIB\C2SL.LIB (memset)
         COMMENT TYPE 0: C251 V5.58.7
  D:\KEIL\C251\LIB\C2SL.LIB (?C?INITHDATA_END)
         COMMENT TYPE 0: A251 V4.69.6.0


ACTIVE MEMORY CLASSES OF MODULE:  .\out_file\SEEKFREE (ai8051u_isr)

BASE        START       END         USED      MEMORY CLASS
==========================================================
000000H     000000H     0007FFH     000700H   EDATA
000000H     000000H     0007FFH               HDATA
FF0000H     FF0000H     FFFFFFH     00B655H   CODE
010000H     010000H     01FFFFH     001301H   XDATA
000000H     FF0000H     FFFFFFH     002158H   HCONST
000020H.0   000020H.0   00002FH.7   000000H.1 BIT
FF0000H     FF0000H     FFFFFFH     000004H   CONST
000000H     000000H     00007FH     000008H   DATA


MEMORY MAP OF MODULE:  .\out_file\SEEKFREE (ai8051u_isr)


START     STOP      LENGTH    ALIGN  RELOC    MEMORY CLASS   SEGMENT NAME
=========================================================================
000000H   000007H   000008H   ---    AT..     DATA           "REG BANK 0"
000008H.0 00001FH.7 000018H.0 ---    ---      **GAP**
000020H.0 000020H.0 000000H.1 BIT    UNIT     BIT            ?BI?ADC_GET
000020H.1 000020H   000000H.7 ---    ---      **GAP**
000021H   000720H   000700H   BYTE   UNIT     EDATA          ?STACK
000721H   00FFFFH   00F8DFH   ---    ---      **GAP**
010000H   010A61H   000A62H   BYTE   INSEG    XDATA          ?XD?MENU_FONT
010A62H   010C63H   000202H   BYTE   INSEG    XDATA          ?XD?ZF_DEVICE_TSL1401
010C64H   010E33H   0001D0H   BYTE   INSEG    XDATA          ?XD?ZF_DEVICE_GPS_TAU1201
010E34H   010F70H   00013DH   BYTE   INSEG    XDATA          ?XD?SEEKFREE_ASSISTANT
010F71H   011009H   000099H   BYTE   INSEG    XDATA          ?XD?FUNCTION
01100AH   01109EH   000095H   BYTE   UNIT     XDATA          _XDATA_GROUP_
01109FH   0110F7H   000059H   BYTE   INSEG    XDATA          ?XD?ZF_COMMON_DEBUG
0110F8H   01114EH   000057H   BYTE   INSEG    XDATA          ?XD?ZF_DEVICE_BLE6A20
01114FH   0111A5H   000057H   BYTE   INSEG    XDATA          ?XD?ZF_DEVICE_WIRELESS_UART
0111A6H   0111E3H   00003EH   BYTE   INSEG    XDATA          ?XD?ADC_GET
0111E4H   011206H   000023H   BYTE   INSEG    XDATA          ?XD?STRATEGY
011207H   011224H   00001EH   BYTE   INSEG    XDATA          ?XD?ZF_COMMON_TYPEDEF
011225H   011242H   00001EH   BYTE   INSEG    XDATA          ?XD?ZF_DEVICE_IMU963RA
011243H   011256H   000014H   BYTE   INSEG    XDATA          ?XD?ZF_DEVICE_ICM20602
011257H   01126AH   000014H   BYTE   INSEG    XDATA          ?XD?ZF_DEVICE_IMU660RA
01126BH   011277H   00000DH   BYTE   INSEG    XDATA          ?XD?ZF_DEVICE_DL1A
L251 LINKER/LOCATER V4.66.93.0                                                        10/15/2025  21:40:28  PAGE 5


011278H   011284H   00000DH   BYTE   INSEG    XDATA          ?XD?MENU
011285H   011290H   00000CH   BYTE   INSEG    XDATA          ?XD?ZF_DRIVER_TIMER
011291H   01129CH   00000CH   BYTE   INSEG    XDATA          ?XD?ZF_DRIVER_UART
01129DH   0112A8H   00000CH   BYTE   INSEG    XDATA          ?XD?ZF_DEVICE_IMU660RB
0112A9H   0112B3H   00000BH   BYTE   INSEG    XDATA          ?XD?KEY
0112B4H   0112BDH   00000AH   BYTE   INSEG    XDATA          ?XD?ZF_DEVICE_IPS200
0112BEH   0112C5H   000008H   BYTE   UNIT     XDATA          ?XD?SOFT_IIC_DELAY?ZF_DRIVER_SOFT_IIC
0112C6H   0112CDH   000008H   BYTE   INSEG    XDATA          ?XD?ZF_DEVICE_TYPE
0112CEH   0112D5H   000008H   BYTE   INSEG    XDATA          ?XD?ZF_DEVICE_TFT180
0112D6H   0112DDH   000008H   BYTE   INSEG    XDATA          ?XD?ZF_DEVICE_IPS114
0112DEH   0112E4H   000007H   BYTE   INSEG    XDATA          ?XD?MAIN
0112E5H   0112EAH   000006H   BYTE   INSEG    XDATA          ?XD?ZF_DRIVER_ENCODER
0112EBH   0112EEH   000004H   BYTE   INSEG    XDATA          ?XD?ZF_COMMON_CLOCK
0112EFH   0112F2H   000004H   BYTE   INSEG    XDATA          ?XD?ZF_DRIVER_DELAY
0112F3H   0112F6H   000004H   BYTE   INSEG    XDATA          ?XD?SEEKFREE_ASSISTANT_INTERFACE
0112F7H   0112F9H   000003H   BYTE   UNIT     XDATA          ?XD?SOFT_IIC_READ_DATA?ZF_DRIVER_SOFT_IIC
0112FAH   0112FBH   000002H   BYTE   UNIT     XDATA          ?XD?SOFT_IIC_SEND_DATA?ZF_DRIVER_SOFT_IIC
0112FCH   0112FCH   000001H   BYTE   INSEG    XDATA          ?XD?ZF_DRIVER_ADC
0112FDH   0112FDH   000001H   BYTE   UNIT     XDATA          ?XD?SOFT_IIC_SEND_ACK?ZF_DRIVER_SOFT_IIC
0112FEH   0112FEH   000001H   BYTE   UNIT     XDATA          ?XD?SOFT_IIC_WAIT_ACK?ZF_DRIVER_SOFT_IIC
0112FFH   0112FFH   000001H   BYTE   INSEG    XDATA          ?XD?ISR
011300H   011300H   000001H   BYTE   INSEG    XDATA          ?XD?CONTROL
011301H   FEFFFFH   FDECFFH   ---    ---      **GAP**
FF0000H   FF0002H   000003H   ---    OFFS..   CODE           ?CO?START251?4
FF0003H   FF0008H   000006H   BYTE   INSEG    CODE           ?PR?SPI_WRITE_8BIT?ZF_DRIVER_SPI
FF0009H   FF000AH   000002H   BYTE   UNIT     HCONST         ?HC?MAIN
FF000BH   FF000DH   000003H   ---    OFFS..   CODE           ?PR?IV?1
FF000EH   FF001AH   00000DH   BYTE   INSEG    CODE           ?PR?TFT180_SET_COLOR?ZF_DEVICE_TFT180
FF001BH   FF001DH   000003H   ---    OFFS..   CODE           ?PR?IV?3
FF001EH   FF0020H   000003H   BYTE   INSEG    CODE           ?PR?INTERRUPT_GLOBAL_ENABLE?ZF_COMMON_INTERRUPT
FF0021H   FF0022H   000002H   ---    ---      **GAP**
FF0023H   FF0025H   000003H   ---    OFFS..   CODE           ?PR?IV?4
FF0026H   FF0042H   00001DH   BYTE   INSEG    CODE           ?PR?ENCONDER_INIT?FUNCTION
FF0043H   FF0045H   000003H   ---    OFFS..   CODE           ?PR?IV?8
FF0046H   FF005FH   00001AH   BYTE   INSEG    CODE           ?PR?SERVO_INIT?FUNCTION
FF0060H   FF0062H   000003H   ---    ---      **GAP**
FF0063H   FF0065H   000003H   ---    OFFS..   CODE           ?PR?IV?12
FF0066H   FF008AH   000025H   BYTE   INSEG    CODE           ?PR?MAIN?MAIN
FF008BH   FF008DH   000003H   ---    OFFS..   CODE           ?PR?IV?17
FF008EH   FF0091H   000004H   BYTE   UNIT     CONST          ?CO?PRINTF
FF0092H   FF0092H   000001H   ---    ---      **GAP**
FF0093H   FF0095H   000003H   ---    OFFS..   CODE           ?PR?IV?18
FF0096H   FF009AH   000005H   ---    ---      **GAP**
FF009BH   FF009DH   000003H   ---    OFFS..   CODE           ?PR?IV?19
FF009EH   FF00A2H   000005H   ---    ---      **GAP**
FF00A3H   FF00A5H   000003H   ---    OFFS..   CODE           ?PR?IV?20
FF00A6H   FF00BFH   00001AH   BYTE   INSEG    CODE           ?PR?HANDLE_KEY5?MENU
FF00C0H   FF00C2H   000003H   ---    ---      **GAP**
FF00C3H   FF00C5H   000003H   ---    OFFS..   CODE           ?PR?IV?24
FF00C6H   FF0198H   0000D3H   BYTE   INSEG    CODE           ?PR?GPIO_GET_LEVEL?ZF_DRIVER_GPIO
FF0199H   FF019AH   000002H   ---    ---      **GAP**
FF019BH   FF019DH   000003H   ---    OFFS..   CODE           ?CO?ai8051u_isr?1
FF019EH   FF01A7H   00000AH   BYTE   INSEG    CODE           ?PR?KEY3_HANDLE1?MENU
FF01A8H   FF01AAH   000003H   ---    ---      **GAP**
FF01ABH   FF01ADH   000003H   ---    OFFS..   CODE           ?CO?ai8051u_isr?2
FF01AEH   FF01B7H   00000AH   BYTE   INSEG    CODE           ?PR?BUZZER_ON?BUZZER
FF01B8H   FF01BAH   000003H   ---    ---      **GAP**
FF01BBH   FF01BDH   000003H   ---    OFFS..   CODE           ?CO?ai8051u_isr?3
FF01BEH   FF01C6H   000009H   BYTE   INSEG    CODE           ?PR?BUZZER_OFF?BUZZER
FF01C7H   FF01CAH   000004H   ---    ---      **GAP**
FF01CBH   FF01CDH   000003H   ---    OFFS..   CODE           ?CO?ai8051u_isr?4
FF01CEH   FF021AH   00004DH   BYTE   INSEG    CODE           ?PR?FIFO_HEAD_OFFSET?ZF_COMMON_FIFO
FF021BH   FF021DH   000003H   ---    OFFS..   CODE           ?CO?ai8051u_isr?5
FF021EH   FF221DH   002000H   BYTE   UNIT     CODE           ?CO?ZF_DEVICE_CONFIG
FF221EH   FF393FH   001722H   BYTE   UNIT     CODE           ?C?LIB_CODE
L251 LINKER/LOCATER V4.66.93.0                                                        10/15/2025  21:40:28  PAGE 6


FF3940H   FF4617H   000CD8H   BYTE   UNIT     CODE           ?CO?OLED
FF4618H   FF4E34H   00081DH   BYTE   INSEG    CODE           ?PR?ZF_SPRINTF?ZF_COMMON_FUNCTION
FF4E35H   FF5424H   0005F0H   BYTE   UNIT     CODE           ?CO?ZF_COMMON_FONT
FF5425H   FF59B1H   00058DH   BYTE   INSEG    CODE           ?PR?SHOW_PARARM?FUNCTION
FF59B2H   FF5EC1H   000510H   BYTE   INSEG    CODE           ?PR?PWM_INIT?ZF_DRIVER_PWM
FF5EC2H   FF6366H   0004A5H   BYTE   INSEG    CODE           ?PR?SPI_INIT?ZF_DRIVER_SPI
FF6367H   FF6763H   0003FDH   BYTE   INSEG    CODE           ?PR?FIFO_WRITE_BUFFER?ZF_COMMON_FIFO
FF6764H   FF6B30H   0003CDH   BYTE   INSEG    CODE           ?PR?GPIO_SET_DIR?ZF_DRIVER_GPIO
FF6B31H   FF6E62H   000332H   BYTE   INSEG    CODE           ?PR?STATE_OF_ROAD?STRATEGY
FF6E63H   FF713EH   0002DCH   BYTE   INSEG    CODE           ?PR?TFT180_INIT?ZF_DEVICE_TFT180
FF713FH   FF73F7H   0002B9H   BYTE   INSEG    CODE           ?PR?GPIO_SET_LEVEL_SPEED?ZF_DRIVER_GPIO
FF73F8H   FF762FH   000238H   BYTE   INSEG    CODE           ?PR?PID_UPDATE?CONTROL
FF7630H   FF7864H   000235H   BYTE   INSEG    CODE           ?PR?UART_INIT?ZF_DRIVER_UART
FF7865H   FF7A8AH   000226H   BYTE   INSEG    CODE           ?PR?GPIO_SET_MODE?ZF_DRIVER_GPIO
FF7A8BH   FF7C65H   0001DBH   BYTE   INSEG    CODE           ?PR?PIT_INIT?ZF_DRIVER_PIT
FF7C66H   FF7E34H   0001CFH   BYTE   INSEG    CODE           ?PR?TURN_MODE_INIT?FUNCTION
FF7E35H   FF7FF8H   0001C4H   BYTE   INSEG    CODE           ?PR?TFT180_SHOW_FLOAT?ZF_DEVICE_TFT180
FF7FF9H   FF8198H   0001A0H   BYTE   INSEG    CODE           ?PR?CYCLE_UPDATE?CONTROL
FF8199H   FF8328H   000190H   BYTE   INSEG    CODE           ?PR?PWM_SET_DUTY?ZF_DRIVER_PWM
FF8329H   FF849BH   000173H   BYTE   INSEG    CODE           ?PR?GPIO_SET_LEVEL?ZF_DRIVER_GPIO
FF849CH   FF8601H   000166H   BYTE   INSEG    CODE           ?PR?MOTOR_UPDATE?CONTROL
FF8602H   FF8748H   000147H   BYTE   INSEG    CODE           ?PR?UART_DMA_INIT?ZF_DRIVER_UART
FF8749H   FF888EH   000146H   BYTE   INSEG    CODE           ?PR?GPIO_SET_IMPEDANCE?ZF_DRIVER_GPIO
FF888FH   FF89C3H   000135H   BYTE   INSEG    CODE           ?PR?MENU_DISPLAY_CONTENT?MENU
FF89C4H   FF8AF6H   000133H   BYTE   INSEG    CODE           ?PR?TFT180_SHOW_INT16?ZF_DEVICE_TFT180
FF8AF7H   FF8C25H   00012FH   BYTE   INSEG    CODE           ?PR?HELP_TURN2?STRATEGY
FF8C26H   FF8D4DH   000128H   BYTE   INSEG    CODE           ?PR?SPEED_CONTROL?FUNCTION
FF8D4EH   FF8E6FH   000122H   BYTE   INSEG    CODE           ?PR?TFT180_SET_REGION?ZF_DEVICE_TFT180
FF8E70H   FF8F89H   00011AH   BYTE   INSEG    CODE           ?PR?KEY_SCANER?KEY
FF8F8AH   FF9095H   00010CH   BYTE   INSEG    CODE           ?PR?ENCODER_DIR_INIT?ZF_DRIVER_ENCODER
FF9096H   FF9177H   0000E2H   BYTE   INSEG    CODE           ?PR?UART_WRITE_BUFFER?ZF_DRIVER_UART
FF9178H   FF9258H   0000E1H   BYTE   INSEG    CODE           ?PR?ADC_SAMPLEANDFILTER?ADC_GET
FF9259H   FF9338H   0000E0H   BYTE   INSEG    CODE           ?PR?TFT180_SHOW_CHAR?ZF_DEVICE_TFT180
FF9339H   FF9416H   0000DEH   BYTE   INSEG    CODE           ?PR?CLOCK_INIT?ZF_COMMON_CLOCK
FF9417H   FF94F4H   0000DEH   BYTE   INSEG    CODE           ?PR?SERVO_CONTROL?FUNCTION
FF94F5H   FF95D0H   0000DCH   BYTE   INSEG    CODE           ?PR?HANDLE_KEY1?MENU
FF95D1H   FF96A8H   0000D8H   BYTE   INSEG    CODE           ?PR?MOTOR_RIGHT_PI_CONTROL?CONTROL
FF96A9H   FF9780H   0000D8H   BYTE   INSEG    CODE           ?PR?MOTOR_LEFT_PI_CONTROL?CONTROL
FF9781H   FF9850H   0000D0H   BYTE   INSEG    CODE           ?PR?MENU_SETCHILDREN?MENU
FF9851H   FF991FH   0000CFH   BYTE   INSEG    CODE           ?PR?IF_CYCLE?STRATEGY
FF9920H   FF99EDH   0000CEH   BYTE   INSEG    CODE           ?PR?KEY3_HANDLE2?MENU
FF99EEH   FF9AB4H   0000C7H   BYTE   INSEG    CODE           ?PR?HANDLE_KEY4?MENU
FF9AB5H   FF9B70H   0000BCH   BYTE   INSEG    CODE           ?PR?GPIO_INIT?ZF_DRIVER_GPIO
FF9B71H   FF9C2BH   0000BBH   BYTE   INSEG    CODE           ?PR?TURN_MODE?KEY
FF9C2CH   FF9CE5H   0000BAH   BYTE   INSEG    CODE           ?PR?INTERRUPT_SET_PRIORITY?ZF_COMMON_INTERRUPT
FF9CE6H   FF9D99H   0000B4H   BYTE   INSEG    CODE           ?PR?SOFT_IIC_READ_DATA?ZF_DRIVER_SOFT_IIC
FF9D9AH   FF9E4CH   0000B3H   BYTE   INSEG    CODE           ?PR?FAST_SQRT?FUNCTION
FF9E4DH   FF9EFCH   0000B0H   BYTE   INSEG    CODE           ?PR?_M?MAIN
FF9EFDH   FF9FA5H   0000A9H   BYTE   INSEG    CODE           ?PR?TFT180_SHOW_STRING?ZF_DEVICE_TFT180
FF9FA6H   FFA04BH   0000A6H   BYTE   INSEG    CODE           ?PR?ADC_FILTER?ADC_GET
FFA04CH   FFA0F0H   0000A5H   BYTE   INSEG    CODE           ?PR?ENCODER_GET_COUNT?ZF_DRIVER_ENCODER
FFA0F1H   FFA195H   0000A5H   BYTE   INSEG    CODE           ?PR?DMA_UART1_IRQHANDLER?ISR
FFA196H   FFA22CH   000097H   BYTE   INSEG    CODE           ?PR?DEBUG_INIT?ZF_COMMON_DEBUG
FFA22DH   FFA2C1H   000095H   BYTE   INSEG    CODE           ?PR?ENCODER_CLEAR_COUNT?ZF_DRIVER_ENCODER
FFA2C2H   FFA355H   000094H   BYTE   INSEG    CODE           ?PR?NUMBER_CONVERSION_ASCII?ZF_COMMON_FUNCTION
FFA356H   FFA3E9H   000094H   BYTE   INSEG    CODE           ?PR?SERVO_TURN_PID?CONTROL
FFA3EAH   FFA47AH   000091H   BYTE   INSEG    CODE           ?PR?SOFT_IIC_SEND_DATA?ZF_DRIVER_SOFT_IIC
FFA47BH   FFA50AH   000090H   BYTE   INSEG    CODE           ?PR?UART_RX_START_BUFF?ZF_DRIVER_UART
FFA50BH   FFA595H   00008BH   BYTE   INSEG    CODE           ?PR?PIT_HANDLER1?MAIN
FFA596H   FFA620H   00008BH   BYTE   INSEG    CODE           ?PR?UNIFICATION?FUNCTION
FFA621H   FFA6A9H   000089H   BYTE   INSEG    CODE           ?PR?DMA_UART2_IRQHANDLER?ISR
FFA6AAH   FFA732H   000089H   BYTE   INSEG    CODE           ?PR?DMA_UART3_IRQHANDLER?ISR
FFA733H   FFA7BBH   000089H   BYTE   INSEG    CODE           ?PR?DMA_UART4_IRQHANDLER?ISR
FFA7BCH   FFA843H   000088H   BYTE   INSEG    CODE           ?PR?ADC_INIT?ZF_DRIVER_ADC
FFA844H   FFA8C6H   000083H   BYTE   INSEG    CODE           ?PR?REFESH_ARROW?MENU
L251 LINKER/LOCATER V4.66.93.0                                                        10/15/2025  21:40:28  PAGE 7


FFA8C7H   FFA947H   000081H   BYTE   INSEG    CODE           ?PR?FIFO_INIT?ZF_COMMON_FIFO
FFA948H   FFA9C3H   00007CH   BYTE   INSEG    CODE           ?PR?MENU_INIT?MENU
FFA9C4H   FFAA3CH   000079H   BYTE   INSEG    CODE           ?PR?SOFT_IIC_WAIT_ACK?ZF_DRIVER_SOFT_IIC
FFAA3DH   FFAAB3H   000077H   BYTE   INSEG    CODE           ?PR?SHOW_BUJIN?MENU
FFAAB4H   FFAB29H   000076H   BYTE   INSEG    CODE           ?PR?MOTOR_INIT?FUNCTION
FFAB2AH   FFAB9CH   000073H   BYTE   INSEG    CODE           ?PR?SOFT_IIC_SEND_ACK?ZF_DRIVER_SOFT_IIC
FFAB9DH   FFAC0EH   000072H   BYTE   INSEG    CODE           ?PR?INIT_ALL?FUNCTION
FFAC0FH   FFAC79H   00006BH   BYTE   INSEG    CODE           ?PR?SYSTEM_DELAY_MS?ZF_DRIVER_DELAY
FFAC7AH   FFACE1H   000068H   BYTE   INSEG    CODE           ?PR?DEBUG_ASSERT_HANDLER?ZF_COMMON_DEBUG
FFACE2H   FFAD48H   000067H   BYTE   INSEG    CODE           ?PR?TFT180_CLEAR?ZF_DEVICE_TFT180
FFAD49H   FFADAAH   000062H   BYTE   INSEG    CODE           ?PR?SOFT_IIC_STOP?ZF_DRIVER_SOFT_IIC
FFADABH   FFAE0CH   000062H   BYTE   INSEG    CODE           ?PR?UART_QUERY_BYTE?ZF_DRIVER_UART
FFAE0DH   FFAE69H   00005DH   BYTE   INSEG    CODE           ?PR?SYSTEM_DELAY_INIT?ZF_DRIVER_DELAY
FFAE6AH   FFAE8AH   000021H   BYTE   UNIT     CODE           ?C_C51STARTUP
FFAE8BH   FFAE8CH   000002H   BYTE   UNIT     CODE           ?C_C51STARTUP?1
FFAE8DH   FFAEBDH   000031H   BYTE   UNIT     CODE           ?C_C51STARTUP?2
FFAEBEH   FFAEC0H   000003H   BYTE   UNIT     CODE           ?C_C51STARTUP?3
FFAEC1H   FFAF17H   000057H   BYTE   INSEG    CODE           ?PR?SOFT_IIC_START?ZF_DRIVER_SOFT_IIC
FFAF18H   FFAF6DH   000056H   BYTE   INSEG    CODE           ?PR?SERVE_TEST?DEVICE_TEST
FFAF6EH   FFAFBFH   000052H   BYTE   INSEG    CODE           ?PR?HANDLE_KEY3?MENU
FFAFC0H   FFB00BH   00004CH   BYTE   INSEG    CODE           ?PR?TIMER_FUNCITON_CHECK?ZF_DRIVER_TIMER
FFB00CH   FFB057H   00004CH   BYTE   INSEG    CODE           ?PR?UART_FUNCITON_CHECK?ZF_DRIVER_UART
FFB058H   FFB0A2H   00004BH   BYTE   INSEG    CODE           ?PR?TM11_IRQHANDLER?ISR
FFB0A3H   FFB0EAH   000048H   BYTE   INSEG    CODE           ?PR?PRINTF_REVERSE_ORDER?ZF_COMMON_FUNCTION
FFB0EBH   FFB12FH   000045H   BYTE   INSEG    CODE           ?PR?UART_RX_INTERRUPT?ZF_DRIVER_UART
FFB130H   FFB174H   000045H   BYTE   INSEG    CODE           ?PR?KEY_NUMBER?KEY
FFB175H   FFB1B7H   000043H   BYTE   INSEG    CODE           ?PR?HANDLE_KEY2?MENU
FFB1B8H   FFB1F9H   000042H   BYTE   INSEG    CODE           ?PR?SPI_WRITE_DAT?ZF_DRIVER_SPI
FFB1FAH   FFB237H   00003EH   BYTE   INSEG    CODE           ?PR?TM0_IRQHANDLER?ISR
FFB238H   FFB275H   00003EH   BYTE   INSEG    CODE           ?PR?TM1_IRQHANDLER?ISR
FFB276H   FFB2B3H   00003EH   BYTE   INSEG    CODE           ?PR?TM2_IRQHANDLER?ISR
FFB2B4H   FFB2F1H   00003EH   BYTE   INSEG    CODE           ?PR?TM3_IRQHANDLER?ISR
FFB2F2H   FFB32FH   00003EH   BYTE   INSEG    CODE           ?PR?TM4_IRQHANDLER?ISR
FFB330H   FFB36DH   00003EH   BYTE   INSEG    CODE           ?PR?PROTECT?FUNCTION
FFB36EH   FFB3AAH   00003DH   BYTE   INSEG    CODE           ?PR?MOTORL_SETSPEED?CONTROL
FFB3ABH   FFB3E7H   00003DH   BYTE   INSEG    CODE           ?PR?MOTORR_SETSPEED?CONTROL
FFB3E8H   FFB420H   000039H   BYTE   INSEG    CODE           ?PR?DEBUG_INTERRUPR_HANDLER?ZF_COMMON_DEBUG
FFB421H   FFB458H   000038H   BYTE   INSEG    CODE           ?PR?SOFT_IIC_DELAY?ZF_DRIVER_SOFT_IIC
FFB459H   FFB48BH   000033H   BYTE   INSEG    CODE           ?PR?PWM_TEST?DEVICE_TEST
FFB48CH   FFB4BBH   000030H   BYTE   INSEG    CODE           ?PR?ADC_CONVERT?ZF_DRIVER_ADC
FFB4BCH   FFB4E9H   00002EH   BYTE   INSEG    CODE           ?PR?SHOW_TEST_INFO?FUNCTION
FFB4EAH   FFB517H   00002EH   BYTE   INSEG    CODE           ?PR?MENU_HANDLE_KEY?MENU
FFB518H   FFB544H   00002DH   BYTE   INSEG    CODE           ?PR?ADC_GETINIT?ADC_GET
FFB545H   FFB56FH   00002BH   BYTE   INSEG    CODE           ?PR?SPEED_CONTROL_RING?FUNCTION
FFB570H   FFB596H   000027H   BYTE   INSEG    CODE           ?PR?TFT180_SET_DIR?ZF_DEVICE_TFT180
FFB597H   FFB5BBH   000025H   BYTE   INSEG    CODE           ?PR?MEMCPY?_?MEMCPY
FFB5BCH   FFB5DAH   00001FH   BYTE   INSEG    CODE           ?PR?SPI_WRITE_16BIT?ZF_DRIVER_SPI
FFB5DBH   FFB5F0H   000016H   BYTE   INSEG    CODE           ?PR?TFT180_WRITE_INDEX?ZF_DEVICE_TFT180
FFB5F1H   FFB604H   000014H   BYTE   INSEG    CODE           ?PR?UART_WRITE_BYTE?ZF_DRIVER_UART
FFB605H   FFB616H   000012H   BYTE   INSEG    CODE           ?PR?CAR_STOP?FUNCTION
FFB617H   FFB627H   000011H   BYTE   INSEG    CODE           ?PR?SHOW_ALL_MENU?MENU
FFB628H   FFB638H   000011H   BYTE   INSEG    CODE           ?PR?SET_SEVO?DEVICE_TEST
FFB639H   FFB649H   000011H   BYTE   INSEG    CODE           ?PR?BUZZER_INIT?BUZZER
FFB64AH   FFB659H   000010H   BYTE   INSEG    CODE           ?PR?PUTCHAR?ZF_COMMON_DEBUG
FFB65AH   FFB669H   000010H   BYTE   INSEG    CODE           ?PR?SER_SERVO_DUTY?CONTROL
FFB66AH   FFB679H   000010H   BYTE   INSEG    CODE           ?PR?GO_FUNCTION?FUNCTION
FFB67AH   FFC6A8H   00102FH   BYTE   UNIT     HCONST         ?C_INITHDATA
FFC6A9H   FFCCA8H   000600H   BYTE   UNIT     HCONST         ?HC?EEPROM
FFCCA9H   FFCEA8H   000200H   BYTE   UNIT     HCONST         ?HC?ZF_DRIVER_EEPROM
FFCEA9H   FFCFD7H   00012FH   BYTE   UNIT     HCONST         ?HC?ZF_DEVICE_DL1A
FFCFD8H   FFD0CDH   0000F6H   BYTE   UNIT     HCONST         ?HC?FUNCTION
FFD0CEH   FFD19DH   0000D0H   BYTE   UNIT     HCONST         ?HC?ZF_DEVICE_IMU963RA
FFD19EH   FFD244H   0000A7H   BYTE   UNIT     HCONST         ?HC?ZF_DEVICE_IMU660RA
FFD245H   FFD2E8H   0000A4H   BYTE   UNIT     HCONST         ?HC?SEEKFREE_ASSISTANT
FFD2E9H   FFD38AH   0000A2H   BYTE   UNIT     HCONST         ?HC?ZF_DEVICE_GPS_TAU1201
L251 LINKER/LOCATER V4.66.93.0                                                        10/15/2025  21:40:28  PAGE 8


FFD38BH   FFD414H   00008AH   BYTE   UNIT     HCONST         ?HC?ZF_DRIVER_PWM
FFD415H   FFD49CH   000088H   BYTE   UNIT     HCONST         ?HC?ZF_DEVICE_ICM20602
FFD49DH   FFD4DBH   00003FH   BYTE   UNIT     HCONST         ?HC?ZF_COMMON_FUNCTION
FFD4DCH   FFD50FH   000034H   BYTE   UNIT     HCONST         ?HC?ZF_DEVICE_WIRELESS_UART
FFD510H   FFD542H   000033H   BYTE   UNIT     HCONST         ?HC?ZF_DEVICE_TFT180
FFD543H   FFD575H   000033H   BYTE   UNIT     HCONST         ?HC?ZF_DEVICE_IPS114
FFD576H   FFD5A8H   000033H   BYTE   UNIT     HCONST         ?HC?ZF_DEVICE_IPS200
FFD5A9H   FFD5D8H   000030H   BYTE   UNIT     HCONST         ?HC?KEY
FFD5D9H   FFD607H   00002FH   BYTE   UNIT     HCONST         ?HC?ZF_DRIVER_SOFT_IIC
FFD608H   FFD636H   00002FH   BYTE   UNIT     HCONST         ?HC?ZF_DRIVER_SOFT_SPI
FFD637H   FFD664H   00002EH   BYTE   UNIT     HCONST         ?HC?ZF_DRIVER_ENCODER
FFD665H   FFD692H   00002EH   BYTE   UNIT     HCONST         ?HC?ZF_DEVICE_BLE6A20
FFD693H   FFD6BDH   00002BH   BYTE   UNIT     HCONST         ?HC?ZF_COMMON_FIFO
FFD6BEH   FFD6E8H   00002BH   BYTE   UNIT     HCONST         ?HC?ZF_DRIVER_GPIO
FFD6E9H   FFD713H   00002BH   BYTE   UNIT     HCONST         ?HC?ZF_DRIVER_UART
FFD714H   FFD73DH   00002AH   BYTE   UNIT     HCONST         ?HC?ZF_DRIVER_ADC
FFD73EH   FFD767H   00002AH   BYTE   UNIT     HCONST         ?HC?ZF_DRIVER_SPI
FFD768H   FFD78FH   000028H   BYTE   UNIT     HCONST         ?HC?MENU
FFD790H   FFD7B4H   000025H   BYTE   UNIT     HCONST         ?HC?ZF_COMMON_DEBUG
FFD7B5H   FFD7CFH   00001BH   BYTE   UNIT     HCONST         ?HC?ZF_DEVICE_IMU660RB

* * * * * * * * *   R E M O V E D     S E G M E N T S   * * * * * * * *
   *DEL*:           00003EH   BYTE   INSEG    CODE           ?PR?DEBUG_READ_BUFFER?ZF_COMMON_DEBUG
   *DEL*:           000045H   BYTE   INSEG    CODE           ?PR?DEBUG_SEND_BUFFER?ZF_COMMON_DEBUG
   *DEL*:           000004H   BYTE   UNIT     XDATA          ?XD?DEBUG_SEND_BUFFER?ZF_COMMON_DEBUG
   *DEL*:           000004H   BYTE   UNIT     XDATA          ?XD?DEBUG_READ_BUFFER?ZF_COMMON_DEBUG
   *DEL*:           00043DH   BYTE   INSEG    CODE           ?PR?FIFO_READ_BUFFER?ZF_COMMON_FIFO
   *DEL*:           0000C7H   BYTE   INSEG    CODE           ?PR?FIFO_CLEAR?ZF_COMMON_FIFO
   *DEL*:           00004DH   BYTE   INSEG    CODE           ?PR?FIFO_END_OFFSET?ZF_COMMON_FIFO
   *DEL*:           000033H   BYTE   INSEG    CODE           ?PR?FIFO_USED?ZF_COMMON_FIFO
   *DEL*:           000002H   BYTE   UNIT     XDATA          ?XD?FIFO_CLEAR?ZF_COMMON_FIFO
   *DEL*:           000014H   BYTE   UNIT     XDATA          ?XD?FIFO_READ_BUFFER?ZF_COMMON_FIFO
   *DEL*:           0002D1H   BYTE   INSEG    CODE           ?PR?FUNC_DOUBLE_TO_STR?ZF_COMMON_FUNCTION
   *DEL*:           000245H   BYTE   INSEG    CODE           ?PR?FUNC_STR_TO_DOUBLE?ZF_COMMON_FUNCTION
   *DEL*:           000298H   BYTE   INSEG    CODE           ?PR?FUNC_FLOAT_TO_STR?ZF_COMMON_FUNCTION
   *DEL*:           00019DH   BYTE   INSEG    CODE           ?PR?FUNC_STR_TO_FLOAT?ZF_COMMON_FUNCTION
   *DEL*:           000024H   BYTE   INSEG    CODE           ?PR?FUNC_SOFT_DELAY?ZF_COMMON_FUNCTION
   *DEL*:           0000CCH   BYTE   INSEG    CODE           ?PR?FUNC_UINT_TO_STR?ZF_COMMON_FUNCTION
   *DEL*:           000079H   BYTE   INSEG    CODE           ?PR?FUNC_STR_TO_UINT?ZF_COMMON_FUNCTION
   *DEL*:           0000FAH   BYTE   INSEG    CODE           ?PR?FUNC_HEX_TO_STR?ZF_COMMON_FUNCTION
   *DEL*:           00011BH   BYTE   INSEG    CODE           ?PR?FUNC_STR_TO_HEX?ZF_COMMON_FUNCTION
   *DEL*:           000149H   BYTE   INSEG    CODE           ?PR?FUNC_INT_TO_STR?ZF_COMMON_FUNCTION
   *DEL*:           0000BAH   BYTE   INSEG    CODE           ?PR?FUNC_STR_TO_INT?ZF_COMMON_FUNCTION
   *DEL*:           000019H   BYTE   INSEG    CODE           ?PR?FUNC_GET_GREATEST_COMMON_DIVISOR?ZF_COMMON_FUNCTION
   *DEL*:           000004H   BYTE   UNIT     XDATA          ?XD?FUNC_SOFT_DELAY?ZF_COMMON_FUNCTION
   *DEL*:           000005H   BYTE   UNIT     XDATA          ?XD?FUNC_STR_TO_INT?ZF_COMMON_FUNCTION
   *DEL*:           000019H   BYTE   UNIT     XDATA          ?XD?FUNC_INT_TO_STR?ZF_COMMON_FUNCTION
   *DEL*:           000004H   BYTE   UNIT     XDATA          ?XD?FUNC_STR_TO_UINT?ZF_COMMON_FUNCTION
   *DEL*:           000015H   BYTE   UNIT     XDATA          ?XD?FUNC_UINT_TO_STR?ZF_COMMON_FUNCTION
   *DEL*:           00000DH   BYTE   UNIT     XDATA          ?XD?FUNC_STR_TO_FLOAT?ZF_COMMON_FUNCTION
   *DEL*:           000026H   BYTE   UNIT     XDATA          ?XD?FUNC_FLOAT_TO_STR?ZF_COMMON_FUNCTION
   *DEL*:           000019H   BYTE   UNIT     XDATA          ?XD?FUNC_STR_TO_DOUBLE?ZF_COMMON_FUNCTION
   *DEL*:           000038H   BYTE   UNIT     XDATA          ?XD?FUNC_DOUBLE_TO_STR?ZF_COMMON_FUNCTION
   *DEL*:           00000AH   BYTE   UNIT     XDATA          ?XD?FUNC_STR_TO_HEX?ZF_COMMON_FUNCTION
   *DEL*:           000021H   BYTE   UNIT     XDATA          ?XD?FUNC_HEX_TO_STR?ZF_COMMON_FUNCTION
   *DEL*:           000003H   BYTE   INSEG    CODE           ?PR?INTERRUPT_GLOBAL_DISABLE?ZF_COMMON_INTERRUPT
   *DEL*:           00006EH   BYTE   INSEG    CODE           ?PR?ADC_MEAN_FILTER_CONVERT?ZF_DRIVER_ADC
   *DEL*:           000004H   BYTE   UNIT     XDATA          ?XD?ADC_MEAN_FILTER_CONVERT?ZF_DRIVER_ADC
   *DEL*:           00006BH   BYTE   INSEG    CODE           ?PR?SYSTEM_DELAY_US?ZF_DRIVER_DELAY
   *DEL*:           00001CH   BYTE   INSEG    CODE           ?PR?IAP_SET_TPS?ZF_DRIVER_EEPROM
   *DEL*:           00000BH   BYTE   INSEG    CODE           ?PR?EEPROM_TRIG?ZF_DRIVER_EEPROM
   *DEL*:           000028H   BYTE   INSEG    CODE           ?PR?IAP_ERASE_PAGE?ZF_DRIVER_EEPROM
   *DEL*:           000004H   BYTE   INSEG    CODE           ?PR?IAP_IDLE?ZF_DRIVER_EEPROM
   *DEL*:           000049H   BYTE   INSEG    CODE           ?PR?IAP_READ_BUFF?ZF_DRIVER_EEPROM
   *DEL*:           0000F8H   BYTE   INSEG    CODE           ?PR?EXTERN_IAP_WRITE_BUFF?ZF_DRIVER_EEPROM
L251 LINKER/LOCATER V4.66.93.0                                                        10/15/2025  21:40:28  PAGE 9


   *DEL*:           000049H   BYTE   INSEG    CODE           ?PR?IAP_WRITE_BUFF?ZF_DRIVER_EEPROM
   *DEL*:           000023H   BYTE   INSEG    CODE           ?PR?IAP_READ_BYTE?ZF_DRIVER_EEPROM
   *DEL*:           000007H   BYTE   INSEG    CODE           ?PR?IAP_INIT?ZF_DRIVER_EEPROM
   *DEL*:           00002AH   BYTE   INSEG    CODE           ?PR?IAP_WRITE_BYTE?ZF_DRIVER_EEPROM
   *DEL*:           00000DH   BYTE   INSEG    CODE           ?PR?IAP_GET_CMD_STATE?ZF_DRIVER_EEPROM
   *DEL*:           000000H.1 BIT    UNIT     BIT            ?BI?IAP_READ_BYTE?ZF_DRIVER_EEPROM
   *DEL*:           000000H.1 BIT    UNIT     BIT            ?BI?IAP_WRITE_BYTE?ZF_DRIVER_EEPROM
   *DEL*:           000006H   BYTE   UNIT     XDATA          ?XD?IAP_READ_BUFF?ZF_DRIVER_EEPROM
   *DEL*:           000006H   BYTE   UNIT     XDATA          ?XD?IAP_WRITE_BUFF?ZF_DRIVER_EEPROM
   *DEL*:           000000H.1 BIT    UNIT     BIT            ?BI?IAP_ERASE_PAGE?ZF_DRIVER_EEPROM
   *DEL*:           000206H   BYTE   UNIT     XDATA          ?XD?EXTERN_IAP_WRITE_BUFF?ZF_DRIVER_EEPROM
   *DEL*:           00001BH   BYTE   INSEG    CODE           ?PR?GPIO_TOGGLE_LEVEL?ZF_DRIVER_GPIO
   *DEL*:           00025FH   BYTE   INSEG    CODE           ?PR?PWM_SET_FREQ?ZF_DRIVER_PWM
   *DEL*:           000010H   BYTE   UNIT     XDATA          ?XD?PWM_SET_FREQ?ZF_DRIVER_PWM
   *DEL*:           000052H   BYTE   INSEG    CODE           ?PR?SOFT_IIC_WRITE_8BIT_REGISTER?ZF_DRIVER_SOFT_IIC
   *DEL*:           00010DH   BYTE   INSEG    CODE           ?PR?SOFT_IIC_READ_16BIT_REGISTERS?ZF_DRIVER_SOFT_IIC
   *DEL*:           00006EH   BYTE   INSEG    CODE           ?PR?SOFT_IIC_SCCB_READ_REGISTER?ZF_DRIVER_SOFT_IIC
   *DEL*:           0000A5H   BYTE   INSEG    CODE           ?PR?SOFT_IIC_READ_16BIT_REGISTER?ZF_DRIVER_SOFT_IIC
   *DEL*:           000176H   BYTE   INSEG    CODE           ?PR?SOFT_IIC_TRANSFER_16BIT_ARRAY?ZF_DRIVER_SOFT_IIC
   *DEL*:           0000D0H   BYTE   INSEG    CODE           ?PR?SOFT_IIC_WRITE_16BIT_REGISTERS?ZF_DRIVER_SOFT_IIC
   *DEL*:           000052H   BYTE   INSEG    CODE           ?PR?SOFT_IIC_SCCB_WRITE_REGISTER?ZF_DRIVER_SOFT_IIC
   *DEL*:           00004CH   BYTE   INSEG    CODE           ?PR?SOFT_IIC_READ_8BIT?ZF_DRIVER_SOFT_IIC
   *DEL*:           0000BAH   BYTE   INSEG    CODE           ?PR?SOFT_IIC_READ_8BIT_ARRAY?ZF_DRIVER_SOFT_IIC
   *DEL*:           000082H   BYTE   INSEG    CODE           ?PR?SOFT_IIC_WRITE_16BIT_REGISTER?ZF_DRIVER_SOFT_IIC
   *DEL*:           000043H   BYTE   INSEG    CODE           ?PR?SOFT_IIC_WRITE_8BIT?ZF_DRIVER_SOFT_IIC
   *DEL*:           000098H   BYTE   INSEG    CODE           ?PR?SOFT_IIC_WRITE_8BIT_ARRAY?ZF_DRIVER_SOFT_IIC
   *DEL*:           00006FH   BYTE   INSEG    CODE           ?PR?SOFT_IIC_READ_16BIT?ZF_DRIVER_SOFT_IIC
   *DEL*:           0000E1H   BYTE   INSEG    CODE           ?PR?SOFT_IIC_READ_16BIT_ARRAY?ZF_DRIVER_SOFT_IIC
   *DEL*:           0000A6H   BYTE   INSEG    CODE           ?PR?SOFT_IIC_INIT?ZF_DRIVER_SOFT_IIC
   *DEL*:           0000D7H   BYTE   INSEG    CODE           ?PR?SOFT_IIC_READ_8BIT_REGISTERS?ZF_DRIVER_SOFT_IIC
   *DEL*:           00005CH   BYTE   INSEG    CODE           ?PR?SOFT_IIC_WRITE_16BIT?ZF_DRIVER_SOFT_IIC
   *DEL*:           0000B4H   BYTE   INSEG    CODE           ?PR?SOFT_IIC_WRITE_16BIT_ARRAY?ZF_DRIVER_SOFT_IIC
   *DEL*:           000069H   BYTE   INSEG    CODE           ?PR?SOFT_IIC_READ_8BIT_REGISTER?ZF_DRIVER_SOFT_IIC
   *DEL*:           000130H   BYTE   INSEG    CODE           ?PR?SOFT_IIC_TRANSFER_8BIT_ARRAY?ZF_DRIVER_SOFT_IIC
   *DEL*:           0000A5H   BYTE   INSEG    CODE           ?PR?SOFT_IIC_WRITE_8BIT_REGISTERS?ZF_DRIVER_SOFT_IIC
   *DEL*:           000001H   BYTE   UNIT     XDATA          ?XD?SOFT_IIC_WRITE_8BIT?ZF_DRIVER_SOFT_IIC
   *DEL*:           000008H   BYTE   UNIT     XDATA          ?XD?SOFT_IIC_WRITE_8BIT_ARRAY?ZF_DRIVER_SOFT_IIC
   *DEL*:           000002H   BYTE   UNIT     XDATA          ?XD?SOFT_IIC_WRITE_16BIT?ZF_DRIVER_SOFT_IIC
   *DEL*:           000008H   BYTE   UNIT     XDATA          ?XD?SOFT_IIC_WRITE_16BIT_ARRAY?ZF_DRIVER_SOFT_IIC
   *DEL*:           000002H   BYTE   UNIT     XDATA          ?XD?SOFT_IIC_WRITE_8BIT_REGISTER?ZF_DRIVER_SOFT_IIC
   *DEL*:           000009H   BYTE   UNIT     XDATA          ?XD?SOFT_IIC_WRITE_8BIT_REGISTERS?ZF_DRIVER_SOFT_IIC
   *DEL*:           000004H   BYTE   UNIT     XDATA          ?XD?SOFT_IIC_WRITE_16BIT_REGISTER?ZF_DRIVER_SOFT_IIC
   *DEL*:           00000AH   BYTE   UNIT     XDATA          ?XD?SOFT_IIC_WRITE_16BIT_REGISTERS?ZF_DRIVER_SOFT_IIC
   *DEL*:           000001H   BYTE   UNIT     XDATA          ?XD?SOFT_IIC_READ_8BIT?ZF_DRIVER_SOFT_IIC
   *DEL*:           000008H   BYTE   UNIT     XDATA          ?XD?SOFT_IIC_READ_8BIT_ARRAY?ZF_DRIVER_SOFT_IIC
   *DEL*:           000002H   BYTE   UNIT     XDATA          ?XD?SOFT_IIC_READ_16BIT?ZF_DRIVER_SOFT_IIC
   *DEL*:           000008H   BYTE   UNIT     XDATA          ?XD?SOFT_IIC_READ_16BIT_ARRAY?ZF_DRIVER_SOFT_IIC
   *DEL*:           000002H   BYTE   UNIT     XDATA          ?XD?SOFT_IIC_READ_8BIT_REGISTER?ZF_DRIVER_SOFT_IIC
   *DEL*:           000009H   BYTE   UNIT     XDATA          ?XD?SOFT_IIC_READ_8BIT_REGISTERS?ZF_DRIVER_SOFT_IIC
   *DEL*:           000004H   BYTE   UNIT     XDATA          ?XD?SOFT_IIC_READ_16BIT_REGISTER?ZF_DRIVER_SOFT_IIC
   *DEL*:           00000AH   BYTE   UNIT     XDATA          ?XD?SOFT_IIC_READ_16BIT_REGISTERS?ZF_DRIVER_SOFT_IIC
   *DEL*:           000010H   BYTE   UNIT     XDATA          ?XD?SOFT_IIC_TRANSFER_8BIT_ARRAY?ZF_DRIVER_SOFT_IIC
   *DEL*:           000010H   BYTE   UNIT     XDATA          ?XD?SOFT_IIC_TRANSFER_16BIT_ARRAY?ZF_DRIVER_SOFT_IIC
   *DEL*:           000002H   BYTE   UNIT     XDATA          ?XD?SOFT_IIC_SCCB_WRITE_REGISTER?ZF_DRIVER_SOFT_IIC
   *DEL*:           000002H   BYTE   UNIT     XDATA          ?XD?SOFT_IIC_SCCB_READ_REGISTER?ZF_DRIVER_SOFT_IIC
   *DEL*:           000009H   BYTE   UNIT     XDATA          ?XD?SOFT_IIC_INIT?ZF_DRIVER_SOFT_IIC
   *DEL*:           00023EH   BYTE   INSEG    CODE           ?PR?SOFT_SPI_INIT?ZF_DRIVER_SOFT_SPI
   *DEL*:           0000BBH   BYTE   INSEG    CODE           ?PR?SOFT_SPI_READ_8BIT_REGISTERS?ZF_DRIVER_SOFT_SPI
   *DEL*:           00004FH   BYTE   INSEG    CODE           ?PR?SOFT_SPI_WRITE_16BIT?ZF_DRIVER_SOFT_SPI
   *DEL*:           00010EH   BYTE   INSEG    CODE           ?PR?SOFT_SPI_8BIT_DATA_HANDLER?ZF_DRIVER_SOFT_SPI
   *DEL*:           0000A0H   BYTE   INSEG    CODE           ?PR?SOFT_SPI_WRITE_16BIT_ARRAY?ZF_DRIVER_SOFT_SPI
   *DEL*:           00005EH   BYTE   INSEG    CODE           ?PR?SOFT_SPI_READ_8BIT_REGISTER?ZF_DRIVER_SOFT_SPI
   *DEL*:           000102H   BYTE   INSEG    CODE           ?PR?SOFT_SPI_TRANSFER_8BIT?ZF_DRIVER_SOFT_SPI
   *DEL*:           0000ADH   BYTE   INSEG    CODE           ?PR?SOFT_SPI_WRITE_8BIT_REGISTERS?ZF_DRIVER_SOFT_SPI
   *DEL*:           00005AH   BYTE   INSEG    CODE           ?PR?SOFT_SPI_WRITE_8BIT_REGISTER?ZF_DRIVER_SOFT_SPI
L251 LINKER/LOCATER V4.66.93.0                                                        10/15/2025  21:40:28  PAGE 10


   *DEL*:           0000B8H   BYTE   INSEG    CODE           ?PR?SOFT_SPI_READ_16BIT_REGISTERS?ZF_DRIVER_SOFT_SPI
   *DEL*:           000133H   BYTE   INSEG    CODE           ?PR?SOFT_SPI_16BIT_DATA_HANDLER?ZF_DRIVER_SOFT_SPI
   *DEL*:           00006AH   BYTE   INSEG    CODE           ?PR?SOFT_SPI_READ_16BIT_REGISTER?ZF_DRIVER_SOFT_SPI
   *DEL*:           000104H   BYTE   INSEG    CODE           ?PR?SOFT_SPI_TRANSFER_16BIT?ZF_DRIVER_SOFT_SPI
   *DEL*:           0000A7H   BYTE   INSEG    CODE           ?PR?SOFT_SPI_WRITE_16BIT_REGISTERS?ZF_DRIVER_SOFT_SPI
   *DEL*:           000051H   BYTE   INSEG    CODE           ?PR?SOFT_SPI_READ_8BIT?ZF_DRIVER_SOFT_SPI
   *DEL*:           0000AEH   BYTE   INSEG    CODE           ?PR?SOFT_SPI_READ_8BIT_ARRAY?ZF_DRIVER_SOFT_SPI
   *DEL*:           000060H   BYTE   INSEG    CODE           ?PR?SOFT_SPI_WRITE_16BIT_REGISTER?ZF_DRIVER_SOFT_SPI
   *DEL*:           00004BH   BYTE   INSEG    CODE           ?PR?SOFT_SPI_WRITE_8BIT?ZF_DRIVER_SOFT_SPI
   *DEL*:           0000A0H   BYTE   INSEG    CODE           ?PR?SOFT_SPI_WRITE_8BIT_ARRAY?ZF_DRIVER_SOFT_SPI
   *DEL*:           000026H   BYTE   INSEG    CODE           ?PR?SOFT_SPI_DELAY?ZF_DRIVER_SOFT_SPI
   *DEL*:           000056H   BYTE   INSEG    CODE           ?PR?SOFT_SPI_READ_16BIT?ZF_DRIVER_SOFT_SPI
   *DEL*:           0000B1H   BYTE   INSEG    CODE           ?PR?SOFT_SPI_READ_16BIT_ARRAY?ZF_DRIVER_SOFT_SPI
   *DEL*:           000004H   BYTE   UNIT     XDATA          ?XD?SOFT_SPI_DELAY?ZF_DRIVER_SOFT_SPI
   *DEL*:           000003H   BYTE   UNIT     XDATA          ?XD?SOFT_SPI_8BIT_DATA_HANDLER?ZF_DRIVER_SOFT_SPI
   *DEL*:           000005H   BYTE   UNIT     XDATA          ?XD?SOFT_SPI_16BIT_DATA_HANDLER?ZF_DRIVER_SOFT_SPI
   *DEL*:           000001H   BYTE   UNIT     XDATA          ?XD?SOFT_SPI_WRITE_8BIT?ZF_DRIVER_SOFT_SPI
   *DEL*:           000008H   BYTE   UNIT     XDATA          ?XD?SOFT_SPI_WRITE_8BIT_ARRAY?ZF_DRIVER_SOFT_SPI
   *DEL*:           000002H   BYTE   UNIT     XDATA          ?XD?SOFT_SPI_WRITE_16BIT?ZF_DRIVER_SOFT_SPI
   *DEL*:           000008H   BYTE   UNIT     XDATA          ?XD?SOFT_SPI_WRITE_16BIT_ARRAY?ZF_DRIVER_SOFT_SPI
   *DEL*:           000002H   BYTE   UNIT     XDATA          ?XD?SOFT_SPI_WRITE_8BIT_REGISTER?ZF_DRIVER_SOFT_SPI
   *DEL*:           000009H   BYTE   UNIT     XDATA          ?XD?SOFT_SPI_WRITE_8BIT_REGISTERS?ZF_DRIVER_SOFT_SPI
   *DEL*:           000004H   BYTE   UNIT     XDATA          ?XD?SOFT_SPI_WRITE_16BIT_REGISTER?ZF_DRIVER_SOFT_SPI
   *DEL*:           00000AH   BYTE   UNIT     XDATA          ?XD?SOFT_SPI_WRITE_16BIT_REGISTERS?ZF_DRIVER_SOFT_SPI
   *DEL*:           000001H   BYTE   UNIT     XDATA          ?XD?SOFT_SPI_READ_8BIT?ZF_DRIVER_SOFT_SPI
   *DEL*:           000008H   BYTE   UNIT     XDATA          ?XD?SOFT_SPI_READ_8BIT_ARRAY?ZF_DRIVER_SOFT_SPI
   *DEL*:           000001H   BYTE   UNIT     XDATA          ?XD?SOFT_SPI_READ_16BIT?ZF_DRIVER_SOFT_SPI
   *DEL*:           000008H   BYTE   UNIT     XDATA          ?XD?SOFT_SPI_READ_16BIT_ARRAY?ZF_DRIVER_SOFT_SPI
   *DEL*:           000002H   BYTE   UNIT     XDATA          ?XD?SOFT_SPI_READ_8BIT_REGISTER?ZF_DRIVER_SOFT_SPI
   *DEL*:           000009H   BYTE   UNIT     XDATA          ?XD?SOFT_SPI_READ_8BIT_REGISTERS?ZF_DRIVER_SOFT_SPI
   *DEL*:           000004H   BYTE   UNIT     XDATA          ?XD?SOFT_SPI_READ_16BIT_REGISTER?ZF_DRIVER_SOFT_SPI
   *DEL*:           00000AH   BYTE   UNIT     XDATA          ?XD?SOFT_SPI_READ_16BIT_REGISTERS?ZF_DRIVER_SOFT_SPI
   *DEL*:           00000CH   BYTE   UNIT     XDATA          ?XD?SOFT_SPI_TRANSFER_8BIT?ZF_DRIVER_SOFT_SPI
   *DEL*:           00000CH   BYTE   UNIT     XDATA          ?XD?SOFT_SPI_TRANSFER_16BIT?ZF_DRIVER_SOFT_SPI
   *DEL*:           000011H   BYTE   UNIT     XDATA          ?XD?SOFT_SPI_INIT?ZF_DRIVER_SOFT_SPI
   *DEL*:           00001BH   BYTE   INSEG    CODE           ?PR?SPI_WRITE_8BIT_REGISTER?ZF_DRIVER_SPI
   *DEL*:           00007FH   BYTE   INSEG    CODE           ?PR?SPI_READ_16BIT_REGISTERS?ZF_DRIVER_SPI
   *DEL*:           000057H   BYTE   INSEG    CODE           ?PR?SPI_READ_16BIT_REGISTER?ZF_DRIVER_SPI
   *DEL*:           0000C3H   BYTE   INSEG    CODE           ?PR?SPI_TRANSFER_16BIT?ZF_DRIVER_SPI
   *DEL*:           000060H   BYTE   INSEG    CODE           ?PR?SPI_WRITE_16BIT_REGISTERS?ZF_DRIVER_SPI
   *DEL*:           000005H   BYTE   INSEG    CODE           ?PR?SPI_READ_8BIT?ZF_DRIVER_SPI
   *DEL*:           000037H   BYTE   INSEG    CODE           ?PR?SPI_READ_8BIT_ARRAY?ZF_DRIVER_SPI
   *DEL*:           000045H   BYTE   INSEG    CODE           ?PR?SPI_WRITE_16BIT_REGISTER?ZF_DRIVER_SPI
   *DEL*:           000036H   BYTE   INSEG    CODE           ?PR?SPI_WRITE_8BIT_ARRAY?ZF_DRIVER_SPI
   *DEL*:           000021H   BYTE   INSEG    CODE           ?PR?SPI_READ_16BIT?ZF_DRIVER_SPI
   *DEL*:           000051H   BYTE   INSEG    CODE           ?PR?SPI_READ_16BIT_ARRAY?ZF_DRIVER_SPI
   *DEL*:           000044H   BYTE   INSEG    CODE           ?PR?SPI_READ_8BIT_REGISTERS?ZF_DRIVER_SPI
   *DEL*:           000056H   BYTE   INSEG    CODE           ?PR?SPI_READ_DAT?ZF_DRIVER_SPI
   *DEL*:           00004CH   BYTE   INSEG    CODE           ?PR?SPI_WRITE_16BIT_ARRAY?ZF_DRIVER_SPI
   *DEL*:           000014H   BYTE   INSEG    CODE           ?PR?SPI_READ_8BIT_REGISTER?ZF_DRIVER_SPI
   *DEL*:           000077H   BYTE   INSEG    CODE           ?PR?SPI_TRANSFER_8BIT?ZF_DRIVER_SPI
   *DEL*:           000043H   BYTE   INSEG    CODE           ?PR?SPI_WRITE_8BIT_REGISTERS?ZF_DRIVER_SPI
   *DEL*:           000006H   BYTE   UNIT     XDATA          ?XD?SPI_WRITE_8BIT_ARRAY?ZF_DRIVER_SPI
   *DEL*:           000006H   BYTE   UNIT     XDATA          ?XD?SPI_WRITE_16BIT_ARRAY?ZF_DRIVER_SPI
   *DEL*:           000006H   BYTE   UNIT     XDATA          ?XD?SPI_WRITE_8BIT_REGISTERS?ZF_DRIVER_SPI
   *DEL*:           000002H   BYTE   UNIT     XDATA          ?XD?SPI_WRITE_16BIT_REGISTER?ZF_DRIVER_SPI
   *DEL*:           000008H   BYTE   UNIT     XDATA          ?XD?SPI_WRITE_16BIT_REGISTERS?ZF_DRIVER_SPI
   *DEL*:           000006H   BYTE   UNIT     XDATA          ?XD?SPI_READ_8BIT_ARRAY?ZF_DRIVER_SPI
   *DEL*:           000006H   BYTE   UNIT     XDATA          ?XD?SPI_READ_16BIT_ARRAY?ZF_DRIVER_SPI
   *DEL*:           000006H   BYTE   UNIT     XDATA          ?XD?SPI_READ_8BIT_REGISTERS?ZF_DRIVER_SPI
   *DEL*:           000002H   BYTE   UNIT     XDATA          ?XD?SPI_READ_16BIT_REGISTER?ZF_DRIVER_SPI
   *DEL*:           000008H   BYTE   UNIT     XDATA          ?XD?SPI_READ_16BIT_REGISTERS?ZF_DRIVER_SPI
   *DEL*:           00000AH   BYTE   UNIT     XDATA          ?XD?SPI_TRANSFER_8BIT?ZF_DRIVER_SPI
   *DEL*:           00000AH   BYTE   UNIT     XDATA          ?XD?SPI_TRANSFER_16BIT?ZF_DRIVER_SPI
   *DEL*:           000052H   BYTE   INSEG    CODE           ?PR?UART_WRITE_STRING?ZF_DRIVER_UART
L251 LINKER/LOCATER V4.66.93.0                                                        10/15/2025  21:40:28  PAGE 11


   *DEL*:           000053H   BYTE   INSEG    CODE           ?PR?UART_READ_BYTE?ZF_DRIVER_UART
   *DEL*:           000104H   BYTE   UNIT     XDATA          ?XD?UART_WRITE_STRING?ZF_DRIVER_UART
   *DEL*:           00000FH   BYTE   INSEG    CODE           ?PR?SET_TOF_TYPE?ZF_DEVICE_TYPE
   *DEL*:           000043H   BYTE   INSEG    CODE           ?PR?SET_GPS_TYPE?ZF_DEVICE_TYPE
   *DEL*:           000043H   BYTE   INSEG    CODE           ?PR?SET_WIRELESS_TYPE?ZF_DEVICE_TYPE
   *DEL*:           000061H   BYTE   INSEG    CODE           ?PR?TFT180_DRAW_POINT?ZF_DEVICE_TFT180
   *DEL*:           0000F3H   BYTE   INSEG    CODE           ?PR?TFT180_SHOW_UINT16?ZF_DEVICE_TFT180
   *DEL*:           000109H   BYTE   INSEG    CODE           ?PR?TFT180_SHOW_INT32?ZF_DEVICE_TFT180
   *DEL*:           0001E8H   BYTE   INSEG    CODE           ?PR?TFT180_SHOW_WAVE?ZF_DEVICE_TFT180
   *DEL*:           0000C3H   BYTE   INSEG    CODE           ?PR?TFT180_SHOW_UINT8?ZF_DEVICE_TFT180
   *DEL*:           0000F3H   BYTE   INSEG    CODE           ?PR?TFT180_SHOW_INT8?ZF_DEVICE_TFT180
   *DEL*:           000002H   BYTE   UNIT     XDATA          ?XD?TFT180_DRAW_POINT?ZF_DEVICE_TFT180
   *DEL*:           000005H   BYTE   UNIT     XDATA          ?XD?TFT180_SHOW_INT8?ZF_DEVICE_TFT180
   *DEL*:           000005H   BYTE   UNIT     XDATA          ?XD?TFT180_SHOW_UINT8?ZF_DEVICE_TFT180
   *DEL*:           000008H   BYTE   UNIT     XDATA          ?XD?TFT180_SHOW_UINT16?ZF_DEVICE_TFT180
   *DEL*:           000028H   BYTE   UNIT     XDATA          ?XD?TFT180_SHOW_INT32?ZF_DEVICE_TFT180
   *DEL*:           00001CH   BYTE   UNIT     XDATA          ?XD?TFT180_SHOW_WAVE?ZF_DEVICE_TFT180
   *DEL*:           0001C4H   BYTE   INSEG    CODE           ?PR?IPS114_SHOW_FLOAT?ZF_DEVICE_IPS114
   *DEL*:           000061H   BYTE   INSEG    CODE           ?PR?IPS114_DRAW_POINT?ZF_DEVICE_IPS114
   *DEL*:           0000A9H   BYTE   INSEG    CODE           ?PR?IPS114_SHOW_STRING?ZF_DEVICE_IPS114
   *DEL*:           0000E0H   BYTE   INSEG    CODE           ?PR?IPS114_SHOW_CHAR?ZF_DEVICE_IPS114
   *DEL*:           0000F3H   BYTE   INSEG    CODE           ?PR?IPS114_SHOW_UINT16?ZF_DEVICE_IPS114
   *DEL*:           00000DH   BYTE   INSEG    CODE           ?PR?IPS114_SET_COLOR?ZF_DEVICE_IPS114
   *DEL*:           000109H   BYTE   INSEG    CODE           ?PR?IPS114_SHOW_INT32?ZF_DEVICE_IPS114
   *DEL*:           000133H   BYTE   INSEG    CODE           ?PR?IPS114_SHOW_INT16?ZF_DEVICE_IPS114
   *DEL*:           0001E8H   BYTE   INSEG    CODE           ?PR?IPS114_SHOW_WAVE?ZF_DEVICE_IPS114
   *DEL*:           000027H   BYTE   INSEG    CODE           ?PR?IPS114_SET_DIR?ZF_DEVICE_IPS114
   *DEL*:           0001D0H   BYTE   INSEG    CODE           ?PR?IPS114_SHOW_CHINESE?ZF_DEVICE_IPS114
   *DEL*:           00005AH   BYTE   INSEG    CODE           ?PR?IPS114_CLEAR?ZF_DEVICE_IPS114
   *DEL*:           0000C3H   BYTE   INSEG    CODE           ?PR?IPS114_SHOW_UINT8?ZF_DEVICE_IPS114
   *DEL*:           0000F3H   BYTE   INSEG    CODE           ?PR?IPS114_SHOW_INT8?ZF_DEVICE_IPS114
   *DEL*:           000016H   BYTE   INSEG    CODE           ?PR?IPS114_WRITE_INDEX?ZF_DEVICE_IPS114
   *DEL*:           0001CFH   BYTE   INSEG    CODE           ?PR?IPS114_SET_REGION?ZF_DEVICE_IPS114
   *DEL*:           00025AH   BYTE   INSEG    CODE           ?PR?IPS114_INIT?ZF_DEVICE_IPS114
   *DEL*:           000004H   BYTE   UNIT     XDATA          ?XD?IPS114_SET_REGION?ZF_DEVICE_IPS114
   *DEL*:           000002H   BYTE   UNIT     XDATA          ?XD?IPS114_CLEAR?ZF_DEVICE_IPS114
   *DEL*:           000002H   BYTE   UNIT     XDATA          ?XD?IPS114_DRAW_POINT?ZF_DEVICE_IPS114
   *DEL*:           000004H   BYTE   UNIT     XDATA          ?XD?IPS114_SHOW_CHAR?ZF_DEVICE_IPS114
   *DEL*:           000006H   BYTE   UNIT     XDATA          ?XD?IPS114_SHOW_STRING?ZF_DEVICE_IPS114
   *DEL*:           000005H   BYTE   UNIT     XDATA          ?XD?IPS114_SHOW_INT8?ZF_DEVICE_IPS114
   *DEL*:           000005H   BYTE   UNIT     XDATA          ?XD?IPS114_SHOW_UINT8?ZF_DEVICE_IPS114
   *DEL*:           000008H   BYTE   UNIT     XDATA          ?XD?IPS114_SHOW_INT16?ZF_DEVICE_IPS114
   *DEL*:           000008H   BYTE   UNIT     XDATA          ?XD?IPS114_SHOW_UINT16?ZF_DEVICE_IPS114
   *DEL*:           000028H   BYTE   UNIT     XDATA          ?XD?IPS114_SHOW_INT32?ZF_DEVICE_IPS114
   *DEL*:           000031H   BYTE   UNIT     XDATA          ?XD?IPS114_SHOW_FLOAT?ZF_DEVICE_IPS114
   *DEL*:           00001CH   BYTE   UNIT     XDATA          ?XD?IPS114_SHOW_WAVE?ZF_DEVICE_IPS114
   *DEL*:           000015H   BYTE   UNIT     XDATA          ?XD?IPS114_SHOW_CHINESE?ZF_DEVICE_IPS114
   *DEL*:           0001C4H   BYTE   INSEG    CODE           ?PR?IPS200_SHOW_FLOAT?ZF_DEVICE_IPS200
   *DEL*:           000061H   BYTE   INSEG    CODE           ?PR?IPS200_DRAW_POINT?ZF_DEVICE_IPS200
   *DEL*:           0000A9H   BYTE   INSEG    CODE           ?PR?IPS200_SHOW_STRING?ZF_DEVICE_IPS200
   *DEL*:           0000E0H   BYTE   INSEG    CODE           ?PR?IPS200_SHOW_CHAR?ZF_DEVICE_IPS200
   *DEL*:           0000F3H   BYTE   INSEG    CODE           ?PR?IPS200_SHOW_UINT16?ZF_DEVICE_IPS200
   *DEL*:           00000DH   BYTE   INSEG    CODE           ?PR?IPS200_SET_COLOR?ZF_DEVICE_IPS200
   *DEL*:           000109H   BYTE   INSEG    CODE           ?PR?IPS200_SHOW_INT32?ZF_DEVICE_IPS200
   *DEL*:           000133H   BYTE   INSEG    CODE           ?PR?IPS200_SHOW_INT16?ZF_DEVICE_IPS200
   *DEL*:           0001E8H   BYTE   INSEG    CODE           ?PR?IPS200_SHOW_WAVE?ZF_DEVICE_IPS200
   *DEL*:           000007H   BYTE   INSEG    CODE           ?PR?IPS200_SET_DIR?ZF_DEVICE_IPS200
   *DEL*:           0001D0H   BYTE   INSEG    CODE           ?PR?IPS200_SHOW_CHINESE?ZF_DEVICE_IPS200
   *DEL*:           00005AH   BYTE   INSEG    CODE           ?PR?IPS200_CLEAR?ZF_DEVICE_IPS200
   *DEL*:           0000C3H   BYTE   INSEG    CODE           ?PR?IPS200_SHOW_UINT8?ZF_DEVICE_IPS200
   *DEL*:           0000F3H   BYTE   INSEG    CODE           ?PR?IPS200_SHOW_INT8?ZF_DEVICE_IPS200
   *DEL*:           000016H   BYTE   INSEG    CODE           ?PR?IPS200_WRITE_INDEX?ZF_DEVICE_IPS200
   *DEL*:           0000CCH   BYTE   INSEG    CODE           ?PR?IPS200_SET_REGION?ZF_DEVICE_IPS200
   *DEL*:           00025AH   BYTE   INSEG    CODE           ?PR?IPS200_INIT?ZF_DEVICE_IPS200
   *DEL*:           000004H   BYTE   UNIT     XDATA          ?XD?IPS200_SET_REGION?ZF_DEVICE_IPS200
L251 LINKER/LOCATER V4.66.93.0                                                        10/15/2025  21:40:28  PAGE 12


   *DEL*:           000002H   BYTE   UNIT     XDATA          ?XD?IPS200_CLEAR?ZF_DEVICE_IPS200
   *DEL*:           000002H   BYTE   UNIT     XDATA          ?XD?IPS200_DRAW_POINT?ZF_DEVICE_IPS200
   *DEL*:           000004H   BYTE   UNIT     XDATA          ?XD?IPS200_SHOW_CHAR?ZF_DEVICE_IPS200
   *DEL*:           000006H   BYTE   UNIT     XDATA          ?XD?IPS200_SHOW_STRING?ZF_DEVICE_IPS200
   *DEL*:           000005H   BYTE   UNIT     XDATA          ?XD?IPS200_SHOW_INT8?ZF_DEVICE_IPS200
   *DEL*:           000005H   BYTE   UNIT     XDATA          ?XD?IPS200_SHOW_UINT8?ZF_DEVICE_IPS200
   *DEL*:           000008H   BYTE   UNIT     XDATA          ?XD?IPS200_SHOW_INT16?ZF_DEVICE_IPS200
   *DEL*:           000008H   BYTE   UNIT     XDATA          ?XD?IPS200_SHOW_UINT16?ZF_DEVICE_IPS200
   *DEL*:           000028H   BYTE   UNIT     XDATA          ?XD?IPS200_SHOW_INT32?ZF_DEVICE_IPS200
   *DEL*:           000031H   BYTE   UNIT     XDATA          ?XD?IPS200_SHOW_FLOAT?ZF_DEVICE_IPS200
   *DEL*:           00001CH   BYTE   UNIT     XDATA          ?XD?IPS200_SHOW_WAVE?ZF_DEVICE_IPS200
   *DEL*:           000015H   BYTE   UNIT     XDATA          ?XD?IPS200_SHOW_CHINESE?ZF_DEVICE_IPS200
   *DEL*:           00003FH   BYTE   INSEG    CODE           ?PR?DL1A_TIMEOUT_MICROSECONDS_TO_MCLKS?ZF_DEVICE_DL1A
   *DEL*:           000041H   BYTE   INSEG    CODE           ?PR?DL1A_TIMEOUT_MCLKS_TO_MICROSECONDS?ZF_DEVICE_DL1A
   *DEL*:           000083H   BYTE   INSEG    CODE           ?PR?DL1A_SET_SIGNAL_RATE_LIMIT?ZF_DEVICE_DL1A
   *DEL*:           000018H   BYTE   INSEG    CODE           ?PR?DL1A_DECODE_TIMEOUT?ZF_DEVICE_DL1A
   *DEL*:           000233H   BYTE   INSEG    CODE           ?PR?DL1A_GET_SPAD_INFO?ZF_DEVICE_DL1A
   *DEL*:           000038H   BYTE   INSEG    CODE           ?PR?DL1A_ENCODE_TIMEOUT?ZF_DEVICE_DL1A
   *DEL*:           00006AH   BYTE   INSEG    CODE           ?PR?DL1A_GET_SEQUENCE_STEP_ENABLES?ZF_DEVICE_DL1A
   *DEL*:           0000C7H   BYTE   INSEG    CODE           ?PR?DL1A_GET_DISTANCE?ZF_DEVICE_DL1A
   *DEL*:           0000BAH   BYTE   INSEG    CODE           ?PR?DL1A_PERFORM_SINGLE_REF_CALIBRATION?ZF_DEVICE_DL1A
   *DEL*:           00013CH   BYTE   INSEG    CODE           ?PR?DL1A_GET_SEQUENCE_STEP_TIMEOUTS?ZF_DEVICE_DL1A
   *DEL*:           000001H   BYTE   INSEG    CODE           ?PR?DL1A_INT_HANDLER?ZF_DEVICE_DL1A
   *DEL*:           00009BH   BYTE   INSEG    CODE           ?PR?DL1A_GET_MEASUREMENT_TIMING_BUDGET?ZF_DEVICE_DL1A
   *DEL*:           0001D4H   BYTE   INSEG    CODE           ?PR?DL1A_SET_MEASUREMENT_TIMING_BUDGET?ZF_DEVICE_DL1A
   *DEL*:           0004C9H   BYTE   INSEG    CODE           ?PR?DL1A_INIT?ZF_DEVICE_DL1A
   *DEL*:           000086H   BYTE   INSEG    CODE           ?PR?DL1A_GET_VCSEL_PULSE_PERIOD?ZF_DEVICE_DL1A
   *DEL*:           000008H   BYTE   UNIT     XDATA          ?XD?DL1A_GET_SPAD_INFO?ZF_DEVICE_DL1A
   *DEL*:           000001H   BYTE   UNIT     XDATA          ?XD?DL1A_GET_SEQUENCE_STEP_ENABLES?ZF_DEVICE_DL1A
   *DEL*:           000001H   BYTE   UNIT     XDATA          ?XD?DL1A_GET_VCSEL_PULSE_PERIOD?ZF_DEVICE_DL1A
   *DEL*:           000008H   BYTE   UNIT     XDATA          ?XD?DL1A_GET_SEQUENCE_STEP_TIMEOUTS?ZF_DEVICE_DL1A
   *DEL*:           000003H   BYTE   UNIT     XDATA          ?XD?DL1A_PERFORM_SINGLE_REF_CALIBRATION?ZF_DEVICE_DL1A
   *DEL*:           00002BH   BYTE   UNIT     XDATA          ?XD?DL1A_SET_MEASUREMENT_TIMING_BUDGET?ZF_DEVICE_DL1A
   *DEL*:           00001BH   BYTE   UNIT     XDATA          ?XD?DL1A_GET_MEASUREMENT_TIMING_BUDGET?ZF_DEVICE_DL1A
   *DEL*:           000003H   BYTE   UNIT     XDATA          ?XD?DL1A_SET_SIGNAL_RATE_LIMIT?ZF_DEVICE_DL1A
   *DEL*:           000003H   BYTE   UNIT     XDATA          ?XD?DL1A_GET_DISTANCE?ZF_DEVICE_DL1A
   *DEL*:           0000CAH   BYTE   UNIT     XDATA          ?XD?DL1A_INIT?ZF_DEVICE_DL1A
   *DEL*:           00005EH   BYTE   INSEG    CODE           ?PR?BLE6A20_READ_BUFFER?ZF_DEVICE_BLE6A20
   *DEL*:           0000CFH   BYTE   INSEG    CODE           ?PR?BLE6A20_SEND_BUFFER?ZF_DEVICE_BLE6A20
   *DEL*:           00003FH   BYTE   INSEG    CODE           ?PR?BLE6A20_SEND_STRING?ZF_DEVICE_BLE6A20
   *DEL*:           000026H   BYTE   INSEG    CODE           ?PR?BLE6A20_CALLBACK?ZF_DEVICE_BLE6A20
   *DEL*:           000087H   BYTE   INSEG    CODE           ?PR?BLE6A20_INIT?ZF_DEVICE_BLE6A20
   *DEL*:           000044H   BYTE   INSEG    CODE           ?PR?BLE6A20_SEND_BYTE?ZF_DEVICE_BLE6A20
   *DEL*:           000008H   BYTE   UNIT     XDATA          ?XD?BLE6A20_SEND_BUFFER?ZF_DEVICE_BLE6A20
   *DEL*:           000004H   BYTE   UNIT     XDATA          ?XD?BLE6A20_SEND_STRING?ZF_DEVICE_BLE6A20
   *DEL*:           000004H   BYTE   UNIT     XDATA          ?XD?BLE6A20_READ_BUFFER?ZF_DEVICE_BLE6A20
   *DEL*:           000001H   BYTE   UNIT     XDATA          ?XD?BLE6A20_CALLBACK?ZF_DEVICE_BLE6A20
   *DEL*:           0000CDH   BYTE   INSEG    CODE           ?PR?WIRELESS_UART_SEND_BUFFER?ZF_DEVICE_WIRELESS_UART
   *DEL*:           00003FH   BYTE   INSEG    CODE           ?PR?WIRELESS_UART_SEND_STRING?ZF_DEVICE_WIRELESS_UART
   *DEL*:           000026H   BYTE   INSEG    CODE           ?PR?WIRELESS_UART_CALLBACK?ZF_DEVICE_WIRELESS_UART
   *DEL*:           00007AH   BYTE   INSEG    CODE           ?PR?WIRELESS_UART_INIT?ZF_DEVICE_WIRELESS_UART
   *DEL*:           000042H   BYTE   INSEG    CODE           ?PR?WIRELESS_UART_SEND_BYTE?ZF_DEVICE_WIRELESS_UART
   *DEL*:           00005EH   BYTE   INSEG    CODE           ?PR?WIRELESS_UART_READ_BUFFER?ZF_DEVICE_WIRELESS_UART
   *DEL*:           000008H   BYTE   UNIT     XDATA          ?XD?WIRELESS_UART_SEND_BUFFER?ZF_DEVICE_WIRELESS_UART
   *DEL*:           000004H   BYTE   UNIT     XDATA          ?XD?WIRELESS_UART_SEND_STRING?ZF_DEVICE_WIRELESS_UART
   *DEL*:           000004H   BYTE   UNIT     XDATA          ?XD?WIRELESS_UART_READ_BUFFER?ZF_DEVICE_WIRELESS_UART
   *DEL*:           000001H   BYTE   UNIT     XDATA          ?XD?WIRELESS_UART_CALLBACK?ZF_DEVICE_WIRELESS_UART
   *DEL*:           00001AH   BYTE   INSEG    CODE           ?PR?ICM20602_READ_REGISTER?ZF_DEVICE_ICM20602
   *DEL*:           00000CH   BYTE   INSEG    CODE           ?PR?ICM20602_WRITE_REGISTER?ZF_DEVICE_ICM20602
   *DEL*:           000021H   BYTE   INSEG    CODE           ?PR?ICM20602_SIMSPI_WR_BYTE?ZF_DEVICE_ICM20602
   *DEL*:           000031H   BYTE   INSEG    CODE           ?PR?ICM20602_SELF_CHECK?ZF_DEVICE_ICM20602
   *DEL*:           00003FH   BYTE   INSEG    CODE           ?PR?ICM20602_SIMSPI_R_REG_BYTES?ZF_DEVICE_ICM20602
   *DEL*:           000018H   BYTE   INSEG    CODE           ?PR?ICM20602_SIMSPI_R_REG_BYTE?ZF_DEVICE_ICM20602
   *DEL*:           000011H   BYTE   INSEG    CODE           ?PR?ICM20602_SIMSPI_W_REG_BYTE?ZF_DEVICE_ICM20602
   *DEL*:           0001B9H   BYTE   INSEG    CODE           ?PR?ICM20602_INIT?ZF_DEVICE_ICM20602
L251 LINKER/LOCATER V4.66.93.0                                                        10/15/2025  21:40:28  PAGE 13


   *DEL*:           000054H   BYTE   INSEG    CODE           ?PR?ICM20602_GET_ACC?ZF_DEVICE_ICM20602
   *DEL*:           000016H   BYTE   INSEG    CODE           ?PR?ICM20602_READ_REGISTERS?ZF_DEVICE_ICM20602
   *DEL*:           000054H   BYTE   INSEG    CODE           ?PR?ICM20602_GET_GYRO?ZF_DEVICE_ICM20602
   *DEL*:           000004H   BYTE   UNIT     XDATA          ?XD?ICM20602_SIMSPI_R_REG_BYTES?ZF_DEVICE_ICM20602
   *DEL*:           000001H   BYTE   UNIT     XDATA          ?XD?ICM20602_READ_REGISTER?ZF_DEVICE_ICM20602
   *DEL*:           000006H   BYTE   UNIT     XDATA          ?XD?ICM20602_GET_ACC?ZF_DEVICE_ICM20602
   *DEL*:           000006H   BYTE   UNIT     XDATA          ?XD?ICM20602_GET_GYRO?ZF_DEVICE_ICM20602
   *DEL*:           000054H   BYTE   INSEG    CODE           ?PR?IMU660RA_GET_GYRO?ZF_DEVICE_IMU660RA
   *DEL*:           00001EH   BYTE   INSEG    CODE           ?PR?IMU660RA_READ_REGISTER?ZF_DEVICE_IMU660RA
   *DEL*:           000014H   BYTE   INSEG    CODE           ?PR?IMU660RA_WRITE_REGISTERS?ZF_DEVICE_IMU660RA
   *DEL*:           00000CH   BYTE   INSEG    CODE           ?PR?IMU660RA_WRITE_REGISTER?ZF_DEVICE_IMU660RA
   *DEL*:           000023H   BYTE   INSEG    CODE           ?PR?IMU660RA_SIMSPI_WR_BYTE?ZF_DEVICE_IMU660RA
   *DEL*:           000041H   BYTE   INSEG    CODE           ?PR?IMU660RA_SELF_CHECK?ZF_DEVICE_IMU660RA
   *DEL*:           00003FH   BYTE   INSEG    CODE           ?PR?IMU660RA_SIMSPI_R_REG_BYTES?ZF_DEVICE_IMU660RA
   *DEL*:           000039H   BYTE   INSEG    CODE           ?PR?IMU660RA_SIMSPI_W_REG_BYTES?ZF_DEVICE_IMU660RA
   *DEL*:           000011H   BYTE   INSEG    CODE           ?PR?IMU660RA_SIMSPI_W_REG_BYTE?ZF_DEVICE_IMU660RA
   *DEL*:           0001E0H   BYTE   INSEG    CODE           ?PR?IMU660RA_INIT?ZF_DEVICE_IMU660RA
   *DEL*:           000054H   BYTE   INSEG    CODE           ?PR?IMU660RA_GET_ACC?ZF_DEVICE_IMU660RA
   *DEL*:           000079H   BYTE   INSEG    CODE           ?PR?IMU660RA_READ_REGISTERS?ZF_DEVICE_IMU660RA
   *DEL*:           000004H   BYTE   UNIT     XDATA          ?XD?IMU660RA_SIMSPI_W_REG_BYTES?ZF_DEVICE_IMU660RA
   *DEL*:           000004H   BYTE   UNIT     XDATA          ?XD?IMU660RA_SIMSPI_R_REG_BYTES?ZF_DEVICE_IMU660RA
   *DEL*:           000002H   BYTE   UNIT     XDATA          ?XD?IMU660RA_READ_REGISTER?ZF_DEVICE_IMU660RA
   *DEL*:           00000EH   BYTE   UNIT     XDATA          ?XD?IMU660RA_READ_REGISTERS?ZF_DEVICE_IMU660RA
   *DEL*:           000006H   BYTE   UNIT     XDATA          ?XD?IMU660RA_GET_ACC?ZF_DEVICE_IMU660RA
   *DEL*:           000006H   BYTE   UNIT     XDATA          ?XD?IMU660RA_GET_GYRO?ZF_DEVICE_IMU660RA
   *DEL*:           000054H   BYTE   INSEG    CODE           ?PR?IMU660RB_GET_GYRO?ZF_DEVICE_IMU660RB
   *DEL*:           00001AH   BYTE   INSEG    CODE           ?PR?IMU660RB_READ_REGISTER?ZF_DEVICE_IMU660RB
   *DEL*:           0000B1H   BYTE   INSEG    CODE           ?PR?IMU660RB_GYRO_TRANSITION?ZF_DEVICE_IMU660RB
   *DEL*:           00000CH   BYTE   INSEG    CODE           ?PR?IMU660RB_WRITE_REGISTER?ZF_DEVICE_IMU660RB
   *DEL*:           000023H   BYTE   INSEG    CODE           ?PR?IMU660RB_SIMSPI_WR_BYTE?ZF_DEVICE_IMU660RB
   *DEL*:           00002FH   BYTE   INSEG    CODE           ?PR?IMU660RB_SELF_CHECK?ZF_DEVICE_IMU660RB
   *DEL*:           00003FH   BYTE   INSEG    CODE           ?PR?IMU660RB_SIMSPI_R_REG_BYTES?ZF_DEVICE_IMU660RB
   *DEL*:           00001CH   BYTE   INSEG    CODE           ?PR?IMU660RB_SIMSPI_R_REG_BYTE?ZF_DEVICE_IMU660RB
   *DEL*:           000011H   BYTE   INSEG    CODE           ?PR?IMU660RB_SIMSPI_W_REG_BYTE?ZF_DEVICE_IMU660RB
   *DEL*:           00006AH   BYTE   INSEG    CODE           ?PR?IMU660RB_INIT?ZF_DEVICE_IMU660RB
   *DEL*:           000054H   BYTE   INSEG    CODE           ?PR?IMU660RB_GET_ACC?ZF_DEVICE_IMU660RB
   *DEL*:           000075H   BYTE   INSEG    CODE           ?PR?IMU660RB_ACC_TRANSITION?ZF_DEVICE_IMU660RB
   *DEL*:           000016H   BYTE   INSEG    CODE           ?PR?IMU660RB_READ_REGISTERS?ZF_DEVICE_IMU660RB
   *DEL*:           000004H   BYTE   UNIT     XDATA          ?XD?IMU660RB_SIMSPI_R_REG_BYTES?ZF_DEVICE_IMU660RB
   *DEL*:           000001H   BYTE   UNIT     XDATA          ?XD?IMU660RB_READ_REGISTER?ZF_DEVICE_IMU660RB
   *DEL*:           000006H   BYTE   UNIT     XDATA          ?XD?IMU660RB_GET_ACC?ZF_DEVICE_IMU660RB
   *DEL*:           000006H   BYTE   UNIT     XDATA          ?XD?IMU660RB_GET_GYRO?ZF_DEVICE_IMU660RB
   *DEL*:           000054H   BYTE   INSEG    CODE           ?PR?IMU963RA_GET_GYRO?ZF_DEVICE_IMU963RA
   *DEL*:           000023H   BYTE   INSEG    CODE           ?PR?IMU963RA_SIMSPI_WR_BYTE?ZF_DEVICE_IMU963RA
   *DEL*:           000052H   BYTE   INSEG    CODE           ?PR?IMU963RA_READ_MAG_REGISTER?ZF_DEVICE_IMU963RA
   *DEL*:           00002CH   BYTE   INSEG    CODE           ?PR?IMU963RA_CONNECT_MAG?ZF_DEVICE_IMU963RA
   *DEL*:           000016H   BYTE   INSEG    CODE           ?PR?IMU963RA_READ_ACC_GYRO_REGISTERS?ZF_DEVICE_IMU963RA
   *DEL*:           000066H   BYTE   INSEG    CODE           ?PR?IMU963RA_WRITE_MAG_REGISTER?ZF_DEVICE_IMU963RA
   *DEL*:           00001FH   BYTE   INSEG    CODE           ?PR?IMU963RA_READ_ACC_GYRO_REGISTER?ZF_DEVICE_IMU963RA
   *DEL*:           00003FH   BYTE   INSEG    CODE           ?PR?IMU963RA_SIMSPI_R_REG_BYTES?ZF_DEVICE_IMU963RA
   *DEL*:           00001CH   BYTE   INSEG    CODE           ?PR?IMU963RA_SIMSPI_R_REG_BYTE?ZF_DEVICE_IMU963RA
   *DEL*:           000034H   BYTE   INSEG    CODE           ?PR?IMU963RA_MAG_SELF_CHECK?ZF_DEVICE_IMU963RA
   *DEL*:           00000CH   BYTE   INSEG    CODE           ?PR?IMU963RA_WRITE_ACC_GYRO_REGISTER?ZF_DEVICE_IMU963RA
   *DEL*:           000017H   BYTE   INSEG    CODE           ?PR?IMU963RA_SIMSPI_W_REG_BYTE?ZF_DEVICE_IMU963RA
   *DEL*:           0002DBH   BYTE   INSEG    CODE           ?PR?IMU963RA_INIT?ZF_DEVICE_IMU963RA
   *DEL*:           000044H   BYTE   INSEG    CODE           ?PR?IMU963RA_ACC_GYRO_SELF_CHECK?ZF_DEVICE_IMU963RA
   *DEL*:           000054H   BYTE   INSEG    CODE           ?PR?IMU963RA_GET_ACC?ZF_DEVICE_IMU963RA
   *DEL*:           00006BH   BYTE   INSEG    CODE           ?PR?IMU963RA_GET_MAG?ZF_DEVICE_IMU963RA
   *DEL*:           000004H   BYTE   UNIT     XDATA          ?XD?IMU963RA_SIMSPI_R_REG_BYTES?ZF_DEVICE_IMU963RA
   *DEL*:           000001H   BYTE   UNIT     XDATA          ?XD?IMU963RA_READ_ACC_GYRO_REGISTER?ZF_DEVICE_IMU963RA
   *DEL*:           000002H   BYTE   UNIT     XDATA          ?XD?IMU963RA_WRITE_MAG_REGISTER?ZF_DEVICE_IMU963RA
   *DEL*:           000006H   BYTE   UNIT     XDATA          ?XD?IMU963RA_GET_ACC?ZF_DEVICE_IMU963RA
   *DEL*:           000006H   BYTE   UNIT     XDATA          ?XD?IMU963RA_GET_GYRO?ZF_DEVICE_IMU963RA
   *DEL*:           000006H   BYTE   UNIT     XDATA          ?XD?IMU963RA_GET_MAG?ZF_DEVICE_IMU963RA
   *DEL*:           000094H   BYTE   INSEG    CODE           ?PR?GET_DOUBLE_NUMBER?ZF_DEVICE_GPS_TAU1201
L251 LINKER/LOCATER V4.66.93.0                                                        10/15/2025  21:40:28  PAGE 14


   *DEL*:           00007DH   BYTE   INSEG    CODE           ?PR?GET_FLOAT_NUMBER?ZF_DEVICE_GPS_TAU1201
   *DEL*:           0000C5H   BYTE   INSEG    CODE           ?PR?UTC_TO_BTC?ZF_DEVICE_GPS_TAU1201
   *DEL*:           000372H   BYTE   INSEG    CODE           ?PR?GET_TWO_POINTS_DISTANCE?ZF_DEVICE_GPS_TAU1201
   *DEL*:           0000D9H   BYTE   INSEG    CODE           ?PR?GPS_GNGGA_PARSE?ZF_DEVICE_GPS_TAU1201
   *DEL*:           0005A6H   BYTE   INSEG    CODE           ?PR?GPS_GNRMC_PARSE?ZF_DEVICE_GPS_TAU1201
   *DEL*:           000196H   BYTE   INSEG    CODE           ?PR?GPS_DATA_PARSE?ZF_DEVICE_GPS_TAU1201
   *DEL*:           00006EH   BYTE   INSEG    CODE           ?PR?GET_INT_NUMBER?ZF_DEVICE_GPS_TAU1201
   *DEL*:           000290H   BYTE   INSEG    CODE           ?PR?GPS_INIT?ZF_DEVICE_GPS_TAU1201
   *DEL*:           000077H   BYTE   INSEG    CODE           ?PR?GET_PARAMETER_INDEX?ZF_DEVICE_GPS_TAU1201
   *DEL*:           00055CH   BYTE   INSEG    CODE           ?PR?GET_TWO_POINTS_AZIMUTH?ZF_DEVICE_GPS_TAU1201
   *DEL*:           000184H   BYTE   INSEG    CODE           ?PR?GPS_UART_CALLBACK?ZF_DEVICE_GPS_TAU1201
   *DEL*:           000003H   BYTE   UNIT     XDATA          ?XD?GET_PARAMETER_INDEX?ZF_DEVICE_GPS_TAU1201
   *DEL*:           00000DH   BYTE   UNIT     XDATA          ?XD?GET_INT_NUMBER?ZF_DEVICE_GPS_TAU1201
   *DEL*:           000014H   BYTE   UNIT     XDATA          ?XD?GET_FLOAT_NUMBER?ZF_DEVICE_GPS_TAU1201
   *DEL*:           000018H   BYTE   UNIT     XDATA          ?XD?GET_DOUBLE_NUMBER?ZF_DEVICE_GPS_TAU1201
   *DEL*:           00003BH   BYTE   UNIT     XDATA          ?XD?GPS_GNRMC_PARSE?ZF_DEVICE_GPS_TAU1201
   *DEL*:           000009H   BYTE   UNIT     XDATA          ?XD?GPS_GNGGA_PARSE?ZF_DEVICE_GPS_TAU1201
   *DEL*:           000060H   BYTE   UNIT     XDATA          ?XD?GET_TWO_POINTS_DISTANCE?ZF_DEVICE_GPS_TAU1201
   *DEL*:           000038H   BYTE   UNIT     XDATA          ?XD?GET_TWO_POINTS_AZIMUTH?ZF_DEVICE_GPS_TAU1201
   *DEL*:           000008H   BYTE   UNIT     XDATA          ?XD?GPS_DATA_PARSE?ZF_DEVICE_GPS_TAU1201
   *DEL*:           00000BH   BYTE   UNIT     XDATA          ?XD?GPS_UART_CALLBACK?ZF_DEVICE_GPS_TAU1201
   *DEL*:           000095H   BYTE   UNIT     XDATA          ?XD?GPS_INIT?ZF_DEVICE_GPS_TAU1201
   *DEL*:           000075H   BYTE   INSEG    CODE           ?PR?TSL1401_SEND_DATA?ZF_DEVICE_TSL1401
   *DEL*:           00003DH   BYTE   INSEG    CODE           ?PR?TSL1401_INIT?ZF_DEVICE_TSL1401
   *DEL*:           00009BH   BYTE   INSEG    CODE           ?PR?TSL1401_COLLECT_PIT_HANDLER?ZF_DEVICE_TSL1401
   *DEL*:           00034DH   BYTE   INSEG    CODE           ?PR?SEEKFREE_ASSISTANT_CAMERA_BOUNDARY_CONFIG?SEEKFREE_ASS
                                                             -ISTANT
   *DEL*:           000101H   BYTE   INSEG    CODE           ?PR?SEEKFREE_ASSISTANT_CAMERA_DOT_SEND?SEEKFREE_ASSISTANT
   *DEL*:           000102H   BYTE   INSEG    CODE           ?PR?SEEKFREE_ASSISTANT_OSCILLOSCOPE_SEND?SEEKFREE_ASSISTAN
                                                             -T
   *DEL*:           00002EH   BYTE   INSEG    CODE           ?PR?SEEKFREE_ASSISTANT_INIT?SEEKFREE_ASSISTANT
   *DEL*:           000017H   BYTE   INSEG    CODE           ?PR?SEEKFREE_ASSISTANT_SUM?SEEKFREE_ASSISTANT
   *DEL*:           000037H   BYTE   INSEG    CODE           ?PR?SEEKFREE_ASSISTANT_CAMERA_INFORMATION_CONFIG?SEEKFREE_
                                                             -ASSISTANT
   *DEL*:           000265H   BYTE   INSEG    CODE           ?PR?SEEKFREE_ASSISTANT_DATA_ANALYSIS?SEEKFREE_ASSISTANT
   *DEL*:           00012AH   BYTE   INSEG    CODE           ?PR?SEEKFREE_ASSISTANT_CAMERA_DATA_SEND?SEEKFREE_ASSISTANT
   *DEL*:           00003FH   BYTE   INSEG    CODE           ?PR?SEEKFREE_ASSISTANT_CAMERA_SEND?SEEKFREE_ASSISTANT
   *DEL*:           00000AH   BYTE   UNIT     XDATA          ?XD?SEEKFREE_ASSISTANT_CAMERA_DATA_SEND?SEEKFREE_ASSISTANT
   *DEL*:           000002H   BYTE   UNIT     XDATA          ?XD?SEEKFREE_ASSISTANT_CAMERA_INFORMATION_CONFIG?SEEKFREE_
                                                             -ASSISTANT
   *DEL*:           000024H   BYTE   UNIT     XDATA          ?XD?SEEKFREE_ASSISTANT_OSCILLOSCOPE_SEND?SEEKFREE_ASSISTAN
                                                             -T
   *DEL*:           000003H   BYTE   UNIT     XDATA          ?XD?SEEKFREE_ASSISTANT_CAMERA_DOT_SEND?SEEKFREE_ASSISTANT
   *DEL*:           000014H   BYTE   UNIT     XDATA          ?XD?SEEKFREE_ASSISTANT_CAMERA_BOUNDARY_CONFIG?SEEKFREE_ASS
                                                             -ISTANT
   *DEL*:           000088H   BYTE   UNIT     XDATA          ?XD?SEEKFREE_ASSISTANT_DATA_ANALYSIS?SEEKFREE_ASSISTANT
   *DEL*:           000000H.1 BIT    UNIT     BIT            ?BI?SEEKFREE_ASSISTANT_DATA_ANALYSIS?SEEKFREE_ASSISTANT
   *DEL*:           00004DH   BYTE   INSEG    CODE           ?PR?SEEKFREE_ASSISTANT_INTERFACE_INIT?SEEKFREE_ASSISTANT_I
                                                             -NTERFACE
   *DEL*:           00007BH   BYTE   INSEG    CODE           ?PR?BATTERY_GET?ADC_GET
   *DEL*:           000002H   BYTE   UNIT     XDATA          ?XD?BATTERY_GET?ADC_GET
   *DEL*:           000030H   BYTE   INSEG    CODE           ?PR?EEPROM_READ_FLOAT?EEPROM
   *DEL*:           0000D0H   BYTE   INSEG    CODE           ?PR?EEPROM_SAVE_FLOAT?EEPROM
   *DEL*:           000056H   BYTE   INSEG    CODE           ?PR?EEPROM_READ_NUM?EEPROM
   *DEL*:           000089H   BYTE   INSEG    CODE           ?PR?EEPROM_SAVE_NUM?EEPROM
   *DEL*:           000200H   BYTE   UNIT     XDATA          ?XD?EEPROM_SAVE_NUM?EEPROM
   *DEL*:           000000H.1 BIT    UNIT     BIT            ?BI?EEPROM_SAVE_NUM?EEPROM
   *DEL*:           000200H   BYTE   UNIT     XDATA          ?XD?EEPROM_READ_NUM?EEPROM
   *DEL*:           000000H.1 BIT    UNIT     BIT            ?BI?EEPROM_READ_NUM?EEPROM
   *DEL*:           00020AH   BYTE   UNIT     XDATA          ?XD?EEPROM_SAVE_FLOAT?EEPROM
   *DEL*:           000000H.1 BIT    UNIT     BIT            ?BI?EEPROM_SAVE_FLOAT?EEPROM
   *DEL*:           000004H   BYTE   UNIT     XDATA          ?XD?EEPROM_READ_FLOAT?EEPROM
   *DEL*:           000000H.1 BIT    UNIT     BIT            ?BI?EEPROM_READ_FLOAT?EEPROM
   *DEL*:           0000C5H   BYTE   INSEG    CODE           ?PR?NORMAL_PID?FUNCTION
   *DEL*:           000004H   BYTE   UNIT     XDATA          ?XD?NORMAL_PID?FUNCTION
L251 LINKER/LOCATER V4.66.93.0                                                        10/15/2025  21:40:28  PAGE 15


   *DEL*:           00002CH   BYTE   INSEG    CODE           ?PR?OLED_DISPLAYTURN?OLED
   *DEL*:           0000DEH   BYTE   INSEG    CODE           ?PR?OLED_INIT?OLED
   *DEL*:           0000F5H   BYTE   INSEG    CODE           ?PR?OLED_SHOWSTRING?OLED
   *DEL*:           000070H   BYTE   INSEG    CODE           ?PR?OLED_WR_BYTE?OLED
   *DEL*:           0001BEH   BYTE   INSEG    CODE           ?PR?OLED_SHOWCHAR?OLED
   *DEL*:           00001EH   BYTE   INSEG    CODE           ?PR?OLED_COLORTURN?OLED
   *DEL*:           00002BH   BYTE   INSEG    CODE           ?PR?OLED_SET_POS?OLED
   *DEL*:           000017H   BYTE   INSEG    CODE           ?PR?DELAY_MS?OLED
   *DEL*:           0001C9H   BYTE   INSEG    CODE           ?PR?OLED_SHOWNUM?OLED
   *DEL*:           000017H   BYTE   INSEG    CODE           ?PR?OLED_POW?OLED
   *DEL*:           00010AH   BYTE   INSEG    CODE           ?PR?OLED_SHOWCHINESE?OLED
   *DEL*:           00003AH   BYTE   INSEG    CODE           ?PR?OLED_CLEAR?OLED
   *DEL*:           000006H   BYTE   UNIT     XDATA          ?XD?OLED_SHOWCHAR?OLED
   *DEL*:           000007H   BYTE   UNIT     XDATA          ?XD?OLED_SHOWNUM?OLED
   *DEL*:           000005H   BYTE   UNIT     XDATA          ?XD?OLED_SHOWSTRING?OLED
   *DEL*:           000005H   BYTE   UNIT     XDATA          ?XD?OLED_SHOWCHINESE?OLED
   *DEL*:           000053H   BYTE   INSEG    CODE           ?PR?HELP_TURN?STRATEGY
   *DEL*:           0000A3H   BYTE   INSEG    CODE           ?PR?HELP_TURN_TWO?STRATEGY
   *DEL*:           000002H   BYTE   UNIT     XDATA          ?XD?HELP_TURN_TWO?STRATEGY
   *DEL*:           00019BH   BYTE   INSEG    CODE           ?PR?POW?_?POW
   *DEL*:           000037H   BYTE   INSEG    CODE           ?PR?STRNCMP?_?STRNCMP
   *DEL*:           000030H   BYTE   INSEG    CODE           ?PR?STRNCPY?_?STRNCPY
   *DEL*:           00000EH   BYTE   INSEG    CODE           ?PR?STRLEN?_?STRLEN
   *DEL*:           00001FH   BYTE   INSEG    CODE           ?PR?STRCHR?_?STRCHR
   *DEL*:           00001AH   BYTE   INSEG    CODE           ?PR?MEMSET?_?MEMSET



OVERLAY MAP OF MODULE:   .\out_file\SEEKFREE (ai8051u_isr)


FUNCTION/MODULE                               XDATA_GROUP
--> CALLED FUNCTION/MODULE                    START  STOP
=========================================================
?C_C51STARTUP                                 ----- -----

*** NEW ROOT ********************************

?C_C51STARTUP?3                               ----- -----
  +--> main/main

main/main                                     ----- -----
  +--> _m/main
  +--> SPRINTF/SPRINTF

_m/main                                       ----- -----
  +--> clock_init/zf_common_clock
  +--> debug_init/zf_common_debug
  +--> init_all/function
  +--> pit_handler1/main
  +--> GO_Function/function
  +--> menu_handle_key/menu
  +--> PWM_Test/Device_Test
  +--> Serve_Test/Device_Test
  +--> Set_Sevo/Device_Test
  +--> Turn_mode_Init/function

clock_init/zf_common_clock                    ----- -----
  +--> system_delay_init/zf_driver_delay
  +--> interrupt_global_enable/zf_common_interrupt

system_delay_init/zf_driver_delay             ----- -----
  +--> ?C?SLDIV/?C?SLDIV

?C?SLDIV/?C?SLDIV                             ----- -----
L251 LINKER/LOCATER V4.66.93.0                                                        10/15/2025  21:40:28  PAGE 16


  +--> ?C?ULIDIV/?C?ULDIV

?C?ULIDIV/?C?ULDIV                            ----- -----

interrupt_global_enable/zf_common_interr+     ----- -----
... upt

debug_init/zf_common_debug                    ----- -----
  +--> uart_init/zf_driver_uart
  +--> fifo_init/zf_common_fifo
  +--> uart_rx_interrupt/zf_driver_uart
  +--> debug_interrupr_handler/zf_common_debug

uart_init/zf_driver_uart                      100AH 100FH
  +--> uart_funciton_check/zf_driver_uart
  +--> debug_assert_handler/zf_common_debug
  +--> timer_funciton_check/zf_driver_timer
  +--> gpio_init/zf_driver_gpio
  +--> ?C?ULIDIV/?C?ULDIV
  +--> uart_dma_init/zf_driver_uart

uart_funciton_check/zf_driver_uart            ----- -----

debug_assert_handler/zf_common_debug          1049H 1058H
  +--> PRINTF/PRINTF
  +--> system_delay_ms/zf_driver_delay

PRINTF/PRINTF                                 1059H 1080H
  +--> OUT/PRINTF

OUT/PRINTF                                    ----- -----
  +--> PUTCH/PRINTF

PUTCH/PRINTF                                  ----- -----
  +--> putchar/zf_common_debug
  +--> OUT/PRINTF

putchar/zf_common_debug                       ----- -----
  +--> uart_write_byte/zf_driver_uart

uart_write_byte/zf_driver_uart                1081H 1081H
  +--> uart_write_buffer/zf_driver_uart

uart_write_buffer/zf_driver_uart              ----- -----

system_delay_ms/zf_driver_delay               ----- -----

timer_funciton_check/zf_driver_timer          ----- -----

gpio_init/zf_driver_gpio                      101AH 101CH
  +--> debug_assert_handler/zf_common_debug
  +--> gpio_set_dir/zf_driver_gpio
  +--> gpio_set_mode/zf_driver_gpio
  +--> gpio_set_impedance/zf_driver_gpio
  +--> gpio_set_level/zf_driver_gpio

gpio_set_dir/zf_driver_gpio                   ----- -----
  +--> debug_assert_handler/zf_common_debug

gpio_set_mode/zf_driver_gpio                  ----- -----
  +--> debug_assert_handler/zf_common_debug

gpio_set_impedance/zf_driver_gpio             ----- -----
  +--> debug_assert_handler/zf_common_debug

L251 LINKER/LOCATER V4.66.93.0                                                        10/15/2025  21:40:28  PAGE 17


gpio_set_level/zf_driver_gpio                 ----- -----
  +--> debug_assert_handler/zf_common_debug

uart_dma_init/zf_driver_uart                  ----- -----

fifo_init/zf_common_fifo                      100AH 1013H
  +--> debug_assert_handler/zf_common_debug

uart_rx_interrupt/zf_driver_uart              ----- -----

debug_interrupr_handler/zf_common_debug       100AH 100AH
  +--> uart_query_byte/zf_driver_uart
  +--> fifo_write_buffer/zf_common_fifo

uart_query_byte/zf_driver_uart                ----- -----
  +--> uart_rx_start_buff/zf_driver_uart

uart_rx_start_buff/zf_driver_uart             ----- -----

fifo_write_buffer/zf_common_fifo              100BH 1018H
  +--> debug_assert_handler/zf_common_debug
  +--> memcpy?_/memcpy
  +--> fifo_head_offset/zf_common_fifo

memcpy?_/memcpy                               ----- -----

fifo_head_offset/zf_common_fifo               ----- -----

init_all/function                             ----- -----
  +--> system_delay_ms/zf_driver_delay
  +--> Motor_Init/function
  +--> Servo_Init/function
  +--> interrupt_set_priority/zf_common_interrupt
  +--> Buzzer_Init/Buzzer
  +--> Buzzer_OFF/Buzzer
  +--> enconder_init/function
  +--> ADC_GetInit/ADC_Get
  +--> tft180_init/zf_device_tft180
  +--> tft180_set_color/zf_device_tft180
  +--> menu_Init/menu
  +--> ?C?SLDIV/?C?SLDIV
  +--> pit_init/zf_driver_pit

Motor_Init/function                           ----- -----
  +--> pwm_init/zf_driver_pwm

pwm_init/zf_driver_pwm                        100AH 1017H
  +--> debug_assert_handler/zf_common_debug
  +--> gpio_init/zf_driver_gpio
  +--> ?C?ULIDIV/?C?ULDIV

Servo_Init/function                           ----- -----
  +--> pwm_init/zf_driver_pwm

interrupt_set_priority/zf_common_interru+     ----- -----
... pt

Buzzer_Init/Buzzer                            ----- -----
  +--> gpio_init/zf_driver_gpio

Buzzer_OFF/Buzzer                             ----- -----
  +--> gpio_set_level/zf_driver_gpio

enconder_init/function                        ----- -----
  +--> encoder_dir_init/zf_driver_encoder
L251 LINKER/LOCATER V4.66.93.0                                                        10/15/2025  21:40:28  PAGE 18



encoder_dir_init/zf_driver_encoder            100AH 100BH
  +--> timer_funciton_check/zf_driver_timer
  +--> debug_assert_handler/zf_common_debug
  +--> gpio_init/zf_driver_gpio

ADC_GetInit/ADC_Get                           ----- -----
  +--> adc_init/zf_driver_adc

adc_init/zf_driver_adc                        ----- -----

tft180_init/zf_device_tft180                  ----- -----
  +--> spi_init/zf_driver_spi
  +--> tft180_set_dir/zf_device_tft180
  +--> tft180_set_color/zf_device_tft180
  +--> system_delay_ms/zf_driver_delay
  +--> tft180_write_index/zf_device_tft180
  +--> spi_write_8bit/zf_driver_spi
  +--> tft180_clear/zf_device_tft180

spi_init/zf_driver_spi                        100AH 1019H
  +--> debug_assert_handler/zf_common_debug
  +--> gpio_init/zf_driver_gpio
  +--> gpio_set_level_speed/zf_driver_gpio
  +--> ?C?ULIDIV/?C?ULDIV
  +--> uart_funciton_check/zf_driver_uart

gpio_set_level_speed/zf_driver_gpio           ----- -----
  +--> debug_assert_handler/zf_common_debug

tft180_set_dir/zf_device_tft180               ----- -----

tft180_set_color/zf_device_tft180             ----- -----

tft180_write_index/zf_device_tft180           ----- -----
  +--> spi_write_8bit/zf_driver_spi

spi_write_8bit/zf_driver_spi                  ----- -----
  +--> spi_write_dat/zf_driver_spi

spi_write_dat/zf_driver_spi                   ----- -----
  +--> debug_assert_handler/zf_common_debug

tft180_clear/zf_device_tft180                 100AH 100DH
  +--> tft180_set_region/zf_device_tft180
  +--> spi_write_16bit/zf_driver_spi

tft180_set_region/zf_device_tft180            1045H 1048H
  +--> debug_assert_handler/zf_common_debug
  +--> tft180_write_index/zf_device_tft180
  +--> spi_write_16bit/zf_driver_spi

spi_write_16bit/zf_driver_spi                 ----- -----
  +--> spi_write_dat/zf_driver_spi

menu_Init/menu                                ----- -----
  +--> Menu_SetChildren/menu
  +--> Refesh_arrow/menu
  +--> menu_display_content/menu
  +--> Show_bujin/menu

Menu_SetChildren/menu                         ----- -----

Refesh_arrow/menu                             ----- -----
  +--> tft180_show_string/zf_device_tft180
L251 LINKER/LOCATER V4.66.93.0                                                        10/15/2025  21:40:28  PAGE 19



tft180_show_string/zf_device_tft180           103BH 1040H
  +--> debug_assert_handler/zf_common_debug
  +--> tft180_show_char/zf_device_tft180

tft180_show_char/zf_device_tft180             1041H 1044H
  +--> debug_assert_handler/zf_common_debug
  +--> tft180_set_region/zf_device_tft180
  +--> spi_write_16bit/zf_driver_spi

menu_display_content/menu                     ----- -----
  +--> tft180_show_string/zf_device_tft180
  +--> tft180_show_float/zf_device_tft180

tft180_show_float/zf_device_tft180            100AH 103AH
  +--> debug_assert_handler/zf_common_debug
  +--> zf_sprintf/zf_common_function
  +--> tft180_show_string/zf_device_tft180

zf_sprintf/zf_common_function                 103BH 109DH
  +--> number_conversion_ascii/zf_common_function
  +--> printf_reverse_order/zf_common_function
  +--> memcpy?_/memcpy

number_conversion_ascii/zf_common_functi+     109EH 109EH
... on
  +--> ?C?SLDIV/?C?SLDIV
  +--> ?C?ULIDIV/?C?ULDIV

printf_reverse_order/zf_common_function       ----- -----

Show_bujin/menu                               ----- -----
  +--> tft180_show_string/zf_device_tft180

pit_init/zf_driver_pit                        ----- -----
  +--> ?C?ULIDIV/?C?ULDIV

pit_handler1/main                             ----- -----
  +--> ADC_SampleAndFilter/ADC_Get
  +--> unification/function
  +--> Servo_turn_pid/control
  +--> if_Cycle/Strategy
  +--> Servo_Control/function
  +--> speed_control_ring/function
  +--> State_of_road/Strategy
  +--> Speed_Control/function
  +--> Protect/function
  +--> Key_scaner/Key
  +--> Show_pararm/function

ADC_SampleAndFilter/ADC_Get                   ----- -----
  +--> adc_convert/zf_driver_adc
  +--> adc_filter/ADC_Get

adc_convert/zf_driver_adc                     ----- -----

adc_filter/ADC_Get                            ----- -----
  +--> ?C?ULIDIV/?C?ULDIV

unification/function                          100AH 100FH
  +--> fast_sqrt/function

fast_sqrt/function                            1010H 1017H
  +--> memcpy?_/memcpy

L251 LINKER/LOCATER V4.66.93.0                                                        10/15/2025  21:40:28  PAGE 20


Servo_turn_pid/control                        ----- -----

if_Cycle/Strategy                             ----- -----
  +--> Buzzer_ON/Buzzer
  +--> Buzzer_OFF/Buzzer
  +--> CAR_STOP/function

Buzzer_ON/Buzzer                              ----- -----
  +--> gpio_set_level/zf_driver_gpio

CAR_STOP/function                             ----- -----
  +--> MotorL_SetSpeed/control
  +--> MotorR_SetSpeed/control
  +--> Ser_Servo_Duty/control

MotorL_SetSpeed/control                       ----- -----
  +--> pwm_set_duty/zf_driver_pwm

pwm_set_duty/zf_driver_pwm                    100AH 1015H
  +--> debug_assert_handler/zf_common_debug

MotorR_SetSpeed/control                       ----- -----
  +--> pwm_set_duty/zf_driver_pwm

Ser_Servo_Duty/control                        ----- -----
  +--> pwm_set_duty/zf_driver_pwm

Servo_Control/function                        ----- -----
  +--> pwm_set_duty/zf_driver_pwm
  +--> Help_turn2/Strategy

Help_turn2/Strategy                           ----- -----

speed_control_ring/function                   ----- -----
  +--> encoder_get_count/zf_driver_encoder
  +--> encoder_clear_count/zf_driver_encoder

encoder_get_count/zf_driver_encoder           ----- -----
  +--> gpio_get_level/zf_driver_gpio

gpio_get_level/zf_driver_gpio                 ----- -----
  +--> debug_assert_handler/zf_common_debug

encoder_clear_count/zf_driver_encoder         ----- -----

State_of_road/Strategy                        ----- -----
  +--> Motor_Update/control
  +--> Buzzer_OFF/Buzzer
  +--> Buzzer_ON/Buzzer
  +--> CAR_STOP/function

Motor_Update/control                          ----- -----
  +--> Motor_Left_pi_control/control
  +--> MotorL_SetSpeed/control
  +--> Motor_Right_pi_control/control
  +--> MotorR_SetSpeed/control

Motor_Left_pi_control/control                 ----- -----

Motor_Right_pi_control/control                ----- -----

Speed_Control/function                        ----- -----
  +--> Motor_Left_pi_control/control
  +--> MotorL_SetSpeed/control
  +--> Motor_Right_pi_control/control
L251 LINKER/LOCATER V4.66.93.0                                                        10/15/2025  21:40:28  PAGE 21


  +--> MotorR_SetSpeed/control

Protect/function                              ----- -----

Key_scaner/Key                                ----- -----
  +--> Key_Number/Key
  +--> Turn_mode/Key

Key_Number/Key                                ----- -----
  +--> gpio_get_level/zf_driver_gpio

Turn_mode/Key                                 ----- -----

Show_pararm/function                          ----- -----
  +--> tft180_show_string/zf_device_tft180
  +--> tft180_show_float/zf_device_tft180
  +--> tft180_show_int16/zf_device_tft180
  +--> Motor_Left_pi_control/control
  +--> Motor_Right_pi_control/control
  +--> unification/function

tft180_show_int16/zf_device_tft180            100AH 1011H
  +--> debug_assert_handler/zf_common_debug
  +--> tft180_show_char/zf_device_tft180

GO_Function/function                          ----- -----
  +--> Turn_mode_Init/function

Turn_mode_Init/function                       ----- -----
  +--> CAR_STOP/function
  +--> Buzzer_OFF/Buzzer
  +--> show_test_info/function
  +--> Refesh_arrow/menu
  +--> menu_display_content/menu
  +--> Show_bujin/menu
  +--> PID_Update/control
  +--> Cycle_Update/control

show_test_info/function                       ----- -----
  +--> tft180_clear/zf_device_tft180
  +--> system_delay_ms/zf_driver_delay
  +--> tft180_show_string/zf_device_tft180

PID_Update/control                            ----- -----

Cycle_Update/control                          ----- -----

menu_handle_key/menu                          ----- -----
  +--> handle_key1/menu
  +--> handle_key2/menu
  +--> handle_key3/menu
  +--> handle_key4/menu
  +--> handle_key5/menu

handle_key1/menu                              ----- -----
  +--> tft180_show_string/zf_device_tft180
  +--> tft180_clear/zf_device_tft180
  +--> menu_display_content/menu
  +--> Refesh_arrow/menu

handle_key2/menu                              ----- -----
  +--> Show_bujin/menu

handle_key3/menu                              ----- -----
  +--> Show_bujin/menu
L251 LINKER/LOCATER V4.66.93.0                                                        10/15/2025  21:40:28  PAGE 22



handle_key4/menu                              ----- -----
  +--> menu_display_content/menu
  +--> tft180_show_string/zf_device_tft180
  +--> tft180_clear/zf_device_tft180
  +--> Refesh_arrow/menu

handle_key5/menu                              ----- -----
  +--> Key3_handle1/menu
  +--> Key3_handle2/menu

Key3_handle1/menu                             ----- -----
  +--> Refesh_arrow/menu

Key3_handle2/menu                             ----- -----
  +--> show_all_menu/menu
  +--> Refesh_arrow/menu

show_all_menu/menu                            ----- -----
  +--> tft180_clear/zf_device_tft180
  +--> Refesh_arrow/menu
  +--> menu_display_content/menu
  +--> Show_bujin/menu

PWM_Test/Device_Test                          ----- -----
  +--> MotorL_SetSpeed/control
  +--> MotorR_SetSpeed/control

Serve_Test/Device_Test                        ----- -----
  +--> Ser_Servo_Duty/control
  +--> system_delay_ms/zf_driver_delay

Set_Sevo/Device_Test                          ----- -----
  +--> Ser_Servo_Duty/control

SPRINTF/SPRINTF                               100AH 1031H
  +--> OUT/SPRINTF

OUT/SPRINTF                                   ----- -----
  +--> PUTCH/SPRINTF

PUTCH/SPRINTF                                 ----- -----

*** NEW ROOT ********************************

TM11_IRQHandler/isr                           ----- -----

*** NEW ROOT ********************************

DMA_UART1_IRQHandler/isr                      ----- -----
  +--> uart_rx_start_buff/zf_driver_uart

*** NEW ROOT ********************************

DMA_UART2_IRQHandler/isr                      ----- -----
  +--> uart_rx_start_buff/zf_driver_uart

*** NEW ROOT ********************************

DMA_UART3_IRQHandler/isr                      ----- -----
  +--> uart_rx_start_buff/zf_driver_uart

*** NEW ROOT ********************************

DMA_UART4_IRQHandler/isr                      ----- -----
L251 LINKER/LOCATER V4.66.93.0                                                        10/15/2025  21:40:28  PAGE 23


  +--> uart_rx_start_buff/zf_driver_uart

*** NEW ROOT ********************************

TM0_IRQHandler/isr                            ----- -----

*** NEW ROOT ********************************

TM1_IRQHandler/isr                            ----- -----

*** NEW ROOT ********************************

TM2_IRQHandler/isr                            ----- -----

*** NEW ROOT ********************************

TM3_IRQHandler/isr                            ----- -----

*** NEW ROOT ********************************

TM4_IRQHandler/isr                            ----- -----

*** NEW ROOT ********************************

?C_C51STARTUP?1                               ----- -----

*** NEW ROOT ********************************

?C_C51STARTUP?2                               ----- -----



PUBLIC SYMBOLS OF MODULE:  .\out_file\SEEKFREE (ai8051u_isr)


      VALUE       CLASS    TYPE      PUBLIC SYMBOL NAME
      =================================================
      00FF3919H   CODE     ---       ?C?BMOVEPP
      00FF3917H   CODE     ---       ?C?BMOVEPP8
      00FF259FH   CODE     NEAR LAB  ?C?CASTD
      00FF3807H   CODE     NEAR LAB  ?C?CASTF
      000000FFH   NUMBER   ---       ?C?CODESEG
      00FF255CH   CODE     NEAR LAB  ?C?DCASTC
      00FF25FFH   CODE     NEAR LAB  ?C?DCASTF
      00FF2557H   CODE     NEAR LAB  ?C?DCASTI
      00FF2552H   CODE     NEAR LAB  ?C?DCASTL
      00FF2FD3H   CODE     ---       ?C?DP2SERIES
      00FF2225H   CODE     ---       ?C?DPADD
      00FF24E5H   CODE     ---       ?C?DPCMP
      00FF24E3H   CODE     ---       ?C?DPCMP3
      00FF32BEH   CODE     ---       ?C?DPCONVERT
      00FF2444H   CODE     ---       ?C?DPDIV
      00FF2AF5H   CODE     ---       ?C?DPGETOPN2
      00FF2334H   CODE     ---       ?C?DPMUL
      00FF2B40H   CODE     ---       ?C?DPNANRESULT
      00FF2544H   CODE     ---       ?C?DPNEG
      00FF2B4CH   CODE     ---       ?C?DPOVERFLOW
      00FF2B18H   CODE     ---       ?C?DPRESULT
      00FF2B31H   CODE     ---       ?C?DPRESULT2
      00FF33E5H   CODE     ---       ?C?DPROUND
      00FF2FDEH   CODE     ---       ?C?DPSERIES
      00FF2221H   CODE     ---       ?C?DPSUB
      00FF2B47H   CODE     ---       ?C?DPUNDERFLOW
      00FF34C0H   CODE     ---       ?C?DTNPWR
      00FF37D4H   CODE     NEAR LAB  ?C?FCASTC
L251 LINKER/LOCATER V4.66.93.0                                                        10/15/2025  21:40:28  PAGE 24


      00FF2641H   CODE     NEAR LAB  ?C?FCASTD
      00FF37CFH   CODE     NEAR LAB  ?C?FCASTI
      00FF37CAH   CODE     NEAR LAB  ?C?FCASTL
      00FF359DH   CODE     ---       ?C?FPADD
      00FF3778H   CODE     ---       ?C?FPCMP
      00FF3776H   CODE     ---       ?C?FPCMP3
      00FF36F5H   CODE     ---       ?C?FPDIV
      00FF3546H   CODE     ---       ?C?FPGETOPN2
      00FF3655H   CODE     ---       ?C?FPMUL
      00FF3583H   CODE     ---       ?C?FPNANRESULT
      00FF37BCH   CODE     ---       ?C?FPNEG
      00FF358BH   CODE     ---       ?C?FPOVERFLOW
      00FF355FH   CODE     ---       ?C?FPRESULT
      00FF3575H   CODE     ---       ?C?FPRESULT2
      00FF359AH   CODE     ---       ?C?FPSUB
      00FF3588H   CODE     ---       ?C?FPUNDERFLOW
      00FFAE8DH   CODE     ---       ?C?INITHDATA
      00FFC6A7H   HCONST   WORD      ?C?INITHDATA_END
      00FF3887H   CODE     ---       ?C?LIMUL
      00FF3876H   CODE     ---       ?C?LMUL
      00FF2BA5H   CODE     ---       ?C?PRNFMT
      00FF3844H   CODE     ---       ?C?SIDIV
      00FF38E3H   CODE     NEAR LAB  ?C?SLDIV
      00FF0000H   CODE     ---       ?C?STARTUP
      00FF3892H   CODE     NEAR LAB  ?C?ULDIV
      00FF3890H   CODE     NEAR LAB  ?C?ULIDIV
      00000001H   NUMBER   ---       ?C?XDATASEG
      00FF0000H   CODE     ---       ?C_STARTUP
      00011006H   XDATA    BYTE      ?fifo_init?BYTE
*DEL*:1FFFFFFCH   XDATA    BYTE      ?fifo_read_buffer?BYTE
      00011007H   XDATA    BYTE      ?fifo_write_buffer?BYTE
*DEL*:1FFFFFFCH   XDATA    BYTE      ?func_double_to_str?BYTE
*DEL*:00000000H   XDATA    BYTE      ?get_two_points_azimuth?BYTE
*DEL*:00000000H   XDATA    BYTE      ?get_two_points_distance?BYTE
*DEL*:1FFFFFF8H   XDATA    BYTE      ?Help_turn_Two?BYTE
*DEL*:1FFFFFFCH   XDATA    BYTE      ?iap_read_buff?BYTE
*DEL*:1FFFFFFCH   XDATA    BYTE      ?iap_write_buff?BYTE
*DEL*:1FFFFFFCH   XDATA    BYTE      ?ips114_show_chinese?BYTE
*DEL*:1FFFFFFEH   XDATA    BYTE      ?ips114_show_float?BYTE
*DEL*:1FFFFFFCH   XDATA    BYTE      ?ips114_show_wave?BYTE
*DEL*:1FFFFFFCH   XDATA    BYTE      ?ips200_show_chinese?BYTE
*DEL*:1FFFFFFEH   XDATA    BYTE      ?ips200_show_float?BYTE
*DEL*:1FFFFFFCH   XDATA    BYTE      ?ips200_show_wave?BYTE
*DEL*:1FFFFFF8H   XDATA    BYTE      ?Normal_PID?BYTE
      00011081H   XDATA    ---       ?printf?BYTE
      00011008H   XDATA    BYTE      ?pwm_init?BYTE
*DEL*:1FFFFFFEH   XDATA    BYTE      ?pwm_set_freq?BYTE
*DEL*:1FFFFFF8H   XDATA    BYTE      ?seekfree_assistant_camera_boundary_config?BYTE
*DEL*:1FFFFFFBH   XDATA    BYTE      ?seekfree_assistant_camera_data_send?BYTE
*DEL*:1FFFFFF8H   XDATA    BYTE      ?seekfree_assistant_camera_information_config?BYTE
*DEL*:1FFFFFFCH   XDATA    BYTE      ?soft_iic_init?BYTE
*DEL*:1FFFFFFCH   XDATA    BYTE      ?soft_iic_read_16bit_array?BYTE
*DEL*:1FFFFFFCH   XDATA    BYTE      ?soft_iic_read_16bit_registers?BYTE
*DEL*:1FFFFFFCH   XDATA    BYTE      ?soft_iic_read_8bit_array?BYTE
*DEL*:1FFFFFFCH   XDATA    BYTE      ?soft_iic_read_8bit_registers?BYTE
*DEL*:1FFFFFFCH   XDATA    BYTE      ?soft_iic_transfer_16bit_array?BYTE
*DEL*:1FFFFFFCH   XDATA    BYTE      ?soft_iic_transfer_8bit_array?BYTE
*DEL*:1FFFFFFCH   XDATA    BYTE      ?soft_iic_write_16bit_array?BYTE
*DEL*:1FFFFFFCH   XDATA    BYTE      ?soft_iic_write_16bit_registers?BYTE
*DEL*:1FFFFFFCH   XDATA    BYTE      ?soft_iic_write_8bit_array?BYTE
*DEL*:1FFFFFFCH   XDATA    BYTE      ?soft_iic_write_8bit_registers?BYTE
*DEL*:1FFFFFFCH   XDATA    BYTE      ?soft_spi_init?BYTE
*DEL*:1FFFFFFCH   XDATA    BYTE      ?soft_spi_read_16bit_array?BYTE
*DEL*:1FFFFFFCH   XDATA    BYTE      ?soft_spi_read_16bit_registers?BYTE
*DEL*:1FFFFFFCH   XDATA    BYTE      ?soft_spi_read_8bit_array?BYTE
L251 LINKER/LOCATER V4.66.93.0                                                        10/15/2025  21:40:28  PAGE 25


*DEL*:1FFFFFFCH   XDATA    BYTE      ?soft_spi_read_8bit_registers?BYTE
*DEL*:1FFFFFFCH   XDATA    BYTE      ?soft_spi_transfer_16bit?BYTE
*DEL*:1FFFFFFCH   XDATA    BYTE      ?soft_spi_transfer_8bit?BYTE
*DEL*:1FFFFFFCH   XDATA    BYTE      ?soft_spi_write_16bit_array?BYTE
*DEL*:1FFFFFFCH   XDATA    BYTE      ?soft_spi_write_16bit_registers?BYTE
*DEL*:1FFFFFFCH   XDATA    BYTE      ?soft_spi_write_8bit_array?BYTE
*DEL*:1FFFFFFCH   XDATA    BYTE      ?soft_spi_write_8bit_registers?BYTE
      00011006H   XDATA    BYTE      ?spi_init?BYTE
*DEL*:1FFFFFFCH   XDATA    BYTE      ?spi_read_16bit_array?BYTE
*DEL*:1FFFFFFCH   XDATA    BYTE      ?spi_read_16bit_registers?BYTE
*DEL*:1FFFFFFCH   XDATA    BYTE      ?spi_read_8bit_array?BYTE
*DEL*:1FFFFFFBH   XDATA    BYTE      ?spi_read_8bit_registers?BYTE
*DEL*:1FFFFFFCH   XDATA    BYTE      ?spi_transfer_16bit?BYTE
*DEL*:1FFFFFFCH   XDATA    BYTE      ?spi_transfer_8bit?BYTE
*DEL*:1FFFFFFCH   XDATA    BYTE      ?spi_write_16bit_array?BYTE
*DEL*:1FFFFFFCH   XDATA    BYTE      ?spi_write_16bit_registers?BYTE
*DEL*:1FFFFFFCH   XDATA    BYTE      ?spi_write_8bit_array?BYTE
*DEL*:1FFFFFFBH   XDATA    BYTE      ?spi_write_8bit_registers?BYTE
      00011032H   XDATA    ---       ?sprintf?BYTE
      00011008H   XDATA    BYTE      ?tft180_show_float?BYTE
*DEL*:1FFFFFFCH   XDATA    BYTE      ?tft180_show_wave?BYTE
      00011006H   XDATA    BYTE      ?uart_init?BYTE
      00011063H   XDATA    BYTE      ?zf_sprintf?BYTE
      00FF2B5AH   CODE     ---       _chkdouble_?_
      00FF9E4DH   CODE     ---       _m
*SFR* 000000D0H.6 DATA     BIT       AC
*SFR* 000000E0H   DATA     BYTE      ACC
      000111F8H   XDATA    WORD      Accel_Time
      00010A00H   XDATA    WORD      ADC_1
      00010A02H   XDATA    WORD      ADC_2
      00010A04H   XDATA    WORD      ADC_3
      00010A06H   XDATA    WORD      ADC_4
      00010A08H   XDATA    WORD      ADC_5
      00010A0AH   XDATA    WORD      ADC_6
      00010A28H   XDATA    WORD      ADC_8
*SFR* 000000BCH   DATA     BYTE      ADC_CONTR
      00FFB48CH   CODE     ---       adc_convert
      00FF9FA6H   CODE     ---       adc_filter
      00FFB518H   CODE     ---       ADC_GetInit
      00FFA7BCH   CODE     ---       adc_init
*DEL*:00000000H   CODE     ---       adc_mean_filter_convert
      000111CEH   XDATA    ---       ADC_Num
*SFR* 000000BDH   DATA     BYTE      ADC_RES
*SFR* 000000BEH   DATA     BYTE      ADC_RESL
      00FF9178H   CODE     ---       ADC_SampleAndFilter
      00010F7AH   XDATA    BYTE      ADC_Show_Flag
*SFR* 000000DEH   DATA     BYTE      ADCCFG
      00FF3940H   CODE     ---       asc2_0806
      00FF3B68H   CODE     ---       asc2_1608
      00FF4E35H   CODE     ---       ascii_font_8x16
      00FF2ACBH   CODE     ---       asin?_
      00FF29B0H   CODE     ---       atan?_
*SFR* 000000EFH   DATA     BYTE      AUXINTIF
*SFR* 0000008EH   DATA     BYTE      AUXR
*SFR* 00000097H   DATA     BYTE      AUXR2
*SFR* 000000F0H   DATA     BYTE      B
*DEL*:00000000H   CODE     ---       battery_get
      00000020H.0 BIT      BIT       Battery_Init
      000111FEH   XDATA    WORD      Bend_Time
*DEL*:00000000H   CODE     ---       ble6a20_callback
*DEL*:00000000H   CODE     ---       ble6a20_init
*DEL*:00000000H   CODE     ---       ble6a20_read_buffer
*DEL*:00000000H   CODE     ---       ble6a20_send_buffer
*DEL*:00000000H   CODE     ---       ble6a20_send_byte
*DEL*:00000000H   CODE     ---       ble6a20_send_string
L251 LINKER/LOCATER V4.66.93.0                                                        10/15/2025  21:40:28  PAGE 26


      00011279H   XDATA    FLOAT     bujin
      00FFB639H   CODE     ---       Buzzer_Init
      00FF01BEH   CODE     ---       Buzzer_OFF
      00FF01AEH   CODE     ---       Buzzer_ON
*SFR* 000000C8H.1 DATA     BIT       C_T2
      00011300H   XDATA    BYTE      CAR_Mode
      00FFB605H   CODE     ---       CAR_STOP
*SFR* 000000FAH   DATA     BYTE      CCAP0H
*SFR* 000000EAH   DATA     BYTE      CCAP0L
*SFR* 000000FBH   DATA     BYTE      CCAP1H
*SFR* 000000EBH   DATA     BYTE      CCAP1L
*SFR* 000000FCH   DATA     BYTE      CCAP2H
*SFR* 000000ECH   DATA     BYTE      CCAP2L
*SFR* 000000FDH   DATA     BYTE      CCAP3H
*SFR* 000000EDH   DATA     BYTE      CCAP3L
*SFR* 000000FEH   DATA     BYTE      CCAP4H
*SFR* 000000EEH   DATA     BYTE      CCAP4L
*SFR* 000000DAH   DATA     BYTE      CCAPM0
*SFR* 000000DBH   DATA     BYTE      CCAPM1
*SFR* 000000DCH   DATA     BYTE      CCAPM2
*SFR* 000000DDH   DATA     BYTE      CCAPM3
*SFR* 000000DEH   DATA     BYTE      CCAPM4
*SFR* 000000D8H.0 DATA     BIT       CCF0
*SFR* 000000D8H.1 DATA     BIT       CCF1
*SFR* 000000D8H.2 DATA     BIT       CCF2
*SFR* 000000D8H.3 DATA     BIT       CCF3
*SFR* 000000D8H.4 DATA     BIT       CCF4
*SFR* 000000D8H   DATA     BYTE      CCON
*SFR* 00000090H.3 DATA     BIT       CEX0
*SFR* 00000090H.4 DATA     BIT       CEX1
*SFR* 00000090H.5 DATA     BIT       CEX2
*SFR* 00000090H.6 DATA     BIT       CEX3
*SFR* 00000090H.7 DATA     BIT       CEX4
*SFR* 000000D8H.7 DATA     BIT       CF
*SFR* 000000F9H   DATA     BYTE      CH
*SFR* 000000EAH   DATA     BYTE      CKCON
*SFR* 000000E9H   DATA     BYTE      CL
      00FF9339H   CODE     ---       clock_init
*SFR* 000000D9H   DATA     BYTE      CMOD
*SFR* 000000E6H   DATA     BYTE      CMPCR1
*SFR* 000000E7H   DATA     BYTE      CMPCR2
      000111F3H   XDATA    WORD      Continue_Time
      00FF2818H   CODE     ---       cos?_
*SFR* 000000C8H.0 DATA     BIT       CP_RL2
*SFR* 000000D8H.6 DATA     BIT       CR
*SFR* 000000D0H.7 DATA     BIT       CY
      00011200H   XDATA    BYTE      Cycle_Stat
      00FF7FF9H   CODE     ---       Cycle_Update
      00010FDBH   XDATA    INT       dajiao
      00FFAC7AH   CODE     ---       debug_assert_handler
      00FFA196H   CODE     ---       debug_init
      00FFB3E8H   CODE     ---       debug_interrupr_handler
*DEL*:00000000H   CODE     ---       debug_read_buffer
*DEL*:00000000H   CODE     ---       debug_send_buffer
      0001109FH   XDATA    ---       debug_uart_buffer
      000110E0H   XDATA    ---       debug_uart_fifo
*DEL*:00000000H   CODE     ---       delay_ms
      000112E2H   XDATA    INT       delta_Speed
      00011274H   XDATA    WORD      dl1a_distance_mm
      00011276H   XDATA    BYTE      dl1a_finsh_flag
*DEL*:00000000H   CODE     ---       dl1a_get_distance
*DEL*:00000000H   CODE     ---       dl1a_init
*DEL*:00000000H   CODE     ---       dl1a_int_handler
      00FFA0F1H   CODE     ---       DMA_UART1_IRQHandler
      00FFA621H   CODE     ---       DMA_UART2_IRQHandler
L251 LINKER/LOCATER V4.66.93.0                                                        10/15/2025  21:40:28  PAGE 27


      00FFA6AAH   CODE     ---       DMA_UART3_IRQHandler
      00FFA733H   CODE     ---       DMA_UART4_IRQHandler
*SFR* 00000083H   DATA     BYTE      DPH
*SFR* 00000082H   DATA     BYTE      DPL
*SFR* 00000084H   DATA     BYTE      DPXL
*SFR* 000000A8H.7 DATA     BIT       EA
*SFR* 000000A8H.6 DATA     BIT       EC
*SFR* 00000090H.2 DATA     BIT       ECI
*DEL*:00000000H   CODE     ---       eeprom_read_float
*DEL*:00000000H   CODE     ---       eeprom_read_Num
*DEL*:00000000H   CODE     ---       eeprom_save_float
*DEL*:00000000H   CODE     ---       eeprom_save_Num
*DEL*:00000000H   CODE     ---       eeprom_trig
      00FFA22DH   CODE     ---       encoder_clear_count
      00010F74H   XDATA    INT       encoder_data_dir_1
      00010F76H   XDATA    INT       encoder_data_dir_2
      00FF8F8AH   CODE     ---       encoder_dir_init
      00FFA04CH   CODE     ---       encoder_get_count
      00FF0026H   CODE     ---       enconder_init
      000111F7H   XDATA    BYTE      Enter_Flag_Left
      000111E9H   XDATA    WORD      Entern_Continue_Time
      000111EFH   XDATA    WORD      Entern_Delay_Time
      000111F5H   XDATA    WORD      Entern_Flag_Time
*SFR* 000000A8H.4 DATA     BIT       ES
*SFR* 000000A8H.1 DATA     BIT       ET0
*SFR* 000000A8H.3 DATA     BIT       ET1
*SFR* 000000A8H.5 DATA     BIT       ET2
*SFR* 000000A8H.0 DATA     BIT       EX0
*SFR* 000000A8H.2 DATA     BIT       EX1
*SFR* 000000C8H.3 DATA     BIT       EXEN2
*SFR* 000000C8H.6 DATA     BIT       EXF2
      00FF30BAH   CODE     ---       exp?_
*DEL*:00000000H   CODE     ---       extern_iap_write_buff
*SFR* 000000D0H.5 DATA     BIT       F0
      00FF9D9AH   CODE     ---       fast_sqrt
*SFR* 00000098H.7 DATA     BIT       FE
*DEL*:00000000H   CODE     ---       fifo_clear
      00FFA8C7H   CODE     ---       fifo_init
*DEL*:00000000H   CODE     ---       fifo_read_buffer
*DEL*:00000000H   CODE     ---       fifo_used
      00FF6367H   CODE     ---       fifo_write_buffer
      000111DCH   XDATA    ---       filtered_adc
      00011284H   XDATA    CHAR      Flag
*DEL*:00000000H   CODE     ---       func_double_to_str
*DEL*:00000000H   CODE     ---       func_float_to_str
*DEL*:00000000H   CODE     ---       func_get_greatest_common_divisor
*DEL*:00000000H   CODE     ---       func_hex_to_str
*DEL*:00000000H   CODE     ---       func_int_to_str
*DEL*:00000000H   CODE     ---       func_soft_delay
*DEL*:00000000H   CODE     ---       func_str_to_double
*DEL*:00000000H   CODE     ---       func_str_to_float
*DEL*:00000000H   CODE     ---       func_str_to_hex
*DEL*:00000000H   CODE     ---       func_str_to_int
*DEL*:00000000H   CODE     ---       func_str_to_uint
*DEL*:00000000H   CODE     ---       func_uint_to_str
*DEL*:00000000H   CODE     ---       get_two_points_azimuth
*DEL*:00000000H   CODE     ---       get_two_points_distance
      00FFB66AH   CODE     ---       GO_Function
      00010F78H   XDATA    BYTE      GO_PID_Control
      00010F7BH   XDATA    BYTE      GO_PID_Control1
      00010F7CH   XDATA    BYTE      GO_PID_Control2
      00010FA9H   XDATA    BYTE      GO_PID_Control3
      00FF00C6H   CODE     ---       gpio_get_level
      00FF9AB5H   CODE     ---       gpio_init
      00FF8749H   CODE     ---       gpio_set_impedance
L251 LINKER/LOCATER V4.66.93.0                                                        10/15/2025  21:40:28  PAGE 28


      00FF8329H   CODE     ---       gpio_set_level
      00FF713FH   CODE     ---       gpio_set_level_speed
*DEL*:00000000H   CODE     ---       gpio_toggle_level
*DEL*:00000000H   CODE     ---       gps_data_parse
      00010E30H   XDATA    INT       gps_gga_state
*DEL*:00000000H   CODE     ---       gps_init
      00010E32H   XDATA    INT       gps_rmc_state
      00010CFCH   XDATA    ---       gps_tau1201
      00010C7BH   XDATA    BYTE      gps_tau1201_flag
      000112CCH   XDATA    INT       gps_type
*DEL*:00000000H   CODE     ---       gps_uart_callback
      00FF94F5H   CODE     ---       handle_key1
      00FFB175H   CODE     ---       handle_key2
      00FFAF6EH   CODE     ---       handle_key3
      00FF99EEH   CODE     ---       handle_key4
      00FF00A6H   CODE     ---       handle_key5
*DEL*:00000000H   CODE     ---       Help_turn
      00FF8AF7H   CODE     ---       Help_turn2
*DEL*:00000000H   CODE     ---       Help_turn_Two
      00FF4158H   CODE     ---       Hzk
      00011280H   XDATA    CHAR      i
*SFR* 000000F6H   DATA     BYTE      IAP_ADDRE
*SFR* 000000C3H   DATA     BYTE      IAP_ADDRH
*SFR* 000000C4H   DATA     BYTE      IAP_ADDRL
*SFR* 000000C5H   DATA     BYTE      IAP_CMD
*SFR* 000000C7H   DATA     BYTE      IAP_CONTR
*SFR* 000000C2H   DATA     BYTE      IAP_DATA
*DEL*:00000000H   CODE     ---       iap_erase_page
*DEL*:00000000H   CODE     ---       iap_get_cmd_state
*DEL*:00000000H   CODE     ---       iap_idle
*DEL*:00000000H   CODE     ---       iap_init
*DEL*:00000000H   CODE     ---       iap_read_buff
*DEL*:00000000H   CODE     ---       iap_read_byte
*DEL*:00000000H   CODE     ---       iap_set_tps
*SFR* 000000F5H   DATA     BYTE      IAP_TPS
*SFR* 000000C6H   DATA     BYTE      IAP_TRIG
*DEL*:00000000H   CODE     ---       iap_write_buff
*DEL*:00000000H   CODE     ---       iap_write_byte
      00011243H   XDATA    INT       icm20602_acc_x
      00011245H   XDATA    INT       icm20602_acc_y
      00011247H   XDATA    INT       icm20602_acc_z
*DEL*:00000000H   CODE     ---       icm20602_get_acc
*DEL*:00000000H   CODE     ---       icm20602_get_gyro
      00011249H   XDATA    INT       icm20602_gyro_x
      0001124BH   XDATA    INT       icm20602_gyro_y
      0001124DH   XDATA    INT       icm20602_gyro_z
*DEL*:00000000H   CODE     ---       icm20602_init
      0001124FH   XDATA    ---       icm20602_transition_factor
*SFR* 000000A8H   DATA     BYTE      IE
*SFR* 000000A8H   DATA     BYTE      IE0
*SFR* 00000088H.1 DATA     BIT       IE0_
*SFR* 000000B1H   DATA     BYTE      IE1
*SFR* 00000088H.3 DATA     BIT       IE1_
*SFR* 000000AFH   DATA     BYTE      IE2
      000111EBH   XDATA    WORD      if2_time
      00FF9851H   CODE     ---       if_Cycle
      000111FAH   XDATA    WORD      if_time
      00011257H   XDATA    INT       imu660ra_acc_x
      00011259H   XDATA    INT       imu660ra_acc_y
      0001125BH   XDATA    INT       imu660ra_acc_z
      00FF021EH   CODE     ---       imu660ra_config_file
*DEL*:00000000H   CODE     ---       imu660ra_get_acc
*DEL*:00000000H   CODE     ---       imu660ra_get_gyro
      0001125DH   XDATA    INT       imu660ra_gyro_x
      0001125FH   XDATA    INT       imu660ra_gyro_y
L251 LINKER/LOCATER V4.66.93.0                                                        10/15/2025  21:40:28  PAGE 29


      00011261H   XDATA    INT       imu660ra_gyro_z
*DEL*:00000000H   CODE     ---       imu660ra_init
      00011263H   XDATA    ---       imu660ra_transition_factor
*DEL*:00000000H   CODE     ---       imu660rb_acc_transition
      0001129DH   XDATA    INT       imu660rb_acc_x
      0001129FH   XDATA    INT       imu660rb_acc_y
      000112A1H   XDATA    INT       imu660rb_acc_z
*DEL*:00000000H   CODE     ---       imu660rb_get_acc
*DEL*:00000000H   CODE     ---       imu660rb_get_gyro
*DEL*:00000000H   CODE     ---       imu660rb_gyro_transition
      000112A3H   XDATA    INT       imu660rb_gyro_x
      000112A5H   XDATA    INT       imu660rb_gyro_y
      000112A7H   XDATA    INT       imu660rb_gyro_z
*DEL*:00000000H   CODE     ---       imu660rb_init
      00011225H   XDATA    INT       imu963ra_acc_x
      00011227H   XDATA    INT       imu963ra_acc_y
      00011229H   XDATA    INT       imu963ra_acc_z
*DEL*:00000000H   CODE     ---       imu963ra_get_acc
*DEL*:00000000H   CODE     ---       imu963ra_get_gyro
*DEL*:00000000H   CODE     ---       imu963ra_get_mag
      00011231H   XDATA    INT       imu963ra_gyro_x
      00011233H   XDATA    INT       imu963ra_gyro_y
      00011235H   XDATA    INT       imu963ra_gyro_z
*DEL*:00000000H   CODE     ---       imu963ra_init
      0001122BH   XDATA    INT       imu963ra_mag_x
      0001122DH   XDATA    INT       imu963ra_mag_y
      0001122FH   XDATA    INT       imu963ra_mag_z
      00011237H   XDATA    ---       imu963ra_transition_factor
      00FFAB9DH   CODE     ---       init_all
      00010F79H   XDATA    BYTE      Init_Fg
      000112B3H   XDATA    BYTE      Init_Flag
*SFR* 000000B0H.2 DATA     BIT       INT0
      00011213H   XDATA    ---       int0_irq_handler
*SFR* 000000B0H.3 DATA     BIT       INT1
      00011217H   XDATA    ---       int1_irq_handler
      0001121BH   XDATA    ---       int2_irq_handler
      0001121FH   XDATA    ---       int3_irq_handler
      00011223H   XDATA    ---       int4_irq_handler
*SFR* 0000008FH   DATA     BYTE      INTCLKO
*DEL*:00000000H   CODE     ---       interrupt_global_disable
      00FF001EH   CODE     ---       interrupt_global_enable
      00FF9C2CH   CODE     ---       interrupt_set_priority
*SFR* 000000B8H   DATA     BYTE      IP
*SFR* 000000B5H   DATA     BYTE      IP2
*SFR* 000000B6H   DATA     BYTE      IP2H
*SFR* 000000DFH   DATA     BYTE      IP3
*SFR* 000000EEH   DATA     BYTE      IP3H
*SFR* 000000B7H   DATA     BYTE      IPH
*SFR* 000000B7H   DATA     BYTE      IPH0
*SFR* 000000B8H   DATA     BYTE      IPL0
      000112D8H   XDATA    WORD      ips114_bgcolor
*DEL*:00000000H   CODE     ---       ips114_clear
      000112DAH   XDATA    INT       ips114_display_dir
*DEL*:00000000H   CODE     ---       ips114_draw_point
*DEL*:00000000H   CODE     ---       ips114_init
      000112D6H   XDATA    WORD      ips114_pencolor
*DEL*:00000000H   CODE     ---       ips114_set_color
*DEL*:00000000H   CODE     ---       ips114_set_dir
*DEL*:00000000H   CODE     ---       ips114_show_char
*DEL*:00000000H   CODE     ---       ips114_show_chinese
*DEL*:00000000H   CODE     ---       ips114_show_float
*DEL*:00000000H   CODE     ---       ips114_show_int16
*DEL*:00000000H   CODE     ---       ips114_show_int32
*DEL*:00000000H   CODE     ---       ips114_show_int8
*DEL*:00000000H   CODE     ---       ips114_show_string
L251 LINKER/LOCATER V4.66.93.0                                                        10/15/2025  21:40:28  PAGE 30


*DEL*:00000000H   CODE     ---       ips114_show_uint16
*DEL*:00000000H   CODE     ---       ips114_show_uint8
*DEL*:00000000H   CODE     ---       ips114_show_wave
      000112DCH   XDATA    BYTE      ips114_x_max
      000112DDH   XDATA    BYTE      ips114_y_max
      000112B6H   XDATA    WORD      ips200_bgcolor
*DEL*:00000000H   CODE     ---       ips200_clear
      000112B8H   XDATA    INT       ips200_display_dir
*DEL*:00000000H   CODE     ---       ips200_draw_point
*DEL*:00000000H   CODE     ---       ips200_init
      000112B4H   XDATA    WORD      ips200_pencolor
*DEL*:00000000H   CODE     ---       ips200_set_color
*DEL*:00000000H   CODE     ---       ips200_set_dir
*DEL*:00000000H   CODE     ---       ips200_show_char
*DEL*:00000000H   CODE     ---       ips200_show_chinese
*DEL*:00000000H   CODE     ---       ips200_show_float
*DEL*:00000000H   CODE     ---       ips200_show_int16
*DEL*:00000000H   CODE     ---       ips200_show_int32
*DEL*:00000000H   CODE     ---       ips200_show_int8
*DEL*:00000000H   CODE     ---       ips200_show_string
*DEL*:00000000H   CODE     ---       ips200_show_uint16
*DEL*:00000000H   CODE     ---       ips200_show_uint8
*DEL*:00000000H   CODE     ---       ips200_show_wave
      000112BAH   XDATA    WORD      ips200_x_max
      000112BCH   XDATA    WORD      ips200_y_max
*SFR* 0000009DH   DATA     BYTE      IRCBAND
*SFR* 00000088H.0 DATA     BIT       IT0
*SFR* 00000088H.2 DATA     BIT       IT1
      00011281H   XDATA    CHAR      j
      0001127EH   XDATA    BYTE      Key
      00011282H   XDATA    CHAR      Key3_count
      00FF019EH   CODE     ---       Key3_handle1
      00FF9920H   CODE     ---       Key3_handle2
      000112AEH   XDATA    BYTE      Key_count
      00010F71H   XDATA    BYTE      Key_Flag
      00FFB130H   CODE     ---       Key_Number
      00FF8E70H   CODE     ---       Key_scaner
      000112B1H   XDATA    BYTE      keynumber
      000112B2H   XDATA    BYTE      last_keynumber
      00FF31A3H   CODE     NEAR LAB  log?_
      000111E4H   XDATA    WORD      Long_Time
      00010FDEH   XDATA    ---       M_left_pid
      00010F7DH   XDATA    ---       M_Right_pid
      00FF0066H   CODE     ---       MAIN
      00FFB597H   CODE     ---       memcpy?_
*DEL*:00000000H   CODE     ---       memset?_
      00FF888FH   CODE     ---       menu_display_content
      00FFB4EAH   CODE     ---       menu_handle_key
      00FFA948H   CODE     ---       menu_Init
      00FF9781H   CODE     ---       Menu_SetChildren
      0001127DH   XDATA    CHAR      mode
      000111FCH   XDATA    INT       Mode_Flag
      00FFD5A9H   HCONST   ---       mode_map
      00FFAAB4H   CODE     ---       Motor_Init
      00FF96A9H   CODE     ---       Motor_Left_pi_control
      00FF95D1H   CODE     ---       Motor_Right_pi_control
      00FF849CH   CODE     ---       Motor_Update
      00FFB36EH   CODE     ---       MotorL_SetSpeed
      00FFB3ABH   CODE     ---       MotorR_SetSpeed
*DEL*:00000000H   CODE     ---       Normal_PID
      00010790H   XDATA    ---       Num
*DEL*:00000000H   CODE     ---       OLED_Clear
*DEL*:00000000H   CODE     ---       OLED_ColorTurn
*DEL*:00000000H   CODE     ---       OLED_DisplayTurn
*DEL*:00000000H   CODE     ---       OLED_Init
L251 LINKER/LOCATER V4.66.93.0                                                        10/15/2025  21:40:28  PAGE 31


*DEL*:00000000H   CODE     ---       oled_pow
*DEL*:00000000H   CODE     ---       OLED_Set_Pos
*DEL*:00000000H   CODE     ---       OLED_ShowChar
*DEL*:00000000H   CODE     ---       OLED_ShowChinese
*DEL*:00000000H   CODE     ---       OLED_ShowNum
*DEL*:00000000H   CODE     ---       OLED_ShowString
*DEL*:00000000H   CODE     ---       OLED_WR_Byte
*SFR* 000000D0H.2 DATA     BIT       OV
*SFR* 000000D0H.0 DATA     BIT       P
*SFR* 00000080H   DATA     BYTE      P0
*SFR* 00000094H   DATA     BYTE      P0M0
*SFR* 00000093H   DATA     BYTE      P0M1
*SFR* 00000090H   DATA     BYTE      P1
*SFR* 00000092H   DATA     BYTE      P1M0
*SFR* 00000091H   DATA     BYTE      P1M1
*SFR* 000000A0H   DATA     BYTE      P2
*SFR* 000000A0H.0 DATA     BIT       P20
*SFR* 000000A0H.1 DATA     BIT       P21
*SFR* 000000A0H.2 DATA     BIT       P22
*SFR* 00000096H   DATA     BYTE      P2M0
*SFR* 00000095H   DATA     BYTE      P2M1
*SFR* 000000B0H   DATA     BYTE      P3
*SFR* 000000B2H   DATA     BYTE      P3M0
*SFR* 000000B1H   DATA     BYTE      P3M1
*SFR* 000000C0H   DATA     BYTE      P4
*SFR* 000000C0H.0 DATA     BIT       P40
*SFR* 000000C0H.1 DATA     BIT       P41
*SFR* 000000C0H.2 DATA     BIT       P42
*SFR* 000000C0H.3 DATA     BIT       P43
*SFR* 000000B4H   DATA     BYTE      P4M0
*SFR* 000000B3H   DATA     BYTE      P4M1
*SFR* 000000C8H   DATA     BYTE      P5
*SFR* 000000CAH   DATA     BYTE      P5M0
*SFR* 000000C9H   DATA     BYTE      P5M1
*SFR* 000000E8H   DATA     BYTE      P6
*SFR* 000000CCH   DATA     BYTE      P6M0
*SFR* 000000CBH   DATA     BYTE      P6M1
*SFR* 000000F8H   DATA     BYTE      P7
*SFR* 000000E2H   DATA     BYTE      P7M0
*SFR* 000000E1H   DATA     BYTE      P7M1
*SFR* 000000A2H   DATA     BYTE      P_SW1
*SFR* 000000BAH   DATA     BYTE      P_SW2
*SFR* 000000BBH   DATA     BYTE      P_SW3
*SFR* 000000BFH   DATA     BYTE      P_SW4
      00010000H   XDATA    ---       Page
      00010A0CH   XDATA    ---       Page0_children
      00010A1AH   XDATA    ---       Page1_children
      00010A2AH   XDATA    ---       Page2_children
      00010A38H   XDATA    ---       Page3_children
      00010A46H   XDATA    ---       Page4_children
      00010A54H   XDATA    ---       Page5_children
*SFR* 00000087H   DATA     BYTE      PCON
      00FF73F8H   CODE     ---       PID_Update
      0001078CH   XDATA    ---       Pin
      00FFA50BH   CODE     ---       pit_handler1
      00FF7A8BH   CODE     ---       pit_init
*DEL*:00000000H   CODE     ---       pow?_
*SFR* 000000B8H.6 DATA     BIT       PPC
      000112ACH   XDATA    INT       Press_time
      00FF2678H   CODE     NEAR LAB  printf
      00FFB330H   CODE     ---       Protect
      00010FDAH   XDATA    BYTE      Protect_flag
*SFR* 000000B8H.4 DATA     BIT       PS
*SFR* 000000D0H   DATA     BYTE      PSW
*SFR* 000000D1H   DATA     BYTE      PSW1
L251 LINKER/LOCATER V4.66.93.0                                                        10/15/2025  21:40:28  PAGE 32


*SFR* 000000B8H.1 DATA     BIT       PT0
*SFR* 000000B8H.3 DATA     BIT       PT1
*SFR* 000000B8H.5 DATA     BIT       PT2
      00FFB64AH   CODE     ---       putchar
      00FFD3DDH   HCONST   ---       PWM_ARR_ADDR
      00FFD3E5H   HCONST   ---       PWM_CCER_ADDR
      00FFD3F5H   HCONST   ---       PWM_CCMR_ADDR
      00FFD3BDH   HCONST   ---       PWM_CCR_ADDR
      00FF59B2H   CODE     ---       pwm_init
      00FFD3B5H   HCONST   ---       PWM_PSCR_ADDR
      00FF8199H   CODE     ---       pwm_set_duty
*DEL*:00000000H   CODE     ---       pwm_set_freq
      00FFB459H   CODE     ---       PWM_Test
*SFR* 000000B8H.0 DATA     BIT       PX0
*SFR* 000000B8H.2 DATA     BIT       PX1
      000111A6H   XDATA    ---       raw_adc_data
*SFR* 00000098H.2 DATA     BIT       RB8
*SFR* 000000CBH   DATA     BYTE      RCAP2H
*SFR* 000000CAH   DATA     BYTE      RCAP2L
*SFR* 000000C8H.5 DATA     BIT       RCLK
*SFR* 000000B0H.7 DATA     BIT       RD
      00FFA844H   CODE     ---       Refesh_arrow
*SFR* 00000098H.4 DATA     BIT       REN
*SFR* 00000098H.0 DATA     BIT       RI
      000111E8H   XDATA    BYTE      Road_Stat
*SFR* 000000D0H.3 DATA     BIT       RS0
*SFR* 000000D0H.4 DATA     BIT       RS1
*SFR* 000000FFH   DATA     BYTE      RSTCFG
*SFR* 000000B0H.0 DATA     BIT       RXD
*SFR* 0000009BH   DATA     BYTE      S2BUF
*SFR* 0000009AH   DATA     BYTE      S2CON
*SFR* 0000009AH.1 DATA     BIT       S2TI
*SFR* 000000ACH   DATA     BYTE      S3CON
*SFR* 000000FDH   DATA     BYTE      S4CON
*SFR* 000000A9H   DATA     BYTE      SADDR
*SFR* 000000B9H   DATA     BYTE      SADEN
      00011283H   XDATA    BYTE      Save_Flag
*SFR* 00000099H   DATA     BYTE      SBUF
*SFR* 00000098H   DATA     BYTE      SCON
*DEL*:00000000H   CODE     ---       seekfree_assistant_camera_boundary_config
*DEL*:00000000H   CODE     ---       seekfree_assistant_camera_data_send
*DEL*:00000000H   CODE     ---       seekfree_assistant_camera_dot_send
*DEL*:00000000H   CODE     ---       seekfree_assistant_camera_information_config
*DEL*:00000000H   CODE     ---       seekfree_assistant_camera_send
*DEL*:00000000H   CODE     ---       seekfree_assistant_data_analysis
*DEL*:00000000H   CODE     ---       seekfree_assistant_init
*DEL*:00000000H   CODE     ---       seekfree_assistant_interface_init
      00010E3CH   XDATA    ---       seekfree_assistant_oscilloscope_data
*DEL*:00000000H   CODE     ---       seekfree_assistant_oscilloscope_send
      00010E7FH   XDATA    ---       seekfree_assistant_parameter
      00010E77H   XDATA    ---       seekfree_assistant_parameter_update_flag
      000112F3H   XDATA    ---       seekfree_assistant_receive_callback
      000112F5H   XDATA    ---       seekfree_assistant_transfer_callback
      00FFB65AH   CODE     ---       Ser_Servo_Duty
      00FFAF18H   CODE     ---       Serve_Test
      00FF9417H   CODE     ---       Servo_Control
      00010FDDH   XDATA    BYTE      Servo_Flag
      00FF0046H   CODE     ---       Servo_Init
      00010FAAH   XDATA    ---       servo_pid
      00FFA356H   CODE     ---       Servo_turn_pid
*DEL*:00000000H   CODE     ---       set_gps_type
      00FFB628H   CODE     ---       Set_Sevo
      00010FD8H   XDATA    INT       Set_T
*DEL*:00000000H   CODE     ---       set_tof_type
*DEL*:00000000H   CODE     ---       set_wireless_type
L251 LINKER/LOCATER V4.66.93.0                                                        10/15/2025  21:40:28  PAGE 33


      000111E6H   XDATA    WORD      Short_Time
      00FFB617H   CODE     ---       show_all_menu
      00FFAA3DH   CODE     ---       Show_bujin
      00011278H   XDATA    BYTE      Show_image_mode
      00FF5425H   CODE     ---       Show_pararm
      00FFB4BCH   CODE     ---       show_test_info
      00FF2839H   CODE     ---       sin?_
      000111F1H   XDATA    WORD      SLOW_Time
*SFR* 00000098H.7 DATA     BIT       SM0
*SFR* 00000098H.6 DATA     BIT       SM1
*SFR* 00000098H.5 DATA     BIT       SM2
      00FFB421H   CODE     ---       soft_iic_delay
*DEL*:00000000H   CODE     ---       soft_iic_init
*DEL*:00000000H   CODE     ---       soft_iic_read_16bit
*DEL*:00000000H   CODE     ---       soft_iic_read_16bit_array
*DEL*:00000000H   CODE     ---       soft_iic_read_16bit_register
*DEL*:00000000H   CODE     ---       soft_iic_read_16bit_registers
*DEL*:00000000H   CODE     ---       soft_iic_read_8bit
*DEL*:00000000H   CODE     ---       soft_iic_read_8bit_array
*DEL*:00000000H   CODE     ---       soft_iic_read_8bit_register
*DEL*:00000000H   CODE     ---       soft_iic_read_8bit_registers
      00FF9CE6H   CODE     ---       soft_iic_read_data
*DEL*:00000000H   CODE     ---       soft_iic_sccb_read_register
*DEL*:00000000H   CODE     ---       soft_iic_sccb_write_register
      00FFAB2AH   CODE     ---       soft_iic_send_ack
      00FFA3EAH   CODE     ---       soft_iic_send_data
      00FFAEC1H   CODE     ---       soft_iic_start
      00FFAD49H   CODE     ---       soft_iic_stop
*DEL*:00000000H   CODE     ---       soft_iic_transfer_16bit_array
*DEL*:00000000H   CODE     ---       soft_iic_transfer_8bit_array
      00FFA9C4H   CODE     ---       soft_iic_wait_ack
*DEL*:00000000H   CODE     ---       soft_iic_write_16bit
*DEL*:00000000H   CODE     ---       soft_iic_write_16bit_array
*DEL*:00000000H   CODE     ---       soft_iic_write_16bit_register
*DEL*:00000000H   CODE     ---       soft_iic_write_16bit_registers
*DEL*:00000000H   CODE     ---       soft_iic_write_8bit
*DEL*:00000000H   CODE     ---       soft_iic_write_8bit_array
*DEL*:00000000H   CODE     ---       soft_iic_write_8bit_register
*DEL*:00000000H   CODE     ---       soft_iic_write_8bit_registers
*DEL*:00000000H   CODE     ---       soft_spi_delay
*DEL*:00000000H   CODE     ---       soft_spi_init
*DEL*:00000000H   CODE     ---       soft_spi_read_16bit
*DEL*:00000000H   CODE     ---       soft_spi_read_16bit_array
*DEL*:00000000H   CODE     ---       soft_spi_read_16bit_register
*DEL*:00000000H   CODE     ---       soft_spi_read_16bit_registers
*DEL*:00000000H   CODE     ---       soft_spi_read_8bit
*DEL*:00000000H   CODE     ---       soft_spi_read_8bit_array
*DEL*:00000000H   CODE     ---       soft_spi_read_8bit_register
*DEL*:00000000H   CODE     ---       soft_spi_read_8bit_registers
*DEL*:00000000H   CODE     ---       soft_spi_transfer_16bit
*DEL*:00000000H   CODE     ---       soft_spi_transfer_8bit
*DEL*:00000000H   CODE     ---       soft_spi_write_16bit
*DEL*:00000000H   CODE     ---       soft_spi_write_16bit_array
*DEL*:00000000H   CODE     ---       soft_spi_write_16bit_register
*DEL*:00000000H   CODE     ---       soft_spi_write_16bit_registers
*DEL*:00000000H   CODE     ---       soft_spi_write_8bit
*DEL*:00000000H   CODE     ---       soft_spi_write_8bit_array
*DEL*:00000000H   CODE     ---       soft_spi_write_8bit_register
*DEL*:00000000H   CODE     ---       soft_spi_write_8bit_registers
*SFR* 00000081H   DATA     BYTE      SP
*SFR* 000000CEH   DATA     BYTE      SPCTL
*SFR* 000000CFH   DATA     BYTE      SPDAT
      00FF8C26H   CODE     ---       Speed_Control
      00FFB545H   CODE     ---       speed_control_ring
      00010FD6H   XDATA    INT       Speed_Mode
L251 LINKER/LOCATER V4.66.93.0                                                        10/15/2025  21:40:28  PAGE 34


      000112E4H   XDATA    BYTE      speed_update_flag
*SFR* 000000BEH   DATA     BYTE      SPH
      00FF5EC2H   CODE     ---       spi_init
*DEL*:00000000H   CODE     ---       spi_read_16bit
*DEL*:00000000H   CODE     ---       spi_read_16bit_array
*DEL*:00000000H   CODE     ---       spi_read_16bit_register
*DEL*:00000000H   CODE     ---       spi_read_16bit_registers
*DEL*:00000000H   CODE     ---       spi_read_8bit
*DEL*:00000000H   CODE     ---       spi_read_8bit_array
*DEL*:00000000H   CODE     ---       spi_read_8bit_register
*DEL*:00000000H   CODE     ---       spi_read_8bit_registers
*DEL*:00000000H   CODE     ---       spi_read_dat
*DEL*:00000000H   CODE     ---       spi_transfer_16bit
*DEL*:00000000H   CODE     ---       spi_transfer_8bit
      00FFB5BCH   CODE     ---       spi_write_16bit
*DEL*:00000000H   CODE     ---       spi_write_16bit_array
*DEL*:00000000H   CODE     ---       spi_write_16bit_register
*DEL*:00000000H   CODE     ---       spi_write_16bit_registers
      00FF0003H   CODE     ---       spi_write_8bit
*DEL*:00000000H   CODE     ---       spi_write_8bit_array
*DEL*:00000000H   CODE     ---       spi_write_8bit_register
*DEL*:00000000H   CODE     ---       spi_write_8bit_registers
      00FFB1B8H   CODE     ---       spi_write_dat
      00FF26A4H   CODE     NEAR LAB  sprintf
*SFR* 000000CDH   DATA     BYTE      SPSTAT
      00FF26CAH   CODE     ---       sqrt?_
      0001127FH   XDATA    CHAR      Start_Show_Row
      000112A9H   XDATA    BYTE      State
      00FF6B31H   CODE     ---       State_of_road
*DEL*:00000000H   CODE     ---       strchr?_
*DEL*:00000000H   CODE     ---       strlen?_
*DEL*:00000000H   CODE     ---       strncmp?_
*DEL*:00000000H   CODE     ---       strncpy?_
      000112EBH   XDATA    LONG      system_clock
      00FFAE0DH   CODE     ---       system_delay_init
      00FFAC0FH   CODE     ---       system_delay_ms
*DEL*:00000000H   CODE     ---       system_delay_us
      000112E0H   XDATA    INT       T
*SFR* 000000B0H.4 DATA     BIT       T0
*SFR* 000000B0H.5 DATA     BIT       T1
*SFR* 00000090H.0 DATA     BIT       T2
*SFR* 000000C8H   DATA     BYTE      T2CON
*SFR* 00000090H.1 DATA     BIT       T2EX
*SFR* 000000D6H   DATA     BYTE      T2H
*SFR* 000000D7H   DATA     BYTE      T2L
*SFR* 000000C9H   DATA     BYTE      T2MOD
      00010F72H   XDATA    INT       T3
*SFR* 000000D4H   DATA     BYTE      T3H
*SFR* 000000D5H   DATA     BYTE      T3L
      000112DEH   XDATA    INT       T4
*SFR* 000000D2H   DATA     BYTE      T4H
*SFR* 000000D3H   DATA     BYTE      T4L
*SFR* 000000DDH   DATA     BYTE      T4T3M
      00FF286EH   CODE     ---       TAN?_
*SFR* 00000098H.3 DATA     BIT       TB8
*SFR* 000000C8H.4 DATA     BIT       TCLK
*SFR* 00000088H   DATA     BYTE      TCON
*SFR* 00000088H.5 DATA     BIT       TF0
*SFR* 00000088H.7 DATA     BIT       TF1
*SFR* 000000C8H.7 DATA     BIT       TF2
      000112D0H   XDATA    WORD      tft180_bgcolor
      00FFACE2H   CODE     ---       tft180_clear
      000112D2H   XDATA    INT       tft180_display_dir
*DEL*:00000000H   CODE     ---       tft180_draw_point
      00FF6E63H   CODE     ---       tft180_init
L251 LINKER/LOCATER V4.66.93.0                                                        10/15/2025  21:40:28  PAGE 35


      000112CEH   XDATA    WORD      tft180_pencolor
      00FF000EH   CODE     ---       tft180_set_color
      00FFB570H   CODE     ---       tft180_set_dir
      00FF9259H   CODE     ---       tft180_show_char
      00FF7E35H   CODE     ---       tft180_show_float
      00FF89C4H   CODE     ---       tft180_show_int16
*DEL*:00000000H   CODE     ---       tft180_show_int32
*DEL*:00000000H   CODE     ---       tft180_show_int8
      00FF9EFDH   CODE     ---       tft180_show_string
*DEL*:00000000H   CODE     ---       tft180_show_uint16
*DEL*:00000000H   CODE     ---       tft180_show_uint8
*DEL*:00000000H   CODE     ---       tft180_show_wave
      000112D4H   XDATA    BYTE      tft180_x_max
      000112D5H   XDATA    BYTE      tft180_y_max
*SFR* 0000008CH   DATA     BYTE      TH0
*SFR* 0000008DH   DATA     BYTE      TH1
*SFR* 000000CDH   DATA     BYTE      TH2
*SFR* 00000098H.1 DATA     BIT       TI
      00011211H   XDATA    ---       tim0_irq_handler
      00011207H   XDATA    ---       tim11_irq_handler
      00011215H   XDATA    ---       tim1_irq_handler
      00011219H   XDATA    ---       tim2_irq_handler
      0001121DH   XDATA    ---       tim3_irq_handler
      00011221H   XDATA    ---       tim4_irq_handler
      000112AFH   XDATA    WORD      Time_dou
      00FFAFC0H   CODE     ---       timer_funciton_check
*SFR* 0000008AH   DATA     BYTE      TL0
*SFR* 0000008BH   DATA     BYTE      TL1
*SFR* 000000CCH   DATA     BYTE      TL2
      00FFB1FAH   CODE     ---       TM0_IRQHandler
      00FFB058H   CODE     ---       TM11_IRQHandler
      00FFB238H   CODE     ---       TM1_IRQHandler
      00FFB276H   CODE     ---       TM2_IRQHandler
      00FFB2B4H   CODE     ---       TM3_IRQHandler
      00FFB2F2H   CODE     ---       TM4_IRQHandler
*SFR* 00000089H   DATA     BYTE      TMOD
      000112C6H   XDATA    ---       tof_module_exti_handler
      000112CAH   XDATA    INT       tof_type
*SFR* 00000088H.4 DATA     BIT       TR0
*SFR* 00000088H.6 DATA     BIT       TR1
*SFR* 000000C8H.2 DATA     BIT       TR2
      000112AAH   XDATA    INT       Trigg_time
*DEL*:00000000H   CODE     ---       tsl1401_collect_pit_handler
      00010A63H   XDATA    ---       tsl1401_data
      00010A62H   XDATA    BYTE      tsl1401_finish_flag
*DEL*:00000000H   CODE     ---       tsl1401_init
*DEL*:00000000H   CODE     ---       tsl1401_send_data
      00FF9B71H   CODE     ---       Turn_mode
      00FF7C66H   CODE     ---       Turn_mode_Init
      000111EDH   XDATA    INT       turn_Value
*SFR* 000000B0H.1 DATA     BIT       TXD
      00011209H   XDATA    ---       uart1_irq_handler
      0001120BH   XDATA    ---       uart2_irq_handler
      0001120DH   XDATA    ---       uart3_irq_handler
      0001120FH   XDATA    ---       uart4_irq_handler
      00FF8602H   CODE     ---       uart_dma_init
      00FFB00CH   CODE     ---       uart_funciton_check
      00FF7630H   CODE     ---       uart_init
      00FFADABH   CODE     ---       uart_query_byte
*DEL*:00000000H   CODE     ---       uart_read_byte
      00011299H   XDATA    ---       uart_rx_buff
      00FFB0EBH   CODE     ---       uart_rx_interrupt
      00FFA47BH   CODE     ---       uart_rx_start_buff
      00FF9096H   CODE     ---       uart_write_buffer
      00FFB5F1H   CODE     ---       uart_write_byte
L251 LINKER/LOCATER V4.66.93.0                                                        10/15/2025  21:40:28  PAGE 36


*DEL*:00000000H   CODE     ---       uart_write_string
      00FFA596H   CODE     ---       unification
*SFR* 000000F4H   DATA     BYTE      USBCON
*SFR* 000000C1H   DATA     BYTE      WDT_CONTR
*SFR* 000000A6H   DATA     BYTE      WDTRST
      000112C8H   XDATA    INT       wireless_type
*DEL*:00000000H   CODE     ---       wireless_uart_callback
*DEL*:00000000H   CODE     ---       wireless_uart_init
*DEL*:00000000H   CODE     ---       wireless_uart_read_buffer
*DEL*:00000000H   CODE     ---       wireless_uart_send_buffer
*DEL*:00000000H   CODE     ---       wireless_uart_send_byte
*DEL*:00000000H   CODE     ---       wireless_uart_send_string
*SFR* 000000ABH   DATA     BYTE      WKTCH
*SFR* 000000B0H.6 DATA     BIT       WR
*SFR* 000000E9H   DATA     BYTE      WTST
      00FF4618H   CODE     ---       zf_sprintf



SYMBOL TABLE OF MODULE:  .\out_file\SEEKFREE (ai8051u_isr)

      VALUE       REP       CLASS    TYPE      SYMBOL NAME
      ====================================================
      ---         MODULE    ---      ---       ai8051u_isr

      00FF019BH   BLOCK     CODE     NEAR LAB  LVL=0
      00FF019BH   LINE      CODE     ---       #3
      ---         BLOCKEND  ---      ---       LVL=0

      00FF01ABH   BLOCK     CODE     NEAR LAB  LVL=0
      00FF01ABH   LINE      CODE     ---       #6
      ---         BLOCKEND  ---      ---       LVL=0

      00FF01BBH   BLOCK     CODE     NEAR LAB  LVL=0
      00FF01BBH   LINE      CODE     ---       #9
      ---         BLOCKEND  ---      ---       LVL=0

      00FF01CBH   BLOCK     CODE     NEAR LAB  LVL=0
      00FF01CBH   LINE      CODE     ---       #12
      ---         BLOCKEND  ---      ---       LVL=0

      00FF021BH   BLOCK     CODE     NEAR LAB  LVL=0
      00FF021BH   LINE      CODE     ---       #15
      ---         BLOCKEND  ---      ---       LVL=0

      ---         MODULE    ---      ---       zf_common_clock
      00FF9339H   PUBLIC    CODE     ---       clock_init
      000112EBH   PUBLIC    XDATA    LONG      system_clock
      00000094H   SFRSYM    DATA     BYTE      P0M0
      000000D0H   SFRSYM    DATA     BYTE      PSW
      0000009DH   SFRSYM    DATA     BYTE      IRCBAND
      00000097H   SFRSYM    DATA     BYTE      AUXR2
      000000EAH   SFRSYM    DATA     BYTE      CKCON
      000000EFH   SFRSYM    DATA     BYTE      AUXINTIF
      000000FDH   SFRSYM    DATA     BYTE      S4CON
      000000ACH   SFRSYM    DATA     BYTE      S3CON
      0000009AH   SFRSYM    DATA     BYTE      S2CON
      000000B7H   SFRSYM    DATA     BYTE      IPH
      000000CDH   SFRSYM    DATA     BYTE      SPSTAT
      000000DDH   SFRSYM    DATA     BYTE      T4T3M
      000000C1H   SFRSYM    DATA     BYTE      WDT_CONTR
      000000E9H   SFRSYM    DATA     BYTE      WTST
      000000DFH   SFRSYM    DATA     BYTE      IP3
      000000F4H   SFRSYM    DATA     BYTE      USBCON
      000000B5H   SFRSYM    DATA     BYTE      IP2
L251 LINKER/LOCATER V4.66.93.0                                                        10/15/2025  21:40:28  PAGE 37


      000000FFH   SFRSYM    DATA     BYTE      RSTCFG
      000000C7H   SFRSYM    DATA     BYTE      IAP_CONTR
      0000008EH   SFRSYM    DATA     BYTE      AUXR
      000000AFH   SFRSYM    DATA     BYTE      IE2
      00000088H   SFRSYM    DATA     BYTE      TCON
      00000089H   SFRSYM    DATA     BYTE      TMOD
      00000098H   SFRSYM    DATA     BYTE      SCON
      00000087H   SFRSYM    DATA     BYTE      PCON
      000000BCH   SFRSYM    DATA     BYTE      ADC_CONTR
      000000D1H   SFRSYM    DATA     BYTE      PSW1
      000000E7H   SFRSYM    DATA     BYTE      CMPCR2
      000000E6H   SFRSYM    DATA     BYTE      CMPCR1
      000000DEH   SFRSYM    DATA     BYTE      ADCCFG
      000000B8H   SFRSYM    DATA     BYTE      IP
      0000008FH   SFRSYM    DATA     BYTE      INTCLKO
      000000EEH   SFRSYM    DATA     BYTE      IP3H
      000000B6H   SFRSYM    DATA     BYTE      IP2H
      000000BFH   SFRSYM    DATA     BYTE      P_SW4
      000000A8H   SFRSYM    DATA     BYTE      IE
      000000BBH   SFRSYM    DATA     BYTE      P_SW3
      000000BAH   SFRSYM    DATA     BYTE      P_SW2
      000000A2H   SFRSYM    DATA     BYTE      P_SW1
      000000CEH   SFRSYM    DATA     BYTE      SPCTL
      000000F8H   SFRSYM    DATA     BYTE      P7
      000000E1H   SFRSYM    DATA     BYTE      P7M1
      000000E8H   SFRSYM    DATA     BYTE      P6
      000000C8H   SFRSYM    DATA     BYTE      P5
      000000CBH   SFRSYM    DATA     BYTE      P6M1
      000000E2H   SFRSYM    DATA     BYTE      P7M0
      000000C0H   SFRSYM    DATA     BYTE      P4
      000000C9H   SFRSYM    DATA     BYTE      P5M1
      000000CCH   SFRSYM    DATA     BYTE      P6M0
      000000ABH   SFRSYM    DATA     BYTE      WKTCH
      000000B0H   SFRSYM    DATA     BYTE      P3
      000000B3H   SFRSYM    DATA     BYTE      P4M1
      000000CAH   SFRSYM    DATA     BYTE      P5M0
      000000A0H   SFRSYM    DATA     BYTE      P2
      000000B1H   SFRSYM    DATA     BYTE      P3M1
      000000B4H   SFRSYM    DATA     BYTE      P4M0
      00000090H   SFRSYM    DATA     BYTE      P1
      00000095H   SFRSYM    DATA     BYTE      P2M1
      000000B2H   SFRSYM    DATA     BYTE      P3M0
      00000080H   SFRSYM    DATA     BYTE      P0
      00000091H   SFRSYM    DATA     BYTE      P1M1
      00000096H   SFRSYM    DATA     BYTE      P2M0
      00000092H   SFRSYM    DATA     BYTE      P1M0
      00000093H   SFRSYM    DATA     BYTE      P0M1

      00FF9339H   BLOCK     CODE     ---       LVL=0
      DR12        REGSYM    ---      DWORD     clock
      00FF9339H   LINE      CODE     ---       #47
      00FF933DH   LINE      CODE     ---       #49
      00FF9340H   LINE      CODE     ---       #50
      00FF9343H   LINE      CODE     ---       #51
      00FF9346H   LINE      CODE     ---       #54
      00FF9353H   LINE      CODE     ---       #55
      00FF9361H   LINE      CODE     ---       #56
      00FF936DH   LINE      CODE     ---       #57
      00FF937AH   LINE      CODE     ---       #58
      00FF9386H   LINE      CODE     ---       #60
      00FF9389H   LINE      CODE     ---       #63
      00FF9393H   LINE      CODE     ---       #65
      00FF9396H   LINE      CODE     ---       #66
      00FF9399H   LINE      CODE     ---       #67
      00FF939CH   LINE      CODE     ---       #68
L251 LINKER/LOCATER V4.66.93.0                                                        10/15/2025  21:40:28  PAGE 38


      00FF939FH   LINE      CODE     ---       #69
      00FF93A2H   LINE      CODE     ---       #70
      00FF93A5H   LINE      CODE     ---       #71
      00FF93A8H   LINE      CODE     ---       #72
      00FF93ABH   LINE      CODE     ---       #73
      00FF93AEH   LINE      CODE     ---       #74
      00FF93B1H   LINE      CODE     ---       #75
      00FF93B4H   LINE      CODE     ---       #76
      00FF93B7H   LINE      CODE     ---       #77
      00FF93BAH   LINE      CODE     ---       #78
      00FF93BDH   LINE      CODE     ---       #79
      00FF93C0H   LINE      CODE     ---       #80
      00FF93C3H   LINE      CODE     ---       #83
      00FF93C6H   LINE      CODE     ---       #84
      00FF93C9H   LINE      CODE     ---       #85
      00FF93CCH   LINE      CODE     ---       #86
      00FF93CFH   LINE      CODE     ---       #87
      00FF93D2H   LINE      CODE     ---       #88
      00FF93D5H   LINE      CODE     ---       #89
      00FF93D8H   LINE      CODE     ---       #90
      00FF93DBH   LINE      CODE     ---       #91
      00FF93DEH   LINE      CODE     ---       #92
      00FF93E1H   LINE      CODE     ---       #93
      00FF93EDH   LINE      CODE     ---       #94
      00FF93F9H   LINE      CODE     ---       #96
      00FF9405H   LINE      CODE     ---       #97
      00FF9411H   LINE      CODE     ---       #100
      00FF9414H   LINE      CODE     ---       #101
      ---         BLOCKEND  ---      ---       LVL=0

      ---         MODULE    ---      ---       zf_common_debug
      00FFB3E8H   PUBLIC    CODE     ---       debug_interrupr_handler
      00FFA196H   PUBLIC    CODE     ---       debug_init
      00FFAC7AH   PUBLIC    CODE     ---       debug_assert_handler
      00FFB64AH   PUBLIC    CODE     ---       putchar
      0001109FH   PUBLIC    XDATA    ---       debug_uart_buffer
      000110E0H   PUBLIC    XDATA    ---       debug_uart_fifo
      000000D0H   SFRSYM    DATA     BYTE      PSW
      0000009DH   SFRSYM    DATA     BYTE      IRCBAND
      00000097H   SFRSYM    DATA     BYTE      AUXR2
      000000EFH   SFRSYM    DATA     BYTE      AUXINTIF
      000000FDH   SFRSYM    DATA     BYTE      S4CON
      000000ACH   SFRSYM    DATA     BYTE      S3CON
      0000009AH   SFRSYM    DATA     BYTE      S2CON
      000000B7H   SFRSYM    DATA     BYTE      IPH
      000000CDH   SFRSYM    DATA     BYTE      SPSTAT
      000000DDH   SFRSYM    DATA     BYTE      T4T3M
      000000C1H   SFRSYM    DATA     BYTE      WDT_CONTR
      000000DFH   SFRSYM    DATA     BYTE      IP3
      000000F4H   SFRSYM    DATA     BYTE      USBCON
      000000B5H   SFRSYM    DATA     BYTE      IP2
      000000FFH   SFRSYM    DATA     BYTE      RSTCFG
      000000C7H   SFRSYM    DATA     BYTE      IAP_CONTR
      0000008EH   SFRSYM    DATA     BYTE      AUXR
      000000AFH   SFRSYM    DATA     BYTE      IE2
      00000088H   SFRSYM    DATA     BYTE      TCON
      00000089H   SFRSYM    DATA     BYTE      TMOD
      00000098H   SFRSYM    DATA     BYTE      SCON
      00000087H   SFRSYM    DATA     BYTE      PCON
      000000BCH   SFRSYM    DATA     BYTE      ADC_CONTR
      000000D1H   SFRSYM    DATA     BYTE      PSW1
      000000E7H   SFRSYM    DATA     BYTE      CMPCR2
      000000E6H   SFRSYM    DATA     BYTE      CMPCR1
      000000DEH   SFRSYM    DATA     BYTE      ADCCFG
      000000B8H   SFRSYM    DATA     BYTE      IP
L251 LINKER/LOCATER V4.66.93.0                                                        10/15/2025  21:40:28  PAGE 39


      0000008FH   SFRSYM    DATA     BYTE      INTCLKO
      000000EEH   SFRSYM    DATA     BYTE      IP3H
      000000B6H   SFRSYM    DATA     BYTE      IP2H
      000000BFH   SFRSYM    DATA     BYTE      P_SW4
      000000A8H   SFRSYM    DATA     BYTE      IE
      000000BBH   SFRSYM    DATA     BYTE      P_SW3
      000000BAH   SFRSYM    DATA     BYTE      P_SW2
      000000A2H   SFRSYM    DATA     BYTE      P_SW1
      000000CEH   SFRSYM    DATA     BYTE      SPCTL
      000000F8H   SFRSYM    DATA     BYTE      P7
      000000E8H   SFRSYM    DATA     BYTE      P6
      000000C8H   SFRSYM    DATA     BYTE      P5
      000000C0H   SFRSYM    DATA     BYTE      P4
      000000ABH   SFRSYM    DATA     BYTE      WKTCH
      000000B0H   SFRSYM    DATA     BYTE      P3
      000000A0H   SFRSYM    DATA     BYTE      P2
      00000090H   SFRSYM    DATA     BYTE      P1
      00000080H   SFRSYM    DATA     BYTE      P0
      00FFD7A8H   SYMBOL    HCONST   ---       ?tpl?0001
      000110DFH   SYMBOL    XDATA    BYTE      zf_debug_assert_enable
      000110F7H   SYMBOL    XDATA    BYTE      zf_debug_init_flag
      DR12        REGSYM    ---      DWORD     len
      REG=2       REGSYM    ---      ---       buff

      00FFB3E8H   BLOCK     CODE     ---       LVL=0
      0001100AH   SYMBOL    XDATA    BYTE      dat
      00FFB3E8H   LINE      CODE     ---       #281
      00FFB3ECH   LINE      CODE     ---       #283
      00FFB3F2H   LINE      CODE     ---       #285
      00FFB3FFH   LINE      CODE     ---       #286
      00FFB420H   LINE      CODE     ---       #287
      ---         BLOCKEND  ---      ---       LVL=0

      00FFB64AH   BLOCK     CODE     ---       LVL=0
      R15         REGSYM    ---      CHAR      c
      00FFB64AH   LINE      CODE     ---       #303
      00FFB64EH   LINE      CODE     ---       #305
      00FFB655H   LINE      CODE     ---       #307
      00FFB657H   LINE      CODE     ---       #308
      ---         BLOCKEND  ---      ---       LVL=0

      00FFAC7AH   BLOCK     CODE     ---       LVL=0
      00011049H   SYMBOL    XDATA    BYTE      pass
      REG=3       REGSYM    ---      ---       file
      0001104AH   SYMBOL    XDATA    INT       line
      00FFAC88H   BLOCK     CODE     NEAR LAB  LVL=1
      0001104CH   SYMBOL    XDATA    ---       log_str
      ---         BLOCKEND  ---      ---       LVL=1
      00FFAC7AH   LINE      CODE     ---       #346
      00FFAC88H   LINE      CODE     ---       #347
      00FFAC88H   LINE      CODE     ---       #348
      00FFAC9DH   LINE      CODE     ---       #350
      00FFAC9FH   LINE      CODE     ---       #366
      00FFACD2H   LINE      CODE     ---       #369
      00FFACD9H   LINE      CODE     ---       #370
      00FFACDFH   LINE      CODE     ---       #371
      ---         BLOCKEND  ---      ---       LVL=0

      00FFA196H   BLOCK     CODE     ---       LVL=0
      00FFA198H   BLOCK     CODE     NEAR LAB  LVL=1
      R15         REGSYM    ---      BYTE      uartx
      ---         BLOCKEND  ---      ---       LVL=1
      00FFA196H   LINE      CODE     ---       #453
      00FFA198H   LINE      CODE     ---       #454
      00FFA198H   LINE      CODE     ---       #455
L251 LINKER/LOCATER V4.66.93.0                                                        10/15/2025  21:40:28  PAGE 40


      00FFA19AH   LINE      CODE     ---       #461
      00FFA1B5H   LINE      CODE     ---       #468
      00FFA1E2H   LINE      CODE     ---       #469
      00FFA1E9H   LINE      CODE     ---       #472
      00FFA1EDH   LINE      CODE     ---       #474
      00FFA1F7H   LINE      CODE     ---       #475
      00FFA1F9H   LINE      CODE     ---       #476
      00FFA1FEH   LINE      CODE     ---       #478
      00FFA208H   LINE      CODE     ---       #479
      00FFA20AH   LINE      CODE     ---       #480
      00FFA20FH   LINE      CODE     ---       #482
      00FFA219H   LINE      CODE     ---       #483
      00FFA21BH   LINE      CODE     ---       #484
      00FFA220H   LINE      CODE     ---       #486
      00FFA22AH   LINE      CODE     ---       #487
      ---         BLOCKEND  ---      ---       LVL=0

      ---         MODULE    ---      ---       zf_common_fifo
      00FF6367H   PUBLIC    CODE     ---       fifo_write_buffer
      00FFA8C7H   PUBLIC    CODE     ---       fifo_init
      00011007H   PUBLIC    XDATA    BYTE      ?fifo_write_buffer?BYTE
      00011006H   PUBLIC    XDATA    BYTE      ?fifo_init?BYTE
      000000D0H   SFRSYM    DATA     BYTE      PSW
      0000009DH   SFRSYM    DATA     BYTE      IRCBAND
      00000097H   SFRSYM    DATA     BYTE      AUXR2
      000000EFH   SFRSYM    DATA     BYTE      AUXINTIF
      000000FDH   SFRSYM    DATA     BYTE      S4CON
      000000ACH   SFRSYM    DATA     BYTE      S3CON
      0000009AH   SFRSYM    DATA     BYTE      S2CON
      000000B7H   SFRSYM    DATA     BYTE      IPH
      000000CDH   SFRSYM    DATA     BYTE      SPSTAT
      000000DDH   SFRSYM    DATA     BYTE      T4T3M
      000000C1H   SFRSYM    DATA     BYTE      WDT_CONTR
      000000DFH   SFRSYM    DATA     BYTE      IP3
      000000F4H   SFRSYM    DATA     BYTE      USBCON
      000000B5H   SFRSYM    DATA     BYTE      IP2
      000000FFH   SFRSYM    DATA     BYTE      RSTCFG
      000000C7H   SFRSYM    DATA     BYTE      IAP_CONTR
      0000008EH   SFRSYM    DATA     BYTE      AUXR
      000000AFH   SFRSYM    DATA     BYTE      IE2
      00000088H   SFRSYM    DATA     BYTE      TCON
      00000089H   SFRSYM    DATA     BYTE      TMOD
      00000098H   SFRSYM    DATA     BYTE      SCON
      00000087H   SFRSYM    DATA     BYTE      PCON
      000000BCH   SFRSYM    DATA     BYTE      ADC_CONTR
      000000D1H   SFRSYM    DATA     BYTE      PSW1
      000000E7H   SFRSYM    DATA     BYTE      CMPCR2
      000000E6H   SFRSYM    DATA     BYTE      CMPCR1
      000000DEH   SFRSYM    DATA     BYTE      ADCCFG
      000000B8H   SFRSYM    DATA     BYTE      IP
      0000008FH   SFRSYM    DATA     BYTE      INTCLKO
      000000EEH   SFRSYM    DATA     BYTE      IP3H
      000000B6H   SFRSYM    DATA     BYTE      IP2H
      000000BFH   SFRSYM    DATA     BYTE      P_SW4
      000000A8H   SFRSYM    DATA     BYTE      IE
      000000BBH   SFRSYM    DATA     BYTE      P_SW3
      000000BAH   SFRSYM    DATA     BYTE      P_SW2
      000000A2H   SFRSYM    DATA     BYTE      P_SW1
      000000CEH   SFRSYM    DATA     BYTE      SPCTL
      000000F8H   SFRSYM    DATA     BYTE      P7
      000000E8H   SFRSYM    DATA     BYTE      P6
      000000C8H   SFRSYM    DATA     BYTE      P5
      000000C0H   SFRSYM    DATA     BYTE      P4
      000000ABH   SFRSYM    DATA     BYTE      WKTCH
      000000B0H   SFRSYM    DATA     BYTE      P3
L251 LINKER/LOCATER V4.66.93.0                                                        10/15/2025  21:40:28  PAGE 41


      000000A0H   SFRSYM    DATA     BYTE      P2
      00000090H   SFRSYM    DATA     BYTE      P1
      00000080H   SFRSYM    DATA     BYTE      P0
      00FF01CEH   SYMBOL    CODE     ---       fifo_head_offset

      00FF01CEH   BLOCK     CODE     ---       LVL=0
      REG=7       REGSYM    ---      ---       fifo
      DR24        REGSYM    ---      DWORD     offset
      00FF01CEH   LINE      CODE     ---       #51
      00FF01D2H   LINE      CODE     ---       #53
      00FF01E6H   LINE      CODE     ---       #55
      00FF01E8H   LINE      CODE     ---       #57
      00FF0206H   LINE      CODE     ---       #58
      00FF021AH   LINE      CODE     ---       #59
      ---         BLOCKEND  ---      ---       LVL=0
      REG=7       REGSYM    ---      ---       fifo
      DR24        REGSYM    ---      DWORD     offset
      REG=3       REGSYM    ---      ---       fifo
      REG=3       REGSYM    ---      ---       fifo

      00FF6367H   BLOCK     CODE     ---       LVL=0
      REG=3       REGSYM    ---      ---       fifo
      0001100BH   SYMBOL    XDATA    ---       dat
      0001100FH   SYMBOL    XDATA    DWORD     length
      00FF6375H   BLOCK     CODE     NEAR LAB  LVL=1
      00011013H   SYMBOL    XDATA    INT       return_state
      00011015H   SYMBOL    XDATA    DWORD     temp_length
      ---         BLOCKEND  ---      ---       LVL=1
      00FF6367H   LINE      CODE     ---       #178
      00FF6375H   LINE      CODE     ---       #179
      00FF6375H   LINE      CODE     ---       #180
      00FF637DH   LINE      CODE     ---       #181
      00FF6389H   LINE      CODE     ---       #182
      00FF63A3H   LINE      CODE     ---       #184
      00FF63A3H   LINE      CODE     ---       #186
      00FF63B1H   LINE      CODE     ---       #188
      00FF63BBH   LINE      CODE     ---       #189
      00FF63BEH   LINE      CODE     ---       #190
      00FF63BEH   LINE      CODE     ---       #191
      00FF63C9H   LINE      CODE     ---       #193
      00FF63D3H   LINE      CODE     ---       #194
      00FF63D6H   LINE      CODE     ---       #195
      00FF63D6H   LINE      CODE     ---       #196
      00FF63DEH   LINE      CODE     ---       #198
      00FF63F7H   LINE      CODE     ---       #200
      00FF6413H   LINE      CODE     ---       #202
      00FF642EH   LINE      CODE     ---       #204
      00FF6447H   LINE      CODE     ---       #206
      00FF6447H   LINE      CODE     ---       #208
      00FF6474H   LINE      CODE     ---       #211
      00FF6483H   LINE      CODE     ---       #212
      00FF64CEH   LINE      CODE     ---       #216
      00FF64E9H   LINE      CODE     ---       #217
      00FF64ECH   LINE      CODE     ---       #218
      00FF64ECH   LINE      CODE     ---       #220
      00FF651DH   LINE      CODE     ---       #223
      00FF652CH   LINE      CODE     ---       #224
      00FF6579H   LINE      CODE     ---       #228
      00FF6594H   LINE      CODE     ---       #229
      00FF6597H   LINE      CODE     ---       #230
      00FF6597H   LINE      CODE     ---       #232
      00FF65CCH   LINE      CODE     ---       #235
      00FF65DBH   LINE      CODE     ---       #236
      00FF662EH   LINE      CODE     ---       #240
      00FF6649H   LINE      CODE     ---       #241
L251 LINKER/LOCATER V4.66.93.0                                                        10/15/2025  21:40:28  PAGE 42


      00FF6649H   LINE      CODE     ---       #242
      00FF6649H   LINE      CODE     ---       #243
      00FF664CH   LINE      CODE     ---       #246
      00FF6662H   LINE      CODE     ---       #248
      00FF6662H   LINE      CODE     ---       #250
      00FF668FH   LINE      CODE     ---       #253
      00FF669EH   LINE      CODE     ---       #254
      00FF66A1H   LINE      CODE     ---       #255
      00FF66A1H   LINE      CODE     ---       #257
      00FF66D2H   LINE      CODE     ---       #260
      00FF66E1H   LINE      CODE     ---       #261
      00FF66E3H   LINE      CODE     ---       #262
      00FF66E3H   LINE      CODE     ---       #264
      00FF6718H   LINE      CODE     ---       #267
      00FF6727H   LINE      CODE     ---       #268
      00FF6727H   LINE      CODE     ---       #269
      00FF6727H   LINE      CODE     ---       #270
      00FF6727H   LINE      CODE     ---       #272
      00FF6747H   LINE      CODE     ---       #273
      00FF6749H   LINE      CODE     ---       #276
      00FF6753H   LINE      CODE     ---       #277
      00FF6753H   LINE      CODE     ---       #278
      00FF675BH   LINE      CODE     ---       #279
      00FF675BH   LINE      CODE     ---       #281
      00FF6761H   LINE      CODE     ---       #282
      ---         BLOCKEND  ---      ---       LVL=0
      REG=3       REGSYM    ---      ---       fifo

      00FFA8C7H   BLOCK     CODE     ---       LVL=0
      REG=3       REGSYM    ---      ---       fifo
      0001100AH   SYMBOL    XDATA    INT       type
      0001100CH   SYMBOL    XDATA    ---       buffer_addr
      00011010H   SYMBOL    XDATA    DWORD     siz
      00FFA8C7H   LINE      CODE     ---       #549
      00FFA8D1H   LINE      CODE     ---       #551
      00FFA8EBH   LINE      CODE     ---       #552
      00FFA8EBH   LINE      CODE     ---       #554
      00FFA8FDH   LINE      CODE     ---       #555
      00FFA901H   LINE      CODE     ---       #556
      00FFA90BH   LINE      CODE     ---       #557
      00FFA915H   LINE      CODE     ---       #558
      00FFA91FH   LINE      CODE     ---       #559
      00FFA931H   LINE      CODE     ---       #560
      00FFA943H   LINE      CODE     ---       #561
      00FFA943H   LINE      CODE     ---       #562
      00FFA945H   LINE      CODE     ---       #563
      ---         BLOCKEND  ---      ---       LVL=0

      ---         MODULE    ---      ---       zf_common_font
      00FF4E35H   PUBLIC    CODE     ---       ascii_font_8x16
      000000D0H   SFRSYM    DATA     BYTE      PSW
      0000009DH   SFRSYM    DATA     BYTE      IRCBAND
      00000097H   SFRSYM    DATA     BYTE      AUXR2
      000000EFH   SFRSYM    DATA     BYTE      AUXINTIF
      000000FDH   SFRSYM    DATA     BYTE      S4CON
      000000ACH   SFRSYM    DATA     BYTE      S3CON
      0000009AH   SFRSYM    DATA     BYTE      S2CON
      000000B7H   SFRSYM    DATA     BYTE      IPH
      000000CDH   SFRSYM    DATA     BYTE      SPSTAT
      000000DDH   SFRSYM    DATA     BYTE      T4T3M
      000000C1H   SFRSYM    DATA     BYTE      WDT_CONTR
      000000DFH   SFRSYM    DATA     BYTE      IP3
      000000F4H   SFRSYM    DATA     BYTE      USBCON
      000000B5H   SFRSYM    DATA     BYTE      IP2
      000000FFH   SFRSYM    DATA     BYTE      RSTCFG
L251 LINKER/LOCATER V4.66.93.0                                                        10/15/2025  21:40:28  PAGE 43


      000000C7H   SFRSYM    DATA     BYTE      IAP_CONTR
      0000008EH   SFRSYM    DATA     BYTE      AUXR
      000000AFH   SFRSYM    DATA     BYTE      IE2
      00000088H   SFRSYM    DATA     BYTE      TCON
      00000089H   SFRSYM    DATA     BYTE      TMOD
      00000098H   SFRSYM    DATA     BYTE      SCON
      00000087H   SFRSYM    DATA     BYTE      PCON
      000000BCH   SFRSYM    DATA     BYTE      ADC_CONTR
      000000D1H   SFRSYM    DATA     BYTE      PSW1
      000000E7H   SFRSYM    DATA     BYTE      CMPCR2
      000000E6H   SFRSYM    DATA     BYTE      CMPCR1
      000000DEH   SFRSYM    DATA     BYTE      ADCCFG
      000000B8H   SFRSYM    DATA     BYTE      IP
      0000008FH   SFRSYM    DATA     BYTE      INTCLKO
      000000EEH   SFRSYM    DATA     BYTE      IP3H
      000000B6H   SFRSYM    DATA     BYTE      IP2H
      000000BFH   SFRSYM    DATA     BYTE      P_SW4
      000000A8H   SFRSYM    DATA     BYTE      IE
      000000BBH   SFRSYM    DATA     BYTE      P_SW3
      000000BAH   SFRSYM    DATA     BYTE      P_SW2
      000000A2H   SFRSYM    DATA     BYTE      P_SW1
      000000CEH   SFRSYM    DATA     BYTE      SPCTL
      000000F8H   SFRSYM    DATA     BYTE      P7
      000000E8H   SFRSYM    DATA     BYTE      P6
      000000C8H   SFRSYM    DATA     BYTE      P5
      000000C0H   SFRSYM    DATA     BYTE      P4
      000000ABH   SFRSYM    DATA     BYTE      WKTCH
      000000B0H   SFRSYM    DATA     BYTE      P3
      000000A0H   SFRSYM    DATA     BYTE      P2
      00000090H   SFRSYM    DATA     BYTE      P1
      00000080H   SFRSYM    DATA     BYTE      P0

      ---         MODULE    ---      ---       zf_common_function
      00FF4618H   PUBLIC    CODE     ---       zf_sprintf
      00011063H   PUBLIC    XDATA    BYTE      ?zf_sprintf?BYTE
      000000D0H   SFRSYM    DATA     BYTE      PSW
      0000009DH   SFRSYM    DATA     BYTE      IRCBAND
      00000097H   SFRSYM    DATA     BYTE      AUXR2
      000000EFH   SFRSYM    DATA     BYTE      AUXINTIF
      000000FDH   SFRSYM    DATA     BYTE      S4CON
      000000ACH   SFRSYM    DATA     BYTE      S3CON
      0000009AH   SFRSYM    DATA     BYTE      S2CON
      000000B7H   SFRSYM    DATA     BYTE      IPH
      000000CDH   SFRSYM    DATA     BYTE      SPSTAT
      000000DDH   SFRSYM    DATA     BYTE      T4T3M
      000000C1H   SFRSYM    DATA     BYTE      WDT_CONTR
      000000DFH   SFRSYM    DATA     BYTE      IP3
      000000F4H   SFRSYM    DATA     BYTE      USBCON
      000000B5H   SFRSYM    DATA     BYTE      IP2
      000000FFH   SFRSYM    DATA     BYTE      RSTCFG
      000000C7H   SFRSYM    DATA     BYTE      IAP_CONTR
      0000008EH   SFRSYM    DATA     BYTE      AUXR
      000000AFH   SFRSYM    DATA     BYTE      IE2
      00000088H   SFRSYM    DATA     BYTE      TCON
      00000089H   SFRSYM    DATA     BYTE      TMOD
      00000098H   SFRSYM    DATA     BYTE      SCON
      00000087H   SFRSYM    DATA     BYTE      PCON
      000000BCH   SFRSYM    DATA     BYTE      ADC_CONTR
      000000D1H   SFRSYM    DATA     BYTE      PSW1
      000000E7H   SFRSYM    DATA     BYTE      CMPCR2
      000000E6H   SFRSYM    DATA     BYTE      CMPCR1
      000000DEH   SFRSYM    DATA     BYTE      ADCCFG
      000000B8H   SFRSYM    DATA     BYTE      IP
      0000008FH   SFRSYM    DATA     BYTE      INTCLKO
      000000EEH   SFRSYM    DATA     BYTE      IP3H
L251 LINKER/LOCATER V4.66.93.0                                                        10/15/2025  21:40:28  PAGE 44


      000000B6H   SFRSYM    DATA     BYTE      IP2H
      000000BFH   SFRSYM    DATA     BYTE      P_SW4
      000000A8H   SFRSYM    DATA     BYTE      IE
      000000BBH   SFRSYM    DATA     BYTE      P_SW3
      000000BAH   SFRSYM    DATA     BYTE      P_SW2
      000000A2H   SFRSYM    DATA     BYTE      P_SW1
      000000CEH   SFRSYM    DATA     BYTE      SPCTL
      000000F8H   SFRSYM    DATA     BYTE      P7
      000000E8H   SFRSYM    DATA     BYTE      P6
      000000C8H   SFRSYM    DATA     BYTE      P5
      000000C0H   SFRSYM    DATA     BYTE      P4
      000000ABH   SFRSYM    DATA     BYTE      WKTCH
      000000B0H   SFRSYM    DATA     BYTE      P3
      000000A0H   SFRSYM    DATA     BYTE      P2
      00000090H   SFRSYM    DATA     BYTE      P1
      00000080H   SFRSYM    DATA     BYTE      P0
      00FFD4CCH   SYMBOL    HCONST   ---       ?tpl?0001
      00FFA2C2H   SYMBOL    CODE     ---       number_conversion_ascii
      00FFB0A3H   SYMBOL    CODE     ---       printf_reverse_order
      DR8         REGSYM    ---      DWORD     num1
      DR28        REGSYM    ---      DWORD     num2
      REG=3       REGSYM    ---      ---       str
      REG=3       REGSYM    ---      ---       str
      REG=3       REGSYM    ---      ---       str
      REG=3       REGSYM    ---      ---       str
      REG=3       REGSYM    ---      ---       str
      REG=3       REGSYM    ---      ---       str
      REG=3       REGSYM    ---      ---       str
      REG=3       REGSYM    ---      ---       str
      REG=3       REGSYM    ---      ---       str
      REG=3       REGSYM    ---      ---       str

      00FFA2C2H   BLOCK     CODE     ---       LVL=0
      DR24        REGSYM    ---      DWORD     dat
      REG=7       REGSYM    ---      ---       p
      R10         REGSYM    ---      BYTE      neg_type
      0001109EH   SYMBOL    XDATA    BYTE      radix
      00FFA2CAH   BLOCK     CODE     NEAR LAB  LVL=1
      DR20        REGSYM    ---      LONG      neg_dat
      DR24        REGSYM    ---      DWORD     pos_dat
      R14         REGSYM    ---      BYTE      temp_data
      R15         REGSYM    ---      BYTE      valid_num
      ---         BLOCKEND  ---      ---       LVL=1
      00FFA2C2H   LINE      CODE     ---       #647
      00FFA2CAH   LINE      CODE     ---       #648
      00FFA2CAH   LINE      CODE     ---       #651
      00FFA2CCH   LINE      CODE     ---       #652
      00FFA2CEH   LINE      CODE     ---       #654
      00FFA2D2H   LINE      CODE     ---       #656
      00FFA2D4H   LINE      CODE     ---       #657
      00FFA2DAH   LINE      CODE     ---       #659
      00FFA2E4H   LINE      CODE     ---       #660
      00FFA2E4H   LINE      CODE     ---       #661
      00FFA2E4H   LINE      CODE     ---       #663
      00FFA2FAH   LINE      CODE     ---       #664
      00FFA309H   LINE      CODE     ---       #665
      00FFA30BH   LINE      CODE     ---       #667
      00FFA311H   LINE      CODE     ---       #669
      00FFA311H   LINE      CODE     ---       #670
      00FFA311H   LINE      CODE     ---       #671
      00FFA313H   LINE      CODE     ---       #672
      00FFA315H   LINE      CODE     ---       #673
      00FFA317H   LINE      CODE     ---       #676
      00FFA317H   LINE      CODE     ---       #677
      00FFA317H   LINE      CODE     ---       #679
L251 LINKER/LOCATER V4.66.93.0                                                        10/15/2025  21:40:28  PAGE 45


      00FFA326H   LINE      CODE     ---       #680
      00FFA32BH   LINE      CODE     ---       #682
      00FFA32EH   LINE      CODE     ---       #683
      00FFA330H   LINE      CODE     ---       #686
      00FFA333H   LINE      CODE     ---       #687
      00FFA333H   LINE      CODE     ---       #689
      00FFA336H   LINE      CODE     ---       #691
      00FFA345H   LINE      CODE     ---       #692
      00FFA347H   LINE      CODE     ---       #694
      00FFA34DH   LINE      CODE     ---       #696
      00FFA34DH   LINE      CODE     ---       #697
      00FFA34DH   LINE      CODE     ---       #698
      00FFA34FH   LINE      CODE     ---       #699
      00FFA351H   LINE      CODE     ---       #700
      00FFA351H   LINE      CODE     ---       #701
      00FFA353H   LINE      CODE     ---       #702
      ---         BLOCKEND  ---      ---       LVL=0

      00FFB0A3H   BLOCK     CODE     ---       LVL=0
      REG=7       REGSYM    ---      ---       d_buff
      DR24        REGSYM    ---      DWORD     len
      00FFB0A7H   BLOCK     CODE     NEAR LAB  LVL=1
      DR4         REGSYM    ---      DWORD     i
      R3          REGSYM    ---      CHAR      temp_data
      ---         BLOCKEND  ---      ---       LVL=1
      00FFB0A3H   LINE      CODE     ---       #712
      00FFB0A7H   LINE      CODE     ---       #713
      00FFB0A7H   LINE      CODE     ---       #716
      00FFB0ABH   LINE      CODE     ---       #718
      00FFB0B8H   LINE      CODE     ---       #719
      00FFB0D0H   LINE      CODE     ---       #720
      00FFB0D9H   LINE      CODE     ---       #721
      00FFB0EAH   LINE      CODE     ---       #722
      ---         BLOCKEND  ---      ---       LVL=0

      00FF4618H   BLOCK     CODE     ---       LVL=0
      REG=3       REGSYM    ---      ---       buff
      00011067H   SYMBOL    XDATA    ---       format
      00FF4626H   BLOCK     CODE     NEAR LAB  LVL=1
      0001106BH   SYMBOL    XDATA    DWORD     buff_len
      0001106FH   SYMBOL    XDATA    ---       arg
      00FF4647H   BLOCK     CODE     NEAR LAB  LVL=2
      00011073H   SYMBOL    XDATA    CHAR      ret
      00FF4788H   BLOCK     CODE     NEAR LAB  LVL=3
      00011074H   SYMBOL    XDATA    CHAR      ch
      ---         BLOCKEND  ---      ---       LVL=3
      00FF47CFH   BLOCK     CODE     NEAR LAB  LVL=3
      00011074H   SYMBOL    XDATA    ---       vstr
      00011095H   SYMBOL    XDATA    LONG      ival
      00011099H   SYMBOL    XDATA    BYTE      vlen
      ---         BLOCKEND  ---      ---       LVL=3
      00FF489AH   BLOCK     CODE     NEAR LAB  LVL=3
      00011074H   SYMBOL    XDATA    ---       vstr
      00011095H   SYMBOL    XDATA    DOUBLE    ival
      0001109DH   SYMBOL    XDATA    BYTE      vlen
      ---         BLOCKEND  ---      ---       LVL=3
      00FF4AE5H   BLOCK     CODE     NEAR LAB  LVL=3
      00011074H   SYMBOL    XDATA    ---       vstr
      00011095H   SYMBOL    XDATA    DWORD     ival
      00011099H   SYMBOL    XDATA    BYTE      vlen
      ---         BLOCKEND  ---      ---       LVL=3
      00FF4B83H   BLOCK     CODE     NEAR LAB  LVL=3
      00011074H   SYMBOL    XDATA    ---       vstr
      00011095H   SYMBOL    XDATA    DWORD     ival
      00011099H   SYMBOL    XDATA    BYTE      vlen
L251 LINKER/LOCATER V4.66.93.0                                                        10/15/2025  21:40:28  PAGE 46


      ---         BLOCKEND  ---      ---       LVL=3
      00FF4C21H   BLOCK     CODE     NEAR LAB  LVL=3
      00011074H   SYMBOL    XDATA    ---       vstr
      00011095H   SYMBOL    XDATA    DWORD     ival
      00011099H   SYMBOL    XDATA    BYTE      vlen
      ---         BLOCKEND  ---      ---       LVL=3
      00FF4CBFH   BLOCK     CODE     NEAR LAB  LVL=3
      00011074H   SYMBOL    XDATA    ---       pc
      ---         BLOCKEND  ---      ---       LVL=3
      00FF4D39H   BLOCK     CODE     NEAR LAB  LVL=3
      00011074H   SYMBOL    XDATA    ---       vstr
      00011095H   SYMBOL    XDATA    DWORD     ival
      ---         BLOCKEND  ---      ---       LVL=3
      ---         BLOCKEND  ---      ---       LVL=2
      ---         BLOCKEND  ---      ---       LVL=1
      00FF4618H   LINE      CODE     ---       #733
      00FF4626H   LINE      CODE     ---       #734
      00FF4626H   LINE      CODE     ---       #735
      00FF4632H   LINE      CODE     ---       #737
      00FF4644H   LINE      CODE     ---       #739
      00FF4647H   LINE      CODE     ---       #740
      00FF4647H   LINE      CODE     ---       #741
      00FF4658H   LINE      CODE     ---       #742
      00FF4664H   LINE      CODE     ---       #744
      00FF4788H   LINE      CODE     ---       #746
      00FF4788H   LINE      CODE     ---       #749
      00FF4788H   LINE      CODE     ---       #751
      00FF4788H   LINE      CODE     ---       #752
      00FF4788H   LINE      CODE     ---       #753
      00FF47B0H   LINE      CODE     ---       #754
      00FF47B7H   LINE      CODE     ---       #755
      00FF47B9H   LINE      CODE     ---       #756
      00FF47CCH   LINE      CODE     ---       #758
      00FF47CFH   LINE      CODE     ---       #760
      00FF47CFH   LINE      CODE     ---       #761
      00FF47CFH   LINE      CODE     ---       #762
      00FF47CFH   LINE      CODE     ---       #764
      00FF47FDH   LINE      CODE     ---       #765
      00FF481EH   LINE      CODE     ---       #767
      00FF482EH   LINE      CODE     ---       #769
      00FF4844H   LINE      CODE     ---       #770
      00FF484AH   LINE      CODE     ---       #771
      00FF484AH   LINE      CODE     ---       #772
      00FF485DH   LINE      CODE     ---       #773
      00FF4874H   LINE      CODE     ---       #774
      00FF487CH   LINE      CODE     ---       #775
      00FF4897H   LINE      CODE     ---       #777
      00FF489AH   LINE      CODE     ---       #779
      00FF489AH   LINE      CODE     ---       #780
      00FF489AH   LINE      CODE     ---       #781
      00FF489AH   LINE      CODE     ---       #783
      00FF48DAH   LINE      CODE     ---       #784
      00FF4906H   LINE      CODE     ---       #786
      00FF4921H   LINE      CODE     ---       #788
      00FF4937H   LINE      CODE     ---       #789
      00FF493DH   LINE      CODE     ---       #790
      00FF493DH   LINE      CODE     ---       #791
      00FF4950H   LINE      CODE     ---       #792
      00FF4967H   LINE      CODE     ---       #793
      00FF496FH   LINE      CODE     ---       #794
      00FF498AH   LINE      CODE     ---       #796
      00FF49DCH   LINE      CODE     ---       #797
      00FF49FAH   LINE      CODE     ---       #799
      00FF4A26H   LINE      CODE     ---       #800
      00FF4A28H   LINE      CODE     ---       #803
L251 LINKER/LOCATER V4.66.93.0                                                        10/15/2025  21:40:28  PAGE 47


      00FF4A4CH   LINE      CODE     ---       #804
      00FF4A52H   LINE      CODE     ---       #805
      00FF4A52H   LINE      CODE     ---       #807
      00FF4A54H   LINE      CODE     ---       #809
      00FF4A6AH   LINE      CODE     ---       #810
      00FF4A70H   LINE      CODE     ---       #811
      00FF4A79H   LINE      CODE     ---       #813
      00FF4A8FH   LINE      CODE     ---       #814
      00FF4A95H   LINE      CODE     ---       #816
      00FF4AA8H   LINE      CODE     ---       #817
      00FF4ABFH   LINE      CODE     ---       #818
      00FF4AC7H   LINE      CODE     ---       #819
      00FF4AE2H   LINE      CODE     ---       #821
      00FF4AE5H   LINE      CODE     ---       #823
      00FF4AE5H   LINE      CODE     ---       #824
      00FF4AE5H   LINE      CODE     ---       #826
      00FF4B13H   LINE      CODE     ---       #827
      00FF4B33H   LINE      CODE     ---       #829
      00FF4B46H   LINE      CODE     ---       #830
      00FF4B5DH   LINE      CODE     ---       #831
      00FF4B65H   LINE      CODE     ---       #832
      00FF4B80H   LINE      CODE     ---       #834
      00FF4B83H   LINE      CODE     ---       #836
      00FF4B83H   LINE      CODE     ---       #837
      00FF4B83H   LINE      CODE     ---       #839
      00FF4BB1H   LINE      CODE     ---       #840
      00FF4BD1H   LINE      CODE     ---       #842
      00FF4BE4H   LINE      CODE     ---       #843
      00FF4BFBH   LINE      CODE     ---       #844
      00FF4C03H   LINE      CODE     ---       #845
      00FF4C1EH   LINE      CODE     ---       #848
      00FF4C21H   LINE      CODE     ---       #850
      00FF4C21H   LINE      CODE     ---       #851
      00FF4C21H   LINE      CODE     ---       #852
      00FF4C21H   LINE      CODE     ---       #854
      00FF4C4FH   LINE      CODE     ---       #855
      00FF4C6FH   LINE      CODE     ---       #857
      00FF4C82H   LINE      CODE     ---       #858
      00FF4C99H   LINE      CODE     ---       #859
      00FF4CA1H   LINE      CODE     ---       #860
      00FF4CBCH   LINE      CODE     ---       #862
      00FF4CBFH   LINE      CODE     ---       #864
      00FF4CBFH   LINE      CODE     ---       #865
      00FF4CBFH   LINE      CODE     ---       #866
      00FF4CEDH   LINE      CODE     ---       #867
      00FF4CEFH   LINE      CODE     ---       #869
      00FF4CFFH   LINE      CODE     ---       #870
      00FF4D01H   LINE      CODE     ---       #871
      00FF4D14H   LINE      CODE     ---       #872
      00FF4D27H   LINE      CODE     ---       #873
      00FF4D36H   LINE      CODE     ---       #875
      00FF4D39H   LINE      CODE     ---       #877
      00FF4D39H   LINE      CODE     ---       #878
      00FF4D39H   LINE      CODE     ---       #880
      00FF4D67H   LINE      CODE     ---       #882
      00FF4D83H   LINE      CODE     ---       #883
      00FF4D92H   LINE      CODE     ---       #884
      00FF4DA7H   LINE      CODE     ---       #885
      00FF4DABH   LINE      CODE     ---       #886
      00FF4DC0H   LINE      CODE     ---       #888
      00FF4DC2H   LINE      CODE     ---       #890
      00FF4DC2H   LINE      CODE     ---       #892
      00FF4DC7H   LINE      CODE     ---       #893
      00FF4DC9H   LINE      CODE     ---       #894
      00FF4DDCH   LINE      CODE     ---       #896
L251 LINKER/LOCATER V4.66.93.0                                                        10/15/2025  21:40:28  PAGE 48


      00FF4DDEH   LINE      CODE     ---       #898
      00FF4DDEH   LINE      CODE     ---       #899
      00FF4DDEH   LINE      CODE     ---       #900
      00FF4DDEH   LINE      CODE     ---       #901
      00FF4DDEH   LINE      CODE     ---       #904
      00FF4DEEH   LINE      CODE     ---       #905
      00FF4DF0H   LINE      CODE     ---       #906
      00FF4E03H   LINE      CODE     ---       #907
      00FF4E03H   LINE      CODE     ---       #908
      00FF4E16H   LINE      CODE     ---       #909
      00FF4E28H   LINE      CODE     ---       #912
      00FF4E32H   LINE      CODE     ---       #913
      ---         BLOCKEND  ---      ---       LVL=0

      ---         MODULE    ---      ---       zf_common_typedef
      00011207H   PUBLIC    XDATA    ---       tim11_irq_handler
      00011209H   PUBLIC    XDATA    ---       uart1_irq_handler
      0001120BH   PUBLIC    XDATA    ---       uart2_irq_handler
      0001120DH   PUBLIC    XDATA    ---       uart3_irq_handler
      0001120FH   PUBLIC    XDATA    ---       uart4_irq_handler
      00011211H   PUBLIC    XDATA    ---       tim0_irq_handler
      00011213H   PUBLIC    XDATA    ---       int0_irq_handler
      00011215H   PUBLIC    XDATA    ---       tim1_irq_handler
      00011217H   PUBLIC    XDATA    ---       int1_irq_handler
      00011219H   PUBLIC    XDATA    ---       tim2_irq_handler
      0001121BH   PUBLIC    XDATA    ---       int2_irq_handler
      0001121DH   PUBLIC    XDATA    ---       tim3_irq_handler
      0001121FH   PUBLIC    XDATA    ---       int3_irq_handler
      00011221H   PUBLIC    XDATA    ---       tim4_irq_handler
      00011223H   PUBLIC    XDATA    ---       int4_irq_handler
      000000D0H   SFRSYM    DATA     BYTE      PSW
      0000009DH   SFRSYM    DATA     BYTE      IRCBAND
      00000097H   SFRSYM    DATA     BYTE      AUXR2
      000000EFH   SFRSYM    DATA     BYTE      AUXINTIF
      000000FDH   SFRSYM    DATA     BYTE      S4CON
      000000ACH   SFRSYM    DATA     BYTE      S3CON
      0000009AH   SFRSYM    DATA     BYTE      S2CON
      000000B7H   SFRSYM    DATA     BYTE      IPH
      000000CDH   SFRSYM    DATA     BYTE      SPSTAT
      000000DDH   SFRSYM    DATA     BYTE      T4T3M
      000000C1H   SFRSYM    DATA     BYTE      WDT_CONTR
      000000DFH   SFRSYM    DATA     BYTE      IP3
      000000F4H   SFRSYM    DATA     BYTE      USBCON
      000000B5H   SFRSYM    DATA     BYTE      IP2
      000000FFH   SFRSYM    DATA     BYTE      RSTCFG
      000000C7H   SFRSYM    DATA     BYTE      IAP_CONTR
      0000008EH   SFRSYM    DATA     BYTE      AUXR
      000000AFH   SFRSYM    DATA     BYTE      IE2
      00000088H   SFRSYM    DATA     BYTE      TCON
      00000089H   SFRSYM    DATA     BYTE      TMOD
      00000098H   SFRSYM    DATA     BYTE      SCON
      00000087H   SFRSYM    DATA     BYTE      PCON
      000000BCH   SFRSYM    DATA     BYTE      ADC_CONTR
      000000D1H   SFRSYM    DATA     BYTE      PSW1
      000000E7H   SFRSYM    DATA     BYTE      CMPCR2
      000000E6H   SFRSYM    DATA     BYTE      CMPCR1
      000000DEH   SFRSYM    DATA     BYTE      ADCCFG
      000000B8H   SFRSYM    DATA     BYTE      IP
      0000008FH   SFRSYM    DATA     BYTE      INTCLKO
      000000EEH   SFRSYM    DATA     BYTE      IP3H
      000000B6H   SFRSYM    DATA     BYTE      IP2H
      000000BFH   SFRSYM    DATA     BYTE      P_SW4
      000000A8H   SFRSYM    DATA     BYTE      IE
      000000BBH   SFRSYM    DATA     BYTE      P_SW3
      000000BAH   SFRSYM    DATA     BYTE      P_SW2
L251 LINKER/LOCATER V4.66.93.0                                                        10/15/2025  21:40:28  PAGE 49


      000000A2H   SFRSYM    DATA     BYTE      P_SW1
      000000CEH   SFRSYM    DATA     BYTE      SPCTL
      000000F8H   SFRSYM    DATA     BYTE      P7
      000000E8H   SFRSYM    DATA     BYTE      P6
      000000C8H   SFRSYM    DATA     BYTE      P5
      000000C0H   SFRSYM    DATA     BYTE      P4
      000000ABH   SFRSYM    DATA     BYTE      WKTCH
      000000B0H   SFRSYM    DATA     BYTE      P3
      000000A0H   SFRSYM    DATA     BYTE      P2
      00000090H   SFRSYM    DATA     BYTE      P1
      00000080H   SFRSYM    DATA     BYTE      P0

      ---         MODULE    ---      ---       zf_common_interrupt
      00FF9C2CH   PUBLIC    CODE     ---       interrupt_set_priority
      00FF001EH   PUBLIC    CODE     ---       interrupt_global_enable
      000000D0H   SFRSYM    DATA     BYTE      PSW
      0000009DH   SFRSYM    DATA     BYTE      IRCBAND
      00000097H   SFRSYM    DATA     BYTE      AUXR2
      000000EFH   SFRSYM    DATA     BYTE      AUXINTIF
      000000FDH   SFRSYM    DATA     BYTE      S4CON
      000000ACH   SFRSYM    DATA     BYTE      S3CON
      0000009AH   SFRSYM    DATA     BYTE      S2CON
      000000B7H   SFRSYM    DATA     BYTE      IPH
      000000CDH   SFRSYM    DATA     BYTE      SPSTAT
      000000DDH   SFRSYM    DATA     BYTE      T4T3M
      000000C1H   SFRSYM    DATA     BYTE      WDT_CONTR
      000000DFH   SFRSYM    DATA     BYTE      IP3
      000000F4H   SFRSYM    DATA     BYTE      USBCON
      000000B5H   SFRSYM    DATA     BYTE      IP2
      000000FFH   SFRSYM    DATA     BYTE      RSTCFG
      000000C7H   SFRSYM    DATA     BYTE      IAP_CONTR
      0000008EH   SFRSYM    DATA     BYTE      AUXR
      000000AFH   SFRSYM    DATA     BYTE      IE2
      00000088H   SFRSYM    DATA     BYTE      TCON
      00000089H   SFRSYM    DATA     BYTE      TMOD
      00000098H   SFRSYM    DATA     BYTE      SCON
      00000087H   SFRSYM    DATA     BYTE      PCON
      000000BCH   SFRSYM    DATA     BYTE      ADC_CONTR
      000000D1H   SFRSYM    DATA     BYTE      PSW1
      000000E7H   SFRSYM    DATA     BYTE      CMPCR2
      000000E6H   SFRSYM    DATA     BYTE      CMPCR1
      000000DEH   SFRSYM    DATA     BYTE      ADCCFG
      000000B8H   SFRSYM    DATA     BYTE      IP
      0000008FH   SFRSYM    DATA     BYTE      INTCLKO
      000000EEH   SFRSYM    DATA     BYTE      IP3H
      000000B6H   SFRSYM    DATA     BYTE      IP2H
      000000BFH   SFRSYM    DATA     BYTE      P_SW4
      000000A8H   SFRSYM    DATA     BYTE      IE
      000000BBH   SFRSYM    DATA     BYTE      P_SW3
      000000BAH   SFRSYM    DATA     BYTE      P_SW2
      000000A2H   SFRSYM    DATA     BYTE      P_SW1
      000000CEH   SFRSYM    DATA     BYTE      SPCTL
      000000F8H   SFRSYM    DATA     BYTE      P7
      000000A8H.7 SFRSYM    DATA     BIT       EA
      000000E8H   SFRSYM    DATA     BYTE      P6
      000000C8H   SFRSYM    DATA     BYTE      P5
      000000C0H   SFRSYM    DATA     BYTE      P4
      000000ABH   SFRSYM    DATA     BYTE      WKTCH
      000000B0H   SFRSYM    DATA     BYTE      P3
      000000A0H   SFRSYM    DATA     BYTE      P2
      00000090H   SFRSYM    DATA     BYTE      P1
      00000080H   SFRSYM    DATA     BYTE      P0

      00FF9C2CH   BLOCK     CODE     ---       LVL=0
      WR4         REGSYM    ---      INT       irqn
L251 LINKER/LOCATER V4.66.93.0                                                        10/15/2025  21:40:28  PAGE 50


      R3          REGSYM    ---      BYTE      priority
      00FF9C2CH   LINE      CODE     ---       #48
      00FF9C30H   LINE      CODE     ---       #50
      00FF9C3AH   LINE      CODE     ---       #52
      00FF9C4EH   LINE      CODE     ---       #53
      00FF9C67H   LINE      CODE     ---       #54
      00FF9C69H   LINE      CODE     ---       #55
      00FF9C79H   LINE      CODE     ---       #57
      00FF9C8DH   LINE      CODE     ---       #58
      00FF9CA6H   LINE      CODE     ---       #59
      00FF9CA8H   LINE      CODE     ---       #60
      00FF9CB8H   LINE      CODE     ---       #62
      00FF9CCCH   LINE      CODE     ---       #63
      00FF9CE5H   LINE      CODE     ---       #64
      ---         BLOCKEND  ---      ---       LVL=0

      00FF001EH   BLOCK     CODE     ---       LVL=0
      00FF001EH   LINE      CODE     ---       #88
      00FF001EH   LINE      CODE     ---       #90
      00FF0020H   LINE      CODE     ---       #91
      ---         BLOCKEND  ---      ---       LVL=0

      ---         MODULE    ---      ---       ?C_START
      00FF0000H   PUBLIC    CODE     ---       ?C?STARTUP
      00FF0000H   PUBLIC    CODE     ---       ?C_STARTUP
      000000D0H.6 SFRSYM    DATA     BIT       AC
      000000E0H   SFRSYM    DATA     BYTE      ACC
      000000F0H   SFRSYM    DATA     BYTE      B
      000000FAH   SFRSYM    DATA     BYTE      CCAP0H
      000000EAH   SFRSYM    DATA     BYTE      CCAP0L
      000000FBH   SFRSYM    DATA     BYTE      CCAP1H
      000000EBH   SFRSYM    DATA     BYTE      CCAP1L
      000000FCH   SFRSYM    DATA     BYTE      CCAP2H
      000000ECH   SFRSYM    DATA     BYTE      CCAP2L
      000000FDH   SFRSYM    DATA     BYTE      CCAP3H
      000000EDH   SFRSYM    DATA     BYTE      CCAP3L
      000000FEH   SFRSYM    DATA     BYTE      CCAP4H
      000000EEH   SFRSYM    DATA     BYTE      CCAP4L
      000000DAH   SFRSYM    DATA     BYTE      CCAPM0
      000000DBH   SFRSYM    DATA     BYTE      CCAPM1
      000000DCH   SFRSYM    DATA     BYTE      CCAPM2
      000000DDH   SFRSYM    DATA     BYTE      CCAPM3
      000000DEH   SFRSYM    DATA     BYTE      CCAPM4
      000000D8H.0 SFRSYM    DATA     BIT       CCF0
      000000D8H.1 SFRSYM    DATA     BIT       CCF1
      000000D8H.2 SFRSYM    DATA     BIT       CCF2
      000000D8H.3 SFRSYM    DATA     BIT       CCF3
      000000D8H.4 SFRSYM    DATA     BIT       CCF4
      000000D8H   SFRSYM    DATA     BYTE      CCON
      00000090H.3 SFRSYM    DATA     BIT       CEX0
      00000090H.4 SFRSYM    DATA     BIT       CEX1
      00000090H.5 SFRSYM    DATA     BIT       CEX2
      00000090H.6 SFRSYM    DATA     BIT       CEX3
      00000090H.7 SFRSYM    DATA     BIT       CEX4
      000000D8H.7 SFRSYM    DATA     BIT       CF
      000000F9H   SFRSYM    DATA     BYTE      CH
      000000E9H   SFRSYM    DATA     BYTE      CL
      000000D9H   SFRSYM    DATA     BYTE      CMOD
      000000C8H.0 SFRSYM    DATA     BIT       CP_RL2
      000000D8H.6 SFRSYM    DATA     BIT       CR
      000000D0H.7 SFRSYM    DATA     BIT       CY
      000000C8H.1 SFRSYM    DATA     BIT       C_T2
      00000083H   SFRSYM    DATA     BYTE      DPH
      00000082H   SFRSYM    DATA     BYTE      DPL
      00000084H   SFRSYM    DATA     BYTE      DPXL
L251 LINKER/LOCATER V4.66.93.0                                                        10/15/2025  21:40:28  PAGE 51


      000000A8H.7 SFRSYM    DATA     BIT       EA
      000000A8H.6 SFRSYM    DATA     BIT       EC
      00000090H.2 SFRSYM    DATA     BIT       ECI
      000000A8H.4 SFRSYM    DATA     BIT       ES
      000000A8H.1 SFRSYM    DATA     BIT       ET0
      000000A8H.3 SFRSYM    DATA     BIT       ET1
      000000A8H.5 SFRSYM    DATA     BIT       ET2
      000000A8H.0 SFRSYM    DATA     BIT       EX0
      000000A8H.2 SFRSYM    DATA     BIT       EX1
      000000C8H.3 SFRSYM    DATA     BIT       EXEN2
      000000C8H.6 SFRSYM    DATA     BIT       EXF2
      000000D0H.5 SFRSYM    DATA     BIT       F0
      00000098H.7 SFRSYM    DATA     BIT       FE
      000000A8H   SFRSYM    DATA     BYTE      IE0
      00000088H.1 SFRSYM    DATA     BIT       IE0_
      000000B1H   SFRSYM    DATA     BYTE      IE1
      00000088H.3 SFRSYM    DATA     BIT       IE1_
      000000B0H.2 SFRSYM    DATA     BIT       INT0
      000000B0H.3 SFRSYM    DATA     BIT       INT1
      000000B7H   SFRSYM    DATA     BYTE      IPH0
      000000B8H   SFRSYM    DATA     BYTE      IPL0
      00000088H.0 SFRSYM    DATA     BIT       IT0
      00000088H.2 SFRSYM    DATA     BIT       IT1
      000000D0H.2 SFRSYM    DATA     BIT       OV
      000000D0H.0 SFRSYM    DATA     BIT       P
      00000080H   SFRSYM    DATA     BYTE      P0
      00000090H   SFRSYM    DATA     BYTE      P1
      000000A0H   SFRSYM    DATA     BYTE      P2
      000000B0H   SFRSYM    DATA     BYTE      P3
      00000087H   SFRSYM    DATA     BYTE      PCON
      000000B8H.6 SFRSYM    DATA     BIT       PPC
      000000B8H.4 SFRSYM    DATA     BIT       PS
      000000D0H   SFRSYM    DATA     BYTE      PSW
      000000D1H   SFRSYM    DATA     BYTE      PSW1
      000000B8H.1 SFRSYM    DATA     BIT       PT0
      000000B8H.3 SFRSYM    DATA     BIT       PT1
      000000B8H.5 SFRSYM    DATA     BIT       PT2
      000000B8H.0 SFRSYM    DATA     BIT       PX0
      000000B8H.2 SFRSYM    DATA     BIT       PX1
      00000098H.2 SFRSYM    DATA     BIT       RB8
      000000CBH   SFRSYM    DATA     BYTE      RCAP2H
      000000CAH   SFRSYM    DATA     BYTE      RCAP2L
      000000C8H.5 SFRSYM    DATA     BIT       RCLK
      000000B0H.7 SFRSYM    DATA     BIT       RD
      00000098H.4 SFRSYM    DATA     BIT       REN
      00000098H.0 SFRSYM    DATA     BIT       RI
      000000D0H.3 SFRSYM    DATA     BIT       RS0
      000000D0H.4 SFRSYM    DATA     BIT       RS1
      000000B0H.0 SFRSYM    DATA     BIT       RXD
      000000A9H   SFRSYM    DATA     BYTE      SADDR
      000000B9H   SFRSYM    DATA     BYTE      SADEN
      00000099H   SFRSYM    DATA     BYTE      SBUF
      00000098H   SFRSYM    DATA     BYTE      SCON
      00000098H.7 SFRSYM    DATA     BIT       SM0
      00000098H.6 SFRSYM    DATA     BIT       SM1
      00000098H.5 SFRSYM    DATA     BIT       SM2
      00000081H   SFRSYM    DATA     BYTE      SP
      000000BEH   SFRSYM    DATA     BYTE      SPH
      000000B0H.4 SFRSYM    DATA     BIT       T0
      000000B0H.5 SFRSYM    DATA     BIT       T1
      00000090H.0 SFRSYM    DATA     BIT       T2
      000000C8H   SFRSYM    DATA     BYTE      T2CON
      00000090H.1 SFRSYM    DATA     BIT       T2EX
      000000C9H   SFRSYM    DATA     BYTE      T2MOD
      00000098H.3 SFRSYM    DATA     BIT       TB8
L251 LINKER/LOCATER V4.66.93.0                                                        10/15/2025  21:40:28  PAGE 52


      000000C8H.4 SFRSYM    DATA     BIT       TCLK
      00000088H   SFRSYM    DATA     BYTE      TCON
      00000088H.5 SFRSYM    DATA     BIT       TF0
      00000088H.7 SFRSYM    DATA     BIT       TF1
      000000C8H.7 SFRSYM    DATA     BIT       TF2
      0000008CH   SFRSYM    DATA     BYTE      TH0
      0000008DH   SFRSYM    DATA     BYTE      TH1
      000000CDH   SFRSYM    DATA     BYTE      TH2
      00000098H.1 SFRSYM    DATA     BIT       TI
      0000008AH   SFRSYM    DATA     BYTE      TL0
      0000008BH   SFRSYM    DATA     BYTE      TL1
      000000CCH   SFRSYM    DATA     BYTE      TL2
      00000089H   SFRSYM    DATA     BYTE      TMOD
      00000088H.4 SFRSYM    DATA     BIT       TR0
      00000088H.6 SFRSYM    DATA     BIT       TR1
      000000C8H.2 SFRSYM    DATA     BIT       TR2
      000000B0H.1 SFRSYM    DATA     BIT       TXD
      000000A6H   SFRSYM    DATA     BYTE      WDTRST
      000000B0H.6 SFRSYM    DATA     BIT       WR
      00000800H   SYMBOL    NUMBER   ---       EDATALEN
      00FFAE72H   SYMBOL    CODE     ---       EDATALOOP
      00000001H   SYMBOL    NUMBER   ---       EDF
      00000001H   SYMBOL    NUMBER   ---       EMAP
      00000000H   SYMBOL    NUMBER   ---       HDATALEN
      00010000H   SYMBOL    NUMBER   ---       HDATASTART
      00000000H   SYMBOL    NUMBER   ---       IBPSTACK
      00000100H   SYMBOL    NUMBER   ---       IBPSTACKTOP
      00000001H   SYMBOL    NUMBER   ---       INTR
      00000001H   SYMBOL    NUMBER   ---       PAGM
      00000003H   SYMBOL    NUMBER   ---       RDRG
      00000001H   SYMBOL    NUMBER   ---       SRCM
      00000700H   SYMBOL    NUMBER   ---       STACKSIZE
      00FFAE6AH   SYMBOL    CODE     ---       STARTUP1
      00000003H   SYMBOL    NUMBER   ---       WSA
      00000003H   SYMBOL    NUMBER   ---       WSB
      00000001H   SYMBOL    NUMBER   ---       XALE
      00000000H   SYMBOL    NUMBER   ---       XBPSTACK
      00010000H   SYMBOL    NUMBER   ---       XBPSTACKTOP
      00008000H   SYMBOL    NUMBER   ---       XDATALEN
      00FFAE81H   SYMBOL    CODE     ---       XDATALOOP
      00010000H   SYMBOL    NUMBER   ---       XDATASTART

      00FF0000H   BLOCK     CODE     NEAR LAB  LVL=0
      00FF0000H   LINE      CODE     ---       #183
      ---         BLOCKEND  ---      ---       LVL=0

      00FFAE6AH   BLOCK     CODE     NEAR LAB  LVL=0
      00FFAE6AH   LINE      CODE     ---       #188
      00FFAE6DH   LINE      CODE     ---       #191
      00FFAE71H   LINE      CODE     ---       #192
      00FFAE72H   LINE      CODE     ---       #193
      00FFAE75H   LINE      CODE     ---       #194
      00FFAE77H   LINE      CODE     ---       #195
      00FFAE79H   LINE      CODE     ---       #199
      00FFAE7CH   LINE      CODE     ---       #200
      00FFAE80H   LINE      CODE     ---       #201
      00FFAE81H   LINE      CODE     ---       #202
      00FFAE82H   LINE      CODE     ---       #203
      00FFAE83H   LINE      CODE     ---       #204
      00FFAE85H   LINE      CODE     ---       #205
      00FFAE87H   LINE      CODE     ---       #235
      ---         BLOCKEND  ---      ---       LVL=0

      00FFAEBEH   BLOCK     CODE     NEAR LAB  LVL=0
      00FFAEBEH   LINE      CODE     ---       #238
L251 LINKER/LOCATER V4.66.93.0                                                        10/15/2025  21:40:28  PAGE 53


      ---         BLOCKEND  ---      ---       LVL=0

      ---         MODULE    ---      ---       zf_driver_adc
      00FFB48CH   PUBLIC    CODE     ---       adc_convert
      00FFA7BCH   PUBLIC    CODE     ---       adc_init
      00000094H   SFRSYM    DATA     BYTE      P0M0
      000000D0H   SFRSYM    DATA     BYTE      PSW
      0000009DH   SFRSYM    DATA     BYTE      IRCBAND
      00000097H   SFRSYM    DATA     BYTE      AUXR2
      000000EFH   SFRSYM    DATA     BYTE      AUXINTIF
      000000FDH   SFRSYM    DATA     BYTE      S4CON
      000000ACH   SFRSYM    DATA     BYTE      S3CON
      0000009AH   SFRSYM    DATA     BYTE      S2CON
      000000B7H   SFRSYM    DATA     BYTE      IPH
      000000CDH   SFRSYM    DATA     BYTE      SPSTAT
      000000BEH   SFRSYM    DATA     BYTE      ADC_RESL
      000000DDH   SFRSYM    DATA     BYTE      T4T3M
      000000C1H   SFRSYM    DATA     BYTE      WDT_CONTR
      000000DFH   SFRSYM    DATA     BYTE      IP3
      000000F4H   SFRSYM    DATA     BYTE      USBCON
      000000B5H   SFRSYM    DATA     BYTE      IP2
      000000FFH   SFRSYM    DATA     BYTE      RSTCFG
      000000C7H   SFRSYM    DATA     BYTE      IAP_CONTR
      0000008EH   SFRSYM    DATA     BYTE      AUXR
      000000AFH   SFRSYM    DATA     BYTE      IE2
      00000088H   SFRSYM    DATA     BYTE      TCON
      00000089H   SFRSYM    DATA     BYTE      TMOD
      00000098H   SFRSYM    DATA     BYTE      SCON
      00000087H   SFRSYM    DATA     BYTE      PCON
      000000BCH   SFRSYM    DATA     BYTE      ADC_CONTR
      000000D1H   SFRSYM    DATA     BYTE      PSW1
      000000E7H   SFRSYM    DATA     BYTE      CMPCR2
      000000E6H   SFRSYM    DATA     BYTE      CMPCR1
      000000DEH   SFRSYM    DATA     BYTE      ADCCFG
      000000B8H   SFRSYM    DATA     BYTE      IP
      0000008FH   SFRSYM    DATA     BYTE      INTCLKO
      000000EEH   SFRSYM    DATA     BYTE      IP3H
      000000B6H   SFRSYM    DATA     BYTE      IP2H
      000000BDH   SFRSYM    DATA     BYTE      ADC_RES
      000000BFH   SFRSYM    DATA     BYTE      P_SW4
      000000A8H   SFRSYM    DATA     BYTE      IE
      000000BBH   SFRSYM    DATA     BYTE      P_SW3
      000000BAH   SFRSYM    DATA     BYTE      P_SW2
      000000A2H   SFRSYM    DATA     BYTE      P_SW1
      000000CEH   SFRSYM    DATA     BYTE      SPCTL
      000000F8H   SFRSYM    DATA     BYTE      P7
      000000E8H   SFRSYM    DATA     BYTE      P6
      000000C8H   SFRSYM    DATA     BYTE      P5
      000000C0H   SFRSYM    DATA     BYTE      P4
      000000ABH   SFRSYM    DATA     BYTE      WKTCH
      000000B0H   SFRSYM    DATA     BYTE      P3
      000000A0H   SFRSYM    DATA     BYTE      P2
      00000090H   SFRSYM    DATA     BYTE      P1
      00000080H   SFRSYM    DATA     BYTE      P0
      00000091H   SFRSYM    DATA     BYTE      P1M1
      00000092H   SFRSYM    DATA     BYTE      P1M0
      00000093H   SFRSYM    DATA     BYTE      P0M1
      000112FCH   SYMBOL    XDATA    BYTE      adc_resolution
      WR14        REGSYM    ---      INT       ch
      R13         REGSYM    ---      BYTE      count
      R12         REGSYM    ---      BYTE      i

      00FFB48CH   BLOCK     CODE     ---       LVL=0
      WR6         REGSYM    ---      INT       ch
      WR6         REGSYM    ---      WORD      adc_value
L251 LINKER/LOCATER V4.66.93.0                                                        10/15/2025  21:40:28  PAGE 54


      00FFB48CH   LINE      CODE     ---       #75
      00FFB48CH   LINE      CODE     ---       #76
      00FFB48CH   LINE      CODE     ---       #79
      00FFB48FH   LINE      CODE     ---       #80
      00FFB493H   LINE      CODE     ---       #82
      00FFB496H   LINE      CODE     ---       #84
      00FFB49BH   LINE      CODE     ---       #86
      00FFB49EH   LINE      CODE     ---       #88
      00FFB4A0H   LINE      CODE     ---       #89
      00FFB4A4H   LINE      CODE     ---       #90
      00FFB4AAH   LINE      CODE     ---       #92
      00FFB4ADH   LINE      CODE     ---       #93
      00FFB4B0H   LINE      CODE     ---       #95
      00FFB4BBH   LINE      CODE     ---       #98
      00FFB4BBH   LINE      CODE     ---       #99
      ---         BLOCKEND  ---      ---       LVL=0

      00FFA7BCH   BLOCK     CODE     ---       LVL=0
      WR4         REGSYM    ---      INT       ch
      WR2         REGSYM    ---      INT       resolution
      00FFA7BCH   LINE      CODE     ---       #108
      00FFA7C0H   LINE      CODE     ---       #110
      00FFA7C3H   LINE      CODE     ---       #112
      00FFA7C6H   LINE      CODE     ---       #113
      00FFA7CCH   LINE      CODE     ---       #115
      00FFA7DAH   LINE      CODE     ---       #118
      00FFA7EFH   LINE      CODE     ---       #119
      00FFA802H   LINE      CODE     ---       #120
      00FFA804H   LINE      CODE     ---       #121
      00FFA80EH   LINE      CODE     ---       #124
      00FFA823H   LINE      CODE     ---       #125
      00FFA836H   LINE      CODE     ---       #126
      00FFA836H   LINE      CODE     ---       #128
      00FFA83AH   LINE      CODE     ---       #130
      00FFA83DH   LINE      CODE     ---       #132
      00FFA843H   LINE      CODE     ---       #133
      ---         BLOCKEND  ---      ---       LVL=0

      ---         MODULE    ---      ---       zf_driver_delay
      00FFAE0DH   PUBLIC    CODE     ---       system_delay_init
      00FFAC0FH   PUBLIC    CODE     ---       system_delay_ms
      000000D0H   SFRSYM    DATA     BYTE      PSW
      0000009DH   SFRSYM    DATA     BYTE      IRCBAND
      00000097H   SFRSYM    DATA     BYTE      AUXR2
      000000EFH   SFRSYM    DATA     BYTE      AUXINTIF
      000000FDH   SFRSYM    DATA     BYTE      S4CON
      000000ACH   SFRSYM    DATA     BYTE      S3CON
      0000009AH   SFRSYM    DATA     BYTE      S2CON
      000000B7H   SFRSYM    DATA     BYTE      IPH
      000000CDH   SFRSYM    DATA     BYTE      SPSTAT
      000000DDH   SFRSYM    DATA     BYTE      T4T3M
      000000C1H   SFRSYM    DATA     BYTE      WDT_CONTR
      000000DFH   SFRSYM    DATA     BYTE      IP3
      000000F4H   SFRSYM    DATA     BYTE      USBCON
      000000B5H   SFRSYM    DATA     BYTE      IP2
      000000FFH   SFRSYM    DATA     BYTE      RSTCFG
      000000C7H   SFRSYM    DATA     BYTE      IAP_CONTR
      0000008EH   SFRSYM    DATA     BYTE      AUXR
      000000AFH   SFRSYM    DATA     BYTE      IE2
      00000088H   SFRSYM    DATA     BYTE      TCON
      00000089H   SFRSYM    DATA     BYTE      TMOD
      00000098H   SFRSYM    DATA     BYTE      SCON
      00000087H   SFRSYM    DATA     BYTE      PCON
      000000BCH   SFRSYM    DATA     BYTE      ADC_CONTR
      000000D1H   SFRSYM    DATA     BYTE      PSW1
L251 LINKER/LOCATER V4.66.93.0                                                        10/15/2025  21:40:28  PAGE 55


      000000E7H   SFRSYM    DATA     BYTE      CMPCR2
      000000E6H   SFRSYM    DATA     BYTE      CMPCR1
      000000DEH   SFRSYM    DATA     BYTE      ADCCFG
      000000B8H   SFRSYM    DATA     BYTE      IP
      0000008FH   SFRSYM    DATA     BYTE      INTCLKO
      000000EEH   SFRSYM    DATA     BYTE      IP3H
      000000B6H   SFRSYM    DATA     BYTE      IP2H
      000000BFH   SFRSYM    DATA     BYTE      P_SW4
      000000A8H   SFRSYM    DATA     BYTE      IE
      000000BBH   SFRSYM    DATA     BYTE      P_SW3
      000000BAH   SFRSYM    DATA     BYTE      P_SW2
      000000A2H   SFRSYM    DATA     BYTE      P_SW1
      000000CEH   SFRSYM    DATA     BYTE      SPCTL
      000000F8H   SFRSYM    DATA     BYTE      P7
      000000E8H   SFRSYM    DATA     BYTE      P6
      000000C8H   SFRSYM    DATA     BYTE      P5
      000000C0H   SFRSYM    DATA     BYTE      P4
      000000ABH   SFRSYM    DATA     BYTE      WKTCH
      000000B0H   SFRSYM    DATA     BYTE      P3
      000000A0H   SFRSYM    DATA     BYTE      P2
      00000090H   SFRSYM    DATA     BYTE      P1
      00000080H   SFRSYM    DATA     BYTE      P0
      000112EFH   SYMBOL    XDATA    WORD      pca_delay_1ms
      000112F1H   SYMBOL    XDATA    WORD      pca_delay_1us

      00FFAE0DH   BLOCK     CODE     ---       LVL=0
      00FFAE0DH   LINE      CODE     ---       #48
      00FFAE0DH   LINE      CODE     ---       #50
      00FFAE24H   LINE      CODE     ---       #51
      00FFAE3FH   LINE      CODE     ---       #53
      00FFAE4CH   LINE      CODE     ---       #54
      00FFAE59H   LINE      CODE     ---       #55
      00FFAE69H   LINE      CODE     ---       #57
      ---         BLOCKEND  ---      ---       LVL=0

      00FFAC0FH   BLOCK     CODE     ---       LVL=0
      WR8         REGSYM    ---      WORD      ms
      00FFAC11H   BLOCK     CODE     NEAR LAB  LVL=1
      WR6         REGSYM    ---      WORD      temp
      ---         BLOCKEND  ---      ---       LVL=1
      00FFAC0FH   LINE      CODE     ---       #65
      00FFAC11H   LINE      CODE     ---       #66
      00FFAC11H   LINE      CODE     ---       #69
      00FFAC13H   LINE      CODE     ---       #71
      00FFAC37H   LINE      CODE     ---       #73
      00FFAC44H   LINE      CODE     ---       #74
      00FFAC53H   LINE      CODE     ---       #76
      00FFAC61H   LINE      CODE     ---       #77
      00FFAC71H   LINE      CODE     ---       #78
      00FFAC79H   LINE      CODE     ---       #79
      ---         BLOCKEND  ---      ---       LVL=0
      WR8         REGSYM    ---      WORD      ms
      WR6         REGSYM    ---      WORD      temp

      ---         MODULE    ---      ---       zf_driver_eeprom
      000000D0H   SFRSYM    DATA     BYTE      PSW
      0000009DH   SFRSYM    DATA     BYTE      IRCBAND
      00000097H   SFRSYM    DATA     BYTE      AUXR2
      000000C6H   SFRSYM    DATA     BYTE      IAP_TRIG
      000000EFH   SFRSYM    DATA     BYTE      AUXINTIF
      000000FDH   SFRSYM    DATA     BYTE      S4CON
      000000ACH   SFRSYM    DATA     BYTE      S3CON
      0000009AH   SFRSYM    DATA     BYTE      S2CON
      000000B7H   SFRSYM    DATA     BYTE      IPH
      000000CDH   SFRSYM    DATA     BYTE      SPSTAT
L251 LINKER/LOCATER V4.66.93.0                                                        10/15/2025  21:40:28  PAGE 56


      000000DDH   SFRSYM    DATA     BYTE      T4T3M
      000000C1H   SFRSYM    DATA     BYTE      WDT_CONTR
      000000C2H   SFRSYM    DATA     BYTE      IAP_DATA
      000000DFH   SFRSYM    DATA     BYTE      IP3
      000000F4H   SFRSYM    DATA     BYTE      USBCON
      000000B5H   SFRSYM    DATA     BYTE      IP2
      000000FFH   SFRSYM    DATA     BYTE      RSTCFG
      000000C7H   SFRSYM    DATA     BYTE      IAP_CONTR
      0000008EH   SFRSYM    DATA     BYTE      AUXR
      000000AFH   SFRSYM    DATA     BYTE      IE2
      00000088H   SFRSYM    DATA     BYTE      TCON
      00000089H   SFRSYM    DATA     BYTE      TMOD
      00000098H   SFRSYM    DATA     BYTE      SCON
      000000F5H   SFRSYM    DATA     BYTE      IAP_TPS
      00000087H   SFRSYM    DATA     BYTE      PCON
      000000BCH   SFRSYM    DATA     BYTE      ADC_CONTR
      000000D1H   SFRSYM    DATA     BYTE      PSW1
      000000E7H   SFRSYM    DATA     BYTE      CMPCR2
      000000E6H   SFRSYM    DATA     BYTE      CMPCR1
      000000C4H   SFRSYM    DATA     BYTE      IAP_ADDRL
      000000C3H   SFRSYM    DATA     BYTE      IAP_ADDRH
      000000F6H   SFRSYM    DATA     BYTE      IAP_ADDRE
      000000DEH   SFRSYM    DATA     BYTE      ADCCFG
      000000B8H   SFRSYM    DATA     BYTE      IP
      0000008FH   SFRSYM    DATA     BYTE      INTCLKO
      000000EEH   SFRSYM    DATA     BYTE      IP3H
      000000B6H   SFRSYM    DATA     BYTE      IP2H
      000000C5H   SFRSYM    DATA     BYTE      IAP_CMD
      000000BFH   SFRSYM    DATA     BYTE      P_SW4
      000000A8H   SFRSYM    DATA     BYTE      IE
      000000BBH   SFRSYM    DATA     BYTE      P_SW3
      000000BAH   SFRSYM    DATA     BYTE      P_SW2
      000000A2H   SFRSYM    DATA     BYTE      P_SW1
      000000CEH   SFRSYM    DATA     BYTE      SPCTL
      000000F8H   SFRSYM    DATA     BYTE      P7
      000000A8H.7 SFRSYM    DATA     BIT       EA
      000000E8H   SFRSYM    DATA     BYTE      P6
      000000C8H   SFRSYM    DATA     BYTE      P5
      000000C0H   SFRSYM    DATA     BYTE      P4
      000000ABH   SFRSYM    DATA     BYTE      WKTCH
      000000B0H   SFRSYM    DATA     BYTE      P3
      000000A0H   SFRSYM    DATA     BYTE      P2
      00000090H   SFRSYM    DATA     BYTE      P1
      00000080H   SFRSYM    DATA     BYTE      P0
      00FFCCA9H   SYMBOL    HCONST   ---       ?tpl?0001
      R7          REGSYM    ---      BYTE      write_time
      DR0         REGSYM    ---      DWORD     addr
      R11         REGSYM    ---      BYTE      temp
      DR0         REGSYM    ---      DWORD     addr
      R15         REGSYM    ---      BYTE      byte
      REG=3       REGSYM    ---      ---       buf
      REG=3       REGSYM    ---      ---       buf
      DR0         REGSYM    ---      DWORD     addr
      REG=3       REGSYM    ---      ---       buf

      ---         MODULE    ---      ---       zf_driver_encoder
      00FFA04CH   PUBLIC    CODE     ---       encoder_get_count
      00FF8F8AH   PUBLIC    CODE     ---       encoder_dir_init
      00FFA22DH   PUBLIC    CODE     ---       encoder_clear_count
      000000D0H   SFRSYM    DATA     BYTE      PSW
      0000009DH   SFRSYM    DATA     BYTE      IRCBAND
      00000097H   SFRSYM    DATA     BYTE      AUXR2
      000000EFH   SFRSYM    DATA     BYTE      AUXINTIF
      000000FDH   SFRSYM    DATA     BYTE      S4CON
      000000ACH   SFRSYM    DATA     BYTE      S3CON
L251 LINKER/LOCATER V4.66.93.0                                                        10/15/2025  21:40:28  PAGE 57


      0000009AH   SFRSYM    DATA     BYTE      S2CON
      000000B7H   SFRSYM    DATA     BYTE      IPH
      000000CDH   SFRSYM    DATA     BYTE      SPSTAT
      000000DDH   SFRSYM    DATA     BYTE      T4T3M
      000000C1H   SFRSYM    DATA     BYTE      WDT_CONTR
      00000088H.6 SFRSYM    DATA     BIT       TR1
      00000088H.4 SFRSYM    DATA     BIT       TR0
      000000D3H   SFRSYM    DATA     BYTE      T4L
      000000D5H   SFRSYM    DATA     BYTE      T3L
      000000D7H   SFRSYM    DATA     BYTE      T2L
      0000008BH   SFRSYM    DATA     BYTE      TL1
      0000008AH   SFRSYM    DATA     BYTE      TL0
      000000D2H   SFRSYM    DATA     BYTE      T4H
      000000D4H   SFRSYM    DATA     BYTE      T3H
      000000D6H   SFRSYM    DATA     BYTE      T2H
      0000008DH   SFRSYM    DATA     BYTE      TH1
      0000008CH   SFRSYM    DATA     BYTE      TH0
      000000DFH   SFRSYM    DATA     BYTE      IP3
      000000F4H   SFRSYM    DATA     BYTE      USBCON
      000000B5H   SFRSYM    DATA     BYTE      IP2
      000000FFH   SFRSYM    DATA     BYTE      RSTCFG
      000000C7H   SFRSYM    DATA     BYTE      IAP_CONTR
      0000008EH   SFRSYM    DATA     BYTE      AUXR
      000000AFH   SFRSYM    DATA     BYTE      IE2
      00000088H   SFRSYM    DATA     BYTE      TCON
      00000089H   SFRSYM    DATA     BYTE      TMOD
      00000098H   SFRSYM    DATA     BYTE      SCON
      00000087H   SFRSYM    DATA     BYTE      PCON
      000000BCH   SFRSYM    DATA     BYTE      ADC_CONTR
      000000D1H   SFRSYM    DATA     BYTE      PSW1
      000000E7H   SFRSYM    DATA     BYTE      CMPCR2
      000000E6H   SFRSYM    DATA     BYTE      CMPCR1
      000000DEH   SFRSYM    DATA     BYTE      ADCCFG
      000000B8H   SFRSYM    DATA     BYTE      IP
      0000008FH   SFRSYM    DATA     BYTE      INTCLKO
      000000EEH   SFRSYM    DATA     BYTE      IP3H
      000000B6H   SFRSYM    DATA     BYTE      IP2H
      000000BFH   SFRSYM    DATA     BYTE      P_SW4
      000000A8H   SFRSYM    DATA     BYTE      IE
      000000BBH   SFRSYM    DATA     BYTE      P_SW3
      000000BAH   SFRSYM    DATA     BYTE      P_SW2
      000000A2H   SFRSYM    DATA     BYTE      P_SW1
      000000CEH   SFRSYM    DATA     BYTE      SPCTL
      000000F8H   SFRSYM    DATA     BYTE      P7
      000000E8H   SFRSYM    DATA     BYTE      P6
      000000C8H   SFRSYM    DATA     BYTE      P5
      000000C0H   SFRSYM    DATA     BYTE      P4
      000000ABH   SFRSYM    DATA     BYTE      WKTCH
      000000B0H   SFRSYM    DATA     BYTE      P3
      000000A0H   SFRSYM    DATA     BYTE      P2
      00000090H   SFRSYM    DATA     BYTE      P1
      00000080H   SFRSYM    DATA     BYTE      P0
      000112E5H   SYMBOL    XDATA    ---       encoder_dir_pin

      00FFA04CH   BLOCK     CODE     ---       LVL=0
      WR2         REGSYM    ---      INT       encoder_n
      00FFA050H   BLOCK     CODE     NEAR LAB  LVL=1
      WR14        REGSYM    ---      INT       dat
      ---         BLOCKEND  ---      ---       LVL=1
      00FFA04CH   LINE      CODE     ---       #48
      00FFA050H   LINE      CODE     ---       #49
      00FFA050H   LINE      CODE     ---       #50
      00FFA052H   LINE      CODE     ---       #52
      00FFA06EH   LINE      CODE     ---       #54
      00FFA06EH   LINE      CODE     ---       #56
L251 LINKER/LOCATER V4.66.93.0                                                        10/15/2025  21:40:28  PAGE 58


      00FFA074H   LINE      CODE     ---       #57
      00FFA07AH   LINE      CODE     ---       #58
      00FFA07CH   LINE      CODE     ---       #61
      00FFA07CH   LINE      CODE     ---       #63
      00FFA082H   LINE      CODE     ---       #64
      00FFA088H   LINE      CODE     ---       #65
      00FFA08AH   LINE      CODE     ---       #68
      00FFA08AH   LINE      CODE     ---       #70
      00FFA090H   LINE      CODE     ---       #71
      00FFA096H   LINE      CODE     ---       #72
      00FFA098H   LINE      CODE     ---       #75
      00FFA098H   LINE      CODE     ---       #77
      00FFA09EH   LINE      CODE     ---       #78
      00FFA0A4H   LINE      CODE     ---       #79
      00FFA0A6H   LINE      CODE     ---       #82
      00FFA0A6H   LINE      CODE     ---       #84
      00FFA0ACH   LINE      CODE     ---       #85
      00FFA0B2H   LINE      CODE     ---       #86
      00FFA0B4H   LINE      CODE     ---       #89
      00FFA0B4H   LINE      CODE     ---       #91
      00FFA0C3H   LINE      CODE     ---       #92
      00FFA0D2H   LINE      CODE     ---       #93
      00FFA0D2H   LINE      CODE     ---       #96
      00FFA0D2H   LINE      CODE     ---       #98
      00FFA0E6H   LINE      CODE     ---       #100
      00FFA0ECH   LINE      CODE     ---       #101
      00FFA0ECH   LINE      CODE     ---       #103
      00FFA0EEH   LINE      CODE     ---       #104
      ---         BLOCKEND  ---      ---       LVL=0

      00FFA22DH   BLOCK     CODE     ---       LVL=0
      WR6         REGSYM    ---      INT       encoder_n
      00FFA22DH   LINE      CODE     ---       #113
      00FFA22DH   LINE      CODE     ---       #115
      00FFA247H   LINE      CODE     ---       #117
      00FFA247H   LINE      CODE     ---       #119
      00FFA249H   LINE      CODE     ---       #120
      00FFA24CH   LINE      CODE     ---       #121
      00FFA24FH   LINE      CODE     ---       #122
      00FFA251H   LINE      CODE     ---       #123
      00FFA253H   LINE      CODE     ---       #126
      00FFA253H   LINE      CODE     ---       #128
      00FFA255H   LINE      CODE     ---       #129
      00FFA258H   LINE      CODE     ---       #130
      00FFA25BH   LINE      CODE     ---       #131
      00FFA25DH   LINE      CODE     ---       #132
      00FFA25FH   LINE      CODE     ---       #135
      00FFA25FH   LINE      CODE     ---       #137
      00FFA262H   LINE      CODE     ---       #138
      00FFA265H   LINE      CODE     ---       #139
      00FFA268H   LINE      CODE     ---       #140
      00FFA26BH   LINE      CODE     ---       #141
      00FFA26DH   LINE      CODE     ---       #144
      00FFA26DH   LINE      CODE     ---       #146
      00FFA270H   LINE      CODE     ---       #147
      00FFA273H   LINE      CODE     ---       #148
      00FFA276H   LINE      CODE     ---       #149
      00FFA279H   LINE      CODE     ---       #150
      00FFA27BH   LINE      CODE     ---       #153
      00FFA27BH   LINE      CODE     ---       #155
      00FFA27EH   LINE      CODE     ---       #156
      00FFA281H   LINE      CODE     ---       #157
      00FFA284H   LINE      CODE     ---       #158
      00FFA287H   LINE      CODE     ---       #159
      00FFA289H   LINE      CODE     ---       #162
L251 LINKER/LOCATER V4.66.93.0                                                        10/15/2025  21:40:28  PAGE 59


      00FFA289H   LINE      CODE     ---       #164
      00FFA299H   LINE      CODE     ---       #165
      00FFA2A5H   LINE      CODE     ---       #166
      00FFA2B1H   LINE      CODE     ---       #167
      00FFA2C1H   LINE      CODE     ---       #168
      00FFA2C1H   LINE      CODE     ---       #170
      00FFA2C1H   LINE      CODE     ---       #171
      ---         BLOCKEND  ---      ---       LVL=0

      00FF8F8AH   BLOCK     CODE     ---       LVL=0
      WR14        REGSYM    ---      INT       encoder_n
      WR12        REGSYM    ---      INT       dir_pin
      0001100AH   SYMBOL    XDATA    INT       lsb_pin
      00FF8F8AH   LINE      CODE     ---       #183
      00FF8F96H   LINE      CODE     ---       #189
      00FF8FACH   LINE      CODE     ---       #190
      00FF8FC8H   LINE      CODE     ---       #191
      00FF8FE8H   LINE      CODE     ---       #194
      00FF8FF4H   LINE      CODE     ---       #196
      00FF9007H   LINE      CODE     ---       #198
      00FF9016H   LINE      CODE     ---       #200
      00FF9030H   LINE      CODE     ---       #202
      00FF9030H   LINE      CODE     ---       #204
      00FF9033H   LINE      CODE     ---       #205
      00FF9036H   LINE      CODE     ---       #206
      00FF9039H   LINE      CODE     ---       #207
      00FF903BH   LINE      CODE     ---       #208
      00FF903DH   LINE      CODE     ---       #211
      00FF903DH   LINE      CODE     ---       #213
      00FF9040H   LINE      CODE     ---       #214
      00FF9043H   LINE      CODE     ---       #215
      00FF9046H   LINE      CODE     ---       #216
      00FF9048H   LINE      CODE     ---       #217
      00FF904AH   LINE      CODE     ---       #220
      00FF904AH   LINE      CODE     ---       #222
      00FF904DH   LINE      CODE     ---       #223
      00FF9050H   LINE      CODE     ---       #224
      00FF9053H   LINE      CODE     ---       #225
      00FF9055H   LINE      CODE     ---       #228
      00FF9055H   LINE      CODE     ---       #230
      00FF9058H   LINE      CODE     ---       #231
      00FF905BH   LINE      CODE     ---       #232
      00FF905EH   LINE      CODE     ---       #233
      00FF9060H   LINE      CODE     ---       #236
      00FF9060H   LINE      CODE     ---       #238
      00FF9063H   LINE      CODE     ---       #239
      00FF9066H   LINE      CODE     ---       #240
      00FF9069H   LINE      CODE     ---       #241
      00FF906BH   LINE      CODE     ---       #244
      00FF906BH   LINE      CODE     ---       #246
      00FF9077H   LINE      CODE     ---       #247
      00FF9083H   LINE      CODE     ---       #248
      00FF9093H   LINE      CODE     ---       #249
      00FF9093H   LINE      CODE     ---       #251
      00FF9093H   LINE      CODE     ---       #252
      ---         BLOCKEND  ---      ---       LVL=0

      ---         MODULE    ---      ---       zf_driver_exti
      000000D0H   SFRSYM    DATA     BYTE      PSW
      0000009DH   SFRSYM    DATA     BYTE      IRCBAND
      00000097H   SFRSYM    DATA     BYTE      AUXR2
      000000EFH   SFRSYM    DATA     BYTE      AUXINTIF
      000000FDH   SFRSYM    DATA     BYTE      S4CON
      000000ACH   SFRSYM    DATA     BYTE      S3CON
      0000009AH   SFRSYM    DATA     BYTE      S2CON
L251 LINKER/LOCATER V4.66.93.0                                                        10/15/2025  21:40:28  PAGE 60


      000000B7H   SFRSYM    DATA     BYTE      IPH
      000000CDH   SFRSYM    DATA     BYTE      SPSTAT
      000000DDH   SFRSYM    DATA     BYTE      T4T3M
      000000C1H   SFRSYM    DATA     BYTE      WDT_CONTR
      000000DFH   SFRSYM    DATA     BYTE      IP3
      000000F4H   SFRSYM    DATA     BYTE      USBCON
      000000B5H   SFRSYM    DATA     BYTE      IP2
      000000FFH   SFRSYM    DATA     BYTE      RSTCFG
      000000C7H   SFRSYM    DATA     BYTE      IAP_CONTR
      0000008EH   SFRSYM    DATA     BYTE      AUXR
      000000AFH   SFRSYM    DATA     BYTE      IE2
      00000088H   SFRSYM    DATA     BYTE      TCON
      00000089H   SFRSYM    DATA     BYTE      TMOD
      00000098H   SFRSYM    DATA     BYTE      SCON
      00000087H   SFRSYM    DATA     BYTE      PCON
      000000BCH   SFRSYM    DATA     BYTE      ADC_CONTR
      000000D1H   SFRSYM    DATA     BYTE      PSW1
      000000E7H   SFRSYM    DATA     BYTE      CMPCR2
      000000E6H   SFRSYM    DATA     BYTE      CMPCR1
      000000DEH   SFRSYM    DATA     BYTE      ADCCFG
      000000B8H   SFRSYM    DATA     BYTE      IP
      0000008FH   SFRSYM    DATA     BYTE      INTCLKO
      000000EEH   SFRSYM    DATA     BYTE      IP3H
      000000B6H   SFRSYM    DATA     BYTE      IP2H
      000000BFH   SFRSYM    DATA     BYTE      P_SW4
      000000A8H   SFRSYM    DATA     BYTE      IE
      000000BBH   SFRSYM    DATA     BYTE      P_SW3
      000000BAH   SFRSYM    DATA     BYTE      P_SW2
      000000A2H   SFRSYM    DATA     BYTE      P_SW1
      000000CEH   SFRSYM    DATA     BYTE      SPCTL
      000000F8H   SFRSYM    DATA     BYTE      P7
      000000E8H   SFRSYM    DATA     BYTE      P6
      000000C8H   SFRSYM    DATA     BYTE      P5
      000000C0H   SFRSYM    DATA     BYTE      P4
      000000ABH   SFRSYM    DATA     BYTE      WKTCH
      000000B0H   SFRSYM    DATA     BYTE      P3
      000000A0H   SFRSYM    DATA     BYTE      P2
      00000090H   SFRSYM    DATA     BYTE      P1
      00000080H   SFRSYM    DATA     BYTE      P0

      ---         MODULE    ---      ---       zf_driver_gpio
      00FF9AB5H   PUBLIC    CODE     ---       gpio_init
      00FF00C6H   PUBLIC    CODE     ---       gpio_get_level
      00FF713FH   PUBLIC    CODE     ---       gpio_set_level_speed
      00FF8329H   PUBLIC    CODE     ---       gpio_set_level
      00FF8749H   PUBLIC    CODE     ---       gpio_set_impedance
      00000094H   SFRSYM    DATA     BYTE      P0M0
      000000D0H   SFRSYM    DATA     BYTE      PSW
      0000009DH   SFRSYM    DATA     BYTE      IRCBAND
      00000097H   SFRSYM    DATA     BYTE      AUXR2
      000000EFH   SFRSYM    DATA     BYTE      AUXINTIF
      000000FDH   SFRSYM    DATA     BYTE      S4CON
      000000ACH   SFRSYM    DATA     BYTE      S3CON
      0000009AH   SFRSYM    DATA     BYTE      S2CON
      000000B7H   SFRSYM    DATA     BYTE      IPH
      000000CDH   SFRSYM    DATA     BYTE      SPSTAT
      000000DDH   SFRSYM    DATA     BYTE      T4T3M
      000000C1H   SFRSYM    DATA     BYTE      WDT_CONTR
      000000DFH   SFRSYM    DATA     BYTE      IP3
      000000F4H   SFRSYM    DATA     BYTE      USBCON
      000000B5H   SFRSYM    DATA     BYTE      IP2
      000000FFH   SFRSYM    DATA     BYTE      RSTCFG
      000000C7H   SFRSYM    DATA     BYTE      IAP_CONTR
      0000008EH   SFRSYM    DATA     BYTE      AUXR
      000000AFH   SFRSYM    DATA     BYTE      IE2
L251 LINKER/LOCATER V4.66.93.0                                                        10/15/2025  21:40:28  PAGE 61


      00000088H   SFRSYM    DATA     BYTE      TCON
      00000089H   SFRSYM    DATA     BYTE      TMOD
      00000098H   SFRSYM    DATA     BYTE      SCON
      00000087H   SFRSYM    DATA     BYTE      PCON
      000000BCH   SFRSYM    DATA     BYTE      ADC_CONTR
      000000D1H   SFRSYM    DATA     BYTE      PSW1
      000000E7H   SFRSYM    DATA     BYTE      CMPCR2
      000000E6H   SFRSYM    DATA     BYTE      CMPCR1
      000000DEH   SFRSYM    DATA     BYTE      ADCCFG
      000000B8H   SFRSYM    DATA     BYTE      IP
      0000008FH   SFRSYM    DATA     BYTE      INTCLKO
      000000EEH   SFRSYM    DATA     BYTE      IP3H
      000000B6H   SFRSYM    DATA     BYTE      IP2H
      000000BFH   SFRSYM    DATA     BYTE      P_SW4
      000000A8H   SFRSYM    DATA     BYTE      IE
      000000BBH   SFRSYM    DATA     BYTE      P_SW3
      000000BAH   SFRSYM    DATA     BYTE      P_SW2
      000000A2H   SFRSYM    DATA     BYTE      P_SW1
      000000CEH   SFRSYM    DATA     BYTE      SPCTL
      000000F8H   SFRSYM    DATA     BYTE      P7
      000000E8H   SFRSYM    DATA     BYTE      P6
      000000C8H   SFRSYM    DATA     BYTE      P5
      000000C0H   SFRSYM    DATA     BYTE      P4
      000000C9H   SFRSYM    DATA     BYTE      P5M1
      000000ABH   SFRSYM    DATA     BYTE      WKTCH
      000000B0H   SFRSYM    DATA     BYTE      P3
      000000B3H   SFRSYM    DATA     BYTE      P4M1
      000000CAH   SFRSYM    DATA     BYTE      P5M0
      000000A0H   SFRSYM    DATA     BYTE      P2
      000000B1H   SFRSYM    DATA     BYTE      P3M1
      000000B4H   SFRSYM    DATA     BYTE      P4M0
      00000090H   SFRSYM    DATA     BYTE      P1
      00000095H   SFRSYM    DATA     BYTE      P2M1
      000000B2H   SFRSYM    DATA     BYTE      P3M0
      00000080H   SFRSYM    DATA     BYTE      P0
      00000091H   SFRSYM    DATA     BYTE      P1M1
      00000096H   SFRSYM    DATA     BYTE      P2M0
      00000092H   SFRSYM    DATA     BYTE      P1M0
      00000093H   SFRSYM    DATA     BYTE      P0M1
      00FF6764H   SYMBOL    CODE     ---       gpio_set_dir
      00FF7865H   SYMBOL    CODE     ---       gpio_set_mode

      00FF7865H   BLOCK     CODE     ---       LVL=0
      WR4         REGSYM    ---      INT       pin
      WR8         REGSYM    ---      INT       mode
      00FF7865H   LINE      CODE     ---       #45
      00FF7869H   LINE      CODE     ---       #51
      00FF7875H   LINE      CODE     ---       #53
      00FF78A4H   LINE      CODE     ---       #54
      00FF78D3H   LINE      CODE     ---       #55
      00FF78D6H   LINE      CODE     ---       #56
      00FF78DCH   LINE      CODE     ---       #58
      00FF7909H   LINE      CODE     ---       #59
      00FF790CH   LINE      CODE     ---       #60
      00FF7918H   LINE      CODE     ---       #62
      00FF7945H   LINE      CODE     ---       #63
      00FF7948H   LINE      CODE     ---       #64
      00FF7951H   LINE      CODE     ---       #66
      00FF7987H   LINE      CODE     ---       #68
      00FF7987H   LINE      CODE     ---       #70
      00FF799AH   LINE      CODE     ---       #71
      00FF79ADH   LINE      CODE     ---       #73
      00FF79B0H   LINE      CODE     ---       #75
      00FF79B0H   LINE      CODE     ---       #77
      00FF79C3H   LINE      CODE     ---       #78
L251 LINKER/LOCATER V4.66.93.0                                                        10/15/2025  21:40:28  PAGE 62


      00FF79D6H   LINE      CODE     ---       #80
      00FF79D9H   LINE      CODE     ---       #82
      00FF79D9H   LINE      CODE     ---       #84
      00FF79ECH   LINE      CODE     ---       #85
      00FF79FFH   LINE      CODE     ---       #87
      00FF7A02H   LINE      CODE     ---       #89
      00FF7A02H   LINE      CODE     ---       #91
      00FF7A15H   LINE      CODE     ---       #92
      00FF7A28H   LINE      CODE     ---       #94
      00FF7A2AH   LINE      CODE     ---       #96
      00FF7A2AH   LINE      CODE     ---       #98
      00FF7A3DH   LINE      CODE     ---       #99
      00FF7A50H   LINE      CODE     ---       #101
      00FF7A52H   LINE      CODE     ---       #103
      00FF7A52H   LINE      CODE     ---       #105
      00FF7A65H   LINE      CODE     ---       #106
      00FF7A78H   LINE      CODE     ---       #108
      00FF7A7AH   LINE      CODE     ---       #109
      00FF7A7AH   LINE      CODE     ---       #112
      00FF7A7AH   LINE      CODE     ---       #113
      00FF7A7AH   LINE      CODE     ---       #114
      00FF7A7AH   LINE      CODE     ---       #117
      00FF7A8AH   LINE      CODE     ---       #119
      00FF7A8AH   LINE      CODE     ---       #120
      ---         BLOCKEND  ---      ---       LVL=0

      00FF713FH   BLOCK     CODE     ---       LVL=0
      WR14        REGSYM    ---      INT       pin
      WR12        REGSYM    ---      INT       speed
      00FF713FH   LINE      CODE     ---       #123
      00FF7145H   LINE      CODE     ---       #125
      00FF717FH   LINE      CODE     ---       #127
      00FF717FH   LINE      CODE     ---       #129
      00FF7183H   LINE      CODE     ---       #131
      00FF71A6H   LINE      CODE     ---       #132
      00FF71A9H   LINE      CODE     ---       #133
      00FF71AFH   LINE      CODE     ---       #135
      00FF71D0H   LINE      CODE     ---       #136
      00FF71D3H   LINE      CODE     ---       #139
      00FF71E3H   LINE      CODE     ---       #141
      00FF71E3H   LINE      CODE     ---       #143
      00FF71E6H   LINE      CODE     ---       #145
      00FF71E6H   LINE      CODE     ---       #147
      00FF71EAH   LINE      CODE     ---       #149
      00FF720DH   LINE      CODE     ---       #150
      00FF7210H   LINE      CODE     ---       #151
      00FF7216H   LINE      CODE     ---       #153
      00FF7237H   LINE      CODE     ---       #154
      00FF723AH   LINE      CODE     ---       #157
      00FF724AH   LINE      CODE     ---       #159
      00FF724AH   LINE      CODE     ---       #161
      00FF724DH   LINE      CODE     ---       #163
      00FF724DH   LINE      CODE     ---       #165
      00FF7251H   LINE      CODE     ---       #167
      00FF7274H   LINE      CODE     ---       #168
      00FF7277H   LINE      CODE     ---       #169
      00FF727DH   LINE      CODE     ---       #171
      00FF729EH   LINE      CODE     ---       #172
      00FF72A1H   LINE      CODE     ---       #175
      00FF72B1H   LINE      CODE     ---       #177
      00FF72B1H   LINE      CODE     ---       #179
      00FF72B4H   LINE      CODE     ---       #181
      00FF72B4H   LINE      CODE     ---       #183
      00FF72B8H   LINE      CODE     ---       #185
      00FF72DBH   LINE      CODE     ---       #186
L251 LINKER/LOCATER V4.66.93.0                                                        10/15/2025  21:40:28  PAGE 63


      00FF72DEH   LINE      CODE     ---       #187
      00FF72E4H   LINE      CODE     ---       #189
      00FF7305H   LINE      CODE     ---       #190
      00FF7308H   LINE      CODE     ---       #193
      00FF7318H   LINE      CODE     ---       #195
      00FF7318H   LINE      CODE     ---       #197
      00FF731BH   LINE      CODE     ---       #199
      00FF731BH   LINE      CODE     ---       #201
      00FF731FH   LINE      CODE     ---       #203
      00FF7342H   LINE      CODE     ---       #204
      00FF7345H   LINE      CODE     ---       #205
      00FF734BH   LINE      CODE     ---       #207
      00FF736CH   LINE      CODE     ---       #208
      00FF736FH   LINE      CODE     ---       #211
      00FF737FH   LINE      CODE     ---       #213
      00FF737FH   LINE      CODE     ---       #215
      00FF7381H   LINE      CODE     ---       #217
      00FF7381H   LINE      CODE     ---       #219
      00FF7385H   LINE      CODE     ---       #221
      00FF73A8H   LINE      CODE     ---       #222
      00FF73AAH   LINE      CODE     ---       #223
      00FF73B0H   LINE      CODE     ---       #225
      00FF73D1H   LINE      CODE     ---       #226
      00FF73D3H   LINE      CODE     ---       #229
      00FF73E3H   LINE      CODE     ---       #231
      00FF73E3H   LINE      CODE     ---       #233
      00FF73E5H   LINE      CODE     ---       #235
      00FF73E5H   LINE      CODE     ---       #237
      00FF73F5H   LINE      CODE     ---       #239
      00FF73F5H   LINE      CODE     ---       #240
      00FF73F5H   LINE      CODE     ---       #241
      ---         BLOCKEND  ---      ---       LVL=0

      00FF6764H   BLOCK     CODE     ---       LVL=0
      WR4         REGSYM    ---      INT       pin
      WR2         REGSYM    ---      INT       dir
      00FF6764H   LINE      CODE     ---       #245
      00FF6768H   LINE      CODE     ---       #247
      00FF67A2H   LINE      CODE     ---       #249
      00FF67A2H   LINE      CODE     ---       #251
      00FF67A8H   LINE      CODE     ---       #253
      00FF67BDH   LINE      CODE     ---       #254
      00FF67D2H   LINE      CODE     ---       #255
      00FF67D5H   LINE      CODE     ---       #261
      00FF67DBH   LINE      CODE     ---       #263
      00FF67F0H   LINE      CODE     ---       #264
      00FF6803H   LINE      CODE     ---       #265
      00FF6806H   LINE      CODE     ---       #266
      00FF680DH   LINE      CODE     ---       #268
      00FF6820H   LINE      CODE     ---       #269
      00FF6835H   LINE      CODE     ---       #270
      00FF6835H   LINE      CODE     ---       #272
      00FF6838H   LINE      CODE     ---       #274
      00FF6838H   LINE      CODE     ---       #276
      00FF683EH   LINE      CODE     ---       #278
      00FF6853H   LINE      CODE     ---       #279
      00FF6868H   LINE      CODE     ---       #280
      00FF686BH   LINE      CODE     ---       #286
      00FF6871H   LINE      CODE     ---       #288
      00FF6886H   LINE      CODE     ---       #289
      00FF6899H   LINE      CODE     ---       #290
      00FF689CH   LINE      CODE     ---       #291
      00FF68A3H   LINE      CODE     ---       #293
      00FF68B6H   LINE      CODE     ---       #294
      00FF68CBH   LINE      CODE     ---       #295
L251 LINKER/LOCATER V4.66.93.0                                                        10/15/2025  21:40:28  PAGE 64


      00FF68CBH   LINE      CODE     ---       #297
      00FF68CEH   LINE      CODE     ---       #299
      00FF68CEH   LINE      CODE     ---       #301
      00FF68D4H   LINE      CODE     ---       #303
      00FF68E9H   LINE      CODE     ---       #304
      00FF68FEH   LINE      CODE     ---       #305
      00FF6901H   LINE      CODE     ---       #311
      00FF6907H   LINE      CODE     ---       #313
      00FF691CH   LINE      CODE     ---       #314
      00FF692FH   LINE      CODE     ---       #315
      00FF6932H   LINE      CODE     ---       #316
      00FF6939H   LINE      CODE     ---       #318
      00FF694CH   LINE      CODE     ---       #319
      00FF6961H   LINE      CODE     ---       #320
      00FF6961H   LINE      CODE     ---       #322
      00FF6964H   LINE      CODE     ---       #324
      00FF6964H   LINE      CODE     ---       #326
      00FF696AH   LINE      CODE     ---       #328
      00FF697FH   LINE      CODE     ---       #329
      00FF6994H   LINE      CODE     ---       #330
      00FF6997H   LINE      CODE     ---       #336
      00FF699DH   LINE      CODE     ---       #338
      00FF69B2H   LINE      CODE     ---       #339
      00FF69C5H   LINE      CODE     ---       #340
      00FF69C8H   LINE      CODE     ---       #341
      00FF69CFH   LINE      CODE     ---       #343
      00FF69E2H   LINE      CODE     ---       #344
      00FF69F7H   LINE      CODE     ---       #345
      00FF69F7H   LINE      CODE     ---       #347
      00FF69FAH   LINE      CODE     ---       #349
      00FF69FAH   LINE      CODE     ---       #351
      00FF6A00H   LINE      CODE     ---       #353
      00FF6A15H   LINE      CODE     ---       #354
      00FF6A2AH   LINE      CODE     ---       #355
      00FF6A2DH   LINE      CODE     ---       #361
      00FF6A33H   LINE      CODE     ---       #363
      00FF6A48H   LINE      CODE     ---       #364
      00FF6A5BH   LINE      CODE     ---       #365
      00FF6A5EH   LINE      CODE     ---       #366
      00FF6A65H   LINE      CODE     ---       #368
      00FF6A78H   LINE      CODE     ---       #369
      00FF6A8DH   LINE      CODE     ---       #370
      00FF6A8DH   LINE      CODE     ---       #372
      00FF6A90H   LINE      CODE     ---       #374
      00FF6A90H   LINE      CODE     ---       #376
      00FF6A96H   LINE      CODE     ---       #378
      00FF6AABH   LINE      CODE     ---       #379
      00FF6AC0H   LINE      CODE     ---       #380
      00FF6AC2H   LINE      CODE     ---       #386
      00FF6AC8H   LINE      CODE     ---       #388
      00FF6ADDH   LINE      CODE     ---       #389
      00FF6AF0H   LINE      CODE     ---       #390
      00FF6AF2H   LINE      CODE     ---       #391
      00FF6AF6H   LINE      CODE     ---       #393
      00FF6B09H   LINE      CODE     ---       #394
      00FF6B1EH   LINE      CODE     ---       #395
      00FF6B1EH   LINE      CODE     ---       #397
      00FF6B20H   LINE      CODE     ---       #399
      00FF6B20H   LINE      CODE     ---       #401
      00FF6B30H   LINE      CODE     ---       #403
      00FF6B30H   LINE      CODE     ---       #404
      00FF6B30H   LINE      CODE     ---       #405
      ---         BLOCKEND  ---      ---       LVL=0

      00FF00C6H   BLOCK     CODE     ---       LVL=0
L251 LINKER/LOCATER V4.66.93.0                                                        10/15/2025  21:40:28  PAGE 65


      WR4         REGSYM    ---      INT       pin
      00FF00CAH   BLOCK     CODE     NEAR LAB  LVL=1
      R15         REGSYM    ---      BYTE      status
      ---         BLOCKEND  ---      ---       LVL=1
      00FF00C6H   LINE      CODE     ---       #413
      00FF00CAH   LINE      CODE     ---       #414
      00FF00CAH   LINE      CODE     ---       #415
      00FF00CCH   LINE      CODE     ---       #417
      00FF00F9H   LINE      CODE     ---       #419
      00FF00F9H   LINE      CODE     ---       #421
      00FF010DH   LINE      CODE     ---       #423
      00FF010FH   LINE      CODE     ---       #425
      00FF010FH   LINE      CODE     ---       #427
      00FF0123H   LINE      CODE     ---       #429
      00FF0125H   LINE      CODE     ---       #431
      00FF0125H   LINE      CODE     ---       #433
      00FF0139H   LINE      CODE     ---       #435
      00FF013BH   LINE      CODE     ---       #437
      00FF013BH   LINE      CODE     ---       #439
      00FF014FH   LINE      CODE     ---       #441
      00FF0151H   LINE      CODE     ---       #443
      00FF0151H   LINE      CODE     ---       #445
      00FF0165H   LINE      CODE     ---       #447
      00FF0167H   LINE      CODE     ---       #449
      00FF0167H   LINE      CODE     ---       #451
      00FF017BH   LINE      CODE     ---       #453
      00FF017DH   LINE      CODE     ---       #455
      00FF017DH   LINE      CODE     ---       #457
      00FF018DH   LINE      CODE     ---       #459
      00FF018DH   LINE      CODE     ---       #460
      00FF018DH   LINE      CODE     ---       #462
      00FF0196H   LINE      CODE     ---       #463
      ---         BLOCKEND  ---      ---       LVL=0

      00FF8329H   BLOCK     CODE     ---       LVL=0
      WR4         REGSYM    ---      INT       pin
      R10         REGSYM    ---      BYTE      dat
      00FF8329H   LINE      CODE     ---       #472
      00FF832DH   LINE      CODE     ---       #474
      00FF8364H   LINE      CODE     ---       #476
      00FF8364H   LINE      CODE     ---       #478
      00FF8368H   LINE      CODE     ---       #480
      00FF837BH   LINE      CODE     ---       #481
      00FF837EH   LINE      CODE     ---       #484
      00FF8393H   LINE      CODE     ---       #485
      00FF8393H   LINE      CODE     ---       #487
      00FF8396H   LINE      CODE     ---       #489
      00FF8396H   LINE      CODE     ---       #491
      00FF839AH   LINE      CODE     ---       #493
      00FF83ADH   LINE      CODE     ---       #494
      00FF83B0H   LINE      CODE     ---       #497
      00FF83C5H   LINE      CODE     ---       #498
      00FF83C5H   LINE      CODE     ---       #500
      00FF83C8H   LINE      CODE     ---       #502
      00FF83C8H   LINE      CODE     ---       #504
      00FF83CCH   LINE      CODE     ---       #506
      00FF83DFH   LINE      CODE     ---       #507
      00FF83E2H   LINE      CODE     ---       #510
      00FF83F7H   LINE      CODE     ---       #511
      00FF83F7H   LINE      CODE     ---       #513
      00FF83FAH   LINE      CODE     ---       #515
      00FF83FAH   LINE      CODE     ---       #517
      00FF83FEH   LINE      CODE     ---       #519
      00FF8411H   LINE      CODE     ---       #520
      00FF8414H   LINE      CODE     ---       #523
L251 LINKER/LOCATER V4.66.93.0                                                        10/15/2025  21:40:28  PAGE 66


      00FF8429H   LINE      CODE     ---       #524
      00FF8429H   LINE      CODE     ---       #526
      00FF842BH   LINE      CODE     ---       #528
      00FF842BH   LINE      CODE     ---       #530
      00FF842FH   LINE      CODE     ---       #532
      00FF8442H   LINE      CODE     ---       #533
      00FF8444H   LINE      CODE     ---       #536
      00FF8459H   LINE      CODE     ---       #537
      00FF8459H   LINE      CODE     ---       #539
      00FF845BH   LINE      CODE     ---       #541
      00FF845BH   LINE      CODE     ---       #543
      00FF845FH   LINE      CODE     ---       #545
      00FF8472H   LINE      CODE     ---       #546
      00FF8474H   LINE      CODE     ---       #549
      00FF8489H   LINE      CODE     ---       #550
      00FF8489H   LINE      CODE     ---       #552
      00FF848BH   LINE      CODE     ---       #554
      00FF848BH   LINE      CODE     ---       #556
      00FF849BH   LINE      CODE     ---       #558
      00FF849BH   LINE      CODE     ---       #559
      00FF849BH   LINE      CODE     ---       #560
      ---         BLOCKEND  ---      ---       LVL=0
      WR14        REGSYM    ---      INT       pin

      00FF8749H   BLOCK     CODE     ---       LVL=0
      WR4         REGSYM    ---      INT       pin
      00FF8749H   LINE      CODE     ---       #587
      00FF874BH   LINE      CODE     ---       #589
      00FF877FH   LINE      CODE     ---       #591
      00FF877FH   LINE      CODE     ---       #593
      00FF8792H   LINE      CODE     ---       #594
      00FF87A7H   LINE      CODE     ---       #596
      00FF87AAH   LINE      CODE     ---       #598
      00FF87AAH   LINE      CODE     ---       #600
      00FF87BDH   LINE      CODE     ---       #601
      00FF87D2H   LINE      CODE     ---       #603
      00FF87D5H   LINE      CODE     ---       #605
      00FF87D5H   LINE      CODE     ---       #607
      00FF87E8H   LINE      CODE     ---       #608
      00FF87FDH   LINE      CODE     ---       #610
      00FF8800H   LINE      CODE     ---       #612
      00FF8800H   LINE      CODE     ---       #614
      00FF8813H   LINE      CODE     ---       #615
      00FF8828H   LINE      CODE     ---       #617
      00FF882AH   LINE      CODE     ---       #619
      00FF882AH   LINE      CODE     ---       #621
      00FF883DH   LINE      CODE     ---       #622
      00FF8852H   LINE      CODE     ---       #624
      00FF8854H   LINE      CODE     ---       #626
      00FF8854H   LINE      CODE     ---       #628
      00FF8867H   LINE      CODE     ---       #629
      00FF887CH   LINE      CODE     ---       #631
      00FF887EH   LINE      CODE     ---       #633
      00FF887EH   LINE      CODE     ---       #635
      00FF888EH   LINE      CODE     ---       #637
      00FF888EH   LINE      CODE     ---       #638
      00FF888EH   LINE      CODE     ---       #639
      ---         BLOCKEND  ---      ---       LVL=0

      00FF9AB5H   BLOCK     CODE     ---       LVL=0
      WR14        REGSYM    ---      INT       pin
      0001101AH   SYMBOL    XDATA    INT       dir
      0001101CH   SYMBOL    XDATA    BYTE      dat
      WR12        REGSYM    ---      INT       mode
      00FF9AB5H   LINE      CODE     ---       #650
L251 LINKER/LOCATER V4.66.93.0                                                        10/15/2025  21:40:28  PAGE 67


      00FF9AC5H   LINE      CODE     ---       #652
      00FF9AEDH   LINE      CODE     ---       #654
      00FF9AF9H   LINE      CODE     ---       #656
      00FF9B02H   LINE      CODE     ---       #657
      00FF9B09H   LINE      CODE     ---       #658
      00FF9B0BH   LINE      CODE     ---       #659
      00FF9B15H   LINE      CODE     ---       #661
      00FF9B19H   LINE      CODE     ---       #663
      00FF9B1EH   LINE      CODE     ---       #664
      00FF9B20H   LINE      CODE     ---       #667
      00FF9B27H   LINE      CODE     ---       #668
      00FF9B2EH   LINE      CODE     ---       #669
      00FF9B2EH   LINE      CODE     ---       #670
      00FF9B30H   LINE      CODE     ---       #671
      00FF9B3CH   LINE      CODE     ---       #673
      00FF9B42H   LINE      CODE     ---       #675
      00FF9B4BH   LINE      CODE     ---       #676
      00FF9B54H   LINE      CODE     ---       #677
      00FF9B56H   LINE      CODE     ---       #678
      00FF9B5CH   LINE      CODE     ---       #680
      00FF9B65H   LINE      CODE     ---       #681
      00FF9B65H   LINE      CODE     ---       #683
      00FF9B6EH   LINE      CODE     ---       #684
      ---         BLOCKEND  ---      ---       LVL=0

      ---         MODULE    ---      ---       zf_driver_pit
      00FF7A8BH   PUBLIC    CODE     ---       pit_init
      000000D0H   SFRSYM    DATA     BYTE      PSW
      0000009DH   SFRSYM    DATA     BYTE      IRCBAND
      00000097H   SFRSYM    DATA     BYTE      AUXR2
      000000EFH   SFRSYM    DATA     BYTE      AUXINTIF
      000000FDH   SFRSYM    DATA     BYTE      S4CON
      000000ACH   SFRSYM    DATA     BYTE      S3CON
      0000009AH   SFRSYM    DATA     BYTE      S2CON
      000000B7H   SFRSYM    DATA     BYTE      IPH
      000000CDH   SFRSYM    DATA     BYTE      SPSTAT
      000000DDH   SFRSYM    DATA     BYTE      T4T3M
      000000C1H   SFRSYM    DATA     BYTE      WDT_CONTR
      00000088H.6 SFRSYM    DATA     BIT       TR1
      00000088H.4 SFRSYM    DATA     BIT       TR0
      000000D3H   SFRSYM    DATA     BYTE      T4L
      000000D5H   SFRSYM    DATA     BYTE      T3L
      000000D7H   SFRSYM    DATA     BYTE      T2L
      0000008BH   SFRSYM    DATA     BYTE      TL1
      0000008AH   SFRSYM    DATA     BYTE      TL0
      000000D2H   SFRSYM    DATA     BYTE      T4H
      000000D4H   SFRSYM    DATA     BYTE      T3H
      000000D6H   SFRSYM    DATA     BYTE      T2H
      0000008DH   SFRSYM    DATA     BYTE      TH1
      0000008CH   SFRSYM    DATA     BYTE      TH0
      000000DFH   SFRSYM    DATA     BYTE      IP3
      000000F4H   SFRSYM    DATA     BYTE      USBCON
      000000B5H   SFRSYM    DATA     BYTE      IP2
      000000FFH   SFRSYM    DATA     BYTE      RSTCFG
      000000A8H.3 SFRSYM    DATA     BIT       ET1
      000000A8H.1 SFRSYM    DATA     BIT       ET0
      000000C7H   SFRSYM    DATA     BYTE      IAP_CONTR
      0000008EH   SFRSYM    DATA     BYTE      AUXR
      000000AFH   SFRSYM    DATA     BYTE      IE2
      00000088H   SFRSYM    DATA     BYTE      TCON
      00000089H   SFRSYM    DATA     BYTE      TMOD
      00000098H   SFRSYM    DATA     BYTE      SCON
      00000087H   SFRSYM    DATA     BYTE      PCON
      000000BCH   SFRSYM    DATA     BYTE      ADC_CONTR
      000000D1H   SFRSYM    DATA     BYTE      PSW1
L251 LINKER/LOCATER V4.66.93.0                                                        10/15/2025  21:40:28  PAGE 68


      000000E7H   SFRSYM    DATA     BYTE      CMPCR2
      000000E6H   SFRSYM    DATA     BYTE      CMPCR1
      000000DEH   SFRSYM    DATA     BYTE      ADCCFG
      000000B8H   SFRSYM    DATA     BYTE      IP
      0000008FH   SFRSYM    DATA     BYTE      INTCLKO
      000000EEH   SFRSYM    DATA     BYTE      IP3H
      000000B6H   SFRSYM    DATA     BYTE      IP2H
      000000BFH   SFRSYM    DATA     BYTE      P_SW4
      000000A8H   SFRSYM    DATA     BYTE      IE
      000000BBH   SFRSYM    DATA     BYTE      P_SW3
      000000BAH   SFRSYM    DATA     BYTE      P_SW2
      000000A2H   SFRSYM    DATA     BYTE      P_SW1
      000000CEH   SFRSYM    DATA     BYTE      SPCTL
      000000F8H   SFRSYM    DATA     BYTE      P7
      000000E8H   SFRSYM    DATA     BYTE      P6
      000000C8H   SFRSYM    DATA     BYTE      P5
      000000C0H   SFRSYM    DATA     BYTE      P4
      000000ABH   SFRSYM    DATA     BYTE      WKTCH
      000000B0H   SFRSYM    DATA     BYTE      P3
      000000A0H   SFRSYM    DATA     BYTE      P2
      00000090H   SFRSYM    DATA     BYTE      P1
      00000080H   SFRSYM    DATA     BYTE      P0

      00FF7A8BH   BLOCK     CODE     ---       LVL=0
      WR30        REGSYM    ---      INT       pit_n
      DR24        REGSYM    ---      DWORD     period
      00FF7A91H   BLOCK     CODE     NEAR LAB  LVL=1
      R15         REGSYM    ---      BYTE      freq_div
      WR22        REGSYM    ---      WORD      period_temp
      WR28        REGSYM    ---      WORD      temp
      ---         BLOCKEND  ---      ---       LVL=1
      00FF7A8BH   LINE      CODE     ---       #50
      00FF7A91H   LINE      CODE     ---       #51
      00FF7A91H   LINE      CODE     ---       #52
      00FF7A93H   LINE      CODE     ---       #53
      00FF7A95H   LINE      CODE     ---       #54
      00FF7A97H   LINE      CODE     ---       #57
      00FF7AA3H   LINE      CODE     ---       #60
      00FF7AAEH   LINE      CODE     ---       #62
      00FF7AB2H   LINE      CODE     ---       #64
      00FF7AB5H   LINE      CODE     ---       #65
      00FF7AB8H   LINE      CODE     ---       #66
      00FF7ABEH   LINE      CODE     ---       #68
      00FF7AC1H   LINE      CODE     ---       #69
      00FF7AC4H   LINE      CODE     ---       #70
      00FF7ACAH   LINE      CODE     ---       #72
      00FF7ACDH   LINE      CODE     ---       #73
      00FF7ACFH   LINE      CODE     ---       #74
      00FF7AD5H   LINE      CODE     ---       #76
      00FF7AD8H   LINE      CODE     ---       #77
      00FF7ADAH   LINE      CODE     ---       #78
      00FF7AE0H   LINE      CODE     ---       #80
      00FF7AE3H   LINE      CODE     ---       #81
      00FF7AE5H   LINE      CODE     ---       #82
      00FF7AEBH   LINE      CODE     ---       #84
      00FF7AFBH   LINE      CODE     ---       #85
      00FF7AFDH   LINE      CODE     ---       #91
      00FF7B01H   LINE      CODE     ---       #93
      00FF7B04H   LINE      CODE     ---       #94
      00FF7B06H   LINE      CODE     ---       #95
      00FF7B0CH   LINE      CODE     ---       #97
      00FF7B0FH   LINE      CODE     ---       #98
      00FF7B11H   LINE      CODE     ---       #99
      00FF7B17H   LINE      CODE     ---       #101
      00FF7B1AH   LINE      CODE     ---       #102
L251 LINKER/LOCATER V4.66.93.0                                                        10/15/2025  21:40:28  PAGE 69


      00FF7B1CH   LINE      CODE     ---       #103
      00FF7B22H   LINE      CODE     ---       #105
      00FF7B25H   LINE      CODE     ---       #106
      00FF7B27H   LINE      CODE     ---       #107
      00FF7B2DH   LINE      CODE     ---       #109
      00FF7B30H   LINE      CODE     ---       #110
      00FF7B32H   LINE      CODE     ---       #111
      00FF7B38H   LINE      CODE     ---       #113
      00FF7B48H   LINE      CODE     ---       #114
      00FF7B48H   LINE      CODE     ---       #118
      00FF7B58H   LINE      CODE     ---       #119
      00FF7B65H   LINE      CODE     ---       #121
      00FF7B69H   LINE      CODE     ---       #123
      00FF7B6DH   LINE      CODE     ---       #125
      00FF7B78H   LINE      CODE     ---       #126
      00FF7B7CH   LINE      CODE     ---       #127
      00FF7B82H   LINE      CODE     ---       #128
      00FF7B88H   LINE      CODE     ---       #129
      00FF7B8AH   LINE      CODE     ---       #130
      00FF7B8CH   LINE      CODE     ---       #131
      00FF7B8FH   LINE      CODE     ---       #132
      00FF7B95H   LINE      CODE     ---       #134
      00FF7BA0H   LINE      CODE     ---       #135
      00FF7BA4H   LINE      CODE     ---       #136
      00FF7BAAH   LINE      CODE     ---       #137
      00FF7BB0H   LINE      CODE     ---       #138
      00FF7BB2H   LINE      CODE     ---       #139
      00FF7BB4H   LINE      CODE     ---       #140
      00FF7BB7H   LINE      CODE     ---       #141
      00FF7BBDH   LINE      CODE     ---       #143
      00FF7BC8H   LINE      CODE     ---       #144
      00FF7BCEH   LINE      CODE     ---       #145
      00FF7BD4H   LINE      CODE     ---       #146
      00FF7BD7H   LINE      CODE     ---       #147
      00FF7BDAH   LINE      CODE     ---       #148
      00FF7BDDH   LINE      CODE     ---       #149
      00FF7BE3H   LINE      CODE     ---       #151
      00FF7BEEH   LINE      CODE     ---       #152
      00FF7BF4H   LINE      CODE     ---       #153
      00FF7BFAH   LINE      CODE     ---       #154
      00FF7BFDH   LINE      CODE     ---       #155
      00FF7C00H   LINE      CODE     ---       #156
      00FF7C02H   LINE      CODE     ---       #157
      00FF7C08H   LINE      CODE     ---       #159
      00FF7C13H   LINE      CODE     ---       #160
      00FF7C19H   LINE      CODE     ---       #161
      00FF7C1FH   LINE      CODE     ---       #162
      00FF7C22H   LINE      CODE     ---       #163
      00FF7C25H   LINE      CODE     ---       #164
      00FF7C27H   LINE      CODE     ---       #165
      00FF7C2DH   LINE      CODE     ---       #167
      00FF7C38H   LINE      CODE     ---       #168
      00FF7C47H   LINE      CODE     ---       #169
      00FF7C56H   LINE      CODE     ---       #170
      00FF7C63H   LINE      CODE     ---       #172
      ---         BLOCKEND  ---      ---       LVL=0

      ---         MODULE    ---      ---       zf_driver_pwm
      00FFD3B5H   PUBLIC    HCONST   ---       PWM_PSCR_ADDR
      00FFD3BDH   PUBLIC    HCONST   ---       PWM_CCR_ADDR
      00FFD3DDH   PUBLIC    HCONST   ---       PWM_ARR_ADDR
      00FFD3E5H   PUBLIC    HCONST   ---       PWM_CCER_ADDR
      00FFD3F5H   PUBLIC    HCONST   ---       PWM_CCMR_ADDR
      00FF8199H   PUBLIC    CODE     ---       pwm_set_duty
      00FF59B2H   PUBLIC    CODE     ---       pwm_init
L251 LINKER/LOCATER V4.66.93.0                                                        10/15/2025  21:40:28  PAGE 70


      00011008H   PUBLIC    XDATA    BYTE      ?pwm_init?BYTE
      000000D0H   SFRSYM    DATA     BYTE      PSW
      0000009DH   SFRSYM    DATA     BYTE      IRCBAND
      00000097H   SFRSYM    DATA     BYTE      AUXR2
      000000EFH   SFRSYM    DATA     BYTE      AUXINTIF
      000000FDH   SFRSYM    DATA     BYTE      S4CON
      000000ACH   SFRSYM    DATA     BYTE      S3CON
      0000009AH   SFRSYM    DATA     BYTE      S2CON
      000000B7H   SFRSYM    DATA     BYTE      IPH
      000000CDH   SFRSYM    DATA     BYTE      SPSTAT
      000000DDH   SFRSYM    DATA     BYTE      T4T3M
      000000C1H   SFRSYM    DATA     BYTE      WDT_CONTR
      000000DFH   SFRSYM    DATA     BYTE      IP3
      000000F4H   SFRSYM    DATA     BYTE      USBCON
      000000B5H   SFRSYM    DATA     BYTE      IP2
      000000FFH   SFRSYM    DATA     BYTE      RSTCFG
      000000C7H   SFRSYM    DATA     BYTE      IAP_CONTR
      0000008EH   SFRSYM    DATA     BYTE      AUXR
      000000AFH   SFRSYM    DATA     BYTE      IE2
      00000088H   SFRSYM    DATA     BYTE      TCON
      00000089H   SFRSYM    DATA     BYTE      TMOD
      00000098H   SFRSYM    DATA     BYTE      SCON
      00000087H   SFRSYM    DATA     BYTE      PCON
      000000BCH   SFRSYM    DATA     BYTE      ADC_CONTR
      000000D1H   SFRSYM    DATA     BYTE      PSW1
      000000E7H   SFRSYM    DATA     BYTE      CMPCR2
      000000E6H   SFRSYM    DATA     BYTE      CMPCR1
      000000DEH   SFRSYM    DATA     BYTE      ADCCFG
      000000B8H   SFRSYM    DATA     BYTE      IP
      0000008FH   SFRSYM    DATA     BYTE      INTCLKO
      000000EEH   SFRSYM    DATA     BYTE      IP3H
      000000B6H   SFRSYM    DATA     BYTE      IP2H
      000000BFH   SFRSYM    DATA     BYTE      P_SW4
      000000A8H   SFRSYM    DATA     BYTE      IE
      000000BBH   SFRSYM    DATA     BYTE      P_SW3
      000000BAH   SFRSYM    DATA     BYTE      P_SW2
      000000A2H   SFRSYM    DATA     BYTE      P_SW1
      000000CEH   SFRSYM    DATA     BYTE      SPCTL
      000000F8H   SFRSYM    DATA     BYTE      P7
      000000E8H   SFRSYM    DATA     BYTE      P6
      000000C8H   SFRSYM    DATA     BYTE      P5
      000000C0H   SFRSYM    DATA     BYTE      P4
      000000ABH   SFRSYM    DATA     BYTE      WKTCH
      000000B0H   SFRSYM    DATA     BYTE      P3
      000000A0H   SFRSYM    DATA     BYTE      P2
      00000090H   SFRSYM    DATA     BYTE      P1
      00000080H   SFRSYM    DATA     BYTE      P0
      WR14        REGSYM    ---      INT       pin
      WR12        REGSYM    ---      WORD      freq_div

      00FF8199H   BLOCK     CODE     ---       LVL=0
      WR14        REGSYM    ---      INT       pin
      0001100AH   SYMBOL    XDATA    DWORD     duty
      00FF81A7H   BLOCK     CODE     NEAR LAB  LVL=1
      0001100EH   SYMBOL    XDATA    DWORD     match_temp
      00011012H   SYMBOL    XDATA    DWORD     arr
      ---         BLOCKEND  ---      ---       LVL=1
      00FF8199H   LINE      CODE     ---       #132
      00FF81A7H   LINE      CODE     ---       #133
      00FF81A7H   LINE      CODE     ---       #135
      00FF8205H   LINE      CODE     ---       #138
      00FF8229H   LINE      CODE     ---       #140
      00FF8239H   LINE      CODE     ---       #142
      00FF8272H   LINE      CODE     ---       #143
      00FF8274H   LINE      CODE     ---       #146
L251 LINKER/LOCATER V4.66.93.0                                                        10/15/2025  21:40:28  PAGE 71


      00FF828AH   LINE      CODE     ---       #147
      00FF828AH   LINE      CODE     ---       #150
      00FF82D8H   LINE      CODE     ---       #151
      00FF8326H   LINE      CODE     ---       #153
      ---         BLOCKEND  ---      ---       LVL=0

      00FF59B2H   BLOCK     CODE     ---       LVL=0
      WR14        REGSYM    ---      INT       pin
      0001100AH   SYMBOL    XDATA    DWORD     freq
      0001100EH   SYMBOL    XDATA    DWORD     duty
      00FF59C0H   BLOCK     CODE     NEAR LAB  LVL=1
      00011012H   SYMBOL    XDATA    WORD      match_temp
      00011014H   SYMBOL    XDATA    DWORD     period_temp
      WR12        REGSYM    ---      WORD      freq_div
      ---         BLOCKEND  ---      ---       LVL=1
      00FF59B2H   LINE      CODE     ---       #164
      00FF59C0H   LINE      CODE     ---       #165
      00FF59C0H   LINE      CODE     ---       #167
      00FF59C8H   LINE      CODE     ---       #168
      00FF59D4H   LINE      CODE     ---       #169
      00FF59D6H   LINE      CODE     ---       #172
      00FF59FAH   LINE      CODE     ---       #174
      00FF5A0CH   LINE      CODE     ---       #178
      00FF5A29H   LINE      CODE     ---       #179
      00FF5A4AH   LINE      CODE     ---       #180
      00FF5A67H   LINE      CODE     ---       #182
      00FF5A77H   LINE      CODE     ---       #184
      00FF5AACH   LINE      CODE     ---       #185
      00FF5AAEH   LINE      CODE     ---       #188
      00FF5AC0H   LINE      CODE     ---       #189
      00FF5AC0H   LINE      CODE     ---       #191
      00FF5AEAH   LINE      CODE     ---       #192
      00FF5B14H   LINE      CODE     ---       #194
      00FF5B46H   LINE      CODE     ---       #195
      00FF5B78H   LINE      CODE     ---       #197
      00FF5BC4H   LINE      CODE     ---       #198
      00FF5C0EH   LINE      CODE     ---       #200
      00FF5C1DH   LINE      CODE     ---       #202
      00FF5C5CH   LINE      CODE     ---       #203
      00FF5C91H   LINE      CODE     ---       #204
      00FF5D0BH   LINE      CODE     ---       #206
      00FF5D18H   LINE      CODE     ---       #207
      00FF5D25H   LINE      CODE     ---       #208
      00FF5D28H   LINE      CODE     ---       #209
      00FF5D3BH   LINE      CODE     ---       #211
      00FF5D7AH   LINE      CODE     ---       #212
      00FF5DAFH   LINE      CODE     ---       #213
      00FF5E17H   LINE      CODE     ---       #215
      00FF5E24H   LINE      CODE     ---       #216
      00FF5E31H   LINE      CODE     ---       #217
      00FF5E31H   LINE      CODE     ---       #219
      00FF5E78H   LINE      CODE     ---       #220
      00FF5EBFH   LINE      CODE     ---       #221
      ---         BLOCKEND  ---      ---       LVL=0

      ---         MODULE    ---      ---       zf_driver_soft_iic
      00FFA9C4H   PUBLIC    CODE     ---       soft_iic_wait_ack
      00FFAD49H   PUBLIC    CODE     ---       soft_iic_stop
      00FFB421H   PUBLIC    CODE     ---       soft_iic_delay
      00FF9CE6H   PUBLIC    CODE     ---       soft_iic_read_data
      00FFA3EAH   PUBLIC    CODE     ---       soft_iic_send_data
      00FFAEC1H   PUBLIC    CODE     ---       soft_iic_start
      00FFAB2AH   PUBLIC    CODE     ---       soft_iic_send_ack
      000000D0H   SFRSYM    DATA     BYTE      PSW
      0000009DH   SFRSYM    DATA     BYTE      IRCBAND
L251 LINKER/LOCATER V4.66.93.0                                                        10/15/2025  21:40:28  PAGE 72


      00000097H   SFRSYM    DATA     BYTE      AUXR2
      000000EFH   SFRSYM    DATA     BYTE      AUXINTIF
      000000FDH   SFRSYM    DATA     BYTE      S4CON
      000000ACH   SFRSYM    DATA     BYTE      S3CON
      0000009AH   SFRSYM    DATA     BYTE      S2CON
      000000B7H   SFRSYM    DATA     BYTE      IPH
      000000CDH   SFRSYM    DATA     BYTE      SPSTAT
      000000DDH   SFRSYM    DATA     BYTE      T4T3M
      000000C1H   SFRSYM    DATA     BYTE      WDT_CONTR
      000000DFH   SFRSYM    DATA     BYTE      IP3
      000000F4H   SFRSYM    DATA     BYTE      USBCON
      000000B5H   SFRSYM    DATA     BYTE      IP2
      000000FFH   SFRSYM    DATA     BYTE      RSTCFG
      000000C7H   SFRSYM    DATA     BYTE      IAP_CONTR
      0000008EH   SFRSYM    DATA     BYTE      AUXR
      000000AFH   SFRSYM    DATA     BYTE      IE2
      00000088H   SFRSYM    DATA     BYTE      TCON
      00000089H   SFRSYM    DATA     BYTE      TMOD
      00000098H   SFRSYM    DATA     BYTE      SCON
      00000087H   SFRSYM    DATA     BYTE      PCON
      000000BCH   SFRSYM    DATA     BYTE      ADC_CONTR
      000000D1H   SFRSYM    DATA     BYTE      PSW1
      000000E7H   SFRSYM    DATA     BYTE      CMPCR2
      000000E6H   SFRSYM    DATA     BYTE      CMPCR1
      000000DEH   SFRSYM    DATA     BYTE      ADCCFG
      000000B8H   SFRSYM    DATA     BYTE      IP
      0000008FH   SFRSYM    DATA     BYTE      INTCLKO
      000000EEH   SFRSYM    DATA     BYTE      IP3H
      000000B6H   SFRSYM    DATA     BYTE      IP2H
      000000BFH   SFRSYM    DATA     BYTE      P_SW4
      000000A8H   SFRSYM    DATA     BYTE      IE
      000000BBH   SFRSYM    DATA     BYTE      P_SW3
      000000BAH   SFRSYM    DATA     BYTE      P_SW2
      000000A2H   SFRSYM    DATA     BYTE      P_SW1
      000000CEH   SFRSYM    DATA     BYTE      SPCTL
      000000F8H   SFRSYM    DATA     BYTE      P7
      000000E8H   SFRSYM    DATA     BYTE      P6
      000000C8H   SFRSYM    DATA     BYTE      P5
      000000C0H   SFRSYM    DATA     BYTE      P4
      000000ABH   SFRSYM    DATA     BYTE      WKTCH
      000000B0H   SFRSYM    DATA     BYTE      P3
      000000A0H   SFRSYM    DATA     BYTE      P2
      00000090H   SFRSYM    DATA     BYTE      P1
      00000080H   SFRSYM    DATA     BYTE      P0

      00FFB421H   BLOCK     CODE     ---       LVL=0
      000112BEH   SYMBOL    XDATA    DWORD     delay
      00FFB42BH   BLOCK     CODE     NEAR LAB  LVL=1
      000112C2H   SYMBOL    XDATA    DWORD     count
      ---         BLOCKEND  ---      ---       LVL=1
      00FFB421H   LINE      CODE     ---       #53
      00FFB42BH   LINE      CODE     ---       #54
      00FFB42BH   LINE      CODE     ---       #55
      00FFB43FH   LINE      CODE     ---       #56
      00FFB458H   LINE      CODE     ---       #57
      ---         BLOCKEND  ---      ---       LVL=0

      00FFAEC1H   BLOCK     CODE     ---       LVL=0
      REG=3       REGSYM    ---      ---       soft_iic_obj
      00FFAEC1H   LINE      CODE     ---       #67
      00FFAEC5H   LINE      CODE     ---       #69
      00FFAEDFH   LINE      CODE     ---       #70
      00FFAEE7H   LINE      CODE     ---       #71
      00FFAEF0H   LINE      CODE     ---       #73
      00FFAEFBH   LINE      CODE     ---       #74
L251 LINKER/LOCATER V4.66.93.0                                                        10/15/2025  21:40:28  PAGE 73


      00FFAF03H   LINE      CODE     ---       #75
      00FFAF0EH   LINE      CODE     ---       #76
      00FFAF15H   LINE      CODE     ---       #77
      ---         BLOCKEND  ---      ---       LVL=0

      00FFAD49H   BLOCK     CODE     ---       LVL=0
      REG=3       REGSYM    ---      ---       soft_iic_obj
      00FFAD49H   LINE      CODE     ---       #86
      00FFAD4DH   LINE      CODE     ---       #88
      00FFAD67H   LINE      CODE     ---       #89
      00FFAD6FH   LINE      CODE     ---       #90
      00FFAD76H   LINE      CODE     ---       #92
      00FFAD81H   LINE      CODE     ---       #93
      00FFAD89H   LINE      CODE     ---       #94
      00FFAD94H   LINE      CODE     ---       #95
      00FFAD9DH   LINE      CODE     ---       #96
      00FFADA8H   LINE      CODE     ---       #97
      ---         BLOCKEND  ---      ---       LVL=0

      00FFAB2AH   BLOCK     CODE     ---       LVL=0
      REG=3       REGSYM    ---      ---       soft_iic_obj
      000112FDH   SYMBOL    XDATA    BYTE      ack
      00FFAB2AH   LINE      CODE     ---       #107
      00FFAB32H   LINE      CODE     ---       #109
      00FFAB4CH   LINE      CODE     ---       #110
      00FFAB53H   LINE      CODE     ---       #112
      00FFAB59H   LINE      CODE     ---       #114
      00FFAB62H   LINE      CODE     ---       #115
      00FFAB64H   LINE      CODE     ---       #118
      00FFAB6CH   LINE      CODE     ---       #119
      00FFAB6CH   LINE      CODE     ---       #121
      00FFAB77H   LINE      CODE     ---       #122
      00FFAB7FH   LINE      CODE     ---       #123
      00FFAB8AH   LINE      CODE     ---       #124
      00FFAB91H   LINE      CODE     ---       #125
      00FFAB9AH   LINE      CODE     ---       #126
      ---         BLOCKEND  ---      ---       LVL=0

      00FFA9C4H   BLOCK     CODE     ---       LVL=0
      REG=3       REGSYM    ---      ---       soft_iic_obj
      00FFA9C8H   BLOCK     CODE     NEAR LAB  LVL=1
      000112FEH   SYMBOL    XDATA    BYTE      temp
      ---         BLOCKEND  ---      ---       LVL=1
      00FFA9C4H   LINE      CODE     ---       #135
      00FFA9C8H   LINE      CODE     ---       #136
      00FFA9C8H   LINE      CODE     ---       #137
      00FFA9CDH   LINE      CODE     ---       #138
      00FFA9E7H   LINE      CODE     ---       #140
      00FFA9EEH   LINE      CODE     ---       #141
      00FFA9F7H   LINE      CODE     ---       #145
      00FFAA02H   LINE      CODE     ---       #147
      00FFAA0AH   LINE      CODE     ---       #148
      00FFAA15H   LINE      CODE     ---       #150
      00FFAA1EH   LINE      CODE     ---       #152
      00FFAA24H   LINE      CODE     ---       #153
      00FFAA24H   LINE      CODE     ---       #154
      00FFAA2BH   LINE      CODE     ---       #158
      00FFAA36H   LINE      CODE     ---       #160
      00FFAA3AH   LINE      CODE     ---       #161
      ---         BLOCKEND  ---      ---       LVL=0

      00FFA3EAH   BLOCK     CODE     ---       LVL=0
      REG=3       REGSYM    ---      ---       soft_iic_obj
      000112FAH   SYMBOL    XDATA    BYTE      dat
      00FFA3F2H   BLOCK     CODE     NEAR LAB  LVL=1
L251 LINKER/LOCATER V4.66.93.0                                                        10/15/2025  21:40:28  PAGE 74


      000112FBH   SYMBOL    XDATA    BYTE      temp
      ---         BLOCKEND  ---      ---       LVL=1
      00FFA3EAH   LINE      CODE     ---       #170
      00FFA3F2H   LINE      CODE     ---       #171
      00FFA3F2H   LINE      CODE     ---       #172
      00FFA3F8H   LINE      CODE     ---       #174
      00FFA412H   LINE      CODE     ---       #176
      00FFA414H   LINE      CODE     ---       #179
      00FFA439H   LINE      CODE     ---       #180
      00FFA440H   LINE      CODE     ---       #182
      00FFA44BH   LINE      CODE     ---       #183
      00FFA453H   LINE      CODE     ---       #184
      00FFA45EH   LINE      CODE     ---       #185
      00FFA465H   LINE      CODE     ---       #186
      00FFA46BH   LINE      CODE     ---       #187
      00FFA478H   LINE      CODE     ---       #188
      ---         BLOCKEND  ---      ---       LVL=0

      00FF9CE6H   BLOCK     CODE     ---       LVL=0
      REG=3       REGSYM    ---      ---       soft_iic_obj
      000112F7H   SYMBOL    XDATA    BYTE      ack
      00FF9CEEH   BLOCK     CODE     NEAR LAB  LVL=1
      000112F8H   SYMBOL    XDATA    BYTE      dat
      000112F9H   SYMBOL    XDATA    BYTE      temp
      ---         BLOCKEND  ---      ---       LVL=1
      00FF9CE6H   LINE      CODE     ---       #197
      00FF9CEEH   LINE      CODE     ---       #198
      00FF9CEEH   LINE      CODE     ---       #199
      00FF9CF3H   LINE      CODE     ---       #200
      00FF9CF9H   LINE      CODE     ---       #201
      00FF9D13H   LINE      CODE     ---       #202
      00FF9D1AH   LINE      CODE     ---       #203
      00FF9D25H   LINE      CODE     ---       #204
      00FF9D2EH   LINE      CODE     ---       #209
      00FF9D30H   LINE      CODE     ---       #211
      00FF9D37H   LINE      CODE     ---       #212
      00FF9D42H   LINE      CODE     ---       #213
      00FF9D4AH   LINE      CODE     ---       #214
      00FF9D55H   LINE      CODE     ---       #215
      00FF9D6AH   LINE      CODE     ---       #216
      00FF9D78H   LINE      CODE     ---       #217
      00FF9D7FH   LINE      CODE     ---       #221
      00FF9D8AH   LINE      CODE     ---       #222
      00FF9D93H   LINE      CODE     ---       #223
      00FF9D97H   LINE      CODE     ---       #224
      ---         BLOCKEND  ---      ---       LVL=0
      REG=3       REGSYM    ---      ---       soft_iic_obj
      REG=3       REGSYM    ---      ---       soft_iic_obj
      REG=3       REGSYM    ---      ---       soft_iic_obj
      REG=3       REGSYM    ---      ---       soft_iic_obj
      REG=3       REGSYM    ---      ---       soft_iic_obj
      REG=3       REGSYM    ---      ---       soft_iic_obj
      REG=3       REGSYM    ---      ---       soft_iic_obj
      REG=3       REGSYM    ---      ---       soft_iic_obj
      REG=3       REGSYM    ---      ---       soft_iic_obj
      REG=3       REGSYM    ---      ---       soft_iic_obj
      REG=3       REGSYM    ---      ---       soft_iic_obj
      REG=3       REGSYM    ---      ---       soft_iic_obj
      REG=3       REGSYM    ---      ---       soft_iic_obj
      REG=3       REGSYM    ---      ---       soft_iic_obj
      REG=3       REGSYM    ---      ---       soft_iic_obj
      REG=3       REGSYM    ---      ---       soft_iic_obj
      REG=3       REGSYM    ---      ---       soft_iic_obj
      REG=3       REGSYM    ---      ---       soft_iic_obj
      REG=3       REGSYM    ---      ---       soft_iic_obj
L251 LINKER/LOCATER V4.66.93.0                                                        10/15/2025  21:40:28  PAGE 75


      REG=3       REGSYM    ---      ---       soft_iic_obj
      REG=3       REGSYM    ---      ---       soft_iic_obj

      ---         MODULE    ---      ---       zf_driver_soft_spi
      000000D0H   SFRSYM    DATA     BYTE      PSW
      0000009DH   SFRSYM    DATA     BYTE      IRCBAND
      00000097H   SFRSYM    DATA     BYTE      AUXR2
      000000EFH   SFRSYM    DATA     BYTE      AUXINTIF
      000000FDH   SFRSYM    DATA     BYTE      S4CON
      000000ACH   SFRSYM    DATA     BYTE      S3CON
      0000009AH   SFRSYM    DATA     BYTE      S2CON
      000000B7H   SFRSYM    DATA     BYTE      IPH
      000000CDH   SFRSYM    DATA     BYTE      SPSTAT
      000000DDH   SFRSYM    DATA     BYTE      T4T3M
      000000C1H   SFRSYM    DATA     BYTE      WDT_CONTR
      000000DFH   SFRSYM    DATA     BYTE      IP3
      000000F4H   SFRSYM    DATA     BYTE      USBCON
      000000B5H   SFRSYM    DATA     BYTE      IP2
      000000FFH   SFRSYM    DATA     BYTE      RSTCFG
      000000C7H   SFRSYM    DATA     BYTE      IAP_CONTR
      0000008EH   SFRSYM    DATA     BYTE      AUXR
      000000AFH   SFRSYM    DATA     BYTE      IE2
      00000088H   SFRSYM    DATA     BYTE      TCON
      00000089H   SFRSYM    DATA     BYTE      TMOD
      00000098H   SFRSYM    DATA     BYTE      SCON
      00000087H   SFRSYM    DATA     BYTE      PCON
      000000BCH   SFRSYM    DATA     BYTE      ADC_CONTR
      000000D1H   SFRSYM    DATA     BYTE      PSW1
      000000E7H   SFRSYM    DATA     BYTE      CMPCR2
      000000E6H   SFRSYM    DATA     BYTE      CMPCR1
      000000DEH   SFRSYM    DATA     BYTE      ADCCFG
      000000B8H   SFRSYM    DATA     BYTE      IP
      0000008FH   SFRSYM    DATA     BYTE      INTCLKO
      000000EEH   SFRSYM    DATA     BYTE      IP3H
      000000B6H   SFRSYM    DATA     BYTE      IP2H
      000000BFH   SFRSYM    DATA     BYTE      P_SW4
      000000A8H   SFRSYM    DATA     BYTE      IE
      000000BBH   SFRSYM    DATA     BYTE      P_SW3
      000000BAH   SFRSYM    DATA     BYTE      P_SW2
      000000A2H   SFRSYM    DATA     BYTE      P_SW1
      000000CEH   SFRSYM    DATA     BYTE      SPCTL
      000000F8H   SFRSYM    DATA     BYTE      P7
      000000E8H   SFRSYM    DATA     BYTE      P6
      000000C8H   SFRSYM    DATA     BYTE      P5
      000000C0H   SFRSYM    DATA     BYTE      P4
      000000ABH   SFRSYM    DATA     BYTE      WKTCH
      000000B0H   SFRSYM    DATA     BYTE      P3
      000000A0H   SFRSYM    DATA     BYTE      P2
      00000090H   SFRSYM    DATA     BYTE      P1
      00000080H   SFRSYM    DATA     BYTE      P0
      DR0         REGSYM    ---      DWORD     x
      REG=3       REGSYM    ---      ---       soft_spi_obj
      R10         REGSYM    ---      BYTE      dat
      REG=3       REGSYM    ---      ---       soft_spi_obj
      WR6         REGSYM    ---      WORD      dat
      REG=3       REGSYM    ---      ---       soft_spi_obj
      REG=3       REGSYM    ---      ---       soft_spi_obj
      REG=3       REGSYM    ---      ---       soft_spi_obj
      REG=3       REGSYM    ---      ---       soft_spi_obj
      REG=3       REGSYM    ---      ---       soft_spi_obj
      REG=3       REGSYM    ---      ---       soft_spi_obj
      REG=3       REGSYM    ---      ---       soft_spi_obj
      REG=3       REGSYM    ---      ---       soft_spi_obj
      REG=3       REGSYM    ---      ---       soft_spi_obj
      REG=3       REGSYM    ---      ---       soft_spi_obj
L251 LINKER/LOCATER V4.66.93.0                                                        10/15/2025  21:40:28  PAGE 76


      REG=3       REGSYM    ---      ---       soft_spi_obj
      REG=3       REGSYM    ---      ---       soft_spi_obj
      REG=3       REGSYM    ---      ---       soft_spi_obj
      REG=3       REGSYM    ---      ---       soft_spi_obj
      REG=3       REGSYM    ---      ---       soft_spi_obj
      REG=3       REGSYM    ---      ---       soft_spi_obj
      REG=3       REGSYM    ---      ---       soft_spi_obj
      REG=3       REGSYM    ---      ---       soft_spi_obj
      REG=3       REGSYM    ---      ---       soft_spi_obj

      ---         MODULE    ---      ---       zf_driver_spi
      00FF0003H   PUBLIC    CODE     ---       spi_write_8bit
      00FF5EC2H   PUBLIC    CODE     ---       spi_init
      00FFB5BCH   PUBLIC    CODE     ---       spi_write_16bit
      00FFB1B8H   PUBLIC    CODE     ---       spi_write_dat
      00011006H   PUBLIC    XDATA    BYTE      ?spi_init?BYTE
      000000CFH   SFRSYM    DATA     BYTE      SPDAT
      000000D0H   SFRSYM    DATA     BYTE      PSW
      0000009DH   SFRSYM    DATA     BYTE      IRCBAND
      00000097H   SFRSYM    DATA     BYTE      AUXR2
      000000EFH   SFRSYM    DATA     BYTE      AUXINTIF
      000000FDH   SFRSYM    DATA     BYTE      S4CON
      000000ACH   SFRSYM    DATA     BYTE      S3CON
      0000009AH   SFRSYM    DATA     BYTE      S2CON
      0000009BH   SFRSYM    DATA     BYTE      S2BUF
      000000B7H   SFRSYM    DATA     BYTE      IPH
      000000CDH   SFRSYM    DATA     BYTE      SPSTAT
      000000DDH   SFRSYM    DATA     BYTE      T4T3M
      000000C1H   SFRSYM    DATA     BYTE      WDT_CONTR
      000000DFH   SFRSYM    DATA     BYTE      IP3
      000000F4H   SFRSYM    DATA     BYTE      USBCON
      000000B5H   SFRSYM    DATA     BYTE      IP2
      000000FFH   SFRSYM    DATA     BYTE      RSTCFG
      000000C7H   SFRSYM    DATA     BYTE      IAP_CONTR
      0000008EH   SFRSYM    DATA     BYTE      AUXR
      000000AFH   SFRSYM    DATA     BYTE      IE2
      00000088H   SFRSYM    DATA     BYTE      TCON
      00000089H   SFRSYM    DATA     BYTE      TMOD
      00000098H   SFRSYM    DATA     BYTE      SCON
      00000087H   SFRSYM    DATA     BYTE      PCON
      00000099H   SFRSYM    DATA     BYTE      SBUF
      000000BCH   SFRSYM    DATA     BYTE      ADC_CONTR
      000000D1H   SFRSYM    DATA     BYTE      PSW1
      000000E7H   SFRSYM    DATA     BYTE      CMPCR2
      000000E6H   SFRSYM    DATA     BYTE      CMPCR1
      0000009AH.1 SFRSYM    DATA     BIT       S2TI
      00000098H.1 SFRSYM    DATA     BIT       TI
      000000DEH   SFRSYM    DATA     BYTE      ADCCFG
      000000B8H   SFRSYM    DATA     BYTE      IP
      0000008FH   SFRSYM    DATA     BYTE      INTCLKO
      000000EEH   SFRSYM    DATA     BYTE      IP3H
      000000B6H   SFRSYM    DATA     BYTE      IP2H
      000000BFH   SFRSYM    DATA     BYTE      P_SW4
      000000A8H   SFRSYM    DATA     BYTE      IE
      000000BBH   SFRSYM    DATA     BYTE      P_SW3
      000000BAH   SFRSYM    DATA     BYTE      P_SW2
      000000A2H   SFRSYM    DATA     BYTE      P_SW1
      000000CEH   SFRSYM    DATA     BYTE      SPCTL
      000000F8H   SFRSYM    DATA     BYTE      P7
      000000E8H   SFRSYM    DATA     BYTE      P6
      000000C8H   SFRSYM    DATA     BYTE      P5
      000000C0H   SFRSYM    DATA     BYTE      P4
      000000ABH   SFRSYM    DATA     BYTE      WKTCH
      000000B0H   SFRSYM    DATA     BYTE      P3
      000000A0H   SFRSYM    DATA     BYTE      P2
L251 LINKER/LOCATER V4.66.93.0                                                        10/15/2025  21:40:28  PAGE 77


      00000090H   SFRSYM    DATA     BYTE      P1
      00000080H   SFRSYM    DATA     BYTE      P0

      00FFB1B8H   BLOCK     CODE     ---       LVL=0
      WR6         REGSYM    ---      INT       spi_n
      R10         REGSYM    ---      BYTE      dat
      00FFB1B8H   LINE      CODE     ---       #81
      00FFB1BAH   LINE      CODE     ---       #83
      00FFB1C6H   LINE      CODE     ---       #85
      00FFB1C6H   LINE      CODE     ---       #86
      00FFB1C9H   LINE      CODE     ---       #87
      00FFB1CCH   LINE      CODE     ---       #88
      00FFB1D1H   LINE      CODE     ---       #89
      00FFB1D3H   LINE      CODE     ---       #90
      00FFB1D3H   LINE      CODE     ---       #91
      00FFB1D5H   LINE      CODE     ---       #92
      00FFB1D8H   LINE      CODE     ---       #93
      00FFB1DBH   LINE      CODE     ---       #94
      00FFB1DDH   LINE      CODE     ---       #95
      00FFB1DDH   LINE      CODE     ---       #96
      00FFB1E0H   LINE      CODE     ---       #97
      00FFB1E3H   LINE      CODE     ---       #98
      00FFB1E7H   LINE      CODE     ---       #99
      00FFB1E9H   LINE      CODE     ---       #100
      00FFB1E9H   LINE      CODE     ---       #101
      00FFB1F9H   LINE      CODE     ---       #102
      00FFB1F9H   LINE      CODE     ---       #103
      00FFB1F9H   LINE      CODE     ---       #104
      ---         BLOCKEND  ---      ---       LVL=0
      WR8         REGSYM    ---      INT       spi_n
      R10         REGSYM    ---      BYTE      dat
      R15         REGSYM    ---      BYTE      ret

      00FF0003H   BLOCK     CODE     ---       LVL=0
      WR6         REGSYM    ---      INT       spi_n
      R5          REGSYM    ---      BYTE      dat
      00FF0003H   LINE      CODE     ---       #147
      00FF0005H   LINE      CODE     ---       #149
      00FF0008H   LINE      CODE     ---       #150
      ---         BLOCKEND  ---      ---       LVL=0
      REG=3       REGSYM    ---      ---       dat

      00FFB5BCH   BLOCK     CODE     ---       LVL=0
      WR12        REGSYM    ---      INT       spi_n
      WR14        REGSYM    ---      WORD      dat
      00FFB5BCH   LINE      CODE     ---       #175
      00FFB5C2H   LINE      CODE     ---       #177
      00FFB5CEH   LINE      CODE     ---       #178
      00FFB5D8H   LINE      CODE     ---       #179
      ---         BLOCKEND  ---      ---       LVL=0
      REG=3       REGSYM    ---      ---       dat
      WR14        REGSYM    ---      INT       spi_n
      R5          REGSYM    ---      BYTE      register_name
      R13         REGSYM    ---      BYTE      dat
      R5          REGSYM    ---      BYTE      register_name
      REG=3       REGSYM    ---      ---       dat
      WR14        REGSYM    ---      INT       spi_n
      WR12        REGSYM    ---      WORD      dat
      WR14        REGSYM    ---      INT       spi_n
      WR12        REGSYM    ---      WORD      register_name
      WR6         REGSYM    ---      INT       spi_n
      REG=3       REGSYM    ---      ---       dat
      WR14        REGSYM    ---      INT       spi_n
      WR12        REGSYM    ---      WORD      dat
      REG=3       REGSYM    ---      ---       dat
L251 LINKER/LOCATER V4.66.93.0                                                        10/15/2025  21:40:28  PAGE 78


      WR14        REGSYM    ---      INT       spi_n
      R5          REGSYM    ---      BYTE      register_name
      R5          REGSYM    ---      BYTE      register_name
      REG=3       REGSYM    ---      ---       dat
      WR14        REGSYM    ---      INT       spi_n
      WR12        REGSYM    ---      WORD      register_name
      REG=3       REGSYM    ---      ---       dat
      REG=3       REGSYM    ---      ---       write_buffer
      REG=3       REGSYM    ---      ---       write_buffer

      00FF5EC2H   BLOCK     CODE     ---       LVL=0
      0001100AH   SYMBOL    XDATA    INT       spi_n
      0001100CH   SYMBOL    XDATA    INT       mode
      DR12        REGSYM    ---      DWORD     baud
      0001100EH   SYMBOL    XDATA    INT       sck_pin
      00011010H   SYMBOL    XDATA    INT       mosi_pin
      00011012H   SYMBOL    XDATA    INT       miso_pin
      00011014H   SYMBOL    XDATA    INT       cs_pin
      00FF5ED2H   BLOCK     CODE     NEAR LAB  LVL=1
      00011016H   SYMBOL    XDATA    DWORD     spi_psc
      ---         BLOCKEND  ---      ---       LVL=1
      00FF5EC2H   LINE      CODE     ---       #465
      00FF5ED2H   LINE      CODE     ---       #466
      00FF5ED2H   LINE      CODE     ---       #467
      00FF5EDEH   LINE      CODE     ---       #469
      00FF5EF4H   LINE      CODE     ---       #471
      00FF5F04H   LINE      CODE     ---       #473
      00FF5F04H   LINE      CODE     ---       #475
      00FF5F1AH   LINE      CODE     ---       #476
      00FF5F30H   LINE      CODE     ---       #478
      00FF5F3CH   LINE      CODE     ---       #480
      00FF5F52H   LINE      CODE     ---       #481
      00FF5F52H   LINE      CODE     ---       #483
      00FF5F5EH   LINE      CODE     ---       #485
      00FF5F73H   LINE      CODE     ---       #486
      00FF5F73H   LINE      CODE     ---       #489
      00FF5F79H   LINE      CODE     ---       #491
      00FF5F87H   LINE      CODE     ---       #492
      00FF5F95H   LINE      CODE     ---       #493
      00FF5FA1H   LINE      CODE     ---       #495
      00FF5FAFH   LINE      CODE     ---       #496
      00FF5FAFH   LINE      CODE     ---       #497
      00FF5FBBH   LINE      CODE     ---       #499
      00FF5FC9H   LINE      CODE     ---       #500
      00FF5FC9H   LINE      CODE     ---       #503
      00FF5FD6H   LINE      CODE     ---       #505
      00FF5FD9H   LINE      CODE     ---       #507
      00FF5FF7H   LINE      CODE     ---       #509
      00FF5FF7H   LINE      CODE     ---       #510
      00FF5FFBH   LINE      CODE     ---       #511
      00FF5FFDH   LINE      CODE     ---       #513
      00FF5FFDH   LINE      CODE     ---       #514
      00FF6000H   LINE      CODE     ---       #515
      00FF6002H   LINE      CODE     ---       #517
      00FF6002H   LINE      CODE     ---       #518
      00FF6005H   LINE      CODE     ---       #519
      00FF6007H   LINE      CODE     ---       #521
      00FF6007H   LINE      CODE     ---       #522
      00FF600AH   LINE      CODE     ---       #523
      00FF600AH   LINE      CODE     ---       #524
      00FF600AH   LINE      CODE     ---       #526
      00FF600DH   LINE      CODE     ---       #527
      00FF6010H   LINE      CODE     ---       #528
      00FF6013H   LINE      CODE     ---       #531
      00FF602CH   LINE      CODE     ---       #533
L251 LINKER/LOCATER V4.66.93.0                                                        10/15/2025  21:40:28  PAGE 79


      00FF602FH   LINE      CODE     ---       #535
      00FF603FH   LINE      CODE     ---       #537
      00FF6042H   LINE      CODE     ---       #538
      00FF6044H   LINE      CODE     ---       #539
      00FF6054H   LINE      CODE     ---       #541
      00FF6057H   LINE      CODE     ---       #542
      00FF6059H   LINE      CODE     ---       #543
      00FF6069H   LINE      CODE     ---       #545
      00FF606DH   LINE      CODE     ---       #546
      00FF606FH   LINE      CODE     ---       #549
      00FF6072H   LINE      CODE     ---       #550
      00FF6072H   LINE      CODE     ---       #553
      00FF6084H   LINE      CODE     ---       #555
      00FF6084H   LINE      CODE     ---       #556
      00FF6084H   LINE      CODE     ---       #558
      00FF6084H   LINE      CODE     ---       #559
      00FF6087H   LINE      CODE     ---       #560
      00FF6089H   LINE      CODE     ---       #562
      00FF6089H   LINE      CODE     ---       #563
      00FF608CH   LINE      CODE     ---       #564
      00FF608EH   LINE      CODE     ---       #566
      00FF608EH   LINE      CODE     ---       #567
      00FF6091H   LINE      CODE     ---       #568
      00FF6091H   LINE      CODE     ---       #569
      00FF6091H   LINE      CODE     ---       #571
      00FF6094H   LINE      CODE     ---       #572
      00FF6097H   LINE      CODE     ---       #573
      00FF60A6H   LINE      CODE     ---       #582
      00FF60BEH   LINE      CODE     ---       #585
      00FF60C1H   LINE      CODE     ---       #587
      00FF60DFH   LINE      CODE     ---       #589
      00FF60DFH   LINE      CODE     ---       #590
      00FF60E3H   LINE      CODE     ---       #591
      00FF60E5H   LINE      CODE     ---       #593
      00FF60E5H   LINE      CODE     ---       #594
      00FF60E8H   LINE      CODE     ---       #595
      00FF60EAH   LINE      CODE     ---       #597
      00FF60EAH   LINE      CODE     ---       #598
      00FF60EDH   LINE      CODE     ---       #599
      00FF60EFH   LINE      CODE     ---       #601
      00FF60EFH   LINE      CODE     ---       #602
      00FF60F2H   LINE      CODE     ---       #603
      00FF60F2H   LINE      CODE     ---       #604
      00FF60F2H   LINE      CODE     ---       #606
      00FF60F5H   LINE      CODE     ---       #607
      00FF6102H   LINE      CODE     ---       #611
      00FF611BH   LINE      CODE     ---       #615
      00FF612BH   LINE      CODE     ---       #617
      00FF613BH   LINE      CODE     ---       #618
      00FF613DH   LINE      CODE     ---       #619
      00FF614DH   LINE      CODE     ---       #621
      00FF615DH   LINE      CODE     ---       #622
      00FF615FH   LINE      CODE     ---       #623
      00FF616FH   LINE      CODE     ---       #625
      00FF617DH   LINE      CODE     ---       #626
      00FF617FH   LINE      CODE     ---       #629
      00FF618FH   LINE      CODE     ---       #630
      00FF618FH   LINE      CODE     ---       #634
      00FF61A7H   LINE      CODE     ---       #636
      00FF61A7H   LINE      CODE     ---       #637
      00FF61B5H   LINE      CODE     ---       #638
      00FF61B7H   LINE      CODE     ---       #640
      00FF61B7H   LINE      CODE     ---       #641
      00FF61C7H   LINE      CODE     ---       #642
      00FF61C9H   LINE      CODE     ---       #644
L251 LINKER/LOCATER V4.66.93.0                                                        10/15/2025  21:40:28  PAGE 80


      00FF61C9H   LINE      CODE     ---       #645
      00FF61D9H   LINE      CODE     ---       #646
      00FF61DBH   LINE      CODE     ---       #648
      00FF61DBH   LINE      CODE     ---       #649
      00FF61EBH   LINE      CODE     ---       #650
      00FF61EBH   LINE      CODE     ---       #651
      00FF61EBH   LINE      CODE     ---       #653
      00FF61FBH   LINE      CODE     ---       #654
      00FF61FEH   LINE      CODE     ---       #655
      00FF620DH   LINE      CODE     ---       #664
      00FF6227H   LINE      CODE     ---       #666
      00FF622AH   LINE      CODE     ---       #668
      00FF6248H   LINE      CODE     ---       #670
      00FF6248H   LINE      CODE     ---       #671
      00FF624CH   LINE      CODE     ---       #672
      00FF624EH   LINE      CODE     ---       #674
      00FF624EH   LINE      CODE     ---       #675
      00FF6251H   LINE      CODE     ---       #676
      00FF6253H   LINE      CODE     ---       #678
      00FF6253H   LINE      CODE     ---       #679
      00FF6256H   LINE      CODE     ---       #680
      00FF6258H   LINE      CODE     ---       #682
      00FF6258H   LINE      CODE     ---       #683
      00FF625BH   LINE      CODE     ---       #684
      00FF625BH   LINE      CODE     ---       #685
      00FF625BH   LINE      CODE     ---       #687
      00FF625EH   LINE      CODE     ---       #688
      00FF626BH   LINE      CODE     ---       #692
      00FF6284H   LINE      CODE     ---       #694
      00FF6294H   LINE      CODE     ---       #696
      00FF62A4H   LINE      CODE     ---       #697
      00FF62A6H   LINE      CODE     ---       #698
      00FF62B6H   LINE      CODE     ---       #700
      00FF62C6H   LINE      CODE     ---       #701
      00FF62C8H   LINE      CODE     ---       #702
      00FF62D8H   LINE      CODE     ---       #704
      00FF62E6H   LINE      CODE     ---       #705
      00FF62E8H   LINE      CODE     ---       #708
      00FF62F8H   LINE      CODE     ---       #709
      00FF62F8H   LINE      CODE     ---       #713
      00FF6310H   LINE      CODE     ---       #715
      00FF6310H   LINE      CODE     ---       #716
      00FF631EH   LINE      CODE     ---       #717
      00FF6320H   LINE      CODE     ---       #719
      00FF6320H   LINE      CODE     ---       #720
      00FF6330H   LINE      CODE     ---       #721
      00FF6332H   LINE      CODE     ---       #723
      00FF6332H   LINE      CODE     ---       #724
      00FF6342H   LINE      CODE     ---       #725
      00FF6344H   LINE      CODE     ---       #727
      00FF6344H   LINE      CODE     ---       #728
      00FF6354H   LINE      CODE     ---       #729
      00FF6354H   LINE      CODE     ---       #730
      00FF6354H   LINE      CODE     ---       #732
      00FF6364H   LINE      CODE     ---       #733
      ---         BLOCKEND  ---      ---       LVL=0

      ---         MODULE    ---      ---       zf_driver_timer
      00FFAFC0H   PUBLIC    CODE     ---       timer_funciton_check
      000000D0H   SFRSYM    DATA     BYTE      PSW
      0000009DH   SFRSYM    DATA     BYTE      IRCBAND
      00000097H   SFRSYM    DATA     BYTE      AUXR2
      000000EFH   SFRSYM    DATA     BYTE      AUXINTIF
      000000FDH   SFRSYM    DATA     BYTE      S4CON
      000000ACH   SFRSYM    DATA     BYTE      S3CON
L251 LINKER/LOCATER V4.66.93.0                                                        10/15/2025  21:40:28  PAGE 81


      0000009AH   SFRSYM    DATA     BYTE      S2CON
      000000B7H   SFRSYM    DATA     BYTE      IPH
      000000CDH   SFRSYM    DATA     BYTE      SPSTAT
      000000DDH   SFRSYM    DATA     BYTE      T4T3M
      000000C1H   SFRSYM    DATA     BYTE      WDT_CONTR
      000000DFH   SFRSYM    DATA     BYTE      IP3
      000000F4H   SFRSYM    DATA     BYTE      USBCON
      000000B5H   SFRSYM    DATA     BYTE      IP2
      000000FFH   SFRSYM    DATA     BYTE      RSTCFG
      000000C7H   SFRSYM    DATA     BYTE      IAP_CONTR
      0000008EH   SFRSYM    DATA     BYTE      AUXR
      000000AFH   SFRSYM    DATA     BYTE      IE2
      00000088H   SFRSYM    DATA     BYTE      TCON
      00000089H   SFRSYM    DATA     BYTE      TMOD
      00000098H   SFRSYM    DATA     BYTE      SCON
      00000087H   SFRSYM    DATA     BYTE      PCON
      000000BCH   SFRSYM    DATA     BYTE      ADC_CONTR
      000000D1H   SFRSYM    DATA     BYTE      PSW1
      000000E7H   SFRSYM    DATA     BYTE      CMPCR2
      000000E6H   SFRSYM    DATA     BYTE      CMPCR1
      000000DEH   SFRSYM    DATA     BYTE      ADCCFG
      000000B8H   SFRSYM    DATA     BYTE      IP
      0000008FH   SFRSYM    DATA     BYTE      INTCLKO
      000000EEH   SFRSYM    DATA     BYTE      IP3H
      000000B6H   SFRSYM    DATA     BYTE      IP2H
      000000BFH   SFRSYM    DATA     BYTE      P_SW4
      000000A8H   SFRSYM    DATA     BYTE      IE
      000000BBH   SFRSYM    DATA     BYTE      P_SW3
      000000BAH   SFRSYM    DATA     BYTE      P_SW2
      000000A2H   SFRSYM    DATA     BYTE      P_SW1
      000000CEH   SFRSYM    DATA     BYTE      SPCTL
      000000F8H   SFRSYM    DATA     BYTE      P7
      000000E8H   SFRSYM    DATA     BYTE      P6
      000000C8H   SFRSYM    DATA     BYTE      P5
      000000C0H   SFRSYM    DATA     BYTE      P4
      000000ABH   SFRSYM    DATA     BYTE      WKTCH
      000000B0H   SFRSYM    DATA     BYTE      P3
      000000A0H   SFRSYM    DATA     BYTE      P2
      00000090H   SFRSYM    DATA     BYTE      P1
      00000080H   SFRSYM    DATA     BYTE      P0
      00011285H   SYMBOL    XDATA    ---       timer_function_state

      00FFAFC0H   BLOCK     CODE     ---       LVL=0
      WR2         REGSYM    ---      INT       index
      WR0         REGSYM    ---      INT       mode
      00FFAFC4H   BLOCK     CODE     NEAR LAB  LVL=1
      R10         REGSYM    ---      BYTE      return_state
      ---         BLOCKEND  ---      ---       LVL=1
      00FFAFC0H   LINE      CODE     ---       #58
      00FFAFC4H   LINE      CODE     ---       #59
      00FFAFC4H   LINE      CODE     ---       #60
      00FFAFC7H   LINE      CODE     ---       #61
      00FFAFDCH   LINE      CODE     ---       #63
      00FFAFEDH   LINE      CODE     ---       #64
      00FFAFEFH   LINE      CODE     ---       #65
      00FFB002H   LINE      CODE     ---       #67
      00FFB005H   LINE      CODE     ---       #68
      00FFB007H   LINE      CODE     ---       #71
      00FFB009H   LINE      CODE     ---       #72
      00FFB009H   LINE      CODE     ---       #73
      00FFB00BH   LINE      CODE     ---       #74
      ---         BLOCKEND  ---      ---       LVL=0

      ---         MODULE    ---      ---       zf_driver_uart
      00FFA47BH   PUBLIC    CODE     ---       uart_rx_start_buff
L251 LINKER/LOCATER V4.66.93.0                                                        10/15/2025  21:40:28  PAGE 82


      00FF9096H   PUBLIC    CODE     ---       uart_write_buffer
      00FF7630H   PUBLIC    CODE     ---       uart_init
      00FFB0EBH   PUBLIC    CODE     ---       uart_rx_interrupt
      00FFB5F1H   PUBLIC    CODE     ---       uart_write_byte
      00FF8602H   PUBLIC    CODE     ---       uart_dma_init
      00FFB00CH   PUBLIC    CODE     ---       uart_funciton_check
      00FFADABH   PUBLIC    CODE     ---       uart_query_byte
      00011299H   PUBLIC    XDATA    ---       uart_rx_buff
      00011006H   PUBLIC    XDATA    BYTE      ?uart_init?BYTE
      000000D0H   SFRSYM    DATA     BYTE      PSW
      0000009DH   SFRSYM    DATA     BYTE      IRCBAND
      00000097H   SFRSYM    DATA     BYTE      AUXR2
      000000EFH   SFRSYM    DATA     BYTE      AUXINTIF
      000000FDH   SFRSYM    DATA     BYTE      S4CON
      000000ACH   SFRSYM    DATA     BYTE      S3CON
      0000009AH   SFRSYM    DATA     BYTE      S2CON
      000000B7H   SFRSYM    DATA     BYTE      IPH
      000000CDH   SFRSYM    DATA     BYTE      SPSTAT
      000000DDH   SFRSYM    DATA     BYTE      T4T3M
      000000C1H   SFRSYM    DATA     BYTE      WDT_CONTR
      00000088H.6 SFRSYM    DATA     BIT       TR1
      000000D7H   SFRSYM    DATA     BYTE      T2L
      000000D6H   SFRSYM    DATA     BYTE      T2H
      000000DFH   SFRSYM    DATA     BYTE      IP3
      000000F4H   SFRSYM    DATA     BYTE      USBCON
      000000B5H   SFRSYM    DATA     BYTE      IP2
      000000FFH   SFRSYM    DATA     BYTE      RSTCFG
      000000C7H   SFRSYM    DATA     BYTE      IAP_CONTR
      0000008EH   SFRSYM    DATA     BYTE      AUXR
      000000AFH   SFRSYM    DATA     BYTE      IE2
      00000088H   SFRSYM    DATA     BYTE      TCON
      00000089H   SFRSYM    DATA     BYTE      TMOD
      00000098H   SFRSYM    DATA     BYTE      SCON
      00000087H   SFRSYM    DATA     BYTE      PCON
      000000BCH   SFRSYM    DATA     BYTE      ADC_CONTR
      000000D1H   SFRSYM    DATA     BYTE      PSW1
      000000E7H   SFRSYM    DATA     BYTE      CMPCR2
      000000E6H   SFRSYM    DATA     BYTE      CMPCR1
      000000DEH   SFRSYM    DATA     BYTE      ADCCFG
      000000B8H   SFRSYM    DATA     BYTE      IP
      0000008FH   SFRSYM    DATA     BYTE      INTCLKO
      000000EEH   SFRSYM    DATA     BYTE      IP3H
      000000B6H   SFRSYM    DATA     BYTE      IP2H
      000000BFH   SFRSYM    DATA     BYTE      P_SW4
      000000A8H   SFRSYM    DATA     BYTE      IE
      000000BBH   SFRSYM    DATA     BYTE      P_SW3
      000000BAH   SFRSYM    DATA     BYTE      P_SW2
      000000A2H   SFRSYM    DATA     BYTE      P_SW1
      000000CEH   SFRSYM    DATA     BYTE      SPCTL
      000000F8H   SFRSYM    DATA     BYTE      P7
      000000E8H   SFRSYM    DATA     BYTE      P6
      000000C8H   SFRSYM    DATA     BYTE      P5
      000000C0H   SFRSYM    DATA     BYTE      P4
      000000ABH   SFRSYM    DATA     BYTE      WKTCH
      000000B0H   SFRSYM    DATA     BYTE      P3
      000000A0H   SFRSYM    DATA     BYTE      P2
      00000090H   SFRSYM    DATA     BYTE      P1
      00000080H   SFRSYM    DATA     BYTE      P0
      00011291H   SYMBOL    XDATA    ---       uart_function_state

      00FFB00CH   BLOCK     CODE     ---       LVL=0
      WR2         REGSYM    ---      INT       index
      WR0         REGSYM    ---      INT       mode
      00FFB010H   BLOCK     CODE     NEAR LAB  LVL=1
      R10         REGSYM    ---      BYTE      return_state
L251 LINKER/LOCATER V4.66.93.0                                                        10/15/2025  21:40:28  PAGE 83


      ---         BLOCKEND  ---      ---       LVL=1
      00FFB00CH   LINE      CODE     ---       #83
      00FFB010H   LINE      CODE     ---       #84
      00FFB010H   LINE      CODE     ---       #85
      00FFB013H   LINE      CODE     ---       #86
      00FFB028H   LINE      CODE     ---       #88
      00FFB039H   LINE      CODE     ---       #89
      00FFB03BH   LINE      CODE     ---       #90
      00FFB04EH   LINE      CODE     ---       #92
      00FFB051H   LINE      CODE     ---       #93
      00FFB053H   LINE      CODE     ---       #96
      00FFB055H   LINE      CODE     ---       #97
      00FFB055H   LINE      CODE     ---       #98
      00FFB057H   LINE      CODE     ---       #99
      ---         BLOCKEND  ---      ---       LVL=0

      00FF9096H   BLOCK     CODE     ---       LVL=0
      WR0         REGSYM    ---      INT       uart_n
      REG=7       REGSYM    ---      ---       buff
      WR8         REGSYM    ---      WORD      len
      00FF9096H   LINE      CODE     ---       #108
      00FF909CH   LINE      CODE     ---       #112
      00FF90B6H   LINE      CODE     ---       #113
      00FF90B8H   LINE      CODE     ---       #114
      00FF90D2H   LINE      CODE     ---       #115
      00FF90EBH   LINE      CODE     ---       #116
      00FF910BH   LINE      CODE     ---       #117
      00FF9127H   LINE      CODE     ---       #118
      00FF9142H   LINE      CODE     ---       #120
      00FF915DH   LINE      CODE     ---       #122
      00FF9177H   LINE      CODE     ---       #124
      ---         BLOCKEND  ---      ---       LVL=0
      REG=3       REGSYM    ---      ---       str

      00FFB5F1H   BLOCK     CODE     ---       LVL=0
      WR6         REGSYM    ---      INT       uart_n
      00011081H   SYMBOL    XDATA    BYTE      dat
      00FFB5F1H   LINE      CODE     ---       #154
      00FFB5F5H   LINE      CODE     ---       #156
      00FFB604H   LINE      CODE     ---       #157
      ---         BLOCKEND  ---      ---       LVL=0

      00FFA47BH   BLOCK     CODE     ---       LVL=0
      WR8         REGSYM    ---      INT       uart_n
      00FFA47BH   LINE      CODE     ---       #165
      00FFA47DH   LINE      CODE     ---       #167
      00FFA497H   LINE      CODE     ---       #168
      00FFA4ADH   LINE      CODE     ---       #169
      00FFA4CDH   LINE      CODE     ---       #170
      00FFA4EFH   LINE      CODE     ---       #171
      00FFA50AH   LINE      CODE     ---       #172
      ---         BLOCKEND  ---      ---       LVL=0

      00FFB0EBH   BLOCK     CODE     ---       LVL=0
      WR2         REGSYM    ---      INT       uart_n
      R5          REGSYM    ---      BYTE      status
      00FFB0EBH   LINE      CODE     ---       #183
      00FFB0EFH   LINE      CODE     ---       #185
      00FFB0F3H   LINE      CODE     ---       #187
      00FFB110H   LINE      CODE     ---       #188
      00FFB112H   LINE      CODE     ---       #191
      00FFB12FH   LINE      CODE     ---       #192
      00FFB12FH   LINE      CODE     ---       #193
      ---         BLOCKEND  ---      ---       LVL=0
      WR8         REGSYM    ---      INT       uart_n
L251 LINKER/LOCATER V4.66.93.0                                                        10/15/2025  21:40:28  PAGE 84


      R15         REGSYM    ---      BYTE      dat

      00FFADABH   BLOCK     CODE     ---       LVL=0
      WR2         REGSYM    ---      INT       uart_n
      REG=7       REGSYM    ---      ---       dat
      00FFADB1H   BLOCK     CODE     NEAR LAB  LVL=1
      R15         REGSYM    ---      BYTE      ret
      ---         BLOCKEND  ---      ---       LVL=1
      00FFADABH   LINE      CODE     ---       #227
      00FFADB1H   LINE      CODE     ---       #228
      00FFADB1H   LINE      CODE     ---       #229
      00FFADB3H   LINE      CODE     ---       #232
      00FFADC3H   LINE      CODE     ---       #234
      00FFADDFH   LINE      CODE     ---       #236
      00FFADE2H   LINE      CODE     ---       #238
      00FFADFFH   LINE      CODE     ---       #239
      00FFAE01H   LINE      CODE     ---       #242
      00FFAE03H   LINE      CODE     ---       #243
      00FFAE03H   LINE      CODE     ---       #246
      00FFAE08H   LINE      CODE     ---       #248
      00FFAE0AH   LINE      CODE     ---       #249
      ---         BLOCKEND  ---      ---       LVL=0

      00FF8602H   BLOCK     CODE     ---       LVL=0
      WR8         REGSYM    ---      INT       uart_n
      00FF8602H   LINE      CODE     ---       #257
      00FF8604H   LINE      CODE     ---       #259
      00FF861EH   LINE      CODE     ---       #260
      00FF8638H   LINE      CODE     ---       #261
      00FF8652H   LINE      CODE     ---       #263
      00FF866CH   LINE      CODE     ---       #264
      00FF8686H   LINE      CODE     ---       #265
      00FF86A0H   LINE      CODE     ---       #267
      00FF86BAH   LINE      CODE     ---       #268
      00FF86D0H   LINE      CODE     ---       #269
      00FF86F0H   LINE      CODE     ---       #270
      00FF8712H   LINE      CODE     ---       #271
      00FF872DH   LINE      CODE     ---       #272
      00FF8748H   LINE      CODE     ---       #274
      ---         BLOCKEND  ---      ---       LVL=0

      00FF7630H   BLOCK     CODE     ---       LVL=0
      WR12        REGSYM    ---      INT       uart_n
      0001100AH   SYMBOL    XDATA    DWORD     baud
      WR14        REGSYM    ---      INT       tx_pin
      0001100EH   SYMBOL    XDATA    INT       rx_pin
      00FF7640H   BLOCK     CODE     NEAR LAB  LVL=1
      WR6         REGSYM    ---      WORD      brt
      ---         BLOCKEND  ---      ---       LVL=1
      00FF7630H   LINE      CODE     ---       #286
      00FF7640H   LINE      CODE     ---       #287
      00FF7640H   LINE      CODE     ---       #296
      00FF7656H   LINE      CODE     ---       #303
      00FF7670H   LINE      CODE     ---       #308
      00FF769EH   LINE      CODE     ---       #311
      00FF76B0H   LINE      CODE     ---       #312
      00FF76C4H   LINE      CODE     ---       #314
      00FF76F5H   LINE      CODE     ---       #316
      00FF7715H   LINE      CODE     ---       #318
      00FF7715H   LINE      CODE     ---       #332
      00FF7718H   LINE      CODE     ---       #333
      00FF771CH   LINE      CODE     ---       #334
      00FF7722H   LINE      CODE     ---       #335
      00FF7725H   LINE      CODE     ---       #336
      00FF7727H   LINE      CODE     ---       #339
L251 LINKER/LOCATER V4.66.93.0                                                        10/15/2025  21:40:28  PAGE 85


      00FF772AH   LINE      CODE     ---       #341
      00FF773CH   LINE      CODE     ---       #343
      00FF7740H   LINE      CODE     ---       #344
      00FF7743H   LINE      CODE     ---       #345
      00FF7755H   LINE      CODE     ---       #347
      00FF7758H   LINE      CODE     ---       #348
      00FF775BH   LINE      CODE     ---       #349
      00FF776DH   LINE      CODE     ---       #351
      00FF7770H   LINE      CODE     ---       #352
      00FF7773H   LINE      CODE     ---       #353
      00FF778BH   LINE      CODE     ---       #355
      00FF778EH   LINE      CODE     ---       #356
      00FF778EH   LINE      CODE     ---       #359
      00FF7791H   LINE      CODE     ---       #362
      00FF7791H   LINE      CODE     ---       #366
      00FF7794H   LINE      CODE     ---       #367
      00FF7798H   LINE      CODE     ---       #368
      00FF779EH   LINE      CODE     ---       #369
      00FF77A1H   LINE      CODE     ---       #372
      00FF77A4H   LINE      CODE     ---       #374
      00FF77B6H   LINE      CODE     ---       #376
      00FF77BAH   LINE      CODE     ---       #377
      00FF77BDH   LINE      CODE     ---       #378
      00FF77D5H   LINE      CODE     ---       #380
      00FF77D8H   LINE      CODE     ---       #381
      00FF77D8H   LINE      CODE     ---       #385
      00FF77DBH   LINE      CODE     ---       #388
      00FF77DBH   LINE      CODE     ---       #392
      00FF77DEH   LINE      CODE     ---       #393
      00FF77E2H   LINE      CODE     ---       #394
      00FF77E8H   LINE      CODE     ---       #395
      00FF77EBH   LINE      CODE     ---       #405
      00FF77EEH   LINE      CODE     ---       #407
      00FF7800H   LINE      CODE     ---       #409
      00FF7804H   LINE      CODE     ---       #410
      00FF7806H   LINE      CODE     ---       #411
      00FF7818H   LINE      CODE     ---       #413
      00FF781BH   LINE      CODE     ---       #414
      00FF781BH   LINE      CODE     ---       #418
      00FF781DH   LINE      CODE     ---       #421
      00FF781DH   LINE      CODE     ---       #425
      00FF7820H   LINE      CODE     ---       #426
      00FF7824H   LINE      CODE     ---       #427
      00FF782AH   LINE      CODE     ---       #428
      00FF782DH   LINE      CODE     ---       #438
      00FF7830H   LINE      CODE     ---       #440
      00FF7842H   LINE      CODE     ---       #442
      00FF7846H   LINE      CODE     ---       #443
      00FF7848H   LINE      CODE     ---       #444
      00FF785AH   LINE      CODE     ---       #448
      00FF785DH   LINE      CODE     ---       #449
      00FF785DH   LINE      CODE     ---       #453
      00FF785DH   LINE      CODE     ---       #456
      00FF785DH   LINE      CODE     ---       #459
      00FF7862H   LINE      CODE     ---       #461
      ---         BLOCKEND  ---      ---       LVL=0

      ---         MODULE    ---      ---       zf_device_config
      00FF021EH   PUBLIC    CODE     ---       imu660ra_config_file

      ---         MODULE    ---      ---       zf_device_type
      000112C6H   PUBLIC    XDATA    ---       tof_module_exti_handler
      000112C8H   PUBLIC    XDATA    INT       wireless_type
      000112CAH   PUBLIC    XDATA    INT       tof_type
      000112CCH   PUBLIC    XDATA    INT       gps_type
L251 LINKER/LOCATER V4.66.93.0                                                        10/15/2025  21:40:28  PAGE 86


      000000D0H   SFRSYM    DATA     BYTE      PSW
      0000009DH   SFRSYM    DATA     BYTE      IRCBAND
      00000097H   SFRSYM    DATA     BYTE      AUXR2
      000000EFH   SFRSYM    DATA     BYTE      AUXINTIF
      000000FDH   SFRSYM    DATA     BYTE      S4CON
      000000ACH   SFRSYM    DATA     BYTE      S3CON
      0000009AH   SFRSYM    DATA     BYTE      S2CON
      000000B7H   SFRSYM    DATA     BYTE      IPH
      000000CDH   SFRSYM    DATA     BYTE      SPSTAT
      000000DDH   SFRSYM    DATA     BYTE      T4T3M
      000000C1H   SFRSYM    DATA     BYTE      WDT_CONTR
      000000DFH   SFRSYM    DATA     BYTE      IP3
      000000F4H   SFRSYM    DATA     BYTE      USBCON
      000000B5H   SFRSYM    DATA     BYTE      IP2
      000000FFH   SFRSYM    DATA     BYTE      RSTCFG
      000000C7H   SFRSYM    DATA     BYTE      IAP_CONTR
      0000008EH   SFRSYM    DATA     BYTE      AUXR
      000000AFH   SFRSYM    DATA     BYTE      IE2
      00000088H   SFRSYM    DATA     BYTE      TCON
      00000089H   SFRSYM    DATA     BYTE      TMOD
      00000098H   SFRSYM    DATA     BYTE      SCON
      00000087H   SFRSYM    DATA     BYTE      PCON
      000000BCH   SFRSYM    DATA     BYTE      ADC_CONTR
      000000D1H   SFRSYM    DATA     BYTE      PSW1
      000000E7H   SFRSYM    DATA     BYTE      CMPCR2
      000000E6H   SFRSYM    DATA     BYTE      CMPCR1
      000000DEH   SFRSYM    DATA     BYTE      ADCCFG
      000000B8H   SFRSYM    DATA     BYTE      IP
      0000008FH   SFRSYM    DATA     BYTE      INTCLKO
      000000EEH   SFRSYM    DATA     BYTE      IP3H
      000000B6H   SFRSYM    DATA     BYTE      IP2H
      000000BFH   SFRSYM    DATA     BYTE      P_SW4
      000000A8H   SFRSYM    DATA     BYTE      IE
      000000BBH   SFRSYM    DATA     BYTE      P_SW3
      000000BAH   SFRSYM    DATA     BYTE      P_SW2
      000000A2H   SFRSYM    DATA     BYTE      P_SW1
      000000CEH   SFRSYM    DATA     BYTE      SPCTL
      000000F8H   SFRSYM    DATA     BYTE      P7
      000000E8H   SFRSYM    DATA     BYTE      P6
      000000C8H   SFRSYM    DATA     BYTE      P5
      000000C0H   SFRSYM    DATA     BYTE      P4
      000000ABH   SFRSYM    DATA     BYTE      WKTCH
      000000B0H   SFRSYM    DATA     BYTE      P3
      000000A0H   SFRSYM    DATA     BYTE      P2
      00000090H   SFRSYM    DATA     BYTE      P1
      00000080H   SFRSYM    DATA     BYTE      P0
      WR6         REGSYM    ---      INT       type_set
      WR4         REGSYM    ---      INT       uartx
      REG=0       REGSYM    ---      ---       uart_callback
      WR6         REGSYM    ---      INT       type_set
      REG=0       REGSYM    ---      ---       exti_callback
      WR6         REGSYM    ---      INT       type_set
      WR4         REGSYM    ---      INT       uartx
      REG=0       REGSYM    ---      ---       uart_callback

      ---         MODULE    ---      ---       zf_device_tft180
      00FF6E63H   PUBLIC    CODE     ---       tft180_init
      00FF7E35H   PUBLIC    CODE     ---       tft180_show_float
      00FF9EFDH   PUBLIC    CODE     ---       tft180_show_string
      00FF9259H   PUBLIC    CODE     ---       tft180_show_char
      00FF000EH   PUBLIC    CODE     ---       tft180_set_color
      00FF89C4H   PUBLIC    CODE     ---       tft180_show_int16
      00FFB570H   PUBLIC    CODE     ---       tft180_set_dir
      00FFACE2H   PUBLIC    CODE     ---       tft180_clear
      000112CEH   PUBLIC    XDATA    WORD      tft180_pencolor
L251 LINKER/LOCATER V4.66.93.0                                                        10/15/2025  21:40:28  PAGE 87


      000112D0H   PUBLIC    XDATA    WORD      tft180_bgcolor
      000112D2H   PUBLIC    XDATA    INT       tft180_display_dir
      000112D4H   PUBLIC    XDATA    BYTE      tft180_x_max
      000112D5H   PUBLIC    XDATA    BYTE      tft180_y_max
      00011008H   PUBLIC    XDATA    BYTE      ?tft180_show_float?BYTE
      000000D0H   SFRSYM    DATA     BYTE      PSW
      0000009DH   SFRSYM    DATA     BYTE      IRCBAND
      00000097H   SFRSYM    DATA     BYTE      AUXR2
      000000EFH   SFRSYM    DATA     BYTE      AUXINTIF
      000000FDH   SFRSYM    DATA     BYTE      S4CON
      000000ACH   SFRSYM    DATA     BYTE      S3CON
      0000009AH   SFRSYM    DATA     BYTE      S2CON
      000000B7H   SFRSYM    DATA     BYTE      IPH
      000000CDH   SFRSYM    DATA     BYTE      SPSTAT
      000000DDH   SFRSYM    DATA     BYTE      T4T3M
      000000C1H   SFRSYM    DATA     BYTE      WDT_CONTR
      000000DFH   SFRSYM    DATA     BYTE      IP3
      000000F4H   SFRSYM    DATA     BYTE      USBCON
      000000B5H   SFRSYM    DATA     BYTE      IP2
      000000FFH   SFRSYM    DATA     BYTE      RSTCFG
      000000C7H   SFRSYM    DATA     BYTE      IAP_CONTR
      0000008EH   SFRSYM    DATA     BYTE      AUXR
      000000AFH   SFRSYM    DATA     BYTE      IE2
      00000088H   SFRSYM    DATA     BYTE      TCON
      00000089H   SFRSYM    DATA     BYTE      TMOD
      00000098H   SFRSYM    DATA     BYTE      SCON
      000000A0H.2 SFRSYM    DATA     BIT       P22
      000000A0H.1 SFRSYM    DATA     BIT       P21
      000000A0H.0 SFRSYM    DATA     BIT       P20
      00000087H   SFRSYM    DATA     BYTE      PCON
      000000BCH   SFRSYM    DATA     BYTE      ADC_CONTR
      000000D1H   SFRSYM    DATA     BYTE      PSW1
      000000E7H   SFRSYM    DATA     BYTE      CMPCR2
      000000E6H   SFRSYM    DATA     BYTE      CMPCR1
      000000DEH   SFRSYM    DATA     BYTE      ADCCFG
      000000B8H   SFRSYM    DATA     BYTE      IP
      0000008FH   SFRSYM    DATA     BYTE      INTCLKO
      000000EEH   SFRSYM    DATA     BYTE      IP3H
      000000B6H   SFRSYM    DATA     BYTE      IP2H
      000000BFH   SFRSYM    DATA     BYTE      P_SW4
      000000A8H   SFRSYM    DATA     BYTE      IE
      000000BBH   SFRSYM    DATA     BYTE      P_SW3
      000000BAH   SFRSYM    DATA     BYTE      P_SW2
      000000A2H   SFRSYM    DATA     BYTE      P_SW1
      000000CEH   SFRSYM    DATA     BYTE      SPCTL
      000000F8H   SFRSYM    DATA     BYTE      P7
      000000E8H   SFRSYM    DATA     BYTE      P6
      000000C8H   SFRSYM    DATA     BYTE      P5
      000000C0H   SFRSYM    DATA     BYTE      P4
      000000ABH   SFRSYM    DATA     BYTE      WKTCH
      000000B0H   SFRSYM    DATA     BYTE      P3
      000000A0H   SFRSYM    DATA     BYTE      P2
      00000090H   SFRSYM    DATA     BYTE      P1
      00000080H   SFRSYM    DATA     BYTE      P0
      00FF8D4EH   SYMBOL    CODE     ---       tft180_set_region
      00FFB5DBH   SYMBOL    CODE     ---       tft180_write_index

      00FFB5DBH   BLOCK     CODE     ---       LVL=0
      R5          REGSYM    ---      BYTE      dat
      00FFB5DBH   LINE      CODE     ---       #80
      00FFB5DDH   LINE      CODE     ---       #82
      00FFB5DFH   LINE      CODE     ---       #83
      00FFB5E1H   LINE      CODE     ---       #84
      00FFB5E3H   LINE      CODE     ---       #85
      00FFB5EAH   LINE      CODE     ---       #86
L251 LINKER/LOCATER V4.66.93.0                                                        10/15/2025  21:40:28  PAGE 88


      00FFB5ECH   LINE      CODE     ---       #87
      00FFB5EEH   LINE      CODE     ---       #88
      00FFB5F0H   LINE      CODE     ---       #89
      ---         BLOCKEND  ---      ---       LVL=0

      00FF8D4EH   BLOCK     CODE     ---       LVL=0
      00011045H   SYMBOL    XDATA    WORD      x1
      00011047H   SYMBOL    XDATA    WORD      y1
      WR12        REGSYM    ---      WORD      x2
      WR14        REGSYM    ---      WORD      y2
      00FF8D4EH   LINE      CODE     ---       #100
      00FF8D60H   LINE      CODE     ---       #102
      00FF8D84H   LINE      CODE     ---       #103
      00FF8DA8H   LINE      CODE     ---       #104
      00FF8DC6H   LINE      CODE     ---       #105
      00FF8DE4H   LINE      CODE     ---       #107
      00FF8DFAH   LINE      CODE     ---       #109
      00FF8DFFH   LINE      CODE     ---       #110
      00FF8E0CH   LINE      CODE     ---       #111
      00FF8E15H   LINE      CODE     ---       #113
      00FF8E1AH   LINE      CODE     ---       #114
      00FF8E27H   LINE      CODE     ---       #115
      00FF8E30H   LINE      CODE     ---       #116
      00FF8E32H   LINE      CODE     ---       #119
      00FF8E37H   LINE      CODE     ---       #120
      00FF8E44H   LINE      CODE     ---       #121
      00FF8E4DH   LINE      CODE     ---       #123
      00FF8E52H   LINE      CODE     ---       #124
      00FF8E5FH   LINE      CODE     ---       #125
      00FF8E68H   LINE      CODE     ---       #126
      00FF8E68H   LINE      CODE     ---       #127
      00FF8E6DH   LINE      CODE     ---       #128
      ---         BLOCKEND  ---      ---       LVL=0

      00FFACE2H   BLOCK     CODE     ---       LVL=0
      WR14        REGSYM    ---      WORD      color
      00FFACE6H   BLOCK     CODE     NEAR LAB  LVL=1
      0001100AH   SYMBOL    XDATA    DWORD     i
      ---         BLOCKEND  ---      ---       LVL=1
      00FFACE2H   LINE      CODE     ---       #138
      00FFACE6H   LINE      CODE     ---       #139
      00FFACE6H   LINE      CODE     ---       #140
      00FFAD03H   LINE      CODE     ---       #142
      00FFAD1AH   LINE      CODE     ---       #143
      00FFAD1CH   LINE      CODE     ---       #145
      00FFAD23H   LINE      CODE     ---       #146
      00FFAD46H   LINE      CODE     ---       #147
      ---         BLOCKEND  ---      ---       LVL=0

      00FFB570H   BLOCK     CODE     ---       LVL=0
      WR6         REGSYM    ---      INT       dir
      00FFB570H   LINE      CODE     ---       #155
      00FFB570H   LINE      CODE     ---       #157
      00FFB576H   LINE      CODE     ---       #158
      00FFB57CH   LINE      CODE     ---       #160
      00FFB582H   LINE      CODE     ---       #161
      00FFB588H   LINE      CODE     ---       #162
      00FFB58AH   LINE      CODE     ---       #165
      00FFB590H   LINE      CODE     ---       #166
      00FFB596H   LINE      CODE     ---       #167
      00FFB596H   LINE      CODE     ---       #168
      ---         BLOCKEND  ---      ---       LVL=0

      00FF000EH   BLOCK     CODE     ---       LVL=0
      WR6         REGSYM    ---      WORD      pen
L251 LINKER/LOCATER V4.66.93.0                                                        10/15/2025  21:40:28  PAGE 89


      WR4         REGSYM    ---      WORD      bgcolor
      00FF000EH   LINE      CODE     ---       #177
      00FF000EH   LINE      CODE     ---       #179
      00FF0014H   LINE      CODE     ---       #180
      00FF001AH   LINE      CODE     ---       #181
      ---         BLOCKEND  ---      ---       LVL=0
      WR12        REGSYM    ---      WORD      x
      WR14        REGSYM    ---      WORD      y

      00FF9259H   BLOCK     CODE     ---       LVL=0
      WR12        REGSYM    ---      WORD      x
      WR14        REGSYM    ---      WORD      y
      00011041H   SYMBOL    XDATA    CHAR      dat
      00FF9263H   BLOCK     CODE     NEAR LAB  LVL=1
      00011042H   SYMBOL    XDATA    BYTE      i
      00011043H   SYMBOL    XDATA    BYTE      j
      00011044H   SYMBOL    XDATA    BYTE      temp
      ---         BLOCKEND  ---      ---       LVL=1
      00FF9259H   LINE      CODE     ---       #208
      00FF9263H   LINE      CODE     ---       #209
      00FF9263H   LINE      CODE     ---       #213
      00FF9281H   LINE      CODE     ---       #214
      00FF929FH   LINE      CODE     ---       #216
      00FF92A7H   LINE      CODE     ---       #218
      00FF92C2H   LINE      CODE     ---       #219
      00FF92E8H   LINE      CODE     ---       #220
      00FF92EFH   LINE      CODE     ---       #222
      00FF92F6H   LINE      CODE     ---       #223
      00FF9303H   LINE      CODE     ---       #225
      00FF930EH   LINE      CODE     ---       #226
      00FF9315H   LINE      CODE     ---       #227
      00FF9324H   LINE      CODE     ---       #228
      00FF9336H   LINE      CODE     ---       #229
      ---         BLOCKEND  ---      ---       LVL=0

      00FF9EFDH   BLOCK     CODE     ---       LVL=0
      0001103BH   SYMBOL    XDATA    WORD      x
      0001103DH   SYMBOL    XDATA    WORD      y
      REG=3       REGSYM    ---      ---       dat
      00FF9F0DH   BLOCK     CODE     NEAR LAB  LVL=1
      0001103FH   SYMBOL    XDATA    WORD      j
      ---         BLOCKEND  ---      ---       LVL=1
      00FF9EFDH   LINE      CODE     ---       #239
      00FF9F0DH   LINE      CODE     ---       #240
      00FF9F0DH   LINE      CODE     ---       #241
      00FF9F15H   LINE      CODE     ---       #243
      00FF9F39H   LINE      CODE     ---       #244
      00FF9F5DH   LINE      CODE     ---       #247
      00FF9F5FH   LINE      CODE     ---       #249
      00FF9F89H   LINE      CODE     ---       #250
      00FF9F94H   LINE      CODE     ---       #251
      00FF9FA3H   LINE      CODE     ---       #252
      ---         BLOCKEND  ---      ---       LVL=0
      WR12        REGSYM    ---      WORD      x
      WR14        REGSYM    ---      WORD      y
      WR12        REGSYM    ---      WORD      x
      WR14        REGSYM    ---      WORD      y

      00FF89C4H   BLOCK     CODE     ---       LVL=0
      WR12        REGSYM    ---      WORD      x
      WR14        REGSYM    ---      WORD      y
      0001100AH   SYMBOL    XDATA    INT       dat
      00FF89D0H   BLOCK     CODE     NEAR LAB  LVL=1
      0001100CH   SYMBOL    XDATA    ---       a
      00011011H   SYMBOL    XDATA    BYTE      i
L251 LINKER/LOCATER V4.66.93.0                                                        10/15/2025  21:40:28  PAGE 90


      ---         BLOCKEND  ---      ---       LVL=1
      00FF89C4H   LINE      CODE     ---       #326
      00FF89D0H   LINE      CODE     ---       #327
      00FF89D0H   LINE      CODE     ---       #331
      00FF89EEH   LINE      CODE     ---       #332
      00FF8A0CH   LINE      CODE     ---       #334
      00FF8A18H   LINE      CODE     ---       #336
      00FF8A21H   LINE      CODE     ---       #337
      00FF8A33H   LINE      CODE     ---       #338
      00FF8A35H   LINE      CODE     ---       #339
      00FF8A3EH   LINE      CODE     ---       #341
      00FF8A51H   LINE      CODE     ---       #342
      00FF8A6BH   LINE      CODE     ---       #343
      00FF8A85H   LINE      CODE     ---       #344
      00FF8A9FH   LINE      CODE     ---       #345
      00FF8AB2H   LINE      CODE     ---       #347
      00FF8AB7H   LINE      CODE     ---       #348
      00FF8AB9H   LINE      CODE     ---       #350
      00FF8AE5H   LINE      CODE     ---       #351
      00FF8AEBH   LINE      CODE     ---       #352
      00FF8AF4H   LINE      CODE     ---       #353
      ---         BLOCKEND  ---      ---       LVL=0
      WR12        REGSYM    ---      WORD      x
      WR14        REGSYM    ---      WORD      y
      WR12        REGSYM    ---      WORD      y
      R15         REGSYM    ---      BYTE      num
      R14         REGSYM    ---      BYTE      length

      00FF7E35H   BLOCK     CODE     ---       LVL=0
      0001100AH   SYMBOL    XDATA    WORD      x
      WR12        REGSYM    ---      WORD      y
      0001100CH   SYMBOL    XDATA    DOUBLE    dat
      R14         REGSYM    ---      BYTE      num
      R15         REGSYM    ---      BYTE      pointnum
      00FF7E43H   BLOCK     CODE     NEAR LAB  LVL=1
      00011016H   SYMBOL    XDATA    BYTE      length
      00011017H   SYMBOL    XDATA    ---       buff
      00011039H   SYMBOL    XDATA    CHAR      start
      0001103AH   SYMBOL    XDATA    CHAR      end
      R10         REGSYM    ---      CHAR      point
      ---         BLOCKEND  ---      ---       LVL=1
      00FF7E35H   LINE      CODE     ---       #437
      00FF7E43H   LINE      CODE     ---       #438
      00FF7E43H   LINE      CODE     ---       #443
      00FF7E67H   LINE      CODE     ---       #444
      00FF7E85H   LINE      CODE     ---       #446
      00FF7E8DH   LINE      CODE     ---       #447
      00FF7E95H   LINE      CODE     ---       #449
      00FF7EEFH   LINE      CODE     ---       #452
      00FF7F2CH   LINE      CODE     ---       #453
      00FF7F32H   LINE      CODE     ---       #454
      00FF7F32H   LINE      CODE     ---       #455
      00FF7F3EH   LINE      CODE     ---       #456
      00FF7F4CH   LINE      CODE     ---       #457
      00FF7F58H   LINE      CODE     ---       #458
      00FF7F5AH   LINE      CODE     ---       #460
      00FF7F70H   LINE      CODE     ---       #461
      00FF7F76H   LINE      CODE     ---       #462
      00FF7F7CH   LINE      CODE     ---       #463
      00FF7F85H   LINE      CODE     ---       #465
      00FF7FB8H   LINE      CODE     ---       #466
      00FF7FCEH   LINE      CODE     ---       #468
      00FF7FE3H   LINE      CODE     ---       #470
      00FF7FF6H   LINE      CODE     ---       #471
      ---         BLOCKEND  ---      ---       LVL=0
L251 LINKER/LOCATER V4.66.93.0                                                        10/15/2025  21:40:28  PAGE 91


      REG=3       REGSYM    ---      ---       p

      00FF6E63H   BLOCK     CODE     ---       LVL=0
      00FF6E63H   LINE      CODE     ---       #515
      00FF6E63H   LINE      CODE     ---       #520
      00FF6E9AH   LINE      CODE     ---       #528
      00FF6EA3H   LINE      CODE     ---       #529
      00FF6EB2H   LINE      CODE     ---       #531
      00FF6EB4H   LINE      CODE     ---       #532
      00FF6EBBH   LINE      CODE     ---       #534
      00FF6EBDH   LINE      CODE     ---       #535
      00FF6EC4H   LINE      CODE     ---       #537
      00FF6EC9H   LINE      CODE     ---       #538
      00FF6ED0H   LINE      CODE     ---       #540
      00FF6ED5H   LINE      CODE     ---       #541
      00FF6EDCH   LINE      CODE     ---       #542
      00FF6EE3H   LINE      CODE     ---       #543
      00FF6EEAH   LINE      CODE     ---       #545
      00FF6EEFH   LINE      CODE     ---       #546
      00FF6EF6H   LINE      CODE     ---       #547
      00FF6EFDH   LINE      CODE     ---       #548
      00FF6F04H   LINE      CODE     ---       #550
      00FF6F09H   LINE      CODE     ---       #551
      00FF6F10H   LINE      CODE     ---       #552
      00FF6F17H   LINE      CODE     ---       #553
      00FF6F1EH   LINE      CODE     ---       #554
      00FF6F25H   LINE      CODE     ---       #555
      00FF6F2CH   LINE      CODE     ---       #556
      00FF6F33H   LINE      CODE     ---       #558
      00FF6F38H   LINE      CODE     ---       #559
      00FF6F3FH   LINE      CODE     ---       #561
      00FF6F44H   LINE      CODE     ---       #562
      00FF6F4BH   LINE      CODE     ---       #563
      00FF6F52H   LINE      CODE     ---       #564
      00FF6F59H   LINE      CODE     ---       #565
      00FF6F5EH   LINE      CODE     ---       #566
      00FF6F65H   LINE      CODE     ---       #568
      00FF6F6AH   LINE      CODE     ---       #569
      00FF6F71H   LINE      CODE     ---       #570
      00FF6F77H   LINE      CODE     ---       #572
      00FF6F7CH   LINE      CODE     ---       #573
      00FF6F83H   LINE      CODE     ---       #574
      00FF6F8AH   LINE      CODE     ---       #575
      00FF6F8FH   LINE      CODE     ---       #576
      00FF6F96H   LINE      CODE     ---       #577
      00FF6F9DH   LINE      CODE     ---       #579
      00FF6FA2H   LINE      CODE     ---       #580
      00FF6FA9H   LINE      CODE     ---       #582
      00FF6FAEH   LINE      CODE     ---       #583
      00FF6FC6H   LINE      CODE     ---       #585
      00FF6FCFH   LINE      CODE     ---       #586
      00FF6FD7H   LINE      CODE     ---       #587
      00FF6FE0H   LINE      CODE     ---       #588
      00FF6FE7H   LINE      CODE     ---       #589
      00FF6FE7H   LINE      CODE     ---       #591
      00FF6FECH   LINE      CODE     ---       #592
      00FF6FF3H   LINE      CODE     ---       #593
      00FF6FFAH   LINE      CODE     ---       #594
      00FF7001H   LINE      CODE     ---       #595
      00FF7008H   LINE      CODE     ---       #596
      00FF700FH   LINE      CODE     ---       #597
      00FF7016H   LINE      CODE     ---       #598
      00FF701DH   LINE      CODE     ---       #599
      00FF7024H   LINE      CODE     ---       #600
      00FF702BH   LINE      CODE     ---       #601
L251 LINKER/LOCATER V4.66.93.0                                                        10/15/2025  21:40:28  PAGE 92


      00FF7032H   LINE      CODE     ---       #602
      00FF7039H   LINE      CODE     ---       #603
      00FF7040H   LINE      CODE     ---       #604
      00FF7046H   LINE      CODE     ---       #605
      00FF704DH   LINE      CODE     ---       #606
      00FF7054H   LINE      CODE     ---       #607
      00FF705BH   LINE      CODE     ---       #609
      00FF7060H   LINE      CODE     ---       #610
      00FF7067H   LINE      CODE     ---       #611
      00FF706EH   LINE      CODE     ---       #612
      00FF7075H   LINE      CODE     ---       #613
      00FF707CH   LINE      CODE     ---       #614
      00FF7083H   LINE      CODE     ---       #615
      00FF708AH   LINE      CODE     ---       #616
      00FF7091H   LINE      CODE     ---       #617
      00FF7098H   LINE      CODE     ---       #618
      00FF709FH   LINE      CODE     ---       #619
      00FF70A6H   LINE      CODE     ---       #620
      00FF70ADH   LINE      CODE     ---       #621
      00FF70B4H   LINE      CODE     ---       #622
      00FF70BAH   LINE      CODE     ---       #623
      00FF70C1H   LINE      CODE     ---       #624
      00FF70C8H   LINE      CODE     ---       #625
      00FF70CFH   LINE      CODE     ---       #627
      00FF70D4H   LINE      CODE     ---       #628
      00FF70DAH   LINE      CODE     ---       #629
      00FF70E1H   LINE      CODE     ---       #630
      00FF70E7H   LINE      CODE     ---       #631
      00FF70EEH   LINE      CODE     ---       #633
      00FF70F3H   LINE      CODE     ---       #634
      00FF70F9H   LINE      CODE     ---       #635
      00FF7100H   LINE      CODE     ---       #636
      00FF7106H   LINE      CODE     ---       #637
      00FF710DH   LINE      CODE     ---       #639
      00FF7112H   LINE      CODE     ---       #640
      00FF7119H   LINE      CODE     ---       #641
      00FF711EH   LINE      CODE     ---       #642
      00FF7124H   LINE      CODE     ---       #644
      00FF7129H   LINE      CODE     ---       #645
      00FF7130H   LINE      CODE     ---       #646
      00FF7135H   LINE      CODE     ---       #648
      00FF713EH   LINE      CODE     ---       #649
      ---         BLOCKEND  ---      ---       LVL=0

      ---         MODULE    ---      ---       zf_device_ips114
      000112D6H   PUBLIC    XDATA    WORD      ips114_pencolor
      000112D8H   PUBLIC    XDATA    WORD      ips114_bgcolor
      000112DAH   PUBLIC    XDATA    INT       ips114_display_dir
      000112DCH   PUBLIC    XDATA    BYTE      ips114_x_max
      000112DDH   PUBLIC    XDATA    BYTE      ips114_y_max
      000000D0H   SFRSYM    DATA     BYTE      PSW
      0000009DH   SFRSYM    DATA     BYTE      IRCBAND
      00000097H   SFRSYM    DATA     BYTE      AUXR2
      000000EFH   SFRSYM    DATA     BYTE      AUXINTIF
      000000FDH   SFRSYM    DATA     BYTE      S4CON
      000000ACH   SFRSYM    DATA     BYTE      S3CON
      0000009AH   SFRSYM    DATA     BYTE      S2CON
      000000B7H   SFRSYM    DATA     BYTE      IPH
      000000CDH   SFRSYM    DATA     BYTE      SPSTAT
      000000DDH   SFRSYM    DATA     BYTE      T4T3M
      000000C1H   SFRSYM    DATA     BYTE      WDT_CONTR
      000000DFH   SFRSYM    DATA     BYTE      IP3
      000000F4H   SFRSYM    DATA     BYTE      USBCON
      000000B5H   SFRSYM    DATA     BYTE      IP2
      000000FFH   SFRSYM    DATA     BYTE      RSTCFG
L251 LINKER/LOCATER V4.66.93.0                                                        10/15/2025  21:40:28  PAGE 93


      000000C7H   SFRSYM    DATA     BYTE      IAP_CONTR
      0000008EH   SFRSYM    DATA     BYTE      AUXR
      000000AFH   SFRSYM    DATA     BYTE      IE2
      00000088H   SFRSYM    DATA     BYTE      TCON
      00000089H   SFRSYM    DATA     BYTE      TMOD
      00000098H   SFRSYM    DATA     BYTE      SCON
      000000A0H.2 SFRSYM    DATA     BIT       P22
      000000A0H.1 SFRSYM    DATA     BIT       P21
      000000A0H.0 SFRSYM    DATA     BIT       P20
      00000087H   SFRSYM    DATA     BYTE      PCON
      000000BCH   SFRSYM    DATA     BYTE      ADC_CONTR
      000000D1H   SFRSYM    DATA     BYTE      PSW1
      000000E7H   SFRSYM    DATA     BYTE      CMPCR2
      000000E6H   SFRSYM    DATA     BYTE      CMPCR1
      000000DEH   SFRSYM    DATA     BYTE      ADCCFG
      000000B8H   SFRSYM    DATA     BYTE      IP
      0000008FH   SFRSYM    DATA     BYTE      INTCLKO
      000000EEH   SFRSYM    DATA     BYTE      IP3H
      000000B6H   SFRSYM    DATA     BYTE      IP2H
      000000BFH   SFRSYM    DATA     BYTE      P_SW4
      000000A8H   SFRSYM    DATA     BYTE      IE
      000000BBH   SFRSYM    DATA     BYTE      P_SW3
      000000BAH   SFRSYM    DATA     BYTE      P_SW2
      000000A2H   SFRSYM    DATA     BYTE      P_SW1
      000000CEH   SFRSYM    DATA     BYTE      SPCTL
      000000F8H   SFRSYM    DATA     BYTE      P7
      000000E8H   SFRSYM    DATA     BYTE      P6
      000000C8H   SFRSYM    DATA     BYTE      P5
      000000C0H   SFRSYM    DATA     BYTE      P4
      000000ABH   SFRSYM    DATA     BYTE      WKTCH
      000000B0H   SFRSYM    DATA     BYTE      P3
      000000A0H   SFRSYM    DATA     BYTE      P2
      00000090H   SFRSYM    DATA     BYTE      P1
      00000080H   SFRSYM    DATA     BYTE      P0
      R5          REGSYM    ---      BYTE      dat
      WR12        REGSYM    ---      WORD      x2
      WR14        REGSYM    ---      WORD      y2
      WR14        REGSYM    ---      WORD      color
      WR12        REGSYM    ---      WORD      i
      WR6         REGSYM    ---      INT       dir
      WR6         REGSYM    ---      WORD      pen
      WR4         REGSYM    ---      WORD      bgcolor
      WR12        REGSYM    ---      WORD      x
      WR14        REGSYM    ---      WORD      y
      WR12        REGSYM    ---      WORD      x
      WR14        REGSYM    ---      WORD      y
      REG=3       REGSYM    ---      ---       dat
      WR12        REGSYM    ---      WORD      x
      WR14        REGSYM    ---      WORD      y
      WR12        REGSYM    ---      WORD      x
      WR14        REGSYM    ---      WORD      y
      WR12        REGSYM    ---      WORD      x
      WR14        REGSYM    ---      WORD      y
      WR12        REGSYM    ---      WORD      x
      WR14        REGSYM    ---      WORD      y
      WR12        REGSYM    ---      WORD      y
      R15         REGSYM    ---      BYTE      num
      R14         REGSYM    ---      BYTE      length
      WR12        REGSYM    ---      WORD      y
      R14         REGSYM    ---      BYTE      num
      R15         REGSYM    ---      BYTE      pointnum
      R10         REGSYM    ---      CHAR      point
      REG=3       REGSYM    ---      ---       p
      REG=3       REGSYM    ---      ---       p

L251 LINKER/LOCATER V4.66.93.0                                                        10/15/2025  21:40:28  PAGE 94


      ---         MODULE    ---      ---       zf_device_ips200
      000112B4H   PUBLIC    XDATA    WORD      ips200_pencolor
      000112B6H   PUBLIC    XDATA    WORD      ips200_bgcolor
      000112B8H   PUBLIC    XDATA    INT       ips200_display_dir
      000112BAH   PUBLIC    XDATA    WORD      ips200_x_max
      000112BCH   PUBLIC    XDATA    WORD      ips200_y_max
      000000D0H   SFRSYM    DATA     BYTE      PSW
      0000009DH   SFRSYM    DATA     BYTE      IRCBAND
      00000097H   SFRSYM    DATA     BYTE      AUXR2
      000000EFH   SFRSYM    DATA     BYTE      AUXINTIF
      000000FDH   SFRSYM    DATA     BYTE      S4CON
      000000ACH   SFRSYM    DATA     BYTE      S3CON
      0000009AH   SFRSYM    DATA     BYTE      S2CON
      000000B7H   SFRSYM    DATA     BYTE      IPH
      000000CDH   SFRSYM    DATA     BYTE      SPSTAT
      000000DDH   SFRSYM    DATA     BYTE      T4T3M
      000000C1H   SFRSYM    DATA     BYTE      WDT_CONTR
      000000DFH   SFRSYM    DATA     BYTE      IP3
      000000F4H   SFRSYM    DATA     BYTE      USBCON
      000000B5H   SFRSYM    DATA     BYTE      IP2
      000000FFH   SFRSYM    DATA     BYTE      RSTCFG
      000000C7H   SFRSYM    DATA     BYTE      IAP_CONTR
      0000008EH   SFRSYM    DATA     BYTE      AUXR
      000000AFH   SFRSYM    DATA     BYTE      IE2
      00000088H   SFRSYM    DATA     BYTE      TCON
      00000089H   SFRSYM    DATA     BYTE      TMOD
      00000098H   SFRSYM    DATA     BYTE      SCON
      000000A0H.2 SFRSYM    DATA     BIT       P22
      000000A0H.1 SFRSYM    DATA     BIT       P21
      000000A0H.0 SFRSYM    DATA     BIT       P20
      00000087H   SFRSYM    DATA     BYTE      PCON
      000000BCH   SFRSYM    DATA     BYTE      ADC_CONTR
      000000D1H   SFRSYM    DATA     BYTE      PSW1
      000000E7H   SFRSYM    DATA     BYTE      CMPCR2
      000000E6H   SFRSYM    DATA     BYTE      CMPCR1
      000000DEH   SFRSYM    DATA     BYTE      ADCCFG
      000000B8H   SFRSYM    DATA     BYTE      IP
      0000008FH   SFRSYM    DATA     BYTE      INTCLKO
      000000EEH   SFRSYM    DATA     BYTE      IP3H
      000000B6H   SFRSYM    DATA     BYTE      IP2H
      000000BFH   SFRSYM    DATA     BYTE      P_SW4
      000000A8H   SFRSYM    DATA     BYTE      IE
      000000BBH   SFRSYM    DATA     BYTE      P_SW3
      000000BAH   SFRSYM    DATA     BYTE      P_SW2
      000000A2H   SFRSYM    DATA     BYTE      P_SW1
      000000CEH   SFRSYM    DATA     BYTE      SPCTL
      000000F8H   SFRSYM    DATA     BYTE      P7
      000000E8H   SFRSYM    DATA     BYTE      P6
      000000C8H   SFRSYM    DATA     BYTE      P5
      000000C0H   SFRSYM    DATA     BYTE      P4
      000000ABH   SFRSYM    DATA     BYTE      WKTCH
      000000B0H   SFRSYM    DATA     BYTE      P3
      000000A0H   SFRSYM    DATA     BYTE      P2
      00000090H   SFRSYM    DATA     BYTE      P1
      00000080H   SFRSYM    DATA     BYTE      P0
      R5          REGSYM    ---      BYTE      dat
      WR12        REGSYM    ---      WORD      x2
      WR14        REGSYM    ---      WORD      y2
      WR14        REGSYM    ---      WORD      color
      WR12        REGSYM    ---      WORD      i
      WR6         REGSYM    ---      INT       dir
      WR6         REGSYM    ---      WORD      pen
      WR4         REGSYM    ---      WORD      bgcolor
      WR12        REGSYM    ---      WORD      x
      WR14        REGSYM    ---      WORD      y
L251 LINKER/LOCATER V4.66.93.0                                                        10/15/2025  21:40:28  PAGE 95


      WR12        REGSYM    ---      WORD      x
      WR14        REGSYM    ---      WORD      y
      REG=3       REGSYM    ---      ---       dat
      WR12        REGSYM    ---      WORD      x
      WR14        REGSYM    ---      WORD      y
      WR12        REGSYM    ---      WORD      x
      WR14        REGSYM    ---      WORD      y
      WR12        REGSYM    ---      WORD      x
      WR14        REGSYM    ---      WORD      y
      WR12        REGSYM    ---      WORD      x
      WR14        REGSYM    ---      WORD      y
      WR12        REGSYM    ---      WORD      y
      R15         REGSYM    ---      BYTE      num
      R14         REGSYM    ---      BYTE      length
      WR12        REGSYM    ---      WORD      y
      R14         REGSYM    ---      BYTE      num
      R15         REGSYM    ---      BYTE      pointnum
      R10         REGSYM    ---      CHAR      point
      REG=3       REGSYM    ---      ---       p
      REG=3       REGSYM    ---      ---       p

      ---         MODULE    ---      ---       zf_device_dl1a
      00011274H   PUBLIC    XDATA    WORD      dl1a_distance_mm
      00011276H   PUBLIC    XDATA    BYTE      dl1a_finsh_flag
      000000D0H   SFRSYM    DATA     BYTE      PSW
      0000009DH   SFRSYM    DATA     BYTE      IRCBAND
      00000097H   SFRSYM    DATA     BYTE      AUXR2
      000000EFH   SFRSYM    DATA     BYTE      AUXINTIF
      000000FDH   SFRSYM    DATA     BYTE      S4CON
      000000ACH   SFRSYM    DATA     BYTE      S3CON
      0000009AH   SFRSYM    DATA     BYTE      S2CON
      000000B7H   SFRSYM    DATA     BYTE      IPH
      000000CDH   SFRSYM    DATA     BYTE      SPSTAT
      000000DDH   SFRSYM    DATA     BYTE      T4T3M
      000000C1H   SFRSYM    DATA     BYTE      WDT_CONTR
      000000DFH   SFRSYM    DATA     BYTE      IP3
      000000F4H   SFRSYM    DATA     BYTE      USBCON
      000000B5H   SFRSYM    DATA     BYTE      IP2
      000000FFH   SFRSYM    DATA     BYTE      RSTCFG
      000000C7H   SFRSYM    DATA     BYTE      IAP_CONTR
      0000008EH   SFRSYM    DATA     BYTE      AUXR
      000000AFH   SFRSYM    DATA     BYTE      IE2
      00000088H   SFRSYM    DATA     BYTE      TCON
      00000089H   SFRSYM    DATA     BYTE      TMOD
      00000098H   SFRSYM    DATA     BYTE      SCON
      00000087H   SFRSYM    DATA     BYTE      PCON
      000000BCH   SFRSYM    DATA     BYTE      ADC_CONTR
      000000D1H   SFRSYM    DATA     BYTE      PSW1
      000000E7H   SFRSYM    DATA     BYTE      CMPCR2
      000000E6H   SFRSYM    DATA     BYTE      CMPCR1
      000000DEH   SFRSYM    DATA     BYTE      ADCCFG
      000000B8H   SFRSYM    DATA     BYTE      IP
      0000008FH   SFRSYM    DATA     BYTE      INTCLKO
      000000EEH   SFRSYM    DATA     BYTE      IP3H
      000000B6H   SFRSYM    DATA     BYTE      IP2H
      000000BFH   SFRSYM    DATA     BYTE      P_SW4
      000000A8H   SFRSYM    DATA     BYTE      IE
      000000BBH   SFRSYM    DATA     BYTE      P_SW3
      000000BAH   SFRSYM    DATA     BYTE      P_SW2
      000000A2H   SFRSYM    DATA     BYTE      P_SW1
      000000CEH   SFRSYM    DATA     BYTE      SPCTL
      000000F8H   SFRSYM    DATA     BYTE      P7
      000000E8H   SFRSYM    DATA     BYTE      P6
      000000C8H   SFRSYM    DATA     BYTE      P5
      000000C0H   SFRSYM    DATA     BYTE      P4
L251 LINKER/LOCATER V4.66.93.0                                                        10/15/2025  21:40:28  PAGE 96


      000000ABH   SFRSYM    DATA     BYTE      WKTCH
      000000B0H   SFRSYM    DATA     BYTE      P3
      000000A0H   SFRSYM    DATA     BYTE      P2
      00000090H   SFRSYM    DATA     BYTE      P1
      00000080H   SFRSYM    DATA     BYTE      P0
      00FFCF20H   SYMBOL    HCONST   ---       ?tpl?0001
      00FFCF28H   SYMBOL    HCONST   ---       ?tpl?0002
      00FFCF2EH   SYMBOL    HCONST   ---       ?tpl?0003
      00FFCF38H   SYMBOL    HCONST   ---       ?tpl?0004
      0001126BH   SYMBOL    XDATA    ---       dl1a_iic_struct
      00011277H   SYMBOL    XDATA    BYTE      dl1a_init_flag
      REG=3       REGSYM    ---      ---       type_is_aperture
      WR30        REGSYM    ---      WORD      timeout_period_mclks
      R5          REGSYM    ---      BYTE      vcsel_period_pclks
      DR24        REGSYM    ---      DWORD     macro_period_ns
      DR28        REGSYM    ---      DWORD     timeout_period_us
      R3          REGSYM    ---      BYTE      vcsel_period_pclks
      DR8         REGSYM    ---      DWORD     macro_period_ns
      WR4         REGSYM    ---      WORD      reg_val
      WR2         REGSYM    ---      WORD      timeout_mclks
      DR8         REGSYM    ---      DWORD     ls_byte
      WR4         REGSYM    ---      WORD      ms_byte
      WR6         REGSYM    ---      WORD      return_data
      REG=3       REGSYM    ---      ---       enables
      WR14        REGSYM    ---      INT       type
      REG=3       REGSYM    ---      ---       timeouts
      R10         REGSYM    ---      BYTE      vhv_init_byte
      R15         REGSYM    ---      BYTE      return_state
      DR12        REGSYM    ---      DWORD     budget_us
      DR12        REGSYM    ---      DWORD     budget_us
      DR28        REGSYM    ---      FLOAT     limit_mcps
      WR14        REGSYM    ---      WORD      limit_mcps_16bit
      R15         REGSYM    ---      BYTE      return_state
      R14         REGSYM    ---      BYTE      reg_data_buffer
      WR12        REGSYM    ---      WORD      i

      ---         MODULE    ---      ---       zf_device_ble6a20
      000000D0H   SFRSYM    DATA     BYTE      PSW
      0000009DH   SFRSYM    DATA     BYTE      IRCBAND
      00000097H   SFRSYM    DATA     BYTE      AUXR2
      000000EFH   SFRSYM    DATA     BYTE      AUXINTIF
      000000FDH   SFRSYM    DATA     BYTE      S4CON
      000000ACH   SFRSYM    DATA     BYTE      S3CON
      0000009AH   SFRSYM    DATA     BYTE      S2CON
      000000B7H   SFRSYM    DATA     BYTE      IPH
      000000CDH   SFRSYM    DATA     BYTE      SPSTAT
      000000DDH   SFRSYM    DATA     BYTE      T4T3M
      000000C1H   SFRSYM    DATA     BYTE      WDT_CONTR
      000000DFH   SFRSYM    DATA     BYTE      IP3
      000000F4H   SFRSYM    DATA     BYTE      USBCON
      000000B5H   SFRSYM    DATA     BYTE      IP2
      000000FFH   SFRSYM    DATA     BYTE      RSTCFG
      000000C7H   SFRSYM    DATA     BYTE      IAP_CONTR
      0000008EH   SFRSYM    DATA     BYTE      AUXR
      000000AFH   SFRSYM    DATA     BYTE      IE2
      00000088H   SFRSYM    DATA     BYTE      TCON
      00000089H   SFRSYM    DATA     BYTE      TMOD
      00000098H   SFRSYM    DATA     BYTE      SCON
      00000087H   SFRSYM    DATA     BYTE      PCON
      000000BCH   SFRSYM    DATA     BYTE      ADC_CONTR
      000000D1H   SFRSYM    DATA     BYTE      PSW1
      000000E7H   SFRSYM    DATA     BYTE      CMPCR2
      000000E6H   SFRSYM    DATA     BYTE      CMPCR1
      000000DEH   SFRSYM    DATA     BYTE      ADCCFG
      000000B8H   SFRSYM    DATA     BYTE      IP
L251 LINKER/LOCATER V4.66.93.0                                                        10/15/2025  21:40:28  PAGE 97


      0000008FH   SFRSYM    DATA     BYTE      INTCLKO
      000000EEH   SFRSYM    DATA     BYTE      IP3H
      000000B6H   SFRSYM    DATA     BYTE      IP2H
      000000BFH   SFRSYM    DATA     BYTE      P_SW4
      000000A8H   SFRSYM    DATA     BYTE      IE
      000000BBH   SFRSYM    DATA     BYTE      P_SW3
      000000BAH   SFRSYM    DATA     BYTE      P_SW2
      000000A2H   SFRSYM    DATA     BYTE      P_SW1
      000000CEH   SFRSYM    DATA     BYTE      SPCTL
      000000F8H   SFRSYM    DATA     BYTE      P7
      000000E8H   SFRSYM    DATA     BYTE      P6
      000000C8H   SFRSYM    DATA     BYTE      P5
      000000C0H   SFRSYM    DATA     BYTE      P4
      000000ABH   SFRSYM    DATA     BYTE      WKTCH
      000000B0H   SFRSYM    DATA     BYTE      P3
      000000A0H   SFRSYM    DATA     BYTE      P2
      00000090H   SFRSYM    DATA     BYTE      P1
      00000080H   SFRSYM    DATA     BYTE      P0
      000110F8H   SYMBOL    XDATA    ---       ble6a20_buffer
      00011138H   SYMBOL    XDATA    ---       ble6a20_fifo
      R15         REGSYM    ---      BYTE      dat
      WR12        REGSYM    ---      WORD      time_cnt
      DR12        REGSYM    ---      DWORD     len
      REG=3       REGSYM    ---      ---       str
      REG=3       REGSYM    ---      ---       buff
      DR8         REGSYM    ---      DWORD     len
      R15         REGSYM    ---      BYTE      return_state

      ---         MODULE    ---      ---       zf_device_wireless_uart
      000000D0H   SFRSYM    DATA     BYTE      PSW
      0000009DH   SFRSYM    DATA     BYTE      IRCBAND
      00000097H   SFRSYM    DATA     BYTE      AUXR2
      000000EFH   SFRSYM    DATA     BYTE      AUXINTIF
      000000FDH   SFRSYM    DATA     BYTE      S4CON
      000000ACH   SFRSYM    DATA     BYTE      S3CON
      0000009AH   SFRSYM    DATA     BYTE      S2CON
      000000B7H   SFRSYM    DATA     BYTE      IPH
      000000CDH   SFRSYM    DATA     BYTE      SPSTAT
      000000DDH   SFRSYM    DATA     BYTE      T4T3M
      000000C1H   SFRSYM    DATA     BYTE      WDT_CONTR
      000000DFH   SFRSYM    DATA     BYTE      IP3
      000000F4H   SFRSYM    DATA     BYTE      USBCON
      000000B5H   SFRSYM    DATA     BYTE      IP2
      000000FFH   SFRSYM    DATA     BYTE      RSTCFG
      000000C7H   SFRSYM    DATA     BYTE      IAP_CONTR
      0000008EH   SFRSYM    DATA     BYTE      AUXR
      000000AFH   SFRSYM    DATA     BYTE      IE2
      00000088H   SFRSYM    DATA     BYTE      TCON
      00000089H   SFRSYM    DATA     BYTE      TMOD
      00000098H   SFRSYM    DATA     BYTE      SCON
      00000087H   SFRSYM    DATA     BYTE      PCON
      000000BCH   SFRSYM    DATA     BYTE      ADC_CONTR
      000000D1H   SFRSYM    DATA     BYTE      PSW1
      000000E7H   SFRSYM    DATA     BYTE      CMPCR2
      000000E6H   SFRSYM    DATA     BYTE      CMPCR1
      000000DEH   SFRSYM    DATA     BYTE      ADCCFG
      000000B8H   SFRSYM    DATA     BYTE      IP
      0000008FH   SFRSYM    DATA     BYTE      INTCLKO
      000000EEH   SFRSYM    DATA     BYTE      IP3H
      000000B6H   SFRSYM    DATA     BYTE      IP2H
      000000BFH   SFRSYM    DATA     BYTE      P_SW4
      000000A8H   SFRSYM    DATA     BYTE      IE
      000000BBH   SFRSYM    DATA     BYTE      P_SW3
      000000BAH   SFRSYM    DATA     BYTE      P_SW2
      000000A2H   SFRSYM    DATA     BYTE      P_SW1
L251 LINKER/LOCATER V4.66.93.0                                                        10/15/2025  21:40:28  PAGE 98


      000000CEH   SFRSYM    DATA     BYTE      SPCTL
      000000F8H   SFRSYM    DATA     BYTE      P7
      000000E8H   SFRSYM    DATA     BYTE      P6
      000000C8H   SFRSYM    DATA     BYTE      P5
      000000C0H   SFRSYM    DATA     BYTE      P4
      000000ABH   SFRSYM    DATA     BYTE      WKTCH
      000000B0H   SFRSYM    DATA     BYTE      P3
      000000A0H   SFRSYM    DATA     BYTE      P2
      00000090H   SFRSYM    DATA     BYTE      P1
      00000080H   SFRSYM    DATA     BYTE      P0
      0001114FH   SYMBOL    XDATA    ---       wireless_uart_fifo
      00011166H   SYMBOL    XDATA    ---       wireless_uart_buffer
      R15         REGSYM    ---      BYTE      dat
      WR12        REGSYM    ---      WORD      time_cnt
      DR12        REGSYM    ---      DWORD     len
      REG=3       REGSYM    ---      ---       str
      REG=3       REGSYM    ---      ---       buff
      DR8         REGSYM    ---      DWORD     len
      R15         REGSYM    ---      BYTE      return_state

      ---         MODULE    ---      ---       zf_device_icm20602
      00011243H   PUBLIC    XDATA    INT       icm20602_acc_x
      00011245H   PUBLIC    XDATA    INT       icm20602_acc_y
      00011247H   PUBLIC    XDATA    INT       icm20602_acc_z
      00011249H   PUBLIC    XDATA    INT       icm20602_gyro_x
      0001124BH   PUBLIC    XDATA    INT       icm20602_gyro_y
      0001124DH   PUBLIC    XDATA    INT       icm20602_gyro_z
      0001124FH   PUBLIC    XDATA    ---       icm20602_transition_factor
      000000D0H   SFRSYM    DATA     BYTE      PSW
      0000009DH   SFRSYM    DATA     BYTE      IRCBAND
      00000097H   SFRSYM    DATA     BYTE      AUXR2
      000000EFH   SFRSYM    DATA     BYTE      AUXINTIF
      000000FDH   SFRSYM    DATA     BYTE      S4CON
      000000ACH   SFRSYM    DATA     BYTE      S3CON
      0000009AH   SFRSYM    DATA     BYTE      S2CON
      000000B7H   SFRSYM    DATA     BYTE      IPH
      000000CDH   SFRSYM    DATA     BYTE      SPSTAT
      000000DDH   SFRSYM    DATA     BYTE      T4T3M
      000000C1H   SFRSYM    DATA     BYTE      WDT_CONTR
      000000DFH   SFRSYM    DATA     BYTE      IP3
      000000F4H   SFRSYM    DATA     BYTE      USBCON
      000000B5H   SFRSYM    DATA     BYTE      IP2
      000000FFH   SFRSYM    DATA     BYTE      RSTCFG
      000000C7H   SFRSYM    DATA     BYTE      IAP_CONTR
      0000008EH   SFRSYM    DATA     BYTE      AUXR
      000000AFH   SFRSYM    DATA     BYTE      IE2
      000000C0H.3 SFRSYM    DATA     BIT       P43
      000000C0H.2 SFRSYM    DATA     BIT       P42
      00000088H   SFRSYM    DATA     BYTE      TCON
      00000089H   SFRSYM    DATA     BYTE      TMOD
      000000C0H.1 SFRSYM    DATA     BIT       P41
      00000098H   SFRSYM    DATA     BYTE      SCON
      000000C0H.0 SFRSYM    DATA     BIT       P40
      00000087H   SFRSYM    DATA     BYTE      PCON
      000000BCH   SFRSYM    DATA     BYTE      ADC_CONTR
      000000D1H   SFRSYM    DATA     BYTE      PSW1
      000000E7H   SFRSYM    DATA     BYTE      CMPCR2
      000000E6H   SFRSYM    DATA     BYTE      CMPCR1
      000000DEH   SFRSYM    DATA     BYTE      ADCCFG
      000000B8H   SFRSYM    DATA     BYTE      IP
      0000008FH   SFRSYM    DATA     BYTE      INTCLKO
      000000EEH   SFRSYM    DATA     BYTE      IP3H
      000000B6H   SFRSYM    DATA     BYTE      IP2H
      000000BFH   SFRSYM    DATA     BYTE      P_SW4
      000000A8H   SFRSYM    DATA     BYTE      IE
L251 LINKER/LOCATER V4.66.93.0                                                        10/15/2025  21:40:28  PAGE 99


      000000BBH   SFRSYM    DATA     BYTE      P_SW3
      000000BAH   SFRSYM    DATA     BYTE      P_SW2
      000000A2H   SFRSYM    DATA     BYTE      P_SW1
      000000CEH   SFRSYM    DATA     BYTE      SPCTL
      000000F8H   SFRSYM    DATA     BYTE      P7
      000000E8H   SFRSYM    DATA     BYTE      P6
      000000C8H   SFRSYM    DATA     BYTE      P5
      000000C0H   SFRSYM    DATA     BYTE      P4
      000000ABH   SFRSYM    DATA     BYTE      WKTCH
      000000B0H   SFRSYM    DATA     BYTE      P3
      000000A0H   SFRSYM    DATA     BYTE      P2
      00000090H   SFRSYM    DATA     BYTE      P1
      00000080H   SFRSYM    DATA     BYTE      P0
      R7          REGSYM    ---      BYTE      byte
      R6          REGSYM    ---      BYTE      i
      R7          REGSYM    ---      BYTE      cmd
      R15         REGSYM    ---      BYTE      val
      R10         REGSYM    ---      BYTE      cmd
      REG=3       REGSYM    ---      ---       val
      R10         REGSYM    ---      BYTE      cmd
      REG=3       REGSYM    ---      ---       val
      R11         REGSYM    ---      BYTE      reg
      R10         REGSYM    ---      BYTE      dat
      R7          REGSYM    ---      BYTE      reg
      R3          REGSYM    ---      BYTE      reg
      REG=1       REGSYM    ---      ---       dat
      DR28        REGSYM    ---      DWORD     len
      R14         REGSYM    ---      BYTE      dat
      R15         REGSYM    ---      BYTE      return_state
      WR12        REGSYM    ---      WORD      timeout_count
      R14         REGSYM    ---      BYTE      val
      R15         REGSYM    ---      BYTE      return_state
      WR12        REGSYM    ---      WORD      timeout_count

      ---         MODULE    ---      ---       zf_device_imu660ra
      00011257H   PUBLIC    XDATA    INT       imu660ra_acc_x
      00011259H   PUBLIC    XDATA    INT       imu660ra_acc_y
      0001125BH   PUBLIC    XDATA    INT       imu660ra_acc_z
      0001125DH   PUBLIC    XDATA    INT       imu660ra_gyro_x
      0001125FH   PUBLIC    XDATA    INT       imu660ra_gyro_y
      00011261H   PUBLIC    XDATA    INT       imu660ra_gyro_z
      00011263H   PUBLIC    XDATA    ---       imu660ra_transition_factor
      000000D0H   SFRSYM    DATA     BYTE      PSW
      0000009DH   SFRSYM    DATA     BYTE      IRCBAND
      00000097H   SFRSYM    DATA     BYTE      AUXR2
      000000EFH   SFRSYM    DATA     BYTE      AUXINTIF
      000000FDH   SFRSYM    DATA     BYTE      S4CON
      000000ACH   SFRSYM    DATA     BYTE      S3CON
      0000009AH   SFRSYM    DATA     BYTE      S2CON
      000000B7H   SFRSYM    DATA     BYTE      IPH
      000000CDH   SFRSYM    DATA     BYTE      SPSTAT
      000000DDH   SFRSYM    DATA     BYTE      T4T3M
      000000C1H   SFRSYM    DATA     BYTE      WDT_CONTR
      000000DFH   SFRSYM    DATA     BYTE      IP3
      000000F4H   SFRSYM    DATA     BYTE      USBCON
      000000B5H   SFRSYM    DATA     BYTE      IP2
      000000FFH   SFRSYM    DATA     BYTE      RSTCFG
      000000C7H   SFRSYM    DATA     BYTE      IAP_CONTR
      0000008EH   SFRSYM    DATA     BYTE      AUXR
      000000AFH   SFRSYM    DATA     BYTE      IE2
      000000C0H.3 SFRSYM    DATA     BIT       P43
      000000C0H.2 SFRSYM    DATA     BIT       P42
      00000088H   SFRSYM    DATA     BYTE      TCON
      00000089H   SFRSYM    DATA     BYTE      TMOD
      000000C0H.1 SFRSYM    DATA     BIT       P41
L251 LINKER/LOCATER V4.66.93.0                                                        10/15/2025  21:40:28  PAGE 100


      00000098H   SFRSYM    DATA     BYTE      SCON
      000000C0H.0 SFRSYM    DATA     BIT       P40
      00000087H   SFRSYM    DATA     BYTE      PCON
      000000BCH   SFRSYM    DATA     BYTE      ADC_CONTR
      000000D1H   SFRSYM    DATA     BYTE      PSW1
      000000E7H   SFRSYM    DATA     BYTE      CMPCR2
      000000E6H   SFRSYM    DATA     BYTE      CMPCR1
      000000DEH   SFRSYM    DATA     BYTE      ADCCFG
      000000B8H   SFRSYM    DATA     BYTE      IP
      0000008FH   SFRSYM    DATA     BYTE      INTCLKO
      000000EEH   SFRSYM    DATA     BYTE      IP3H
      000000B6H   SFRSYM    DATA     BYTE      IP2H
      000000BFH   SFRSYM    DATA     BYTE      P_SW4
      000000A8H   SFRSYM    DATA     BYTE      IE
      000000BBH   SFRSYM    DATA     BYTE      P_SW3
      000000BAH   SFRSYM    DATA     BYTE      P_SW2
      000000A2H   SFRSYM    DATA     BYTE      P_SW1
      000000CEH   SFRSYM    DATA     BYTE      SPCTL
      000000F8H   SFRSYM    DATA     BYTE      P7
      000000E8H   SFRSYM    DATA     BYTE      P6
      000000C8H   SFRSYM    DATA     BYTE      P5
      000000C0H   SFRSYM    DATA     BYTE      P4
      000000ABH   SFRSYM    DATA     BYTE      WKTCH
      000000B0H   SFRSYM    DATA     BYTE      P3
      000000A0H   SFRSYM    DATA     BYTE      P2
      00000090H   SFRSYM    DATA     BYTE      P1
      00000080H   SFRSYM    DATA     BYTE      P0
      R7          REGSYM    ---      BYTE      byte
      R6          REGSYM    ---      BYTE      i
      R7          REGSYM    ---      BYTE      cmd
      R15         REGSYM    ---      BYTE      val
      R7          REGSYM    ---      BYTE      cmd
      DR12        REGSYM    ---      DWORD     len
      R10         REGSYM    ---      BYTE      cmd
      REG=3       REGSYM    ---      ---       val
      R11         REGSYM    ---      BYTE      reg
      R10         REGSYM    ---      BYTE      dat
      R3          REGSYM    ---      BYTE      reg
      REG=1       REGSYM    ---      ---       dat
      DR28        REGSYM    ---      DWORD     len
      R7          REGSYM    ---      BYTE      reg
      R5          REGSYM    ---      BYTE      reg
      REG=3       REGSYM    ---      ---       dat
      R14         REGSYM    ---      BYTE      dat
      R15         REGSYM    ---      BYTE      return_state
      WR12        REGSYM    ---      WORD      timeout_count
      R15         REGSYM    ---      BYTE      return_state

      ---         MODULE    ---      ---       zf_device_imu660rb
      0001129DH   PUBLIC    XDATA    INT       imu660rb_acc_x
      0001129FH   PUBLIC    XDATA    INT       imu660rb_acc_y
      000112A1H   PUBLIC    XDATA    INT       imu660rb_acc_z
      000112A3H   PUBLIC    XDATA    INT       imu660rb_gyro_x
      000112A5H   PUBLIC    XDATA    INT       imu660rb_gyro_y
      000112A7H   PUBLIC    XDATA    INT       imu660rb_gyro_z
      000000D0H   SFRSYM    DATA     BYTE      PSW
      0000009DH   SFRSYM    DATA     BYTE      IRCBAND
      00000097H   SFRSYM    DATA     BYTE      AUXR2
      000000EFH   SFRSYM    DATA     BYTE      AUXINTIF
      000000FDH   SFRSYM    DATA     BYTE      S4CON
      000000ACH   SFRSYM    DATA     BYTE      S3CON
      0000009AH   SFRSYM    DATA     BYTE      S2CON
      000000B7H   SFRSYM    DATA     BYTE      IPH
      000000CDH   SFRSYM    DATA     BYTE      SPSTAT
      000000DDH   SFRSYM    DATA     BYTE      T4T3M
L251 LINKER/LOCATER V4.66.93.0                                                        10/15/2025  21:40:28  PAGE 101


      000000C1H   SFRSYM    DATA     BYTE      WDT_CONTR
      000000DFH   SFRSYM    DATA     BYTE      IP3
      000000F4H   SFRSYM    DATA     BYTE      USBCON
      000000B5H   SFRSYM    DATA     BYTE      IP2
      000000FFH   SFRSYM    DATA     BYTE      RSTCFG
      000000C7H   SFRSYM    DATA     BYTE      IAP_CONTR
      0000008EH   SFRSYM    DATA     BYTE      AUXR
      000000AFH   SFRSYM    DATA     BYTE      IE2
      000000C0H.3 SFRSYM    DATA     BIT       P43
      000000C0H.2 SFRSYM    DATA     BIT       P42
      00000088H   SFRSYM    DATA     BYTE      TCON
      00000089H   SFRSYM    DATA     BYTE      TMOD
      000000C0H.1 SFRSYM    DATA     BIT       P41
      00000098H   SFRSYM    DATA     BYTE      SCON
      000000C0H.0 SFRSYM    DATA     BIT       P40
      00000087H   SFRSYM    DATA     BYTE      PCON
      000000BCH   SFRSYM    DATA     BYTE      ADC_CONTR
      000000D1H   SFRSYM    DATA     BYTE      PSW1
      000000E7H   SFRSYM    DATA     BYTE      CMPCR2
      000000E6H   SFRSYM    DATA     BYTE      CMPCR1
      000000DEH   SFRSYM    DATA     BYTE      ADCCFG
      000000B8H   SFRSYM    DATA     BYTE      IP
      0000008FH   SFRSYM    DATA     BYTE      INTCLKO
      000000EEH   SFRSYM    DATA     BYTE      IP3H
      000000B6H   SFRSYM    DATA     BYTE      IP2H
      000000BFH   SFRSYM    DATA     BYTE      P_SW4
      000000A8H   SFRSYM    DATA     BYTE      IE
      000000BBH   SFRSYM    DATA     BYTE      P_SW3
      000000BAH   SFRSYM    DATA     BYTE      P_SW2
      000000A2H   SFRSYM    DATA     BYTE      P_SW1
      000000CEH   SFRSYM    DATA     BYTE      SPCTL
      000000F8H   SFRSYM    DATA     BYTE      P7
      000000E8H   SFRSYM    DATA     BYTE      P6
      000000C8H   SFRSYM    DATA     BYTE      P5
      000000C0H   SFRSYM    DATA     BYTE      P4
      000000ABH   SFRSYM    DATA     BYTE      WKTCH
      000000B0H   SFRSYM    DATA     BYTE      P3
      000000A0H   SFRSYM    DATA     BYTE      P2
      00000090H   SFRSYM    DATA     BYTE      P1
      00000080H   SFRSYM    DATA     BYTE      P0
      R7          REGSYM    ---      BYTE      byte
      R6          REGSYM    ---      BYTE      i
      R7          REGSYM    ---      BYTE      cmd
      R15         REGSYM    ---      BYTE      val
      R10         REGSYM    ---      BYTE      cmd
      REG=3       REGSYM    ---      ---       val
      R10         REGSYM    ---      BYTE      cmd
      REG=3       REGSYM    ---      ---       val
      R11         REGSYM    ---      BYTE      reg
      R10         REGSYM    ---      BYTE      dat
      R7          REGSYM    ---      BYTE      reg
      R3          REGSYM    ---      BYTE      reg
      REG=1       REGSYM    ---      ---       dat
      DR28        REGSYM    ---      DWORD     len
      R14         REGSYM    ---      BYTE      dat
      R15         REGSYM    ---      BYTE      return_state
      WR12        REGSYM    ---      WORD      timeout_count
      WR30        REGSYM    ---      INT       acc_value
      DR24        REGSYM    ---      FLOAT     acc_data
      WR30        REGSYM    ---      INT       gyro_value
      DR24        REGSYM    ---      FLOAT     gyro_data
      R15         REGSYM    ---      BYTE      return_state

      ---         MODULE    ---      ---       zf_device_imu963ra
      00011225H   PUBLIC    XDATA    INT       imu963ra_acc_x
L251 LINKER/LOCATER V4.66.93.0                                                        10/15/2025  21:40:28  PAGE 102


      00011227H   PUBLIC    XDATA    INT       imu963ra_acc_y
      00011229H   PUBLIC    XDATA    INT       imu963ra_acc_z
      0001122BH   PUBLIC    XDATA    INT       imu963ra_mag_x
      0001122DH   PUBLIC    XDATA    INT       imu963ra_mag_y
      0001122FH   PUBLIC    XDATA    INT       imu963ra_mag_z
      00011231H   PUBLIC    XDATA    INT       imu963ra_gyro_x
      00011233H   PUBLIC    XDATA    INT       imu963ra_gyro_y
      00011235H   PUBLIC    XDATA    INT       imu963ra_gyro_z
      00011237H   PUBLIC    XDATA    ---       imu963ra_transition_factor
      000000D0H   SFRSYM    DATA     BYTE      PSW
      0000009DH   SFRSYM    DATA     BYTE      IRCBAND
      00000097H   SFRSYM    DATA     BYTE      AUXR2
      000000EFH   SFRSYM    DATA     BYTE      AUXINTIF
      000000FDH   SFRSYM    DATA     BYTE      S4CON
      000000ACH   SFRSYM    DATA     BYTE      S3CON
      0000009AH   SFRSYM    DATA     BYTE      S2CON
      000000B7H   SFRSYM    DATA     BYTE      IPH
      000000CDH   SFRSYM    DATA     BYTE      SPSTAT
      000000DDH   SFRSYM    DATA     BYTE      T4T3M
      000000C1H   SFRSYM    DATA     BYTE      WDT_CONTR
      000000DFH   SFRSYM    DATA     BYTE      IP3
      000000F4H   SFRSYM    DATA     BYTE      USBCON
      000000B5H   SFRSYM    DATA     BYTE      IP2
      000000FFH   SFRSYM    DATA     BYTE      RSTCFG
      000000C7H   SFRSYM    DATA     BYTE      IAP_CONTR
      0000008EH   SFRSYM    DATA     BYTE      AUXR
      000000AFH   SFRSYM    DATA     BYTE      IE2
      000000C0H.3 SFRSYM    DATA     BIT       P43
      000000C0H.2 SFRSYM    DATA     BIT       P42
      00000088H   SFRSYM    DATA     BYTE      TCON
      00000089H   SFRSYM    DATA     BYTE      TMOD
      000000C0H.1 SFRSYM    DATA     BIT       P41
      00000098H   SFRSYM    DATA     BYTE      SCON
      000000C0H.0 SFRSYM    DATA     BIT       P40
      00000087H   SFRSYM    DATA     BYTE      PCON
      000000BCH   SFRSYM    DATA     BYTE      ADC_CONTR
      000000D1H   SFRSYM    DATA     BYTE      PSW1
      000000E7H   SFRSYM    DATA     BYTE      CMPCR2
      000000E6H   SFRSYM    DATA     BYTE      CMPCR1
      000000DEH   SFRSYM    DATA     BYTE      ADCCFG
      000000B8H   SFRSYM    DATA     BYTE      IP
      0000008FH   SFRSYM    DATA     BYTE      INTCLKO
      000000EEH   SFRSYM    DATA     BYTE      IP3H
      000000B6H   SFRSYM    DATA     BYTE      IP2H
      000000BFH   SFRSYM    DATA     BYTE      P_SW4
      000000A8H   SFRSYM    DATA     BYTE      IE
      000000BBH   SFRSYM    DATA     BYTE      P_SW3
      000000BAH   SFRSYM    DATA     BYTE      P_SW2
      000000A2H   SFRSYM    DATA     BYTE      P_SW1
      000000CEH   SFRSYM    DATA     BYTE      SPCTL
      000000F8H   SFRSYM    DATA     BYTE      P7
      000000E8H   SFRSYM    DATA     BYTE      P6
      000000C8H   SFRSYM    DATA     BYTE      P5
      000000C0H   SFRSYM    DATA     BYTE      P4
      000000ABH   SFRSYM    DATA     BYTE      WKTCH
      000000B0H   SFRSYM    DATA     BYTE      P3
      000000A0H   SFRSYM    DATA     BYTE      P2
      00000090H   SFRSYM    DATA     BYTE      P1
      00000080H   SFRSYM    DATA     BYTE      P0
      R7          REGSYM    ---      BYTE      byte
      R6          REGSYM    ---      BYTE      i
      R7          REGSYM    ---      BYTE      cmd
      R15         REGSYM    ---      BYTE      val
      R10         REGSYM    ---      BYTE      cmd
      REG=3       REGSYM    ---      ---       val
L251 LINKER/LOCATER V4.66.93.0                                                        10/15/2025  21:40:28  PAGE 103


      R10         REGSYM    ---      BYTE      cmd
      REG=3       REGSYM    ---      ---       val
      R11         REGSYM    ---      BYTE      reg
      R10         REGSYM    ---      BYTE      dat
      R10         REGSYM    ---      BYTE      reg
      R3          REGSYM    ---      BYTE      reg
      REG=1       REGSYM    ---      ---       dat
      DR28        REGSYM    ---      DWORD     len
      R15         REGSYM    ---      BYTE      addr
      R13         REGSYM    ---      BYTE      reg
      R14         REGSYM    ---      BYTE      dat
      R12         REGSYM    ---      BYTE      return_state
      R10         REGSYM    ---      BYTE      addr
      R15         REGSYM    ---      BYTE      reg
      WR12        REGSYM    ---      WORD      timeout_count
      R10         REGSYM    ---      BYTE      addr
      R15         REGSYM    ---      BYTE      reg
      R15         REGSYM    ---      BYTE      return_state
      R14         REGSYM    ---      BYTE      dat
      WR12        REGSYM    ---      WORD      timeout_count
      R15         REGSYM    ---      BYTE      return_state
      R14         REGSYM    ---      BYTE      dat
      WR12        REGSYM    ---      WORD      timeout_count
      R11         REGSYM    ---      BYTE      temp_status
      R15         REGSYM    ---      BYTE      return_state

      ---         MODULE    ---      ---       zf_device_gps_tau1201
      00010C7BH   PUBLIC    XDATA    BYTE      gps_tau1201_flag
      00010CFCH   PUBLIC    XDATA    ---       gps_tau1201
      00010E30H   PUBLIC    XDATA    INT       gps_gga_state
      00010E32H   PUBLIC    XDATA    INT       gps_rmc_state
      000000D0H   SFRSYM    DATA     BYTE      PSW
      0000009DH   SFRSYM    DATA     BYTE      IRCBAND
      00000097H   SFRSYM    DATA     BYTE      AUXR2
      000000EFH   SFRSYM    DATA     BYTE      AUXINTIF
      000000FDH   SFRSYM    DATA     BYTE      S4CON
      000000ACH   SFRSYM    DATA     BYTE      S3CON
      0000009AH   SFRSYM    DATA     BYTE      S2CON
      000000B7H   SFRSYM    DATA     BYTE      IPH
      000000CDH   SFRSYM    DATA     BYTE      SPSTAT
      000000DDH   SFRSYM    DATA     BYTE      T4T3M
      000000C1H   SFRSYM    DATA     BYTE      WDT_CONTR
      000000DFH   SFRSYM    DATA     BYTE      IP3
      000000F4H   SFRSYM    DATA     BYTE      USBCON
      000000B5H   SFRSYM    DATA     BYTE      IP2
      000000FFH   SFRSYM    DATA     BYTE      RSTCFG
      000000C7H   SFRSYM    DATA     BYTE      IAP_CONTR
      0000008EH   SFRSYM    DATA     BYTE      AUXR
      000000AFH   SFRSYM    DATA     BYTE      IE2
      00000088H   SFRSYM    DATA     BYTE      TCON
      00000089H   SFRSYM    DATA     BYTE      TMOD
      00000098H   SFRSYM    DATA     BYTE      SCON
      00000087H   SFRSYM    DATA     BYTE      PCON
      000000BCH   SFRSYM    DATA     BYTE      ADC_CONTR
      000000D1H   SFRSYM    DATA     BYTE      PSW1
      000000E7H   SFRSYM    DATA     BYTE      CMPCR2
      000000E6H   SFRSYM    DATA     BYTE      CMPCR1
      000000DEH   SFRSYM    DATA     BYTE      ADCCFG
      000000B8H   SFRSYM    DATA     BYTE      IP
      0000008FH   SFRSYM    DATA     BYTE      INTCLKO
      000000EEH   SFRSYM    DATA     BYTE      IP3H
      000000B6H   SFRSYM    DATA     BYTE      IP2H
      000000BFH   SFRSYM    DATA     BYTE      P_SW4
      000000A8H   SFRSYM    DATA     BYTE      IE
      000000BBH   SFRSYM    DATA     BYTE      P_SW3
L251 LINKER/LOCATER V4.66.93.0                                                        10/15/2025  21:40:28  PAGE 104


      000000BAH   SFRSYM    DATA     BYTE      P_SW2
      000000A2H   SFRSYM    DATA     BYTE      P_SW1
      000000CEH   SFRSYM    DATA     BYTE      SPCTL
      000000F8H   SFRSYM    DATA     BYTE      P7
      000000E8H   SFRSYM    DATA     BYTE      P6
      000000C8H   SFRSYM    DATA     BYTE      P5
      000000C0H   SFRSYM    DATA     BYTE      P4
      000000ABH   SFRSYM    DATA     BYTE      WKTCH
      000000B0H   SFRSYM    DATA     BYTE      P3
      000000A0H   SFRSYM    DATA     BYTE      P2
      00000090H   SFRSYM    DATA     BYTE      P1
      00000080H   SFRSYM    DATA     BYTE      P0
      00FFD2F1H   SYMBOL    HCONST   ---       ?tpl?0001
      00FFD2F6H   SYMBOL    HCONST   ---       ?tpl?0002
      00FFD312H   SYMBOL    HCONST   ---       ?tpl?0003
      00FFD31DH   SYMBOL    HCONST   ---       ?tpl?0004
      00FFD328H   SYMBOL    HCONST   ---       ?tpl?0005
      00FFD333H   SYMBOL    HCONST   ---       ?tpl?0006
      00FFD33EH   SYMBOL    HCONST   ---       ?tpl?0007
      00FFD349H   SYMBOL    HCONST   ---       ?tpl?0008
      00FFD354H   SYMBOL    HCONST   ---       ?tpl?0009
      00FFD35FH   SYMBOL    HCONST   ---       ?tpl?000A
      00FFD36AH   SYMBOL    HCONST   ---       ?tpl?000B
      00FFD375H   SYMBOL    HCONST   ---       ?tpl?000C
      00FFD380H   SYMBOL    HCONST   ---       ?tpl?000D
      00010C64H   SYMBOL    XDATA    ---       gps_tau1201_receiver_fifo
      00010C7CH   SYMBOL    XDATA    ---       gps_gga_buffer
      00010D2FH   SYMBOL    XDATA    BYTE      gps_tau1201_state
      00010D30H   SYMBOL    XDATA    ---       gps_rmc_buffer
      00010DB0H   SYMBOL    XDATA    ---       gps_tau1201_receiver_buffer
      REG=3       REGSYM    ---      ---       str
      REG=7       REGSYM    ---      ---       temp
      R7          REGSYM    ---      BYTE      len
      R10         REGSYM    ---      BYTE      len1
      REG=3       REGSYM    ---      ---       s
      REG=3       REGSYM    ---      ---       s
      REG=3       REGSYM    ---      ---       s
      REG=7       REGSYM    ---      ---       time
      R6          REGSYM    ---      BYTE      day_num
      REG=7       REGSYM    ---      ---       line
      REG=3       REGSYM    ---      ---       gps
      REG=0       REGSYM    ---      ---       line
      R15         REGSYM    ---      BYTE      state
      DR12        REGSYM    ---      DWORD     data_len

      ---         MODULE    ---      ---       zf_device_tsl1401
      00010A62H   PUBLIC    XDATA    BYTE      tsl1401_finish_flag
      00010A63H   PUBLIC    XDATA    ---       tsl1401_data
      000000D0H   SFRSYM    DATA     BYTE      PSW
      0000009DH   SFRSYM    DATA     BYTE      IRCBAND
      00000097H   SFRSYM    DATA     BYTE      AUXR2
      000000EFH   SFRSYM    DATA     BYTE      AUXINTIF
      000000FDH   SFRSYM    DATA     BYTE      S4CON
      000000ACH   SFRSYM    DATA     BYTE      S3CON
      0000009AH   SFRSYM    DATA     BYTE      S2CON
      000000B7H   SFRSYM    DATA     BYTE      IPH
      000000CDH   SFRSYM    DATA     BYTE      SPSTAT
      000000DDH   SFRSYM    DATA     BYTE      T4T3M
      000000C1H   SFRSYM    DATA     BYTE      WDT_CONTR
      000000DFH   SFRSYM    DATA     BYTE      IP3
      000000F4H   SFRSYM    DATA     BYTE      USBCON
      000000B5H   SFRSYM    DATA     BYTE      IP2
      000000FFH   SFRSYM    DATA     BYTE      RSTCFG
      000000C7H   SFRSYM    DATA     BYTE      IAP_CONTR
      0000008EH   SFRSYM    DATA     BYTE      AUXR
L251 LINKER/LOCATER V4.66.93.0                                                        10/15/2025  21:40:28  PAGE 105


      000000AFH   SFRSYM    DATA     BYTE      IE2
      00000088H   SFRSYM    DATA     BYTE      TCON
      00000089H   SFRSYM    DATA     BYTE      TMOD
      00000098H   SFRSYM    DATA     BYTE      SCON
      00000087H   SFRSYM    DATA     BYTE      PCON
      000000BCH   SFRSYM    DATA     BYTE      ADC_CONTR
      000000D1H   SFRSYM    DATA     BYTE      PSW1
      000000E7H   SFRSYM    DATA     BYTE      CMPCR2
      000000E6H   SFRSYM    DATA     BYTE      CMPCR1
      000000DEH   SFRSYM    DATA     BYTE      ADCCFG
      000000B8H   SFRSYM    DATA     BYTE      IP
      0000008FH   SFRSYM    DATA     BYTE      INTCLKO
      000000EEH   SFRSYM    DATA     BYTE      IP3H
      000000B6H   SFRSYM    DATA     BYTE      IP2H
      000000BFH   SFRSYM    DATA     BYTE      P_SW4
      000000A8H   SFRSYM    DATA     BYTE      IE
      000000BBH   SFRSYM    DATA     BYTE      P_SW3
      000000BAH   SFRSYM    DATA     BYTE      P_SW2
      000000A2H   SFRSYM    DATA     BYTE      P_SW1
      000000CEH   SFRSYM    DATA     BYTE      SPCTL
      000000F8H   SFRSYM    DATA     BYTE      P7
      000000E8H   SFRSYM    DATA     BYTE      P6
      000000C8H   SFRSYM    DATA     BYTE      P5
      000000C0H   SFRSYM    DATA     BYTE      P4
      000000ABH   SFRSYM    DATA     BYTE      WKTCH
      000000B0H   SFRSYM    DATA     BYTE      P3
      000000A0H   SFRSYM    DATA     BYTE      P2
      00000090H   SFRSYM    DATA     BYTE      P1
      00000080H   SFRSYM    DATA     BYTE      P0
      00010C63H   SYMBOL    XDATA    BYTE      tsl1401_init_state
      R15         REGSYM    ---      BYTE      i
      WR14        REGSYM    ---      INT       uart_n
      R13         REGSYM    ---      BYTE      index
      R12         REGSYM    ---      BYTE      i

      ---         MODULE    ---      ---       seekfree_assistant
      00010E3CH   PUBLIC    XDATA    ---       seekfree_assistant_oscilloscope_data
      00010E77H   PUBLIC    XDATA    ---       seekfree_assistant_parameter_update_flag
      00010E7FH   PUBLIC    XDATA    ---       seekfree_assistant_parameter
      000000D0H   SFRSYM    DATA     BYTE      PSW
      0000009DH   SFRSYM    DATA     BYTE      IRCBAND
      00000097H   SFRSYM    DATA     BYTE      AUXR2
      000000EFH   SFRSYM    DATA     BYTE      AUXINTIF
      000000FDH   SFRSYM    DATA     BYTE      S4CON
      000000ACH   SFRSYM    DATA     BYTE      S3CON
      0000009AH   SFRSYM    DATA     BYTE      S2CON
      000000B7H   SFRSYM    DATA     BYTE      IPH
      000000CDH   SFRSYM    DATA     BYTE      SPSTAT
      000000DDH   SFRSYM    DATA     BYTE      T4T3M
      000000C1H   SFRSYM    DATA     BYTE      WDT_CONTR
      000000DFH   SFRSYM    DATA     BYTE      IP3
      000000F4H   SFRSYM    DATA     BYTE      USBCON
      000000B5H   SFRSYM    DATA     BYTE      IP2
      000000FFH   SFRSYM    DATA     BYTE      RSTCFG
      000000C7H   SFRSYM    DATA     BYTE      IAP_CONTR
      0000008EH   SFRSYM    DATA     BYTE      AUXR
      000000AFH   SFRSYM    DATA     BYTE      IE2
      00000088H   SFRSYM    DATA     BYTE      TCON
      00000089H   SFRSYM    DATA     BYTE      TMOD
      00000098H   SFRSYM    DATA     BYTE      SCON
      00000087H   SFRSYM    DATA     BYTE      PCON
      000000BCH   SFRSYM    DATA     BYTE      ADC_CONTR
      000000D1H   SFRSYM    DATA     BYTE      PSW1
      000000E7H   SFRSYM    DATA     BYTE      CMPCR2
      000000E6H   SFRSYM    DATA     BYTE      CMPCR1
L251 LINKER/LOCATER V4.66.93.0                                                        10/15/2025  21:40:28  PAGE 106


      000000DEH   SFRSYM    DATA     BYTE      ADCCFG
      000000B8H   SFRSYM    DATA     BYTE      IP
      0000008FH   SFRSYM    DATA     BYTE      INTCLKO
      000000EEH   SFRSYM    DATA     BYTE      IP3H
      000000B6H   SFRSYM    DATA     BYTE      IP2H
      000000BFH   SFRSYM    DATA     BYTE      P_SW4
      000000A8H   SFRSYM    DATA     BYTE      IE
      000000BBH   SFRSYM    DATA     BYTE      P_SW3
      000000BAH   SFRSYM    DATA     BYTE      P_SW2
      000000A2H   SFRSYM    DATA     BYTE      P_SW1
      000000CEH   SFRSYM    DATA     BYTE      SPCTL
      000000F8H   SFRSYM    DATA     BYTE      P7
      000000A8H.7 SFRSYM    DATA     BIT       EA
      000000E8H   SFRSYM    DATA     BYTE      P6
      000000C8H   SFRSYM    DATA     BYTE      P5
      000000C0H   SFRSYM    DATA     BYTE      P4
      000000ABH   SFRSYM    DATA     BYTE      WKTCH
      000000B0H   SFRSYM    DATA     BYTE      P3
      000000A0H   SFRSYM    DATA     BYTE      P2
      00000090H   SFRSYM    DATA     BYTE      P1
      00000080H   SFRSYM    DATA     BYTE      P0
      00010E34H   SYMBOL    XDATA    ---       seekfree_assistant_camera_dot_data
      00010E60H   SYMBOL    XDATA    ---       seekfree_assistant_fifo
      00010E9FH   SYMBOL    XDATA    ---       seekfree_assistant_camera_buffer
      00010EE9H   SYMBOL    XDATA    ---       seekfree_assistant_camera_data
      00010EF1H   SYMBOL    XDATA    ---       seekfree_assistant_buffer
      00FFD245H   SYMBOL    HCONST   ---       ?tpl?0001
      00FFD269H   SYMBOL    HCONST   ---       ?tpl?0002
      REG=6       REGSYM    ---      ---       buffer
      DR28        REGSYM    ---      DWORD     length
      R11         REGSYM    ---      BYTE      temp_sum
      WR12        REGSYM    ---      INT       camera_type
      R9          REGSYM    ---      BYTE      boundary_num
      WR14        REGSYM    ---      WORD      width
      WR6         REGSYM    ---      INT       camera_type
      REG=0       REGSYM    ---      ---       image_addr
      WR8         REGSYM    ---      WORD      width
      REG=7       REGSYM    ---      ---       seekfree_assistant_oscilloscope
      R15         REGSYM    ---      BYTE      packet_size
      R14         REGSYM    ---      BYTE      i
      REG=3       REGSYM    ---      ---       buffer
      WR8         REGSYM    ---      INT       boundary_type
      WR2         REGSYM    ---      WORD      dot_num
      REG=7       REGSYM    ---      ---       dot_x1
      R6          REGSYM    ---      BYTE      i
      R7          REGSYM    ---      BYTE      boundary_num
      R5          REGSYM    ---      BYTE      boundary_data_type
      R15         REGSYM    ---      BYTE      temp_sum
      WR12        REGSYM    ---      WORD      struct_len

      ---         MODULE    ---      ---       seekfree_assistant_interface
      000112F3H   PUBLIC    XDATA    ---       seekfree_assistant_receive_callback
      000112F5H   PUBLIC    XDATA    ---       seekfree_assistant_transfer_callback
      000000D0H   SFRSYM    DATA     BYTE      PSW
      0000009DH   SFRSYM    DATA     BYTE      IRCBAND
      00000097H   SFRSYM    DATA     BYTE      AUXR2
      000000EFH   SFRSYM    DATA     BYTE      AUXINTIF
      000000FDH   SFRSYM    DATA     BYTE      S4CON
      000000ACH   SFRSYM    DATA     BYTE      S3CON
      0000009AH   SFRSYM    DATA     BYTE      S2CON
      000000B7H   SFRSYM    DATA     BYTE      IPH
      000000CDH   SFRSYM    DATA     BYTE      SPSTAT
      000000DDH   SFRSYM    DATA     BYTE      T4T3M
      000000C1H   SFRSYM    DATA     BYTE      WDT_CONTR
      000000DFH   SFRSYM    DATA     BYTE      IP3
L251 LINKER/LOCATER V4.66.93.0                                                        10/15/2025  21:40:28  PAGE 107


      000000F4H   SFRSYM    DATA     BYTE      USBCON
      000000B5H   SFRSYM    DATA     BYTE      IP2
      000000FFH   SFRSYM    DATA     BYTE      RSTCFG
      000000C7H   SFRSYM    DATA     BYTE      IAP_CONTR
      0000008EH   SFRSYM    DATA     BYTE      AUXR
      000000AFH   SFRSYM    DATA     BYTE      IE2
      00000088H   SFRSYM    DATA     BYTE      TCON
      00000089H   SFRSYM    DATA     BYTE      TMOD
      00000098H   SFRSYM    DATA     BYTE      SCON
      00000087H   SFRSYM    DATA     BYTE      PCON
      000000BCH   SFRSYM    DATA     BYTE      ADC_CONTR
      000000D1H   SFRSYM    DATA     BYTE      PSW1
      000000E7H   SFRSYM    DATA     BYTE      CMPCR2
      000000E6H   SFRSYM    DATA     BYTE      CMPCR1
      000000DEH   SFRSYM    DATA     BYTE      ADCCFG
      000000B8H   SFRSYM    DATA     BYTE      IP
      0000008FH   SFRSYM    DATA     BYTE      INTCLKO
      000000EEH   SFRSYM    DATA     BYTE      IP3H
      000000B6H   SFRSYM    DATA     BYTE      IP2H
      000000BFH   SFRSYM    DATA     BYTE      P_SW4
      000000A8H   SFRSYM    DATA     BYTE      IE
      000000BBH   SFRSYM    DATA     BYTE      P_SW3
      000000BAH   SFRSYM    DATA     BYTE      P_SW2
      000000A2H   SFRSYM    DATA     BYTE      P_SW1
      000000CEH   SFRSYM    DATA     BYTE      SPCTL
      000000F8H   SFRSYM    DATA     BYTE      P7
      000000E8H   SFRSYM    DATA     BYTE      P6
      000000C8H   SFRSYM    DATA     BYTE      P5
      000000C0H   SFRSYM    DATA     BYTE      P4
      000000ABH   SFRSYM    DATA     BYTE      WKTCH
      000000B0H   SFRSYM    DATA     BYTE      P3
      000000A0H   SFRSYM    DATA     BYTE      P2
      00000090H   SFRSYM    DATA     BYTE      P1
      00000080H   SFRSYM    DATA     BYTE      P0
      WR6         REGSYM    ---      INT       transfer_device

      ---         MODULE    ---      ---       isr
      00FFB058H   PUBLIC    CODE     ---       TM11_IRQHandler
      00FFA0F1H   PUBLIC    CODE     ---       DMA_UART1_IRQHandler
      00FFA621H   PUBLIC    CODE     ---       DMA_UART2_IRQHandler
      00FFA6AAH   PUBLIC    CODE     ---       DMA_UART3_IRQHandler
      00FFA733H   PUBLIC    CODE     ---       DMA_UART4_IRQHandler
      00FFB1FAH   PUBLIC    CODE     ---       TM0_IRQHandler
      00FFB238H   PUBLIC    CODE     ---       TM1_IRQHandler
      00FFB276H   PUBLIC    CODE     ---       TM2_IRQHandler
      00FFB2B4H   PUBLIC    CODE     ---       TM3_IRQHandler
      00FFB2F2H   PUBLIC    CODE     ---       TM4_IRQHandler
      000000D0H   SFRSYM    DATA     BYTE      PSW
      0000009DH   SFRSYM    DATA     BYTE      IRCBAND
      00000097H   SFRSYM    DATA     BYTE      AUXR2
      000000EFH   SFRSYM    DATA     BYTE      AUXINTIF
      000000FDH   SFRSYM    DATA     BYTE      S4CON
      000000ACH   SFRSYM    DATA     BYTE      S3CON
      0000009AH   SFRSYM    DATA     BYTE      S2CON
      000000B7H   SFRSYM    DATA     BYTE      IPH
      000000CDH   SFRSYM    DATA     BYTE      SPSTAT
      000000DDH   SFRSYM    DATA     BYTE      T4T3M
      000000C1H   SFRSYM    DATA     BYTE      WDT_CONTR
      000000DFH   SFRSYM    DATA     BYTE      IP3
      000000F4H   SFRSYM    DATA     BYTE      USBCON
      000000B5H   SFRSYM    DATA     BYTE      IP2
      000000FFH   SFRSYM    DATA     BYTE      RSTCFG
      000000C7H   SFRSYM    DATA     BYTE      IAP_CONTR
      0000008EH   SFRSYM    DATA     BYTE      AUXR
      000000AFH   SFRSYM    DATA     BYTE      IE2
L251 LINKER/LOCATER V4.66.93.0                                                        10/15/2025  21:40:28  PAGE 108


      00000088H   SFRSYM    DATA     BYTE      TCON
      00000089H   SFRSYM    DATA     BYTE      TMOD
      00000098H   SFRSYM    DATA     BYTE      SCON
      00000087H   SFRSYM    DATA     BYTE      PCON
      000000BCH   SFRSYM    DATA     BYTE      ADC_CONTR
      000000D1H   SFRSYM    DATA     BYTE      PSW1
      000000E7H   SFRSYM    DATA     BYTE      CMPCR2
      000000E6H   SFRSYM    DATA     BYTE      CMPCR1
      000000DEH   SFRSYM    DATA     BYTE      ADCCFG
      000000B8H   SFRSYM    DATA     BYTE      IP
      0000008FH   SFRSYM    DATA     BYTE      INTCLKO
      000000EEH   SFRSYM    DATA     BYTE      IP3H
      000000B6H   SFRSYM    DATA     BYTE      IP2H
      000000BFH   SFRSYM    DATA     BYTE      P_SW4
      000000A8H   SFRSYM    DATA     BYTE      IE
      000000BBH   SFRSYM    DATA     BYTE      P_SW3
      000000BAH   SFRSYM    DATA     BYTE      P_SW2
      000000A2H   SFRSYM    DATA     BYTE      P_SW1
      000000CEH   SFRSYM    DATA     BYTE      SPCTL
      000000F8H   SFRSYM    DATA     BYTE      P7
      000000E8H   SFRSYM    DATA     BYTE      P6
      000000C8H   SFRSYM    DATA     BYTE      P5
      000000C0H   SFRSYM    DATA     BYTE      P4
      000000ABH   SFRSYM    DATA     BYTE      WKTCH
      000000B0H   SFRSYM    DATA     BYTE      P3
      000000A0H   SFRSYM    DATA     BYTE      P2
      00000090H   SFRSYM    DATA     BYTE      P1
      00000080H   SFRSYM    DATA     BYTE      P0

      00FFA0F1H   BLOCK     CODE     ---       LVL=0
      00FFA105H   BLOCK     CODE     NEAR LAB  LVL=1
      000112FFH   SYMBOL    XDATA    BYTE      dwon_count
      ---         BLOCKEND  ---      ---       LVL=1
      00FFA0F1H   LINE      CODE     ---       #40
      00FFA105H   LINE      CODE     ---       #41
      00FFA105H   LINE      CODE     ---       #43
      00FFA113H   LINE      CODE     ---       #45
      00FFA123H   LINE      CODE     ---       #46
      00FFA128H   LINE      CODE     ---       #49
      00FFA12FH   LINE      CODE     ---       #51
      00FFA13EH   LINE      CODE     ---       #53
      00FFA141H   LINE      CODE     ---       #54
      00FFA143H   LINE      CODE     ---       #58
      00FFA148H   LINE      CODE     ---       #59
      00FFA148H   LINE      CODE     ---       #61
      00FFA152H   LINE      CODE     ---       #63
      00FFA15EH   LINE      CODE     ---       #64
      00FFA15EH   LINE      CODE     ---       #67
      00FFA16CH   LINE      CODE     ---       #69
      00FFA17CH   LINE      CODE     ---       #70
      00FFA181H   LINE      CODE     ---       #74
      ---         BLOCKEND  ---      ---       LVL=0

      00FFA621H   BLOCK     CODE     ---       LVL=0
      00FFA621H   LINE      CODE     ---       #79
      00FFA635H   LINE      CODE     ---       #82
      00FFA643H   LINE      CODE     ---       #84
      00FFA653H   LINE      CODE     ---       #85
      00FFA65AH   LINE      CODE     ---       #87
      00FFA664H   LINE      CODE     ---       #89
      00FFA670H   LINE      CODE     ---       #90
      00FFA670H   LINE      CODE     ---       #93
      00FFA67EH   LINE      CODE     ---       #95
      00FFA68EH   LINE      CODE     ---       #96
      00FFA695H   LINE      CODE     ---       #101
L251 LINKER/LOCATER V4.66.93.0                                                        10/15/2025  21:40:28  PAGE 109


      ---         BLOCKEND  ---      ---       LVL=0

      00FFA6AAH   BLOCK     CODE     ---       LVL=0
      00FFA6AAH   LINE      CODE     ---       #104
      00FFA6BEH   LINE      CODE     ---       #107
      00FFA6CCH   LINE      CODE     ---       #109
      00FFA6DCH   LINE      CODE     ---       #110
      00FFA6E3H   LINE      CODE     ---       #112
      00FFA6EDH   LINE      CODE     ---       #115
      00FFA6F9H   LINE      CODE     ---       #117
      00FFA6F9H   LINE      CODE     ---       #120
      00FFA707H   LINE      CODE     ---       #122
      00FFA717H   LINE      CODE     ---       #123
      00FFA71EH   LINE      CODE     ---       #128
      ---         BLOCKEND  ---      ---       LVL=0

      00FFA733H   BLOCK     CODE     ---       LVL=0
      00FFA733H   LINE      CODE     ---       #131
      00FFA747H   LINE      CODE     ---       #134
      00FFA755H   LINE      CODE     ---       #136
      00FFA765H   LINE      CODE     ---       #137
      00FFA76CH   LINE      CODE     ---       #139
      00FFA776H   LINE      CODE     ---       #141
      00FFA782H   LINE      CODE     ---       #143
      00FFA782H   LINE      CODE     ---       #146
      00FFA790H   LINE      CODE     ---       #148
      00FFA7A0H   LINE      CODE     ---       #149
      00FFA7A7H   LINE      CODE     ---       #154
      ---         BLOCKEND  ---      ---       LVL=0

      00FFB1FAH   BLOCK     CODE     ---       LVL=0
      00FFB1FAH   LINE      CODE     ---       #158
      00FFB20EH   LINE      CODE     ---       #160
      00FFB211H   LINE      CODE     ---       #162
      00FFB21BH   LINE      CODE     ---       #164
      00FFB223H   LINE      CODE     ---       #165
      ---         BLOCKEND  ---      ---       LVL=0

      00FFB238H   BLOCK     CODE     ---       LVL=0
      00FFB238H   LINE      CODE     ---       #167
      00FFB24CH   LINE      CODE     ---       #169
      00FFB24FH   LINE      CODE     ---       #171
      00FFB259H   LINE      CODE     ---       #173
      00FFB261H   LINE      CODE     ---       #174
      ---         BLOCKEND  ---      ---       LVL=0

      00FFB276H   BLOCK     CODE     ---       LVL=0
      00FFB276H   LINE      CODE     ---       #176
      00FFB28AH   LINE      CODE     ---       #178
      00FFB28DH   LINE      CODE     ---       #180
      00FFB297H   LINE      CODE     ---       #182
      00FFB29FH   LINE      CODE     ---       #183
      ---         BLOCKEND  ---      ---       LVL=0

      00FFB2B4H   BLOCK     CODE     ---       LVL=0
      00FFB2B4H   LINE      CODE     ---       #185
      00FFB2C8H   LINE      CODE     ---       #187
      00FFB2CBH   LINE      CODE     ---       #189
      00FFB2D5H   LINE      CODE     ---       #191
      00FFB2DDH   LINE      CODE     ---       #192
      ---         BLOCKEND  ---      ---       LVL=0

      00FFB2F2H   BLOCK     CODE     ---       LVL=0
      00FFB2F2H   LINE      CODE     ---       #195
      00FFB306H   LINE      CODE     ---       #197
L251 LINKER/LOCATER V4.66.93.0                                                        10/15/2025  21:40:28  PAGE 110


      00FFB309H   LINE      CODE     ---       #199
      00FFB313H   LINE      CODE     ---       #201
      00FFB31BH   LINE      CODE     ---       #202
      ---         BLOCKEND  ---      ---       LVL=0

      00FFB058H   BLOCK     CODE     ---       LVL=0
      00FFB058H   LINE      CODE     ---       #205
      00FFB06CH   LINE      CODE     ---       #207
      00FFB07CH   LINE      CODE     ---       #209
      00FFB086H   LINE      CODE     ---       #211
      00FFB08EH   LINE      CODE     ---       #212
      ---         BLOCKEND  ---      ---       LVL=0

      ---         MODULE    ---      ---       main
      00FF0066H   PUBLIC    CODE     ---       main
      00FFA50BH   PUBLIC    CODE     ---       pit_handler1
      00FF9E4DH   PUBLIC    CODE     ---       _m
      000112DEH   PUBLIC    XDATA    INT       T4
      000112E0H   PUBLIC    XDATA    INT       T
      000112E2H   PUBLIC    XDATA    INT       delta_Speed
      000112E4H   PUBLIC    XDATA    BYTE      speed_update_flag
      000000D0H   SFRSYM    DATA     BYTE      PSW
      0000009DH   SFRSYM    DATA     BYTE      IRCBAND
      00000097H   SFRSYM    DATA     BYTE      AUXR2
      000000EFH   SFRSYM    DATA     BYTE      AUXINTIF
      000000FDH   SFRSYM    DATA     BYTE      S4CON
      000000ACH   SFRSYM    DATA     BYTE      S3CON
      0000009AH   SFRSYM    DATA     BYTE      S2CON
      000000B7H   SFRSYM    DATA     BYTE      IPH
      000000CDH   SFRSYM    DATA     BYTE      SPSTAT
      000000DDH   SFRSYM    DATA     BYTE      T4T3M
      000000C1H   SFRSYM    DATA     BYTE      WDT_CONTR
      000000DFH   SFRSYM    DATA     BYTE      IP3
      000000F4H   SFRSYM    DATA     BYTE      USBCON
      000000B5H   SFRSYM    DATA     BYTE      IP2
      000000FFH   SFRSYM    DATA     BYTE      RSTCFG
      000000C7H   SFRSYM    DATA     BYTE      IAP_CONTR
      0000008EH   SFRSYM    DATA     BYTE      AUXR
      000000AFH   SFRSYM    DATA     BYTE      IE2
      00000088H   SFRSYM    DATA     BYTE      TCON
      00000089H   SFRSYM    DATA     BYTE      TMOD
      00000098H   SFRSYM    DATA     BYTE      SCON
      00000087H   SFRSYM    DATA     BYTE      PCON
      000000BCH   SFRSYM    DATA     BYTE      ADC_CONTR
      000000D1H   SFRSYM    DATA     BYTE      PSW1
      000000E7H   SFRSYM    DATA     BYTE      CMPCR2
      000000E6H   SFRSYM    DATA     BYTE      CMPCR1
      000000DEH   SFRSYM    DATA     BYTE      ADCCFG
      000000B8H   SFRSYM    DATA     BYTE      IP
      0000008FH   SFRSYM    DATA     BYTE      INTCLKO
      000000EEH   SFRSYM    DATA     BYTE      IP3H
      000000B6H   SFRSYM    DATA     BYTE      IP2H
      000000BFH   SFRSYM    DATA     BYTE      P_SW4
      000000A8H   SFRSYM    DATA     BYTE      IE
      000000BBH   SFRSYM    DATA     BYTE      P_SW3
      000000BAH   SFRSYM    DATA     BYTE      P_SW2
      000000A2H   SFRSYM    DATA     BYTE      P_SW1
      000000CEH   SFRSYM    DATA     BYTE      SPCTL
      000000F8H   SFRSYM    DATA     BYTE      P7
      000000A8H.7 SFRSYM    DATA     BIT       EA
      000000E8H   SFRSYM    DATA     BYTE      P6
      000000C8H   SFRSYM    DATA     BYTE      P5
      000000C0H   SFRSYM    DATA     BYTE      P4
      000000ABH   SFRSYM    DATA     BYTE      WKTCH
      000000B0H   SFRSYM    DATA     BYTE      P3
L251 LINKER/LOCATER V4.66.93.0                                                        10/15/2025  21:40:28  PAGE 111


      000000A0H   SFRSYM    DATA     BYTE      P2
      00000090H   SFRSYM    DATA     BYTE      P1
      00000080H   SFRSYM    DATA     BYTE      P0

      00FF0066H   BLOCK     CODE     ---       LVL=0
      00FF0066H   LINE      CODE     ---       #9
      ---         BLOCKEND  ---      ---       LVL=0

      00FF9E4DH   BLOCK     CODE     ---       LVL=0
      00FF9E4DH   LINE      CODE     ---       #9
      00FF9E4DH   LINE      CODE     ---       #11
      00FF9E58H   LINE      CODE     ---       #12
      00FF9E5BH   LINE      CODE     ---       #14
      00FF9E5EH   LINE      CODE     ---       #15
      00FF9E68H   LINE      CODE     ---       #17
      00FF9E68H   LINE      CODE     ---       #20
      00FF9E94H   LINE      CODE     ---       #22
      00FF9E94H   LINE      CODE     ---       #24
      00FF9E97H   LINE      CODE     ---       #25
      00FF9E9DH   LINE      CODE     ---       #27
      00FF9E9FH   LINE      CODE     ---       #28
      00FF9EA6H   LINE      CODE     ---       #29
      00FF9EABH   LINE      CODE     ---       #30
      00FF9EADH   LINE      CODE     ---       #31
      00FF9EADH   LINE      CODE     ---       #32
      00FF9EAFH   LINE      CODE     ---       #34
      00FF9EAFH   LINE      CODE     ---       #36
      00FF9EB2H   LINE      CODE     ---       #37
      00FF9EB8H   LINE      CODE     ---       #43
      00FF9EB8H   LINE      CODE     ---       #44
      00FF9EBAH   LINE      CODE     ---       #46
      00FF9EBAH   LINE      CODE     ---       #48
      00FF9EBDH   LINE      CODE     ---       #49
      00FF9EBFH   LINE      CODE     ---       #51
      00FF9EBFH   LINE      CODE     ---       #53
      00FF9EC2H   LINE      CODE     ---       #54
      00FF9EC4H   LINE      CODE     ---       #56
      00FF9EC4H   LINE      CODE     ---       #58
      00FF9EC7H   LINE      CODE     ---       #59
      00FF9EC9H   LINE      CODE     ---       #61
      00FF9EC9H   LINE      CODE     ---       #63
      00FF9ECCH   LINE      CODE     ---       #64
      00FF9ECFH   LINE      CODE     ---       #65
      00FF9ED1H   LINE      CODE     ---       #67
      00FF9ED1H   LINE      CODE     ---       #69
      00FF9ED4H   LINE      CODE     ---       #70
      00FF9ED7H   LINE      CODE     ---       #71
      00FF9ED9H   LINE      CODE     ---       #73
      00FF9ED9H   LINE      CODE     ---       #75
      00FF9EDCH   LINE      CODE     ---       #76
      00FF9EDEH   LINE      CODE     ---       #78
      00FF9EDEH   LINE      CODE     ---       #80
      00FF9EE1H   LINE      CODE     ---       #81
      00FF9EE4H   LINE      CODE     ---       #82
      00FF9EE4H   LINE      CODE     ---       #84
      00FF9EE4H   LINE      CODE     ---       #85
      00FF9EEDH   LINE      CODE     ---       #87
      00FF9EF2H   LINE      CODE     ---       #88
      00FF9EF7H   LINE      CODE     ---       #89
      00FF9EFAH   LINE      CODE     ---       #90
      ---         BLOCKEND  ---      ---       LVL=0

      00FFA50BH   BLOCK     CODE     ---       LVL=0
      00FFA50BH   LINE      CODE     ---       #97
      00FFA50BH   LINE      CODE     ---       #99
L251 LINKER/LOCATER V4.66.93.0                                                        10/15/2025  21:40:28  PAGE 112


      00FFA516H   LINE      CODE     ---       #100
      00FFA519H   LINE      CODE     ---       #101
      00FFA525H   LINE      CODE     ---       #102
      00FFA528H   LINE      CODE     ---       #103
      00FFA52EH   LINE      CODE     ---       #105
      00FFA531H   LINE      CODE     ---       #106
      00FFA531H   LINE      CODE     ---       #107
      00FFA534H   LINE      CODE     ---       #109
      00FFA558H   LINE      CODE     ---       #111
      00FFA564H   LINE      CODE     ---       #113
      00FFA567H   LINE      CODE     ---       #114
      00FFA569H   LINE      CODE     ---       #117
      00FFA56CH   LINE      CODE     ---       #118
      00FFA56CH   LINE      CODE     ---       #119
      00FFA56CH   LINE      CODE     ---       #121
      00FFA578H   LINE      CODE     ---       #123
      00FFA580H   LINE      CODE     ---       #124
      00FFA583H   LINE      CODE     ---       #125
      00FFA589H   LINE      CODE     ---       #127
      00FFA58CH   LINE      CODE     ---       #128
      00FFA58CH   LINE      CODE     ---       #129
      00FFA592H   LINE      CODE     ---       #131
      00FFA595H   LINE      CODE     ---       #132
      00FFA595H   LINE      CODE     ---       #134
      ---         BLOCKEND  ---      ---       LVL=0

      ---         MODULE    ---      ---       ADC_Get
      00FF9178H   PUBLIC    CODE     ---       ADC_SampleAndFilter
      00FF9FA6H   PUBLIC    CODE     ---       adc_filter
      00FFB518H   PUBLIC    CODE     ---       ADC_GetInit
      000111A6H   PUBLIC    XDATA    ---       raw_adc_data
      000111CEH   PUBLIC    XDATA    ---       ADC_Num
      000111DCH   PUBLIC    XDATA    ---       filtered_adc
      00000020H.0 PUBLIC    BIT      BIT       Battery_Init
      000000D0H   SFRSYM    DATA     BYTE      PSW
      0000009DH   SFRSYM    DATA     BYTE      IRCBAND
      00000097H   SFRSYM    DATA     BYTE      AUXR2
      000000EFH   SFRSYM    DATA     BYTE      AUXINTIF
      000000FDH   SFRSYM    DATA     BYTE      S4CON
      000000ACH   SFRSYM    DATA     BYTE      S3CON
      0000009AH   SFRSYM    DATA     BYTE      S2CON
      000000B7H   SFRSYM    DATA     BYTE      IPH
      000000CDH   SFRSYM    DATA     BYTE      SPSTAT
      000000DDH   SFRSYM    DATA     BYTE      T4T3M
      000000C1H   SFRSYM    DATA     BYTE      WDT_CONTR
      000000DFH   SFRSYM    DATA     BYTE      IP3
      000000F4H   SFRSYM    DATA     BYTE      USBCON
      000000B5H   SFRSYM    DATA     BYTE      IP2
      000000FFH   SFRSYM    DATA     BYTE      RSTCFG
      000000C7H   SFRSYM    DATA     BYTE      IAP_CONTR
      0000008EH   SFRSYM    DATA     BYTE      AUXR
      000000AFH   SFRSYM    DATA     BYTE      IE2
      00000088H   SFRSYM    DATA     BYTE      TCON
      00000089H   SFRSYM    DATA     BYTE      TMOD
      00000098H   SFRSYM    DATA     BYTE      SCON
      00000087H   SFRSYM    DATA     BYTE      PCON
      000000BCH   SFRSYM    DATA     BYTE      ADC_CONTR
      000000D1H   SFRSYM    DATA     BYTE      PSW1
      000000E7H   SFRSYM    DATA     BYTE      CMPCR2
      000000E6H   SFRSYM    DATA     BYTE      CMPCR1
      000000DEH   SFRSYM    DATA     BYTE      ADCCFG
      000000B8H   SFRSYM    DATA     BYTE      IP
      0000008FH   SFRSYM    DATA     BYTE      INTCLKO
      000000EEH   SFRSYM    DATA     BYTE      IP3H
      000000B6H   SFRSYM    DATA     BYTE      IP2H
L251 LINKER/LOCATER V4.66.93.0                                                        10/15/2025  21:40:28  PAGE 113


      000000BFH   SFRSYM    DATA     BYTE      P_SW4
      000000A8H   SFRSYM    DATA     BYTE      IE
      000000BBH   SFRSYM    DATA     BYTE      P_SW3
      000000BAH   SFRSYM    DATA     BYTE      P_SW2
      000000A2H   SFRSYM    DATA     BYTE      P_SW1
      000000CEH   SFRSYM    DATA     BYTE      SPCTL
      000000F8H   SFRSYM    DATA     BYTE      P7
      000000E8H   SFRSYM    DATA     BYTE      P6
      000000C8H   SFRSYM    DATA     BYTE      P5
      000000C0H   SFRSYM    DATA     BYTE      P4
      000000ABH   SFRSYM    DATA     BYTE      WKTCH
      000000B0H   SFRSYM    DATA     BYTE      P3
      000000A0H   SFRSYM    DATA     BYTE      P2
      00000090H   SFRSYM    DATA     BYTE      P1
      00000080H   SFRSYM    DATA     BYTE      P0

      00FFB518H   BLOCK     CODE     ---       LVL=0
      00FFB518H   LINE      CODE     ---       #7
      00FFB518H   LINE      CODE     ---       #9
      00FFB523H   LINE      CODE     ---       #10
      00FFB52EH   LINE      CODE     ---       #11
      00FFB539H   LINE      CODE     ---       #12
      00FFB544H   LINE      CODE     ---       #17
      ---         BLOCKEND  ---      ---       LVL=0

      00FF9FA6H   BLOCK     CODE     ---       LVL=0
      REG=7       REGSYM    ---      ---       samples
      R15         REGSYM    ---      BYTE      count
      00FF9FACH   BLOCK     CODE     NEAR LAB  LVL=1
      R14         REGSYM    ---      BYTE      i
      DR20        REGSYM    ---      DWORD     sum
      WR24        REGSYM    ---      WORD      max
      WR26        REGSYM    ---      WORD      min
      ---         BLOCKEND  ---      ---       LVL=1
      00FF9FA6H   LINE      CODE     ---       #20
      00FF9FACH   LINE      CODE     ---       #21
      00FF9FACH   LINE      CODE     ---       #23
      00FF9FAEH   LINE      CODE     ---       #24
      00FF9FB1H   LINE      CODE     ---       #25
      00FF9FB4H   LINE      CODE     ---       #27
      00FF9FB9H   LINE      CODE     ---       #29
      00FF9FBDH   LINE      CODE     ---       #31
      00FF9FCCH   LINE      CODE     ---       #32
      00FF9FD2H   LINE      CODE     ---       #33
      00FF9FDDH   LINE      CODE     ---       #34
      00FF9FDDH   LINE      CODE     ---       #35
      00FF9FE1H   LINE      CODE     ---       #37
      00FF9FFFH   LINE      CODE     ---       #38
      00FFA01DH   LINE      CODE     ---       #39
      00FFA02CH   LINE      CODE     ---       #40
      00FFA032H   LINE      CODE     ---       #41
      00FFA049H   LINE      CODE     ---       #42
      ---         BLOCKEND  ---      ---       LVL=0

      00FF9178H   BLOCK     CODE     ---       LVL=0
      00FF917AH   BLOCK     CODE     NEAR LAB  LVL=1
      R14         REGSYM    ---      BYTE      sample_index
      R15         REGSYM    ---      BYTE      channel_index
      ---         BLOCKEND  ---      ---       LVL=1
      00FF9178H   LINE      CODE     ---       #45
      00FF917AH   LINE      CODE     ---       #46
      00FF917AH   LINE      CODE     ---       #47
      00FF917CH   LINE      CODE     ---       #48
      00FF917EH   LINE      CODE     ---       #51
      00FF9182H   LINE      CODE     ---       #53
L251 LINKER/LOCATER V4.66.93.0                                                        10/15/2025  21:40:28  PAGE 114


      00FF919DH   LINE      CODE     ---       #54
      00FF91B8H   LINE      CODE     ---       #55
      00FF91D3H   LINE      CODE     ---       #56
      00FF91EEH   LINE      CODE     ---       #57
      00FF91F5H   LINE      CODE     ---       #60
      00FF91F9H   LINE      CODE     ---       #62
      00FF921FH   LINE      CODE     ---       #63
      00FF9226H   LINE      CODE     ---       #64
      00FF9232H   LINE      CODE     ---       #65
      00FF923EH   LINE      CODE     ---       #66
      00FF924AH   LINE      CODE     ---       #67
      00FF9256H   LINE      CODE     ---       #68
      ---         BLOCKEND  ---      ---       LVL=0
      WR14        REGSYM    ---      WORD      battery_adc
      WR2         REGSYM    ---      WORD      ref_adc
      WR6         REGSYM    ---      WORD      battery_v
      R13         REGSYM    ---      BYTE      i

      ---         MODULE    ---      ---       control
      00FF95D1H   PUBLIC    CODE     ---       Motor_Right_pi_control
      00FF96A9H   PUBLIC    CODE     ---       Motor_Left_pi_control
      00FF73F8H   PUBLIC    CODE     ---       PID_Update
      00FFB65AH   PUBLIC    CODE     ---       Ser_Servo_Duty
      00FF7FF9H   PUBLIC    CODE     ---       Cycle_Update
      00FF849CH   PUBLIC    CODE     ---       Motor_Update
      00FFA356H   PUBLIC    CODE     ---       Servo_turn_pid
      00FFB36EH   PUBLIC    CODE     ---       MotorL_SetSpeed
      00FFB3ABH   PUBLIC    CODE     ---       MotorR_SetSpeed
      00011300H   PUBLIC    XDATA    BYTE      CAR_Mode
      000000D0H   SFRSYM    DATA     BYTE      PSW
      0000009DH   SFRSYM    DATA     BYTE      IRCBAND
      00000097H   SFRSYM    DATA     BYTE      AUXR2
      000000EFH   SFRSYM    DATA     BYTE      AUXINTIF
      000000FDH   SFRSYM    DATA     BYTE      S4CON
      000000ACH   SFRSYM    DATA     BYTE      S3CON
      0000009AH   SFRSYM    DATA     BYTE      S2CON
      000000B7H   SFRSYM    DATA     BYTE      IPH
      000000CDH   SFRSYM    DATA     BYTE      SPSTAT
      000000DDH   SFRSYM    DATA     BYTE      T4T3M
      000000C1H   SFRSYM    DATA     BYTE      WDT_CONTR
      000000DFH   SFRSYM    DATA     BYTE      IP3
      000000F4H   SFRSYM    DATA     BYTE      USBCON
      000000B5H   SFRSYM    DATA     BYTE      IP2
      000000FFH   SFRSYM    DATA     BYTE      RSTCFG
      000000C7H   SFRSYM    DATA     BYTE      IAP_CONTR
      0000008EH   SFRSYM    DATA     BYTE      AUXR
      000000AFH   SFRSYM    DATA     BYTE      IE2
      00000088H   SFRSYM    DATA     BYTE      TCON
      00000089H   SFRSYM    DATA     BYTE      TMOD
      00000098H   SFRSYM    DATA     BYTE      SCON
      00000087H   SFRSYM    DATA     BYTE      PCON
      000000BCH   SFRSYM    DATA     BYTE      ADC_CONTR
      000000D1H   SFRSYM    DATA     BYTE      PSW1
      000000E7H   SFRSYM    DATA     BYTE      CMPCR2
      000000E6H   SFRSYM    DATA     BYTE      CMPCR1
      000000DEH   SFRSYM    DATA     BYTE      ADCCFG
      000000B8H   SFRSYM    DATA     BYTE      IP
      0000008FH   SFRSYM    DATA     BYTE      INTCLKO
      000000EEH   SFRSYM    DATA     BYTE      IP3H
      000000B6H   SFRSYM    DATA     BYTE      IP2H
      000000BFH   SFRSYM    DATA     BYTE      P_SW4
      000000A8H   SFRSYM    DATA     BYTE      IE
      000000BBH   SFRSYM    DATA     BYTE      P_SW3
      000000BAH   SFRSYM    DATA     BYTE      P_SW2
      000000A2H   SFRSYM    DATA     BYTE      P_SW1
L251 LINKER/LOCATER V4.66.93.0                                                        10/15/2025  21:40:28  PAGE 115


      000000CEH   SFRSYM    DATA     BYTE      SPCTL
      000000F8H   SFRSYM    DATA     BYTE      P7
      000000E8H   SFRSYM    DATA     BYTE      P6
      000000C8H   SFRSYM    DATA     BYTE      P5
      000000C0H   SFRSYM    DATA     BYTE      P4
      000000ABH   SFRSYM    DATA     BYTE      WKTCH
      000000B0H   SFRSYM    DATA     BYTE      P3
      000000A0H   SFRSYM    DATA     BYTE      P2
      00000090H   SFRSYM    DATA     BYTE      P1
      00000080H   SFRSYM    DATA     BYTE      P0

      00FFB65AH   BLOCK     CODE     ---       LVL=0
      WR4         REGSYM    ---      INT       value
      00FFB65AH   LINE      CODE     ---       #4
      00FFB65CH   LINE      CODE     ---       #6
      00FFB669H   LINE      CODE     ---       #7
      ---         BLOCKEND  ---      ---       LVL=0

      00FFA356H   BLOCK     CODE     ---       LVL=0
      DR0         REGSYM    ---      FLOAT     Current
      00FFA358H   BLOCK     CODE     NEAR LAB  LVL=1
      DR20        REGSYM    ---      FLOAT     kp
      DR24        REGSYM    ---      FLOAT     kd
      DR8         REGSYM    ---      FLOAT     last_error
      DR28        REGSYM    ---      FLOAT     error
      DR28        REGSYM    ---      FLOAT     temp
      DR24        REGSYM    ---      FLOAT     out
      ---         BLOCKEND  ---      ---       LVL=1
      00FFA356H   LINE      CODE     ---       #16
      00FFA358H   LINE      CODE     ---       #17
      00FFA358H   LINE      CODE     ---       #18
      00FFA362H   LINE      CODE     ---       #19
      00FFA36CH   LINE      CODE     ---       #20
      00FFA376H   LINE      CODE     ---       #21
      00FFA378H   LINE      CODE     ---       #24
      00FFA394H   LINE      CODE     ---       #26
      00FFA39EH   LINE      CODE     ---       #28
      00FFA3CAH   LINE      CODE     ---       #29
      00FFA3E9H   LINE      CODE     ---       #30
      ---         BLOCKEND  ---      ---       LVL=0

      00FF96A9H   BLOCK     CODE     ---       LVL=0
      WR2         REGSYM    ---      INT       point
      00FF96ABH   BLOCK     CODE     NEAR LAB  LVL=1
      DR20        REGSYM    ---      FLOAT     kp
      DR16        REGSYM    ---      FLOAT     ki
      DR28        REGSYM    ---      FLOAT     out
      WR26        REGSYM    ---      INT       error
      DR20        REGSYM    ---      FLOAT     delta_out
      ---         BLOCKEND  ---      ---       LVL=1
      00FF96A9H   LINE      CODE     ---       #35
      00FF96ABH   LINE      CODE     ---       #36
      00FF96ABH   LINE      CODE     ---       #37
      00FF96B5H   LINE      CODE     ---       #38
      00FF96BFH   LINE      CODE     ---       #39
      00FF96C1H   LINE      CODE     ---       #41
      00FF96CBH   LINE      CODE     ---       #43
      00FF96F9H   LINE      CODE     ---       #45
      00FF9710H   LINE      CODE     ---       #46
      00FF9727H   LINE      CODE     ---       #47
      00FF9738H   LINE      CODE     ---       #49
      00FF974DH   LINE      CODE     ---       #50
      00FF9760H   LINE      CODE     ---       #52
      00FF9771H   LINE      CODE     ---       #53
      00FF977BH   LINE      CODE     ---       #55
L251 LINKER/LOCATER V4.66.93.0                                                        10/15/2025  21:40:28  PAGE 116


      00FF9780H   LINE      CODE     ---       #56
      ---         BLOCKEND  ---      ---       LVL=0

      00FF95D1H   BLOCK     CODE     ---       LVL=0
      WR2         REGSYM    ---      INT       point
      00FF95D3H   BLOCK     CODE     NEAR LAB  LVL=1
      DR20        REGSYM    ---      FLOAT     kp
      DR16        REGSYM    ---      FLOAT     ki
      DR28        REGSYM    ---      FLOAT     out
      WR26        REGSYM    ---      INT       error
      DR20        REGSYM    ---      FLOAT     delta_out
      ---         BLOCKEND  ---      ---       LVL=1
      00FF95D1H   LINE      CODE     ---       #62
      00FF95D3H   LINE      CODE     ---       #63
      00FF95D3H   LINE      CODE     ---       #64
      00FF95DDH   LINE      CODE     ---       #65
      00FF95E7H   LINE      CODE     ---       #66
      00FF95E9H   LINE      CODE     ---       #68
      00FF95F3H   LINE      CODE     ---       #70
      00FF9621H   LINE      CODE     ---       #72
      00FF9638H   LINE      CODE     ---       #73
      00FF964FH   LINE      CODE     ---       #74
      00FF9660H   LINE      CODE     ---       #76
      00FF9675H   LINE      CODE     ---       #77
      00FF9688H   LINE      CODE     ---       #79
      00FF9699H   LINE      CODE     ---       #80
      00FF96A3H   LINE      CODE     ---       #82
      00FF96A8H   LINE      CODE     ---       #83
      ---         BLOCKEND  ---      ---       LVL=0

      00FFB36EH   BLOCK     CODE     ---       LVL=0
      WR14        REGSYM    ---      INT       pwm
      00FFB36EH   LINE      CODE     ---       #90
      00FFB372H   LINE      CODE     ---       #93
      00FFB378H   LINE      CODE     ---       #95
      00FFB385H   LINE      CODE     ---       #96
      00FFB38EH   LINE      CODE     ---       #97
      00FFB390H   LINE      CODE     ---       #100
      00FFB39FH   LINE      CODE     ---       #101
      00FFB3A8H   LINE      CODE     ---       #102
      00FFB3A8H   LINE      CODE     ---       #103
      ---         BLOCKEND  ---      ---       LVL=0

      00FFB3ABH   BLOCK     CODE     ---       LVL=0
      WR14        REGSYM    ---      INT       pwm
      00FFB3ABH   LINE      CODE     ---       #110
      00FFB3AFH   LINE      CODE     ---       #112
      00FFB3B5H   LINE      CODE     ---       #114
      00FFB3C2H   LINE      CODE     ---       #115
      00FFB3CBH   LINE      CODE     ---       #116
      00FFB3CDH   LINE      CODE     ---       #119
      00FFB3DCH   LINE      CODE     ---       #120
      00FFB3E5H   LINE      CODE     ---       #121
      00FFB3E5H   LINE      CODE     ---       #122
      ---         BLOCKEND  ---      ---       LVL=0

      00FF849CH   BLOCK     CODE     ---       LVL=0
      R15         REGSYM    ---      CHAR      X
      00FF849CH   LINE      CODE     ---       #130
      00FF84A0H   LINE      CODE     ---       #132
      00FF84BBH   LINE      CODE     ---       #134
      00FF84BBH   LINE      CODE     ---       #136
      00FF84E1H   LINE      CODE     ---       #137
      00FF8507H   LINE      CODE     ---       #139
      00FF850AH   LINE      CODE     ---       #141
L251 LINKER/LOCATER V4.66.93.0                                                        10/15/2025  21:40:28  PAGE 117


      00FF850AH   LINE      CODE     ---       #143
      00FF8530H   LINE      CODE     ---       #144
      00FF8556H   LINE      CODE     ---       #145
      00FF8559H   LINE      CODE     ---       #147
      00FF8559H   LINE      CODE     ---       #149
      00FF857FH   LINE      CODE     ---       #150
      00FF85A5H   LINE      CODE     ---       #151
      00FF85A7H   LINE      CODE     ---       #153
      00FF85A7H   LINE      CODE     ---       #155
      00FF85CDH   LINE      CODE     ---       #156
      00FF85F3H   LINE      CODE     ---       #157
      00FF85F5H   LINE      CODE     ---       #159
      00FF85F5H   LINE      CODE     ---       #161
      00FF85FAH   LINE      CODE     ---       #162
      00FF85FFH   LINE      CODE     ---       #163
      00FF85FFH   LINE      CODE     ---       #166
      00FF85FFH   LINE      CODE     ---       #167
      ---         BLOCKEND  ---      ---       LVL=0

      00FF73F8H   BLOCK     CODE     ---       LVL=0
      00FF73F8H   LINE      CODE     ---       #168
      00FF73F8H   LINE      CODE     ---       #170
      00FF7416H   LINE      CODE     ---       #172
      00FF7416H   LINE      CODE     ---       #174
      00FF742AH   LINE      CODE     ---       #175
      00FF7436H   LINE      CODE     ---       #176
      00FF744AH   LINE      CODE     ---       #177
      00FF745EH   LINE      CODE     ---       #178
      00FF7472H   LINE      CODE     ---       #179
      00FF7486H   LINE      CODE     ---       #180
      00FF749AH   LINE      CODE     ---       #181
      00FF749DH   LINE      CODE     ---       #182
      00FF749DH   LINE      CODE     ---       #184
      00FF74B1H   LINE      CODE     ---       #185
      00FF74BDH   LINE      CODE     ---       #186
      00FF74D1H   LINE      CODE     ---       #187
      00FF74E5H   LINE      CODE     ---       #188
      00FF74F9H   LINE      CODE     ---       #189
      00FF750DH   LINE      CODE     ---       #190
      00FF7521H   LINE      CODE     ---       #191
      00FF7524H   LINE      CODE     ---       #192
      00FF7524H   LINE      CODE     ---       #194
      00FF7538H   LINE      CODE     ---       #195
      00FF7544H   LINE      CODE     ---       #196
      00FF7558H   LINE      CODE     ---       #197
      00FF756CH   LINE      CODE     ---       #198
      00FF7580H   LINE      CODE     ---       #199
      00FF7594H   LINE      CODE     ---       #200
      00FF75A8H   LINE      CODE     ---       #201
      00FF75ABH   LINE      CODE     ---       #202
      00FF75ABH   LINE      CODE     ---       #204
      00FF75BFH   LINE      CODE     ---       #205
      00FF75CBH   LINE      CODE     ---       #206
      00FF75DFH   LINE      CODE     ---       #207
      00FF75F3H   LINE      CODE     ---       #208
      00FF7607H   LINE      CODE     ---       #209
      00FF761BH   LINE      CODE     ---       #210
      00FF762FH   LINE      CODE     ---       #211
      00FF762FH   LINE      CODE     ---       #212
      00FF762FH   LINE      CODE     ---       #214
      ---         BLOCKEND  ---      ---       LVL=0

      00FF7FF9H   BLOCK     CODE     ---       LVL=0
      00FF7FF9H   LINE      CODE     ---       #216
      00FF7FF9H   LINE      CODE     ---       #218
L251 LINKER/LOCATER V4.66.93.0                                                        10/15/2025  21:40:28  PAGE 118


      00FF8014H   LINE      CODE     ---       #220
      00FF8014H   LINE      CODE     ---       #222
      00FF8027H   LINE      CODE     ---       #223
      00FF803AH   LINE      CODE     ---       #224
      00FF804DH   LINE      CODE     ---       #225
      00FF8060H   LINE      CODE     ---       #226
      00FF8073H   LINE      CODE     ---       #227
      00FF8076H   LINE      CODE     ---       #228
      00FF8076H   LINE      CODE     ---       #230
      00FF8089H   LINE      CODE     ---       #231
      00FF809CH   LINE      CODE     ---       #232
      00FF80AFH   LINE      CODE     ---       #233
      00FF80C2H   LINE      CODE     ---       #234
      00FF80D5H   LINE      CODE     ---       #235
      00FF80D8H   LINE      CODE     ---       #236
      00FF80D8H   LINE      CODE     ---       #238
      00FF80EBH   LINE      CODE     ---       #239
      00FF80FEH   LINE      CODE     ---       #240
      00FF8111H   LINE      CODE     ---       #241
      00FF8124H   LINE      CODE     ---       #242
      00FF8137H   LINE      CODE     ---       #243
      00FF8139H   LINE      CODE     ---       #244
      00FF8139H   LINE      CODE     ---       #246
      00FF814CH   LINE      CODE     ---       #247
      00FF815FH   LINE      CODE     ---       #248
      00FF8172H   LINE      CODE     ---       #249
      00FF8185H   LINE      CODE     ---       #250
      00FF8198H   LINE      CODE     ---       #251
      00FF8198H   LINE      CODE     ---       #252
      00FF8198H   LINE      CODE     ---       #253
      ---         BLOCKEND  ---      ---       LVL=0

      ---         MODULE    ---      ---       eeprom
      000000D0H   SFRSYM    DATA     BYTE      PSW
      0000009DH   SFRSYM    DATA     BYTE      IRCBAND
      00000097H   SFRSYM    DATA     BYTE      AUXR2
      000000EFH   SFRSYM    DATA     BYTE      AUXINTIF
      000000FDH   SFRSYM    DATA     BYTE      S4CON
      000000ACH   SFRSYM    DATA     BYTE      S3CON
      0000009AH   SFRSYM    DATA     BYTE      S2CON
      000000B7H   SFRSYM    DATA     BYTE      IPH
      000000CDH   SFRSYM    DATA     BYTE      SPSTAT
      000000DDH   SFRSYM    DATA     BYTE      T4T3M
      000000C1H   SFRSYM    DATA     BYTE      WDT_CONTR
      000000DFH   SFRSYM    DATA     BYTE      IP3
      000000F4H   SFRSYM    DATA     BYTE      USBCON
      000000B5H   SFRSYM    DATA     BYTE      IP2
      000000FFH   SFRSYM    DATA     BYTE      RSTCFG
      000000C7H   SFRSYM    DATA     BYTE      IAP_CONTR
      0000008EH   SFRSYM    DATA     BYTE      AUXR
      000000AFH   SFRSYM    DATA     BYTE      IE2
      00000088H   SFRSYM    DATA     BYTE      TCON
      00000089H   SFRSYM    DATA     BYTE      TMOD
      00000098H   SFRSYM    DATA     BYTE      SCON
      00000087H   SFRSYM    DATA     BYTE      PCON
      000000BCH   SFRSYM    DATA     BYTE      ADC_CONTR
      000000D1H   SFRSYM    DATA     BYTE      PSW1
      000000E7H   SFRSYM    DATA     BYTE      CMPCR2
      000000E6H   SFRSYM    DATA     BYTE      CMPCR1
      000000DEH   SFRSYM    DATA     BYTE      ADCCFG
      000000B8H   SFRSYM    DATA     BYTE      IP
      0000008FH   SFRSYM    DATA     BYTE      INTCLKO
      000000EEH   SFRSYM    DATA     BYTE      IP3H
      000000B6H   SFRSYM    DATA     BYTE      IP2H
      000000BFH   SFRSYM    DATA     BYTE      P_SW4
L251 LINKER/LOCATER V4.66.93.0                                                        10/15/2025  21:40:28  PAGE 119


      000000A8H   SFRSYM    DATA     BYTE      IE
      000000BBH   SFRSYM    DATA     BYTE      P_SW3
      000000BAH   SFRSYM    DATA     BYTE      P_SW2
      000000A2H   SFRSYM    DATA     BYTE      P_SW1
      000000CEH   SFRSYM    DATA     BYTE      SPCTL
      000000F8H   SFRSYM    DATA     BYTE      P7
      000000A8H.7 SFRSYM    DATA     BIT       EA
      000000E8H   SFRSYM    DATA     BYTE      P6
      000000C8H   SFRSYM    DATA     BYTE      P5
      000000C0H   SFRSYM    DATA     BYTE      P4
      000000ABH   SFRSYM    DATA     BYTE      WKTCH
      000000B0H   SFRSYM    DATA     BYTE      P3
      000000A0H   SFRSYM    DATA     BYTE      P2
      00000090H   SFRSYM    DATA     BYTE      P1
      00000080H   SFRSYM    DATA     BYTE      P0
      00FFC6A9H   SYMBOL    HCONST   ---       ?tpl?0001
      00FFC8A9H   SYMBOL    HCONST   ---       ?tpl?0002
      00FFCAA9H   SYMBOL    HCONST   ---       ?tpl?0003
      DR12        REGSYM    ---      DWORD     sector_start
      DR4         REGSYM    ---      DWORD     array_size
      DR4         REGSYM    ---      DWORD     sector_start
      DR28        REGSYM    ---      DWORD     addr
      REG=3       REGSYM    ---      ---       float_ptr
      R10         REGSYM    ---      BYTE      i
      DR0         REGSYM    ---      DWORD     addr
      REG=2       REGSYM    ---      ---       float_ptr

      ---         MODULE    ---      ---       function
      00FFB605H   PUBLIC    CODE     ---       CAR_STOP
      00FF0046H   PUBLIC    CODE     ---       Servo_Init
      00FFAAB4H   PUBLIC    CODE     ---       Motor_Init
      00FF5425H   PUBLIC    CODE     ---       Show_pararm
      00FFB545H   PUBLIC    CODE     ---       speed_control_ring
      00FFA596H   PUBLIC    CODE     ---       unification
      00FF7C66H   PUBLIC    CODE     ---       Turn_mode_Init
      00FF8C26H   PUBLIC    CODE     ---       Speed_Control
      00FFB66AH   PUBLIC    CODE     ---       GO_Function
      00FFAB9DH   PUBLIC    CODE     ---       init_all
      00FF9417H   PUBLIC    CODE     ---       Servo_Control
      00FF9D9AH   PUBLIC    CODE     ---       fast_sqrt
      00FFB330H   PUBLIC    CODE     ---       Protect
      00FF0026H   PUBLIC    CODE     ---       enconder_init
      00FFB4BCH   PUBLIC    CODE     ---       show_test_info
      00010F71H   PUBLIC    XDATA    BYTE      Key_Flag
      00010F72H   PUBLIC    XDATA    INT       T3
      00010F74H   PUBLIC    XDATA    INT       encoder_data_dir_1
      00010F76H   PUBLIC    XDATA    INT       encoder_data_dir_2
      00010F78H   PUBLIC    XDATA    BYTE      GO_PID_Control
      00010F79H   PUBLIC    XDATA    BYTE      Init_Fg
      00010F7AH   PUBLIC    XDATA    BYTE      ADC_Show_Flag
      00010F7BH   PUBLIC    XDATA    BYTE      GO_PID_Control1
      00010F7CH   PUBLIC    XDATA    BYTE      GO_PID_Control2
      00010F7DH   PUBLIC    XDATA    ---       M_Right_pid
      00010FA9H   PUBLIC    XDATA    BYTE      GO_PID_Control3
      00010FAAH   PUBLIC    XDATA    ---       servo_pid
      00010FD6H   PUBLIC    XDATA    INT       Speed_Mode
      00010FD8H   PUBLIC    XDATA    INT       Set_T
      00010FDAH   PUBLIC    XDATA    BYTE      Protect_flag
      00010FDBH   PUBLIC    XDATA    INT       dajiao
      00010FDDH   PUBLIC    XDATA    BYTE      Servo_Flag
      00010FDEH   PUBLIC    XDATA    ---       M_left_pid
      000000D0H   SFRSYM    DATA     BYTE      PSW
      0000009DH   SFRSYM    DATA     BYTE      IRCBAND
      00000097H   SFRSYM    DATA     BYTE      AUXR2
      000000EFH   SFRSYM    DATA     BYTE      AUXINTIF
L251 LINKER/LOCATER V4.66.93.0                                                        10/15/2025  21:40:28  PAGE 120


      000000FDH   SFRSYM    DATA     BYTE      S4CON
      000000ACH   SFRSYM    DATA     BYTE      S3CON
      0000009AH   SFRSYM    DATA     BYTE      S2CON
      000000B7H   SFRSYM    DATA     BYTE      IPH
      000000CDH   SFRSYM    DATA     BYTE      SPSTAT
      000000DDH   SFRSYM    DATA     BYTE      T4T3M
      000000C1H   SFRSYM    DATA     BYTE      WDT_CONTR
      000000DFH   SFRSYM    DATA     BYTE      IP3
      000000F4H   SFRSYM    DATA     BYTE      USBCON
      000000B5H   SFRSYM    DATA     BYTE      IP2
      000000FFH   SFRSYM    DATA     BYTE      RSTCFG
      000000C7H   SFRSYM    DATA     BYTE      IAP_CONTR
      0000008EH   SFRSYM    DATA     BYTE      AUXR
      000000AFH   SFRSYM    DATA     BYTE      IE2
      00000088H   SFRSYM    DATA     BYTE      TCON
      00000089H   SFRSYM    DATA     BYTE      TMOD
      00000098H   SFRSYM    DATA     BYTE      SCON
      00000087H   SFRSYM    DATA     BYTE      PCON
      000000BCH   SFRSYM    DATA     BYTE      ADC_CONTR
      000000D1H   SFRSYM    DATA     BYTE      PSW1
      000000E7H   SFRSYM    DATA     BYTE      CMPCR2
      000000E6H   SFRSYM    DATA     BYTE      CMPCR1
      000000DEH   SFRSYM    DATA     BYTE      ADCCFG
      000000B8H   SFRSYM    DATA     BYTE      IP
      0000008FH   SFRSYM    DATA     BYTE      INTCLKO
      000000EEH   SFRSYM    DATA     BYTE      IP3H
      000000B6H   SFRSYM    DATA     BYTE      IP2H
      000000BFH   SFRSYM    DATA     BYTE      P_SW4
      000000A8H   SFRSYM    DATA     BYTE      IE
      000000BBH   SFRSYM    DATA     BYTE      P_SW3
      000000BAH   SFRSYM    DATA     BYTE      P_SW2
      000000A2H   SFRSYM    DATA     BYTE      P_SW1
      000000CEH   SFRSYM    DATA     BYTE      SPCTL
      000000F8H   SFRSYM    DATA     BYTE      P7
      000000A8H.7 SFRSYM    DATA     BIT       EA
      000000E8H   SFRSYM    DATA     BYTE      P6
      000000C8H   SFRSYM    DATA     BYTE      P5
      000000C0H   SFRSYM    DATA     BYTE      P4
      000000ABH   SFRSYM    DATA     BYTE      WKTCH
      000000B0H   SFRSYM    DATA     BYTE      P3
      000000A0H   SFRSYM    DATA     BYTE      P2
      00000090H   SFRSYM    DATA     BYTE      P1
      00000080H   SFRSYM    DATA     BYTE      P0
      REG=6       REGSYM    ---      ---       PID
      DR28        REGSYM    ---      FLOAT     NowData

      00FFA596H   BLOCK     CODE     ---       LVL=0
      00FFA598H   BLOCK     CODE     NEAR LAB  LVL=1
      0001100AH   SYMBOL    XDATA    INT       left_1
      WR6         REGSYM    ---      INT       left_2
      WR10        REGSYM    ---      INT       right_2
      WR2         REGSYM    ---      INT       right_1
      0001100CH   SYMBOL    XDATA    LONG      he
      ---         BLOCKEND  ---      ---       LVL=1
      00FFA596H   LINE      CODE     ---       #45
      00FFA598H   LINE      CODE     ---       #46
      00FFA598H   LINE      CODE     ---       #47
      00FFA5A4H   LINE      CODE     ---       #48
      00FFA5AAH   LINE      CODE     ---       #49
      00FFA5B0H   LINE      CODE     ---       #50
      00FFA5B6H   LINE      CODE     ---       #52
      00FFA5CAH   LINE      CODE     ---       #53
      00FFA5DEH   LINE      CODE     ---       #54
      00FFA61EH   LINE      CODE     ---       #55
      ---         BLOCKEND  ---      ---       LVL=0
L251 LINKER/LOCATER V4.66.93.0                                                        10/15/2025  21:40:28  PAGE 121



      00FF9D9AH   BLOCK     CODE     ---       LVL=0
      DR12        REGSYM    ---      FLOAT     number
      00FF9D9EH   BLOCK     CODE     NEAR LAB  LVL=1
      00011010H   SYMBOL    XDATA    DWORD     i
      00011014H   SYMBOL    XDATA    FLOAT     x
      ---         BLOCKEND  ---      ---       LVL=1
      00FF9D9AH   LINE      CODE     ---       #57
      00FF9D9EH   LINE      CODE     ---       #58
      00FF9D9EH   LINE      CODE     ---       #60
      00FF9DA8H   LINE      CODE     ---       #62
      00FF9DB6H   LINE      CODE     ---       #64
      00FF9DD1H   LINE      CODE     ---       #66
      00FF9DF6H   LINE      CODE     ---       #68
      00FF9E11H   LINE      CODE     ---       #70
      00FF9E40H   LINE      CODE     ---       #71
      00FF9E4AH   LINE      CODE     ---       #72
      ---         BLOCKEND  ---      ---       LVL=0

      00FFAAB4H   BLOCK     CODE     ---       LVL=0
      00FFAAB4H   LINE      CODE     ---       #74
      00FFAAB4H   LINE      CODE     ---       #76
      00FFAACDH   LINE      CODE     ---       #77
      00FFAAE4H   LINE      CODE     ---       #78
      00FFAAFBH   LINE      CODE     ---       #79
      00FFAB12H   LINE      CODE     ---       #80
      00FFAB29H   LINE      CODE     ---       #81
      ---         BLOCKEND  ---      ---       LVL=0

      00FF0046H   BLOCK     CODE     ---       LVL=0
      00FF0046H   LINE      CODE     ---       #84
      00FF0046H   LINE      CODE     ---       #86
      00FF005FH   LINE      CODE     ---       #87
      ---         BLOCKEND  ---      ---       LVL=0

      00FFB605H   BLOCK     CODE     ---       LVL=0
      00FFB605H   LINE      CODE     ---       #88
      00FFB605H   LINE      CODE     ---       #90
      00FFB60AH   LINE      CODE     ---       #91
      00FFB60FH   LINE      CODE     ---       #92
      00FFB616H   LINE      CODE     ---       #93
      ---         BLOCKEND  ---      ---       LVL=0

      00FFB330H   BLOCK     CODE     ---       LVL=0
      00FFB330H   LINE      CODE     ---       #96
      00FFB330H   LINE      CODE     ---       #98
      00FFB336H   LINE      CODE     ---       #100
      00FFB367H   LINE      CODE     ---       #102
      00FFB36DH   LINE      CODE     ---       #103
      00FFB36DH   LINE      CODE     ---       #105
      ---         BLOCKEND  ---      ---       LVL=0

      00FFAB9DH   BLOCK     CODE     ---       LVL=0
      00FFAB9DH   LINE      CODE     ---       #107
      00FFAB9DH   LINE      CODE     ---       #109
      00FFAB9FH   LINE      CODE     ---       #111
      00FFABA6H   LINE      CODE     ---       #112
      00FFABA9H   LINE      CODE     ---       #113
      00FFABACH   LINE      CODE     ---       #115
      00FFABB5H   LINE      CODE     ---       #116
      00FFABBCH   LINE      CODE     ---       #117
      00FFABBFH   LINE      CODE     ---       #118
      00FFABC2H   LINE      CODE     ---       #119
      00FFABC5H   LINE      CODE     ---       #122
      00FFABC8H   LINE      CODE     ---       #123
L251 LINKER/LOCATER V4.66.93.0                                                        10/15/2025  21:40:28  PAGE 122


      00FFABCBH   LINE      CODE     ---       #124
      00FFABD2H   LINE      CODE     ---       #125
      00FFABDDH   LINE      CODE     ---       #127
      00FFABE0H   LINE      CODE     ---       #128
      00FFABE7H   LINE      CODE     ---       #130
      00FFAC0CH   LINE      CODE     ---       #132
      00FFAC0EH   LINE      CODE     ---       #134
      ---         BLOCKEND  ---      ---       LVL=0

      00FFB4BCH   BLOCK     CODE     ---       LVL=0
      REG=3       REGSYM    ---      ---       info
      00FFB4BCH   LINE      CODE     ---       #135
      00FFB4C0H   LINE      CODE     ---       #137
      00FFB4C7H   LINE      CODE     ---       #138
      00FFB4CEH   LINE      CODE     ---       #139
      00FFB4D9H   LINE      CODE     ---       #140
      00FFB4E0H   LINE      CODE     ---       #141
      00FFB4E7H   LINE      CODE     ---       #143
      ---         BLOCKEND  ---      ---       LVL=0

      00FF7C66H   BLOCK     CODE     ---       LVL=0
      00FF7C66H   LINE      CODE     ---       #145
      00FF7C66H   LINE      CODE     ---       #147
      00FF7C68H   LINE      CODE     ---       #148
      00FF7C97H   LINE      CODE     ---       #150
      00FF7C97H   LINE      CODE     ---       #152
      00FF7C9AH   LINE      CODE     ---       #153
      00FF7C9DH   LINE      CODE     ---       #154
      00FF7CA2H   LINE      CODE     ---       #155
      00FF7CA8H   LINE      CODE     ---       #157
      00FF7CADH   LINE      CODE     ---       #158
      00FF7CB8H   LINE      CODE     ---       #159
      00FF7CBBH   LINE      CODE     ---       #160
      00FF7CBEH   LINE      CODE     ---       #161
      00FF7CC1H   LINE      CODE     ---       #162
      00FF7CC4H   LINE      CODE     ---       #163
      00FF7CC9H   LINE      CODE     ---       #164
      00FF7CCEH   LINE      CODE     ---       #165
      00FF7CD3H   LINE      CODE     ---       #166
      00FF7CD8H   LINE      CODE     ---       #167
      00FF7CDBH   LINE      CODE     ---       #169
      00FF7CDBH   LINE      CODE     ---       #171
      00FF7CE0H   LINE      CODE     ---       #172
      00FF7CE5H   LINE      CODE     ---       #174
      00FF7CF8H   LINE      CODE     ---       #175
      00FF7CFEH   LINE      CODE     ---       #177
      00FF7D09H   LINE      CODE     ---       #178
      00FF7D0FH   LINE      CODE     ---       #180
      00FF7D12H   LINE      CODE     ---       #181
      00FF7D15H   LINE      CODE     ---       #182
      00FF7D18H   LINE      CODE     ---       #184
      00FF7D18H   LINE      CODE     ---       #186
      00FF7D1DH   LINE      CODE     ---       #187
      00FF7D22H   LINE      CODE     ---       #189
      00FF7D35H   LINE      CODE     ---       #190
      00FF7D3BH   LINE      CODE     ---       #192
      00FF7D46H   LINE      CODE     ---       #193
      00FF7D4CH   LINE      CODE     ---       #195
      00FF7D4FH   LINE      CODE     ---       #196
      00FF7D52H   LINE      CODE     ---       #197
      00FF7D55H   LINE      CODE     ---       #199
      00FF7D55H   LINE      CODE     ---       #201
      00FF7D5AH   LINE      CODE     ---       #202
      00FF7D5FH   LINE      CODE     ---       #204
      00FF7D72H   LINE      CODE     ---       #205
L251 LINKER/LOCATER V4.66.93.0                                                        10/15/2025  21:40:28  PAGE 123


      00FF7D78H   LINE      CODE     ---       #206
      00FF7D83H   LINE      CODE     ---       #207
      00FF7D89H   LINE      CODE     ---       #209
      00FF7D8CH   LINE      CODE     ---       #210
      00FF7D8FH   LINE      CODE     ---       #211
      00FF7D92H   LINE      CODE     ---       #213
      00FF7D92H   LINE      CODE     ---       #215
      00FF7D97H   LINE      CODE     ---       #216
      00FF7D9CH   LINE      CODE     ---       #218
      00FF7DAFH   LINE      CODE     ---       #219
      00FF7DB5H   LINE      CODE     ---       #220
      00FF7DC0H   LINE      CODE     ---       #221
      00FF7DC6H   LINE      CODE     ---       #224
      00FF7DC9H   LINE      CODE     ---       #225
      00FF7DCCH   LINE      CODE     ---       #226
      00FF7DCEH   LINE      CODE     ---       #228
      00FF7DCEH   LINE      CODE     ---       #230
      00FF7DD4H   LINE      CODE     ---       #231
      00FF7DD9H   LINE      CODE     ---       #232
      00FF7DE4H   LINE      CODE     ---       #233
      00FF7DE6H   LINE      CODE     ---       #235
      00FF7DE6H   LINE      CODE     ---       #237
      00FF7DECH   LINE      CODE     ---       #238
      00FF7DF1H   LINE      CODE     ---       #239
      00FF7DFCH   LINE      CODE     ---       #240
      00FF7DFEH   LINE      CODE     ---       #242
      00FF7DFEH   LINE      CODE     ---       #244
      00FF7E04H   LINE      CODE     ---       #245
      00FF7E0AH   LINE      CODE     ---       #246
      00FF7E0FH   LINE      CODE     ---       #247
      00FF7E1AH   LINE      CODE     ---       #248
      00FF7E1CH   LINE      CODE     ---       #250
      00FF7E1CH   LINE      CODE     ---       #252
      00FF7E22H   LINE      CODE     ---       #253
      00FF7E27H   LINE      CODE     ---       #254
      00FF7E32H   LINE      CODE     ---       #255
      00FF7E32H   LINE      CODE     ---       #257
      00FF7E32H   LINE      CODE     ---       #259
      00FF7E34H   LINE      CODE     ---       #260
      ---         BLOCKEND  ---      ---       LVL=0

      00FF5425H   BLOCK     CODE     ---       LVL=0
      00FF5425H   LINE      CODE     ---       #262
      00FF5425H   LINE      CODE     ---       #264
      00FF5455H   LINE      CODE     ---       #266
      00FF5455H   LINE      CODE     ---       #267
      00FF5455H   LINE      CODE     ---       #269
      00FF5495H   LINE      CODE     ---       #270
      00FF54D5H   LINE      CODE     ---       #271
      00FF54D8H   LINE      CODE     ---       #272
      00FF54D8H   LINE      CODE     ---       #274
      00FF54F6H   LINE      CODE     ---       #275
      00FF5518H   LINE      CODE     ---       #276
      00FF554FH   LINE      CODE     ---       #277
      00FF5586H   LINE      CODE     ---       #282
      00FF5589H   LINE      CODE     ---       #283
      00FF5589H   LINE      CODE     ---       #284
      00FF5589H   LINE      CODE     ---       #286
      00FF55C7H   LINE      CODE     ---       #287
      00FF5604H   LINE      CODE     ---       #288
      00FF5644H   LINE      CODE     ---       #289
      00FF5684H   LINE      CODE     ---       #290
      00FF56C1H   LINE      CODE     ---       #291
      00FF56C4H   LINE      CODE     ---       #292
      00FF56C4H   LINE      CODE     ---       #294
L251 LINKER/LOCATER V4.66.93.0                                                        10/15/2025  21:40:28  PAGE 124


      00FF5702H   LINE      CODE     ---       #295
      00FF573FH   LINE      CODE     ---       #296
      00FF577FH   LINE      CODE     ---       #297
      00FF57BFH   LINE      CODE     ---       #298
      00FF57FCH   LINE      CODE     ---       #299
      00FF57FFH   LINE      CODE     ---       #300
      00FF57FFH   LINE      CODE     ---       #302
      00FF583CH   LINE      CODE     ---       #303
      00FF587CH   LINE      CODE     ---       #304
      00FF58BCH   LINE      CODE     ---       #305
      00FF58F9H   LINE      CODE     ---       #306
      00FF58FCH   LINE      CODE     ---       #307
      00FF58FCH   LINE      CODE     ---       #309
      00FF591AH   LINE      CODE     ---       #310
      00FF593CH   LINE      CODE     ---       #311
      00FF595EH   LINE      CODE     ---       #312
      00FF5980H   LINE      CODE     ---       #316
      00FF5982H   LINE      CODE     ---       #317
      00FF5982H   LINE      CODE     ---       #319
      00FF59B1H   LINE      CODE     ---       #320
      00FF59B1H   LINE      CODE     ---       #321
      00FF59B1H   LINE      CODE     ---       #323
      ---         BLOCKEND  ---      ---       LVL=0

      00FFB66AH   BLOCK     CODE     ---       LVL=0
      00FFB66AH   LINE      CODE     ---       #333
      00FFB66AH   LINE      CODE     ---       #335
      00FFB671H   LINE      CODE     ---       #337
      00FFB674H   LINE      CODE     ---       #338
      00FFB679H   LINE      CODE     ---       #339
      ---         BLOCKEND  ---      ---       LVL=0

      00FF0026H   BLOCK     CODE     ---       LVL=0
      00FF0026H   LINE      CODE     ---       #342
      00FF0026H   LINE      CODE     ---       #344
      00FF0033H   LINE      CODE     ---       #345
      00FF0042H   LINE      CODE     ---       #346
      ---         BLOCKEND  ---      ---       LVL=0

      00FFB545H   BLOCK     CODE     ---       LVL=0
      00FFB545H   LINE      CODE     ---       #347
      00FFB545H   LINE      CODE     ---       #349
      00FFB556H   LINE      CODE     ---       #350
      00FFB563H   LINE      CODE     ---       #351
      00FFB568H   LINE      CODE     ---       #352
      00FFB56FH   LINE      CODE     ---       #353
      ---         BLOCKEND  ---      ---       LVL=0

      00FF8C26H   BLOCK     CODE     ---       LVL=0
      00FF8C26H   LINE      CODE     ---       #355
      00FF8C26H   LINE      CODE     ---       #357
      00FF8C41H   LINE      CODE     ---       #359
      00FF8C41H   LINE      CODE     ---       #361
      00FF8C5DH   LINE      CODE     ---       #362
      00FF8C79H   LINE      CODE     ---       #363
      00FF8C7CH   LINE      CODE     ---       #365
      00FF8C7CH   LINE      CODE     ---       #367
      00FF8C98H   LINE      CODE     ---       #368
      00FF8CB4H   LINE      CODE     ---       #369
      00FF8CB7H   LINE      CODE     ---       #371
      00FF8CB7H   LINE      CODE     ---       #373
      00FF8CD3H   LINE      CODE     ---       #374
      00FF8CEFH   LINE      CODE     ---       #375
      00FF8CF1H   LINE      CODE     ---       #377
      00FF8CF1H   LINE      CODE     ---       #379
L251 LINKER/LOCATER V4.66.93.0                                                        10/15/2025  21:40:28  PAGE 125


      00FF8D0DH   LINE      CODE     ---       #380
      00FF8D29H   LINE      CODE     ---       #381
      00FF8D2BH   LINE      CODE     ---       #383
      00FF8D2BH   LINE      CODE     ---       #385
      00FF8D30H   LINE      CODE     ---       #386
      00FF8D35H   LINE      CODE     ---       #387
      00FF8D41H   LINE      CODE     ---       #388
      00FF8D4DH   LINE      CODE     ---       #389
      00FF8D4DH   LINE      CODE     ---       #392
      00FF8D4DH   LINE      CODE     ---       #393
      ---         BLOCKEND  ---      ---       LVL=0

      00FF9417H   BLOCK     CODE     ---       LVL=0
      00FF9417H   LINE      CODE     ---       #395
      00FF9417H   LINE      CODE     ---       #397
      00FF9420H   LINE      CODE     ---       #399
      00FF942CH   LINE      CODE     ---       #401
      00FF9441H   LINE      CODE     ---       #402
      00FF9444H   LINE      CODE     ---       #403
      00FF9450H   LINE      CODE     ---       #405
      00FF9467H   LINE      CODE     ---       #406
      00FF946AH   LINE      CODE     ---       #409
      00FF9499H   LINE      CODE     ---       #410
      00FF94AEH   LINE      CODE     ---       #412
      00FF94AEH   LINE      CODE     ---       #413
      00FF94B0H   LINE      CODE     ---       #416
      00FF94DFH   LINE      CODE     ---       #417
      00FF94F4H   LINE      CODE     ---       #419
      00FF94F4H   LINE      CODE     ---       #420
      ---         BLOCKEND  ---      ---       LVL=0

      ---         MODULE    ---      ---       Key
      00FF8E70H   PUBLIC    CODE     ---       Key_scaner
      00FF9B71H   PUBLIC    CODE     ---       Turn_mode
      00FFB130H   PUBLIC    CODE     ---       Key_Number
      000112A9H   PUBLIC    XDATA    BYTE      State
      000112AAH   PUBLIC    XDATA    INT       Trigg_time
      000112ACH   PUBLIC    XDATA    INT       Press_time
      000112AEH   PUBLIC    XDATA    BYTE      Key_count
      000112AFH   PUBLIC    XDATA    WORD      Time_dou
      000112B1H   PUBLIC    XDATA    BYTE      keynumber
      000112B2H   PUBLIC    XDATA    BYTE      last_keynumber
      000112B3H   PUBLIC    XDATA    BYTE      Init_Flag
      00FFD5A9H   PUBLIC    HCONST   ---       mode_map
      000000D0H   SFRSYM    DATA     BYTE      PSW
      0000009DH   SFRSYM    DATA     BYTE      IRCBAND
      00000097H   SFRSYM    DATA     BYTE      AUXR2
      000000EFH   SFRSYM    DATA     BYTE      AUXINTIF
      000000FDH   SFRSYM    DATA     BYTE      S4CON
      000000ACH   SFRSYM    DATA     BYTE      S3CON
      0000009AH   SFRSYM    DATA     BYTE      S2CON
      000000B7H   SFRSYM    DATA     BYTE      IPH
      000000CDH   SFRSYM    DATA     BYTE      SPSTAT
      000000DDH   SFRSYM    DATA     BYTE      T4T3M
      000000C1H   SFRSYM    DATA     BYTE      WDT_CONTR
      000000DFH   SFRSYM    DATA     BYTE      IP3
      000000F4H   SFRSYM    DATA     BYTE      USBCON
      000000B5H   SFRSYM    DATA     BYTE      IP2
      000000FFH   SFRSYM    DATA     BYTE      RSTCFG
      000000C7H   SFRSYM    DATA     BYTE      IAP_CONTR
      0000008EH   SFRSYM    DATA     BYTE      AUXR
      000000AFH   SFRSYM    DATA     BYTE      IE2
      00000088H   SFRSYM    DATA     BYTE      TCON
      00000089H   SFRSYM    DATA     BYTE      TMOD
      00000098H   SFRSYM    DATA     BYTE      SCON
L251 LINKER/LOCATER V4.66.93.0                                                        10/15/2025  21:40:28  PAGE 126


      00000087H   SFRSYM    DATA     BYTE      PCON
      000000BCH   SFRSYM    DATA     BYTE      ADC_CONTR
      000000D1H   SFRSYM    DATA     BYTE      PSW1
      000000E7H   SFRSYM    DATA     BYTE      CMPCR2
      000000E6H   SFRSYM    DATA     BYTE      CMPCR1
      000000DEH   SFRSYM    DATA     BYTE      ADCCFG
      000000B8H   SFRSYM    DATA     BYTE      IP
      0000008FH   SFRSYM    DATA     BYTE      INTCLKO
      000000EEH   SFRSYM    DATA     BYTE      IP3H
      000000B6H   SFRSYM    DATA     BYTE      IP2H
      000000BFH   SFRSYM    DATA     BYTE      P_SW4
      000000A8H   SFRSYM    DATA     BYTE      IE
      000000BBH   SFRSYM    DATA     BYTE      P_SW3
      000000BAH   SFRSYM    DATA     BYTE      P_SW2
      000000A2H   SFRSYM    DATA     BYTE      P_SW1
      000000CEH   SFRSYM    DATA     BYTE      SPCTL
      000000F8H   SFRSYM    DATA     BYTE      P7
      000000E8H   SFRSYM    DATA     BYTE      P6
      000000C8H   SFRSYM    DATA     BYTE      P5
      000000C0H   SFRSYM    DATA     BYTE      P4
      000000ABH   SFRSYM    DATA     BYTE      WKTCH
      000000B0H   SFRSYM    DATA     BYTE      P3
      000000A0H   SFRSYM    DATA     BYTE      P2
      00000090H   SFRSYM    DATA     BYTE      P1
      00000080H   SFRSYM    DATA     BYTE      P0

      00FFB130H   BLOCK     CODE     ---       LVL=0
      00FFB132H   BLOCK     CODE     NEAR LAB  LVL=1
      R15         REGSYM    ---      BYTE      KeyNumber
      ---         BLOCKEND  ---      ---       LVL=1
      00FFB130H   LINE      CODE     ---       #26
      00FFB132H   LINE      CODE     ---       #27
      00FFB132H   LINE      CODE     ---       #28
      00FFB134H   LINE      CODE     ---       #42
      00FFB140H   LINE      CODE     ---       #43
      00FFB14CH   LINE      CODE     ---       #44
      00FFB158H   LINE      CODE     ---       #45
      00FFB164H   LINE      CODE     ---       #46
      00FFB170H   LINE      CODE     ---       #47
      00FFB172H   LINE      CODE     ---       #48
      ---         BLOCKEND  ---      ---       LVL=0

      00FF9B71H   BLOCK     CODE     ---       LVL=0
      WR8         REGSYM    ---      INT       i
      00FF9B71H   LINE      CODE     ---       #49
      00FF9B71H   LINE      CODE     ---       #50
      00FF9B71H   LINE      CODE     ---       #52
      00FF9B76H   LINE      CODE     ---       #54
      00FF9BA6H   LINE      CODE     ---       #56
      00FF9BDDH   LINE      CODE     ---       #57
      00FF9C18H   LINE      CODE     ---       #58
      00FF9C1EH   LINE      CODE     ---       #59
      00FF9C20H   LINE      CODE     ---       #60
      00FF9C20H   LINE      CODE     ---       #62
      00FF9C2BH   LINE      CODE     ---       #63
      ---         BLOCKEND  ---      ---       LVL=0

      00FF8E70H   BLOCK     CODE     ---       LVL=0
      00FF8E70H   LINE      CODE     ---       #64
      00FF8E70H   LINE      CODE     ---       #66
      00FF8E77H   LINE      CODE     ---       #67
      00FF8E8EH   LINE      CODE     ---       #69
      00FF8E8EH   LINE      CODE     ---       #71
      00FF8E97H   LINE      CODE     ---       #73
      00FF8E9DH   LINE      CODE     ---       #74
L251 LINKER/LOCATER V4.66.93.0                                                        10/15/2025  21:40:28  PAGE 127


      00FF8EA2H   LINE      CODE     ---       #75
      00FF8EA2H   LINE      CODE     ---       #76
      00FF8EA5H   LINE      CODE     ---       #78
      00FF8EA5H   LINE      CODE     ---       #80
      00FF8EABH   LINE      CODE     ---       #82
      00FF8EB0H   LINE      CODE     ---       #83
      00FF8EB3H   LINE      CODE     ---       #86
      00FF8EB9H   LINE      CODE     ---       #87
      00FF8ECCH   LINE      CODE     ---       #89
      00FF8ED2H   LINE      CODE     ---       #90
      00FF8EDAH   LINE      CODE     ---       #92
      00FF8EDAH   LINE      CODE     ---       #94
      00FF8EDDH   LINE      CODE     ---       #96
      00FF8EDDH   LINE      CODE     ---       #98
      00FF8EE3H   LINE      CODE     ---       #101
      00FF8EE9H   LINE      CODE     ---       #102
      00FF8EEEH   LINE      CODE     ---       #103
      00FF8EF6H   LINE      CODE     ---       #104
      00FF8EF9H   LINE      CODE     ---       #107
      00FF8F04H   LINE      CODE     ---       #108
      00FF8F10H   LINE      CODE     ---       #110
      00FF8F1BH   LINE      CODE     ---       #111
      00FF8F22H   LINE      CODE     ---       #113
      00FF8F25H   LINE      CODE     ---       #114
      00FF8F2BH   LINE      CODE     ---       #115
      00FF8F33H   LINE      CODE     ---       #116
      00FF8F38H   LINE      CODE     ---       #117
      00FF8F3AH   LINE      CODE     ---       #118
      00FF8F46H   LINE      CODE     ---       #120
      00FF8F4EH   LINE      CODE     ---       #121
      00FF8F56H   LINE      CODE     ---       #123
      00FF8F56H   LINE      CODE     ---       #125
      00FF8F56H   LINE      CODE     ---       #126
      00FF8F58H   LINE      CODE     ---       #128
      00FF8F58H   LINE      CODE     ---       #130
      00FF8F5EH   LINE      CODE     ---       #132
      00FF8F64H   LINE      CODE     ---       #133
      00FF8F74H   LINE      CODE     ---       #135
      00FF8F79H   LINE      CODE     ---       #136
      00FF8F81H   LINE      CODE     ---       #137
      00FF8F83H   LINE      CODE     ---       #141
      00FF8F89H   LINE      CODE     ---       #142
      00FF8F89H   LINE      CODE     ---       #143
      00FF8F89H   LINE      CODE     ---       #145
      00FF8F89H   LINE      CODE     ---       #146
      ---         BLOCKEND  ---      ---       LVL=0

      ---         MODULE    ---      ---       menu
      00FFAA3DH   PUBLIC    CODE     ---       Show_bujin
      00FFA948H   PUBLIC    CODE     ---       menu_Init
      00FFB4EAH   PUBLIC    CODE     ---       menu_handle_key
      00FF94F5H   PUBLIC    CODE     ---       handle_key1
      00FFB175H   PUBLIC    CODE     ---       handle_key2
      00FFAF6EH   PUBLIC    CODE     ---       handle_key3
      00FF99EEH   PUBLIC    CODE     ---       handle_key4
      00FF00A6H   PUBLIC    CODE     ---       handle_key5
      00FF9781H   PUBLIC    CODE     ---       Menu_SetChildren
      00FF019EH   PUBLIC    CODE     ---       Key3_handle1
      00FF9920H   PUBLIC    CODE     ---       Key3_handle2
      00FFA844H   PUBLIC    CODE     ---       Refesh_arrow
      00FF888FH   PUBLIC    CODE     ---       menu_display_content
      00FFB617H   PUBLIC    CODE     ---       show_all_menu
      00011278H   PUBLIC    XDATA    BYTE      Show_image_mode
      00011279H   PUBLIC    XDATA    FLOAT     bujin
      0001127DH   PUBLIC    XDATA    CHAR      mode
L251 LINKER/LOCATER V4.66.93.0                                                        10/15/2025  21:40:28  PAGE 128


      0001127EH   PUBLIC    XDATA    BYTE      Key
      0001127FH   PUBLIC    XDATA    CHAR      Start_Show_Row
      00011280H   PUBLIC    XDATA    CHAR      i
      00011281H   PUBLIC    XDATA    CHAR      j
      00011282H   PUBLIC    XDATA    CHAR      Key3_count
      00011283H   PUBLIC    XDATA    BYTE      Save_Flag
      00011284H   PUBLIC    XDATA    CHAR      Flag
      000000D0H   SFRSYM    DATA     BYTE      PSW
      0000009DH   SFRSYM    DATA     BYTE      IRCBAND
      00000097H   SFRSYM    DATA     BYTE      AUXR2
      000000EFH   SFRSYM    DATA     BYTE      AUXINTIF
      000000FDH   SFRSYM    DATA     BYTE      S4CON
      000000ACH   SFRSYM    DATA     BYTE      S3CON
      0000009AH   SFRSYM    DATA     BYTE      S2CON
      000000B7H   SFRSYM    DATA     BYTE      IPH
      000000CDH   SFRSYM    DATA     BYTE      SPSTAT
      000000DDH   SFRSYM    DATA     BYTE      T4T3M
      000000C1H   SFRSYM    DATA     BYTE      WDT_CONTR
      000000DFH   SFRSYM    DATA     BYTE      IP3
      000000F4H   SFRSYM    DATA     BYTE      USBCON
      000000B5H   SFRSYM    DATA     BYTE      IP2
      000000FFH   SFRSYM    DATA     BYTE      RSTCFG
      000000C7H   SFRSYM    DATA     BYTE      IAP_CONTR
      0000008EH   SFRSYM    DATA     BYTE      AUXR
      000000AFH   SFRSYM    DATA     BYTE      IE2
      00000088H   SFRSYM    DATA     BYTE      TCON
      00000089H   SFRSYM    DATA     BYTE      TMOD
      00000098H   SFRSYM    DATA     BYTE      SCON
      00000087H   SFRSYM    DATA     BYTE      PCON
      000000BCH   SFRSYM    DATA     BYTE      ADC_CONTR
      000000D1H   SFRSYM    DATA     BYTE      PSW1
      000000E7H   SFRSYM    DATA     BYTE      CMPCR2
      000000E6H   SFRSYM    DATA     BYTE      CMPCR1
      000000DEH   SFRSYM    DATA     BYTE      ADCCFG
      000000B8H   SFRSYM    DATA     BYTE      IP
      0000008FH   SFRSYM    DATA     BYTE      INTCLKO
      000000EEH   SFRSYM    DATA     BYTE      IP3H
      000000B6H   SFRSYM    DATA     BYTE      IP2H
      000000BFH   SFRSYM    DATA     BYTE      P_SW4
      000000A8H   SFRSYM    DATA     BYTE      IE
      000000BBH   SFRSYM    DATA     BYTE      P_SW3
      000000BAH   SFRSYM    DATA     BYTE      P_SW2
      000000A2H   SFRSYM    DATA     BYTE      P_SW1
      000000CEH   SFRSYM    DATA     BYTE      SPCTL
      000000F8H   SFRSYM    DATA     BYTE      P7
      000000E8H   SFRSYM    DATA     BYTE      P6
      000000C8H   SFRSYM    DATA     BYTE      P5
      000000C0H   SFRSYM    DATA     BYTE      P4
      000000ABH   SFRSYM    DATA     BYTE      WKTCH
      000000B0H   SFRSYM    DATA     BYTE      P3
      000000A0H   SFRSYM    DATA     BYTE      P2
      00000090H   SFRSYM    DATA     BYTE      P1
      00000080H   SFRSYM    DATA     BYTE      P0

      00FF9781H   BLOCK     CODE     ---       LVL=0
      REG=6       REGSYM    ---      ---       parent
      REG=7       REGSYM    ---      ---       child_indices
      00FF9781H   LINE      CODE     ---       #19
      00FF9785H   LINE      CODE     ---       #22
      00FF978CH   LINE      CODE     ---       #23
      00FF97A4H   LINE      CODE     ---       #24
      00FF97B3H   LINE      CODE     ---       #27
      00FF97BAH   LINE      CODE     ---       #29
      00FF97DEH   LINE      CODE     ---       #31
      00FF980EH   LINE      CODE     ---       #32
L251 LINKER/LOCATER V4.66.93.0                                                        10/15/2025  21:40:28  PAGE 129


      00FF982CH   LINE      CODE     ---       #33
      00FF9850H   LINE      CODE     ---       #36
      ---         BLOCKEND  ---      ---       LVL=0

      00FFA844H   BLOCK     CODE     ---       LVL=0
      00FFA844H   LINE      CODE     ---       #38
      00FFA844H   LINE      CODE     ---       #40
      00FFA84AH   LINE      CODE     ---       #42
      00FFA853H   LINE      CODE     ---       #44
      00FFA872H   LINE      CODE     ---       #45
      00FFA874H   LINE      CODE     ---       #48
      00FFA887H   LINE      CODE     ---       #49
      00FFA887H   LINE      CODE     ---       #50
      00FFA889H   LINE      CODE     ---       #53
      00FFA892H   LINE      CODE     ---       #55
      00FFA8B1H   LINE      CODE     ---       #56
      00FFA8B3H   LINE      CODE     ---       #59
      00FFA8C6H   LINE      CODE     ---       #60
      00FFA8C6H   LINE      CODE     ---       #61
      00FFA8C6H   LINE      CODE     ---       #62
      ---         BLOCKEND  ---      ---       LVL=0

      00FF888FH   BLOCK     CODE     ---       LVL=0
      00FF888FH   LINE      CODE     ---       #64
      00FF888FH   LINE      CODE     ---       #66
      00FF8897H   LINE      CODE     ---       #68
      00FF88CCH   LINE      CODE     ---       #69
      00FF894BH   LINE      CODE     ---       #71
      00FF89B1H   LINE      CODE     ---       #72
      00FF89C3H   LINE      CODE     ---       #74
      ---         BLOCKEND  ---      ---       LVL=0

      00FFAA3DH   BLOCK     CODE     ---       LVL=0
      00FFAA3DH   LINE      CODE     ---       #75
      00FFAA3DH   LINE      CODE     ---       #77
      00FFAA69H   LINE      CODE     ---       #79
      00FFAA7CH   LINE      CODE     ---       #80
      00FFAA8FH   LINE      CODE     ---       #81
      00FFAAA2H   LINE      CODE     ---       #82
      00FFAAB3H   LINE      CODE     ---       #83
      00FFAAB3H   LINE      CODE     ---       #84
      ---         BLOCKEND  ---      ---       LVL=0

      00FFB617H   BLOCK     CODE     ---       LVL=0
      00FFB617H   LINE      CODE     ---       #86
      00FFB617H   LINE      CODE     ---       #88
      00FFB61EH   LINE      CODE     ---       #89
      00FFB621H   LINE      CODE     ---       #90
      00FFB624H   LINE      CODE     ---       #91
      00FFB627H   LINE      CODE     ---       #92
      ---         BLOCKEND  ---      ---       LVL=0

      00FF94F5H   BLOCK     CODE     ---       LVL=0
      00FF94F5H   LINE      CODE     ---       #93
      00FF94F7H   LINE      CODE     ---       #95
      00FF94FDH   LINE      CODE     ---       #97
      00FF9506H   LINE      CODE     ---       #99
      00FF950CH   LINE      CODE     ---       #100
      00FF950CH   LINE      CODE     ---       #101
      00FF9515H   LINE      CODE     ---       #103
      00FF9534H   LINE      CODE     ---       #104
      00FF9536H   LINE      CODE     ---       #107
      00FF9545H   LINE      CODE     ---       #108
      00FF9554H   LINE      CODE     ---       #109
      00FF9563H   LINE      CODE     ---       #110
L251 LINKER/LOCATER V4.66.93.0                                                        10/15/2025  21:40:28  PAGE 130


      00FF956AH   LINE      CODE     ---       #111
      00FF956DH   LINE      CODE     ---       #112
      00FF956DH   LINE      CODE     ---       #113
      00FF9570H   LINE      CODE     ---       #114
      00FF9572H   LINE      CODE     ---       #115
      00FF9579H   LINE      CODE     ---       #117
      00FF95C2H   LINE      CODE     ---       #118
      00FF95C8H   LINE      CODE     ---       #119
      00FF95CBH   LINE      CODE     ---       #120
      00FF95CEH   LINE      CODE     ---       #121
      ---         BLOCKEND  ---      ---       LVL=0

      00FFB175H   BLOCK     CODE     ---       LVL=0
      00FFB175H   LINE      CODE     ---       #124
      00FFB175H   LINE      CODE     ---       #126
      00FFB18FH   LINE      CODE     ---       #127
      00FFB1A4H   LINE      CODE     ---       #129
      00FFB1B4H   LINE      CODE     ---       #130
      00FFB1B4H   LINE      CODE     ---       #131
      00FFB1B7H   LINE      CODE     ---       #133
      ---         BLOCKEND  ---      ---       LVL=0

      00FFAF6EH   BLOCK     CODE     ---       LVL=0
      00FFAF6EH   LINE      CODE     ---       #135
      00FFAF6EH   LINE      CODE     ---       #137
      00FFAF88H   LINE      CODE     ---       #138
      00FFAFAAH   LINE      CODE     ---       #140
      00FFAFBCH   LINE      CODE     ---       #141
      00FFAFBCH   LINE      CODE     ---       #142
      00FFAFBFH   LINE      CODE     ---       #143
      ---         BLOCKEND  ---      ---       LVL=0

      00FF99EEH   BLOCK     CODE     ---       LVL=0
      00FF99EEH   LINE      CODE     ---       #144
      00FF99F0H   LINE      CODE     ---       #146
      00FF99F7H   LINE      CODE     ---       #148
      00FF9A40H   LINE      CODE     ---       #149
      00FF9A46H   LINE      CODE     ---       #150
      00FF9A49H   LINE      CODE     ---       #151
      00FF9A4BH   LINE      CODE     ---       #152
      00FF9A51H   LINE      CODE     ---       #154
      00FF9A5AH   LINE      CODE     ---       #156
      00FF9A60H   LINE      CODE     ---       #157
      00FF9A60H   LINE      CODE     ---       #158
      00FF9A69H   LINE      CODE     ---       #160
      00FF9A72H   LINE      CODE     ---       #161
      00FF9A77H   LINE      CODE     ---       #162
      00FF9A94H   LINE      CODE     ---       #163
      00FF9A96H   LINE      CODE     ---       #166
      00FF9AA5H   LINE      CODE     ---       #167
      00FF9AACH   LINE      CODE     ---       #168
      00FF9AAFH   LINE      CODE     ---       #169
      00FF9AAFH   LINE      CODE     ---       #170
      00FF9AB2H   LINE      CODE     ---       #171
      ---         BLOCKEND  ---      ---       LVL=0

      00FF00A6H   BLOCK     CODE     ---       LVL=0
      00FF00A6H   LINE      CODE     ---       #173
      00FF00A6H   LINE      CODE     ---       #175
      00FF00ACH   LINE      CODE     ---       #178
      00FF00B7H   LINE      CODE     ---       #180
      00FF00BCH   LINE      CODE     ---       #181
      00FF00BFH   LINE      CODE     ---       #182
      00FF00BFH   LINE      CODE     ---       #183
      00FF00BFH   LINE      CODE     ---       #184
L251 LINKER/LOCATER V4.66.93.0                                                        10/15/2025  21:40:28  PAGE 131


      ---         BLOCKEND  ---      ---       LVL=0

      00FF019EH   BLOCK     CODE     ---       LVL=0
      00FF019EH   LINE      CODE     ---       #185
      00FF019EH   LINE      CODE     ---       #187
      00FF01A4H   LINE      CODE     ---       #188
      00FF01A7H   LINE      CODE     ---       #189
      ---         BLOCKEND  ---      ---       LVL=0

      00FF9920H   BLOCK     CODE     ---       LVL=0
      00FF9920H   LINE      CODE     ---       #190
      00FF9920H   LINE      CODE     ---       #192
      00FF9926H   LINE      CODE     ---       #195
      00FF992BH   LINE      CODE     ---       #196
      00FF992BH   LINE      CODE     ---       #197
      00FF994DH   LINE      CODE     ---       #199
      00FF9975H   LINE      CODE     ---       #200
      00FF997BH   LINE      CODE     ---       #201
      00FF9980H   LINE      CODE     ---       #202
      00FF998AH   LINE      CODE     ---       #203
      00FF998DH   LINE      CODE     ---       #204
      00FF998FH   LINE      CODE     ---       #205
      00FF99ACH   LINE      CODE     ---       #207
      00FF99C8H   LINE      CODE     ---       #208
      00FF99CEH   LINE      CODE     ---       #209
      00FF99D3H   LINE      CODE     ---       #210
      00FF99DDH   LINE      CODE     ---       #211
      00FF99E0H   LINE      CODE     ---       #212
      00FF99E0H   LINE      CODE     ---       #213
      00FF99EAH   LINE      CODE     ---       #214
      00FF99EDH   LINE      CODE     ---       #215
      ---         BLOCKEND  ---      ---       LVL=0

      00FFB4EAH   BLOCK     CODE     ---       LVL=0
      R7          REGSYM    ---      BYTE      Flag_Key
      00FFB4EAH   LINE      CODE     ---       #221
      00FFB4ECH   LINE      CODE     ---       #224
      00FFB500H   LINE      CODE     ---       #226
      00FFB505H   LINE      CODE     ---       #227
      00FFB50AH   LINE      CODE     ---       #228
      00FFB50FH   LINE      CODE     ---       #229
      00FFB514H   LINE      CODE     ---       #230
      00FFB517H   LINE      CODE     ---       #231
      00FFB517H   LINE      CODE     ---       #232
      ---         BLOCKEND  ---      ---       LVL=0

      00FFA948H   BLOCK     CODE     ---       LVL=0
      00FFA948H   LINE      CODE     ---       #237
      00FFA948H   LINE      CODE     ---       #239
      00FFA95BH   LINE      CODE     ---       #240
      00FFA96EH   LINE      CODE     ---       #241
      00FFA981H   LINE      CODE     ---       #242
      00FFA994H   LINE      CODE     ---       #243
      00FFA9A7H   LINE      CODE     ---       #244
      00FFA9BAH   LINE      CODE     ---       #245
      00FFA9BDH   LINE      CODE     ---       #246
      00FFA9C0H   LINE      CODE     ---       #247
      00FFA9C3H   LINE      CODE     ---       #249
      ---         BLOCKEND  ---      ---       LVL=0

      ---         MODULE    ---      ---       menu_font
      00010000H   PUBLIC    XDATA    ---       Page
      0001078CH   PUBLIC    XDATA    ---       Pin
      00010790H   PUBLIC    XDATA    ---       Num
      00010A00H   PUBLIC    XDATA    WORD      ADC_1
L251 LINKER/LOCATER V4.66.93.0                                                        10/15/2025  21:40:28  PAGE 132


      00010A02H   PUBLIC    XDATA    WORD      ADC_2
      00010A04H   PUBLIC    XDATA    WORD      ADC_3
      00010A06H   PUBLIC    XDATA    WORD      ADC_4
      00010A08H   PUBLIC    XDATA    WORD      ADC_5
      00010A0AH   PUBLIC    XDATA    WORD      ADC_6
      00010A0CH   PUBLIC    XDATA    ---       Page0_children
      00010A1AH   PUBLIC    XDATA    ---       Page1_children
      00010A28H   PUBLIC    XDATA    WORD      ADC_8
      00010A2AH   PUBLIC    XDATA    ---       Page2_children
      00010A38H   PUBLIC    XDATA    ---       Page3_children
      00010A46H   PUBLIC    XDATA    ---       Page4_children
      00010A54H   PUBLIC    XDATA    ---       Page5_children
      000000D0H   SFRSYM    DATA     BYTE      PSW
      0000009DH   SFRSYM    DATA     BYTE      IRCBAND
      00000097H   SFRSYM    DATA     BYTE      AUXR2
      000000EFH   SFRSYM    DATA     BYTE      AUXINTIF
      000000FDH   SFRSYM    DATA     BYTE      S4CON
      000000ACH   SFRSYM    DATA     BYTE      S3CON
      0000009AH   SFRSYM    DATA     BYTE      S2CON
      000000B7H   SFRSYM    DATA     BYTE      IPH
      000000CDH   SFRSYM    DATA     BYTE      SPSTAT
      000000DDH   SFRSYM    DATA     BYTE      T4T3M
      000000C1H   SFRSYM    DATA     BYTE      WDT_CONTR
      000000DFH   SFRSYM    DATA     BYTE      IP3
      000000F4H   SFRSYM    DATA     BYTE      USBCON
      000000B5H   SFRSYM    DATA     BYTE      IP2
      000000FFH   SFRSYM    DATA     BYTE      RSTCFG
      000000C7H   SFRSYM    DATA     BYTE      IAP_CONTR
      0000008EH   SFRSYM    DATA     BYTE      AUXR
      000000AFH   SFRSYM    DATA     BYTE      IE2
      00000088H   SFRSYM    DATA     BYTE      TCON
      00000089H   SFRSYM    DATA     BYTE      TMOD
      00000098H   SFRSYM    DATA     BYTE      SCON
      00000087H   SFRSYM    DATA     BYTE      PCON
      000000BCH   SFRSYM    DATA     BYTE      ADC_CONTR
      000000D1H   SFRSYM    DATA     BYTE      PSW1
      000000E7H   SFRSYM    DATA     BYTE      CMPCR2
      000000E6H   SFRSYM    DATA     BYTE      CMPCR1
      000000DEH   SFRSYM    DATA     BYTE      ADCCFG
      000000B8H   SFRSYM    DATA     BYTE      IP
      0000008FH   SFRSYM    DATA     BYTE      INTCLKO
      000000EEH   SFRSYM    DATA     BYTE      IP3H
      000000B6H   SFRSYM    DATA     BYTE      IP2H
      000000BFH   SFRSYM    DATA     BYTE      P_SW4
      000000A8H   SFRSYM    DATA     BYTE      IE
      000000BBH   SFRSYM    DATA     BYTE      P_SW3
      000000BAH   SFRSYM    DATA     BYTE      P_SW2
      000000A2H   SFRSYM    DATA     BYTE      P_SW1
      000000CEH   SFRSYM    DATA     BYTE      SPCTL
      000000F8H   SFRSYM    DATA     BYTE      P7
      000000E8H   SFRSYM    DATA     BYTE      P6
      000000C8H   SFRSYM    DATA     BYTE      P5
      000000C0H   SFRSYM    DATA     BYTE      P4
      000000ABH   SFRSYM    DATA     BYTE      WKTCH
      000000B0H   SFRSYM    DATA     BYTE      P3
      000000A0H   SFRSYM    DATA     BYTE      P2
      00000090H   SFRSYM    DATA     BYTE      P1
      00000080H   SFRSYM    DATA     BYTE      P0

      ---         MODULE    ---      ---       Device_Test
      00FFAF18H   PUBLIC    CODE     ---       Serve_Test
      00FFB628H   PUBLIC    CODE     ---       Set_Sevo
      00FFB459H   PUBLIC    CODE     ---       PWM_Test
      000000D0H   SFRSYM    DATA     BYTE      PSW
      0000009DH   SFRSYM    DATA     BYTE      IRCBAND
L251 LINKER/LOCATER V4.66.93.0                                                        10/15/2025  21:40:28  PAGE 133


      00000097H   SFRSYM    DATA     BYTE      AUXR2
      000000EFH   SFRSYM    DATA     BYTE      AUXINTIF
      000000FDH   SFRSYM    DATA     BYTE      S4CON
      000000ACH   SFRSYM    DATA     BYTE      S3CON
      0000009AH   SFRSYM    DATA     BYTE      S2CON
      000000B7H   SFRSYM    DATA     BYTE      IPH
      000000CDH   SFRSYM    DATA     BYTE      SPSTAT
      000000DDH   SFRSYM    DATA     BYTE      T4T3M
      000000C1H   SFRSYM    DATA     BYTE      WDT_CONTR
      000000DFH   SFRSYM    DATA     BYTE      IP3
      000000F4H   SFRSYM    DATA     BYTE      USBCON
      000000B5H   SFRSYM    DATA     BYTE      IP2
      000000FFH   SFRSYM    DATA     BYTE      RSTCFG
      000000C7H   SFRSYM    DATA     BYTE      IAP_CONTR
      0000008EH   SFRSYM    DATA     BYTE      AUXR
      000000AFH   SFRSYM    DATA     BYTE      IE2
      00000088H   SFRSYM    DATA     BYTE      TCON
      00000089H   SFRSYM    DATA     BYTE      TMOD
      00000098H   SFRSYM    DATA     BYTE      SCON
      00000087H   SFRSYM    DATA     BYTE      PCON
      000000BCH   SFRSYM    DATA     BYTE      ADC_CONTR
      000000D1H   SFRSYM    DATA     BYTE      PSW1
      000000E7H   SFRSYM    DATA     BYTE      CMPCR2
      000000E6H   SFRSYM    DATA     BYTE      CMPCR1
      000000DEH   SFRSYM    DATA     BYTE      ADCCFG
      000000B8H   SFRSYM    DATA     BYTE      IP
      0000008FH   SFRSYM    DATA     BYTE      INTCLKO
      000000EEH   SFRSYM    DATA     BYTE      IP3H
      000000B6H   SFRSYM    DATA     BYTE      IP2H
      000000BFH   SFRSYM    DATA     BYTE      P_SW4
      000000A8H   SFRSYM    DATA     BYTE      IE
      000000BBH   SFRSYM    DATA     BYTE      P_SW3
      000000BAH   SFRSYM    DATA     BYTE      P_SW2
      000000A2H   SFRSYM    DATA     BYTE      P_SW1
      000000CEH   SFRSYM    DATA     BYTE      SPCTL
      000000F8H   SFRSYM    DATA     BYTE      P7
      000000E8H   SFRSYM    DATA     BYTE      P6
      000000C8H   SFRSYM    DATA     BYTE      P5
      000000C0H   SFRSYM    DATA     BYTE      P4
      000000ABH   SFRSYM    DATA     BYTE      WKTCH
      000000B0H   SFRSYM    DATA     BYTE      P3
      000000A0H   SFRSYM    DATA     BYTE      P2
      00000090H   SFRSYM    DATA     BYTE      P1
      00000080H   SFRSYM    DATA     BYTE      P0

      00FFAF18H   BLOCK     CODE     ---       LVL=0
      00FFAF1AH   BLOCK     CODE     NEAR LAB  LVL=1
      R14         REGSYM    ---      BYTE      a
      R15         REGSYM    ---      BYTE      j
      ---         BLOCKEND  ---      ---       LVL=1
      00FFAF18H   LINE      CODE     ---       #3
      00FFAF1AH   LINE      CODE     ---       #4
      00FFAF1AH   LINE      CODE     ---       #8
      00FFAF1EH   LINE      CODE     ---       #10
      00FFAF22H   LINE      CODE     ---       #12
      00FFAF2BH   LINE      CODE     ---       #13
      00FFAF32H   LINE      CODE     ---       #14
      00FFAF40H   LINE      CODE     ---       #16
      00FFAF44H   LINE      CODE     ---       #18
      00FFAF4FH   LINE      CODE     ---       #19
      00FFAF56H   LINE      CODE     ---       #20
      00FFAF64H   LINE      CODE     ---       #22
      00FFAF6BH   LINE      CODE     ---       #23
      ---         BLOCKEND  ---      ---       LVL=0

L251 LINKER/LOCATER V4.66.93.0                                                        10/15/2025  21:40:28  PAGE 134


      00FFB459H   BLOCK     CODE     ---       LVL=0
      00FFB459H   LINE      CODE     ---       #25
      00FFB459H   LINE      CODE     ---       #27
      00FFB472H   LINE      CODE     ---       #28
      00FFB48BH   LINE      CODE     ---       #29
      ---         BLOCKEND  ---      ---       LVL=0

      00FFB628H   BLOCK     CODE     ---       LVL=0
      00FFB628H   LINE      CODE     ---       #31
      00FFB628H   LINE      CODE     ---       #33
      00FFB638H   LINE      CODE     ---       #34
      ---         BLOCKEND  ---      ---       LVL=0

      ---         MODULE    ---      ---       oled
      00FF3940H   PUBLIC    CODE     ---       asc2_0806
      00FF3B68H   PUBLIC    CODE     ---       asc2_1608
      00FF4158H   PUBLIC    CODE     ---       Hzk
      000000D0H   SFRSYM    DATA     BYTE      PSW
      0000009DH   SFRSYM    DATA     BYTE      IRCBAND
      00000097H   SFRSYM    DATA     BYTE      AUXR2
      000000EFH   SFRSYM    DATA     BYTE      AUXINTIF
      000000FDH   SFRSYM    DATA     BYTE      S4CON
      000000ACH   SFRSYM    DATA     BYTE      S3CON
      0000009AH   SFRSYM    DATA     BYTE      S2CON
      000000B7H   SFRSYM    DATA     BYTE      IPH
      000000CDH   SFRSYM    DATA     BYTE      SPSTAT
      000000DDH   SFRSYM    DATA     BYTE      T4T3M
      000000C1H   SFRSYM    DATA     BYTE      WDT_CONTR
      000000DFH   SFRSYM    DATA     BYTE      IP3
      000000F4H   SFRSYM    DATA     BYTE      USBCON
      000000B5H   SFRSYM    DATA     BYTE      IP2
      000000FFH   SFRSYM    DATA     BYTE      RSTCFG
      000000C7H   SFRSYM    DATA     BYTE      IAP_CONTR
      0000008EH   SFRSYM    DATA     BYTE      AUXR
      000000AFH   SFRSYM    DATA     BYTE      IE2
      00000088H   SFRSYM    DATA     BYTE      TCON
      00000089H   SFRSYM    DATA     BYTE      TMOD
      00000098H   SFRSYM    DATA     BYTE      SCON
      00000087H   SFRSYM    DATA     BYTE      PCON
      000000BCH   SFRSYM    DATA     BYTE      ADC_CONTR
      000000D1H   SFRSYM    DATA     BYTE      PSW1
      000000E7H   SFRSYM    DATA     BYTE      CMPCR2
      000000E6H   SFRSYM    DATA     BYTE      CMPCR1
      000000DEH   SFRSYM    DATA     BYTE      ADCCFG
      000000B8H   SFRSYM    DATA     BYTE      IP
      0000008FH   SFRSYM    DATA     BYTE      INTCLKO
      000000EEH   SFRSYM    DATA     BYTE      IP3H
      000000B6H   SFRSYM    DATA     BYTE      IP2H
      000000BFH   SFRSYM    DATA     BYTE      P_SW4
      000000A8H   SFRSYM    DATA     BYTE      IE
      000000BBH   SFRSYM    DATA     BYTE      P_SW3
      000000BAH   SFRSYM    DATA     BYTE      P_SW2
      000000A2H   SFRSYM    DATA     BYTE      P_SW1
      000000CEH   SFRSYM    DATA     BYTE      SPCTL
      000000F8H   SFRSYM    DATA     BYTE      P7
      000000E8H   SFRSYM    DATA     BYTE      P6
      000000C8H   SFRSYM    DATA     BYTE      P5
      000000C0H   SFRSYM    DATA     BYTE      P4
      000000ABH   SFRSYM    DATA     BYTE      WKTCH
      000000B0H   SFRSYM    DATA     BYTE      P3
      000000A0H   SFRSYM    DATA     BYTE      P2
      00000090H   SFRSYM    DATA     BYTE      P1
      00000080H   SFRSYM    DATA     BYTE      P0
      WR2         REGSYM    ---      WORD      ms
      WR0         REGSYM    ---      WORD      a
L251 LINKER/LOCATER V4.66.93.0                                                        10/15/2025  21:40:28  PAGE 135


      R15         REGSYM    ---      BYTE      i
      R15         REGSYM    ---      BYTE      i
      R15         REGSYM    ---      BYTE      dat
      R10         REGSYM    ---      BYTE      cmd
      R14         REGSYM    ---      BYTE      i
      R15         REGSYM    ---      BYTE      x
      R10         REGSYM    ---      BYTE      y
      R15         REGSYM    ---      BYTE      i
      R14         REGSYM    ---      BYTE      n
      R13         REGSYM    ---      BYTE      x
      R14         REGSYM    ---      BYTE      y
      R3          REGSYM    ---      BYTE      chr
      R15         REGSYM    ---      BYTE      sizey
      R12         REGSYM    ---      BYTE      facial
      R3          REGSYM    ---      BYTE      m
      R10         REGSYM    ---      BYTE      n
      WR6         REGSYM    ---      WORD      result
      WR14        REGSYM    ---      WORD      num
      R12         REGSYM    ---      BYTE      len
      R13         REGSYM    ---      BYTE      sizey
      REG=3       REGSYM    ---      ---       chr
      R12         REGSYM    ---      BYTE      x
      R13         REGSYM    ---      BYTE      y
      R14         REGSYM    ---      BYTE      no
      R15         REGSYM    ---      BYTE      sizey

      ---         MODULE    ---      ---       Strategy
      00FF9851H   PUBLIC    CODE     ---       if_Cycle
      00FF6B31H   PUBLIC    CODE     ---       State_of_road
      00FF8AF7H   PUBLIC    CODE     ---       Help_turn2
      000111E4H   PUBLIC    XDATA    WORD      Long_Time
      000111E6H   PUBLIC    XDATA    WORD      Short_Time
      000111E8H   PUBLIC    XDATA    BYTE      Road_Stat
      000111E9H   PUBLIC    XDATA    WORD      Entern_Continue_Time
      000111EBH   PUBLIC    XDATA    WORD      if2_time
      000111EDH   PUBLIC    XDATA    INT       turn_Value
      000111EFH   PUBLIC    XDATA    WORD      Entern_Delay_Time
      000111F1H   PUBLIC    XDATA    WORD      SLOW_Time
      000111F3H   PUBLIC    XDATA    WORD      Continue_Time
      000111F5H   PUBLIC    XDATA    WORD      Entern_Flag_Time
      000111F7H   PUBLIC    XDATA    BYTE      Enter_Flag_Left
      000111F8H   PUBLIC    XDATA    WORD      Accel_Time
      000111FAH   PUBLIC    XDATA    WORD      if_time
      000111FCH   PUBLIC    XDATA    INT       Mode_Flag
      000111FEH   PUBLIC    XDATA    WORD      Bend_Time
      00011200H   PUBLIC    XDATA    BYTE      Cycle_Stat
      000000D0H   SFRSYM    DATA     BYTE      PSW
      0000009DH   SFRSYM    DATA     BYTE      IRCBAND
      00000097H   SFRSYM    DATA     BYTE      AUXR2
      000000EFH   SFRSYM    DATA     BYTE      AUXINTIF
      000000FDH   SFRSYM    DATA     BYTE      S4CON
      000000ACH   SFRSYM    DATA     BYTE      S3CON
      0000009AH   SFRSYM    DATA     BYTE      S2CON
      000000B7H   SFRSYM    DATA     BYTE      IPH
      000000CDH   SFRSYM    DATA     BYTE      SPSTAT
      000000DDH   SFRSYM    DATA     BYTE      T4T3M
      000000C1H   SFRSYM    DATA     BYTE      WDT_CONTR
      000000DFH   SFRSYM    DATA     BYTE      IP3
      000000F4H   SFRSYM    DATA     BYTE      USBCON
      000000B5H   SFRSYM    DATA     BYTE      IP2
      000000FFH   SFRSYM    DATA     BYTE      RSTCFG
      000000C7H   SFRSYM    DATA     BYTE      IAP_CONTR
      0000008EH   SFRSYM    DATA     BYTE      AUXR
      000000AFH   SFRSYM    DATA     BYTE      IE2
      00000088H   SFRSYM    DATA     BYTE      TCON
L251 LINKER/LOCATER V4.66.93.0                                                        10/15/2025  21:40:28  PAGE 136


      00000089H   SFRSYM    DATA     BYTE      TMOD
      00000098H   SFRSYM    DATA     BYTE      SCON
      00000087H   SFRSYM    DATA     BYTE      PCON
      000000BCH   SFRSYM    DATA     BYTE      ADC_CONTR
      000000D1H   SFRSYM    DATA     BYTE      PSW1
      000000E7H   SFRSYM    DATA     BYTE      CMPCR2
      000000E6H   SFRSYM    DATA     BYTE      CMPCR1
      000000DEH   SFRSYM    DATA     BYTE      ADCCFG
      000000B8H   SFRSYM    DATA     BYTE      IP
      0000008FH   SFRSYM    DATA     BYTE      INTCLKO
      000000EEH   SFRSYM    DATA     BYTE      IP3H
      000000B6H   SFRSYM    DATA     BYTE      IP2H
      000000BFH   SFRSYM    DATA     BYTE      P_SW4
      000000A8H   SFRSYM    DATA     BYTE      IE
      000000BBH   SFRSYM    DATA     BYTE      P_SW3
      000000BAH   SFRSYM    DATA     BYTE      P_SW2
      000000A2H   SFRSYM    DATA     BYTE      P_SW1
      000000CEH   SFRSYM    DATA     BYTE      SPCTL
      000000F8H   SFRSYM    DATA     BYTE      P7
      000000E8H   SFRSYM    DATA     BYTE      P6
      000000C8H   SFRSYM    DATA     BYTE      P5
      000000C0H   SFRSYM    DATA     BYTE      P4
      000000ABH   SFRSYM    DATA     BYTE      WKTCH
      000000B0H   SFRSYM    DATA     BYTE      P3
      000000A0H   SFRSYM    DATA     BYTE      P2
      00000090H   SFRSYM    DATA     BYTE      P1
      00000080H   SFRSYM    DATA     BYTE      P0

      00FF9851H   BLOCK     CODE     ---       LVL=0
      00FF9851H   LINE      CODE     ---       #24
      00FF9851H   LINE      CODE     ---       #26
      00FF9866H   LINE      CODE     ---       #28
      00FF9866H   LINE      CODE     ---       #31
      00FF987EH   LINE      CODE     ---       #33
      00FF9889H   LINE      CODE     ---       #34
      00FF989CH   LINE      CODE     ---       #36
      00FF98A1H   LINE      CODE     ---       #37
      00FF98A9H   LINE      CODE     ---       #38
      00FF98ABH   LINE      CODE     ---       #42
      00FF98B3H   LINE      CODE     ---       #43
      00FF98B3H   LINE      CODE     ---       #44
      00FF98B5H   LINE      CODE     ---       #46
      00FF98B5H   LINE      CODE     ---       #48
      00FF98C0H   LINE      CODE     ---       #49
      00FF98D0H   LINE      CODE     ---       #51
      00FF98D6H   LINE      CODE     ---       #52
      00FF98DEH   LINE      CODE     ---       #53
      00FF98DEH   LINE      CODE     ---       #54
      00FF98E0H   LINE      CODE     ---       #56
      00FF98E0H   LINE      CODE     ---       #58
      00FF98E6H   LINE      CODE     ---       #59
      00FF98E9H   LINE      CODE     ---       #60
      00FF98F4H   LINE      CODE     ---       #61
      00FF9904H   LINE      CODE     ---       #63
      00FF990AH   LINE      CODE     ---       #64
      00FF9912H   LINE      CODE     ---       #65
      00FF9917H   LINE      CODE     ---       #66
      00FF991AH   LINE      CODE     ---       #67
      00FF991AH   LINE      CODE     ---       #68
      00FF991CH   LINE      CODE     ---       #70
      00FF991CH   LINE      CODE     ---       #72
      00FF991FH   LINE      CODE     ---       #73
      00FF991FH   LINE      CODE     ---       #75
      00FF991FH   LINE      CODE     ---       #77
      ---         BLOCKEND  ---      ---       LVL=0
L251 LINKER/LOCATER V4.66.93.0                                                        10/15/2025  21:40:28  PAGE 137


      WR2         REGSYM    ---      INT       left
      WR4         REGSYM    ---      INT       right

      00FF8AF7H   BLOCK     CODE     ---       LVL=0
      REG=7       REGSYM    ---      ---       temp
      WR10        REGSYM    ---      INT       value
      WR8         REGSYM    ---      INT       ADC_Flag
      00FF8AFDH   BLOCK     CODE     NEAR LAB  LVL=1
      00011201H   SYMBOL    XDATA    INT       count_left
      00011203H   SYMBOL    XDATA    INT       count_right
      00011205H   SYMBOL    XDATA    INT       last_direction
      WR4         REGSYM    ---      INT       left
      WR6         REGSYM    ---      INT       right
      WR0         REGSYM    ---      INT       threshold
      ---         BLOCKEND  ---      ---       LVL=1
      00FF8AF7H   LINE      CODE     ---       #104
      00FF8AFDH   LINE      CODE     ---       #105
      00FF8AFDH   LINE      CODE     ---       #109
      00FF8B0BH   LINE      CODE     ---       #110
      00FF8B19H   LINE      CODE     ---       #113
      00FF8B1DH   LINE      CODE     ---       #115
      00FF8B2BH   LINE      CODE     ---       #118
      00FF8B35H   LINE      CODE     ---       #121
      00FF8B39H   LINE      CODE     ---       #123
      00FF8B40H   LINE      CODE     ---       #124
      00FF8B4AH   LINE      CODE     ---       #125
      00FF8B4DH   LINE      CODE     ---       #128
      00FF8B50H   LINE      CODE     ---       #129
      00FF8B5AH   LINE      CODE     ---       #130
      00FF8B5AH   LINE      CODE     ---       #131
      00FF8B5DH   LINE      CODE     ---       #135
      00FF8B6DH   LINE      CODE     ---       #138
      00FF8B78H   LINE      CODE     ---       #139
      00FF8B80H   LINE      CODE     ---       #140
      00FF8B8DH   LINE      CODE     ---       #142
      00FF8B90H   LINE      CODE     ---       #143
      00FF8B9AH   LINE      CODE     ---       #144
      00FF8BA2H   LINE      CODE     ---       #145
      00FF8BA5H   LINE      CODE     ---       #147
      00FF8BB5H   LINE      CODE     ---       #150
      00FF8BC0H   LINE      CODE     ---       #151
      00FF8BC8H   LINE      CODE     ---       #152
      00FF8BD2H   LINE      CODE     ---       #154
      00FF8BD9H   LINE      CODE     ---       #155
      00FF8BE3H   LINE      CODE     ---       #156
      00FF8BEBH   LINE      CODE     ---       #157
      00FF8BEBH   LINE      CODE     ---       #159
      00FF8BEBH   LINE      CODE     ---       #160
      00FF8BEDH   LINE      CODE     ---       #161
      00FF8BF1H   LINE      CODE     ---       #164
      00FF8BF8H   LINE      CODE     ---       #165
      00FF8C02H   LINE      CODE     ---       #166
      00FF8C0AH   LINE      CODE     ---       #167
      00FF8C0CH   LINE      CODE     ---       #168
      00FF8C10H   LINE      CODE     ---       #171
      00FF8C13H   LINE      CODE     ---       #172
      00FF8C1DH   LINE      CODE     ---       #173
      00FF8C25H   LINE      CODE     ---       #174
      ---         BLOCKEND  ---      ---       LVL=0
      WR8         REGSYM    ---      INT       temp
      WR10        REGSYM    ---      INT       value
      WR2         REGSYM    ---      INT       value2
      WR0         REGSYM    ---      INT       ADC_Flag
      WR30        REGSYM    ---      INT       left
      WR4         REGSYM    ---      INT       right
L251 LINKER/LOCATER V4.66.93.0                                                        10/15/2025  21:40:28  PAGE 138



      00FF6B31H   BLOCK     CODE     ---       LVL=0
      00FF6B31H   LINE      CODE     ---       #214
      00FF6B31H   LINE      CODE     ---       #216
      00FF6B4EH   LINE      CODE     ---       #218
      00FF6B4EH   LINE      CODE     ---       #220
      00FF6B60H   LINE      CODE     ---       #221
      00FF6B92H   LINE      CODE     ---       #223
      00FF6B9DH   LINE      CODE     ---       #224
      00FF6BA5H   LINE      CODE     ---       #225
      00FF6BBEH   LINE      CODE     ---       #227
      00FF6BC6H   LINE      CODE     ---       #228
      00FF6BCCH   LINE      CODE     ---       #229
      00FF6BCEH   LINE      CODE     ---       #233
      00FF6BD6H   LINE      CODE     ---       #234
      00FF6BE1H   LINE      CODE     ---       #236
      00FF6BFAH   LINE      CODE     ---       #238
      00FF6C02H   LINE      CODE     ---       #239
      00FF6C08H   LINE      CODE     ---       #240
      00FF6C08H   LINE      CODE     ---       #242
      00FF6C08H   LINE      CODE     ---       #243
      00FF6C18H   LINE      CODE     ---       #244
      00FF6C18H   LINE      CODE     ---       #246
      00FF6C18H   LINE      CODE     ---       #248
      00FF6C2AH   LINE      CODE     ---       #249
      00FF6C35H   LINE      CODE     ---       #250
      00FF6C67H   LINE      CODE     ---       #252
      00FF6C72H   LINE      CODE     ---       #253
      00FF6C8BH   LINE      CODE     ---       #255
      00FF6C97H   LINE      CODE     ---       #257
      00FF6C9DH   LINE      CODE     ---       #258
      00FF6C9FH   LINE      CODE     ---       #261
      00FF6CA5H   LINE      CODE     ---       #262
      00FF6CA5H   LINE      CODE     ---       #263
      00FF6CADH   LINE      CODE     ---       #264
      00FF6CB5H   LINE      CODE     ---       #265
      00FF6CB7H   LINE      CODE     ---       #269
      00FF6CBFH   LINE      CODE     ---       #270
      00FF6CBFH   LINE      CODE     ---       #271
      00FF6CCFH   LINE      CODE     ---       #272
      00FF6CCFH   LINE      CODE     ---       #274
      00FF6CCFH   LINE      CODE     ---       #276
      00FF6CE1H   LINE      CODE     ---       #277
      00FF6D13H   LINE      CODE     ---       #279
      00FF6D1BH   LINE      CODE     ---       #280
      00FF6D1DH   LINE      CODE     ---       #283
      00FF6D28H   LINE      CODE     ---       #284
      00FF6D41H   LINE      CODE     ---       #286
      00FF6D49H   LINE      CODE     ---       #287
      00FF6D4EH   LINE      CODE     ---       #288
      00FF6D4EH   LINE      CODE     ---       #290
      00FF6D5EH   LINE      CODE     ---       #291
      00FF6D5EH   LINE      CODE     ---       #293
      00FF6D5EH   LINE      CODE     ---       #295
      00FF6D69H   LINE      CODE     ---       #296
      00FF6D82H   LINE      CODE     ---       #298
      00FF6D85H   LINE      CODE     ---       #299
      00FF6D97H   LINE      CODE     ---       #300
      00FF6D99H   LINE      CODE     ---       #303
      00FF6D9CH   LINE      CODE     ---       #305
      00FF6DAEH   LINE      CODE     ---       #306
      00FF6DAEH   LINE      CODE     ---       #308
      00FF6DE0H   LINE      CODE     ---       #310
      00FF6DEBH   LINE      CODE     ---       #311
      00FF6E04H   LINE      CODE     ---       #313
L251 LINKER/LOCATER V4.66.93.0                                                        10/15/2025  21:40:28  PAGE 139


      00FF6E07H   LINE      CODE     ---       #314
      00FF6E0FH   LINE      CODE     ---       #315
      00FF6E17H   LINE      CODE     ---       #316
      00FF6E1CH   LINE      CODE     ---       #317
      00FF6E1EH   LINE      CODE     ---       #322
      00FF6E26H   LINE      CODE     ---       #323
      00FF6E26H   LINE      CODE     ---       #324
      00FF6E3FH   LINE      CODE     ---       #326
      00FF6E4EH   LINE      CODE     ---       #327
      00FF6E4EH   LINE      CODE     ---       #330
      00FF6E5DH   LINE      CODE     ---       #331
      00FF6E5DH   LINE      CODE     ---       #333
      00FF6E5DH   LINE      CODE     ---       #335
      00FF6E5DH   LINE      CODE     ---       #337
      00FF6E60H   LINE      CODE     ---       #338
      00FF6E62H   LINE      CODE     ---       #339
      00FF6E62H   LINE      CODE     ---       #342
      00FF6E62H   LINE      CODE     ---       #343
      ---         BLOCKEND  ---      ---       LVL=0

      ---         MODULE    ---      ---       Buzzer
      00FF01AEH   PUBLIC    CODE     ---       Buzzer_ON
      00FF01BEH   PUBLIC    CODE     ---       Buzzer_OFF
      00FFB639H   PUBLIC    CODE     ---       Buzzer_Init
      000000D0H   SFRSYM    DATA     BYTE      PSW
      0000009DH   SFRSYM    DATA     BYTE      IRCBAND
      00000097H   SFRSYM    DATA     BYTE      AUXR2
      000000EFH   SFRSYM    DATA     BYTE      AUXINTIF
      000000FDH   SFRSYM    DATA     BYTE      S4CON
      000000ACH   SFRSYM    DATA     BYTE      S3CON
      0000009AH   SFRSYM    DATA     BYTE      S2CON
      000000B7H   SFRSYM    DATA     BYTE      IPH
      000000CDH   SFRSYM    DATA     BYTE      SPSTAT
      000000DDH   SFRSYM    DATA     BYTE      T4T3M
      000000C1H   SFRSYM    DATA     BYTE      WDT_CONTR
      000000DFH   SFRSYM    DATA     BYTE      IP3
      000000F4H   SFRSYM    DATA     BYTE      USBCON
      000000B5H   SFRSYM    DATA     BYTE      IP2
      000000FFH   SFRSYM    DATA     BYTE      RSTCFG
      000000C7H   SFRSYM    DATA     BYTE      IAP_CONTR
      0000008EH   SFRSYM    DATA     BYTE      AUXR
      000000AFH   SFRSYM    DATA     BYTE      IE2
      00000088H   SFRSYM    DATA     BYTE      TCON
      00000089H   SFRSYM    DATA     BYTE      TMOD
      00000098H   SFRSYM    DATA     BYTE      SCON
      00000087H   SFRSYM    DATA     BYTE      PCON
      000000BCH   SFRSYM    DATA     BYTE      ADC_CONTR
      000000D1H   SFRSYM    DATA     BYTE      PSW1
      000000E7H   SFRSYM    DATA     BYTE      CMPCR2
      000000E6H   SFRSYM    DATA     BYTE      CMPCR1
      000000DEH   SFRSYM    DATA     BYTE      ADCCFG
      000000B8H   SFRSYM    DATA     BYTE      IP
      0000008FH   SFRSYM    DATA     BYTE      INTCLKO
      000000EEH   SFRSYM    DATA     BYTE      IP3H
      000000B6H   SFRSYM    DATA     BYTE      IP2H
      000000BFH   SFRSYM    DATA     BYTE      P_SW4
      000000A8H   SFRSYM    DATA     BYTE      IE
      000000BBH   SFRSYM    DATA     BYTE      P_SW3
      000000BAH   SFRSYM    DATA     BYTE      P_SW2
      000000A2H   SFRSYM    DATA     BYTE      P_SW1
      000000CEH   SFRSYM    DATA     BYTE      SPCTL
      000000F8H   SFRSYM    DATA     BYTE      P7
      000000E8H   SFRSYM    DATA     BYTE      P6
      000000C8H   SFRSYM    DATA     BYTE      P5
      000000C0H   SFRSYM    DATA     BYTE      P4
L251 LINKER/LOCATER V4.66.93.0                                                        10/15/2025  21:40:28  PAGE 140


      000000ABH   SFRSYM    DATA     BYTE      WKTCH
      000000B0H   SFRSYM    DATA     BYTE      P3
      000000A0H   SFRSYM    DATA     BYTE      P2
      00000090H   SFRSYM    DATA     BYTE      P1
      00000080H   SFRSYM    DATA     BYTE      P0

      00FFB639H   BLOCK     CODE     ---       LVL=0
      00FFB639H   LINE      CODE     ---       #2
      00FFB639H   LINE      CODE     ---       #4
      00FFB649H   LINE      CODE     ---       #5
      ---         BLOCKEND  ---      ---       LVL=0

      00FF01AEH   BLOCK     CODE     ---       LVL=0
      00FF01AEH   LINE      CODE     ---       #6
      00FF01AEH   LINE      CODE     ---       #8
      00FF01B7H   LINE      CODE     ---       #9
      ---         BLOCKEND  ---      ---       LVL=0

      00FF01BEH   BLOCK     CODE     ---       LVL=0
      00FF01BEH   LINE      CODE     ---       #11
      00FF01BEH   LINE      CODE     ---       #13
      00FF01C6H   LINE      CODE     ---       #14
      ---         BLOCKEND  ---      ---       LVL=0

      ---         MODULE    ---      ---       ?C?DPADD
      00FF2225H   PUBLIC    CODE     ---       ?C?DPADD
      00FF2221H   PUBLIC    CODE     ---       ?C?DPSUB

      ---         MODULE    ---      ---       ?C?DPMUL
      00FF2334H   PUBLIC    CODE     ---       ?C?DPMUL

      ---         MODULE    ---      ---       ?C?DPDIV
      00FF2444H   PUBLIC    CODE     ---       ?C?DPDIV

      ---         MODULE    ---      ---       ?C?DPCMP
      00FF24E5H   PUBLIC    CODE     ---       ?C?DPCMP
      00FF24E3H   PUBLIC    CODE     ---       ?C?DPCMP3

      ---         MODULE    ---      ---       ?C?DPNEG
      00FF2544H   PUBLIC    CODE     ---       ?C?DPNEG

      ---         MODULE    ---      ---       ?C?DCAST
      00FF255CH   PUBLIC    CODE     NEAR LAB  ?C?DCASTC
      00FF2557H   PUBLIC    CODE     NEAR LAB  ?C?DCASTI
      00FF2552H   PUBLIC    CODE     NEAR LAB  ?C?DCASTL

      ---         MODULE    ---      ---       ?C?CASTD
      00FF259FH   PUBLIC    CODE     NEAR LAB  ?C?CASTD

      ---         MODULE    ---      ---       ?C?DCASTF
      00FF25FFH   PUBLIC    CODE     NEAR LAB  ?C?DCASTF

      ---         MODULE    ---      ---       ?C?FCASTD
      00FF2641H   PUBLIC    CODE     NEAR LAB  ?C?FCASTD

      ---         MODULE    ---      ---       PRINTF
      00011081H   PUBLIC    XDATA    ---       ?PRINTF?BYTE
      00FF2678H   PUBLIC    CODE     NEAR LAB  PRINTF

      ---         MODULE    ---      ---       SPRINTF
      00011032H   PUBLIC    XDATA    ---       ?SPRINTF?BYTE
      00FF26A4H   PUBLIC    CODE     NEAR LAB  SPRINTF

      ---         MODULE    ---      ---       SQRT?_
      00FF26CAH   PUBLIC    CODE     ---       SQRT?_
L251 LINKER/LOCATER V4.66.93.0                                                        10/15/2025  21:40:28  PAGE 141



      ---         MODULE    ---      ---       pow

      ---         MODULE    ---      ---       SIN?_
      00FF2818H   PUBLIC    CODE     ---       COS?_
      00FF2839H   PUBLIC    CODE     ---       SIN?_
      00FF286EH   PUBLIC    CODE     ---       TAN?_

      ---         MODULE    ---      ---       ATAN?_
      00FF29B0H   PUBLIC    CODE     ---       ATAN?_

      ---         MODULE    ---      ---       ASIN?_
      00FF2ACBH   PUBLIC    CODE     ---       ASIN?_

      ---         MODULE    ---      ---       ?C?DPGETOPN
      00FF2AF5H   PUBLIC    CODE     ---       ?C?DPGETOPN2
      00FF2B40H   PUBLIC    CODE     ---       ?C?DPNANRESULT
      00FF2B4CH   PUBLIC    CODE     ---       ?C?DPOVERFLOW
      00FF2B18H   PUBLIC    CODE     ---       ?C?DPRESULT
      00FF2B31H   PUBLIC    CODE     ---       ?C?DPRESULT2
      00FF2B47H   PUBLIC    CODE     ---       ?C?DPUNDERFLOW

      ---         MODULE    ---      ---       _CHKDOUBLE_?_
      00FF2B5AH   PUBLIC    CODE     ---       _CHKDOUBLE_?_

      ---         MODULE    ---      ---       ?C?PRNFMT
      00FF2BA5H   PUBLIC    CODE     ---       ?C?PRNFMT

      ---         MODULE    ---      ---       ?C?DPSERIES
      00FF2FD3H   PUBLIC    CODE     ---       ?C?DP2SERIES
      00FF2FDEH   PUBLIC    CODE     ---       ?C?DPSERIES

      ---         MODULE    ---      ---       EXP?_
      00FF30BAH   PUBLIC    CODE     ---       EXP?_

      ---         MODULE    ---      ---       LOG?_
      00FF31A3H   PUBLIC    CODE     NEAR LAB  LOG?_

      ---         MODULE    ---      ---       ?C?DPCONVERT
      00FF32BEH   PUBLIC    CODE     ---       ?C?DPCONVERT
      00FF33E5H   PUBLIC    CODE     ---       ?C?DPROUND

      ---         MODULE    ---      ---       ?C?DTNPWR
      00FF34C0H   PUBLIC    CODE     ---       ?C?DTNPWR

      ---         MODULE    ---      ---       ?C?FPGETOPN
      00FF3546H   PUBLIC    CODE     ---       ?C?FPGETOPN2
      00FF3583H   PUBLIC    CODE     ---       ?C?FPNANRESULT
      00FF358BH   PUBLIC    CODE     ---       ?C?FPOVERFLOW
      00FF355FH   PUBLIC    CODE     ---       ?C?FPRESULT
      00FF3575H   PUBLIC    CODE     ---       ?C?FPRESULT2
      00FF3588H   PUBLIC    CODE     ---       ?C?FPUNDERFLOW

      ---         MODULE    ---      ---       ?C?FPADD
      00FF359DH   PUBLIC    CODE     ---       ?C?FPADD
      00FF359AH   PUBLIC    CODE     ---       ?C?FPSUB

      ---         MODULE    ---      ---       ?C?FPMUL
      00FF3655H   PUBLIC    CODE     ---       ?C?FPMUL

      ---         MODULE    ---      ---       ?C?FPDIV
      00FF36F5H   PUBLIC    CODE     ---       ?C?FPDIV

      ---         MODULE    ---      ---       ?C?FPCMP
      00FF3778H   PUBLIC    CODE     ---       ?C?FPCMP
L251 LINKER/LOCATER V4.66.93.0                                                        10/15/2025  21:40:28  PAGE 142


      00FF3776H   PUBLIC    CODE     ---       ?C?FPCMP3

      ---         MODULE    ---      ---       ?C?FPNEG
      00FF37BCH   PUBLIC    CODE     ---       ?C?FPNEG

      ---         MODULE    ---      ---       ?C?FCAST
      00FF37D4H   PUBLIC    CODE     NEAR LAB  ?C?FCASTC
      00FF37CFH   PUBLIC    CODE     NEAR LAB  ?C?FCASTI
      00FF37CAH   PUBLIC    CODE     NEAR LAB  ?C?FCASTL

      ---         MODULE    ---      ---       ?C?CASTF
      00FF3807H   PUBLIC    CODE     NEAR LAB  ?C?CASTF

      ---         MODULE    ---      ---       ?C?INITHDATA
      00FFAE8DH   PUBLIC    CODE     ---       ?C?INITHDATA

      ---         MODULE    ---      ---       ?C?SIDIV
      00FF3844H   PUBLIC    CODE     ---       ?C?SIDIV

      ---         MODULE    ---      ---       ?C?LMUL
      00FF3876H   PUBLIC    CODE     ---       ?C?LMUL

      ---         MODULE    ---      ---       ?C?LIMUL
      00FF3887H   PUBLIC    CODE     ---       ?C?LIMUL

      ---         MODULE    ---      ---       ?C?ULDIV
      00FF3892H   PUBLIC    CODE     NEAR LAB  ?C?ULDIV
      00FF3890H   PUBLIC    CODE     NEAR LAB  ?C?ULIDIV

      ---         MODULE    ---      ---       ?C?SLDIV
      00FF38E3H   PUBLIC    CODE     NEAR LAB  ?C?SLDIV

      ---         MODULE    ---      ---       ?C?BMOVEPP
      00FF3919H   PUBLIC    CODE     ---       ?C?BMOVEPP
      00FF3917H   PUBLIC    CODE     ---       ?C?BMOVEPP8

      ---         MODULE    ---      ---       STRNCMP

      ---         MODULE    ---      ---       STRNCPY

      ---         MODULE    ---      ---       STRLEN

      ---         MODULE    ---      ---       STRCHR

      ---         MODULE    ---      ---       memcpy
      00FFB597H   PUBLIC    CODE     ---       memcpy?_

      ---         MODULE    ---      ---       memset

      ---         MODULE    ---      ---       ?C?INITHDATA_END
      00FFC6A7H   PUBLIC    HCONST   WORD      ?C?INITHDATA_END

Program Size: data=8.1 edata+hdata=1792 xdata=4865 const=8540 code=46677
L251 RUN COMPLETE.  0 WARNING(S),  0 ERROR(S)
