L251 LINKER/LOCATER V4.66.93.0                                                          11/01/2025  17:49:51  PAGE 1


L251 LINKER/LOCATER V4.66.93.0, INVOKED BY:
D:\KEIL\C251\BIN\L251.EXE .\out_file\ai8051u_isr.obj, .\out_file\zf_common_clock.obj, .\out_file\zf_common_debug.obj, .\
>> out_file\zf_common_fifo.obj, .\out_file\zf_common_font.obj, .\out_file\zf_common_function.obj, .\out_file\zf_common_t
>> ypedef.obj, .\out_file\zf_common_interrupt.obj, .\out_file\START251.obj, .\out_file\zf_driver_adc.obj, .\out_file\zf_
>> driver_delay.obj, .\out_file\zf_driver_eeprom.obj, .\out_file\zf_driver_encoder.obj, .\out_file\zf_driver_exti.obj, .
>> \out_file\zf_driver_gpio.obj, .\out_file\zf_driver_pit.obj, .\out_file\zf_driver_pwm.obj, .\out_file\zf_driver_soft_i
>> ic.obj, .\out_file\zf_driver_soft_spi.obj, .\out_file\zf_driver_spi.obj, .\out_file\zf_driver_timer.obj, .\out_file\z
>> f_driver_uart.obj, .\out_file\zf_device_config.obj, .\out_file\zf_device_type.obj, .\out_file\zf_device_tft180.obj, .
>> \out_file\zf_device_ips114.obj, .\out_file\zf_device_ips200.obj, .\out_file\zf_device_dl1a.obj, .\out_file\zf_device_
>> ble6a20.obj, .\out_file\zf_device_wireless_uart.obj, .\out_file\zf_device_icm20602.obj, .\out_file\zf_device_imu660ra
>> .obj, .\out_file\zf_device_imu660rb.obj, .\out_file\zf_device_imu963ra.obj, .\out_file\zf_device_gps_tau1201.obj, .\o
>> ut_file\zf_device_tsl1401.obj, .\out_file\seekfree_assistant.obj, .\out_file\seekfree_assistant_interface.obj, .\out_
>> file\isr.obj, .\out_file\main.obj, .\out_file\ADC_Get.obj, .\out_file\control.obj, .\out_file\eeprom.obj, .\out_file\
>> function.obj, .\out_file\Key.obj, .\out_file\menu.obj, .\out_file\menu_font.obj, .\out_file\Device_Test.obj, .\out_fi
>> le\oled.obj, .\out_file\Strategy.obj, .\out_file\Buzzer.obj TO .\out_file\SEEKFREE PRINT (.\out_file\SEEKFREE.map) CA
>> SE DISABLEWARNING (57, 16) REMOVEUNUSED CLASSES (EDATA (0X0-0X7FF), HDATA (0X0-0X7FF))


CPU MODE:     251 SOURCE MODE
INTR FRAME:   4 BYTES SAVED ON INTERRUPT
MEMORY MODEL: LARGE WITH DOUBLE PRECISION FLOATING POINT ARITHMETIC


INPUT MODULES INCLUDED:
  .\out_file\ai8051u_isr.obj (ai8051u_isr)
         COMMENT TYPE 0: A251 V4.69.13.0
  .\out_file\zf_common_clock.obj (zf_common_clock)
         COMMENT TYPE 0: C251 V5.60.0
  .\out_file\zf_common_debug.obj (zf_common_debug)
         COMMENT TYPE 0: C251 V5.60.0
  .\out_file\zf_common_fifo.obj (zf_common_fifo)
         COMMENT TYPE 0: C251 V5.60.0
  .\out_file\zf_common_font.obj (zf_common_font)
         COMMENT TYPE 0: C251 V5.60.0
  .\out_file\zf_common_function.obj (zf_common_function)
         COMMENT TYPE 0: C251 V5.60.0
  .\out_file\zf_common_typedef.obj (zf_common_typedef)
         COMMENT TYPE 0: C251 V5.60.0
  .\out_file\zf_common_interrupt.obj (zf_common_interrupt)
         COMMENT TYPE 0: C251 V5.60.0
  .\out_file\START251.obj (?C_START)
         COMMENT TYPE 0: A251 V4.69.13.0
  .\out_file\zf_driver_adc.obj (zf_driver_adc)
         COMMENT TYPE 0: C251 V5.60.0
  .\out_file\zf_driver_delay.obj (zf_driver_delay)
         COMMENT TYPE 0: C251 V5.60.0
  .\out_file\zf_driver_eeprom.obj (zf_driver_eeprom)
         COMMENT TYPE 0: C251 V5.60.0
  .\out_file\zf_driver_encoder.obj (zf_driver_encoder)
         COMMENT TYPE 0: C251 V5.60.0
  .\out_file\zf_driver_exti.obj (zf_driver_exti)
         COMMENT TYPE 0: C251 V5.60.0
  .\out_file\zf_driver_gpio.obj (zf_driver_gpio)
         COMMENT TYPE 0: C251 V5.60.0
  .\out_file\zf_driver_pit.obj (zf_driver_pit)
         COMMENT TYPE 0: C251 V5.60.0
  .\out_file\zf_driver_pwm.obj (zf_driver_pwm)
         COMMENT TYPE 0: C251 V5.60.0
  .\out_file\zf_driver_soft_iic.obj (zf_driver_soft_iic)
         COMMENT TYPE 0: C251 V5.60.0
  .\out_file\zf_driver_soft_spi.obj (zf_driver_soft_spi)
         COMMENT TYPE 0: C251 V5.60.0
  .\out_file\zf_driver_spi.obj (zf_driver_spi)
         COMMENT TYPE 0: C251 V5.60.0
  .\out_file\zf_driver_timer.obj (zf_driver_timer)
         COMMENT TYPE 0: C251 V5.60.0
L251 LINKER/LOCATER V4.66.93.0                                                        11/01/2025  17:49:51  PAGE 2


  .\out_file\zf_driver_uart.obj (zf_driver_uart)
         COMMENT TYPE 0: C251 V5.60.0
  .\out_file\zf_device_config.obj (zf_device_config)
         COMMENT TYPE 0: C251 V5.60.0
  .\out_file\zf_device_type.obj (zf_device_type)
         COMMENT TYPE 0: C251 V5.60.0
  .\out_file\zf_device_tft180.obj (zf_device_tft180)
         COMMENT TYPE 0: C251 V5.60.0
  .\out_file\zf_device_ips114.obj (zf_device_ips114)
         COMMENT TYPE 0: C251 V5.60.0
  .\out_file\zf_device_ips200.obj (zf_device_ips200)
         COMMENT TYPE 0: C251 V5.60.0
  .\out_file\zf_device_dl1a.obj (zf_device_dl1a)
         COMMENT TYPE 0: C251 V5.60.0
  .\out_file\zf_device_ble6a20.obj (zf_device_ble6a20)
         COMMENT TYPE 0: C251 V5.60.0
  .\out_file\zf_device_wireless_uart.obj (zf_device_wireless_uart)
         COMMENT TYPE 0: C251 V5.60.0
  .\out_file\zf_device_icm20602.obj (zf_device_icm20602)
         COMMENT TYPE 0: C251 V5.60.0
  .\out_file\zf_device_imu660ra.obj (zf_device_imu660ra)
         COMMENT TYPE 0: C251 V5.60.0
  .\out_file\zf_device_imu660rb.obj (zf_device_imu660rb)
         COMMENT TYPE 0: C251 V5.60.0
  .\out_file\zf_device_imu963ra.obj (zf_device_imu963ra)
         COMMENT TYPE 0: C251 V5.60.0
  .\out_file\zf_device_gps_tau1201.obj (zf_device_gps_tau1201)
         COMMENT TYPE 0: C251 V5.60.0
  .\out_file\zf_device_tsl1401.obj (zf_device_tsl1401)
         COMMENT TYPE 0: C251 V5.60.0
  .\out_file\seekfree_assistant.obj (seekfree_assistant)
         COMMENT TYPE 0: C251 V5.60.0
  .\out_file\seekfree_assistant_interface.obj (seekfree_assistant_interface)
         COMMENT TYPE 0: C251 V5.60.0
  .\out_file\isr.obj (isr)
         COMMENT TYPE 0: C251 V5.60.0
  .\out_file\main.obj (main)
         COMMENT TYPE 0: C251 V5.60.0
  .\out_file\ADC_Get.obj (ADC_Get)
         COMMENT TYPE 0: C251 V5.60.0
  .\out_file\control.obj (control)
         COMMENT TYPE 0: C251 V5.60.0
  .\out_file\eeprom.obj (eeprom)
         COMMENT TYPE 0: C251 V5.60.0
  .\out_file\function.obj (function)
         COMMENT TYPE 0: C251 V5.60.0
  .\out_file\Key.obj (Key)
         COMMENT TYPE 0: C251 V5.60.0
  .\out_file\menu.obj (menu)
         COMMENT TYPE 0: C251 V5.60.0
  .\out_file\menu_font.obj (menu_font)
         COMMENT TYPE 0: C251 V5.60.0
  .\out_file\Device_Test.obj (Device_Test)
         COMMENT TYPE 0: C251 V5.60.0
  .\out_file\oled.obj (oled)
         COMMENT TYPE 0: C251 V5.60.0
  .\out_file\Strategy.obj (Strategy)
         COMMENT TYPE 0: C251 V5.60.0
  .\out_file\Buzzer.obj (Buzzer)
         COMMENT TYPE 0: C251 V5.60.0
  D:\KEIL\C251\LIB\C2SDPL.LIB (?C?DPADD)
         COMMENT TYPE 0: A251 V4.69.6.0
  D:\KEIL\C251\LIB\C2SDPL.LIB (?C?DPMUL)
         COMMENT TYPE 0: A251 V4.69.6.0
  D:\KEIL\C251\LIB\C2SDPL.LIB (?C?DPDIV)
L251 LINKER/LOCATER V4.66.93.0                                                        11/01/2025  17:49:51  PAGE 3


         COMMENT TYPE 0: A251 V4.69.6.0
  D:\KEIL\C251\LIB\C2SDPL.LIB (?C?DPCMP)
         COMMENT TYPE 0: A251 V4.69.6.0
  D:\KEIL\C251\LIB\C2SDPL.LIB (?C?DPNEG)
         COMMENT TYPE 0: A251 V4.69.6.0
  D:\KEIL\C251\LIB\C2SDPL.LIB (?C?DCAST)
         COMMENT TYPE 0: A251 V4.69.6.0
  D:\KEIL\C251\LIB\C2SDPL.LIB (?C?CASTD)
         COMMENT TYPE 0: A251 V4.69.6.0
  D:\KEIL\C251\LIB\C2SDPL.LIB (?C?DCASTF)
         COMMENT TYPE 0: A251 V4.69.6.0
  D:\KEIL\C251\LIB\C2SDPL.LIB (?C?FCASTD)
         COMMENT TYPE 0: A251 V4.69.6.0
  D:\KEIL\C251\LIB\C2SDPL.LIB (PRINTF)
         COMMENT TYPE 0: A251 V4.69.6.0
  D:\KEIL\C251\LIB\C2SDPL.LIB (SPRINTF)
         COMMENT TYPE 0: A251 V4.69.6.0
  D:\KEIL\C251\LIB\C2SDPL.LIB (SQRT?_)
         COMMENT TYPE 0: A251 V4.69.6.0
  D:\KEIL\C251\LIB\C2SDPL.LIB (pow)
         COMMENT TYPE 0: C251 V5.58.7
  D:\KEIL\C251\LIB\C2SDPL.LIB (SIN?_)
         COMMENT TYPE 0: A251 V4.69.6.0
  D:\KEIL\C251\LIB\C2SDPL.LIB (ATAN?_)
         COMMENT TYPE 0: A251 V4.69.6.0
  D:\KEIL\C251\LIB\C2SDPL.LIB (ASIN?_)
         COMMENT TYPE 0: A251 V4.69.6.0
  D:\KEIL\C251\LIB\C2SDPL.LIB (?C?DPGETOPN)
         COMMENT TYPE 0: A251 V4.69.6.0
  D:\KEIL\C251\LIB\C2SDPL.LIB (_CHKDOUBLE_?_)
         COMMENT TYPE 0: A251 V4.69.6.0
  D:\KEIL\C251\LIB\C2SDPL.LIB (?C?PRNFMT)
         COMMENT TYPE 0: A251 V4.69.6.0
  D:\KEIL\C251\LIB\C2SDPL.LIB (?C?DPSERIES)
         COMMENT TYPE 0: A251 V4.69.6.0
  D:\KEIL\C251\LIB\C2SDPL.LIB (EXP?_)
         COMMENT TYPE 0: A251 V4.69.6.0
  D:\KEIL\C251\LIB\C2SDPL.LIB (LOG?_)
         COMMENT TYPE 0: A251 V4.69.6.0
  D:\KEIL\C251\LIB\C2SDPL.LIB (?C?DPCONVERT)
         COMMENT TYPE 0: A251 V4.69.6.0
  D:\KEIL\C251\LIB\C2SDPL.LIB (?C?DTNPWR)
         COMMENT TYPE 0: A251 V4.69.6.0
  D:\KEIL\C251\LIB\C2SFPL.LIB (?C?FPGETOPN)
         COMMENT TYPE 0: A251 V4.69.6.0
  D:\KEIL\C251\LIB\C2SFPL.LIB (?C?FPADD)
         COMMENT TYPE 0: A251 V4.69.6.0
  D:\KEIL\C251\LIB\C2SFPL.LIB (?C?FPMUL)
         COMMENT TYPE 0: A251 V4.69.6.0
  D:\KEIL\C251\LIB\C2SFPL.LIB (?C?FPDIV)
         COMMENT TYPE 0: A251 V4.69.6.0
  D:\KEIL\C251\LIB\C2SFPL.LIB (?C?FPCMP)
         COMMENT TYPE 0: A251 V4.69.6.0
  D:\KEIL\C251\LIB\C2SFPL.LIB (?C?FPNEG)
         COMMENT TYPE 0: A251 V4.69.6.0
  D:\KEIL\C251\LIB\C2SFPL.LIB (?C?FCAST)
         COMMENT TYPE 0: A251 V4.69.6.0
  D:\KEIL\C251\LIB\C2SFPL.LIB (?C?CASTF)
         COMMENT TYPE 0: A251 V4.69.6.0
  D:\KEIL\C251\LIB\C2SL.LIB (?C?INITHDATA)
         COMMENT TYPE 0: A251 V4.69.6.0
  D:\KEIL\C251\LIB\C2SL.LIB (?C?SIDIV)
         COMMENT TYPE 0: A251 V4.69.6.0
  D:\KEIL\C251\LIB\C2SL.LIB (?C?LMUL)
         COMMENT TYPE 0: A251 V4.69.6.0
L251 LINKER/LOCATER V4.66.93.0                                                        11/01/2025  17:49:51  PAGE 4


  D:\KEIL\C251\LIB\C2SL.LIB (?C?LIMUL)
         COMMENT TYPE 0: A251 V4.69.6.0
  D:\KEIL\C251\LIB\C2SL.LIB (?C?ULDIV)
         COMMENT TYPE 0: A251 V4.69.6.0
  D:\KEIL\C251\LIB\C2SL.LIB (?C?SLDIV)
         COMMENT TYPE 0: A251 V4.69.6.0
  D:\KEIL\C251\LIB\C2SL.LIB (?C?BMOVEPP)
         COMMENT TYPE 0: A251 V4.69.6.0
  D:\KEIL\C251\LIB\C2SL.LIB (STRNCMP)
         COMMENT TYPE 0: C251 V5.58.7
  D:\KEIL\C251\LIB\C2SL.LIB (STRNCPY)
         COMMENT TYPE 0: C251 V5.58.7
  D:\KEIL\C251\LIB\C2SL.LIB (STRLEN)
         COMMENT TYPE 0: C251 V5.58.7
  D:\KEIL\C251\LIB\C2SL.LIB (STRCHR)
         COMMENT TYPE 0: C251 V5.58.7
  D:\KEIL\C251\LIB\C2SL.LIB (memcpy)
         COMMENT TYPE 0: C251 V5.58.7
  D:\KEIL\C251\LIB\C2SL.LIB (memset)
         COMMENT TYPE 0: C251 V5.58.7
  D:\KEIL\C251\LIB\C2SL.LIB (?C?INITHDATA_END)
         COMMENT TYPE 0: A251 V4.69.6.0


ACTIVE MEMORY CLASSES OF MODULE:  .\out_file\SEEKFREE (ai8051u_isr)

BASE        START       END         USED      MEMORY CLASS
==========================================================
000000H     000000H     0007FFH     000700H   EDATA
000000H     000000H     0007FFH               HDATA
FF0000H     FF0000H     FFFFFFH     00C91AH   CODE
010000H     010000H     01FFFFH     00184EH   XDATA
000000H     FF0000H     FFFFFFH     002752H   HCONST
000020H.0   000020H.0   00002FH.7   000000H.1 BIT
FF0000H     FF0000H     FFFFFFH     000004H   CONST
000000H     000000H     00007FH     000008H   DATA


MEMORY MAP OF MODULE:  .\out_file\SEEKFREE (ai8051u_isr)


START     STOP      LENGTH    ALIGN  RELOC    MEMORY CLASS   SEGMENT NAME
=========================================================================
000000H   000007H   000008H   ---    AT..     DATA           "REG BANK 0"
000008H.0 00001FH.7 000018H.0 ---    ---      **GAP**
000020H.0 000020H.0 000000H.1 BIT    UNIT     BIT            ?BI?ADC_GET
000020H.1 000020H   000000H.7 ---    ---      **GAP**
000021H   000720H   000700H   BYTE   UNIT     EDATA          ?STACK
000721H   00FFFFH   00F8DFH   ---    ---      **GAP**
010000H   010B36H   000B37H   BYTE   INSEG    XDATA          ?XD?MENU_FONT
010B37H   010FB1H   00047BH   BYTE   INSEG    XDATA          ?XD?STRATEGY
010FB2H   0111B3H   000202H   BYTE   INSEG    XDATA          ?XD?ZF_DEVICE_TSL1401
0111B4H   011383H   0001D0H   BYTE   INSEG    XDATA          ?XD?ZF_DEVICE_GPS_TAU1201
011384H   0114C0H   00013DH   BYTE   INSEG    XDATA          ?XD?SEEKFREE_ASSISTANT
0114C1H   01155BH   00009BH   BYTE   INSEG    XDATA          ?XD?FUNCTION
01155CH   0115F0H   000095H   BYTE   UNIT     XDATA          _XDATA_GROUP_
0115F1H   011649H   000059H   BYTE   INSEG    XDATA          ?XD?ZF_COMMON_DEBUG
01164AH   0116A0H   000057H   BYTE   INSEG    XDATA          ?XD?ZF_DEVICE_BLE6A20
0116A1H   0116F7H   000057H   BYTE   INSEG    XDATA          ?XD?ZF_DEVICE_WIRELESS_UART
0116F8H   011735H   00003EH   BYTE   INSEG    XDATA          ?XD?ADC_GET
011736H   011753H   00001EH   BYTE   INSEG    XDATA          ?XD?ZF_COMMON_TYPEDEF
011754H   011771H   00001EH   BYTE   INSEG    XDATA          ?XD?ZF_DEVICE_IMU963RA
011772H   011786H   000015H   BYTE   INSEG    XDATA          ?XD?CONTROL
011787H   01179AH   000014H   BYTE   INSEG    XDATA          ?XD?ZF_DEVICE_ICM20602
01179BH   0117AEH   000014H   BYTE   INSEG    XDATA          ?XD?ZF_DEVICE_IMU660RA
L251 LINKER/LOCATER V4.66.93.0                                                        11/01/2025  17:49:51  PAGE 5


0117AFH   0117BFH   000011H   BYTE   INSEG    XDATA          ?XD?MAIN
0117C0H   0117CCH   00000DH   BYTE   INSEG    XDATA          ?XD?ZF_DEVICE_DL1A
0117CDH   0117D9H   00000DH   BYTE   INSEG    XDATA          ?XD?MENU
0117DAH   0117E5H   00000CH   BYTE   INSEG    XDATA          ?XD?ZF_DRIVER_TIMER
0117E6H   0117F1H   00000CH   BYTE   INSEG    XDATA          ?XD?ZF_DRIVER_UART
0117F2H   0117FDH   00000CH   BYTE   INSEG    XDATA          ?XD?ZF_DEVICE_IMU660RB
0117FEH   011808H   00000BH   BYTE   INSEG    XDATA          ?XD?KEY
011809H   011812H   00000AH   BYTE   INSEG    XDATA          ?XD?ZF_DEVICE_IPS200
011813H   01181AH   000008H   BYTE   UNIT     XDATA          ?XD?SOFT_IIC_DELAY?ZF_DRIVER_SOFT_IIC
01181BH   011822H   000008H   BYTE   INSEG    XDATA          ?XD?ZF_DEVICE_TYPE
011823H   01182AH   000008H   BYTE   INSEG    XDATA          ?XD?ZF_DEVICE_TFT180
01182BH   011832H   000008H   BYTE   INSEG    XDATA          ?XD?ZF_DEVICE_IPS114
011833H   011838H   000006H   BYTE   INSEG    XDATA          ?XD?ZF_DRIVER_ENCODER
011839H   01183CH   000004H   BYTE   INSEG    XDATA          ?XD?ZF_COMMON_CLOCK
01183DH   011840H   000004H   BYTE   INSEG    XDATA          ?XD?ZF_DRIVER_DELAY
011841H   011844H   000004H   BYTE   INSEG    XDATA          ?XD?SEEKFREE_ASSISTANT_INTERFACE
011845H   011847H   000003H   BYTE   UNIT     XDATA          ?XD?SOFT_IIC_READ_DATA?ZF_DRIVER_SOFT_IIC
011848H   011849H   000002H   BYTE   UNIT     XDATA          ?XD?SOFT_IIC_SEND_DATA?ZF_DRIVER_SOFT_IIC
01184AH   01184AH   000001H   BYTE   INSEG    XDATA          ?XD?ZF_DRIVER_ADC
01184BH   01184BH   000001H   BYTE   UNIT     XDATA          ?XD?SOFT_IIC_SEND_ACK?ZF_DRIVER_SOFT_IIC
01184CH   01184CH   000001H   BYTE   UNIT     XDATA          ?XD?SOFT_IIC_WAIT_ACK?ZF_DRIVER_SOFT_IIC
01184DH   01184DH   000001H   BYTE   INSEG    XDATA          ?XD?ISR
01184EH   FEFFFFH   FDE7B2H   ---    ---      **GAP**
FF0000H   FF0002H   000003H   ---    OFFS..   CODE           ?CO?START251?4
FF0003H   FF0008H   000006H   BYTE   INSEG    CODE           ?PR?SPI_WRITE_8BIT?ZF_DRIVER_SPI
FF0009H   FF000AH   000002H   BYTE   UNIT     HCONST         ?HC?MAIN
FF000BH   FF000DH   000003H   ---    OFFS..   CODE           ?PR?IV?1
FF000EH   FF001AH   00000DH   BYTE   INSEG    CODE           ?PR?TFT180_SET_COLOR?ZF_DEVICE_TFT180
FF001BH   FF001DH   000003H   ---    OFFS..   CODE           ?PR?IV?3
FF001EH   FF0020H   000003H   BYTE   INSEG    CODE           ?PR?INTERRUPT_GLOBAL_ENABLE?ZF_COMMON_INTERRUPT
FF0021H   FF0022H   000002H   ---    ---      **GAP**
FF0023H   FF0025H   000003H   ---    OFFS..   CODE           ?PR?IV?4
FF0026H   FF0042H   00001DH   BYTE   INSEG    CODE           ?PR?ENCONDER_INIT?FUNCTION
FF0043H   FF0045H   000003H   ---    OFFS..   CODE           ?PR?IV?8
FF0046H   FF0061H   00001CH   BYTE   INSEG    CODE           ?PR?IMU963RA_SIMSPI_R_REG_BYTE?ZF_DEVICE_IMU963RA
FF0062H   FF0062H   000001H   ---    ---      **GAP**
FF0063H   FF0065H   000003H   ---    OFFS..   CODE           ?PR?IV?12
FF0066H   FF008AH   000025H   BYTE   INSEG    CODE           ?PR?MAIN?MAIN
FF008BH   FF008DH   000003H   ---    OFFS..   CODE           ?PR?IV?17
FF008EH   FF0091H   000004H   BYTE   UNIT     CONST          ?CO?PRINTF
FF0092H   FF0092H   000001H   ---    ---      **GAP**
FF0093H   FF0095H   000003H   ---    OFFS..   CODE           ?PR?IV?18
FF0096H   FF009AH   000005H   ---    ---      **GAP**
FF009BH   FF009DH   000003H   ---    OFFS..   CODE           ?PR?IV?19
FF009EH   FF00A2H   000005H   ---    ---      **GAP**
FF00A3H   FF00A5H   000003H   ---    OFFS..   CODE           ?PR?IV?20
FF00A6H   FF00BFH   00001AH   BYTE   INSEG    CODE           ?PR?SERVO_INIT?FUNCTION
FF00C0H   FF00C2H   000003H   ---    ---      **GAP**
FF00C3H   FF00C5H   000003H   ---    OFFS..   CODE           ?PR?IV?24
FF00C6H   FF0198H   0000D3H   BYTE   INSEG    CODE           ?PR?GPIO_GET_LEVEL?ZF_DRIVER_GPIO
FF0199H   FF019AH   000002H   ---    ---      **GAP**
FF019BH   FF019DH   000003H   ---    OFFS..   CODE           ?CO?ai8051u_isr?1
FF019EH   FF01A9H   00000CH   BYTE   INSEG    CODE           ?PR?IMU963RA_WRITE_ACC_GYRO_REGISTER?ZF_DEVICE_IMU963RA
FF01AAH   FF01AAH   000001H   ---    ---      **GAP**
FF01ABH   FF01ADH   000003H   ---    OFFS..   CODE           ?CO?ai8051u_isr?2
FF01AEH   FF01B7H   00000AH   BYTE   INSEG    CODE           ?PR?KEY3_HANDLE1?MENU
FF01B8H   FF01BAH   000003H   ---    ---      **GAP**
FF01BBH   FF01BDH   000003H   ---    OFFS..   CODE           ?CO?ai8051u_isr?3
FF01BEH   FF01C7H   00000AH   BYTE   INSEG    CODE           ?PR?BUZZER_ON?BUZZER
FF01C8H   FF01CAH   000003H   ---    ---      **GAP**
FF01CBH   FF01CDH   000003H   ---    OFFS..   CODE           ?CO?ai8051u_isr?4
FF01CEH   FF021AH   00004DH   BYTE   INSEG    CODE           ?PR?FIFO_HEAD_OFFSET?ZF_COMMON_FIFO
FF021BH   FF021DH   000003H   ---    OFFS..   CODE           ?CO?ai8051u_isr?5
FF021EH   FF221DH   002000H   BYTE   UNIT     CODE           ?CO?ZF_DEVICE_CONFIG
FF221EH   FF393FH   001722H   BYTE   UNIT     CODE           ?C?LIB_CODE
L251 LINKER/LOCATER V4.66.93.0                                                        11/01/2025  17:49:51  PAGE 6


FF3940H   FF4617H   000CD8H   BYTE   UNIT     CODE           ?CO?OLED
FF4618H   FF4E34H   00081DH   BYTE   INSEG    CODE           ?PR?ZF_SPRINTF?ZF_COMMON_FUNCTION
FF4E35H   FF5514H   0006E0H   BYTE   INSEG    CODE           ?PR?INERTIAL_NAVIGATION?STRATEGY
FF5515H   FF5B04H   0005F0H   BYTE   UNIT     CODE           ?CO?ZF_COMMON_FONT
FF5B05H   FF608DH   000589H   BYTE   INSEG    CODE           ?PR?SHOW_PARARM?FUNCTION
FF608EH   FF659DH   000510H   BYTE   INSEG    CODE           ?PR?PWM_INIT?ZF_DRIVER_PWM
FF659EH   FF6A42H   0004A5H   BYTE   INSEG    CODE           ?PR?SPI_INIT?ZF_DRIVER_SPI
FF6A43H   FF6E3FH   0003FDH   BYTE   INSEG    CODE           ?PR?FIFO_WRITE_BUFFER?ZF_COMMON_FIFO
FF6E40H   FF720CH   0003CDH   BYTE   INSEG    CODE           ?PR?GPIO_SET_DIR?ZF_DRIVER_GPIO
FF720DH   FF754DH   000341H   BYTE   INSEG    CODE           ?PR?HALF_STATE_OF_ROAD?STRATEGY
FF754EH   FF786EH   000321H   BYTE   INSEG    CODE           ?PR?STATE_OF_ROAD?STRATEGY
FF786FH   FF7B4AH   0002DCH   BYTE   INSEG    CODE           ?PR?TFT180_INIT?ZF_DEVICE_TFT180
FF7B4BH   FF7E25H   0002DBH   BYTE   INSEG    CODE           ?PR?IMU963RA_INIT?ZF_DEVICE_IMU963RA
FF7E26H   FF80DEH   0002B9H   BYTE   INSEG    CODE           ?PR?GPIO_SET_LEVEL_SPEED?ZF_DRIVER_GPIO
FF80DFH   FF8355H   000277H   BYTE   INSEG    CODE           ?PR?HELP_TURN2?STRATEGY
FF8356H   FF85A5H   000250H   BYTE   INSEG    CODE           ?PR?TURN_MODE_INIT?FUNCTION
FF85A6H   FF87DDH   000238H   BYTE   INSEG    CODE           ?PR?PID_UPDATE?CONTROL
FF87DEH   FF8A12H   000235H   BYTE   INSEG    CODE           ?PR?UART_INIT?ZF_DRIVER_UART
FF8A13H   FF8C38H   000226H   BYTE   INSEG    CODE           ?PR?GPIO_SET_MODE?ZF_DRIVER_GPIO
FF8C39H   FF8E13H   0001DBH   BYTE   INSEG    CODE           ?PR?PIT_INIT?ZF_DRIVER_PIT
FF8E14H   FF8FE8H   0001D5H   BYTE   INSEG    CODE           ?PR?PIT_HANDLER1?MAIN
FF8FE9H   FF91ACH   0001C4H   BYTE   INSEG    CODE           ?PR?TFT180_SHOW_FLOAT?ZF_DEVICE_TFT180
FF91ADH   FF934CH   0001A0H   BYTE   INSEG    CODE           ?PR?CYCLE_UPDATE?CONTROL
FF934DH   FF94DCH   000190H   BYTE   INSEG    CODE           ?PR?PWM_SET_DUTY?ZF_DRIVER_PWM
FF94DDH   FF964FH   000173H   BYTE   INSEG    CODE           ?PR?GPIO_SET_LEVEL?ZF_DRIVER_GPIO
FF9650H   FF97A1H   000152H   BYTE   INSEG    CODE           ?PR?SPEED_DIFF?CONTROL
FF97A2H   FF98E8H   000147H   BYTE   INSEG    CODE           ?PR?UART_DMA_INIT?ZF_DRIVER_UART
FF98E9H   FF9A2EH   000146H   BYTE   INSEG    CODE           ?PR?GPIO_SET_IMPEDANCE?ZF_DRIVER_GPIO
FF9A2FH   FF9B63H   000135H   BYTE   INSEG    CODE           ?PR?MENU_DISPLAY_CONTENT?MENU
FF9B64H   FF9C96H   000133H   BYTE   INSEG    CODE           ?PR?TFT180_SHOW_INT16?ZF_DEVICE_TFT180
FF9C97H   FF9DB8H   000122H   BYTE   INSEG    CODE           ?PR?TFT180_SET_REGION?ZF_DEVICE_TFT180
FF9DB9H   FF9ED2H   00011AH   BYTE   INSEG    CODE           ?PR?KEY_SCANER?KEY
FF9ED3H   FF9FDEH   00010CH   BYTE   INSEG    CODE           ?PR?ENCODER_DIR_INIT?ZF_DRIVER_ENCODER
FF9FDFH   FFA0DEH   000100H   BYTE   INSEG    CODE           ?PR?IF_CYCLE?STRATEGY
FFA0DFH   FFA1C0H   0000E2H   BYTE   INSEG    CODE           ?PR?UART_WRITE_BUFFER?ZF_DRIVER_UART
FFA1C1H   FFA2A1H   0000E1H   BYTE   INSEG    CODE           ?PR?ADC_SAMPLEANDFILTER?ADC_GET
FFA2A2H   FFA381H   0000E0H   BYTE   INSEG    CODE           ?PR?TFT180_SHOW_CHAR?ZF_DEVICE_TFT180
FFA382H   FFA45FH   0000DEH   BYTE   INSEG    CODE           ?PR?CLOCK_INIT?ZF_COMMON_CLOCK
FFA460H   FFA53BH   0000DCH   BYTE   INSEG    CODE           ?PR?HANDLE_KEY1?MENU
FFA53CH   FFA613H   0000D8H   BYTE   INSEG    CODE           ?PR?MOTOR_RIGHT_PI_CONTROL?CONTROL
FFA614H   FFA6EBH   0000D8H   BYTE   INSEG    CODE           ?PR?MOTOR_LEFT_PI_CONTROL?CONTROL
FFA6ECH   FFA7BBH   0000D0H   BYTE   INSEG    CODE           ?PR?MENU_SETCHILDREN?MENU
FFA7BCH   FFA889H   0000CEH   BYTE   INSEG    CODE           ?PR?KEY3_HANDLE2?MENU
FFA88AH   FFA950H   0000C7H   BYTE   INSEG    CODE           ?PR?HANDLE_KEY4?MENU
FFA951H   FFAA0CH   0000BCH   BYTE   INSEG    CODE           ?PR?GPIO_INIT?ZF_DRIVER_GPIO
FFAA0DH   FFAAC7H   0000BBH   BYTE   INSEG    CODE           ?PR?TURN_MODE?KEY
FFAAC8H   FFAB81H   0000BAH   BYTE   INSEG    CODE           ?PR?INTERRUPT_SET_PRIORITY?ZF_COMMON_INTERRUPT
FFAB82H   FFAC35H   0000B4H   BYTE   INSEG    CODE           ?PR?SOFT_IIC_READ_DATA?ZF_DRIVER_SOFT_IIC
FFAC36H   FFACE8H   0000B3H   BYTE   INSEG    CODE           ?PR?FAST_SQRT?FUNCTION
FFACE9H   FFAD94H   0000ACH   BYTE   INSEG    CODE           ?PR?SERVO_CONTROL?FUNCTION
FFAD95H   FFAE3DH   0000A9H   BYTE   INSEG    CODE           ?PR?TFT180_SHOW_STRING?ZF_DEVICE_TFT180
FFAE3EH   FFAEE4H   0000A7H   BYTE   INSEG    CODE           ?PR?_M?MAIN
FFAEE5H   FFAF8AH   0000A6H   BYTE   INSEG    CODE           ?PR?ADC_FILTER?ADC_GET
FFAF8BH   FFB030H   0000A6H   BYTE   INSEG    CODE           ?PR?MOTOR_UPDATE_SMOOTH?CONTROL
FFB031H   FFB0D5H   0000A5H   BYTE   INSEG    CODE           ?PR?ENCODER_GET_COUNT?ZF_DRIVER_ENCODER
FFB0D6H   FFB17AH   0000A5H   BYTE   INSEG    CODE           ?PR?DMA_UART1_IRQHANDLER?ISR
FFB17BH   FFB211H   000097H   BYTE   INSEG    CODE           ?PR?DEBUG_INIT?ZF_COMMON_DEBUG
FFB212H   FFB2A6H   000095H   BYTE   INSEG    CODE           ?PR?ENCODER_CLEAR_COUNT?ZF_DRIVER_ENCODER
FFB2A7H   FFB33AH   000094H   BYTE   INSEG    CODE           ?PR?NUMBER_CONVERSION_ASCII?ZF_COMMON_FUNCTION
FFB33BH   FFB3CEH   000094H   BYTE   INSEG    CODE           ?PR?SERVO_TURN_PID?CONTROL
FFB3CFH   FFB45FH   000091H   BYTE   INSEG    CODE           ?PR?SOFT_IIC_SEND_DATA?ZF_DRIVER_SOFT_IIC
FFB460H   FFB4EFH   000090H   BYTE   INSEG    CODE           ?PR?UART_RX_START_BUFF?ZF_DRIVER_UART
FFB4F0H   FFB57AH   00008BH   BYTE   INSEG    CODE           ?PR?UNIFICATION?FUNCTION
FFB57BH   FFB603H   000089H   BYTE   INSEG    CODE           ?PR?DMA_UART2_IRQHANDLER?ISR
FFB604H   FFB68CH   000089H   BYTE   INSEG    CODE           ?PR?DMA_UART3_IRQHANDLER?ISR
L251 LINKER/LOCATER V4.66.93.0                                                        11/01/2025  17:49:51  PAGE 7


FFB68DH   FFB715H   000089H   BYTE   INSEG    CODE           ?PR?DMA_UART4_IRQHANDLER?ISR
FFB716H   FFB79DH   000088H   BYTE   INSEG    CODE           ?PR?ADC_INIT?ZF_DRIVER_ADC
FFB79EH   FFB820H   000083H   BYTE   INSEG    CODE           ?PR?REFESH_ARROW?MENU
FFB821H   FFB8A1H   000081H   BYTE   INSEG    CODE           ?PR?FIFO_INIT?ZF_COMMON_FIFO
FFB8A2H   FFB91DH   00007CH   BYTE   INSEG    CODE           ?PR?MENU_INIT?MENU
FFB91EH   FFB996H   000079H   BYTE   INSEG    CODE           ?PR?SOFT_IIC_WAIT_ACK?ZF_DRIVER_SOFT_IIC
FFB997H   FFBA0DH   000077H   BYTE   INSEG    CODE           ?PR?SHOW_BUJIN?MENU
FFBA0EH   FFBA82H   000075H   BYTE   INSEG    CODE           ?PR?INIT_ALL?FUNCTION
FFBA83H   FFBAF5H   000073H   BYTE   INSEG    CODE           ?PR?SOFT_IIC_SEND_ACK?ZF_DRIVER_SOFT_IIC
FFBAF6H   FFBB65H   000070H   BYTE   INSEG    CODE           ?PR?ANGLE_GET?STRATEGY
FFBB66H   FFBBD0H   00006BH   BYTE   INSEG    CODE           ?PR?SYSTEM_DELAY_MS?ZF_DRIVER_DELAY
FFBBD1H   FFBC38H   000068H   BYTE   INSEG    CODE           ?PR?DEBUG_ASSERT_HANDLER?ZF_COMMON_DEBUG
FFBC39H   FFBC9FH   000067H   BYTE   INSEG    CODE           ?PR?TFT180_CLEAR?ZF_DEVICE_TFT180
FFBCA0H   FFBD05H   000066H   BYTE   INSEG    CODE           ?PR?IMU963RA_WRITE_MAG_REGISTER?ZF_DEVICE_IMU963RA
FFBD06H   FFBD67H   000062H   BYTE   INSEG    CODE           ?PR?SOFT_IIC_STOP?ZF_DRIVER_SOFT_IIC
FFBD68H   FFBDC9H   000062H   BYTE   INSEG    CODE           ?PR?UART_QUERY_BYTE?ZF_DRIVER_UART
FFBDCAH   FFBE26H   00005DH   BYTE   INSEG    CODE           ?PR?SYSTEM_DELAY_INIT?ZF_DRIVER_DELAY
FFBE27H   FFBE83H   00005DH   BYTE   INSEG    CODE           ?PR?MOTOR_INIT?FUNCTION
FFBE84H   FFBEA4H   000021H   BYTE   UNIT     CODE           ?C_C51STARTUP
FFBEA5H   FFBEA6H   000002H   BYTE   UNIT     CODE           ?C_C51STARTUP?1
FFBEA7H   FFBED7H   000031H   BYTE   UNIT     CODE           ?C_C51STARTUP?2
FFBED8H   FFBEDAH   000003H   BYTE   UNIT     CODE           ?C_C51STARTUP?3
FFBEDBH   FFBF31H   000057H   BYTE   INSEG    CODE           ?PR?SOFT_IIC_START?ZF_DRIVER_SOFT_IIC
FFBF32H   FFBF87H   000056H   BYTE   INSEG    CODE           ?PR?SERVE_TEST?DEVICE_TEST
FFBF88H   FFBFDBH   000054H   BYTE   INSEG    CODE           ?PR?IMU963RA_GET_GYRO?ZF_DEVICE_IMU963RA
FFBFDCH   FFC02DH   000052H   BYTE   INSEG    CODE           ?PR?IMU963RA_READ_MAG_REGISTER?ZF_DEVICE_IMU963RA
FFC02EH   FFC07FH   000052H   BYTE   INSEG    CODE           ?PR?HANDLE_KEY3?MENU
FFC080H   FFC0CBH   00004CH   BYTE   INSEG    CODE           ?PR?TIMER_FUNCITON_CHECK?ZF_DRIVER_TIMER
FFC0CCH   FFC117H   00004CH   BYTE   INSEG    CODE           ?PR?UART_FUNCITON_CHECK?ZF_DRIVER_UART
FFC118H   FFC162H   00004BH   BYTE   INSEG    CODE           ?PR?TM11_IRQHANDLER?ISR
FFC163H   FFC1ABH   000049H   BYTE   INSEG    CODE           ?PR?MOTOR_UPDATE?CONTROL
FFC1ACH   FFC1F3H   000048H   BYTE   INSEG    CODE           ?PR?PRINTF_REVERSE_ORDER?ZF_COMMON_FUNCTION
FFC1F4H   FFC238H   000045H   BYTE   INSEG    CODE           ?PR?UART_RX_INTERRUPT?ZF_DRIVER_UART
FFC239H   FFC27DH   000045H   BYTE   INSEG    CODE           ?PR?KEY_NUMBER?KEY
FFC27EH   FFC2C1H   000044H   BYTE   INSEG    CODE           ?PR?IMU963RA_ACC_GYRO_SELF_CHECK?ZF_DEVICE_IMU963RA
FFC2C2H   FFC304H   000043H   BYTE   INSEG    CODE           ?PR?HANDLE_KEY2?MENU
FFC305H   FFC346H   000042H   BYTE   INSEG    CODE           ?PR?SPI_WRITE_DAT?ZF_DRIVER_SPI
FFC347H   FFC385H   00003FH   BYTE   INSEG    CODE           ?PR?IMU963RA_SIMSPI_R_REG_BYTES?ZF_DEVICE_IMU963RA
FFC386H   FFC3C3H   00003EH   BYTE   INSEG    CODE           ?PR?TM0_IRQHANDLER?ISR
FFC3C4H   FFC401H   00003EH   BYTE   INSEG    CODE           ?PR?TM1_IRQHANDLER?ISR
FFC402H   FFC43FH   00003EH   BYTE   INSEG    CODE           ?PR?TM2_IRQHANDLER?ISR
FFC440H   FFC47DH   00003EH   BYTE   INSEG    CODE           ?PR?TM3_IRQHANDLER?ISR
FFC47EH   FFC4BBH   00003EH   BYTE   INSEG    CODE           ?PR?TM4_IRQHANDLER?ISR
FFC4BCH   FFC4F9H   00003EH   BYTE   INSEG    CODE           ?PR?PROTECT?FUNCTION
FFC4FAH   FFC536H   00003DH   BYTE   INSEG    CODE           ?PR?MOTORL_SETSPEED?CONTROL
FFC537H   FFC573H   00003DH   BYTE   INSEG    CODE           ?PR?MOTORR_SETSPEED?CONTROL
FFC574H   FFC5ACH   000039H   BYTE   INSEG    CODE           ?PR?DEBUG_INTERRUPR_HANDLER?ZF_COMMON_DEBUG
FFC5ADH   FFC5E5H   000039H   BYTE   INSEG    CODE           ?PR?SPEED_CONTROL?FUNCTION
FFC5E6H   FFC61DH   000038H   BYTE   INSEG    CODE           ?PR?SOFT_IIC_DELAY?ZF_DRIVER_SOFT_IIC
FFC61EH   FFC651H   000034H   BYTE   INSEG    CODE           ?PR?IMU963RA_MAG_SELF_CHECK?ZF_DEVICE_IMU963RA
FFC652H   FFC684H   000033H   BYTE   INSEG    CODE           ?PR?PWM_TEST?DEVICE_TEST
FFC685H   FFC6B4H   000030H   BYTE   INSEG    CODE           ?PR?ADC_CONVERT?ZF_DRIVER_ADC
FFC6B5H   FFC6E2H   00002EH   BYTE   INSEG    CODE           ?PR?SHOW_TEST_INFO?FUNCTION
FFC6E3H   FFC710H   00002EH   BYTE   INSEG    CODE           ?PR?MENU_HANDLE_KEY?MENU
FFC711H   FFC73DH   00002DH   BYTE   INSEG    CODE           ?PR?ADC_GETINIT?ADC_GET
FFC73EH   FFC769H   00002CH   BYTE   INSEG    CODE           ?PR?IMU963RA_CONNECT_MAG?ZF_DEVICE_IMU963RA
FFC76AH   FFC794H   00002BH   BYTE   INSEG    CODE           ?PR?SPEED_CONTROL_RING?FUNCTION
FFC795H   FFC7BBH   000027H   BYTE   INSEG    CODE           ?PR?TFT180_SET_DIR?ZF_DEVICE_TFT180
FFC7BCH   FFC7E0H   000025H   BYTE   INSEG    CODE           ?PR?MEMCPY?_?MEMCPY
FFC7E1H   FFC803H   000023H   BYTE   INSEG    CODE           ?PR?IMU963RA_SIMSPI_WR_BYTE?ZF_DEVICE_IMU963RA
FFC804H   FFC822H   00001FH   BYTE   INSEG    CODE           ?PR?SPI_WRITE_16BIT?ZF_DRIVER_SPI
FFC823H   FFC841H   00001FH   BYTE   INSEG    CODE           ?PR?IMU963RA_READ_ACC_GYRO_REGISTER?ZF_DEVICE_IMU963RA
FFC842H   FFC85BH   00001AH   BYTE   INSEG    CODE           ?PR?HANDLE_KEY5?MENU
FFC85CH   FFC875H   00001AH   BYTE   INSEG    CODE           ?PR?SET_SEVO?DEVICE_TEST
FFC876H   FFC88CH   000017H   BYTE   INSEG    CODE           ?PR?IMU963RA_SIMSPI_W_REG_BYTE?ZF_DEVICE_IMU963RA
L251 LINKER/LOCATER V4.66.93.0                                                        11/01/2025  17:49:51  PAGE 8


FFC88DH   FFC8A2H   000016H   BYTE   INSEG    CODE           ?PR?TFT180_WRITE_INDEX?ZF_DEVICE_TFT180
FFC8A3H   FFC8B8H   000016H   BYTE   INSEG    CODE           ?PR?IMU963RA_READ_ACC_GYRO_REGISTERS?ZF_DEVICE_IMU963RA
FFC8B9H   FFC8CCH   000014H   BYTE   INSEG    CODE           ?PR?UART_WRITE_BYTE?ZF_DRIVER_UART
FFC8CDH   FFC8DEH   000012H   BYTE   INSEG    CODE           ?PR?CAR_STOP?FUNCTION
FFC8DFH   FFC8EFH   000011H   BYTE   INSEG    CODE           ?PR?SHOW_ALL_MENU?MENU
FFC8F0H   FFC900H   000011H   BYTE   INSEG    CODE           ?PR?BUZZER_INIT?BUZZER
FFC901H   FFC910H   000010H   BYTE   INSEG    CODE           ?PR?PUTCHAR?ZF_COMMON_DEBUG
FFC911H   FFC920H   000010H   BYTE   INSEG    CODE           ?PR?SER_SERVO_DUTY?CONTROL
FFC921H   FFC930H   000010H   BYTE   INSEG    CODE           ?PR?GO_FUNCTION?FUNCTION
FFC931H   FFC939H   000009H   BYTE   INSEG    CODE           ?PR?BUZZER_OFF?BUZZER
FFC93AH   FFDF64H   00162BH   BYTE   UNIT     HCONST         ?C_INITHDATA
FFDF65H   FFE564H   000600H   BYTE   UNIT     HCONST         ?HC?EEPROM
FFE565H   FFE764H   000200H   BYTE   UNIT     HCONST         ?HC?ZF_DRIVER_EEPROM
FFE765H   FFE893H   00012FH   BYTE   UNIT     HCONST         ?HC?ZF_DEVICE_DL1A
FFE894H   FFE987H   0000F4H   BYTE   UNIT     HCONST         ?HC?FUNCTION
FFE988H   FFEA57H   0000D0H   BYTE   UNIT     HCONST         ?HC?ZF_DEVICE_IMU963RA
FFEA58H   FFEAFEH   0000A7H   BYTE   UNIT     HCONST         ?HC?ZF_DEVICE_IMU660RA
FFEAFFH   FFEBA2H   0000A4H   BYTE   UNIT     HCONST         ?HC?SEEKFREE_ASSISTANT
FFEBA3H   FFEC44H   0000A2H   BYTE   UNIT     HCONST         ?HC?ZF_DEVICE_GPS_TAU1201
FFEC45H   FFECCEH   00008AH   BYTE   UNIT     HCONST         ?HC?ZF_DRIVER_PWM
FFECCFH   FFED56H   000088H   BYTE   UNIT     HCONST         ?HC?ZF_DEVICE_ICM20602
FFED57H   FFED95H   00003FH   BYTE   UNIT     HCONST         ?HC?ZF_COMMON_FUNCTION
FFED96H   FFEDC9H   000034H   BYTE   UNIT     HCONST         ?HC?ZF_DEVICE_WIRELESS_UART
FFEDCAH   FFEDFCH   000033H   BYTE   UNIT     HCONST         ?HC?ZF_DEVICE_TFT180
FFEDFDH   FFEE2FH   000033H   BYTE   UNIT     HCONST         ?HC?ZF_DEVICE_IPS114
FFEE30H   FFEE62H   000033H   BYTE   UNIT     HCONST         ?HC?ZF_DEVICE_IPS200
FFEE63H   FFEE92H   000030H   BYTE   UNIT     HCONST         ?HC?KEY
FFEE93H   FFEEC1H   00002FH   BYTE   UNIT     HCONST         ?HC?ZF_DRIVER_SOFT_IIC
FFEEC2H   FFEEF0H   00002FH   BYTE   UNIT     HCONST         ?HC?ZF_DRIVER_SOFT_SPI
FFEEF1H   FFEF1EH   00002EH   BYTE   UNIT     HCONST         ?HC?ZF_DRIVER_ENCODER
FFEF1FH   FFEF4CH   00002EH   BYTE   UNIT     HCONST         ?HC?ZF_DEVICE_BLE6A20
FFEF4DH   FFEF77H   00002BH   BYTE   UNIT     HCONST         ?HC?ZF_COMMON_FIFO
FFEF78H   FFEFA2H   00002BH   BYTE   UNIT     HCONST         ?HC?ZF_DRIVER_GPIO
FFEFA3H   FFEFCDH   00002BH   BYTE   UNIT     HCONST         ?HC?ZF_DRIVER_UART
FFEFCEH   FFEFF7H   00002AH   BYTE   UNIT     HCONST         ?HC?ZF_DRIVER_ADC
FFEFF8H   FFF021H   00002AH   BYTE   UNIT     HCONST         ?HC?ZF_DRIVER_SPI
FFF022H   FFF049H   000028H   BYTE   UNIT     HCONST         ?HC?MENU
FFF04AH   FFF06EH   000025H   BYTE   UNIT     HCONST         ?HC?ZF_COMMON_DEBUG
FFF06FH   FFF089H   00001BH   BYTE   UNIT     HCONST         ?HC?ZF_DEVICE_IMU660RB

* * * * * * * * *   R E M O V E D     S E G M E N T S   * * * * * * * *
   *DEL*:           00003EH   BYTE   INSEG    CODE           ?PR?DEBUG_READ_BUFFER?ZF_COMMON_DEBUG
   *DEL*:           000045H   BYTE   INSEG    CODE           ?PR?DEBUG_SEND_BUFFER?ZF_COMMON_DEBUG
   *DEL*:           000004H   BYTE   UNIT     XDATA          ?XD?DEBUG_SEND_BUFFER?ZF_COMMON_DEBUG
   *DEL*:           000004H   BYTE   UNIT     XDATA          ?XD?DEBUG_READ_BUFFER?ZF_COMMON_DEBUG
   *DEL*:           00043DH   BYTE   INSEG    CODE           ?PR?FIFO_READ_BUFFER?ZF_COMMON_FIFO
   *DEL*:           0000C7H   BYTE   INSEG    CODE           ?PR?FIFO_CLEAR?ZF_COMMON_FIFO
   *DEL*:           00004DH   BYTE   INSEG    CODE           ?PR?FIFO_END_OFFSET?ZF_COMMON_FIFO
   *DEL*:           000033H   BYTE   INSEG    CODE           ?PR?FIFO_USED?ZF_COMMON_FIFO
   *DEL*:           000002H   BYTE   UNIT     XDATA          ?XD?FIFO_CLEAR?ZF_COMMON_FIFO
   *DEL*:           000014H   BYTE   UNIT     XDATA          ?XD?FIFO_READ_BUFFER?ZF_COMMON_FIFO
   *DEL*:           0002D1H   BYTE   INSEG    CODE           ?PR?FUNC_DOUBLE_TO_STR?ZF_COMMON_FUNCTION
   *DEL*:           000245H   BYTE   INSEG    CODE           ?PR?FUNC_STR_TO_DOUBLE?ZF_COMMON_FUNCTION
   *DEL*:           000298H   BYTE   INSEG    CODE           ?PR?FUNC_FLOAT_TO_STR?ZF_COMMON_FUNCTION
   *DEL*:           00019DH   BYTE   INSEG    CODE           ?PR?FUNC_STR_TO_FLOAT?ZF_COMMON_FUNCTION
   *DEL*:           000024H   BYTE   INSEG    CODE           ?PR?FUNC_SOFT_DELAY?ZF_COMMON_FUNCTION
   *DEL*:           0000CCH   BYTE   INSEG    CODE           ?PR?FUNC_UINT_TO_STR?ZF_COMMON_FUNCTION
   *DEL*:           000079H   BYTE   INSEG    CODE           ?PR?FUNC_STR_TO_UINT?ZF_COMMON_FUNCTION
   *DEL*:           0000FAH   BYTE   INSEG    CODE           ?PR?FUNC_HEX_TO_STR?ZF_COMMON_FUNCTION
   *DEL*:           00011BH   BYTE   INSEG    CODE           ?PR?FUNC_STR_TO_HEX?ZF_COMMON_FUNCTION
   *DEL*:           000149H   BYTE   INSEG    CODE           ?PR?FUNC_INT_TO_STR?ZF_COMMON_FUNCTION
   *DEL*:           0000BAH   BYTE   INSEG    CODE           ?PR?FUNC_STR_TO_INT?ZF_COMMON_FUNCTION
   *DEL*:           000019H   BYTE   INSEG    CODE           ?PR?FUNC_GET_GREATEST_COMMON_DIVISOR?ZF_COMMON_FUNCTION
   *DEL*:           000004H   BYTE   UNIT     XDATA          ?XD?FUNC_SOFT_DELAY?ZF_COMMON_FUNCTION
   *DEL*:           000005H   BYTE   UNIT     XDATA          ?XD?FUNC_STR_TO_INT?ZF_COMMON_FUNCTION
L251 LINKER/LOCATER V4.66.93.0                                                        11/01/2025  17:49:51  PAGE 9


   *DEL*:           000019H   BYTE   UNIT     XDATA          ?XD?FUNC_INT_TO_STR?ZF_COMMON_FUNCTION
   *DEL*:           000004H   BYTE   UNIT     XDATA          ?XD?FUNC_STR_TO_UINT?ZF_COMMON_FUNCTION
   *DEL*:           000015H   BYTE   UNIT     XDATA          ?XD?FUNC_UINT_TO_STR?ZF_COMMON_FUNCTION
   *DEL*:           00000DH   BYTE   UNIT     XDATA          ?XD?FUNC_STR_TO_FLOAT?ZF_COMMON_FUNCTION
   *DEL*:           000026H   BYTE   UNIT     XDATA          ?XD?FUNC_FLOAT_TO_STR?ZF_COMMON_FUNCTION
   *DEL*:           000019H   BYTE   UNIT     XDATA          ?XD?FUNC_STR_TO_DOUBLE?ZF_COMMON_FUNCTION
   *DEL*:           000038H   BYTE   UNIT     XDATA          ?XD?FUNC_DOUBLE_TO_STR?ZF_COMMON_FUNCTION
   *DEL*:           00000AH   BYTE   UNIT     XDATA          ?XD?FUNC_STR_TO_HEX?ZF_COMMON_FUNCTION
   *DEL*:           000021H   BYTE   UNIT     XDATA          ?XD?FUNC_HEX_TO_STR?ZF_COMMON_FUNCTION
   *DEL*:           000003H   BYTE   INSEG    CODE           ?PR?INTERRUPT_GLOBAL_DISABLE?ZF_COMMON_INTERRUPT
   *DEL*:           00006EH   BYTE   INSEG    CODE           ?PR?ADC_MEAN_FILTER_CONVERT?ZF_DRIVER_ADC
   *DEL*:           000004H   BYTE   UNIT     XDATA          ?XD?ADC_MEAN_FILTER_CONVERT?ZF_DRIVER_ADC
   *DEL*:           00006BH   BYTE   INSEG    CODE           ?PR?SYSTEM_DELAY_US?ZF_DRIVER_DELAY
   *DEL*:           00001CH   BYTE   INSEG    CODE           ?PR?IAP_SET_TPS?ZF_DRIVER_EEPROM
   *DEL*:           00000BH   BYTE   INSEG    CODE           ?PR?EEPROM_TRIG?ZF_DRIVER_EEPROM
   *DEL*:           000028H   BYTE   INSEG    CODE           ?PR?IAP_ERASE_PAGE?ZF_DRIVER_EEPROM
   *DEL*:           000004H   BYTE   INSEG    CODE           ?PR?IAP_IDLE?ZF_DRIVER_EEPROM
   *DEL*:           000049H   BYTE   INSEG    CODE           ?PR?IAP_READ_BUFF?ZF_DRIVER_EEPROM
   *DEL*:           0000F8H   BYTE   INSEG    CODE           ?PR?EXTERN_IAP_WRITE_BUFF?ZF_DRIVER_EEPROM
   *DEL*:           000049H   BYTE   INSEG    CODE           ?PR?IAP_WRITE_BUFF?ZF_DRIVER_EEPROM
   *DEL*:           000023H   BYTE   INSEG    CODE           ?PR?IAP_READ_BYTE?ZF_DRIVER_EEPROM
   *DEL*:           000007H   BYTE   INSEG    CODE           ?PR?IAP_INIT?ZF_DRIVER_EEPROM
   *DEL*:           00002AH   BYTE   INSEG    CODE           ?PR?IAP_WRITE_BYTE?ZF_DRIVER_EEPROM
   *DEL*:           00000DH   BYTE   INSEG    CODE           ?PR?IAP_GET_CMD_STATE?ZF_DRIVER_EEPROM
   *DEL*:           000000H.1 BIT    UNIT     BIT            ?BI?IAP_READ_BYTE?ZF_DRIVER_EEPROM
   *DEL*:           000000H.1 BIT    UNIT     BIT            ?BI?IAP_WRITE_BYTE?ZF_DRIVER_EEPROM
   *DEL*:           000006H   BYTE   UNIT     XDATA          ?XD?IAP_READ_BUFF?ZF_DRIVER_EEPROM
   *DEL*:           000006H   BYTE   UNIT     XDATA          ?XD?IAP_WRITE_BUFF?ZF_DRIVER_EEPROM
   *DEL*:           000000H.1 BIT    UNIT     BIT            ?BI?IAP_ERASE_PAGE?ZF_DRIVER_EEPROM
   *DEL*:           000206H   BYTE   UNIT     XDATA          ?XD?EXTERN_IAP_WRITE_BUFF?ZF_DRIVER_EEPROM
   *DEL*:           00001BH   BYTE   INSEG    CODE           ?PR?GPIO_TOGGLE_LEVEL?ZF_DRIVER_GPIO
   *DEL*:           00025FH   BYTE   INSEG    CODE           ?PR?PWM_SET_FREQ?ZF_DRIVER_PWM
   *DEL*:           000010H   BYTE   UNIT     XDATA          ?XD?PWM_SET_FREQ?ZF_DRIVER_PWM
   *DEL*:           000052H   BYTE   INSEG    CODE           ?PR?SOFT_IIC_WRITE_8BIT_REGISTER?ZF_DRIVER_SOFT_IIC
   *DEL*:           00010DH   BYTE   INSEG    CODE           ?PR?SOFT_IIC_READ_16BIT_REGISTERS?ZF_DRIVER_SOFT_IIC
   *DEL*:           00006EH   BYTE   INSEG    CODE           ?PR?SOFT_IIC_SCCB_READ_REGISTER?ZF_DRIVER_SOFT_IIC
   *DEL*:           0000A5H   BYTE   INSEG    CODE           ?PR?SOFT_IIC_READ_16BIT_REGISTER?ZF_DRIVER_SOFT_IIC
   *DEL*:           000176H   BYTE   INSEG    CODE           ?PR?SOFT_IIC_TRANSFER_16BIT_ARRAY?ZF_DRIVER_SOFT_IIC
   *DEL*:           0000D0H   BYTE   INSEG    CODE           ?PR?SOFT_IIC_WRITE_16BIT_REGISTERS?ZF_DRIVER_SOFT_IIC
   *DEL*:           000052H   BYTE   INSEG    CODE           ?PR?SOFT_IIC_SCCB_WRITE_REGISTER?ZF_DRIVER_SOFT_IIC
   *DEL*:           00004CH   BYTE   INSEG    CODE           ?PR?SOFT_IIC_READ_8BIT?ZF_DRIVER_SOFT_IIC
   *DEL*:           0000BAH   BYTE   INSEG    CODE           ?PR?SOFT_IIC_READ_8BIT_ARRAY?ZF_DRIVER_SOFT_IIC
   *DEL*:           000082H   BYTE   INSEG    CODE           ?PR?SOFT_IIC_WRITE_16BIT_REGISTER?ZF_DRIVER_SOFT_IIC
   *DEL*:           000043H   BYTE   INSEG    CODE           ?PR?SOFT_IIC_WRITE_8BIT?ZF_DRIVER_SOFT_IIC
   *DEL*:           000098H   BYTE   INSEG    CODE           ?PR?SOFT_IIC_WRITE_8BIT_ARRAY?ZF_DRIVER_SOFT_IIC
   *DEL*:           00006FH   BYTE   INSEG    CODE           ?PR?SOFT_IIC_READ_16BIT?ZF_DRIVER_SOFT_IIC
   *DEL*:           0000E1H   BYTE   INSEG    CODE           ?PR?SOFT_IIC_READ_16BIT_ARRAY?ZF_DRIVER_SOFT_IIC
   *DEL*:           0000A6H   BYTE   INSEG    CODE           ?PR?SOFT_IIC_INIT?ZF_DRIVER_SOFT_IIC
   *DEL*:           0000D7H   BYTE   INSEG    CODE           ?PR?SOFT_IIC_READ_8BIT_REGISTERS?ZF_DRIVER_SOFT_IIC
   *DEL*:           00005CH   BYTE   INSEG    CODE           ?PR?SOFT_IIC_WRITE_16BIT?ZF_DRIVER_SOFT_IIC
   *DEL*:           0000B4H   BYTE   INSEG    CODE           ?PR?SOFT_IIC_WRITE_16BIT_ARRAY?ZF_DRIVER_SOFT_IIC
   *DEL*:           000069H   BYTE   INSEG    CODE           ?PR?SOFT_IIC_READ_8BIT_REGISTER?ZF_DRIVER_SOFT_IIC
   *DEL*:           000130H   BYTE   INSEG    CODE           ?PR?SOFT_IIC_TRANSFER_8BIT_ARRAY?ZF_DRIVER_SOFT_IIC
   *DEL*:           0000A5H   BYTE   INSEG    CODE           ?PR?SOFT_IIC_WRITE_8BIT_REGISTERS?ZF_DRIVER_SOFT_IIC
   *DEL*:           000001H   BYTE   UNIT     XDATA          ?XD?SOFT_IIC_WRITE_8BIT?ZF_DRIVER_SOFT_IIC
   *DEL*:           000008H   BYTE   UNIT     XDATA          ?XD?SOFT_IIC_WRITE_8BIT_ARRAY?ZF_DRIVER_SOFT_IIC
   *DEL*:           000002H   BYTE   UNIT     XDATA          ?XD?SOFT_IIC_WRITE_16BIT?ZF_DRIVER_SOFT_IIC
   *DEL*:           000008H   BYTE   UNIT     XDATA          ?XD?SOFT_IIC_WRITE_16BIT_ARRAY?ZF_DRIVER_SOFT_IIC
   *DEL*:           000002H   BYTE   UNIT     XDATA          ?XD?SOFT_IIC_WRITE_8BIT_REGISTER?ZF_DRIVER_SOFT_IIC
   *DEL*:           000009H   BYTE   UNIT     XDATA          ?XD?SOFT_IIC_WRITE_8BIT_REGISTERS?ZF_DRIVER_SOFT_IIC
   *DEL*:           000004H   BYTE   UNIT     XDATA          ?XD?SOFT_IIC_WRITE_16BIT_REGISTER?ZF_DRIVER_SOFT_IIC
   *DEL*:           00000AH   BYTE   UNIT     XDATA          ?XD?SOFT_IIC_WRITE_16BIT_REGISTERS?ZF_DRIVER_SOFT_IIC
   *DEL*:           000001H   BYTE   UNIT     XDATA          ?XD?SOFT_IIC_READ_8BIT?ZF_DRIVER_SOFT_IIC
   *DEL*:           000008H   BYTE   UNIT     XDATA          ?XD?SOFT_IIC_READ_8BIT_ARRAY?ZF_DRIVER_SOFT_IIC
   *DEL*:           000002H   BYTE   UNIT     XDATA          ?XD?SOFT_IIC_READ_16BIT?ZF_DRIVER_SOFT_IIC
L251 LINKER/LOCATER V4.66.93.0                                                        11/01/2025  17:49:51  PAGE 10


   *DEL*:           000008H   BYTE   UNIT     XDATA          ?XD?SOFT_IIC_READ_16BIT_ARRAY?ZF_DRIVER_SOFT_IIC
   *DEL*:           000002H   BYTE   UNIT     XDATA          ?XD?SOFT_IIC_READ_8BIT_REGISTER?ZF_DRIVER_SOFT_IIC
   *DEL*:           000009H   BYTE   UNIT     XDATA          ?XD?SOFT_IIC_READ_8BIT_REGISTERS?ZF_DRIVER_SOFT_IIC
   *DEL*:           000004H   BYTE   UNIT     XDATA          ?XD?SOFT_IIC_READ_16BIT_REGISTER?ZF_DRIVER_SOFT_IIC
   *DEL*:           00000AH   BYTE   UNIT     XDATA          ?XD?SOFT_IIC_READ_16BIT_REGISTERS?ZF_DRIVER_SOFT_IIC
   *DEL*:           000010H   BYTE   UNIT     XDATA          ?XD?SOFT_IIC_TRANSFER_8BIT_ARRAY?ZF_DRIVER_SOFT_IIC
   *DEL*:           000010H   BYTE   UNIT     XDATA          ?XD?SOFT_IIC_TRANSFER_16BIT_ARRAY?ZF_DRIVER_SOFT_IIC
   *DEL*:           000002H   BYTE   UNIT     XDATA          ?XD?SOFT_IIC_SCCB_WRITE_REGISTER?ZF_DRIVER_SOFT_IIC
   *DEL*:           000002H   BYTE   UNIT     XDATA          ?XD?SOFT_IIC_SCCB_READ_REGISTER?ZF_DRIVER_SOFT_IIC
   *DEL*:           000009H   BYTE   UNIT     XDATA          ?XD?SOFT_IIC_INIT?ZF_DRIVER_SOFT_IIC
   *DEL*:           00023EH   BYTE   INSEG    CODE           ?PR?SOFT_SPI_INIT?ZF_DRIVER_SOFT_SPI
   *DEL*:           0000BBH   BYTE   INSEG    CODE           ?PR?SOFT_SPI_READ_8BIT_REGISTERS?ZF_DRIVER_SOFT_SPI
   *DEL*:           00004FH   BYTE   INSEG    CODE           ?PR?SOFT_SPI_WRITE_16BIT?ZF_DRIVER_SOFT_SPI
   *DEL*:           00010EH   BYTE   INSEG    CODE           ?PR?SOFT_SPI_8BIT_DATA_HANDLER?ZF_DRIVER_SOFT_SPI
   *DEL*:           0000A0H   BYTE   INSEG    CODE           ?PR?SOFT_SPI_WRITE_16BIT_ARRAY?ZF_DRIVER_SOFT_SPI
   *DEL*:           00005EH   BYTE   INSEG    CODE           ?PR?SOFT_SPI_READ_8BIT_REGISTER?ZF_DRIVER_SOFT_SPI
   *DEL*:           000102H   BYTE   INSEG    CODE           ?PR?SOFT_SPI_TRANSFER_8BIT?ZF_DRIVER_SOFT_SPI
   *DEL*:           0000ADH   BYTE   INSEG    CODE           ?PR?SOFT_SPI_WRITE_8BIT_REGISTERS?ZF_DRIVER_SOFT_SPI
   *DEL*:           00005AH   BYTE   INSEG    CODE           ?PR?SOFT_SPI_WRITE_8BIT_REGISTER?ZF_DRIVER_SOFT_SPI
   *DEL*:           0000B8H   BYTE   INSEG    CODE           ?PR?SOFT_SPI_READ_16BIT_REGISTERS?ZF_DRIVER_SOFT_SPI
   *DEL*:           000133H   BYTE   INSEG    CODE           ?PR?SOFT_SPI_16BIT_DATA_HANDLER?ZF_DRIVER_SOFT_SPI
   *DEL*:           00006AH   BYTE   INSEG    CODE           ?PR?SOFT_SPI_READ_16BIT_REGISTER?ZF_DRIVER_SOFT_SPI
   *DEL*:           000104H   BYTE   INSEG    CODE           ?PR?SOFT_SPI_TRANSFER_16BIT?ZF_DRIVER_SOFT_SPI
   *DEL*:           0000A7H   BYTE   INSEG    CODE           ?PR?SOFT_SPI_WRITE_16BIT_REGISTERS?ZF_DRIVER_SOFT_SPI
   *DEL*:           000051H   BYTE   INSEG    CODE           ?PR?SOFT_SPI_READ_8BIT?ZF_DRIVER_SOFT_SPI
   *DEL*:           0000AEH   BYTE   INSEG    CODE           ?PR?SOFT_SPI_READ_8BIT_ARRAY?ZF_DRIVER_SOFT_SPI
   *DEL*:           000060H   BYTE   INSEG    CODE           ?PR?SOFT_SPI_WRITE_16BIT_REGISTER?ZF_DRIVER_SOFT_SPI
   *DEL*:           00004BH   BYTE   INSEG    CODE           ?PR?SOFT_SPI_WRITE_8BIT?ZF_DRIVER_SOFT_SPI
   *DEL*:           0000A0H   BYTE   INSEG    CODE           ?PR?SOFT_SPI_WRITE_8BIT_ARRAY?ZF_DRIVER_SOFT_SPI
   *DEL*:           000026H   BYTE   INSEG    CODE           ?PR?SOFT_SPI_DELAY?ZF_DRIVER_SOFT_SPI
   *DEL*:           000056H   BYTE   INSEG    CODE           ?PR?SOFT_SPI_READ_16BIT?ZF_DRIVER_SOFT_SPI
   *DEL*:           0000B1H   BYTE   INSEG    CODE           ?PR?SOFT_SPI_READ_16BIT_ARRAY?ZF_DRIVER_SOFT_SPI
   *DEL*:           000004H   BYTE   UNIT     XDATA          ?XD?SOFT_SPI_DELAY?ZF_DRIVER_SOFT_SPI
   *DEL*:           000003H   BYTE   UNIT     XDATA          ?XD?SOFT_SPI_8BIT_DATA_HANDLER?ZF_DRIVER_SOFT_SPI
   *DEL*:           000005H   BYTE   UNIT     XDATA          ?XD?SOFT_SPI_16BIT_DATA_HANDLER?ZF_DRIVER_SOFT_SPI
   *DEL*:           000001H   BYTE   UNIT     XDATA          ?XD?SOFT_SPI_WRITE_8BIT?ZF_DRIVER_SOFT_SPI
   *DEL*:           000008H   BYTE   UNIT     XDATA          ?XD?SOFT_SPI_WRITE_8BIT_ARRAY?ZF_DRIVER_SOFT_SPI
   *DEL*:           000002H   BYTE   UNIT     XDATA          ?XD?SOFT_SPI_WRITE_16BIT?ZF_DRIVER_SOFT_SPI
   *DEL*:           000008H   BYTE   UNIT     XDATA          ?XD?SOFT_SPI_WRITE_16BIT_ARRAY?ZF_DRIVER_SOFT_SPI
   *DEL*:           000002H   BYTE   UNIT     XDATA          ?XD?SOFT_SPI_WRITE_8BIT_REGISTER?ZF_DRIVER_SOFT_SPI
   *DEL*:           000009H   BYTE   UNIT     XDATA          ?XD?SOFT_SPI_WRITE_8BIT_REGISTERS?ZF_DRIVER_SOFT_SPI
   *DEL*:           000004H   BYTE   UNIT     XDATA          ?XD?SOFT_SPI_WRITE_16BIT_REGISTER?ZF_DRIVER_SOFT_SPI
   *DEL*:           00000AH   BYTE   UNIT     XDATA          ?XD?SOFT_SPI_WRITE_16BIT_REGISTERS?ZF_DRIVER_SOFT_SPI
   *DEL*:           000001H   BYTE   UNIT     XDATA          ?XD?SOFT_SPI_READ_8BIT?ZF_DRIVER_SOFT_SPI
   *DEL*:           000008H   BYTE   UNIT     XDATA          ?XD?SOFT_SPI_READ_8BIT_ARRAY?ZF_DRIVER_SOFT_SPI
   *DEL*:           000001H   BYTE   UNIT     XDATA          ?XD?SOFT_SPI_READ_16BIT?ZF_DRIVER_SOFT_SPI
   *DEL*:           000008H   BYTE   UNIT     XDATA          ?XD?SOFT_SPI_READ_16BIT_ARRAY?ZF_DRIVER_SOFT_SPI
   *DEL*:           000002H   BYTE   UNIT     XDATA          ?XD?SOFT_SPI_READ_8BIT_REGISTER?ZF_DRIVER_SOFT_SPI
   *DEL*:           000009H   BYTE   UNIT     XDATA          ?XD?SOFT_SPI_READ_8BIT_REGISTERS?ZF_DRIVER_SOFT_SPI
   *DEL*:           000004H   BYTE   UNIT     XDATA          ?XD?SOFT_SPI_READ_16BIT_REGISTER?ZF_DRIVER_SOFT_SPI
   *DEL*:           00000AH   BYTE   UNIT     XDATA          ?XD?SOFT_SPI_READ_16BIT_REGISTERS?ZF_DRIVER_SOFT_SPI
   *DEL*:           00000CH   BYTE   UNIT     XDATA          ?XD?SOFT_SPI_TRANSFER_8BIT?ZF_DRIVER_SOFT_SPI
   *DEL*:           00000CH   BYTE   UNIT     XDATA          ?XD?SOFT_SPI_TRANSFER_16BIT?ZF_DRIVER_SOFT_SPI
   *DEL*:           000011H   BYTE   UNIT     XDATA          ?XD?SOFT_SPI_INIT?ZF_DRIVER_SOFT_SPI
   *DEL*:           00001BH   BYTE   INSEG    CODE           ?PR?SPI_WRITE_8BIT_REGISTER?ZF_DRIVER_SPI
   *DEL*:           00007FH   BYTE   INSEG    CODE           ?PR?SPI_READ_16BIT_REGISTERS?ZF_DRIVER_SPI
   *DEL*:           000057H   BYTE   INSEG    CODE           ?PR?SPI_READ_16BIT_REGISTER?ZF_DRIVER_SPI
   *DEL*:           0000C3H   BYTE   INSEG    CODE           ?PR?SPI_TRANSFER_16BIT?ZF_DRIVER_SPI
   *DEL*:           000060H   BYTE   INSEG    CODE           ?PR?SPI_WRITE_16BIT_REGISTERS?ZF_DRIVER_SPI
   *DEL*:           000005H   BYTE   INSEG    CODE           ?PR?SPI_READ_8BIT?ZF_DRIVER_SPI
   *DEL*:           000037H   BYTE   INSEG    CODE           ?PR?SPI_READ_8BIT_ARRAY?ZF_DRIVER_SPI
   *DEL*:           000045H   BYTE   INSEG    CODE           ?PR?SPI_WRITE_16BIT_REGISTER?ZF_DRIVER_SPI
   *DEL*:           000036H   BYTE   INSEG    CODE           ?PR?SPI_WRITE_8BIT_ARRAY?ZF_DRIVER_SPI
   *DEL*:           000021H   BYTE   INSEG    CODE           ?PR?SPI_READ_16BIT?ZF_DRIVER_SPI
   *DEL*:           000051H   BYTE   INSEG    CODE           ?PR?SPI_READ_16BIT_ARRAY?ZF_DRIVER_SPI
L251 LINKER/LOCATER V4.66.93.0                                                        11/01/2025  17:49:51  PAGE 11


   *DEL*:           000044H   BYTE   INSEG    CODE           ?PR?SPI_READ_8BIT_REGISTERS?ZF_DRIVER_SPI
   *DEL*:           000056H   BYTE   INSEG    CODE           ?PR?SPI_READ_DAT?ZF_DRIVER_SPI
   *DEL*:           00004CH   BYTE   INSEG    CODE           ?PR?SPI_WRITE_16BIT_ARRAY?ZF_DRIVER_SPI
   *DEL*:           000014H   BYTE   INSEG    CODE           ?PR?SPI_READ_8BIT_REGISTER?ZF_DRIVER_SPI
   *DEL*:           000077H   BYTE   INSEG    CODE           ?PR?SPI_TRANSFER_8BIT?ZF_DRIVER_SPI
   *DEL*:           000043H   BYTE   INSEG    CODE           ?PR?SPI_WRITE_8BIT_REGISTERS?ZF_DRIVER_SPI
   *DEL*:           000006H   BYTE   UNIT     XDATA          ?XD?SPI_WRITE_8BIT_ARRAY?ZF_DRIVER_SPI
   *DEL*:           000006H   BYTE   UNIT     XDATA          ?XD?SPI_WRITE_16BIT_ARRAY?ZF_DRIVER_SPI
   *DEL*:           000006H   BYTE   UNIT     XDATA          ?XD?SPI_WRITE_8BIT_REGISTERS?ZF_DRIVER_SPI
   *DEL*:           000002H   BYTE   UNIT     XDATA          ?XD?SPI_WRITE_16BIT_REGISTER?ZF_DRIVER_SPI
   *DEL*:           000008H   BYTE   UNIT     XDATA          ?XD?SPI_WRITE_16BIT_REGISTERS?ZF_DRIVER_SPI
   *DEL*:           000006H   BYTE   UNIT     XDATA          ?XD?SPI_READ_8BIT_ARRAY?ZF_DRIVER_SPI
   *DEL*:           000006H   BYTE   UNIT     XDATA          ?XD?SPI_READ_16BIT_ARRAY?ZF_DRIVER_SPI
   *DEL*:           000006H   BYTE   UNIT     XDATA          ?XD?SPI_READ_8BIT_REGISTERS?ZF_DRIVER_SPI
   *DEL*:           000002H   BYTE   UNIT     XDATA          ?XD?SPI_READ_16BIT_REGISTER?ZF_DRIVER_SPI
   *DEL*:           000008H   BYTE   UNIT     XDATA          ?XD?SPI_READ_16BIT_REGISTERS?ZF_DRIVER_SPI
   *DEL*:           00000AH   BYTE   UNIT     XDATA          ?XD?SPI_TRANSFER_8BIT?ZF_DRIVER_SPI
   *DEL*:           00000AH   BYTE   UNIT     XDATA          ?XD?SPI_TRANSFER_16BIT?ZF_DRIVER_SPI
   *DEL*:           000052H   BYTE   INSEG    CODE           ?PR?UART_WRITE_STRING?ZF_DRIVER_UART
   *DEL*:           000053H   BYTE   INSEG    CODE           ?PR?UART_READ_BYTE?ZF_DRIVER_UART
   *DEL*:           000104H   BYTE   UNIT     XDATA          ?XD?UART_WRITE_STRING?ZF_DRIVER_UART
   *DEL*:           00000FH   BYTE   INSEG    CODE           ?PR?SET_TOF_TYPE?ZF_DEVICE_TYPE
   *DEL*:           000043H   BYTE   INSEG    CODE           ?PR?SET_GPS_TYPE?ZF_DEVICE_TYPE
   *DEL*:           000043H   BYTE   INSEG    CODE           ?PR?SET_WIRELESS_TYPE?ZF_DEVICE_TYPE
   *DEL*:           000061H   BYTE   INSEG    CODE           ?PR?TFT180_DRAW_POINT?ZF_DEVICE_TFT180
   *DEL*:           0000F3H   BYTE   INSEG    CODE           ?PR?TFT180_SHOW_UINT16?ZF_DEVICE_TFT180
   *DEL*:           000109H   BYTE   INSEG    CODE           ?PR?TFT180_SHOW_INT32?ZF_DEVICE_TFT180
   *DEL*:           0001E8H   BYTE   INSEG    CODE           ?PR?TFT180_SHOW_WAVE?ZF_DEVICE_TFT180
   *DEL*:           0000C3H   BYTE   INSEG    CODE           ?PR?TFT180_SHOW_UINT8?ZF_DEVICE_TFT180
   *DEL*:           0000F3H   BYTE   INSEG    CODE           ?PR?TFT180_SHOW_INT8?ZF_DEVICE_TFT180
   *DEL*:           000002H   BYTE   UNIT     XDATA          ?XD?TFT180_DRAW_POINT?ZF_DEVICE_TFT180
   *DEL*:           000005H   BYTE   UNIT     XDATA          ?XD?TFT180_SHOW_INT8?ZF_DEVICE_TFT180
   *DEL*:           000005H   BYTE   UNIT     XDATA          ?XD?TFT180_SHOW_UINT8?ZF_DEVICE_TFT180
   *DEL*:           000008H   BYTE   UNIT     XDATA          ?XD?TFT180_SHOW_UINT16?ZF_DEVICE_TFT180
   *DEL*:           000028H   BYTE   UNIT     XDATA          ?XD?TFT180_SHOW_INT32?ZF_DEVICE_TFT180
   *DEL*:           00001CH   BYTE   UNIT     XDATA          ?XD?TFT180_SHOW_WAVE?ZF_DEVICE_TFT180
   *DEL*:           0001C4H   BYTE   INSEG    CODE           ?PR?IPS114_SHOW_FLOAT?ZF_DEVICE_IPS114
   *DEL*:           000061H   BYTE   INSEG    CODE           ?PR?IPS114_DRAW_POINT?ZF_DEVICE_IPS114
   *DEL*:           0000A9H   BYTE   INSEG    CODE           ?PR?IPS114_SHOW_STRING?ZF_DEVICE_IPS114
   *DEL*:           0000E0H   BYTE   INSEG    CODE           ?PR?IPS114_SHOW_CHAR?ZF_DEVICE_IPS114
   *DEL*:           0000F3H   BYTE   INSEG    CODE           ?PR?IPS114_SHOW_UINT16?ZF_DEVICE_IPS114
   *DEL*:           00000DH   BYTE   INSEG    CODE           ?PR?IPS114_SET_COLOR?ZF_DEVICE_IPS114
   *DEL*:           000109H   BYTE   INSEG    CODE           ?PR?IPS114_SHOW_INT32?ZF_DEVICE_IPS114
   *DEL*:           000133H   BYTE   INSEG    CODE           ?PR?IPS114_SHOW_INT16?ZF_DEVICE_IPS114
   *DEL*:           0001E8H   BYTE   INSEG    CODE           ?PR?IPS114_SHOW_WAVE?ZF_DEVICE_IPS114
   *DEL*:           000027H   BYTE   INSEG    CODE           ?PR?IPS114_SET_DIR?ZF_DEVICE_IPS114
   *DEL*:           0001D0H   BYTE   INSEG    CODE           ?PR?IPS114_SHOW_CHINESE?ZF_DEVICE_IPS114
   *DEL*:           00005AH   BYTE   INSEG    CODE           ?PR?IPS114_CLEAR?ZF_DEVICE_IPS114
   *DEL*:           0000C3H   BYTE   INSEG    CODE           ?PR?IPS114_SHOW_UINT8?ZF_DEVICE_IPS114
   *DEL*:           0000F3H   BYTE   INSEG    CODE           ?PR?IPS114_SHOW_INT8?ZF_DEVICE_IPS114
   *DEL*:           000016H   BYTE   INSEG    CODE           ?PR?IPS114_WRITE_INDEX?ZF_DEVICE_IPS114
   *DEL*:           0001CFH   BYTE   INSEG    CODE           ?PR?IPS114_SET_REGION?ZF_DEVICE_IPS114
   *DEL*:           00025AH   BYTE   INSEG    CODE           ?PR?IPS114_INIT?ZF_DEVICE_IPS114
   *DEL*:           000004H   BYTE   UNIT     XDATA          ?XD?IPS114_SET_REGION?ZF_DEVICE_IPS114
   *DEL*:           000002H   BYTE   UNIT     XDATA          ?XD?IPS114_CLEAR?ZF_DEVICE_IPS114
   *DEL*:           000002H   BYTE   UNIT     XDATA          ?XD?IPS114_DRAW_POINT?ZF_DEVICE_IPS114
   *DEL*:           000004H   BYTE   UNIT     XDATA          ?XD?IPS114_SHOW_CHAR?ZF_DEVICE_IPS114
   *DEL*:           000006H   BYTE   UNIT     XDATA          ?XD?IPS114_SHOW_STRING?ZF_DEVICE_IPS114
   *DEL*:           000005H   BYTE   UNIT     XDATA          ?XD?IPS114_SHOW_INT8?ZF_DEVICE_IPS114
   *DEL*:           000005H   BYTE   UNIT     XDATA          ?XD?IPS114_SHOW_UINT8?ZF_DEVICE_IPS114
   *DEL*:           000008H   BYTE   UNIT     XDATA          ?XD?IPS114_SHOW_INT16?ZF_DEVICE_IPS114
   *DEL*:           000008H   BYTE   UNIT     XDATA          ?XD?IPS114_SHOW_UINT16?ZF_DEVICE_IPS114
   *DEL*:           000028H   BYTE   UNIT     XDATA          ?XD?IPS114_SHOW_INT32?ZF_DEVICE_IPS114
   *DEL*:           000031H   BYTE   UNIT     XDATA          ?XD?IPS114_SHOW_FLOAT?ZF_DEVICE_IPS114
   *DEL*:           00001CH   BYTE   UNIT     XDATA          ?XD?IPS114_SHOW_WAVE?ZF_DEVICE_IPS114
L251 LINKER/LOCATER V4.66.93.0                                                        11/01/2025  17:49:51  PAGE 12


   *DEL*:           000015H   BYTE   UNIT     XDATA          ?XD?IPS114_SHOW_CHINESE?ZF_DEVICE_IPS114
   *DEL*:           0001C4H   BYTE   INSEG    CODE           ?PR?IPS200_SHOW_FLOAT?ZF_DEVICE_IPS200
   *DEL*:           000061H   BYTE   INSEG    CODE           ?PR?IPS200_DRAW_POINT?ZF_DEVICE_IPS200
   *DEL*:           0000A9H   BYTE   INSEG    CODE           ?PR?IPS200_SHOW_STRING?ZF_DEVICE_IPS200
   *DEL*:           0000E0H   BYTE   INSEG    CODE           ?PR?IPS200_SHOW_CHAR?ZF_DEVICE_IPS200
   *DEL*:           0000F3H   BYTE   INSEG    CODE           ?PR?IPS200_SHOW_UINT16?ZF_DEVICE_IPS200
   *DEL*:           00000DH   BYTE   INSEG    CODE           ?PR?IPS200_SET_COLOR?ZF_DEVICE_IPS200
   *DEL*:           000109H   BYTE   INSEG    CODE           ?PR?IPS200_SHOW_INT32?ZF_DEVICE_IPS200
   *DEL*:           000133H   BYTE   INSEG    CODE           ?PR?IPS200_SHOW_INT16?ZF_DEVICE_IPS200
   *DEL*:           0001E8H   BYTE   INSEG    CODE           ?PR?IPS200_SHOW_WAVE?ZF_DEVICE_IPS200
   *DEL*:           000007H   BYTE   INSEG    CODE           ?PR?IPS200_SET_DIR?ZF_DEVICE_IPS200
   *DEL*:           0001D0H   BYTE   INSEG    CODE           ?PR?IPS200_SHOW_CHINESE?ZF_DEVICE_IPS200
   *DEL*:           00005AH   BYTE   INSEG    CODE           ?PR?IPS200_CLEAR?ZF_DEVICE_IPS200
   *DEL*:           0000C3H   BYTE   INSEG    CODE           ?PR?IPS200_SHOW_UINT8?ZF_DEVICE_IPS200
   *DEL*:           0000F3H   BYTE   INSEG    CODE           ?PR?IPS200_SHOW_INT8?ZF_DEVICE_IPS200
   *DEL*:           000016H   BYTE   INSEG    CODE           ?PR?IPS200_WRITE_INDEX?ZF_DEVICE_IPS200
   *DEL*:           0000CCH   BYTE   INSEG    CODE           ?PR?IPS200_SET_REGION?ZF_DEVICE_IPS200
   *DEL*:           00025AH   BYTE   INSEG    CODE           ?PR?IPS200_INIT?ZF_DEVICE_IPS200
   *DEL*:           000004H   BYTE   UNIT     XDATA          ?XD?IPS200_SET_REGION?ZF_DEVICE_IPS200
   *DEL*:           000002H   BYTE   UNIT     XDATA          ?XD?IPS200_CLEAR?ZF_DEVICE_IPS200
   *DEL*:           000002H   BYTE   UNIT     XDATA          ?XD?IPS200_DRAW_POINT?ZF_DEVICE_IPS200
   *DEL*:           000004H   BYTE   UNIT     XDATA          ?XD?IPS200_SHOW_CHAR?ZF_DEVICE_IPS200
   *DEL*:           000006H   BYTE   UNIT     XDATA          ?XD?IPS200_SHOW_STRING?ZF_DEVICE_IPS200
   *DEL*:           000005H   BYTE   UNIT     XDATA          ?XD?IPS200_SHOW_INT8?ZF_DEVICE_IPS200
   *DEL*:           000005H   BYTE   UNIT     XDATA          ?XD?IPS200_SHOW_UINT8?ZF_DEVICE_IPS200
   *DEL*:           000008H   BYTE   UNIT     XDATA          ?XD?IPS200_SHOW_INT16?ZF_DEVICE_IPS200
   *DEL*:           000008H   BYTE   UNIT     XDATA          ?XD?IPS200_SHOW_UINT16?ZF_DEVICE_IPS200
   *DEL*:           000028H   BYTE   UNIT     XDATA          ?XD?IPS200_SHOW_INT32?ZF_DEVICE_IPS200
   *DEL*:           000031H   BYTE   UNIT     XDATA          ?XD?IPS200_SHOW_FLOAT?ZF_DEVICE_IPS200
   *DEL*:           00001CH   BYTE   UNIT     XDATA          ?XD?IPS200_SHOW_WAVE?ZF_DEVICE_IPS200
   *DEL*:           000015H   BYTE   UNIT     XDATA          ?XD?IPS200_SHOW_CHINESE?ZF_DEVICE_IPS200
   *DEL*:           00003FH   BYTE   INSEG    CODE           ?PR?DL1A_TIMEOUT_MICROSECONDS_TO_MCLKS?ZF_DEVICE_DL1A
   *DEL*:           000041H   BYTE   INSEG    CODE           ?PR?DL1A_TIMEOUT_MCLKS_TO_MICROSECONDS?ZF_DEVICE_DL1A
   *DEL*:           000083H   BYTE   INSEG    CODE           ?PR?DL1A_SET_SIGNAL_RATE_LIMIT?ZF_DEVICE_DL1A
   *DEL*:           000018H   BYTE   INSEG    CODE           ?PR?DL1A_DECODE_TIMEOUT?ZF_DEVICE_DL1A
   *DEL*:           000233H   BYTE   INSEG    CODE           ?PR?DL1A_GET_SPAD_INFO?ZF_DEVICE_DL1A
   *DEL*:           000038H   BYTE   INSEG    CODE           ?PR?DL1A_ENCODE_TIMEOUT?ZF_DEVICE_DL1A
   *DEL*:           00006AH   BYTE   INSEG    CODE           ?PR?DL1A_GET_SEQUENCE_STEP_ENABLES?ZF_DEVICE_DL1A
   *DEL*:           0000C7H   BYTE   INSEG    CODE           ?PR?DL1A_GET_DISTANCE?ZF_DEVICE_DL1A
   *DEL*:           0000BAH   BYTE   INSEG    CODE           ?PR?DL1A_PERFORM_SINGLE_REF_CALIBRATION?ZF_DEVICE_DL1A
   *DEL*:           00013CH   BYTE   INSEG    CODE           ?PR?DL1A_GET_SEQUENCE_STEP_TIMEOUTS?ZF_DEVICE_DL1A
   *DEL*:           000001H   BYTE   INSEG    CODE           ?PR?DL1A_INT_HANDLER?ZF_DEVICE_DL1A
   *DEL*:           00009BH   BYTE   INSEG    CODE           ?PR?DL1A_GET_MEASUREMENT_TIMING_BUDGET?ZF_DEVICE_DL1A
   *DEL*:           0001D4H   BYTE   INSEG    CODE           ?PR?DL1A_SET_MEASUREMENT_TIMING_BUDGET?ZF_DEVICE_DL1A
   *DEL*:           0004C9H   BYTE   INSEG    CODE           ?PR?DL1A_INIT?ZF_DEVICE_DL1A
   *DEL*:           000086H   BYTE   INSEG    CODE           ?PR?DL1A_GET_VCSEL_PULSE_PERIOD?ZF_DEVICE_DL1A
   *DEL*:           000008H   BYTE   UNIT     XDATA          ?XD?DL1A_GET_SPAD_INFO?ZF_DEVICE_DL1A
   *DEL*:           000001H   BYTE   UNIT     XDATA          ?XD?DL1A_GET_SEQUENCE_STEP_ENABLES?ZF_DEVICE_DL1A
   *DEL*:           000001H   BYTE   UNIT     XDATA          ?XD?DL1A_GET_VCSEL_PULSE_PERIOD?ZF_DEVICE_DL1A
   *DEL*:           000008H   BYTE   UNIT     XDATA          ?XD?DL1A_GET_SEQUENCE_STEP_TIMEOUTS?ZF_DEVICE_DL1A
   *DEL*:           000003H   BYTE   UNIT     XDATA          ?XD?DL1A_PERFORM_SINGLE_REF_CALIBRATION?ZF_DEVICE_DL1A
   *DEL*:           00002BH   BYTE   UNIT     XDATA          ?XD?DL1A_SET_MEASUREMENT_TIMING_BUDGET?ZF_DEVICE_DL1A
   *DEL*:           00001BH   BYTE   UNIT     XDATA          ?XD?DL1A_GET_MEASUREMENT_TIMING_BUDGET?ZF_DEVICE_DL1A
   *DEL*:           000003H   BYTE   UNIT     XDATA          ?XD?DL1A_SET_SIGNAL_RATE_LIMIT?ZF_DEVICE_DL1A
   *DEL*:           000003H   BYTE   UNIT     XDATA          ?XD?DL1A_GET_DISTANCE?ZF_DEVICE_DL1A
   *DEL*:           0000CAH   BYTE   UNIT     XDATA          ?XD?DL1A_INIT?ZF_DEVICE_DL1A
   *DEL*:           00005EH   BYTE   INSEG    CODE           ?PR?BLE6A20_READ_BUFFER?ZF_DEVICE_BLE6A20
   *DEL*:           0000CFH   BYTE   INSEG    CODE           ?PR?BLE6A20_SEND_BUFFER?ZF_DEVICE_BLE6A20
   *DEL*:           00003FH   BYTE   INSEG    CODE           ?PR?BLE6A20_SEND_STRING?ZF_DEVICE_BLE6A20
   *DEL*:           000026H   BYTE   INSEG    CODE           ?PR?BLE6A20_CALLBACK?ZF_DEVICE_BLE6A20
   *DEL*:           000087H   BYTE   INSEG    CODE           ?PR?BLE6A20_INIT?ZF_DEVICE_BLE6A20
   *DEL*:           000044H   BYTE   INSEG    CODE           ?PR?BLE6A20_SEND_BYTE?ZF_DEVICE_BLE6A20
   *DEL*:           000008H   BYTE   UNIT     XDATA          ?XD?BLE6A20_SEND_BUFFER?ZF_DEVICE_BLE6A20
   *DEL*:           000004H   BYTE   UNIT     XDATA          ?XD?BLE6A20_SEND_STRING?ZF_DEVICE_BLE6A20
   *DEL*:           000004H   BYTE   UNIT     XDATA          ?XD?BLE6A20_READ_BUFFER?ZF_DEVICE_BLE6A20
L251 LINKER/LOCATER V4.66.93.0                                                        11/01/2025  17:49:51  PAGE 13


   *DEL*:           000001H   BYTE   UNIT     XDATA          ?XD?BLE6A20_CALLBACK?ZF_DEVICE_BLE6A20
   *DEL*:           0000CDH   BYTE   INSEG    CODE           ?PR?WIRELESS_UART_SEND_BUFFER?ZF_DEVICE_WIRELESS_UART
   *DEL*:           00003FH   BYTE   INSEG    CODE           ?PR?WIRELESS_UART_SEND_STRING?ZF_DEVICE_WIRELESS_UART
   *DEL*:           000026H   BYTE   INSEG    CODE           ?PR?WIRELESS_UART_CALLBACK?ZF_DEVICE_WIRELESS_UART
   *DEL*:           00007AH   BYTE   INSEG    CODE           ?PR?WIRELESS_UART_INIT?ZF_DEVICE_WIRELESS_UART
   *DEL*:           000042H   BYTE   INSEG    CODE           ?PR?WIRELESS_UART_SEND_BYTE?ZF_DEVICE_WIRELESS_UART
   *DEL*:           00005EH   BYTE   INSEG    CODE           ?PR?WIRELESS_UART_READ_BUFFER?ZF_DEVICE_WIRELESS_UART
   *DEL*:           000008H   BYTE   UNIT     XDATA          ?XD?WIRELESS_UART_SEND_BUFFER?ZF_DEVICE_WIRELESS_UART
   *DEL*:           000004H   BYTE   UNIT     XDATA          ?XD?WIRELESS_UART_SEND_STRING?ZF_DEVICE_WIRELESS_UART
   *DEL*:           000004H   BYTE   UNIT     XDATA          ?XD?WIRELESS_UART_READ_BUFFER?ZF_DEVICE_WIRELESS_UART
   *DEL*:           000001H   BYTE   UNIT     XDATA          ?XD?WIRELESS_UART_CALLBACK?ZF_DEVICE_WIRELESS_UART
   *DEL*:           00001AH   BYTE   INSEG    CODE           ?PR?ICM20602_READ_REGISTER?ZF_DEVICE_ICM20602
   *DEL*:           00000CH   BYTE   INSEG    CODE           ?PR?ICM20602_WRITE_REGISTER?ZF_DEVICE_ICM20602
   *DEL*:           000021H   BYTE   INSEG    CODE           ?PR?ICM20602_SIMSPI_WR_BYTE?ZF_DEVICE_ICM20602
   *DEL*:           000031H   BYTE   INSEG    CODE           ?PR?ICM20602_SELF_CHECK?ZF_DEVICE_ICM20602
   *DEL*:           00003FH   BYTE   INSEG    CODE           ?PR?ICM20602_SIMSPI_R_REG_BYTES?ZF_DEVICE_ICM20602
   *DEL*:           000018H   BYTE   INSEG    CODE           ?PR?ICM20602_SIMSPI_R_REG_BYTE?ZF_DEVICE_ICM20602
   *DEL*:           000011H   BYTE   INSEG    CODE           ?PR?ICM20602_SIMSPI_W_REG_BYTE?ZF_DEVICE_ICM20602
   *DEL*:           0001B9H   BYTE   INSEG    CODE           ?PR?ICM20602_INIT?ZF_DEVICE_ICM20602
   *DEL*:           000054H   BYTE   INSEG    CODE           ?PR?ICM20602_GET_ACC?ZF_DEVICE_ICM20602
   *DEL*:           000016H   BYTE   INSEG    CODE           ?PR?ICM20602_READ_REGISTERS?ZF_DEVICE_ICM20602
   *DEL*:           000054H   BYTE   INSEG    CODE           ?PR?ICM20602_GET_GYRO?ZF_DEVICE_ICM20602
   *DEL*:           000004H   BYTE   UNIT     XDATA          ?XD?ICM20602_SIMSPI_R_REG_BYTES?ZF_DEVICE_ICM20602
   *DEL*:           000001H   BYTE   UNIT     XDATA          ?XD?ICM20602_READ_REGISTER?ZF_DEVICE_ICM20602
   *DEL*:           000006H   BYTE   UNIT     XDATA          ?XD?ICM20602_GET_ACC?ZF_DEVICE_ICM20602
   *DEL*:           000006H   BYTE   UNIT     XDATA          ?XD?ICM20602_GET_GYRO?ZF_DEVICE_ICM20602
   *DEL*:           000054H   BYTE   INSEG    CODE           ?PR?IMU660RA_GET_GYRO?ZF_DEVICE_IMU660RA
   *DEL*:           00001EH   BYTE   INSEG    CODE           ?PR?IMU660RA_READ_REGISTER?ZF_DEVICE_IMU660RA
   *DEL*:           000014H   BYTE   INSEG    CODE           ?PR?IMU660RA_WRITE_REGISTERS?ZF_DEVICE_IMU660RA
   *DEL*:           00000CH   BYTE   INSEG    CODE           ?PR?IMU660RA_WRITE_REGISTER?ZF_DEVICE_IMU660RA
   *DEL*:           000023H   BYTE   INSEG    CODE           ?PR?IMU660RA_SIMSPI_WR_BYTE?ZF_DEVICE_IMU660RA
   *DEL*:           000041H   BYTE   INSEG    CODE           ?PR?IMU660RA_SELF_CHECK?ZF_DEVICE_IMU660RA
   *DEL*:           00003FH   BYTE   INSEG    CODE           ?PR?IMU660RA_SIMSPI_R_REG_BYTES?ZF_DEVICE_IMU660RA
   *DEL*:           000039H   BYTE   INSEG    CODE           ?PR?IMU660RA_SIMSPI_W_REG_BYTES?ZF_DEVICE_IMU660RA
   *DEL*:           000011H   BYTE   INSEG    CODE           ?PR?IMU660RA_SIMSPI_W_REG_BYTE?ZF_DEVICE_IMU660RA
   *DEL*:           0001E0H   BYTE   INSEG    CODE           ?PR?IMU660RA_INIT?ZF_DEVICE_IMU660RA
   *DEL*:           000054H   BYTE   INSEG    CODE           ?PR?IMU660RA_GET_ACC?ZF_DEVICE_IMU660RA
   *DEL*:           000079H   BYTE   INSEG    CODE           ?PR?IMU660RA_READ_REGISTERS?ZF_DEVICE_IMU660RA
   *DEL*:           000004H   BYTE   UNIT     XDATA          ?XD?IMU660RA_SIMSPI_W_REG_BYTES?ZF_DEVICE_IMU660RA
   *DEL*:           000004H   BYTE   UNIT     XDATA          ?XD?IMU660RA_SIMSPI_R_REG_BYTES?ZF_DEVICE_IMU660RA
   *DEL*:           000002H   BYTE   UNIT     XDATA          ?XD?IMU660RA_READ_REGISTER?ZF_DEVICE_IMU660RA
   *DEL*:           00000EH   BYTE   UNIT     XDATA          ?XD?IMU660RA_READ_REGISTERS?ZF_DEVICE_IMU660RA
   *DEL*:           000006H   BYTE   UNIT     XDATA          ?XD?IMU660RA_GET_ACC?ZF_DEVICE_IMU660RA
   *DEL*:           000006H   BYTE   UNIT     XDATA          ?XD?IMU660RA_GET_GYRO?ZF_DEVICE_IMU660RA
   *DEL*:           000054H   BYTE   INSEG    CODE           ?PR?IMU660RB_GET_GYRO?ZF_DEVICE_IMU660RB
   *DEL*:           00001AH   BYTE   INSEG    CODE           ?PR?IMU660RB_READ_REGISTER?ZF_DEVICE_IMU660RB
   *DEL*:           0000B1H   BYTE   INSEG    CODE           ?PR?IMU660RB_GYRO_TRANSITION?ZF_DEVICE_IMU660RB
   *DEL*:           00000CH   BYTE   INSEG    CODE           ?PR?IMU660RB_WRITE_REGISTER?ZF_DEVICE_IMU660RB
   *DEL*:           000023H   BYTE   INSEG    CODE           ?PR?IMU660RB_SIMSPI_WR_BYTE?ZF_DEVICE_IMU660RB
   *DEL*:           00002FH   BYTE   INSEG    CODE           ?PR?IMU660RB_SELF_CHECK?ZF_DEVICE_IMU660RB
   *DEL*:           00003FH   BYTE   INSEG    CODE           ?PR?IMU660RB_SIMSPI_R_REG_BYTES?ZF_DEVICE_IMU660RB
   *DEL*:           00001CH   BYTE   INSEG    CODE           ?PR?IMU660RB_SIMSPI_R_REG_BYTE?ZF_DEVICE_IMU660RB
   *DEL*:           000011H   BYTE   INSEG    CODE           ?PR?IMU660RB_SIMSPI_W_REG_BYTE?ZF_DEVICE_IMU660RB
   *DEL*:           00006AH   BYTE   INSEG    CODE           ?PR?IMU660RB_INIT?ZF_DEVICE_IMU660RB
   *DEL*:           000054H   BYTE   INSEG    CODE           ?PR?IMU660RB_GET_ACC?ZF_DEVICE_IMU660RB
   *DEL*:           000075H   BYTE   INSEG    CODE           ?PR?IMU660RB_ACC_TRANSITION?ZF_DEVICE_IMU660RB
   *DEL*:           000016H   BYTE   INSEG    CODE           ?PR?IMU660RB_READ_REGISTERS?ZF_DEVICE_IMU660RB
   *DEL*:           000004H   BYTE   UNIT     XDATA          ?XD?IMU660RB_SIMSPI_R_REG_BYTES?ZF_DEVICE_IMU660RB
   *DEL*:           000001H   BYTE   UNIT     XDATA          ?XD?IMU660RB_READ_REGISTER?ZF_DEVICE_IMU660RB
   *DEL*:           000006H   BYTE   UNIT     XDATA          ?XD?IMU660RB_GET_ACC?ZF_DEVICE_IMU660RB
   *DEL*:           000006H   BYTE   UNIT     XDATA          ?XD?IMU660RB_GET_GYRO?ZF_DEVICE_IMU660RB
   *DEL*:           000054H   BYTE   INSEG    CODE           ?PR?IMU963RA_GET_ACC?ZF_DEVICE_IMU963RA
   *DEL*:           00006BH   BYTE   INSEG    CODE           ?PR?IMU963RA_GET_MAG?ZF_DEVICE_IMU963RA
   *DEL*:           000006H   BYTE   UNIT     XDATA          ?XD?IMU963RA_GET_ACC?ZF_DEVICE_IMU963RA
   *DEL*:           000006H   BYTE   UNIT     XDATA          ?XD?IMU963RA_GET_MAG?ZF_DEVICE_IMU963RA
L251 LINKER/LOCATER V4.66.93.0                                                        11/01/2025  17:49:51  PAGE 14


   *DEL*:           000094H   BYTE   INSEG    CODE           ?PR?GET_DOUBLE_NUMBER?ZF_DEVICE_GPS_TAU1201
   *DEL*:           00007DH   BYTE   INSEG    CODE           ?PR?GET_FLOAT_NUMBER?ZF_DEVICE_GPS_TAU1201
   *DEL*:           0000C5H   BYTE   INSEG    CODE           ?PR?UTC_TO_BTC?ZF_DEVICE_GPS_TAU1201
   *DEL*:           000372H   BYTE   INSEG    CODE           ?PR?GET_TWO_POINTS_DISTANCE?ZF_DEVICE_GPS_TAU1201
   *DEL*:           0000D9H   BYTE   INSEG    CODE           ?PR?GPS_GNGGA_PARSE?ZF_DEVICE_GPS_TAU1201
   *DEL*:           0005A6H   BYTE   INSEG    CODE           ?PR?GPS_GNRMC_PARSE?ZF_DEVICE_GPS_TAU1201
   *DEL*:           000196H   BYTE   INSEG    CODE           ?PR?GPS_DATA_PARSE?ZF_DEVICE_GPS_TAU1201
   *DEL*:           00006EH   BYTE   INSEG    CODE           ?PR?GET_INT_NUMBER?ZF_DEVICE_GPS_TAU1201
   *DEL*:           000290H   BYTE   INSEG    CODE           ?PR?GPS_INIT?ZF_DEVICE_GPS_TAU1201
   *DEL*:           000077H   BYTE   INSEG    CODE           ?PR?GET_PARAMETER_INDEX?ZF_DEVICE_GPS_TAU1201
   *DEL*:           00055CH   BYTE   INSEG    CODE           ?PR?GET_TWO_POINTS_AZIMUTH?ZF_DEVICE_GPS_TAU1201
   *DEL*:           000184H   BYTE   INSEG    CODE           ?PR?GPS_UART_CALLBACK?ZF_DEVICE_GPS_TAU1201
   *DEL*:           000003H   BYTE   UNIT     XDATA          ?XD?GET_PARAMETER_INDEX?ZF_DEVICE_GPS_TAU1201
   *DEL*:           00000DH   BYTE   UNIT     XDATA          ?XD?GET_INT_NUMBER?ZF_DEVICE_GPS_TAU1201
   *DEL*:           000014H   BYTE   UNIT     XDATA          ?XD?GET_FLOAT_NUMBER?ZF_DEVICE_GPS_TAU1201
   *DEL*:           000018H   BYTE   UNIT     XDATA          ?XD?GET_DOUBLE_NUMBER?ZF_DEVICE_GPS_TAU1201
   *DEL*:           00003BH   BYTE   UNIT     XDATA          ?XD?GPS_GNRMC_PARSE?ZF_DEVICE_GPS_TAU1201
   *DEL*:           000009H   BYTE   UNIT     XDATA          ?XD?GPS_GNGGA_PARSE?ZF_DEVICE_GPS_TAU1201
   *DEL*:           000060H   BYTE   UNIT     XDATA          ?XD?GET_TWO_POINTS_DISTANCE?ZF_DEVICE_GPS_TAU1201
   *DEL*:           000038H   BYTE   UNIT     XDATA          ?XD?GET_TWO_POINTS_AZIMUTH?ZF_DEVICE_GPS_TAU1201
   *DEL*:           000008H   BYTE   UNIT     XDATA          ?XD?GPS_DATA_PARSE?ZF_DEVICE_GPS_TAU1201
   *DEL*:           00000BH   BYTE   UNIT     XDATA          ?XD?GPS_UART_CALLBACK?ZF_DEVICE_GPS_TAU1201
   *DEL*:           000095H   BYTE   UNIT     XDATA          ?XD?GPS_INIT?ZF_DEVICE_GPS_TAU1201
   *DEL*:           000075H   BYTE   INSEG    CODE           ?PR?TSL1401_SEND_DATA?ZF_DEVICE_TSL1401
   *DEL*:           00003DH   BYTE   INSEG    CODE           ?PR?TSL1401_INIT?ZF_DEVICE_TSL1401
   *DEL*:           00009BH   BYTE   INSEG    CODE           ?PR?TSL1401_COLLECT_PIT_HANDLER?ZF_DEVICE_TSL1401
   *DEL*:           00034DH   BYTE   INSEG    CODE           ?PR?SEEKFREE_ASSISTANT_CAMERA_BOUNDARY_CONFIG?SEEKFREE_ASS
                                                             -ISTANT
   *DEL*:           000101H   BYTE   INSEG    CODE           ?PR?SEEKFREE_ASSISTANT_CAMERA_DOT_SEND?SEEKFREE_ASSISTANT
   *DEL*:           000102H   BYTE   INSEG    CODE           ?PR?SEEKFREE_ASSISTANT_OSCILLOSCOPE_SEND?SEEKFREE_ASSISTAN
                                                             -T
   *DEL*:           00002EH   BYTE   INSEG    CODE           ?PR?SEEKFREE_ASSISTANT_INIT?SEEKFREE_ASSISTANT
   *DEL*:           000017H   BYTE   INSEG    CODE           ?PR?SEEKFREE_ASSISTANT_SUM?SEEKFREE_ASSISTANT
   *DEL*:           000037H   BYTE   INSEG    CODE           ?PR?SEEKFREE_ASSISTANT_CAMERA_INFORMATION_CONFIG?SEEKFREE_
                                                             -ASSISTANT
   *DEL*:           000265H   BYTE   INSEG    CODE           ?PR?SEEKFREE_ASSISTANT_DATA_ANALYSIS?SEEKFREE_ASSISTANT
   *DEL*:           00012AH   BYTE   INSEG    CODE           ?PR?SEEKFREE_ASSISTANT_CAMERA_DATA_SEND?SEEKFREE_ASSISTANT
   *DEL*:           00003FH   BYTE   INSEG    CODE           ?PR?SEEKFREE_ASSISTANT_CAMERA_SEND?SEEKFREE_ASSISTANT
   *DEL*:           00000AH   BYTE   UNIT     XDATA          ?XD?SEEKFREE_ASSISTANT_CAMERA_DATA_SEND?SEEKFREE_ASSISTANT
   *DEL*:           000002H   BYTE   UNIT     XDATA          ?XD?SEEKFREE_ASSISTANT_CAMERA_INFORMATION_CONFIG?SEEKFREE_
                                                             -ASSISTANT
   *DEL*:           000024H   BYTE   UNIT     XDATA          ?XD?SEEKFREE_ASSISTANT_OSCILLOSCOPE_SEND?SEEKFREE_ASSISTAN
                                                             -T
   *DEL*:           000003H   BYTE   UNIT     XDATA          ?XD?SEEKFREE_ASSISTANT_CAMERA_DOT_SEND?SEEKFREE_ASSISTANT
   *DEL*:           000014H   BYTE   UNIT     XDATA          ?XD?SEEKFREE_ASSISTANT_CAMERA_BOUNDARY_CONFIG?SEEKFREE_ASS
                                                             -ISTANT
   *DEL*:           000088H   BYTE   UNIT     XDATA          ?XD?SEEKFREE_ASSISTANT_DATA_ANALYSIS?SEEKFREE_ASSISTANT
   *DEL*:           000000H.1 BIT    UNIT     BIT            ?BI?SEEKFREE_ASSISTANT_DATA_ANALYSIS?SEEKFREE_ASSISTANT
   *DEL*:           00004DH   BYTE   INSEG    CODE           ?PR?SEEKFREE_ASSISTANT_INTERFACE_INIT?SEEKFREE_ASSISTANT_I
                                                             -NTERFACE
   *DEL*:           00007BH   BYTE   INSEG    CODE           ?PR?BATTERY_GET?ADC_GET
   *DEL*:           000002H   BYTE   UNIT     XDATA          ?XD?BATTERY_GET?ADC_GET
   *DEL*:           00008FH   BYTE   INSEG    CODE           ?PR?SVERO_UPDATE_SMOOTH?CONTROL
   *DEL*:           000030H   BYTE   INSEG    CODE           ?PR?EEPROM_READ_FLOAT?EEPROM
   *DEL*:           0000D0H   BYTE   INSEG    CODE           ?PR?EEPROM_SAVE_FLOAT?EEPROM
   *DEL*:           000056H   BYTE   INSEG    CODE           ?PR?EEPROM_READ_NUM?EEPROM
   *DEL*:           000089H   BYTE   INSEG    CODE           ?PR?EEPROM_SAVE_NUM?EEPROM
   *DEL*:           000200H   BYTE   UNIT     XDATA          ?XD?EEPROM_SAVE_NUM?EEPROM
   *DEL*:           000000H.1 BIT    UNIT     BIT            ?BI?EEPROM_SAVE_NUM?EEPROM
   *DEL*:           000200H   BYTE   UNIT     XDATA          ?XD?EEPROM_READ_NUM?EEPROM
   *DEL*:           000000H.1 BIT    UNIT     BIT            ?BI?EEPROM_READ_NUM?EEPROM
   *DEL*:           00020AH   BYTE   UNIT     XDATA          ?XD?EEPROM_SAVE_FLOAT?EEPROM
   *DEL*:           000000H.1 BIT    UNIT     BIT            ?BI?EEPROM_SAVE_FLOAT?EEPROM
   *DEL*:           000004H   BYTE   UNIT     XDATA          ?XD?EEPROM_READ_FLOAT?EEPROM
   *DEL*:           000000H.1 BIT    UNIT     BIT            ?BI?EEPROM_READ_FLOAT?EEPROM
L251 LINKER/LOCATER V4.66.93.0                                                        11/01/2025  17:49:51  PAGE 15


   *DEL*:           0000C5H   BYTE   INSEG    CODE           ?PR?NORMAL_PID?FUNCTION
   *DEL*:           000004H   BYTE   UNIT     XDATA          ?XD?NORMAL_PID?FUNCTION
   *DEL*:           00002CH   BYTE   INSEG    CODE           ?PR?OLED_DISPLAYTURN?OLED
   *DEL*:           0000DEH   BYTE   INSEG    CODE           ?PR?OLED_INIT?OLED
   *DEL*:           0000F5H   BYTE   INSEG    CODE           ?PR?OLED_SHOWSTRING?OLED
   *DEL*:           000070H   BYTE   INSEG    CODE           ?PR?OLED_WR_BYTE?OLED
   *DEL*:           0001BEH   BYTE   INSEG    CODE           ?PR?OLED_SHOWCHAR?OLED
   *DEL*:           00001EH   BYTE   INSEG    CODE           ?PR?OLED_COLORTURN?OLED
   *DEL*:           00002BH   BYTE   INSEG    CODE           ?PR?OLED_SET_POS?OLED
   *DEL*:           000017H   BYTE   INSEG    CODE           ?PR?DELAY_MS?OLED
   *DEL*:           0001C9H   BYTE   INSEG    CODE           ?PR?OLED_SHOWNUM?OLED
   *DEL*:           000017H   BYTE   INSEG    CODE           ?PR?OLED_POW?OLED
   *DEL*:           00010AH   BYTE   INSEG    CODE           ?PR?OLED_SHOWCHINESE?OLED
   *DEL*:           00003AH   BYTE   INSEG    CODE           ?PR?OLED_CLEAR?OLED
   *DEL*:           000006H   BYTE   UNIT     XDATA          ?XD?OLED_SHOWCHAR?OLED
   *DEL*:           000007H   BYTE   UNIT     XDATA          ?XD?OLED_SHOWNUM?OLED
   *DEL*:           000005H   BYTE   UNIT     XDATA          ?XD?OLED_SHOWSTRING?OLED
   *DEL*:           000005H   BYTE   UNIT     XDATA          ?XD?OLED_SHOWCHINESE?OLED
   *DEL*:           000053H   BYTE   INSEG    CODE           ?PR?HELP_TURN?STRATEGY
   *DEL*:           0000A3H   BYTE   INSEG    CODE           ?PR?HELP_TURN_TWO?STRATEGY
   *DEL*:           000241H   BYTE   INSEG    CODE           ?PR?HELP_TURN3?STRATEGY
   *DEL*:           000004H   BYTE   UNIT     XDATA          ?XD?HELP_TURN3?STRATEGY
   *DEL*:           000002H   BYTE   UNIT     XDATA          ?XD?HELP_TURN_TWO?STRATEGY
   *DEL*:           00019BH   BYTE   INSEG    CODE           ?PR?POW?_?POW
   *DEL*:           000037H   BYTE   INSEG    CODE           ?PR?STRNCMP?_?STRNCMP
   *DEL*:           000030H   BYTE   INSEG    CODE           ?PR?STRNCPY?_?STRNCPY
   *DEL*:           00000EH   BYTE   INSEG    CODE           ?PR?STRLEN?_?STRLEN
   *DEL*:           00001FH   BYTE   INSEG    CODE           ?PR?STRCHR?_?STRCHR
   *DEL*:           00001AH   BYTE   INSEG    CODE           ?PR?MEMSET?_?MEMSET



OVERLAY MAP OF MODULE:   .\out_file\SEEKFREE (ai8051u_isr)


FUNCTION/MODULE                               XDATA_GROUP
--> CALLED FUNCTION/MODULE                    START  STOP
=========================================================
?C_C51STARTUP                                 ----- -----

*** NEW ROOT ********************************

?C_C51STARTUP?3                               ----- -----
  +--> main/main

main/main                                     ----- -----
  +--> _m/main
  +--> SPRINTF/SPRINTF

_m/main                                       ----- -----
  +--> clock_init/zf_common_clock
  +--> debug_init/zf_common_debug
  +--> init_all/function
  +--> pit_handler1/main
  +--> GO_Function/function
  +--> menu_handle_key/menu
  +--> PWM_Test/Device_Test
  +--> Serve_Test/Device_Test
  +--> Set_Sevo/Device_Test
  +--> Turn_mode_Init/function

clock_init/zf_common_clock                    ----- -----
  +--> system_delay_init/zf_driver_delay
  +--> interrupt_global_enable/zf_common_interrupt

L251 LINKER/LOCATER V4.66.93.0                                                        11/01/2025  17:49:51  PAGE 16


system_delay_init/zf_driver_delay             ----- -----
  +--> ?C?SLDIV/?C?SLDIV

?C?SLDIV/?C?SLDIV                             ----- -----
  +--> ?C?ULIDIV/?C?ULDIV

?C?ULIDIV/?C?ULDIV                            ----- -----

interrupt_global_enable/zf_common_interr+     ----- -----
... upt

debug_init/zf_common_debug                    ----- -----
  +--> uart_init/zf_driver_uart
  +--> fifo_init/zf_common_fifo
  +--> uart_rx_interrupt/zf_driver_uart
  +--> debug_interrupr_handler/zf_common_debug

uart_init/zf_driver_uart                      155CH 1561H
  +--> uart_funciton_check/zf_driver_uart
  +--> debug_assert_handler/zf_common_debug
  +--> timer_funciton_check/zf_driver_timer
  +--> gpio_init/zf_driver_gpio
  +--> ?C?ULIDIV/?C?ULDIV
  +--> uart_dma_init/zf_driver_uart

uart_funciton_check/zf_driver_uart            ----- -----

debug_assert_handler/zf_common_debug          159BH 15AAH
  +--> PRINTF/PRINTF
  +--> system_delay_ms/zf_driver_delay

PRINTF/PRINTF                                 15ABH 15D2H
  +--> OUT/PRINTF

OUT/PRINTF                                    ----- -----
  +--> PUTCH/PRINTF

PUTCH/PRINTF                                  ----- -----
  +--> putchar/zf_common_debug
  +--> OUT/PRINTF

putchar/zf_common_debug                       ----- -----
  +--> uart_write_byte/zf_driver_uart

uart_write_byte/zf_driver_uart                15D3H 15D3H
  +--> uart_write_buffer/zf_driver_uart

uart_write_buffer/zf_driver_uart              ----- -----

system_delay_ms/zf_driver_delay               ----- -----

timer_funciton_check/zf_driver_timer          ----- -----

gpio_init/zf_driver_gpio                      156CH 156EH
  +--> debug_assert_handler/zf_common_debug
  +--> gpio_set_dir/zf_driver_gpio
  +--> gpio_set_mode/zf_driver_gpio
  +--> gpio_set_impedance/zf_driver_gpio
  +--> gpio_set_level/zf_driver_gpio

gpio_set_dir/zf_driver_gpio                   ----- -----
  +--> debug_assert_handler/zf_common_debug

gpio_set_mode/zf_driver_gpio                  ----- -----
  +--> debug_assert_handler/zf_common_debug
L251 LINKER/LOCATER V4.66.93.0                                                        11/01/2025  17:49:51  PAGE 17



gpio_set_impedance/zf_driver_gpio             ----- -----
  +--> debug_assert_handler/zf_common_debug

gpio_set_level/zf_driver_gpio                 ----- -----
  +--> debug_assert_handler/zf_common_debug

uart_dma_init/zf_driver_uart                  ----- -----

fifo_init/zf_common_fifo                      155CH 1565H
  +--> debug_assert_handler/zf_common_debug

uart_rx_interrupt/zf_driver_uart              ----- -----

debug_interrupr_handler/zf_common_debug       155CH 155CH
  +--> uart_query_byte/zf_driver_uart
  +--> fifo_write_buffer/zf_common_fifo

uart_query_byte/zf_driver_uart                ----- -----
  +--> uart_rx_start_buff/zf_driver_uart

uart_rx_start_buff/zf_driver_uart             ----- -----

fifo_write_buffer/zf_common_fifo              155DH 156AH
  +--> debug_assert_handler/zf_common_debug
  +--> memcpy?_/memcpy
  +--> fifo_head_offset/zf_common_fifo

memcpy?_/memcpy                               ----- -----

fifo_head_offset/zf_common_fifo               ----- -----

init_all/function                             ----- -----
  +--> system_delay_ms/zf_driver_delay
  +--> Motor_Init/function
  +--> Servo_Init/function
  +--> interrupt_set_priority/zf_common_interrupt
  +--> Buzzer_Init/Buzzer
  +--> Buzzer_OFF/Buzzer
  +--> enconder_init/function
  +--> imu963ra_init/zf_device_imu963ra
  +--> ADC_GetInit/ADC_Get
  +--> tft180_init/zf_device_tft180
  +--> tft180_set_color/zf_device_tft180
  +--> menu_Init/menu
  +--> ?C?SLDIV/?C?SLDIV
  +--> pit_init/zf_driver_pit

Motor_Init/function                           ----- -----
  +--> pwm_init/zf_driver_pwm

pwm_init/zf_driver_pwm                        155CH 1569H
  +--> debug_assert_handler/zf_common_debug
  +--> gpio_init/zf_driver_gpio
  +--> ?C?ULIDIV/?C?ULDIV

Servo_Init/function                           ----- -----
  +--> pwm_init/zf_driver_pwm

interrupt_set_priority/zf_common_interru+     ----- -----
... pt

Buzzer_Init/Buzzer                            ----- -----
  +--> gpio_init/zf_driver_gpio

L251 LINKER/LOCATER V4.66.93.0                                                        11/01/2025  17:49:51  PAGE 18


Buzzer_OFF/Buzzer                             ----- -----
  +--> gpio_set_level/zf_driver_gpio

enconder_init/function                        ----- -----
  +--> encoder_dir_init/zf_driver_encoder

encoder_dir_init/zf_driver_encoder            155CH 155DH
  +--> timer_funciton_check/zf_driver_timer
  +--> debug_assert_handler/zf_common_debug
  +--> gpio_init/zf_driver_gpio

imu963ra_init/zf_device_imu963ra              ----- -----
  +--> system_delay_ms/zf_driver_delay
  +--> imu963ra_write_acc_gyro_register/zf_device_imu963ra
  +--> imu963ra_acc_gyro_self_check/zf_device_imu963ra
  +--> PRINTF/PRINTF
  +--> imu963ra_write_mag_register/zf_device_imu963ra
  +--> imu963ra_mag_self_check/zf_device_imu963ra
  +--> imu963ra_connect_mag/zf_device_imu963ra

imu963ra_write_acc_gyro_register/zf_devi+     ----- -----
... ce_imu963ra
  +--> imu963ra_simspi_w_reg_byte/zf_device_imu963ra

imu963ra_simspi_w_reg_byte/zf_device_imu+     ----- -----
... 963ra
  +--> imu963ra_simspi_wr_byte/zf_device_imu963ra

imu963ra_simspi_wr_byte/zf_device_imu963+     ----- -----
... ra

imu963ra_acc_gyro_self_check/zf_device_i+     ----- -----
... mu963ra
  +--> imu963ra_read_acc_gyro_register/zf_device_imu963ra
  +--> PRINTF/PRINTF
  +--> system_delay_ms/zf_driver_delay

imu963ra_read_acc_gyro_register/zf_devic+     155EH 155EH
... e_imu963ra
  +--> imu963ra_simspi_r_reg_byte/zf_device_imu963ra

imu963ra_simspi_r_reg_byte/zf_device_imu+     ----- -----
... 963ra
  +--> imu963ra_simspi_wr_byte/zf_device_imu963ra

imu963ra_write_mag_register/zf_device_im+     155CH 155DH
... u963ra
  +--> imu963ra_write_acc_gyro_register/zf_device_imu963ra
  +--> system_delay_ms/zf_driver_delay
  +--> imu963ra_read_acc_gyro_register/zf_device_imu963ra

imu963ra_mag_self_check/zf_device_imu963+     ----- -----
... ra
  +--> imu963ra_read_mag_register/zf_device_imu963ra
  +--> system_delay_ms/zf_driver_delay

imu963ra_read_mag_register/zf_device_imu+     ----- -----
... 963ra
  +--> imu963ra_write_acc_gyro_register/zf_device_imu963ra
  +--> system_delay_ms/zf_driver_delay
  +--> imu963ra_read_acc_gyro_register/zf_device_imu963ra

imu963ra_connect_mag/zf_device_imu963ra       ----- -----
  +--> imu963ra_write_acc_gyro_register/zf_device_imu963ra

L251 LINKER/LOCATER V4.66.93.0                                                        11/01/2025  17:49:51  PAGE 19


ADC_GetInit/ADC_Get                           ----- -----
  +--> adc_init/zf_driver_adc

adc_init/zf_driver_adc                        ----- -----

tft180_init/zf_device_tft180                  ----- -----
  +--> spi_init/zf_driver_spi
  +--> tft180_set_dir/zf_device_tft180
  +--> tft180_set_color/zf_device_tft180
  +--> system_delay_ms/zf_driver_delay
  +--> tft180_write_index/zf_device_tft180
  +--> spi_write_8bit/zf_driver_spi
  +--> tft180_clear/zf_device_tft180

spi_init/zf_driver_spi                        155CH 156BH
  +--> debug_assert_handler/zf_common_debug
  +--> gpio_init/zf_driver_gpio
  +--> gpio_set_level_speed/zf_driver_gpio
  +--> ?C?ULIDIV/?C?ULDIV
  +--> uart_funciton_check/zf_driver_uart

gpio_set_level_speed/zf_driver_gpio           ----- -----
  +--> debug_assert_handler/zf_common_debug

tft180_set_dir/zf_device_tft180               ----- -----

tft180_set_color/zf_device_tft180             ----- -----

tft180_write_index/zf_device_tft180           ----- -----
  +--> spi_write_8bit/zf_driver_spi

spi_write_8bit/zf_driver_spi                  ----- -----
  +--> spi_write_dat/zf_driver_spi

spi_write_dat/zf_driver_spi                   ----- -----
  +--> debug_assert_handler/zf_common_debug

tft180_clear/zf_device_tft180                 155CH 155FH
  +--> tft180_set_region/zf_device_tft180
  +--> spi_write_16bit/zf_driver_spi

tft180_set_region/zf_device_tft180            1597H 159AH
  +--> debug_assert_handler/zf_common_debug
  +--> tft180_write_index/zf_device_tft180
  +--> spi_write_16bit/zf_driver_spi

spi_write_16bit/zf_driver_spi                 ----- -----
  +--> spi_write_dat/zf_driver_spi

menu_Init/menu                                ----- -----
  +--> Menu_SetChildren/menu
  +--> Refesh_arrow/menu
  +--> menu_display_content/menu
  +--> Show_bujin/menu

Menu_SetChildren/menu                         ----- -----

Refesh_arrow/menu                             ----- -----
  +--> tft180_show_string/zf_device_tft180

tft180_show_string/zf_device_tft180           158DH 1592H
  +--> debug_assert_handler/zf_common_debug
  +--> tft180_show_char/zf_device_tft180

tft180_show_char/zf_device_tft180             1593H 1596H
L251 LINKER/LOCATER V4.66.93.0                                                        11/01/2025  17:49:51  PAGE 20


  +--> debug_assert_handler/zf_common_debug
  +--> tft180_set_region/zf_device_tft180
  +--> spi_write_16bit/zf_driver_spi

menu_display_content/menu                     ----- -----
  +--> tft180_show_string/zf_device_tft180
  +--> tft180_show_float/zf_device_tft180

tft180_show_float/zf_device_tft180            155CH 158CH
  +--> debug_assert_handler/zf_common_debug
  +--> zf_sprintf/zf_common_function
  +--> tft180_show_string/zf_device_tft180

zf_sprintf/zf_common_function                 158DH 15EFH
  +--> number_conversion_ascii/zf_common_function
  +--> printf_reverse_order/zf_common_function
  +--> memcpy?_/memcpy

number_conversion_ascii/zf_common_functi+     15F0H 15F0H
... on
  +--> ?C?SLDIV/?C?SLDIV
  +--> ?C?ULIDIV/?C?ULDIV

printf_reverse_order/zf_common_function       ----- -----

Show_bujin/menu                               ----- -----
  +--> tft180_show_string/zf_device_tft180

pit_init/zf_driver_pit                        ----- -----
  +--> ?C?ULIDIV/?C?ULDIV

pit_handler1/main                             ----- -----
  +--> ADC_SampleAndFilter/ADC_Get
  +--> unification/function
  +--> Servo_turn_pid/control
  +--> speed_control_ring/function
  +--> if_Cycle/Strategy
  +--> Servo_Control/function
  +--> Speed_diff/control
  +--> imu963ra_get_gyro/zf_device_imu963ra
  +--> Inertial_Navigation/Strategy
  +--> Speed_Control/function
  +--> Half_State_of_road/Strategy
  +--> State_of_road/Strategy
  +--> Protect/function
  +--> Key_scaner/Key
  +--> Show_pararm/function

ADC_SampleAndFilter/ADC_Get                   ----- -----
  +--> adc_convert/zf_driver_adc
  +--> adc_filter/ADC_Get

adc_convert/zf_driver_adc                     ----- -----

adc_filter/ADC_Get                            ----- -----
  +--> ?C?ULIDIV/?C?ULDIV

unification/function                          155CH 1561H
  +--> fast_sqrt/function

fast_sqrt/function                            1562H 1569H
  +--> memcpy?_/memcpy

Servo_turn_pid/control                        ----- -----

L251 LINKER/LOCATER V4.66.93.0                                                        11/01/2025  17:49:51  PAGE 21


speed_control_ring/function                   ----- -----
  +--> encoder_get_count/zf_driver_encoder
  +--> encoder_clear_count/zf_driver_encoder

encoder_get_count/zf_driver_encoder           ----- -----
  +--> gpio_get_level/zf_driver_gpio

gpio_get_level/zf_driver_gpio                 ----- -----
  +--> debug_assert_handler/zf_common_debug

encoder_clear_count/zf_driver_encoder         ----- -----

if_Cycle/Strategy                             ----- -----
  +--> Buzzer_OFF/Buzzer
  +--> Buzzer_ON/Buzzer
  +--> CAR_STOP/function

Buzzer_ON/Buzzer                              ----- -----
  +--> gpio_set_level/zf_driver_gpio

CAR_STOP/function                             ----- -----
  +--> MotorL_SetSpeed/control
  +--> MotorR_SetSpeed/control
  +--> Ser_Servo_Duty/control

MotorL_SetSpeed/control                       ----- -----
  +--> pwm_set_duty/zf_driver_pwm

pwm_set_duty/zf_driver_pwm                    1560H 156BH
  +--> debug_assert_handler/zf_common_debug

MotorR_SetSpeed/control                       ----- -----
  +--> pwm_set_duty/zf_driver_pwm

Ser_Servo_Duty/control                        ----- -----
  +--> pwm_set_duty/zf_driver_pwm

Servo_Control/function                        ----- -----
  +--> pwm_set_duty/zf_driver_pwm
  +--> Help_turn2/Strategy

Help_turn2/Strategy                           155CH 155FH
  +--> pwm_set_duty/zf_driver_pwm

Speed_diff/control                            ----- -----

imu963ra_get_gyro/zf_device_imu963ra          155CH 1561H
  +--> imu963ra_read_acc_gyro_registers/zf_device_imu963ra

imu963ra_read_acc_gyro_registers/zf_devi+     ----- -----
... ce_imu963ra
  +--> imu963ra_simspi_r_reg_bytes/zf_device_imu963ra

imu963ra_simspi_r_reg_bytes/zf_device_im+     1562H 1565H
... u963ra
  +--> imu963ra_simspi_wr_byte/zf_device_imu963ra

Inertial_Navigation/Strategy                  ----- -----
  +--> angle_Get/Strategy
  +--> ?C?SLDIV/?C?SLDIV

angle_Get/Strategy                            ----- -----

Speed_Control/function                        ----- -----
  +--> Motor_Left_pi_control/control
L251 LINKER/LOCATER V4.66.93.0                                                        11/01/2025  17:49:51  PAGE 22


  +--> MotorL_SetSpeed/control
  +--> Motor_Right_pi_control/control
  +--> MotorR_SetSpeed/control

Motor_Left_pi_control/control                 ----- -----

Motor_Right_pi_control/control                ----- -----

Half_State_of_road/Strategy                   ----- -----
  +--> ?C?SLDIV/?C?SLDIV
  +--> Motor_Update_Smooth/control
  +--> Buzzer_ON/Buzzer
  +--> Buzzer_OFF/Buzzer

Motor_Update_Smooth/control                   ----- -----
  +--> Motor_Update/control

Motor_Update/control                          ----- -----
  +--> Motor_Left_pi_control/control
  +--> MotorL_SetSpeed/control
  +--> Motor_Right_pi_control/control
  +--> MotorR_SetSpeed/control

State_of_road/Strategy                        ----- -----
  +--> Motor_Update_Smooth/control
  +--> Buzzer_OFF/Buzzer
  +--> Buzzer_ON/Buzzer
  +--> CAR_STOP/function

Protect/function                              ----- -----

Key_scaner/Key                                ----- -----
  +--> Key_Number/Key
  +--> Turn_mode/Key

Key_Number/Key                                ----- -----
  +--> gpio_get_level/zf_driver_gpio

Turn_mode/Key                                 ----- -----

Show_pararm/function                          ----- -----
  +--> tft180_show_string/zf_device_tft180
  +--> tft180_show_float/zf_device_tft180
  +--> tft180_show_int16/zf_device_tft180
  +--> unification/function

tft180_show_int16/zf_device_tft180            155CH 1563H
  +--> debug_assert_handler/zf_common_debug
  +--> tft180_show_char/zf_device_tft180

GO_Function/function                          ----- -----
  +--> Turn_mode_Init/function

Turn_mode_Init/function                       ----- -----
  +--> CAR_STOP/function
  +--> Buzzer_OFF/Buzzer
  +--> show_test_info/function
  +--> Refesh_arrow/menu
  +--> menu_display_content/menu
  +--> Show_bujin/menu
  +--> PID_Update/control
  +--> Cycle_Update/control

show_test_info/function                       ----- -----
  +--> tft180_clear/zf_device_tft180
L251 LINKER/LOCATER V4.66.93.0                                                        11/01/2025  17:49:51  PAGE 23


  +--> system_delay_ms/zf_driver_delay
  +--> tft180_show_string/zf_device_tft180

PID_Update/control                            ----- -----

Cycle_Update/control                          ----- -----

menu_handle_key/menu                          ----- -----
  +--> handle_key1/menu
  +--> handle_key2/menu
  +--> handle_key3/menu
  +--> handle_key4/menu
  +--> handle_key5/menu

handle_key1/menu                              ----- -----
  +--> tft180_show_string/zf_device_tft180
  +--> tft180_clear/zf_device_tft180
  +--> menu_display_content/menu
  +--> Refesh_arrow/menu

handle_key2/menu                              ----- -----
  +--> Show_bujin/menu

handle_key3/menu                              ----- -----
  +--> Show_bujin/menu

handle_key4/menu                              ----- -----
  +--> menu_display_content/menu
  +--> tft180_show_string/zf_device_tft180
  +--> tft180_clear/zf_device_tft180
  +--> Refesh_arrow/menu

handle_key5/menu                              ----- -----
  +--> Key3_handle1/menu
  +--> Key3_handle2/menu

Key3_handle1/menu                             ----- -----
  +--> Refesh_arrow/menu

Key3_handle2/menu                             ----- -----
  +--> show_all_menu/menu
  +--> Refesh_arrow/menu

show_all_menu/menu                            ----- -----
  +--> tft180_clear/zf_device_tft180
  +--> Refesh_arrow/menu
  +--> menu_display_content/menu
  +--> Show_bujin/menu

PWM_Test/Device_Test                          ----- -----
  +--> MotorL_SetSpeed/control
  +--> MotorR_SetSpeed/control

Serve_Test/Device_Test                        ----- -----
  +--> Ser_Servo_Duty/control
  +--> system_delay_ms/zf_driver_delay

Set_Sevo/Device_Test                          ----- -----
  +--> Ser_Servo_Duty/control

SPRINTF/SPRINTF                               155CH 1583H
  +--> OUT/SPRINTF

OUT/SPRINTF                                   ----- -----
  +--> PUTCH/SPRINTF
L251 LINKER/LOCATER V4.66.93.0                                                        11/01/2025  17:49:51  PAGE 24



PUTCH/SPRINTF                                 ----- -----

*** NEW ROOT ********************************

TM11_IRQHandler/isr                           ----- -----

*** NEW ROOT ********************************

DMA_UART1_IRQHandler/isr                      ----- -----
  +--> uart_rx_start_buff/zf_driver_uart

*** NEW ROOT ********************************

DMA_UART2_IRQHandler/isr                      ----- -----
  +--> uart_rx_start_buff/zf_driver_uart

*** NEW ROOT ********************************

DMA_UART3_IRQHandler/isr                      ----- -----
  +--> uart_rx_start_buff/zf_driver_uart

*** NEW ROOT ********************************

DMA_UART4_IRQHandler/isr                      ----- -----
  +--> uart_rx_start_buff/zf_driver_uart

*** NEW ROOT ********************************

TM0_IRQHandler/isr                            ----- -----

*** NEW ROOT ********************************

TM1_IRQHandler/isr                            ----- -----

*** NEW ROOT ********************************

TM2_IRQHandler/isr                            ----- -----

*** NEW ROOT ********************************

TM3_IRQHandler/isr                            ----- -----

*** NEW ROOT ********************************

TM4_IRQHandler/isr                            ----- -----

*** NEW ROOT ********************************

?C_C51STARTUP?1                               ----- -----

*** NEW ROOT ********************************

?C_C51STARTUP?2                               ----- -----



PUBLIC SYMBOLS OF MODULE:  .\out_file\SEEKFREE (ai8051u_isr)


      VALUE       CLASS    TYPE      PUBLIC SYMBOL NAME
      =================================================
      00FF3919H   CODE     ---       ?C?BMOVEPP
      00FF3917H   CODE     ---       ?C?BMOVEPP8
      00FF259FH   CODE     NEAR LAB  ?C?CASTD
L251 LINKER/LOCATER V4.66.93.0                                                        11/01/2025  17:49:51  PAGE 25


      00FF3807H   CODE     NEAR LAB  ?C?CASTF
      000000FFH   NUMBER   ---       ?C?CODESEG
      00FF255CH   CODE     NEAR LAB  ?C?DCASTC
      00FF25FFH   CODE     NEAR LAB  ?C?DCASTF
      00FF2557H   CODE     NEAR LAB  ?C?DCASTI
      00FF2552H   CODE     NEAR LAB  ?C?DCASTL
      00FF2FD3H   CODE     ---       ?C?DP2SERIES
      00FF2225H   CODE     ---       ?C?DPADD
      00FF24E5H   CODE     ---       ?C?DPCMP
      00FF24E3H   CODE     ---       ?C?DPCMP3
      00FF32BEH   CODE     ---       ?C?DPCONVERT
      00FF2444H   CODE     ---       ?C?DPDIV
      00FF2AF5H   CODE     ---       ?C?DPGETOPN2
      00FF2334H   CODE     ---       ?C?DPMUL
      00FF2B40H   CODE     ---       ?C?DPNANRESULT
      00FF2544H   CODE     ---       ?C?DPNEG
      00FF2B4CH   CODE     ---       ?C?DPOVERFLOW
      00FF2B18H   CODE     ---       ?C?DPRESULT
      00FF2B31H   CODE     ---       ?C?DPRESULT2
      00FF33E5H   CODE     ---       ?C?DPROUND
      00FF2FDEH   CODE     ---       ?C?DPSERIES
      00FF2221H   CODE     ---       ?C?DPSUB
      00FF2B47H   CODE     ---       ?C?DPUNDERFLOW
      00FF34C0H   CODE     ---       ?C?DTNPWR
      00FF37D4H   CODE     NEAR LAB  ?C?FCASTC
      00FF2641H   CODE     NEAR LAB  ?C?FCASTD
      00FF37CFH   CODE     NEAR LAB  ?C?FCASTI
      00FF37CAH   CODE     NEAR LAB  ?C?FCASTL
      00FF359DH   CODE     ---       ?C?FPADD
      00FF3778H   CODE     ---       ?C?FPCMP
      00FF3776H   CODE     ---       ?C?FPCMP3
      00FF36F5H   CODE     ---       ?C?FPDIV
      00FF3546H   CODE     ---       ?C?FPGETOPN2
      00FF3655H   CODE     ---       ?C?FPMUL
      00FF3583H   CODE     ---       ?C?FPNANRESULT
      00FF37BCH   CODE     ---       ?C?FPNEG
      00FF358BH   CODE     ---       ?C?FPOVERFLOW
      00FF355FH   CODE     ---       ?C?FPRESULT
      00FF3575H   CODE     ---       ?C?FPRESULT2
      00FF359AH   CODE     ---       ?C?FPSUB
      00FF3588H   CODE     ---       ?C?FPUNDERFLOW
      00FFBEA7H   CODE     ---       ?C?INITHDATA
      00FFDF63H   HCONST   WORD      ?C?INITHDATA_END
      00FF3887H   CODE     ---       ?C?LIMUL
      00FF3876H   CODE     ---       ?C?LMUL
      00FF2BA5H   CODE     ---       ?C?PRNFMT
      00FF3844H   CODE     ---       ?C?SIDIV
      00FF38E3H   CODE     NEAR LAB  ?C?SLDIV
      00FF0000H   CODE     ---       ?C?STARTUP
      00FF3892H   CODE     NEAR LAB  ?C?ULDIV
      00FF3890H   CODE     NEAR LAB  ?C?ULIDIV
      00000001H   NUMBER   ---       ?C?XDATASEG
      00FF0000H   CODE     ---       ?C_STARTUP
      00011558H   XDATA    BYTE      ?fifo_init?BYTE
*DEL*:1FFFFFFCH   XDATA    BYTE      ?fifo_read_buffer?BYTE
      00011559H   XDATA    BYTE      ?fifo_write_buffer?BYTE
*DEL*:1FFFFFFCH   XDATA    BYTE      ?func_double_to_str?BYTE
*DEL*:00000000H   XDATA    BYTE      ?get_two_points_azimuth?BYTE
*DEL*:00000000H   XDATA    BYTE      ?get_two_points_distance?BYTE
*DEL*:1FFFFFF8H   XDATA    BYTE      ?Help_turn3?BYTE
*DEL*:1FFFFFF8H   XDATA    BYTE      ?Help_turn_Two?BYTE
*DEL*:1FFFFFFCH   XDATA    BYTE      ?iap_read_buff?BYTE
*DEL*:1FFFFFFCH   XDATA    BYTE      ?iap_write_buff?BYTE
*DEL*:1FFFFFFCH   XDATA    BYTE      ?ips114_show_chinese?BYTE
*DEL*:1FFFFFFEH   XDATA    BYTE      ?ips114_show_float?BYTE
L251 LINKER/LOCATER V4.66.93.0                                                        11/01/2025  17:49:51  PAGE 26


*DEL*:1FFFFFFCH   XDATA    BYTE      ?ips114_show_wave?BYTE
*DEL*:1FFFFFFCH   XDATA    BYTE      ?ips200_show_chinese?BYTE
*DEL*:1FFFFFFEH   XDATA    BYTE      ?ips200_show_float?BYTE
*DEL*:1FFFFFFCH   XDATA    BYTE      ?ips200_show_wave?BYTE
*DEL*:1FFFFFF8H   XDATA    BYTE      ?Normal_PID?BYTE
      000115D3H   XDATA    ---       ?printf?BYTE
      0001155AH   XDATA    BYTE      ?pwm_init?BYTE
*DEL*:1FFFFFFEH   XDATA    BYTE      ?pwm_set_freq?BYTE
*DEL*:1FFFFFF8H   XDATA    BYTE      ?seekfree_assistant_camera_boundary_config?BYTE
*DEL*:1FFFFFFBH   XDATA    BYTE      ?seekfree_assistant_camera_data_send?BYTE
*DEL*:1FFFFFF8H   XDATA    BYTE      ?seekfree_assistant_camera_information_config?BYTE
*DEL*:1FFFFFFCH   XDATA    BYTE      ?soft_iic_init?BYTE
*DEL*:1FFFFFFCH   XDATA    BYTE      ?soft_iic_read_16bit_array?BYTE
*DEL*:1FFFFFFCH   XDATA    BYTE      ?soft_iic_read_16bit_registers?BYTE
*DEL*:1FFFFFFCH   XDATA    BYTE      ?soft_iic_read_8bit_array?BYTE
*DEL*:1FFFFFFCH   XDATA    BYTE      ?soft_iic_read_8bit_registers?BYTE
*DEL*:1FFFFFFCH   XDATA    BYTE      ?soft_iic_transfer_16bit_array?BYTE
*DEL*:1FFFFFFCH   XDATA    BYTE      ?soft_iic_transfer_8bit_array?BYTE
*DEL*:1FFFFFFCH   XDATA    BYTE      ?soft_iic_write_16bit_array?BYTE
*DEL*:1FFFFFFCH   XDATA    BYTE      ?soft_iic_write_16bit_registers?BYTE
*DEL*:1FFFFFFCH   XDATA    BYTE      ?soft_iic_write_8bit_array?BYTE
*DEL*:1FFFFFFCH   XDATA    BYTE      ?soft_iic_write_8bit_registers?BYTE
*DEL*:1FFFFFFCH   XDATA    BYTE      ?soft_spi_init?BYTE
*DEL*:1FFFFFFCH   XDATA    BYTE      ?soft_spi_read_16bit_array?BYTE
*DEL*:1FFFFFFCH   XDATA    BYTE      ?soft_spi_read_16bit_registers?BYTE
*DEL*:1FFFFFFCH   XDATA    BYTE      ?soft_spi_read_8bit_array?BYTE
*DEL*:1FFFFFFCH   XDATA    BYTE      ?soft_spi_read_8bit_registers?BYTE
*DEL*:1FFFFFFCH   XDATA    BYTE      ?soft_spi_transfer_16bit?BYTE
*DEL*:1FFFFFFCH   XDATA    BYTE      ?soft_spi_transfer_8bit?BYTE
*DEL*:1FFFFFFCH   XDATA    BYTE      ?soft_spi_write_16bit_array?BYTE
*DEL*:1FFFFFFCH   XDATA    BYTE      ?soft_spi_write_16bit_registers?BYTE
*DEL*:1FFFFFFCH   XDATA    BYTE      ?soft_spi_write_8bit_array?BYTE
*DEL*:1FFFFFFCH   XDATA    BYTE      ?soft_spi_write_8bit_registers?BYTE
      00011558H   XDATA    BYTE      ?spi_init?BYTE
*DEL*:1FFFFFFCH   XDATA    BYTE      ?spi_read_16bit_array?BYTE
*DEL*:1FFFFFFCH   XDATA    BYTE      ?spi_read_16bit_registers?BYTE
*DEL*:1FFFFFFCH   XDATA    BYTE      ?spi_read_8bit_array?BYTE
*DEL*:1FFFFFFBH   XDATA    BYTE      ?spi_read_8bit_registers?BYTE
*DEL*:1FFFFFFCH   XDATA    BYTE      ?spi_transfer_16bit?BYTE
*DEL*:1FFFFFFCH   XDATA    BYTE      ?spi_transfer_8bit?BYTE
*DEL*:1FFFFFFCH   XDATA    BYTE      ?spi_write_16bit_array?BYTE
*DEL*:1FFFFFFCH   XDATA    BYTE      ?spi_write_16bit_registers?BYTE
*DEL*:1FFFFFFCH   XDATA    BYTE      ?spi_write_8bit_array?BYTE
*DEL*:1FFFFFFBH   XDATA    BYTE      ?spi_write_8bit_registers?BYTE
      00011584H   XDATA    ---       ?sprintf?BYTE
      0001155AH   XDATA    BYTE      ?tft180_show_float?BYTE
*DEL*:1FFFFFFCH   XDATA    BYTE      ?tft180_show_wave?BYTE
      00011558H   XDATA    BYTE      ?uart_init?BYTE
      000115B5H   XDATA    BYTE      ?zf_sprintf?BYTE
      00FF2B5AH   CODE     ---       _chkdouble_?_
      00FFAE3EH   CODE     ---       _m
*SFR* 000000D0H.6 DATA     BIT       AC
*SFR* 000000E0H   DATA     BYTE      ACC
      00010C0BH   XDATA    BYTE      ACC_Flag
      00010F8FH   XDATA    WORD      Accel_Time
      00010AD5H   XDATA    WORD      ADC_1
      00010AD7H   XDATA    WORD      ADC_2
      00010AD9H   XDATA    WORD      ADC_3
      00010ADBH   XDATA    WORD      ADC_4
      00010ADDH   XDATA    WORD      ADC_5
      00010ADFH   XDATA    WORD      ADC_6
      00010AFDH   XDATA    WORD      ADC_8
*SFR* 000000BCH   DATA     BYTE      ADC_CONTR
      00FFC685H   CODE     ---       adc_convert
      00FFAEE5H   CODE     ---       adc_filter
L251 LINKER/LOCATER V4.66.93.0                                                        11/01/2025  17:49:51  PAGE 27


      00FFC711H   CODE     ---       ADC_GetInit
      00FFB716H   CODE     ---       adc_init
*DEL*:00000000H   CODE     ---       adc_mean_filter_convert
      00011720H   XDATA    ---       ADC_Num
*SFR* 000000BDH   DATA     BYTE      ADC_RES
*SFR* 000000BEH   DATA     BYTE      ADC_RESL
      00FFA1C1H   CODE     ---       ADC_SampleAndFilter
      000114CAH   XDATA    BYTE      ADC_Show_Flag
*SFR* 000000DEH   DATA     BYTE      ADCCFG
      00010B44H   XDATA    FLOAT     angle
      00010BB7H   XDATA    FLOAT     angle_buffer1
      00FFBAF6H   CODE     ---       angle_Get
      00FF3940H   CODE     ---       asc2_0806
      00FF3B68H   CODE     ---       asc2_1608
      00FF5515H   CODE     ---       ascii_font_8x16
      00FF2ACBH   CODE     ---       asin?_
      00FF29B0H   CODE     ---       atan?_
*SFR* 000000EFH   DATA     BYTE      AUXINTIF
*SFR* 0000008EH   DATA     BYTE      AUXR
*SFR* 00000097H   DATA     BYTE      AUXR2
*SFR* 000000F0H   DATA     BYTE      B
*DEL*:00000000H   CODE     ---       battery_get
      00000020H.0 BIT      BIT       Battery_Init
      00010F91H   XDATA    FLOAT     Bend_Data
      00010F99H   XDATA    WORD      Bend_Time
*DEL*:00000000H   CODE     ---       ble6a20_callback
*DEL*:00000000H   CODE     ---       ble6a20_init
*DEL*:00000000H   CODE     ---       ble6a20_read_buffer
*DEL*:00000000H   CODE     ---       ble6a20_send_buffer
*DEL*:00000000H   CODE     ---       ble6a20_send_byte
*DEL*:00000000H   CODE     ---       ble6a20_send_string
      000117CEH   XDATA    FLOAT     bujin
      00FFC8F0H   CODE     ---       Buzzer_Init
      00FFC931H   CODE     ---       Buzzer_OFF
      00FF01BEH   CODE     ---       Buzzer_ON
*SFR* 000000C8H.1 DATA     BIT       C_T2
      0001177AH   XDATA    BYTE      CAR_Mode
      00FFC8CDH   CODE     ---       CAR_STOP
*SFR* 000000FAH   DATA     BYTE      CCAP0H
*SFR* 000000EAH   DATA     BYTE      CCAP0L
*SFR* 000000FBH   DATA     BYTE      CCAP1H
*SFR* 000000EBH   DATA     BYTE      CCAP1L
*SFR* 000000FCH   DATA     BYTE      CCAP2H
*SFR* 000000ECH   DATA     BYTE      CCAP2L
*SFR* 000000FDH   DATA     BYTE      CCAP3H
*SFR* 000000EDH   DATA     BYTE      CCAP3L
*SFR* 000000FEH   DATA     BYTE      CCAP4H
*SFR* 000000EEH   DATA     BYTE      CCAP4L
*SFR* 000000DAH   DATA     BYTE      CCAPM0
*SFR* 000000DBH   DATA     BYTE      CCAPM1
*SFR* 000000DCH   DATA     BYTE      CCAPM2
*SFR* 000000DDH   DATA     BYTE      CCAPM3
*SFR* 000000DEH   DATA     BYTE      CCAPM4
*SFR* 000000D8H.0 DATA     BIT       CCF0
*SFR* 000000D8H.1 DATA     BIT       CCF1
*SFR* 000000D8H.2 DATA     BIT       CCF2
*SFR* 000000D8H.3 DATA     BIT       CCF3
*SFR* 000000D8H.4 DATA     BIT       CCF4
*SFR* 000000D8H   DATA     BYTE      CCON
*SFR* 00000090H.3 DATA     BIT       CEX0
*SFR* 00000090H.4 DATA     BIT       CEX1
*SFR* 00000090H.5 DATA     BIT       CEX2
*SFR* 00000090H.6 DATA     BIT       CEX3
*SFR* 00000090H.7 DATA     BIT       CEX4
*SFR* 000000D8H.7 DATA     BIT       CF
L251 LINKER/LOCATER V4.66.93.0                                                        11/01/2025  17:49:51  PAGE 28


*SFR* 000000F9H   DATA     BYTE      CH
*SFR* 000000EAH   DATA     BYTE      CKCON
*SFR* 000000E9H   DATA     BYTE      CL
      00FFA382H   CODE     ---       clock_init
*SFR* 000000D9H   DATA     BYTE      CMOD
*SFR* 000000E6H   DATA     BYTE      CMPCR1
*SFR* 000000E7H   DATA     BYTE      CMPCR2
      00010C66H   XDATA    WORD      Continue_Time
      00FF2818H   CODE     ---       cos?_
*SFR* 000000C8H.0 DATA     BIT       CP_RL2
*SFR* 000000D8H.6 DATA     BIT       CR
      00010B3DH   XDATA    INT       current_angle_time
      00011772H   XDATA    FLOAT     Current_dajiao
      000117B7H   XDATA    INT       current_delta_angle
      00011776H   XDATA    FLOAT     Current_Speed
*SFR* 000000D0H.7 DATA     BIT       CY
      00010F9BH   XDATA    BYTE      Cycle_Stat
      00FF91ADH   CODE     ---       Cycle_Update
      0001177BH   XDATA    FLOAT     d_range
      0001152DH   XDATA    INT       dajiao
      00FFBBD1H   CODE     ---       debug_assert_handler
      00FFB17BH   CODE     ---       debug_init
      00FFC574H   CODE     ---       debug_interrupr_handler
*DEL*:00000000H   CODE     ---       debug_read_buffer
*DEL*:00000000H   CODE     ---       debug_send_buffer
      000115F1H   XDATA    ---       debug_uart_buffer
      00011632H   XDATA    ---       debug_uart_fifo
*DEL*:00000000H   CODE     ---       delay_ms
      00010F9EH   XDATA    FLOAT     delta_angle
      000117B3H   XDATA    FLOAT     delta_angle_buffer
      000117B9H   XDATA    INT       delta_Speed
      000117C9H   XDATA    WORD      dl1a_distance_mm
      000117CBH   XDATA    BYTE      dl1a_finsh_flag
*DEL*:00000000H   CODE     ---       dl1a_get_distance
*DEL*:00000000H   CODE     ---       dl1a_init
*DEL*:00000000H   CODE     ---       dl1a_int_handler
      00FFB0D6H   CODE     ---       DMA_UART1_IRQHandler
      00FFB57BH   CODE     ---       DMA_UART2_IRQHandler
      00FFB604H   CODE     ---       DMA_UART3_IRQHandler
      00FFB68DH   CODE     ---       DMA_UART4_IRQHandler
*SFR* 00000083H   DATA     BYTE      DPH
*SFR* 00000082H   DATA     BYTE      DPL
*SFR* 00000084H   DATA     BYTE      DPXL
*SFR* 000000A8H.7 DATA     BIT       EA
*SFR* 000000A8H.6 DATA     BIT       EC
*SFR* 00000090H.2 DATA     BIT       ECI
*DEL*:00000000H   CODE     ---       eeprom_read_float
*DEL*:00000000H   CODE     ---       eeprom_read_Num
*DEL*:00000000H   CODE     ---       eeprom_save_float
*DEL*:00000000H   CODE     ---       eeprom_save_Num
*DEL*:00000000H   CODE     ---       eeprom_trig
      000117BBH   XDATA    LONG      encoder
      00FFB212H   CODE     ---       encoder_clear_count
      000114C4H   XDATA    INT       encoder_data_dir_1
      000114C6H   XDATA    INT       encoder_data_dir_2
      00FF9ED3H   CODE     ---       encoder_dir_init
      00FFB031H   CODE     ---       encoder_get_count
      00FF0026H   CODE     ---       enconder_init
      00010DFEH   XDATA    BYTE      Enter_Flag_Left
      00010B49H   XDATA    WORD      Entern_Continue_Time
      00010C62H   XDATA    WORD      Entern_Delay_Time
      00010C6CH   XDATA    WORD      Entern_Flag_Time
*SFR* 000000A8H.4 DATA     BIT       ES
*SFR* 000000A8H.1 DATA     BIT       ET0
*SFR* 000000A8H.3 DATA     BIT       ET1
L251 LINKER/LOCATER V4.66.93.0                                                        11/01/2025  17:49:51  PAGE 29


*SFR* 000000A8H.5 DATA     BIT       ET2
*SFR* 000000A8H.0 DATA     BIT       EX0
*SFR* 000000A8H.2 DATA     BIT       EX1
*SFR* 000000C8H.3 DATA     BIT       EXEN2
*SFR* 000000C8H.6 DATA     BIT       EXF2
      00FF30BAH   CODE     ---       exp?_
*DEL*:00000000H   CODE     ---       extern_iap_write_buff
*SFR* 000000D0H.5 DATA     BIT       F0
      00FFAC36H   CODE     ---       fast_sqrt
*SFR* 00000098H.7 DATA     BIT       FE
*DEL*:00000000H   CODE     ---       fifo_clear
      00FFB821H   CODE     ---       fifo_init
*DEL*:00000000H   CODE     ---       fifo_read_buffer
*DEL*:00000000H   CODE     ---       fifo_used
      00FF6A43H   CODE     ---       fifo_write_buffer
      0001172EH   XDATA    ---       filtered_adc
      00010F9DH   XDATA    BYTE      finsh_Flag
      00010F9CH   XDATA    BYTE      Fires_Init
      000117D9H   XDATA    CHAR      Flag
*DEL*:00000000H   CODE     ---       func_double_to_str
*DEL*:00000000H   CODE     ---       func_float_to_str
*DEL*:00000000H   CODE     ---       func_get_greatest_common_divisor
*DEL*:00000000H   CODE     ---       func_hex_to_str
*DEL*:00000000H   CODE     ---       func_int_to_str
*DEL*:00000000H   CODE     ---       func_soft_delay
*DEL*:00000000H   CODE     ---       func_str_to_double
*DEL*:00000000H   CODE     ---       func_str_to_float
*DEL*:00000000H   CODE     ---       func_str_to_hex
*DEL*:00000000H   CODE     ---       func_str_to_int
*DEL*:00000000H   CODE     ---       func_str_to_uint
*DEL*:00000000H   CODE     ---       func_uint_to_str
*DEL*:00000000H   CODE     ---       get_two_points_azimuth
*DEL*:00000000H   CODE     ---       get_two_points_distance
      00FFC921H   CODE     ---       GO_Function
      000114C8H   XDATA    BYTE      GO_PID_Control
      000114CBH   XDATA    BYTE      GO_PID_Control1
      000114CCH   XDATA    BYTE      GO_PID_Control2
      000114F9H   XDATA    BYTE      GO_PID_Control3
      00FF00C6H   CODE     ---       gpio_get_level
      00FFA951H   CODE     ---       gpio_init
      00FF98E9H   CODE     ---       gpio_set_impedance
      00FF94DDH   CODE     ---       gpio_set_level
      00FF7E26H   CODE     ---       gpio_set_level_speed
*DEL*:00000000H   CODE     ---       gpio_toggle_level
*DEL*:00000000H   CODE     ---       gps_data_parse
      00011380H   XDATA    INT       gps_gga_state
*DEL*:00000000H   CODE     ---       gps_init
      00011382H   XDATA    INT       gps_rmc_state
      0001124CH   XDATA    ---       gps_tau1201
      000111CBH   XDATA    BYTE      gps_tau1201_flag
      00011821H   XDATA    INT       gps_type
*DEL*:00000000H   CODE     ---       gps_uart_callback
      00FF720DH   CODE     ---       Half_State_of_road
      00FFA460H   CODE     ---       handle_key1
      00FFC2C2H   CODE     ---       handle_key2
      00FFC02EH   CODE     ---       handle_key3
      00FFA88AH   CODE     ---       handle_key4
      00FFC842H   CODE     ---       handle_key5
*DEL*:00000000H   CODE     ---       Help_turn
      00FF80DFH   CODE     ---       Help_turn2
*DEL*:00000000H   CODE     ---       Help_turn3
*DEL*:00000000H   CODE     ---       Help_turn_Two
      00FF4158H   CODE     ---       Hzk
      000117D5H   XDATA    CHAR      i
*SFR* 000000F6H   DATA     BYTE      IAP_ADDRE
L251 LINKER/LOCATER V4.66.93.0                                                        11/01/2025  17:49:51  PAGE 30


*SFR* 000000C3H   DATA     BYTE      IAP_ADDRH
*SFR* 000000C4H   DATA     BYTE      IAP_ADDRL
*SFR* 000000C5H   DATA     BYTE      IAP_CMD
*SFR* 000000C7H   DATA     BYTE      IAP_CONTR
*SFR* 000000C2H   DATA     BYTE      IAP_DATA
*DEL*:00000000H   CODE     ---       iap_erase_page
*DEL*:00000000H   CODE     ---       iap_get_cmd_state
*DEL*:00000000H   CODE     ---       iap_idle
*DEL*:00000000H   CODE     ---       iap_init
*DEL*:00000000H   CODE     ---       iap_read_buff
*DEL*:00000000H   CODE     ---       iap_read_byte
*DEL*:00000000H   CODE     ---       iap_set_tps
*SFR* 000000F5H   DATA     BYTE      IAP_TPS
*SFR* 000000C6H   DATA     BYTE      IAP_TRIG
*DEL*:00000000H   CODE     ---       iap_write_buff
*DEL*:00000000H   CODE     ---       iap_write_byte
      00011787H   XDATA    INT       icm20602_acc_x
      00011789H   XDATA    INT       icm20602_acc_y
      0001178BH   XDATA    INT       icm20602_acc_z
*DEL*:00000000H   CODE     ---       icm20602_get_acc
*DEL*:00000000H   CODE     ---       icm20602_get_gyro
      0001178DH   XDATA    INT       icm20602_gyro_x
      0001178FH   XDATA    INT       icm20602_gyro_y
      00011791H   XDATA    INT       icm20602_gyro_z
*DEL*:00000000H   CODE     ---       icm20602_init
      00011793H   XDATA    ---       icm20602_transition_factor
*SFR* 000000A8H   DATA     BYTE      IE
*SFR* 000000A8H   DATA     BYTE      IE0
*SFR* 00000088H.1 DATA     BIT       IE0_
*SFR* 000000B1H   DATA     BYTE      IE1
*SFR* 00000088H.3 DATA     BIT       IE1_
*SFR* 000000AFH   DATA     BYTE      IE2
      00010B4BH   XDATA    WORD      if2_time
      00FF9FDFH   CODE     ---       if_Cycle
      00010F95H   XDATA    WORD      if_time
      0001179BH   XDATA    INT       imu660ra_acc_x
      0001179DH   XDATA    INT       imu660ra_acc_y
      0001179FH   XDATA    INT       imu660ra_acc_z
      00FF021EH   CODE     ---       imu660ra_config_file
*DEL*:00000000H   CODE     ---       imu660ra_get_acc
*DEL*:00000000H   CODE     ---       imu660ra_get_gyro
      000117A1H   XDATA    INT       imu660ra_gyro_x
      000117A3H   XDATA    INT       imu660ra_gyro_y
      000117A5H   XDATA    INT       imu660ra_gyro_z
*DEL*:00000000H   CODE     ---       imu660ra_init
      000117A7H   XDATA    ---       imu660ra_transition_factor
*DEL*:00000000H   CODE     ---       imu660rb_acc_transition
      000117F2H   XDATA    INT       imu660rb_acc_x
      000117F4H   XDATA    INT       imu660rb_acc_y
      000117F6H   XDATA    INT       imu660rb_acc_z
*DEL*:00000000H   CODE     ---       imu660rb_get_acc
*DEL*:00000000H   CODE     ---       imu660rb_get_gyro
*DEL*:00000000H   CODE     ---       imu660rb_gyro_transition
      000117F8H   XDATA    INT       imu660rb_gyro_x
      000117FAH   XDATA    INT       imu660rb_gyro_y
      000117FCH   XDATA    INT       imu660rb_gyro_z
*DEL*:00000000H   CODE     ---       imu660rb_init
      00011754H   XDATA    INT       imu963ra_acc_x
      00011756H   XDATA    INT       imu963ra_acc_y
      00011758H   XDATA    INT       imu963ra_acc_z
*DEL*:00000000H   CODE     ---       imu963ra_get_acc
      00FFBF88H   CODE     ---       imu963ra_get_gyro
*DEL*:00000000H   CODE     ---       imu963ra_get_mag
      00011760H   XDATA    INT       imu963ra_gyro_x
      00011762H   XDATA    INT       imu963ra_gyro_y
L251 LINKER/LOCATER V4.66.93.0                                                        11/01/2025  17:49:51  PAGE 31


      00011764H   XDATA    INT       imu963ra_gyro_z
      00FF7B4BH   CODE     ---       imu963ra_init
      0001175AH   XDATA    INT       imu963ra_mag_x
      0001175CH   XDATA    INT       imu963ra_mag_y
      0001175EH   XDATA    INT       imu963ra_mag_z
      00011766H   XDATA    ---       imu963ra_transition_factor
      00FF4E35H   CODE     ---       Inertial_Navigation
      00010C60H   XDATA    INT       Inertial_Time
      00FFBA0EH   CODE     ---       init_all
      000114C9H   XDATA    BYTE      Init_Fg
      00011808H   XDATA    BYTE      Init_Flag
*SFR* 000000B0H.2 DATA     BIT       INT0
      00011742H   XDATA    ---       int0_irq_handler
*SFR* 000000B0H.3 DATA     BIT       INT1
      00011746H   XDATA    ---       int1_irq_handler
      0001174AH   XDATA    ---       int2_irq_handler
      0001174EH   XDATA    ---       int3_irq_handler
      00011752H   XDATA    ---       int4_irq_handler
*SFR* 0000008FH   DATA     BYTE      INTCLKO
*DEL*:00000000H   CODE     ---       interrupt_global_disable
      00FF001EH   CODE     ---       interrupt_global_enable
      00FFAAC8H   CODE     ---       interrupt_set_priority
*SFR* 000000B8H   DATA     BYTE      IP
*SFR* 000000B5H   DATA     BYTE      IP2
*SFR* 000000B6H   DATA     BYTE      IP2H
*SFR* 000000DFH   DATA     BYTE      IP3
*SFR* 000000EEH   DATA     BYTE      IP3H
*SFR* 000000B7H   DATA     BYTE      IPH
*SFR* 000000B7H   DATA     BYTE      IPH0
*SFR* 000000B8H   DATA     BYTE      IPL0
      0001182DH   XDATA    WORD      ips114_bgcolor
*DEL*:00000000H   CODE     ---       ips114_clear
      0001182FH   XDATA    INT       ips114_display_dir
*DEL*:00000000H   CODE     ---       ips114_draw_point
*DEL*:00000000H   CODE     ---       ips114_init
      0001182BH   XDATA    WORD      ips114_pencolor
*DEL*:00000000H   CODE     ---       ips114_set_color
*DEL*:00000000H   CODE     ---       ips114_set_dir
*DEL*:00000000H   CODE     ---       ips114_show_char
*DEL*:00000000H   CODE     ---       ips114_show_chinese
*DEL*:00000000H   CODE     ---       ips114_show_float
*DEL*:00000000H   CODE     ---       ips114_show_int16
*DEL*:00000000H   CODE     ---       ips114_show_int32
*DEL*:00000000H   CODE     ---       ips114_show_int8
*DEL*:00000000H   CODE     ---       ips114_show_string
*DEL*:00000000H   CODE     ---       ips114_show_uint16
*DEL*:00000000H   CODE     ---       ips114_show_uint8
*DEL*:00000000H   CODE     ---       ips114_show_wave
      00011831H   XDATA    BYTE      ips114_x_max
      00011832H   XDATA    BYTE      ips114_y_max
      0001180BH   XDATA    WORD      ips200_bgcolor
*DEL*:00000000H   CODE     ---       ips200_clear
      0001180DH   XDATA    INT       ips200_display_dir
*DEL*:00000000H   CODE     ---       ips200_draw_point
*DEL*:00000000H   CODE     ---       ips200_init
      00011809H   XDATA    WORD      ips200_pencolor
*DEL*:00000000H   CODE     ---       ips200_set_color
*DEL*:00000000H   CODE     ---       ips200_set_dir
*DEL*:00000000H   CODE     ---       ips200_show_char
*DEL*:00000000H   CODE     ---       ips200_show_chinese
*DEL*:00000000H   CODE     ---       ips200_show_float
*DEL*:00000000H   CODE     ---       ips200_show_int16
*DEL*:00000000H   CODE     ---       ips200_show_int32
*DEL*:00000000H   CODE     ---       ips200_show_int8
*DEL*:00000000H   CODE     ---       ips200_show_string
L251 LINKER/LOCATER V4.66.93.0                                                        11/01/2025  17:49:51  PAGE 32


*DEL*:00000000H   CODE     ---       ips200_show_uint16
*DEL*:00000000H   CODE     ---       ips200_show_uint8
*DEL*:00000000H   CODE     ---       ips200_show_wave
      0001180FH   XDATA    WORD      ips200_x_max
      00011811H   XDATA    WORD      ips200_y_max
*SFR* 0000009DH   DATA     BYTE      IRCBAND
*SFR* 00000088H.0 DATA     BIT       IT0
*SFR* 00000088H.2 DATA     BIT       IT1
      000117D6H   XDATA    CHAR      j
      000117D3H   XDATA    BYTE      Key
      000117D7H   XDATA    CHAR      Key3_count
      00FF01AEH   CODE     ---       Key3_handle1
      00FFA7BCH   CODE     ---       Key3_handle2
      00011803H   XDATA    BYTE      Key_count
      000114C1H   XDATA    BYTE      Key_Flag
      00FFC239H   CODE     ---       Key_Number
      00FF9DB9H   CODE     ---       Key_scaner
      00011806H   XDATA    BYTE      keynumber
      0001152AH   XDATA    INT       Last_dajiao
      00011807H   XDATA    BYTE      last_keynumber
      00010C6EH   XDATA    ---       Last_Range_Data
      00010BB5H   XDATA    BYTE      Last_stact
      00011783H   XDATA    FLOAT     Left_Speed
      00FF31A3H   CODE     NEAR LAB  log?_
      00010BBBH   XDATA    ---       Long_road
      00010C0CH   XDATA    ---       long_road_angle
      00010B48H   XDATA    BYTE      Long_road_Time
      00010B39H   XDATA    WORD      Long_Time
      00011530H   XDATA    ---       M_left_pid
      000114CDH   XDATA    ---       M_Right_pid
      00FF0066H   CODE     ---       MAIN
      00FFC7BCH   CODE     ---       memcpy?_
*DEL*:00000000H   CODE     ---       memset?_
      00FF9A2FH   CODE     ---       menu_display_content
      00FFC6E3H   CODE     ---       menu_handle_key
      00FFB8A2H   CODE     ---       menu_Init
      00FFA6ECH   CODE     ---       Menu_SetChildren
      000117D2H   XDATA    CHAR      mode
      00010F97H   XDATA    INT       Mode_Flag
      00FFEE63H   HCONST   ---       mode_map
      00FFBE27H   CODE     ---       Motor_Init
      00FFA614H   CODE     ---       Motor_Left_pi_control
      00FFA53CH   CODE     ---       Motor_Right_pi_control
      00FFC163H   CODE     ---       Motor_Update
      00FFAF8BH   CODE     ---       Motor_Update_Smooth
      00FFC4FAH   CODE     ---       MotorL_SetSpeed
      00FFC537H   CODE     ---       MotorR_SetSpeed
*DEL*:00000000H   CODE     ---       Normal_PID
      00010831H   XDATA    ---       Num
*DEL*:00000000H   CODE     ---       OLED_Clear
*DEL*:00000000H   CODE     ---       OLED_ColorTurn
*DEL*:00000000H   CODE     ---       OLED_DisplayTurn
*DEL*:00000000H   CODE     ---       OLED_Init
*DEL*:00000000H   CODE     ---       oled_pow
*DEL*:00000000H   CODE     ---       OLED_Set_Pos
*DEL*:00000000H   CODE     ---       OLED_ShowChar
*DEL*:00000000H   CODE     ---       OLED_ShowChinese
*DEL*:00000000H   CODE     ---       OLED_ShowNum
*DEL*:00000000H   CODE     ---       OLED_ShowString
*DEL*:00000000H   CODE     ---       OLED_WR_Byte
*SFR* 000000D0H.2 DATA     BIT       OV
*SFR* 000000D0H.0 DATA     BIT       P
*SFR* 00000080H   DATA     BYTE      P0
*SFR* 00000094H   DATA     BYTE      P0M0
*SFR* 00000093H   DATA     BYTE      P0M1
L251 LINKER/LOCATER V4.66.93.0                                                        11/01/2025  17:49:51  PAGE 33


*SFR* 00000090H   DATA     BYTE      P1
*SFR* 00000092H   DATA     BYTE      P1M0
*SFR* 00000091H   DATA     BYTE      P1M1
*SFR* 000000A0H   DATA     BYTE      P2
*SFR* 000000A0H.0 DATA     BIT       P20
*SFR* 000000A0H.1 DATA     BIT       P21
*SFR* 000000A0H.2 DATA     BIT       P22
*SFR* 00000096H   DATA     BYTE      P2M0
*SFR* 00000095H   DATA     BYTE      P2M1
*SFR* 000000B0H   DATA     BYTE      P3
*SFR* 000000B2H   DATA     BYTE      P3M0
*SFR* 000000B1H   DATA     BYTE      P3M1
*SFR* 000000C0H   DATA     BYTE      P4
*SFR* 000000C0H.0 DATA     BIT       P40
*SFR* 000000C0H.1 DATA     BIT       P41
*SFR* 000000C0H.2 DATA     BIT       P42
*SFR* 000000C0H.3 DATA     BIT       P43
*SFR* 000000B4H   DATA     BYTE      P4M0
*SFR* 000000B3H   DATA     BYTE      P4M1
*SFR* 000000C8H   DATA     BYTE      P5
*SFR* 000000CAH   DATA     BYTE      P5M0
*SFR* 000000C9H   DATA     BYTE      P5M1
*SFR* 000000E8H   DATA     BYTE      P6
*SFR* 000000CCH   DATA     BYTE      P6M0
*SFR* 000000CBH   DATA     BYTE      P6M1
*SFR* 000000F8H   DATA     BYTE      P7
*SFR* 000000E2H   DATA     BYTE      P7M0
*SFR* 000000E1H   DATA     BYTE      P7M1
*SFR* 000000A2H   DATA     BYTE      P_SW1
*SFR* 000000BAH   DATA     BYTE      P_SW2
*SFR* 000000BBH   DATA     BYTE      P_SW3
*SFR* 000000BFH   DATA     BYTE      P_SW4
      00010000H   XDATA    ---       Page
      00010AE1H   XDATA    ---       Page0_children
      00010AEFH   XDATA    ---       Page1_children
      00010AFFH   XDATA    ---       Page2_children
      00010B0DH   XDATA    ---       Page3_children
      00010B1BH   XDATA    ---       Page4_children
      00010B29H   XDATA    ---       Page5_children
*SFR* 00000087H   DATA     BYTE      PCON
      00FF85A6H   CODE     ---       PID_Update
      0001082DH   XDATA    ---       Pin
      00FF8E14H   CODE     ---       pit_handler1
      00FF8C39H   CODE     ---       pit_init
*DEL*:00000000H   CODE     ---       pow?_
*SFR* 000000B8H.6 DATA     BIT       PPC
      00011801H   XDATA    INT       Press_time
      00FF2678H   CODE     NEAR LAB  printf
      00FFC4BCH   CODE     ---       Protect
      0001152CH   XDATA    BYTE      Protect_flag
*SFR* 000000B8H.4 DATA     BIT       PS
*SFR* 000000D0H   DATA     BYTE      PSW
*SFR* 000000D1H   DATA     BYTE      PSW1
*SFR* 000000B8H.1 DATA     BIT       PT0
*SFR* 000000B8H.3 DATA     BIT       PT1
*SFR* 000000B8H.5 DATA     BIT       PT2
      00FFC901H   CODE     ---       putchar
      00FFEC97H   HCONST   ---       PWM_ARR_ADDR
      00FFEC9FH   HCONST   ---       PWM_CCER_ADDR
      00FFECAFH   HCONST   ---       PWM_CCMR_ADDR
      00FFEC77H   HCONST   ---       PWM_CCR_ADDR
      00FF608EH   CODE     ---       pwm_init
      00FFEC6FH   HCONST   ---       PWM_PSCR_ADDR
      00FF934DH   CODE     ---       pwm_set_duty
*DEL*:00000000H   CODE     ---       pwm_set_freq
L251 LINKER/LOCATER V4.66.93.0                                                        11/01/2025  17:49:51  PAGE 34


      00FFC652H   CODE     ---       PWM_Test
*SFR* 000000B8H.0 DATA     BIT       PX0
*SFR* 000000B8H.2 DATA     BIT       PX1
      00010DFFH   XDATA    ---       Range_Data
      000116F8H   XDATA    ---       raw_adc_data
*SFR* 00000098H.2 DATA     BIT       RB8
*SFR* 000000CBH   DATA     BYTE      RCAP2H
*SFR* 000000CAH   DATA     BYTE      RCAP2L
*SFR* 000000C8H.5 DATA     BIT       RCLK
*SFR* 000000B0H.7 DATA     BIT       RD
      00FFB79EH   CODE     ---       Refesh_arrow
*SFR* 00000098H.4 DATA     BIT       REN
*SFR* 00000098H.0 DATA     BIT       RI
      0001177FH   XDATA    FLOAT     Right_Speed
      00010B4DH   XDATA    ---       Road_information
      00010B3FH   XDATA    BYTE      Road_Stat
*SFR* 000000D0H.3 DATA     BIT       RS0
*SFR* 000000D0H.4 DATA     BIT       RS1
*SFR* 000000FFH   DATA     BYTE      RSTCFG
*SFR* 000000B0H.0 DATA     BIT       RXD
*SFR* 0000009BH   DATA     BYTE      S2BUF
*SFR* 0000009AH   DATA     BYTE      S2CON
*SFR* 0000009AH.1 DATA     BIT       S2TI
*SFR* 000000ACH   DATA     BYTE      S3CON
*SFR* 000000FDH   DATA     BYTE      S4CON
*SFR* 000000A9H   DATA     BYTE      SADDR
*SFR* 000000B9H   DATA     BYTE      SADEN
      000117D8H   XDATA    BYTE      Save_Flag
*SFR* 00000099H   DATA     BYTE      SBUF
*SFR* 00000098H   DATA     BYTE      SCON
*DEL*:00000000H   CODE     ---       seekfree_assistant_camera_boundary_config
*DEL*:00000000H   CODE     ---       seekfree_assistant_camera_data_send
*DEL*:00000000H   CODE     ---       seekfree_assistant_camera_dot_send
*DEL*:00000000H   CODE     ---       seekfree_assistant_camera_information_config
*DEL*:00000000H   CODE     ---       seekfree_assistant_camera_send
*DEL*:00000000H   CODE     ---       seekfree_assistant_data_analysis
*DEL*:00000000H   CODE     ---       seekfree_assistant_init
*DEL*:00000000H   CODE     ---       seekfree_assistant_interface_init
      0001138CH   XDATA    ---       seekfree_assistant_oscilloscope_data
*DEL*:00000000H   CODE     ---       seekfree_assistant_oscilloscope_send
      000113CFH   XDATA    ---       seekfree_assistant_parameter
      000113C7H   XDATA    ---       seekfree_assistant_parameter_update_flag
      00011841H   XDATA    ---       seekfree_assistant_receive_callback
      00011843H   XDATA    ---       seekfree_assistant_transfer_callback
      00FFC911H   CODE     ---       Ser_Servo_Duty
      00FFBF32H   CODE     ---       Serve_Test
      00FFACE9H   CODE     ---       Servo_Control
      0001152FH   XDATA    BYTE      Servo_Flag
      00FF00A6H   CODE     ---       Servo_Init
      000114FAH   XDATA    ---       servo_pid
      00FFB33BH   CODE     ---       Servo_turn_pid
*DEL*:00000000H   CODE     ---       set_gps_type
      00FFC85CH   CODE     ---       Set_Sevo
      00011528H   XDATA    INT       Set_T
*DEL*:00000000H   CODE     ---       set_tof_type
*DEL*:00000000H   CODE     ---       set_wireless_type
      00010B3BH   XDATA    WORD      Short_Time
      00FFC8DFH   CODE     ---       show_all_menu
      00FFB997H   CODE     ---       Show_bujin
      000117CDH   XDATA    BYTE      Show_image_mode
      00010BB6H   XDATA    BYTE      Show_Init
      00FF5B05H   CODE     ---       Show_pararm
      00FFC6B5H   CODE     ---       show_test_info
      00FF2839H   CODE     ---       sin?_
      00010C64H   XDATA    WORD      SLOW_Time
L251 LINKER/LOCATER V4.66.93.0                                                        11/01/2025  17:49:51  PAGE 35


*SFR* 00000098H.7 DATA     BIT       SM0
*SFR* 00000098H.6 DATA     BIT       SM1
*SFR* 00000098H.5 DATA     BIT       SM2
      00FFC5E6H   CODE     ---       soft_iic_delay
*DEL*:00000000H   CODE     ---       soft_iic_init
*DEL*:00000000H   CODE     ---       soft_iic_read_16bit
*DEL*:00000000H   CODE     ---       soft_iic_read_16bit_array
*DEL*:00000000H   CODE     ---       soft_iic_read_16bit_register
*DEL*:00000000H   CODE     ---       soft_iic_read_16bit_registers
*DEL*:00000000H   CODE     ---       soft_iic_read_8bit
*DEL*:00000000H   CODE     ---       soft_iic_read_8bit_array
*DEL*:00000000H   CODE     ---       soft_iic_read_8bit_register
*DEL*:00000000H   CODE     ---       soft_iic_read_8bit_registers
      00FFAB82H   CODE     ---       soft_iic_read_data
*DEL*:00000000H   CODE     ---       soft_iic_sccb_read_register
*DEL*:00000000H   CODE     ---       soft_iic_sccb_write_register
      00FFBA83H   CODE     ---       soft_iic_send_ack
      00FFB3CFH   CODE     ---       soft_iic_send_data
      00FFBEDBH   CODE     ---       soft_iic_start
      00FFBD06H   CODE     ---       soft_iic_stop
*DEL*:00000000H   CODE     ---       soft_iic_transfer_16bit_array
*DEL*:00000000H   CODE     ---       soft_iic_transfer_8bit_array
      00FFB91EH   CODE     ---       soft_iic_wait_ack
*DEL*:00000000H   CODE     ---       soft_iic_write_16bit
*DEL*:00000000H   CODE     ---       soft_iic_write_16bit_array
*DEL*:00000000H   CODE     ---       soft_iic_write_16bit_register
*DEL*:00000000H   CODE     ---       soft_iic_write_16bit_registers
*DEL*:00000000H   CODE     ---       soft_iic_write_8bit
*DEL*:00000000H   CODE     ---       soft_iic_write_8bit_array
*DEL*:00000000H   CODE     ---       soft_iic_write_8bit_register
*DEL*:00000000H   CODE     ---       soft_iic_write_8bit_registers
*DEL*:00000000H   CODE     ---       soft_spi_delay
*DEL*:00000000H   CODE     ---       soft_spi_init
*DEL*:00000000H   CODE     ---       soft_spi_read_16bit
*DEL*:00000000H   CODE     ---       soft_spi_read_16bit_array
*DEL*:00000000H   CODE     ---       soft_spi_read_16bit_register
*DEL*:00000000H   CODE     ---       soft_spi_read_16bit_registers
*DEL*:00000000H   CODE     ---       soft_spi_read_8bit
*DEL*:00000000H   CODE     ---       soft_spi_read_8bit_array
*DEL*:00000000H   CODE     ---       soft_spi_read_8bit_register
*DEL*:00000000H   CODE     ---       soft_spi_read_8bit_registers
*DEL*:00000000H   CODE     ---       soft_spi_transfer_16bit
*DEL*:00000000H   CODE     ---       soft_spi_transfer_8bit
*DEL*:00000000H   CODE     ---       soft_spi_write_16bit
*DEL*:00000000H   CODE     ---       soft_spi_write_16bit_array
*DEL*:00000000H   CODE     ---       soft_spi_write_16bit_register
*DEL*:00000000H   CODE     ---       soft_spi_write_16bit_registers
*DEL*:00000000H   CODE     ---       soft_spi_write_8bit
*DEL*:00000000H   CODE     ---       soft_spi_write_8bit_array
*DEL*:00000000H   CODE     ---       soft_spi_write_8bit_register
*DEL*:00000000H   CODE     ---       soft_spi_write_8bit_registers
*SFR* 00000081H   DATA     BYTE      SP
*SFR* 000000CEH   DATA     BYTE      SPCTL
*SFR* 000000CFH   DATA     BYTE      SPDAT
      00FFC5ADH   CODE     ---       Speed_Control
      00FFC76AH   CODE     ---       speed_control_ring
      00FF9650H   CODE     ---       Speed_diff
      00011526H   XDATA    INT       Speed_Mode
      000117BFH   XDATA    BYTE      speed_update_flag
*SFR* 000000BEH   DATA     BYTE      SPH
      00FF659EH   CODE     ---       spi_init
*DEL*:00000000H   CODE     ---       spi_read_16bit
*DEL*:00000000H   CODE     ---       spi_read_16bit_array
*DEL*:00000000H   CODE     ---       spi_read_16bit_register
*DEL*:00000000H   CODE     ---       spi_read_16bit_registers
L251 LINKER/LOCATER V4.66.93.0                                                        11/01/2025  17:49:51  PAGE 36


*DEL*:00000000H   CODE     ---       spi_read_8bit
*DEL*:00000000H   CODE     ---       spi_read_8bit_array
*DEL*:00000000H   CODE     ---       spi_read_8bit_register
*DEL*:00000000H   CODE     ---       spi_read_8bit_registers
*DEL*:00000000H   CODE     ---       spi_read_dat
*DEL*:00000000H   CODE     ---       spi_transfer_16bit
*DEL*:00000000H   CODE     ---       spi_transfer_8bit
      00FFC804H   CODE     ---       spi_write_16bit
*DEL*:00000000H   CODE     ---       spi_write_16bit_array
*DEL*:00000000H   CODE     ---       spi_write_16bit_register
*DEL*:00000000H   CODE     ---       spi_write_16bit_registers
      00FF0003H   CODE     ---       spi_write_8bit
*DEL*:00000000H   CODE     ---       spi_write_8bit_array
*DEL*:00000000H   CODE     ---       spi_write_8bit_register
*DEL*:00000000H   CODE     ---       spi_write_8bit_registers
      00FFC305H   CODE     ---       spi_write_dat
      00FF26A4H   CODE     NEAR LAB  sprintf
*SFR* 000000CDH   DATA     BYTE      SPSTAT
      00FF26CAH   CODE     ---       sqrt?_
      000117D4H   XDATA    CHAR      Start_Show_Row
      000117FEH   XDATA    BYTE      State
      00010C68H   XDATA    FLOAT     State_Data_Bend
      00010FA2H   XDATA    FLOAT     State_Data_Str
      00FF754EH   CODE     ---       State_of_road
      00010BB1H   XDATA    FLOAT     Str_Data
*DEL*:00000000H   CODE     ---       strchr?_
*DEL*:00000000H   CODE     ---       strlen?_
*DEL*:00000000H   CODE     ---       strncmp?_
*DEL*:00000000H   CODE     ---       strncpy?_
*DEL*:00000000H   CODE     ---       Svero_Update_Smooth
      00011839H   XDATA    LONG      system_clock
      00FFBDCAH   CODE     ---       system_delay_init
      00FFBB66H   CODE     ---       system_delay_ms
*DEL*:00000000H   CODE     ---       system_delay_us
      000117B1H   XDATA    INT       T
*SFR* 000000B0H.4 DATA     BIT       T0
*SFR* 000000B0H.5 DATA     BIT       T1
*SFR* 00000090H.0 DATA     BIT       T2
*SFR* 000000C8H   DATA     BYTE      T2CON
*SFR* 00000090H.1 DATA     BIT       T2EX
*SFR* 000000D6H   DATA     BYTE      T2H
*SFR* 000000D7H   DATA     BYTE      T2L
*SFR* 000000C9H   DATA     BYTE      T2MOD
      000114C2H   XDATA    INT       T3
*SFR* 000000D4H   DATA     BYTE      T3H
*SFR* 000000D5H   DATA     BYTE      T3L
      000117AFH   XDATA    INT       T4
*SFR* 000000D2H   DATA     BYTE      T4H
*SFR* 000000D3H   DATA     BYTE      T4L
*SFR* 000000DDH   DATA     BYTE      T4T3M
      00FF286EH   CODE     ---       TAN?_
*SFR* 00000098H.3 DATA     BIT       TB8
*SFR* 000000C8H.4 DATA     BIT       TCLK
*SFR* 00000088H   DATA     BYTE      TCON
*SFR* 00000088H.5 DATA     BIT       TF0
*SFR* 00000088H.7 DATA     BIT       TF1
*SFR* 000000C8H.7 DATA     BIT       TF2
      00011825H   XDATA    WORD      tft180_bgcolor
      00FFBC39H   CODE     ---       tft180_clear
      00011827H   XDATA    INT       tft180_display_dir
*DEL*:00000000H   CODE     ---       tft180_draw_point
      00FF786FH   CODE     ---       tft180_init
      00011823H   XDATA    WORD      tft180_pencolor
      00FF000EH   CODE     ---       tft180_set_color
      00FFC795H   CODE     ---       tft180_set_dir
L251 LINKER/LOCATER V4.66.93.0                                                        11/01/2025  17:49:51  PAGE 37


      00FFA2A2H   CODE     ---       tft180_show_char
      00FF8FE9H   CODE     ---       tft180_show_float
      00FF9B64H   CODE     ---       tft180_show_int16
*DEL*:00000000H   CODE     ---       tft180_show_int32
*DEL*:00000000H   CODE     ---       tft180_show_int8
      00FFAD95H   CODE     ---       tft180_show_string
*DEL*:00000000H   CODE     ---       tft180_show_uint16
*DEL*:00000000H   CODE     ---       tft180_show_uint8
*DEL*:00000000H   CODE     ---       tft180_show_wave
      00011829H   XDATA    BYTE      tft180_x_max
      0001182AH   XDATA    BYTE      tft180_y_max
*SFR* 0000008CH   DATA     BYTE      TH0
*SFR* 0000008DH   DATA     BYTE      TH1
*SFR* 000000CDH   DATA     BYTE      TH2
*SFR* 00000098H.1 DATA     BIT       TI
      00011740H   XDATA    ---       tim0_irq_handler
      00011736H   XDATA    ---       tim11_irq_handler
      00011744H   XDATA    ---       tim1_irq_handler
      00011748H   XDATA    ---       tim2_irq_handler
      0001174CH   XDATA    ---       tim3_irq_handler
      00011750H   XDATA    ---       tim4_irq_handler
      00011804H   XDATA    WORD      Time_dou
      00FFC080H   CODE     ---       timer_funciton_check
*SFR* 0000008AH   DATA     BYTE      TL0
*SFR* 0000008BH   DATA     BYTE      TL1
*SFR* 000000CCH   DATA     BYTE      TL2
      00FFC386H   CODE     ---       TM0_IRQHandler
      00FFC118H   CODE     ---       TM11_IRQHandler
      00FFC3C4H   CODE     ---       TM1_IRQHandler
      00FFC402H   CODE     ---       TM2_IRQHandler
      00FFC440H   CODE     ---       TM3_IRQHandler
      00FFC47EH   CODE     ---       TM4_IRQHandler
*SFR* 00000089H   DATA     BYTE      TMOD
      0001181BH   XDATA    ---       tof_module_exti_handler
      0001181FH   XDATA    INT       tof_type
*SFR* 00000088H.4 DATA     BIT       TR0
*SFR* 00000088H.6 DATA     BIT       TR1
*SFR* 000000C8H.2 DATA     BIT       TR2
      000117FFH   XDATA    INT       Trigg_time
*DEL*:00000000H   CODE     ---       tsl1401_collect_pit_handler
      00010FB3H   XDATA    ---       tsl1401_data
      00010FB2H   XDATA    BYTE      tsl1401_finish_flag
*DEL*:00000000H   CODE     ---       tsl1401_init
*DEL*:00000000H   CODE     ---       tsl1401_send_data
      00FFAA0DH   CODE     ---       Turn_mode
      00FF8356H   CODE     ---       Turn_mode_Init
      00010C5CH   XDATA    INT       turn_Value
*SFR* 000000B0H.1 DATA     BIT       TXD
      00010C5EH   XDATA    INT       Type_road
      00011738H   XDATA    ---       uart1_irq_handler
      0001173AH   XDATA    ---       uart2_irq_handler
      0001173CH   XDATA    ---       uart3_irq_handler
      0001173EH   XDATA    ---       uart4_irq_handler
      00FF97A2H   CODE     ---       uart_dma_init
      00FFC0CCH   CODE     ---       uart_funciton_check
      00FF87DEH   CODE     ---       uart_init
      00FFBD68H   CODE     ---       uart_query_byte
*DEL*:00000000H   CODE     ---       uart_read_byte
      000117EEH   XDATA    ---       uart_rx_buff
      00FFC1F4H   CODE     ---       uart_rx_interrupt
      00FFB460H   CODE     ---       uart_rx_start_buff
      00FFA0DFH   CODE     ---       uart_write_buffer
      00FFC8B9H   CODE     ---       uart_write_byte
*DEL*:00000000H   CODE     ---       uart_write_string
      00FFB4F0H   CODE     ---       unification
L251 LINKER/LOCATER V4.66.93.0                                                        11/01/2025  17:49:51  PAGE 38


*SFR* 000000F4H   DATA     BYTE      USBCON
      00010B42H   XDATA    WORD      Wait_Time
      00010B37H   XDATA    INT       Wan_Falg
*SFR* 000000C1H   DATA     BYTE      WDT_CONTR
*SFR* 000000A6H   DATA     BYTE      WDTRST
      0001181DH   XDATA    INT       wireless_type
*DEL*:00000000H   CODE     ---       wireless_uart_callback
*DEL*:00000000H   CODE     ---       wireless_uart_init
*DEL*:00000000H   CODE     ---       wireless_uart_read_buffer
*DEL*:00000000H   CODE     ---       wireless_uart_send_buffer
*DEL*:00000000H   CODE     ---       wireless_uart_send_byte
*DEL*:00000000H   CODE     ---       wireless_uart_send_string
*SFR* 000000ABH   DATA     BYTE      WKTCH
*SFR* 000000B0H.6 DATA     BIT       WR
*SFR* 000000E9H   DATA     BYTE      WTST
      00FF4618H   CODE     ---       zf_sprintf
      00010B40H   XDATA    INT       Zhi_Falg



SYMBOL TABLE OF MODULE:  .\out_file\SEEKFREE (ai8051u_isr)

      VALUE       REP       CLASS    TYPE      SYMBOL NAME
      ====================================================
      ---         MODULE    ---      ---       ai8051u_isr

      00FF019BH   BLOCK     CODE     NEAR LAB  LVL=0
      00FF019BH   LINE      CODE     ---       #3
      ---         BLOCKEND  ---      ---       LVL=0

      00FF01ABH   BLOCK     CODE     NEAR LAB  LVL=0
      00FF01ABH   LINE      CODE     ---       #6
      ---         BLOCKEND  ---      ---       LVL=0

      00FF01BBH   BLOCK     CODE     NEAR LAB  LVL=0
      00FF01BBH   LINE      CODE     ---       #9
      ---         BLOCKEND  ---      ---       LVL=0

      00FF01CBH   BLOCK     CODE     NEAR LAB  LVL=0
      00FF01CBH   LINE      CODE     ---       #12
      ---         BLOCKEND  ---      ---       LVL=0

      00FF021BH   BLOCK     CODE     NEAR LAB  LVL=0
      00FF021BH   LINE      CODE     ---       #15
      ---         BLOCKEND  ---      ---       LVL=0

      ---         MODULE    ---      ---       zf_common_clock
      00FFA382H   PUBLIC    CODE     ---       clock_init
      00011839H   PUBLIC    XDATA    LONG      system_clock
      00000094H   SFRSYM    DATA     BYTE      P0M0
      000000D0H   SFRSYM    DATA     BYTE      PSW
      0000009DH   SFRSYM    DATA     BYTE      IRCBAND
      00000097H   SFRSYM    DATA     BYTE      AUXR2
      000000EAH   SFRSYM    DATA     BYTE      CKCON
      000000EFH   SFRSYM    DATA     BYTE      AUXINTIF
      000000FDH   SFRSYM    DATA     BYTE      S4CON
      000000ACH   SFRSYM    DATA     BYTE      S3CON
      0000009AH   SFRSYM    DATA     BYTE      S2CON
      000000B7H   SFRSYM    DATA     BYTE      IPH
      000000CDH   SFRSYM    DATA     BYTE      SPSTAT
      000000DDH   SFRSYM    DATA     BYTE      T4T3M
      000000C1H   SFRSYM    DATA     BYTE      WDT_CONTR
      000000E9H   SFRSYM    DATA     BYTE      WTST
      000000DFH   SFRSYM    DATA     BYTE      IP3
      000000F4H   SFRSYM    DATA     BYTE      USBCON
L251 LINKER/LOCATER V4.66.93.0                                                        11/01/2025  17:49:51  PAGE 39


      000000B5H   SFRSYM    DATA     BYTE      IP2
      000000FFH   SFRSYM    DATA     BYTE      RSTCFG
      000000C7H   SFRSYM    DATA     BYTE      IAP_CONTR
      0000008EH   SFRSYM    DATA     BYTE      AUXR
      000000AFH   SFRSYM    DATA     BYTE      IE2
      00000088H   SFRSYM    DATA     BYTE      TCON
      00000089H   SFRSYM    DATA     BYTE      TMOD
      00000098H   SFRSYM    DATA     BYTE      SCON
      00000087H   SFRSYM    DATA     BYTE      PCON
      000000BCH   SFRSYM    DATA     BYTE      ADC_CONTR
      000000D1H   SFRSYM    DATA     BYTE      PSW1
      000000E7H   SFRSYM    DATA     BYTE      CMPCR2
      000000E6H   SFRSYM    DATA     BYTE      CMPCR1
      000000DEH   SFRSYM    DATA     BYTE      ADCCFG
      000000B8H   SFRSYM    DATA     BYTE      IP
      0000008FH   SFRSYM    DATA     BYTE      INTCLKO
      000000EEH   SFRSYM    DATA     BYTE      IP3H
      000000B6H   SFRSYM    DATA     BYTE      IP2H
      000000BFH   SFRSYM    DATA     BYTE      P_SW4
      000000A8H   SFRSYM    DATA     BYTE      IE
      000000BBH   SFRSYM    DATA     BYTE      P_SW3
      000000BAH   SFRSYM    DATA     BYTE      P_SW2
      000000A2H   SFRSYM    DATA     BYTE      P_SW1
      000000CEH   SFRSYM    DATA     BYTE      SPCTL
      000000F8H   SFRSYM    DATA     BYTE      P7
      000000E1H   SFRSYM    DATA     BYTE      P7M1
      000000E8H   SFRSYM    DATA     BYTE      P6
      000000C8H   SFRSYM    DATA     BYTE      P5
      000000CBH   SFRSYM    DATA     BYTE      P6M1
      000000E2H   SFRSYM    DATA     BYTE      P7M0
      000000C0H   SFRSYM    DATA     BYTE      P4
      000000C9H   SFRSYM    DATA     BYTE      P5M1
      000000CCH   SFRSYM    DATA     BYTE      P6M0
      000000ABH   SFRSYM    DATA     BYTE      WKTCH
      000000B0H   SFRSYM    DATA     BYTE      P3
      000000B3H   SFRSYM    DATA     BYTE      P4M1
      000000CAH   SFRSYM    DATA     BYTE      P5M0
      000000A0H   SFRSYM    DATA     BYTE      P2
      000000B1H   SFRSYM    DATA     BYTE      P3M1
      000000B4H   SFRSYM    DATA     BYTE      P4M0
      00000090H   SFRSYM    DATA     BYTE      P1
      00000095H   SFRSYM    DATA     BYTE      P2M1
      000000B2H   SFRSYM    DATA     BYTE      P3M0
      00000080H   SFRSYM    DATA     BYTE      P0
      00000091H   SFRSYM    DATA     BYTE      P1M1
      00000096H   SFRSYM    DATA     BYTE      P2M0
      00000092H   SFRSYM    DATA     BYTE      P1M0
      00000093H   SFRSYM    DATA     BYTE      P0M1

      00FFA382H   BLOCK     CODE     ---       LVL=0
      DR12        REGSYM    ---      DWORD     clock
      00FFA382H   LINE      CODE     ---       #47
      00FFA386H   LINE      CODE     ---       #49
      00FFA389H   LINE      CODE     ---       #50
      00FFA38CH   LINE      CODE     ---       #51
      00FFA38FH   LINE      CODE     ---       #54
      00FFA39CH   LINE      CODE     ---       #55
      00FFA3AAH   LINE      CODE     ---       #56
      00FFA3B6H   LINE      CODE     ---       #57
      00FFA3C3H   LINE      CODE     ---       #58
      00FFA3CFH   LINE      CODE     ---       #60
      00FFA3D2H   LINE      CODE     ---       #63
      00FFA3DCH   LINE      CODE     ---       #65
      00FFA3DFH   LINE      CODE     ---       #66
      00FFA3E2H   LINE      CODE     ---       #67
L251 LINKER/LOCATER V4.66.93.0                                                        11/01/2025  17:49:51  PAGE 40


      00FFA3E5H   LINE      CODE     ---       #68
      00FFA3E8H   LINE      CODE     ---       #69
      00FFA3EBH   LINE      CODE     ---       #70
      00FFA3EEH   LINE      CODE     ---       #71
      00FFA3F1H   LINE      CODE     ---       #72
      00FFA3F4H   LINE      CODE     ---       #73
      00FFA3F7H   LINE      CODE     ---       #74
      00FFA3FAH   LINE      CODE     ---       #75
      00FFA3FDH   LINE      CODE     ---       #76
      00FFA400H   LINE      CODE     ---       #77
      00FFA403H   LINE      CODE     ---       #78
      00FFA406H   LINE      CODE     ---       #79
      00FFA409H   LINE      CODE     ---       #80
      00FFA40CH   LINE      CODE     ---       #83
      00FFA40FH   LINE      CODE     ---       #84
      00FFA412H   LINE      CODE     ---       #85
      00FFA415H   LINE      CODE     ---       #86
      00FFA418H   LINE      CODE     ---       #87
      00FFA41BH   LINE      CODE     ---       #88
      00FFA41EH   LINE      CODE     ---       #89
      00FFA421H   LINE      CODE     ---       #90
      00FFA424H   LINE      CODE     ---       #91
      00FFA427H   LINE      CODE     ---       #92
      00FFA42AH   LINE      CODE     ---       #93
      00FFA436H   LINE      CODE     ---       #94
      00FFA442H   LINE      CODE     ---       #96
      00FFA44EH   LINE      CODE     ---       #97
      00FFA45AH   LINE      CODE     ---       #100
      00FFA45DH   LINE      CODE     ---       #101
      ---         BLOCKEND  ---      ---       LVL=0

      ---         MODULE    ---      ---       zf_common_debug
      00FFC574H   PUBLIC    CODE     ---       debug_interrupr_handler
      00FFB17BH   PUBLIC    CODE     ---       debug_init
      00FFBBD1H   PUBLIC    CODE     ---       debug_assert_handler
      00FFC901H   PUBLIC    CODE     ---       putchar
      000115F1H   PUBLIC    XDATA    ---       debug_uart_buffer
      00011632H   PUBLIC    XDATA    ---       debug_uart_fifo
      000000D0H   SFRSYM    DATA     BYTE      PSW
      0000009DH   SFRSYM    DATA     BYTE      IRCBAND
      00000097H   SFRSYM    DATA     BYTE      AUXR2
      000000EFH   SFRSYM    DATA     BYTE      AUXINTIF
      000000FDH   SFRSYM    DATA     BYTE      S4CON
      000000ACH   SFRSYM    DATA     BYTE      S3CON
      0000009AH   SFRSYM    DATA     BYTE      S2CON
      000000B7H   SFRSYM    DATA     BYTE      IPH
      000000CDH   SFRSYM    DATA     BYTE      SPSTAT
      000000DDH   SFRSYM    DATA     BYTE      T4T3M
      000000C1H   SFRSYM    DATA     BYTE      WDT_CONTR
      000000DFH   SFRSYM    DATA     BYTE      IP3
      000000F4H   SFRSYM    DATA     BYTE      USBCON
      000000B5H   SFRSYM    DATA     BYTE      IP2
      000000FFH   SFRSYM    DATA     BYTE      RSTCFG
      000000C7H   SFRSYM    DATA     BYTE      IAP_CONTR
      0000008EH   SFRSYM    DATA     BYTE      AUXR
      000000AFH   SFRSYM    DATA     BYTE      IE2
      00000088H   SFRSYM    DATA     BYTE      TCON
      00000089H   SFRSYM    DATA     BYTE      TMOD
      00000098H   SFRSYM    DATA     BYTE      SCON
      00000087H   SFRSYM    DATA     BYTE      PCON
      000000BCH   SFRSYM    DATA     BYTE      ADC_CONTR
      000000D1H   SFRSYM    DATA     BYTE      PSW1
      000000E7H   SFRSYM    DATA     BYTE      CMPCR2
      000000E6H   SFRSYM    DATA     BYTE      CMPCR1
      000000DEH   SFRSYM    DATA     BYTE      ADCCFG
L251 LINKER/LOCATER V4.66.93.0                                                        11/01/2025  17:49:51  PAGE 41


      000000B8H   SFRSYM    DATA     BYTE      IP
      0000008FH   SFRSYM    DATA     BYTE      INTCLKO
      000000EEH   SFRSYM    DATA     BYTE      IP3H
      000000B6H   SFRSYM    DATA     BYTE      IP2H
      000000BFH   SFRSYM    DATA     BYTE      P_SW4
      000000A8H   SFRSYM    DATA     BYTE      IE
      000000BBH   SFRSYM    DATA     BYTE      P_SW3
      000000BAH   SFRSYM    DATA     BYTE      P_SW2
      000000A2H   SFRSYM    DATA     BYTE      P_SW1
      000000CEH   SFRSYM    DATA     BYTE      SPCTL
      000000F8H   SFRSYM    DATA     BYTE      P7
      000000E8H   SFRSYM    DATA     BYTE      P6
      000000C8H   SFRSYM    DATA     BYTE      P5
      000000C0H   SFRSYM    DATA     BYTE      P4
      000000ABH   SFRSYM    DATA     BYTE      WKTCH
      000000B0H   SFRSYM    DATA     BYTE      P3
      000000A0H   SFRSYM    DATA     BYTE      P2
      00000090H   SFRSYM    DATA     BYTE      P1
      00000080H   SFRSYM    DATA     BYTE      P0
      00FFF062H   SYMBOL    HCONST   ---       ?tpl?0001
      00011631H   SYMBOL    XDATA    BYTE      zf_debug_assert_enable
      00011649H   SYMBOL    XDATA    BYTE      zf_debug_init_flag
      DR12        REGSYM    ---      DWORD     len
      REG=2       REGSYM    ---      ---       buff

      00FFC574H   BLOCK     CODE     ---       LVL=0
      0001155CH   SYMBOL    XDATA    BYTE      dat
      00FFC574H   LINE      CODE     ---       #281
      00FFC578H   LINE      CODE     ---       #283
      00FFC57EH   LINE      CODE     ---       #285
      00FFC58BH   LINE      CODE     ---       #286
      00FFC5ACH   LINE      CODE     ---       #287
      ---         BLOCKEND  ---      ---       LVL=0

      00FFC901H   BLOCK     CODE     ---       LVL=0
      R15         REGSYM    ---      CHAR      c
      00FFC901H   LINE      CODE     ---       #303
      00FFC905H   LINE      CODE     ---       #305
      00FFC90CH   LINE      CODE     ---       #307
      00FFC90EH   LINE      CODE     ---       #308
      ---         BLOCKEND  ---      ---       LVL=0

      00FFBBD1H   BLOCK     CODE     ---       LVL=0
      0001159BH   SYMBOL    XDATA    BYTE      pass
      REG=3       REGSYM    ---      ---       file
      0001159CH   SYMBOL    XDATA    INT       line
      00FFBBDFH   BLOCK     CODE     NEAR LAB  LVL=1
      0001159EH   SYMBOL    XDATA    ---       log_str
      ---         BLOCKEND  ---      ---       LVL=1
      00FFBBD1H   LINE      CODE     ---       #346
      00FFBBDFH   LINE      CODE     ---       #347
      00FFBBDFH   LINE      CODE     ---       #348
      00FFBBF4H   LINE      CODE     ---       #350
      00FFBBF6H   LINE      CODE     ---       #366
      00FFBC29H   LINE      CODE     ---       #369
      00FFBC30H   LINE      CODE     ---       #370
      00FFBC36H   LINE      CODE     ---       #371
      ---         BLOCKEND  ---      ---       LVL=0

      00FFB17BH   BLOCK     CODE     ---       LVL=0
      00FFB17DH   BLOCK     CODE     NEAR LAB  LVL=1
      R15         REGSYM    ---      BYTE      uartx
      ---         BLOCKEND  ---      ---       LVL=1
      00FFB17BH   LINE      CODE     ---       #453
      00FFB17DH   LINE      CODE     ---       #454
L251 LINKER/LOCATER V4.66.93.0                                                        11/01/2025  17:49:51  PAGE 42


      00FFB17DH   LINE      CODE     ---       #455
      00FFB17FH   LINE      CODE     ---       #461
      00FFB19AH   LINE      CODE     ---       #468
      00FFB1C7H   LINE      CODE     ---       #469
      00FFB1CEH   LINE      CODE     ---       #472
      00FFB1D2H   LINE      CODE     ---       #474
      00FFB1DCH   LINE      CODE     ---       #475
      00FFB1DEH   LINE      CODE     ---       #476
      00FFB1E3H   LINE      CODE     ---       #478
      00FFB1EDH   LINE      CODE     ---       #479
      00FFB1EFH   LINE      CODE     ---       #480
      00FFB1F4H   LINE      CODE     ---       #482
      00FFB1FEH   LINE      CODE     ---       #483
      00FFB200H   LINE      CODE     ---       #484
      00FFB205H   LINE      CODE     ---       #486
      00FFB20FH   LINE      CODE     ---       #487
      ---         BLOCKEND  ---      ---       LVL=0

      ---         MODULE    ---      ---       zf_common_fifo
      00FF6A43H   PUBLIC    CODE     ---       fifo_write_buffer
      00FFB821H   PUBLIC    CODE     ---       fifo_init
      00011559H   PUBLIC    XDATA    BYTE      ?fifo_write_buffer?BYTE
      00011558H   PUBLIC    XDATA    BYTE      ?fifo_init?BYTE
      000000D0H   SFRSYM    DATA     BYTE      PSW
      0000009DH   SFRSYM    DATA     BYTE      IRCBAND
      00000097H   SFRSYM    DATA     BYTE      AUXR2
      000000EFH   SFRSYM    DATA     BYTE      AUXINTIF
      000000FDH   SFRSYM    DATA     BYTE      S4CON
      000000ACH   SFRSYM    DATA     BYTE      S3CON
      0000009AH   SFRSYM    DATA     BYTE      S2CON
      000000B7H   SFRSYM    DATA     BYTE      IPH
      000000CDH   SFRSYM    DATA     BYTE      SPSTAT
      000000DDH   SFRSYM    DATA     BYTE      T4T3M
      000000C1H   SFRSYM    DATA     BYTE      WDT_CONTR
      000000DFH   SFRSYM    DATA     BYTE      IP3
      000000F4H   SFRSYM    DATA     BYTE      USBCON
      000000B5H   SFRSYM    DATA     BYTE      IP2
      000000FFH   SFRSYM    DATA     BYTE      RSTCFG
      000000C7H   SFRSYM    DATA     BYTE      IAP_CONTR
      0000008EH   SFRSYM    DATA     BYTE      AUXR
      000000AFH   SFRSYM    DATA     BYTE      IE2
      00000088H   SFRSYM    DATA     BYTE      TCON
      00000089H   SFRSYM    DATA     BYTE      TMOD
      00000098H   SFRSYM    DATA     BYTE      SCON
      00000087H   SFRSYM    DATA     BYTE      PCON
      000000BCH   SFRSYM    DATA     BYTE      ADC_CONTR
      000000D1H   SFRSYM    DATA     BYTE      PSW1
      000000E7H   SFRSYM    DATA     BYTE      CMPCR2
      000000E6H   SFRSYM    DATA     BYTE      CMPCR1
      000000DEH   SFRSYM    DATA     BYTE      ADCCFG
      000000B8H   SFRSYM    DATA     BYTE      IP
      0000008FH   SFRSYM    DATA     BYTE      INTCLKO
      000000EEH   SFRSYM    DATA     BYTE      IP3H
      000000B6H   SFRSYM    DATA     BYTE      IP2H
      000000BFH   SFRSYM    DATA     BYTE      P_SW4
      000000A8H   SFRSYM    DATA     BYTE      IE
      000000BBH   SFRSYM    DATA     BYTE      P_SW3
      000000BAH   SFRSYM    DATA     BYTE      P_SW2
      000000A2H   SFRSYM    DATA     BYTE      P_SW1
      000000CEH   SFRSYM    DATA     BYTE      SPCTL
      000000F8H   SFRSYM    DATA     BYTE      P7
      000000E8H   SFRSYM    DATA     BYTE      P6
      000000C8H   SFRSYM    DATA     BYTE      P5
      000000C0H   SFRSYM    DATA     BYTE      P4
      000000ABH   SFRSYM    DATA     BYTE      WKTCH
L251 LINKER/LOCATER V4.66.93.0                                                        11/01/2025  17:49:51  PAGE 43


      000000B0H   SFRSYM    DATA     BYTE      P3
      000000A0H   SFRSYM    DATA     BYTE      P2
      00000090H   SFRSYM    DATA     BYTE      P1
      00000080H   SFRSYM    DATA     BYTE      P0
      00FF01CEH   SYMBOL    CODE     ---       fifo_head_offset

      00FF01CEH   BLOCK     CODE     ---       LVL=0
      REG=7       REGSYM    ---      ---       fifo
      DR24        REGSYM    ---      DWORD     offset
      00FF01CEH   LINE      CODE     ---       #51
      00FF01D2H   LINE      CODE     ---       #53
      00FF01E6H   LINE      CODE     ---       #55
      00FF01E8H   LINE      CODE     ---       #57
      00FF0206H   LINE      CODE     ---       #58
      00FF021AH   LINE      CODE     ---       #59
      ---         BLOCKEND  ---      ---       LVL=0
      REG=7       REGSYM    ---      ---       fifo
      DR24        REGSYM    ---      DWORD     offset
      REG=3       REGSYM    ---      ---       fifo
      REG=3       REGSYM    ---      ---       fifo

      00FF6A43H   BLOCK     CODE     ---       LVL=0
      REG=3       REGSYM    ---      ---       fifo
      0001155DH   SYMBOL    XDATA    ---       dat
      00011561H   SYMBOL    XDATA    DWORD     length
      00FF6A51H   BLOCK     CODE     NEAR LAB  LVL=1
      00011565H   SYMBOL    XDATA    INT       return_state
      00011567H   SYMBOL    XDATA    DWORD     temp_length
      ---         BLOCKEND  ---      ---       LVL=1
      00FF6A43H   LINE      CODE     ---       #178
      00FF6A51H   LINE      CODE     ---       #179
      00FF6A51H   LINE      CODE     ---       #180
      00FF6A59H   LINE      CODE     ---       #181
      00FF6A65H   LINE      CODE     ---       #182
      00FF6A7FH   LINE      CODE     ---       #184
      00FF6A7FH   LINE      CODE     ---       #186
      00FF6A8DH   LINE      CODE     ---       #188
      00FF6A97H   LINE      CODE     ---       #189
      00FF6A9AH   LINE      CODE     ---       #190
      00FF6A9AH   LINE      CODE     ---       #191
      00FF6AA5H   LINE      CODE     ---       #193
      00FF6AAFH   LINE      CODE     ---       #194
      00FF6AB2H   LINE      CODE     ---       #195
      00FF6AB2H   LINE      CODE     ---       #196
      00FF6ABAH   LINE      CODE     ---       #198
      00FF6AD3H   LINE      CODE     ---       #200
      00FF6AEFH   LINE      CODE     ---       #202
      00FF6B0AH   LINE      CODE     ---       #204
      00FF6B23H   LINE      CODE     ---       #206
      00FF6B23H   LINE      CODE     ---       #208
      00FF6B50H   LINE      CODE     ---       #211
      00FF6B5FH   LINE      CODE     ---       #212
      00FF6BAAH   LINE      CODE     ---       #216
      00FF6BC5H   LINE      CODE     ---       #217
      00FF6BC8H   LINE      CODE     ---       #218
      00FF6BC8H   LINE      CODE     ---       #220
      00FF6BF9H   LINE      CODE     ---       #223
      00FF6C08H   LINE      CODE     ---       #224
      00FF6C55H   LINE      CODE     ---       #228
      00FF6C70H   LINE      CODE     ---       #229
      00FF6C73H   LINE      CODE     ---       #230
      00FF6C73H   LINE      CODE     ---       #232
      00FF6CA8H   LINE      CODE     ---       #235
      00FF6CB7H   LINE      CODE     ---       #236
      00FF6D0AH   LINE      CODE     ---       #240
L251 LINKER/LOCATER V4.66.93.0                                                        11/01/2025  17:49:51  PAGE 44


      00FF6D25H   LINE      CODE     ---       #241
      00FF6D25H   LINE      CODE     ---       #242
      00FF6D25H   LINE      CODE     ---       #243
      00FF6D28H   LINE      CODE     ---       #246
      00FF6D3EH   LINE      CODE     ---       #248
      00FF6D3EH   LINE      CODE     ---       #250
      00FF6D6BH   LINE      CODE     ---       #253
      00FF6D7AH   LINE      CODE     ---       #254
      00FF6D7DH   LINE      CODE     ---       #255
      00FF6D7DH   LINE      CODE     ---       #257
      00FF6DAEH   LINE      CODE     ---       #260
      00FF6DBDH   LINE      CODE     ---       #261
      00FF6DBFH   LINE      CODE     ---       #262
      00FF6DBFH   LINE      CODE     ---       #264
      00FF6DF4H   LINE      CODE     ---       #267
      00FF6E03H   LINE      CODE     ---       #268
      00FF6E03H   LINE      CODE     ---       #269
      00FF6E03H   LINE      CODE     ---       #270
      00FF6E03H   LINE      CODE     ---       #272
      00FF6E23H   LINE      CODE     ---       #273
      00FF6E25H   LINE      CODE     ---       #276
      00FF6E2FH   LINE      CODE     ---       #277
      00FF6E2FH   LINE      CODE     ---       #278
      00FF6E37H   LINE      CODE     ---       #279
      00FF6E37H   LINE      CODE     ---       #281
      00FF6E3DH   LINE      CODE     ---       #282
      ---         BLOCKEND  ---      ---       LVL=0
      REG=3       REGSYM    ---      ---       fifo

      00FFB821H   BLOCK     CODE     ---       LVL=0
      REG=3       REGSYM    ---      ---       fifo
      0001155CH   SYMBOL    XDATA    INT       type
      0001155EH   SYMBOL    XDATA    ---       buffer_addr
      00011562H   SYMBOL    XDATA    DWORD     siz
      00FFB821H   LINE      CODE     ---       #549
      00FFB82BH   LINE      CODE     ---       #551
      00FFB845H   LINE      CODE     ---       #552
      00FFB845H   LINE      CODE     ---       #554
      00FFB857H   LINE      CODE     ---       #555
      00FFB85BH   LINE      CODE     ---       #556
      00FFB865H   LINE      CODE     ---       #557
      00FFB86FH   LINE      CODE     ---       #558
      00FFB879H   LINE      CODE     ---       #559
      00FFB88BH   LINE      CODE     ---       #560
      00FFB89DH   LINE      CODE     ---       #561
      00FFB89DH   LINE      CODE     ---       #562
      00FFB89FH   LINE      CODE     ---       #563
      ---         BLOCKEND  ---      ---       LVL=0

      ---         MODULE    ---      ---       zf_common_font
      00FF5515H   PUBLIC    CODE     ---       ascii_font_8x16
      000000D0H   SFRSYM    DATA     BYTE      PSW
      0000009DH   SFRSYM    DATA     BYTE      IRCBAND
      00000097H   SFRSYM    DATA     BYTE      AUXR2
      000000EFH   SFRSYM    DATA     BYTE      AUXINTIF
      000000FDH   SFRSYM    DATA     BYTE      S4CON
      000000ACH   SFRSYM    DATA     BYTE      S3CON
      0000009AH   SFRSYM    DATA     BYTE      S2CON
      000000B7H   SFRSYM    DATA     BYTE      IPH
      000000CDH   SFRSYM    DATA     BYTE      SPSTAT
      000000DDH   SFRSYM    DATA     BYTE      T4T3M
      000000C1H   SFRSYM    DATA     BYTE      WDT_CONTR
      000000DFH   SFRSYM    DATA     BYTE      IP3
      000000F4H   SFRSYM    DATA     BYTE      USBCON
      000000B5H   SFRSYM    DATA     BYTE      IP2
L251 LINKER/LOCATER V4.66.93.0                                                        11/01/2025  17:49:51  PAGE 45


      000000FFH   SFRSYM    DATA     BYTE      RSTCFG
      000000C7H   SFRSYM    DATA     BYTE      IAP_CONTR
      0000008EH   SFRSYM    DATA     BYTE      AUXR
      000000AFH   SFRSYM    DATA     BYTE      IE2
      00000088H   SFRSYM    DATA     BYTE      TCON
      00000089H   SFRSYM    DATA     BYTE      TMOD
      00000098H   SFRSYM    DATA     BYTE      SCON
      00000087H   SFRSYM    DATA     BYTE      PCON
      000000BCH   SFRSYM    DATA     BYTE      ADC_CONTR
      000000D1H   SFRSYM    DATA     BYTE      PSW1
      000000E7H   SFRSYM    DATA     BYTE      CMPCR2
      000000E6H   SFRSYM    DATA     BYTE      CMPCR1
      000000DEH   SFRSYM    DATA     BYTE      ADCCFG
      000000B8H   SFRSYM    DATA     BYTE      IP
      0000008FH   SFRSYM    DATA     BYTE      INTCLKO
      000000EEH   SFRSYM    DATA     BYTE      IP3H
      000000B6H   SFRSYM    DATA     BYTE      IP2H
      000000BFH   SFRSYM    DATA     BYTE      P_SW4
      000000A8H   SFRSYM    DATA     BYTE      IE
      000000BBH   SFRSYM    DATA     BYTE      P_SW3
      000000BAH   SFRSYM    DATA     BYTE      P_SW2
      000000A2H   SFRSYM    DATA     BYTE      P_SW1
      000000CEH   SFRSYM    DATA     BYTE      SPCTL
      000000F8H   SFRSYM    DATA     BYTE      P7
      000000E8H   SFRSYM    DATA     BYTE      P6
      000000C8H   SFRSYM    DATA     BYTE      P5
      000000C0H   SFRSYM    DATA     BYTE      P4
      000000ABH   SFRSYM    DATA     BYTE      WKTCH
      000000B0H   SFRSYM    DATA     BYTE      P3
      000000A0H   SFRSYM    DATA     BYTE      P2
      00000090H   SFRSYM    DATA     BYTE      P1
      00000080H   SFRSYM    DATA     BYTE      P0

      ---         MODULE    ---      ---       zf_common_function
      00FF4618H   PUBLIC    CODE     ---       zf_sprintf
      000115B5H   PUBLIC    XDATA    BYTE      ?zf_sprintf?BYTE
      000000D0H   SFRSYM    DATA     BYTE      PSW
      0000009DH   SFRSYM    DATA     BYTE      IRCBAND
      00000097H   SFRSYM    DATA     BYTE      AUXR2
      000000EFH   SFRSYM    DATA     BYTE      AUXINTIF
      000000FDH   SFRSYM    DATA     BYTE      S4CON
      000000ACH   SFRSYM    DATA     BYTE      S3CON
      0000009AH   SFRSYM    DATA     BYTE      S2CON
      000000B7H   SFRSYM    DATA     BYTE      IPH
      000000CDH   SFRSYM    DATA     BYTE      SPSTAT
      000000DDH   SFRSYM    DATA     BYTE      T4T3M
      000000C1H   SFRSYM    DATA     BYTE      WDT_CONTR
      000000DFH   SFRSYM    DATA     BYTE      IP3
      000000F4H   SFRSYM    DATA     BYTE      USBCON
      000000B5H   SFRSYM    DATA     BYTE      IP2
      000000FFH   SFRSYM    DATA     BYTE      RSTCFG
      000000C7H   SFRSYM    DATA     BYTE      IAP_CONTR
      0000008EH   SFRSYM    DATA     BYTE      AUXR
      000000AFH   SFRSYM    DATA     BYTE      IE2
      00000088H   SFRSYM    DATA     BYTE      TCON
      00000089H   SFRSYM    DATA     BYTE      TMOD
      00000098H   SFRSYM    DATA     BYTE      SCON
      00000087H   SFRSYM    DATA     BYTE      PCON
      000000BCH   SFRSYM    DATA     BYTE      ADC_CONTR
      000000D1H   SFRSYM    DATA     BYTE      PSW1
      000000E7H   SFRSYM    DATA     BYTE      CMPCR2
      000000E6H   SFRSYM    DATA     BYTE      CMPCR1
      000000DEH   SFRSYM    DATA     BYTE      ADCCFG
      000000B8H   SFRSYM    DATA     BYTE      IP
      0000008FH   SFRSYM    DATA     BYTE      INTCLKO
L251 LINKER/LOCATER V4.66.93.0                                                        11/01/2025  17:49:51  PAGE 46


      000000EEH   SFRSYM    DATA     BYTE      IP3H
      000000B6H   SFRSYM    DATA     BYTE      IP2H
      000000BFH   SFRSYM    DATA     BYTE      P_SW4
      000000A8H   SFRSYM    DATA     BYTE      IE
      000000BBH   SFRSYM    DATA     BYTE      P_SW3
      000000BAH   SFRSYM    DATA     BYTE      P_SW2
      000000A2H   SFRSYM    DATA     BYTE      P_SW1
      000000CEH   SFRSYM    DATA     BYTE      SPCTL
      000000F8H   SFRSYM    DATA     BYTE      P7
      000000E8H   SFRSYM    DATA     BYTE      P6
      000000C8H   SFRSYM    DATA     BYTE      P5
      000000C0H   SFRSYM    DATA     BYTE      P4
      000000ABH   SFRSYM    DATA     BYTE      WKTCH
      000000B0H   SFRSYM    DATA     BYTE      P3
      000000A0H   SFRSYM    DATA     BYTE      P2
      00000090H   SFRSYM    DATA     BYTE      P1
      00000080H   SFRSYM    DATA     BYTE      P0
      00FFED86H   SYMBOL    HCONST   ---       ?tpl?0001
      00FFB2A7H   SYMBOL    CODE     ---       number_conversion_ascii
      00FFC1ACH   SYMBOL    CODE     ---       printf_reverse_order
      DR8         REGSYM    ---      DWORD     num1
      DR28        REGSYM    ---      DWORD     num2
      REG=3       REGSYM    ---      ---       str
      REG=3       REGSYM    ---      ---       str
      REG=3       REGSYM    ---      ---       str
      REG=3       REGSYM    ---      ---       str
      REG=3       REGSYM    ---      ---       str
      REG=3       REGSYM    ---      ---       str
      REG=3       REGSYM    ---      ---       str
      REG=3       REGSYM    ---      ---       str
      REG=3       REGSYM    ---      ---       str
      REG=3       REGSYM    ---      ---       str

      00FFB2A7H   BLOCK     CODE     ---       LVL=0
      DR24        REGSYM    ---      DWORD     dat
      REG=7       REGSYM    ---      ---       p
      R10         REGSYM    ---      BYTE      neg_type
      000115F0H   SYMBOL    XDATA    BYTE      radix
      00FFB2AFH   BLOCK     CODE     NEAR LAB  LVL=1
      DR20        REGSYM    ---      LONG      neg_dat
      DR24        REGSYM    ---      DWORD     pos_dat
      R14         REGSYM    ---      BYTE      temp_data
      R15         REGSYM    ---      BYTE      valid_num
      ---         BLOCKEND  ---      ---       LVL=1
      00FFB2A7H   LINE      CODE     ---       #647
      00FFB2AFH   LINE      CODE     ---       #648
      00FFB2AFH   LINE      CODE     ---       #651
      00FFB2B1H   LINE      CODE     ---       #652
      00FFB2B3H   LINE      CODE     ---       #654
      00FFB2B7H   LINE      CODE     ---       #656
      00FFB2B9H   LINE      CODE     ---       #657
      00FFB2BFH   LINE      CODE     ---       #659
      00FFB2C9H   LINE      CODE     ---       #660
      00FFB2C9H   LINE      CODE     ---       #661
      00FFB2C9H   LINE      CODE     ---       #663
      00FFB2DFH   LINE      CODE     ---       #664
      00FFB2EEH   LINE      CODE     ---       #665
      00FFB2F0H   LINE      CODE     ---       #667
      00FFB2F6H   LINE      CODE     ---       #669
      00FFB2F6H   LINE      CODE     ---       #670
      00FFB2F6H   LINE      CODE     ---       #671
      00FFB2F8H   LINE      CODE     ---       #672
      00FFB2FAH   LINE      CODE     ---       #673
      00FFB2FCH   LINE      CODE     ---       #676
      00FFB2FCH   LINE      CODE     ---       #677
L251 LINKER/LOCATER V4.66.93.0                                                        11/01/2025  17:49:51  PAGE 47


      00FFB2FCH   LINE      CODE     ---       #679
      00FFB30BH   LINE      CODE     ---       #680
      00FFB310H   LINE      CODE     ---       #682
      00FFB313H   LINE      CODE     ---       #683
      00FFB315H   LINE      CODE     ---       #686
      00FFB318H   LINE      CODE     ---       #687
      00FFB318H   LINE      CODE     ---       #689
      00FFB31BH   LINE      CODE     ---       #691
      00FFB32AH   LINE      CODE     ---       #692
      00FFB32CH   LINE      CODE     ---       #694
      00FFB332H   LINE      CODE     ---       #696
      00FFB332H   LINE      CODE     ---       #697
      00FFB332H   LINE      CODE     ---       #698
      00FFB334H   LINE      CODE     ---       #699
      00FFB336H   LINE      CODE     ---       #700
      00FFB336H   LINE      CODE     ---       #701
      00FFB338H   LINE      CODE     ---       #702
      ---         BLOCKEND  ---      ---       LVL=0

      00FFC1ACH   BLOCK     CODE     ---       LVL=0
      REG=7       REGSYM    ---      ---       d_buff
      DR24        REGSYM    ---      DWORD     len
      00FFC1B0H   BLOCK     CODE     NEAR LAB  LVL=1
      DR4         REGSYM    ---      DWORD     i
      R3          REGSYM    ---      CHAR      temp_data
      ---         BLOCKEND  ---      ---       LVL=1
      00FFC1ACH   LINE      CODE     ---       #712
      00FFC1B0H   LINE      CODE     ---       #713
      00FFC1B0H   LINE      CODE     ---       #716
      00FFC1B4H   LINE      CODE     ---       #718
      00FFC1C1H   LINE      CODE     ---       #719
      00FFC1D9H   LINE      CODE     ---       #720
      00FFC1E2H   LINE      CODE     ---       #721
      00FFC1F3H   LINE      CODE     ---       #722
      ---         BLOCKEND  ---      ---       LVL=0

      00FF4618H   BLOCK     CODE     ---       LVL=0
      REG=3       REGSYM    ---      ---       buff
      000115B9H   SYMBOL    XDATA    ---       format
      00FF4626H   BLOCK     CODE     NEAR LAB  LVL=1
      000115BDH   SYMBOL    XDATA    DWORD     buff_len
      000115C1H   SYMBOL    XDATA    ---       arg
      00FF4647H   BLOCK     CODE     NEAR LAB  LVL=2
      000115C5H   SYMBOL    XDATA    CHAR      ret
      00FF4788H   BLOCK     CODE     NEAR LAB  LVL=3
      000115C6H   SYMBOL    XDATA    CHAR      ch
      ---         BLOCKEND  ---      ---       LVL=3
      00FF47CFH   BLOCK     CODE     NEAR LAB  LVL=3
      000115C6H   SYMBOL    XDATA    ---       vstr
      000115E7H   SYMBOL    XDATA    LONG      ival
      000115EBH   SYMBOL    XDATA    BYTE      vlen
      ---         BLOCKEND  ---      ---       LVL=3
      00FF489AH   BLOCK     CODE     NEAR LAB  LVL=3
      000115C6H   SYMBOL    XDATA    ---       vstr
      000115E7H   SYMBOL    XDATA    DOUBLE    ival
      000115EFH   SYMBOL    XDATA    BYTE      vlen
      ---         BLOCKEND  ---      ---       LVL=3
      00FF4AE5H   BLOCK     CODE     NEAR LAB  LVL=3
      000115C6H   SYMBOL    XDATA    ---       vstr
      000115E7H   SYMBOL    XDATA    DWORD     ival
      000115EBH   SYMBOL    XDATA    BYTE      vlen
      ---         BLOCKEND  ---      ---       LVL=3
      00FF4B83H   BLOCK     CODE     NEAR LAB  LVL=3
      000115C6H   SYMBOL    XDATA    ---       vstr
      000115E7H   SYMBOL    XDATA    DWORD     ival
L251 LINKER/LOCATER V4.66.93.0                                                        11/01/2025  17:49:51  PAGE 48


      000115EBH   SYMBOL    XDATA    BYTE      vlen
      ---         BLOCKEND  ---      ---       LVL=3
      00FF4C21H   BLOCK     CODE     NEAR LAB  LVL=3
      000115C6H   SYMBOL    XDATA    ---       vstr
      000115E7H   SYMBOL    XDATA    DWORD     ival
      000115EBH   SYMBOL    XDATA    BYTE      vlen
      ---         BLOCKEND  ---      ---       LVL=3
      00FF4CBFH   BLOCK     CODE     NEAR LAB  LVL=3
      000115C6H   SYMBOL    XDATA    ---       pc
      ---         BLOCKEND  ---      ---       LVL=3
      00FF4D39H   BLOCK     CODE     NEAR LAB  LVL=3
      000115C6H   SYMBOL    XDATA    ---       vstr
      000115E7H   SYMBOL    XDATA    DWORD     ival
      ---         BLOCKEND  ---      ---       LVL=3
      ---         BLOCKEND  ---      ---       LVL=2
      ---         BLOCKEND  ---      ---       LVL=1
      00FF4618H   LINE      CODE     ---       #733
      00FF4626H   LINE      CODE     ---       #734
      00FF4626H   LINE      CODE     ---       #735
      00FF4632H   LINE      CODE     ---       #737
      00FF4644H   LINE      CODE     ---       #739
      00FF4647H   LINE      CODE     ---       #740
      00FF4647H   LINE      CODE     ---       #741
      00FF4658H   LINE      CODE     ---       #742
      00FF4664H   LINE      CODE     ---       #744
      00FF4788H   LINE      CODE     ---       #746
      00FF4788H   LINE      CODE     ---       #749
      00FF4788H   LINE      CODE     ---       #751
      00FF4788H   LINE      CODE     ---       #752
      00FF4788H   LINE      CODE     ---       #753
      00FF47B0H   LINE      CODE     ---       #754
      00FF47B7H   LINE      CODE     ---       #755
      00FF47B9H   LINE      CODE     ---       #756
      00FF47CCH   LINE      CODE     ---       #758
      00FF47CFH   LINE      CODE     ---       #760
      00FF47CFH   LINE      CODE     ---       #761
      00FF47CFH   LINE      CODE     ---       #762
      00FF47CFH   LINE      CODE     ---       #764
      00FF47FDH   LINE      CODE     ---       #765
      00FF481EH   LINE      CODE     ---       #767
      00FF482EH   LINE      CODE     ---       #769
      00FF4844H   LINE      CODE     ---       #770
      00FF484AH   LINE      CODE     ---       #771
      00FF484AH   LINE      CODE     ---       #772
      00FF485DH   LINE      CODE     ---       #773
      00FF4874H   LINE      CODE     ---       #774
      00FF487CH   LINE      CODE     ---       #775
      00FF4897H   LINE      CODE     ---       #777
      00FF489AH   LINE      CODE     ---       #779
      00FF489AH   LINE      CODE     ---       #780
      00FF489AH   LINE      CODE     ---       #781
      00FF489AH   LINE      CODE     ---       #783
      00FF48DAH   LINE      CODE     ---       #784
      00FF4906H   LINE      CODE     ---       #786
      00FF4921H   LINE      CODE     ---       #788
      00FF4937H   LINE      CODE     ---       #789
      00FF493DH   LINE      CODE     ---       #790
      00FF493DH   LINE      CODE     ---       #791
      00FF4950H   LINE      CODE     ---       #792
      00FF4967H   LINE      CODE     ---       #793
      00FF496FH   LINE      CODE     ---       #794
      00FF498AH   LINE      CODE     ---       #796
      00FF49DCH   LINE      CODE     ---       #797
      00FF49FAH   LINE      CODE     ---       #799
      00FF4A26H   LINE      CODE     ---       #800
L251 LINKER/LOCATER V4.66.93.0                                                        11/01/2025  17:49:51  PAGE 49


      00FF4A28H   LINE      CODE     ---       #803
      00FF4A4CH   LINE      CODE     ---       #804
      00FF4A52H   LINE      CODE     ---       #805
      00FF4A52H   LINE      CODE     ---       #807
      00FF4A54H   LINE      CODE     ---       #809
      00FF4A6AH   LINE      CODE     ---       #810
      00FF4A70H   LINE      CODE     ---       #811
      00FF4A79H   LINE      CODE     ---       #813
      00FF4A8FH   LINE      CODE     ---       #814
      00FF4A95H   LINE      CODE     ---       #816
      00FF4AA8H   LINE      CODE     ---       #817
      00FF4ABFH   LINE      CODE     ---       #818
      00FF4AC7H   LINE      CODE     ---       #819
      00FF4AE2H   LINE      CODE     ---       #821
      00FF4AE5H   LINE      CODE     ---       #823
      00FF4AE5H   LINE      CODE     ---       #824
      00FF4AE5H   LINE      CODE     ---       #826
      00FF4B13H   LINE      CODE     ---       #827
      00FF4B33H   LINE      CODE     ---       #829
      00FF4B46H   LINE      CODE     ---       #830
      00FF4B5DH   LINE      CODE     ---       #831
      00FF4B65H   LINE      CODE     ---       #832
      00FF4B80H   LINE      CODE     ---       #834
      00FF4B83H   LINE      CODE     ---       #836
      00FF4B83H   LINE      CODE     ---       #837
      00FF4B83H   LINE      CODE     ---       #839
      00FF4BB1H   LINE      CODE     ---       #840
      00FF4BD1H   LINE      CODE     ---       #842
      00FF4BE4H   LINE      CODE     ---       #843
      00FF4BFBH   LINE      CODE     ---       #844
      00FF4C03H   LINE      CODE     ---       #845
      00FF4C1EH   LINE      CODE     ---       #848
      00FF4C21H   LINE      CODE     ---       #850
      00FF4C21H   LINE      CODE     ---       #851
      00FF4C21H   LINE      CODE     ---       #852
      00FF4C21H   LINE      CODE     ---       #854
      00FF4C4FH   LINE      CODE     ---       #855
      00FF4C6FH   LINE      CODE     ---       #857
      00FF4C82H   LINE      CODE     ---       #858
      00FF4C99H   LINE      CODE     ---       #859
      00FF4CA1H   LINE      CODE     ---       #860
      00FF4CBCH   LINE      CODE     ---       #862
      00FF4CBFH   LINE      CODE     ---       #864
      00FF4CBFH   LINE      CODE     ---       #865
      00FF4CBFH   LINE      CODE     ---       #866
      00FF4CEDH   LINE      CODE     ---       #867
      00FF4CEFH   LINE      CODE     ---       #869
      00FF4CFFH   LINE      CODE     ---       #870
      00FF4D01H   LINE      CODE     ---       #871
      00FF4D14H   LINE      CODE     ---       #872
      00FF4D27H   LINE      CODE     ---       #873
      00FF4D36H   LINE      CODE     ---       #875
      00FF4D39H   LINE      CODE     ---       #877
      00FF4D39H   LINE      CODE     ---       #878
      00FF4D39H   LINE      CODE     ---       #880
      00FF4D67H   LINE      CODE     ---       #882
      00FF4D83H   LINE      CODE     ---       #883
      00FF4D92H   LINE      CODE     ---       #884
      00FF4DA7H   LINE      CODE     ---       #885
      00FF4DABH   LINE      CODE     ---       #886
      00FF4DC0H   LINE      CODE     ---       #888
      00FF4DC2H   LINE      CODE     ---       #890
      00FF4DC2H   LINE      CODE     ---       #892
      00FF4DC7H   LINE      CODE     ---       #893
      00FF4DC9H   LINE      CODE     ---       #894
L251 LINKER/LOCATER V4.66.93.0                                                        11/01/2025  17:49:51  PAGE 50


      00FF4DDCH   LINE      CODE     ---       #896
      00FF4DDEH   LINE      CODE     ---       #898
      00FF4DDEH   LINE      CODE     ---       #899
      00FF4DDEH   LINE      CODE     ---       #900
      00FF4DDEH   LINE      CODE     ---       #901
      00FF4DDEH   LINE      CODE     ---       #904
      00FF4DEEH   LINE      CODE     ---       #905
      00FF4DF0H   LINE      CODE     ---       #906
      00FF4E03H   LINE      CODE     ---       #907
      00FF4E03H   LINE      CODE     ---       #908
      00FF4E16H   LINE      CODE     ---       #909
      00FF4E28H   LINE      CODE     ---       #912
      00FF4E32H   LINE      CODE     ---       #913
      ---         BLOCKEND  ---      ---       LVL=0

      ---         MODULE    ---      ---       zf_common_typedef
      00011736H   PUBLIC    XDATA    ---       tim11_irq_handler
      00011738H   PUBLIC    XDATA    ---       uart1_irq_handler
      0001173AH   PUBLIC    XDATA    ---       uart2_irq_handler
      0001173CH   PUBLIC    XDATA    ---       uart3_irq_handler
      0001173EH   PUBLIC    XDATA    ---       uart4_irq_handler
      00011740H   PUBLIC    XDATA    ---       tim0_irq_handler
      00011742H   PUBLIC    XDATA    ---       int0_irq_handler
      00011744H   PUBLIC    XDATA    ---       tim1_irq_handler
      00011746H   PUBLIC    XDATA    ---       int1_irq_handler
      00011748H   PUBLIC    XDATA    ---       tim2_irq_handler
      0001174AH   PUBLIC    XDATA    ---       int2_irq_handler
      0001174CH   PUBLIC    XDATA    ---       tim3_irq_handler
      0001174EH   PUBLIC    XDATA    ---       int3_irq_handler
      00011750H   PUBLIC    XDATA    ---       tim4_irq_handler
      00011752H   PUBLIC    XDATA    ---       int4_irq_handler
      000000D0H   SFRSYM    DATA     BYTE      PSW
      0000009DH   SFRSYM    DATA     BYTE      IRCBAND
      00000097H   SFRSYM    DATA     BYTE      AUXR2
      000000EFH   SFRSYM    DATA     BYTE      AUXINTIF
      000000FDH   SFRSYM    DATA     BYTE      S4CON
      000000ACH   SFRSYM    DATA     BYTE      S3CON
      0000009AH   SFRSYM    DATA     BYTE      S2CON
      000000B7H   SFRSYM    DATA     BYTE      IPH
      000000CDH   SFRSYM    DATA     BYTE      SPSTAT
      000000DDH   SFRSYM    DATA     BYTE      T4T3M
      000000C1H   SFRSYM    DATA     BYTE      WDT_CONTR
      000000DFH   SFRSYM    DATA     BYTE      IP3
      000000F4H   SFRSYM    DATA     BYTE      USBCON
      000000B5H   SFRSYM    DATA     BYTE      IP2
      000000FFH   SFRSYM    DATA     BYTE      RSTCFG
      000000C7H   SFRSYM    DATA     BYTE      IAP_CONTR
      0000008EH   SFRSYM    DATA     BYTE      AUXR
      000000AFH   SFRSYM    DATA     BYTE      IE2
      00000088H   SFRSYM    DATA     BYTE      TCON
      00000089H   SFRSYM    DATA     BYTE      TMOD
      00000098H   SFRSYM    DATA     BYTE      SCON
      00000087H   SFRSYM    DATA     BYTE      PCON
      000000BCH   SFRSYM    DATA     BYTE      ADC_CONTR
      000000D1H   SFRSYM    DATA     BYTE      PSW1
      000000E7H   SFRSYM    DATA     BYTE      CMPCR2
      000000E6H   SFRSYM    DATA     BYTE      CMPCR1
      000000DEH   SFRSYM    DATA     BYTE      ADCCFG
      000000B8H   SFRSYM    DATA     BYTE      IP
      0000008FH   SFRSYM    DATA     BYTE      INTCLKO
      000000EEH   SFRSYM    DATA     BYTE      IP3H
      000000B6H   SFRSYM    DATA     BYTE      IP2H
      000000BFH   SFRSYM    DATA     BYTE      P_SW4
      000000A8H   SFRSYM    DATA     BYTE      IE
      000000BBH   SFRSYM    DATA     BYTE      P_SW3
L251 LINKER/LOCATER V4.66.93.0                                                        11/01/2025  17:49:51  PAGE 51


      000000BAH   SFRSYM    DATA     BYTE      P_SW2
      000000A2H   SFRSYM    DATA     BYTE      P_SW1
      000000CEH   SFRSYM    DATA     BYTE      SPCTL
      000000F8H   SFRSYM    DATA     BYTE      P7
      000000E8H   SFRSYM    DATA     BYTE      P6
      000000C8H   SFRSYM    DATA     BYTE      P5
      000000C0H   SFRSYM    DATA     BYTE      P4
      000000ABH   SFRSYM    DATA     BYTE      WKTCH
      000000B0H   SFRSYM    DATA     BYTE      P3
      000000A0H   SFRSYM    DATA     BYTE      P2
      00000090H   SFRSYM    DATA     BYTE      P1
      00000080H   SFRSYM    DATA     BYTE      P0

      ---         MODULE    ---      ---       zf_common_interrupt
      00FFAAC8H   PUBLIC    CODE     ---       interrupt_set_priority
      00FF001EH   PUBLIC    CODE     ---       interrupt_global_enable
      000000D0H   SFRSYM    DATA     BYTE      PSW
      0000009DH   SFRSYM    DATA     BYTE      IRCBAND
      00000097H   SFRSYM    DATA     BYTE      AUXR2
      000000EFH   SFRSYM    DATA     BYTE      AUXINTIF
      000000FDH   SFRSYM    DATA     BYTE      S4CON
      000000ACH   SFRSYM    DATA     BYTE      S3CON
      0000009AH   SFRSYM    DATA     BYTE      S2CON
      000000B7H   SFRSYM    DATA     BYTE      IPH
      000000CDH   SFRSYM    DATA     BYTE      SPSTAT
      000000DDH   SFRSYM    DATA     BYTE      T4T3M
      000000C1H   SFRSYM    DATA     BYTE      WDT_CONTR
      000000DFH   SFRSYM    DATA     BYTE      IP3
      000000F4H   SFRSYM    DATA     BYTE      USBCON
      000000B5H   SFRSYM    DATA     BYTE      IP2
      000000FFH   SFRSYM    DATA     BYTE      RSTCFG
      000000C7H   SFRSYM    DATA     BYTE      IAP_CONTR
      0000008EH   SFRSYM    DATA     BYTE      AUXR
      000000AFH   SFRSYM    DATA     BYTE      IE2
      00000088H   SFRSYM    DATA     BYTE      TCON
      00000089H   SFRSYM    DATA     BYTE      TMOD
      00000098H   SFRSYM    DATA     BYTE      SCON
      00000087H   SFRSYM    DATA     BYTE      PCON
      000000BCH   SFRSYM    DATA     BYTE      ADC_CONTR
      000000D1H   SFRSYM    DATA     BYTE      PSW1
      000000E7H   SFRSYM    DATA     BYTE      CMPCR2
      000000E6H   SFRSYM    DATA     BYTE      CMPCR1
      000000DEH   SFRSYM    DATA     BYTE      ADCCFG
      000000B8H   SFRSYM    DATA     BYTE      IP
      0000008FH   SFRSYM    DATA     BYTE      INTCLKO
      000000EEH   SFRSYM    DATA     BYTE      IP3H
      000000B6H   SFRSYM    DATA     BYTE      IP2H
      000000BFH   SFRSYM    DATA     BYTE      P_SW4
      000000A8H   SFRSYM    DATA     BYTE      IE
      000000BBH   SFRSYM    DATA     BYTE      P_SW3
      000000BAH   SFRSYM    DATA     BYTE      P_SW2
      000000A2H   SFRSYM    DATA     BYTE      P_SW1
      000000CEH   SFRSYM    DATA     BYTE      SPCTL
      000000F8H   SFRSYM    DATA     BYTE      P7
      000000A8H.7 SFRSYM    DATA     BIT       EA
      000000E8H   SFRSYM    DATA     BYTE      P6
      000000C8H   SFRSYM    DATA     BYTE      P5
      000000C0H   SFRSYM    DATA     BYTE      P4
      000000ABH   SFRSYM    DATA     BYTE      WKTCH
      000000B0H   SFRSYM    DATA     BYTE      P3
      000000A0H   SFRSYM    DATA     BYTE      P2
      00000090H   SFRSYM    DATA     BYTE      P1
      00000080H   SFRSYM    DATA     BYTE      P0

      00FFAAC8H   BLOCK     CODE     ---       LVL=0
L251 LINKER/LOCATER V4.66.93.0                                                        11/01/2025  17:49:51  PAGE 52


      WR4         REGSYM    ---      INT       irqn
      R3          REGSYM    ---      BYTE      priority
      00FFAAC8H   LINE      CODE     ---       #48
      00FFAACCH   LINE      CODE     ---       #50
      00FFAAD6H   LINE      CODE     ---       #52
      00FFAAEAH   LINE      CODE     ---       #53
      00FFAB03H   LINE      CODE     ---       #54
      00FFAB05H   LINE      CODE     ---       #55
      00FFAB15H   LINE      CODE     ---       #57
      00FFAB29H   LINE      CODE     ---       #58
      00FFAB42H   LINE      CODE     ---       #59
      00FFAB44H   LINE      CODE     ---       #60
      00FFAB54H   LINE      CODE     ---       #62
      00FFAB68H   LINE      CODE     ---       #63
      00FFAB81H   LINE      CODE     ---       #64
      ---         BLOCKEND  ---      ---       LVL=0

      00FF001EH   BLOCK     CODE     ---       LVL=0
      00FF001EH   LINE      CODE     ---       #88
      00FF001EH   LINE      CODE     ---       #90
      00FF0020H   LINE      CODE     ---       #91
      ---         BLOCKEND  ---      ---       LVL=0

      ---         MODULE    ---      ---       ?C_START
      00FF0000H   PUBLIC    CODE     ---       ?C?STARTUP
      00FF0000H   PUBLIC    CODE     ---       ?C_STARTUP
      000000D0H.6 SFRSYM    DATA     BIT       AC
      000000E0H   SFRSYM    DATA     BYTE      ACC
      000000F0H   SFRSYM    DATA     BYTE      B
      000000FAH   SFRSYM    DATA     BYTE      CCAP0H
      000000EAH   SFRSYM    DATA     BYTE      CCAP0L
      000000FBH   SFRSYM    DATA     BYTE      CCAP1H
      000000EBH   SFRSYM    DATA     BYTE      CCAP1L
      000000FCH   SFRSYM    DATA     BYTE      CCAP2H
      000000ECH   SFRSYM    DATA     BYTE      CCAP2L
      000000FDH   SFRSYM    DATA     BYTE      CCAP3H
      000000EDH   SFRSYM    DATA     BYTE      CCAP3L
      000000FEH   SFRSYM    DATA     BYTE      CCAP4H
      000000EEH   SFRSYM    DATA     BYTE      CCAP4L
      000000DAH   SFRSYM    DATA     BYTE      CCAPM0
      000000DBH   SFRSYM    DATA     BYTE      CCAPM1
      000000DCH   SFRSYM    DATA     BYTE      CCAPM2
      000000DDH   SFRSYM    DATA     BYTE      CCAPM3
      000000DEH   SFRSYM    DATA     BYTE      CCAPM4
      000000D8H.0 SFRSYM    DATA     BIT       CCF0
      000000D8H.1 SFRSYM    DATA     BIT       CCF1
      000000D8H.2 SFRSYM    DATA     BIT       CCF2
      000000D8H.3 SFRSYM    DATA     BIT       CCF3
      000000D8H.4 SFRSYM    DATA     BIT       CCF4
      000000D8H   SFRSYM    DATA     BYTE      CCON
      00000090H.3 SFRSYM    DATA     BIT       CEX0
      00000090H.4 SFRSYM    DATA     BIT       CEX1
      00000090H.5 SFRSYM    DATA     BIT       CEX2
      00000090H.6 SFRSYM    DATA     BIT       CEX3
      00000090H.7 SFRSYM    DATA     BIT       CEX4
      000000D8H.7 SFRSYM    DATA     BIT       CF
      000000F9H   SFRSYM    DATA     BYTE      CH
      000000E9H   SFRSYM    DATA     BYTE      CL
      000000D9H   SFRSYM    DATA     BYTE      CMOD
      000000C8H.0 SFRSYM    DATA     BIT       CP_RL2
      000000D8H.6 SFRSYM    DATA     BIT       CR
      000000D0H.7 SFRSYM    DATA     BIT       CY
      000000C8H.1 SFRSYM    DATA     BIT       C_T2
      00000083H   SFRSYM    DATA     BYTE      DPH
      00000082H   SFRSYM    DATA     BYTE      DPL
L251 LINKER/LOCATER V4.66.93.0                                                        11/01/2025  17:49:51  PAGE 53


      00000084H   SFRSYM    DATA     BYTE      DPXL
      000000A8H.7 SFRSYM    DATA     BIT       EA
      000000A8H.6 SFRSYM    DATA     BIT       EC
      00000090H.2 SFRSYM    DATA     BIT       ECI
      000000A8H.4 SFRSYM    DATA     BIT       ES
      000000A8H.1 SFRSYM    DATA     BIT       ET0
      000000A8H.3 SFRSYM    DATA     BIT       ET1
      000000A8H.5 SFRSYM    DATA     BIT       ET2
      000000A8H.0 SFRSYM    DATA     BIT       EX0
      000000A8H.2 SFRSYM    DATA     BIT       EX1
      000000C8H.3 SFRSYM    DATA     BIT       EXEN2
      000000C8H.6 SFRSYM    DATA     BIT       EXF2
      000000D0H.5 SFRSYM    DATA     BIT       F0
      00000098H.7 SFRSYM    DATA     BIT       FE
      000000A8H   SFRSYM    DATA     BYTE      IE0
      00000088H.1 SFRSYM    DATA     BIT       IE0_
      000000B1H   SFRSYM    DATA     BYTE      IE1
      00000088H.3 SFRSYM    DATA     BIT       IE1_
      000000B0H.2 SFRSYM    DATA     BIT       INT0
      000000B0H.3 SFRSYM    DATA     BIT       INT1
      000000B7H   SFRSYM    DATA     BYTE      IPH0
      000000B8H   SFRSYM    DATA     BYTE      IPL0
      00000088H.0 SFRSYM    DATA     BIT       IT0
      00000088H.2 SFRSYM    DATA     BIT       IT1
      000000D0H.2 SFRSYM    DATA     BIT       OV
      000000D0H.0 SFRSYM    DATA     BIT       P
      00000080H   SFRSYM    DATA     BYTE      P0
      00000090H   SFRSYM    DATA     BYTE      P1
      000000A0H   SFRSYM    DATA     BYTE      P2
      000000B0H   SFRSYM    DATA     BYTE      P3
      00000087H   SFRSYM    DATA     BYTE      PCON
      000000B8H.6 SFRSYM    DATA     BIT       PPC
      000000B8H.4 SFRSYM    DATA     BIT       PS
      000000D0H   SFRSYM    DATA     BYTE      PSW
      000000D1H   SFRSYM    DATA     BYTE      PSW1
      000000B8H.1 SFRSYM    DATA     BIT       PT0
      000000B8H.3 SFRSYM    DATA     BIT       PT1
      000000B8H.5 SFRSYM    DATA     BIT       PT2
      000000B8H.0 SFRSYM    DATA     BIT       PX0
      000000B8H.2 SFRSYM    DATA     BIT       PX1
      00000098H.2 SFRSYM    DATA     BIT       RB8
      000000CBH   SFRSYM    DATA     BYTE      RCAP2H
      000000CAH   SFRSYM    DATA     BYTE      RCAP2L
      000000C8H.5 SFRSYM    DATA     BIT       RCLK
      000000B0H.7 SFRSYM    DATA     BIT       RD
      00000098H.4 SFRSYM    DATA     BIT       REN
      00000098H.0 SFRSYM    DATA     BIT       RI
      000000D0H.3 SFRSYM    DATA     BIT       RS0
      000000D0H.4 SFRSYM    DATA     BIT       RS1
      000000B0H.0 SFRSYM    DATA     BIT       RXD
      000000A9H   SFRSYM    DATA     BYTE      SADDR
      000000B9H   SFRSYM    DATA     BYTE      SADEN
      00000099H   SFRSYM    DATA     BYTE      SBUF
      00000098H   SFRSYM    DATA     BYTE      SCON
      00000098H.7 SFRSYM    DATA     BIT       SM0
      00000098H.6 SFRSYM    DATA     BIT       SM1
      00000098H.5 SFRSYM    DATA     BIT       SM2
      00000081H   SFRSYM    DATA     BYTE      SP
      000000BEH   SFRSYM    DATA     BYTE      SPH
      000000B0H.4 SFRSYM    DATA     BIT       T0
      000000B0H.5 SFRSYM    DATA     BIT       T1
      00000090H.0 SFRSYM    DATA     BIT       T2
      000000C8H   SFRSYM    DATA     BYTE      T2CON
      00000090H.1 SFRSYM    DATA     BIT       T2EX
      000000C9H   SFRSYM    DATA     BYTE      T2MOD
L251 LINKER/LOCATER V4.66.93.0                                                        11/01/2025  17:49:51  PAGE 54


      00000098H.3 SFRSYM    DATA     BIT       TB8
      000000C8H.4 SFRSYM    DATA     BIT       TCLK
      00000088H   SFRSYM    DATA     BYTE      TCON
      00000088H.5 SFRSYM    DATA     BIT       TF0
      00000088H.7 SFRSYM    DATA     BIT       TF1
      000000C8H.7 SFRSYM    DATA     BIT       TF2
      0000008CH   SFRSYM    DATA     BYTE      TH0
      0000008DH   SFRSYM    DATA     BYTE      TH1
      000000CDH   SFRSYM    DATA     BYTE      TH2
      00000098H.1 SFRSYM    DATA     BIT       TI
      0000008AH   SFRSYM    DATA     BYTE      TL0
      0000008BH   SFRSYM    DATA     BYTE      TL1
      000000CCH   SFRSYM    DATA     BYTE      TL2
      00000089H   SFRSYM    DATA     BYTE      TMOD
      00000088H.4 SFRSYM    DATA     BIT       TR0
      00000088H.6 SFRSYM    DATA     BIT       TR1
      000000C8H.2 SFRSYM    DATA     BIT       TR2
      000000B0H.1 SFRSYM    DATA     BIT       TXD
      000000A6H   SFRSYM    DATA     BYTE      WDTRST
      000000B0H.6 SFRSYM    DATA     BIT       WR
      00000800H   SYMBOL    NUMBER   ---       EDATALEN
      00FFBE8CH   SYMBOL    CODE     ---       EDATALOOP
      00000001H   SYMBOL    NUMBER   ---       EDF
      00000001H   SYMBOL    NUMBER   ---       EMAP
      00000000H   SYMBOL    NUMBER   ---       HDATALEN
      00010000H   SYMBOL    NUMBER   ---       HDATASTART
      00000000H   SYMBOL    NUMBER   ---       IBPSTACK
      00000100H   SYMBOL    NUMBER   ---       IBPSTACKTOP
      00000001H   SYMBOL    NUMBER   ---       INTR
      00000001H   SYMBOL    NUMBER   ---       PAGM
      00000003H   SYMBOL    NUMBER   ---       RDRG
      00000001H   SYMBOL    NUMBER   ---       SRCM
      00000700H   SYMBOL    NUMBER   ---       STACKSIZE
      00FFBE84H   SYMBOL    CODE     ---       STARTUP1
      00000003H   SYMBOL    NUMBER   ---       WSA
      00000003H   SYMBOL    NUMBER   ---       WSB
      00000001H   SYMBOL    NUMBER   ---       XALE
      00000000H   SYMBOL    NUMBER   ---       XBPSTACK
      00010000H   SYMBOL    NUMBER   ---       XBPSTACKTOP
      00008000H   SYMBOL    NUMBER   ---       XDATALEN
      00FFBE9BH   SYMBOL    CODE     ---       XDATALOOP
      00010000H   SYMBOL    NUMBER   ---       XDATASTART

      00FF0000H   BLOCK     CODE     NEAR LAB  LVL=0
      00FF0000H   LINE      CODE     ---       #183
      ---         BLOCKEND  ---      ---       LVL=0

      00FFBE84H   BLOCK     CODE     NEAR LAB  LVL=0
      00FFBE84H   LINE      CODE     ---       #188
      00FFBE87H   LINE      CODE     ---       #191
      00FFBE8BH   LINE      CODE     ---       #192
      00FFBE8CH   LINE      CODE     ---       #193
      00FFBE8FH   LINE      CODE     ---       #194
      00FFBE91H   LINE      CODE     ---       #195
      00FFBE93H   LINE      CODE     ---       #199
      00FFBE96H   LINE      CODE     ---       #200
      00FFBE9AH   LINE      CODE     ---       #201
      00FFBE9BH   LINE      CODE     ---       #202
      00FFBE9CH   LINE      CODE     ---       #203
      00FFBE9DH   LINE      CODE     ---       #204
      00FFBE9FH   LINE      CODE     ---       #205
      00FFBEA1H   LINE      CODE     ---       #235
      ---         BLOCKEND  ---      ---       LVL=0

      00FFBED8H   BLOCK     CODE     NEAR LAB  LVL=0
L251 LINKER/LOCATER V4.66.93.0                                                        11/01/2025  17:49:51  PAGE 55


      00FFBED8H   LINE      CODE     ---       #238
      ---         BLOCKEND  ---      ---       LVL=0

      ---         MODULE    ---      ---       zf_driver_adc
      00FFC685H   PUBLIC    CODE     ---       adc_convert
      00FFB716H   PUBLIC    CODE     ---       adc_init
      00000094H   SFRSYM    DATA     BYTE      P0M0
      000000D0H   SFRSYM    DATA     BYTE      PSW
      0000009DH   SFRSYM    DATA     BYTE      IRCBAND
      00000097H   SFRSYM    DATA     BYTE      AUXR2
      000000EFH   SFRSYM    DATA     BYTE      AUXINTIF
      000000FDH   SFRSYM    DATA     BYTE      S4CON
      000000ACH   SFRSYM    DATA     BYTE      S3CON
      0000009AH   SFRSYM    DATA     BYTE      S2CON
      000000B7H   SFRSYM    DATA     BYTE      IPH
      000000CDH   SFRSYM    DATA     BYTE      SPSTAT
      000000BEH   SFRSYM    DATA     BYTE      ADC_RESL
      000000DDH   SFRSYM    DATA     BYTE      T4T3M
      000000C1H   SFRSYM    DATA     BYTE      WDT_CONTR
      000000DFH   SFRSYM    DATA     BYTE      IP3
      000000F4H   SFRSYM    DATA     BYTE      USBCON
      000000B5H   SFRSYM    DATA     BYTE      IP2
      000000FFH   SFRSYM    DATA     BYTE      RSTCFG
      000000C7H   SFRSYM    DATA     BYTE      IAP_CONTR
      0000008EH   SFRSYM    DATA     BYTE      AUXR
      000000AFH   SFRSYM    DATA     BYTE      IE2
      00000088H   SFRSYM    DATA     BYTE      TCON
      00000089H   SFRSYM    DATA     BYTE      TMOD
      00000098H   SFRSYM    DATA     BYTE      SCON
      00000087H   SFRSYM    DATA     BYTE      PCON
      000000BCH   SFRSYM    DATA     BYTE      ADC_CONTR
      000000D1H   SFRSYM    DATA     BYTE      PSW1
      000000E7H   SFRSYM    DATA     BYTE      CMPCR2
      000000E6H   SFRSYM    DATA     BYTE      CMPCR1
      000000DEH   SFRSYM    DATA     BYTE      ADCCFG
      000000B8H   SFRSYM    DATA     BYTE      IP
      0000008FH   SFRSYM    DATA     BYTE      INTCLKO
      000000EEH   SFRSYM    DATA     BYTE      IP3H
      000000B6H   SFRSYM    DATA     BYTE      IP2H
      000000BDH   SFRSYM    DATA     BYTE      ADC_RES
      000000BFH   SFRSYM    DATA     BYTE      P_SW4
      000000A8H   SFRSYM    DATA     BYTE      IE
      000000BBH   SFRSYM    DATA     BYTE      P_SW3
      000000BAH   SFRSYM    DATA     BYTE      P_SW2
      000000A2H   SFRSYM    DATA     BYTE      P_SW1
      000000CEH   SFRSYM    DATA     BYTE      SPCTL
      000000F8H   SFRSYM    DATA     BYTE      P7
      000000E8H   SFRSYM    DATA     BYTE      P6
      000000C8H   SFRSYM    DATA     BYTE      P5
      000000C0H   SFRSYM    DATA     BYTE      P4
      000000ABH   SFRSYM    DATA     BYTE      WKTCH
      000000B0H   SFRSYM    DATA     BYTE      P3
      000000A0H   SFRSYM    DATA     BYTE      P2
      00000090H   SFRSYM    DATA     BYTE      P1
      00000080H   SFRSYM    DATA     BYTE      P0
      00000091H   SFRSYM    DATA     BYTE      P1M1
      00000092H   SFRSYM    DATA     BYTE      P1M0
      00000093H   SFRSYM    DATA     BYTE      P0M1
      0001184AH   SYMBOL    XDATA    BYTE      adc_resolution
      WR14        REGSYM    ---      INT       ch
      R13         REGSYM    ---      BYTE      count
      R12         REGSYM    ---      BYTE      i

      00FFC685H   BLOCK     CODE     ---       LVL=0
      WR6         REGSYM    ---      INT       ch
L251 LINKER/LOCATER V4.66.93.0                                                        11/01/2025  17:49:51  PAGE 56


      WR6         REGSYM    ---      WORD      adc_value
      00FFC685H   LINE      CODE     ---       #75
      00FFC685H   LINE      CODE     ---       #76
      00FFC685H   LINE      CODE     ---       #79
      00FFC688H   LINE      CODE     ---       #80
      00FFC68CH   LINE      CODE     ---       #82
      00FFC68FH   LINE      CODE     ---       #84
      00FFC694H   LINE      CODE     ---       #86
      00FFC697H   LINE      CODE     ---       #88
      00FFC699H   LINE      CODE     ---       #89
      00FFC69DH   LINE      CODE     ---       #90
      00FFC6A3H   LINE      CODE     ---       #92
      00FFC6A6H   LINE      CODE     ---       #93
      00FFC6A9H   LINE      CODE     ---       #95
      00FFC6B4H   LINE      CODE     ---       #98
      00FFC6B4H   LINE      CODE     ---       #99
      ---         BLOCKEND  ---      ---       LVL=0

      00FFB716H   BLOCK     CODE     ---       LVL=0
      WR4         REGSYM    ---      INT       ch
      WR2         REGSYM    ---      INT       resolution
      00FFB716H   LINE      CODE     ---       #108
      00FFB71AH   LINE      CODE     ---       #110
      00FFB71DH   LINE      CODE     ---       #112
      00FFB720H   LINE      CODE     ---       #113
      00FFB726H   LINE      CODE     ---       #115
      00FFB734H   LINE      CODE     ---       #118
      00FFB749H   LINE      CODE     ---       #119
      00FFB75CH   LINE      CODE     ---       #120
      00FFB75EH   LINE      CODE     ---       #121
      00FFB768H   LINE      CODE     ---       #124
      00FFB77DH   LINE      CODE     ---       #125
      00FFB790H   LINE      CODE     ---       #126
      00FFB790H   LINE      CODE     ---       #128
      00FFB794H   LINE      CODE     ---       #130
      00FFB797H   LINE      CODE     ---       #132
      00FFB79DH   LINE      CODE     ---       #133
      ---         BLOCKEND  ---      ---       LVL=0

      ---         MODULE    ---      ---       zf_driver_delay
      00FFBDCAH   PUBLIC    CODE     ---       system_delay_init
      00FFBB66H   PUBLIC    CODE     ---       system_delay_ms
      000000D0H   SFRSYM    DATA     BYTE      PSW
      0000009DH   SFRSYM    DATA     BYTE      IRCBAND
      00000097H   SFRSYM    DATA     BYTE      AUXR2
      000000EFH   SFRSYM    DATA     BYTE      AUXINTIF
      000000FDH   SFRSYM    DATA     BYTE      S4CON
      000000ACH   SFRSYM    DATA     BYTE      S3CON
      0000009AH   SFRSYM    DATA     BYTE      S2CON
      000000B7H   SFRSYM    DATA     BYTE      IPH
      000000CDH   SFRSYM    DATA     BYTE      SPSTAT
      000000DDH   SFRSYM    DATA     BYTE      T4T3M
      000000C1H   SFRSYM    DATA     BYTE      WDT_CONTR
      000000DFH   SFRSYM    DATA     BYTE      IP3
      000000F4H   SFRSYM    DATA     BYTE      USBCON
      000000B5H   SFRSYM    DATA     BYTE      IP2
      000000FFH   SFRSYM    DATA     BYTE      RSTCFG
      000000C7H   SFRSYM    DATA     BYTE      IAP_CONTR
      0000008EH   SFRSYM    DATA     BYTE      AUXR
      000000AFH   SFRSYM    DATA     BYTE      IE2
      00000088H   SFRSYM    DATA     BYTE      TCON
      00000089H   SFRSYM    DATA     BYTE      TMOD
      00000098H   SFRSYM    DATA     BYTE      SCON
      00000087H   SFRSYM    DATA     BYTE      PCON
      000000BCH   SFRSYM    DATA     BYTE      ADC_CONTR
L251 LINKER/LOCATER V4.66.93.0                                                        11/01/2025  17:49:51  PAGE 57


      000000D1H   SFRSYM    DATA     BYTE      PSW1
      000000E7H   SFRSYM    DATA     BYTE      CMPCR2
      000000E6H   SFRSYM    DATA     BYTE      CMPCR1
      000000DEH   SFRSYM    DATA     BYTE      ADCCFG
      000000B8H   SFRSYM    DATA     BYTE      IP
      0000008FH   SFRSYM    DATA     BYTE      INTCLKO
      000000EEH   SFRSYM    DATA     BYTE      IP3H
      000000B6H   SFRSYM    DATA     BYTE      IP2H
      000000BFH   SFRSYM    DATA     BYTE      P_SW4
      000000A8H   SFRSYM    DATA     BYTE      IE
      000000BBH   SFRSYM    DATA     BYTE      P_SW3
      000000BAH   SFRSYM    DATA     BYTE      P_SW2
      000000A2H   SFRSYM    DATA     BYTE      P_SW1
      000000CEH   SFRSYM    DATA     BYTE      SPCTL
      000000F8H   SFRSYM    DATA     BYTE      P7
      000000E8H   SFRSYM    DATA     BYTE      P6
      000000C8H   SFRSYM    DATA     BYTE      P5
      000000C0H   SFRSYM    DATA     BYTE      P4
      000000ABH   SFRSYM    DATA     BYTE      WKTCH
      000000B0H   SFRSYM    DATA     BYTE      P3
      000000A0H   SFRSYM    DATA     BYTE      P2
      00000090H   SFRSYM    DATA     BYTE      P1
      00000080H   SFRSYM    DATA     BYTE      P0
      0001183DH   SYMBOL    XDATA    WORD      pca_delay_1ms
      0001183FH   SYMBOL    XDATA    WORD      pca_delay_1us

      00FFBDCAH   BLOCK     CODE     ---       LVL=0
      00FFBDCAH   LINE      CODE     ---       #48
      00FFBDCAH   LINE      CODE     ---       #50
      00FFBDE1H   LINE      CODE     ---       #51
      00FFBDFCH   LINE      CODE     ---       #53
      00FFBE09H   LINE      CODE     ---       #54
      00FFBE16H   LINE      CODE     ---       #55
      00FFBE26H   LINE      CODE     ---       #57
      ---         BLOCKEND  ---      ---       LVL=0

      00FFBB66H   BLOCK     CODE     ---       LVL=0
      WR8         REGSYM    ---      WORD      ms
      00FFBB68H   BLOCK     CODE     NEAR LAB  LVL=1
      WR6         REGSYM    ---      WORD      temp
      ---         BLOCKEND  ---      ---       LVL=1
      00FFBB66H   LINE      CODE     ---       #65
      00FFBB68H   LINE      CODE     ---       #66
      00FFBB68H   LINE      CODE     ---       #69
      00FFBB6AH   LINE      CODE     ---       #71
      00FFBB8EH   LINE      CODE     ---       #73
      00FFBB9BH   LINE      CODE     ---       #74
      00FFBBAAH   LINE      CODE     ---       #76
      00FFBBB8H   LINE      CODE     ---       #77
      00FFBBC8H   LINE      CODE     ---       #78
      00FFBBD0H   LINE      CODE     ---       #79
      ---         BLOCKEND  ---      ---       LVL=0
      WR8         REGSYM    ---      WORD      ms
      WR6         REGSYM    ---      WORD      temp

      ---         MODULE    ---      ---       zf_driver_eeprom
      000000D0H   SFRSYM    DATA     BYTE      PSW
      0000009DH   SFRSYM    DATA     BYTE      IRCBAND
      00000097H   SFRSYM    DATA     BYTE      AUXR2
      000000C6H   SFRSYM    DATA     BYTE      IAP_TRIG
      000000EFH   SFRSYM    DATA     BYTE      AUXINTIF
      000000FDH   SFRSYM    DATA     BYTE      S4CON
      000000ACH   SFRSYM    DATA     BYTE      S3CON
      0000009AH   SFRSYM    DATA     BYTE      S2CON
      000000B7H   SFRSYM    DATA     BYTE      IPH
L251 LINKER/LOCATER V4.66.93.0                                                        11/01/2025  17:49:51  PAGE 58


      000000CDH   SFRSYM    DATA     BYTE      SPSTAT
      000000DDH   SFRSYM    DATA     BYTE      T4T3M
      000000C1H   SFRSYM    DATA     BYTE      WDT_CONTR
      000000C2H   SFRSYM    DATA     BYTE      IAP_DATA
      000000DFH   SFRSYM    DATA     BYTE      IP3
      000000F4H   SFRSYM    DATA     BYTE      USBCON
      000000B5H   SFRSYM    DATA     BYTE      IP2
      000000FFH   SFRSYM    DATA     BYTE      RSTCFG
      000000C7H   SFRSYM    DATA     BYTE      IAP_CONTR
      0000008EH   SFRSYM    DATA     BYTE      AUXR
      000000AFH   SFRSYM    DATA     BYTE      IE2
      00000088H   SFRSYM    DATA     BYTE      TCON
      00000089H   SFRSYM    DATA     BYTE      TMOD
      00000098H   SFRSYM    DATA     BYTE      SCON
      000000F5H   SFRSYM    DATA     BYTE      IAP_TPS
      00000087H   SFRSYM    DATA     BYTE      PCON
      000000BCH   SFRSYM    DATA     BYTE      ADC_CONTR
      000000D1H   SFRSYM    DATA     BYTE      PSW1
      000000E7H   SFRSYM    DATA     BYTE      CMPCR2
      000000E6H   SFRSYM    DATA     BYTE      CMPCR1
      000000C4H   SFRSYM    DATA     BYTE      IAP_ADDRL
      000000C3H   SFRSYM    DATA     BYTE      IAP_ADDRH
      000000F6H   SFRSYM    DATA     BYTE      IAP_ADDRE
      000000DEH   SFRSYM    DATA     BYTE      ADCCFG
      000000B8H   SFRSYM    DATA     BYTE      IP
      0000008FH   SFRSYM    DATA     BYTE      INTCLKO
      000000EEH   SFRSYM    DATA     BYTE      IP3H
      000000B6H   SFRSYM    DATA     BYTE      IP2H
      000000C5H   SFRSYM    DATA     BYTE      IAP_CMD
      000000BFH   SFRSYM    DATA     BYTE      P_SW4
      000000A8H   SFRSYM    DATA     BYTE      IE
      000000BBH   SFRSYM    DATA     BYTE      P_SW3
      000000BAH   SFRSYM    DATA     BYTE      P_SW2
      000000A2H   SFRSYM    DATA     BYTE      P_SW1
      000000CEH   SFRSYM    DATA     BYTE      SPCTL
      000000F8H   SFRSYM    DATA     BYTE      P7
      000000A8H.7 SFRSYM    DATA     BIT       EA
      000000E8H   SFRSYM    DATA     BYTE      P6
      000000C8H   SFRSYM    DATA     BYTE      P5
      000000C0H   SFRSYM    DATA     BYTE      P4
      000000ABH   SFRSYM    DATA     BYTE      WKTCH
      000000B0H   SFRSYM    DATA     BYTE      P3
      000000A0H   SFRSYM    DATA     BYTE      P2
      00000090H   SFRSYM    DATA     BYTE      P1
      00000080H   SFRSYM    DATA     BYTE      P0
      00FFE565H   SYMBOL    HCONST   ---       ?tpl?0001
      R7          REGSYM    ---      BYTE      write_time
      DR0         REGSYM    ---      DWORD     addr
      R11         REGSYM    ---      BYTE      temp
      DR0         REGSYM    ---      DWORD     addr
      R15         REGSYM    ---      BYTE      byte
      REG=3       REGSYM    ---      ---       buf
      REG=3       REGSYM    ---      ---       buf
      DR0         REGSYM    ---      DWORD     addr
      REG=3       REGSYM    ---      ---       buf

      ---         MODULE    ---      ---       zf_driver_encoder
      00FFB031H   PUBLIC    CODE     ---       encoder_get_count
      00FF9ED3H   PUBLIC    CODE     ---       encoder_dir_init
      00FFB212H   PUBLIC    CODE     ---       encoder_clear_count
      000000D0H   SFRSYM    DATA     BYTE      PSW
      0000009DH   SFRSYM    DATA     BYTE      IRCBAND
      00000097H   SFRSYM    DATA     BYTE      AUXR2
      000000EFH   SFRSYM    DATA     BYTE      AUXINTIF
      000000FDH   SFRSYM    DATA     BYTE      S4CON
L251 LINKER/LOCATER V4.66.93.0                                                        11/01/2025  17:49:51  PAGE 59


      000000ACH   SFRSYM    DATA     BYTE      S3CON
      0000009AH   SFRSYM    DATA     BYTE      S2CON
      000000B7H   SFRSYM    DATA     BYTE      IPH
      000000CDH   SFRSYM    DATA     BYTE      SPSTAT
      000000DDH   SFRSYM    DATA     BYTE      T4T3M
      000000C1H   SFRSYM    DATA     BYTE      WDT_CONTR
      00000088H.6 SFRSYM    DATA     BIT       TR1
      00000088H.4 SFRSYM    DATA     BIT       TR0
      000000D3H   SFRSYM    DATA     BYTE      T4L
      000000D5H   SFRSYM    DATA     BYTE      T3L
      000000D7H   SFRSYM    DATA     BYTE      T2L
      0000008BH   SFRSYM    DATA     BYTE      TL1
      0000008AH   SFRSYM    DATA     BYTE      TL0
      000000D2H   SFRSYM    DATA     BYTE      T4H
      000000D4H   SFRSYM    DATA     BYTE      T3H
      000000D6H   SFRSYM    DATA     BYTE      T2H
      0000008DH   SFRSYM    DATA     BYTE      TH1
      0000008CH   SFRSYM    DATA     BYTE      TH0
      000000DFH   SFRSYM    DATA     BYTE      IP3
      000000F4H   SFRSYM    DATA     BYTE      USBCON
      000000B5H   SFRSYM    DATA     BYTE      IP2
      000000FFH   SFRSYM    DATA     BYTE      RSTCFG
      000000C7H   SFRSYM    DATA     BYTE      IAP_CONTR
      0000008EH   SFRSYM    DATA     BYTE      AUXR
      000000AFH   SFRSYM    DATA     BYTE      IE2
      00000088H   SFRSYM    DATA     BYTE      TCON
      00000089H   SFRSYM    DATA     BYTE      TMOD
      00000098H   SFRSYM    DATA     BYTE      SCON
      00000087H   SFRSYM    DATA     BYTE      PCON
      000000BCH   SFRSYM    DATA     BYTE      ADC_CONTR
      000000D1H   SFRSYM    DATA     BYTE      PSW1
      000000E7H   SFRSYM    DATA     BYTE      CMPCR2
      000000E6H   SFRSYM    DATA     BYTE      CMPCR1
      000000DEH   SFRSYM    DATA     BYTE      ADCCFG
      000000B8H   SFRSYM    DATA     BYTE      IP
      0000008FH   SFRSYM    DATA     BYTE      INTCLKO
      000000EEH   SFRSYM    DATA     BYTE      IP3H
      000000B6H   SFRSYM    DATA     BYTE      IP2H
      000000BFH   SFRSYM    DATA     BYTE      P_SW4
      000000A8H   SFRSYM    DATA     BYTE      IE
      000000BBH   SFRSYM    DATA     BYTE      P_SW3
      000000BAH   SFRSYM    DATA     BYTE      P_SW2
      000000A2H   SFRSYM    DATA     BYTE      P_SW1
      000000CEH   SFRSYM    DATA     BYTE      SPCTL
      000000F8H   SFRSYM    DATA     BYTE      P7
      000000E8H   SFRSYM    DATA     BYTE      P6
      000000C8H   SFRSYM    DATA     BYTE      P5
      000000C0H   SFRSYM    DATA     BYTE      P4
      000000ABH   SFRSYM    DATA     BYTE      WKTCH
      000000B0H   SFRSYM    DATA     BYTE      P3
      000000A0H   SFRSYM    DATA     BYTE      P2
      00000090H   SFRSYM    DATA     BYTE      P1
      00000080H   SFRSYM    DATA     BYTE      P0
      00011833H   SYMBOL    XDATA    ---       encoder_dir_pin

      00FFB031H   BLOCK     CODE     ---       LVL=0
      WR2         REGSYM    ---      INT       encoder_n
      00FFB035H   BLOCK     CODE     NEAR LAB  LVL=1
      WR14        REGSYM    ---      INT       dat
      ---         BLOCKEND  ---      ---       LVL=1
      00FFB031H   LINE      CODE     ---       #48
      00FFB035H   LINE      CODE     ---       #49
      00FFB035H   LINE      CODE     ---       #50
      00FFB037H   LINE      CODE     ---       #52
      00FFB053H   LINE      CODE     ---       #54
L251 LINKER/LOCATER V4.66.93.0                                                        11/01/2025  17:49:51  PAGE 60


      00FFB053H   LINE      CODE     ---       #56
      00FFB059H   LINE      CODE     ---       #57
      00FFB05FH   LINE      CODE     ---       #58
      00FFB061H   LINE      CODE     ---       #61
      00FFB061H   LINE      CODE     ---       #63
      00FFB067H   LINE      CODE     ---       #64
      00FFB06DH   LINE      CODE     ---       #65
      00FFB06FH   LINE      CODE     ---       #68
      00FFB06FH   LINE      CODE     ---       #70
      00FFB075H   LINE      CODE     ---       #71
      00FFB07BH   LINE      CODE     ---       #72
      00FFB07DH   LINE      CODE     ---       #75
      00FFB07DH   LINE      CODE     ---       #77
      00FFB083H   LINE      CODE     ---       #78
      00FFB089H   LINE      CODE     ---       #79
      00FFB08BH   LINE      CODE     ---       #82
      00FFB08BH   LINE      CODE     ---       #84
      00FFB091H   LINE      CODE     ---       #85
      00FFB097H   LINE      CODE     ---       #86
      00FFB099H   LINE      CODE     ---       #89
      00FFB099H   LINE      CODE     ---       #91
      00FFB0A8H   LINE      CODE     ---       #92
      00FFB0B7H   LINE      CODE     ---       #93
      00FFB0B7H   LINE      CODE     ---       #96
      00FFB0B7H   LINE      CODE     ---       #98
      00FFB0CBH   LINE      CODE     ---       #100
      00FFB0D1H   LINE      CODE     ---       #101
      00FFB0D1H   LINE      CODE     ---       #103
      00FFB0D3H   LINE      CODE     ---       #104
      ---         BLOCKEND  ---      ---       LVL=0

      00FFB212H   BLOCK     CODE     ---       LVL=0
      WR6         REGSYM    ---      INT       encoder_n
      00FFB212H   LINE      CODE     ---       #113
      00FFB212H   LINE      CODE     ---       #115
      00FFB22CH   LINE      CODE     ---       #117
      00FFB22CH   LINE      CODE     ---       #119
      00FFB22EH   LINE      CODE     ---       #120
      00FFB231H   LINE      CODE     ---       #121
      00FFB234H   LINE      CODE     ---       #122
      00FFB236H   LINE      CODE     ---       #123
      00FFB238H   LINE      CODE     ---       #126
      00FFB238H   LINE      CODE     ---       #128
      00FFB23AH   LINE      CODE     ---       #129
      00FFB23DH   LINE      CODE     ---       #130
      00FFB240H   LINE      CODE     ---       #131
      00FFB242H   LINE      CODE     ---       #132
      00FFB244H   LINE      CODE     ---       #135
      00FFB244H   LINE      CODE     ---       #137
      00FFB247H   LINE      CODE     ---       #138
      00FFB24AH   LINE      CODE     ---       #139
      00FFB24DH   LINE      CODE     ---       #140
      00FFB250H   LINE      CODE     ---       #141
      00FFB252H   LINE      CODE     ---       #144
      00FFB252H   LINE      CODE     ---       #146
      00FFB255H   LINE      CODE     ---       #147
      00FFB258H   LINE      CODE     ---       #148
      00FFB25BH   LINE      CODE     ---       #149
      00FFB25EH   LINE      CODE     ---       #150
      00FFB260H   LINE      CODE     ---       #153
      00FFB260H   LINE      CODE     ---       #155
      00FFB263H   LINE      CODE     ---       #156
      00FFB266H   LINE      CODE     ---       #157
      00FFB269H   LINE      CODE     ---       #158
      00FFB26CH   LINE      CODE     ---       #159
L251 LINKER/LOCATER V4.66.93.0                                                        11/01/2025  17:49:51  PAGE 61


      00FFB26EH   LINE      CODE     ---       #162
      00FFB26EH   LINE      CODE     ---       #164
      00FFB27EH   LINE      CODE     ---       #165
      00FFB28AH   LINE      CODE     ---       #166
      00FFB296H   LINE      CODE     ---       #167
      00FFB2A6H   LINE      CODE     ---       #168
      00FFB2A6H   LINE      CODE     ---       #170
      00FFB2A6H   LINE      CODE     ---       #171
      ---         BLOCKEND  ---      ---       LVL=0

      00FF9ED3H   BLOCK     CODE     ---       LVL=0
      WR14        REGSYM    ---      INT       encoder_n
      WR12        REGSYM    ---      INT       dir_pin
      0001155CH   SYMBOL    XDATA    INT       lsb_pin
      00FF9ED3H   LINE      CODE     ---       #183
      00FF9EDFH   LINE      CODE     ---       #189
      00FF9EF5H   LINE      CODE     ---       #190
      00FF9F11H   LINE      CODE     ---       #191
      00FF9F31H   LINE      CODE     ---       #194
      00FF9F3DH   LINE      CODE     ---       #196
      00FF9F50H   LINE      CODE     ---       #198
      00FF9F5FH   LINE      CODE     ---       #200
      00FF9F79H   LINE      CODE     ---       #202
      00FF9F79H   LINE      CODE     ---       #204
      00FF9F7CH   LINE      CODE     ---       #205
      00FF9F7FH   LINE      CODE     ---       #206
      00FF9F82H   LINE      CODE     ---       #207
      00FF9F84H   LINE      CODE     ---       #208
      00FF9F86H   LINE      CODE     ---       #211
      00FF9F86H   LINE      CODE     ---       #213
      00FF9F89H   LINE      CODE     ---       #214
      00FF9F8CH   LINE      CODE     ---       #215
      00FF9F8FH   LINE      CODE     ---       #216
      00FF9F91H   LINE      CODE     ---       #217
      00FF9F93H   LINE      CODE     ---       #220
      00FF9F93H   LINE      CODE     ---       #222
      00FF9F96H   LINE      CODE     ---       #223
      00FF9F99H   LINE      CODE     ---       #224
      00FF9F9CH   LINE      CODE     ---       #225
      00FF9F9EH   LINE      CODE     ---       #228
      00FF9F9EH   LINE      CODE     ---       #230
      00FF9FA1H   LINE      CODE     ---       #231
      00FF9FA4H   LINE      CODE     ---       #232
      00FF9FA7H   LINE      CODE     ---       #233
      00FF9FA9H   LINE      CODE     ---       #236
      00FF9FA9H   LINE      CODE     ---       #238
      00FF9FACH   LINE      CODE     ---       #239
      00FF9FAFH   LINE      CODE     ---       #240
      00FF9FB2H   LINE      CODE     ---       #241
      00FF9FB4H   LINE      CODE     ---       #244
      00FF9FB4H   LINE      CODE     ---       #246
      00FF9FC0H   LINE      CODE     ---       #247
      00FF9FCCH   LINE      CODE     ---       #248
      00FF9FDCH   LINE      CODE     ---       #249
      00FF9FDCH   LINE      CODE     ---       #251
      00FF9FDCH   LINE      CODE     ---       #252
      ---         BLOCKEND  ---      ---       LVL=0

      ---         MODULE    ---      ---       zf_driver_exti
      000000D0H   SFRSYM    DATA     BYTE      PSW
      0000009DH   SFRSYM    DATA     BYTE      IRCBAND
      00000097H   SFRSYM    DATA     BYTE      AUXR2
      000000EFH   SFRSYM    DATA     BYTE      AUXINTIF
      000000FDH   SFRSYM    DATA     BYTE      S4CON
      000000ACH   SFRSYM    DATA     BYTE      S3CON
L251 LINKER/LOCATER V4.66.93.0                                                        11/01/2025  17:49:51  PAGE 62


      0000009AH   SFRSYM    DATA     BYTE      S2CON
      000000B7H   SFRSYM    DATA     BYTE      IPH
      000000CDH   SFRSYM    DATA     BYTE      SPSTAT
      000000DDH   SFRSYM    DATA     BYTE      T4T3M
      000000C1H   SFRSYM    DATA     BYTE      WDT_CONTR
      000000DFH   SFRSYM    DATA     BYTE      IP3
      000000F4H   SFRSYM    DATA     BYTE      USBCON
      000000B5H   SFRSYM    DATA     BYTE      IP2
      000000FFH   SFRSYM    DATA     BYTE      RSTCFG
      000000C7H   SFRSYM    DATA     BYTE      IAP_CONTR
      0000008EH   SFRSYM    DATA     BYTE      AUXR
      000000AFH   SFRSYM    DATA     BYTE      IE2
      00000088H   SFRSYM    DATA     BYTE      TCON
      00000089H   SFRSYM    DATA     BYTE      TMOD
      00000098H   SFRSYM    DATA     BYTE      SCON
      00000087H   SFRSYM    DATA     BYTE      PCON
      000000BCH   SFRSYM    DATA     BYTE      ADC_CONTR
      000000D1H   SFRSYM    DATA     BYTE      PSW1
      000000E7H   SFRSYM    DATA     BYTE      CMPCR2
      000000E6H   SFRSYM    DATA     BYTE      CMPCR1
      000000DEH   SFRSYM    DATA     BYTE      ADCCFG
      000000B8H   SFRSYM    DATA     BYTE      IP
      0000008FH   SFRSYM    DATA     BYTE      INTCLKO
      000000EEH   SFRSYM    DATA     BYTE      IP3H
      000000B6H   SFRSYM    DATA     BYTE      IP2H
      000000BFH   SFRSYM    DATA     BYTE      P_SW4
      000000A8H   SFRSYM    DATA     BYTE      IE
      000000BBH   SFRSYM    DATA     BYTE      P_SW3
      000000BAH   SFRSYM    DATA     BYTE      P_SW2
      000000A2H   SFRSYM    DATA     BYTE      P_SW1
      000000CEH   SFRSYM    DATA     BYTE      SPCTL
      000000F8H   SFRSYM    DATA     BYTE      P7
      000000E8H   SFRSYM    DATA     BYTE      P6
      000000C8H   SFRSYM    DATA     BYTE      P5
      000000C0H   SFRSYM    DATA     BYTE      P4
      000000ABH   SFRSYM    DATA     BYTE      WKTCH
      000000B0H   SFRSYM    DATA     BYTE      P3
      000000A0H   SFRSYM    DATA     BYTE      P2
      00000090H   SFRSYM    DATA     BYTE      P1
      00000080H   SFRSYM    DATA     BYTE      P0

      ---         MODULE    ---      ---       zf_driver_gpio
      00FFA951H   PUBLIC    CODE     ---       gpio_init
      00FF00C6H   PUBLIC    CODE     ---       gpio_get_level
      00FF7E26H   PUBLIC    CODE     ---       gpio_set_level_speed
      00FF94DDH   PUBLIC    CODE     ---       gpio_set_level
      00FF98E9H   PUBLIC    CODE     ---       gpio_set_impedance
      00000094H   SFRSYM    DATA     BYTE      P0M0
      000000D0H   SFRSYM    DATA     BYTE      PSW
      0000009DH   SFRSYM    DATA     BYTE      IRCBAND
      00000097H   SFRSYM    DATA     BYTE      AUXR2
      000000EFH   SFRSYM    DATA     BYTE      AUXINTIF
      000000FDH   SFRSYM    DATA     BYTE      S4CON
      000000ACH   SFRSYM    DATA     BYTE      S3CON
      0000009AH   SFRSYM    DATA     BYTE      S2CON
      000000B7H   SFRSYM    DATA     BYTE      IPH
      000000CDH   SFRSYM    DATA     BYTE      SPSTAT
      000000DDH   SFRSYM    DATA     BYTE      T4T3M
      000000C1H   SFRSYM    DATA     BYTE      WDT_CONTR
      000000DFH   SFRSYM    DATA     BYTE      IP3
      000000F4H   SFRSYM    DATA     BYTE      USBCON
      000000B5H   SFRSYM    DATA     BYTE      IP2
      000000FFH   SFRSYM    DATA     BYTE      RSTCFG
      000000C7H   SFRSYM    DATA     BYTE      IAP_CONTR
      0000008EH   SFRSYM    DATA     BYTE      AUXR
L251 LINKER/LOCATER V4.66.93.0                                                        11/01/2025  17:49:51  PAGE 63


      000000AFH   SFRSYM    DATA     BYTE      IE2
      00000088H   SFRSYM    DATA     BYTE      TCON
      00000089H   SFRSYM    DATA     BYTE      TMOD
      00000098H   SFRSYM    DATA     BYTE      SCON
      00000087H   SFRSYM    DATA     BYTE      PCON
      000000BCH   SFRSYM    DATA     BYTE      ADC_CONTR
      000000D1H   SFRSYM    DATA     BYTE      PSW1
      000000E7H   SFRSYM    DATA     BYTE      CMPCR2
      000000E6H   SFRSYM    DATA     BYTE      CMPCR1
      000000DEH   SFRSYM    DATA     BYTE      ADCCFG
      000000B8H   SFRSYM    DATA     BYTE      IP
      0000008FH   SFRSYM    DATA     BYTE      INTCLKO
      000000EEH   SFRSYM    DATA     BYTE      IP3H
      000000B6H   SFRSYM    DATA     BYTE      IP2H
      000000BFH   SFRSYM    DATA     BYTE      P_SW4
      000000A8H   SFRSYM    DATA     BYTE      IE
      000000BBH   SFRSYM    DATA     BYTE      P_SW3
      000000BAH   SFRSYM    DATA     BYTE      P_SW2
      000000A2H   SFRSYM    DATA     BYTE      P_SW1
      000000CEH   SFRSYM    DATA     BYTE      SPCTL
      000000F8H   SFRSYM    DATA     BYTE      P7
      000000E8H   SFRSYM    DATA     BYTE      P6
      000000C8H   SFRSYM    DATA     BYTE      P5
      000000C0H   SFRSYM    DATA     BYTE      P4
      000000C9H   SFRSYM    DATA     BYTE      P5M1
      000000ABH   SFRSYM    DATA     BYTE      WKTCH
      000000B0H   SFRSYM    DATA     BYTE      P3
      000000B3H   SFRSYM    DATA     BYTE      P4M1
      000000CAH   SFRSYM    DATA     BYTE      P5M0
      000000A0H   SFRSYM    DATA     BYTE      P2
      000000B1H   SFRSYM    DATA     BYTE      P3M1
      000000B4H   SFRSYM    DATA     BYTE      P4M0
      00000090H   SFRSYM    DATA     BYTE      P1
      00000095H   SFRSYM    DATA     BYTE      P2M1
      000000B2H   SFRSYM    DATA     BYTE      P3M0
      00000080H   SFRSYM    DATA     BYTE      P0
      00000091H   SFRSYM    DATA     BYTE      P1M1
      00000096H   SFRSYM    DATA     BYTE      P2M0
      00000092H   SFRSYM    DATA     BYTE      P1M0
      00000093H   SFRSYM    DATA     BYTE      P0M1
      00FF6E40H   SYMBOL    CODE     ---       gpio_set_dir
      00FF8A13H   SYMBOL    CODE     ---       gpio_set_mode

      00FF8A13H   BLOCK     CODE     ---       LVL=0
      WR4         REGSYM    ---      INT       pin
      WR8         REGSYM    ---      INT       mode
      00FF8A13H   LINE      CODE     ---       #45
      00FF8A17H   LINE      CODE     ---       #51
      00FF8A23H   LINE      CODE     ---       #53
      00FF8A52H   LINE      CODE     ---       #54
      00FF8A81H   LINE      CODE     ---       #55
      00FF8A84H   LINE      CODE     ---       #56
      00FF8A8AH   LINE      CODE     ---       #58
      00FF8AB7H   LINE      CODE     ---       #59
      00FF8ABAH   LINE      CODE     ---       #60
      00FF8AC6H   LINE      CODE     ---       #62
      00FF8AF3H   LINE      CODE     ---       #63
      00FF8AF6H   LINE      CODE     ---       #64
      00FF8AFFH   LINE      CODE     ---       #66
      00FF8B35H   LINE      CODE     ---       #68
      00FF8B35H   LINE      CODE     ---       #70
      00FF8B48H   LINE      CODE     ---       #71
      00FF8B5BH   LINE      CODE     ---       #73
      00FF8B5EH   LINE      CODE     ---       #75
      00FF8B5EH   LINE      CODE     ---       #77
L251 LINKER/LOCATER V4.66.93.0                                                        11/01/2025  17:49:51  PAGE 64


      00FF8B71H   LINE      CODE     ---       #78
      00FF8B84H   LINE      CODE     ---       #80
      00FF8B87H   LINE      CODE     ---       #82
      00FF8B87H   LINE      CODE     ---       #84
      00FF8B9AH   LINE      CODE     ---       #85
      00FF8BADH   LINE      CODE     ---       #87
      00FF8BB0H   LINE      CODE     ---       #89
      00FF8BB0H   LINE      CODE     ---       #91
      00FF8BC3H   LINE      CODE     ---       #92
      00FF8BD6H   LINE      CODE     ---       #94
      00FF8BD8H   LINE      CODE     ---       #96
      00FF8BD8H   LINE      CODE     ---       #98
      00FF8BEBH   LINE      CODE     ---       #99
      00FF8BFEH   LINE      CODE     ---       #101
      00FF8C00H   LINE      CODE     ---       #103
      00FF8C00H   LINE      CODE     ---       #105
      00FF8C13H   LINE      CODE     ---       #106
      00FF8C26H   LINE      CODE     ---       #108
      00FF8C28H   LINE      CODE     ---       #109
      00FF8C28H   LINE      CODE     ---       #112
      00FF8C28H   LINE      CODE     ---       #113
      00FF8C28H   LINE      CODE     ---       #114
      00FF8C28H   LINE      CODE     ---       #117
      00FF8C38H   LINE      CODE     ---       #119
      00FF8C38H   LINE      CODE     ---       #120
      ---         BLOCKEND  ---      ---       LVL=0

      00FF7E26H   BLOCK     CODE     ---       LVL=0
      WR14        REGSYM    ---      INT       pin
      WR12        REGSYM    ---      INT       speed
      00FF7E26H   LINE      CODE     ---       #123
      00FF7E2CH   LINE      CODE     ---       #125
      00FF7E66H   LINE      CODE     ---       #127
      00FF7E66H   LINE      CODE     ---       #129
      00FF7E6AH   LINE      CODE     ---       #131
      00FF7E8DH   LINE      CODE     ---       #132
      00FF7E90H   LINE      CODE     ---       #133
      00FF7E96H   LINE      CODE     ---       #135
      00FF7EB7H   LINE      CODE     ---       #136
      00FF7EBAH   LINE      CODE     ---       #139
      00FF7ECAH   LINE      CODE     ---       #141
      00FF7ECAH   LINE      CODE     ---       #143
      00FF7ECDH   LINE      CODE     ---       #145
      00FF7ECDH   LINE      CODE     ---       #147
      00FF7ED1H   LINE      CODE     ---       #149
      00FF7EF4H   LINE      CODE     ---       #150
      00FF7EF7H   LINE      CODE     ---       #151
      00FF7EFDH   LINE      CODE     ---       #153
      00FF7F1EH   LINE      CODE     ---       #154
      00FF7F21H   LINE      CODE     ---       #157
      00FF7F31H   LINE      CODE     ---       #159
      00FF7F31H   LINE      CODE     ---       #161
      00FF7F34H   LINE      CODE     ---       #163
      00FF7F34H   LINE      CODE     ---       #165
      00FF7F38H   LINE      CODE     ---       #167
      00FF7F5BH   LINE      CODE     ---       #168
      00FF7F5EH   LINE      CODE     ---       #169
      00FF7F64H   LINE      CODE     ---       #171
      00FF7F85H   LINE      CODE     ---       #172
      00FF7F88H   LINE      CODE     ---       #175
      00FF7F98H   LINE      CODE     ---       #177
      00FF7F98H   LINE      CODE     ---       #179
      00FF7F9BH   LINE      CODE     ---       #181
      00FF7F9BH   LINE      CODE     ---       #183
      00FF7F9FH   LINE      CODE     ---       #185
L251 LINKER/LOCATER V4.66.93.0                                                        11/01/2025  17:49:51  PAGE 65


      00FF7FC2H   LINE      CODE     ---       #186
      00FF7FC5H   LINE      CODE     ---       #187
      00FF7FCBH   LINE      CODE     ---       #189
      00FF7FECH   LINE      CODE     ---       #190
      00FF7FEFH   LINE      CODE     ---       #193
      00FF7FFFH   LINE      CODE     ---       #195
      00FF7FFFH   LINE      CODE     ---       #197
      00FF8002H   LINE      CODE     ---       #199
      00FF8002H   LINE      CODE     ---       #201
      00FF8006H   LINE      CODE     ---       #203
      00FF8029H   LINE      CODE     ---       #204
      00FF802CH   LINE      CODE     ---       #205
      00FF8032H   LINE      CODE     ---       #207
      00FF8053H   LINE      CODE     ---       #208
      00FF8056H   LINE      CODE     ---       #211
      00FF8066H   LINE      CODE     ---       #213
      00FF8066H   LINE      CODE     ---       #215
      00FF8068H   LINE      CODE     ---       #217
      00FF8068H   LINE      CODE     ---       #219
      00FF806CH   LINE      CODE     ---       #221
      00FF808FH   LINE      CODE     ---       #222
      00FF8091H   LINE      CODE     ---       #223
      00FF8097H   LINE      CODE     ---       #225
      00FF80B8H   LINE      CODE     ---       #226
      00FF80BAH   LINE      CODE     ---       #229
      00FF80CAH   LINE      CODE     ---       #231
      00FF80CAH   LINE      CODE     ---       #233
      00FF80CCH   LINE      CODE     ---       #235
      00FF80CCH   LINE      CODE     ---       #237
      00FF80DCH   LINE      CODE     ---       #239
      00FF80DCH   LINE      CODE     ---       #240
      00FF80DCH   LINE      CODE     ---       #241
      ---         BLOCKEND  ---      ---       LVL=0

      00FF6E40H   BLOCK     CODE     ---       LVL=0
      WR4         REGSYM    ---      INT       pin
      WR2         REGSYM    ---      INT       dir
      00FF6E40H   LINE      CODE     ---       #245
      00FF6E44H   LINE      CODE     ---       #247
      00FF6E7EH   LINE      CODE     ---       #249
      00FF6E7EH   LINE      CODE     ---       #251
      00FF6E84H   LINE      CODE     ---       #253
      00FF6E99H   LINE      CODE     ---       #254
      00FF6EAEH   LINE      CODE     ---       #255
      00FF6EB1H   LINE      CODE     ---       #261
      00FF6EB7H   LINE      CODE     ---       #263
      00FF6ECCH   LINE      CODE     ---       #264
      00FF6EDFH   LINE      CODE     ---       #265
      00FF6EE2H   LINE      CODE     ---       #266
      00FF6EE9H   LINE      CODE     ---       #268
      00FF6EFCH   LINE      CODE     ---       #269
      00FF6F11H   LINE      CODE     ---       #270
      00FF6F11H   LINE      CODE     ---       #272
      00FF6F14H   LINE      CODE     ---       #274
      00FF6F14H   LINE      CODE     ---       #276
      00FF6F1AH   LINE      CODE     ---       #278
      00FF6F2FH   LINE      CODE     ---       #279
      00FF6F44H   LINE      CODE     ---       #280
      00FF6F47H   LINE      CODE     ---       #286
      00FF6F4DH   LINE      CODE     ---       #288
      00FF6F62H   LINE      CODE     ---       #289
      00FF6F75H   LINE      CODE     ---       #290
      00FF6F78H   LINE      CODE     ---       #291
      00FF6F7FH   LINE      CODE     ---       #293
      00FF6F92H   LINE      CODE     ---       #294
L251 LINKER/LOCATER V4.66.93.0                                                        11/01/2025  17:49:51  PAGE 66


      00FF6FA7H   LINE      CODE     ---       #295
      00FF6FA7H   LINE      CODE     ---       #297
      00FF6FAAH   LINE      CODE     ---       #299
      00FF6FAAH   LINE      CODE     ---       #301
      00FF6FB0H   LINE      CODE     ---       #303
      00FF6FC5H   LINE      CODE     ---       #304
      00FF6FDAH   LINE      CODE     ---       #305
      00FF6FDDH   LINE      CODE     ---       #311
      00FF6FE3H   LINE      CODE     ---       #313
      00FF6FF8H   LINE      CODE     ---       #314
      00FF700BH   LINE      CODE     ---       #315
      00FF700EH   LINE      CODE     ---       #316
      00FF7015H   LINE      CODE     ---       #318
      00FF7028H   LINE      CODE     ---       #319
      00FF703DH   LINE      CODE     ---       #320
      00FF703DH   LINE      CODE     ---       #322
      00FF7040H   LINE      CODE     ---       #324
      00FF7040H   LINE      CODE     ---       #326
      00FF7046H   LINE      CODE     ---       #328
      00FF705BH   LINE      CODE     ---       #329
      00FF7070H   LINE      CODE     ---       #330
      00FF7073H   LINE      CODE     ---       #336
      00FF7079H   LINE      CODE     ---       #338
      00FF708EH   LINE      CODE     ---       #339
      00FF70A1H   LINE      CODE     ---       #340
      00FF70A4H   LINE      CODE     ---       #341
      00FF70ABH   LINE      CODE     ---       #343
      00FF70BEH   LINE      CODE     ---       #344
      00FF70D3H   LINE      CODE     ---       #345
      00FF70D3H   LINE      CODE     ---       #347
      00FF70D6H   LINE      CODE     ---       #349
      00FF70D6H   LINE      CODE     ---       #351
      00FF70DCH   LINE      CODE     ---       #353
      00FF70F1H   LINE      CODE     ---       #354
      00FF7106H   LINE      CODE     ---       #355
      00FF7109H   LINE      CODE     ---       #361
      00FF710FH   LINE      CODE     ---       #363
      00FF7124H   LINE      CODE     ---       #364
      00FF7137H   LINE      CODE     ---       #365
      00FF713AH   LINE      CODE     ---       #366
      00FF7141H   LINE      CODE     ---       #368
      00FF7154H   LINE      CODE     ---       #369
      00FF7169H   LINE      CODE     ---       #370
      00FF7169H   LINE      CODE     ---       #372
      00FF716CH   LINE      CODE     ---       #374
      00FF716CH   LINE      CODE     ---       #376
      00FF7172H   LINE      CODE     ---       #378
      00FF7187H   LINE      CODE     ---       #379
      00FF719CH   LINE      CODE     ---       #380
      00FF719EH   LINE      CODE     ---       #386
      00FF71A4H   LINE      CODE     ---       #388
      00FF71B9H   LINE      CODE     ---       #389
      00FF71CCH   LINE      CODE     ---       #390
      00FF71CEH   LINE      CODE     ---       #391
      00FF71D2H   LINE      CODE     ---       #393
      00FF71E5H   LINE      CODE     ---       #394
      00FF71FAH   LINE      CODE     ---       #395
      00FF71FAH   LINE      CODE     ---       #397
      00FF71FCH   LINE      CODE     ---       #399
      00FF71FCH   LINE      CODE     ---       #401
      00FF720CH   LINE      CODE     ---       #403
      00FF720CH   LINE      CODE     ---       #404
      00FF720CH   LINE      CODE     ---       #405
      ---         BLOCKEND  ---      ---       LVL=0

L251 LINKER/LOCATER V4.66.93.0                                                        11/01/2025  17:49:51  PAGE 67


      00FF00C6H   BLOCK     CODE     ---       LVL=0
      WR4         REGSYM    ---      INT       pin
      00FF00CAH   BLOCK     CODE     NEAR LAB  LVL=1
      R15         REGSYM    ---      BYTE      status
      ---         BLOCKEND  ---      ---       LVL=1
      00FF00C6H   LINE      CODE     ---       #413
      00FF00CAH   LINE      CODE     ---       #414
      00FF00CAH   LINE      CODE     ---       #415
      00FF00CCH   LINE      CODE     ---       #417
      00FF00F9H   LINE      CODE     ---       #419
      00FF00F9H   LINE      CODE     ---       #421
      00FF010DH   LINE      CODE     ---       #423
      00FF010FH   LINE      CODE     ---       #425
      00FF010FH   LINE      CODE     ---       #427
      00FF0123H   LINE      CODE     ---       #429
      00FF0125H   LINE      CODE     ---       #431
      00FF0125H   LINE      CODE     ---       #433
      00FF0139H   LINE      CODE     ---       #435
      00FF013BH   LINE      CODE     ---       #437
      00FF013BH   LINE      CODE     ---       #439
      00FF014FH   LINE      CODE     ---       #441
      00FF0151H   LINE      CODE     ---       #443
      00FF0151H   LINE      CODE     ---       #445
      00FF0165H   LINE      CODE     ---       #447
      00FF0167H   LINE      CODE     ---       #449
      00FF0167H   LINE      CODE     ---       #451
      00FF017BH   LINE      CODE     ---       #453
      00FF017DH   LINE      CODE     ---       #455
      00FF017DH   LINE      CODE     ---       #457
      00FF018DH   LINE      CODE     ---       #459
      00FF018DH   LINE      CODE     ---       #460
      00FF018DH   LINE      CODE     ---       #462
      00FF0196H   LINE      CODE     ---       #463
      ---         BLOCKEND  ---      ---       LVL=0

      00FF94DDH   BLOCK     CODE     ---       LVL=0
      WR4         REGSYM    ---      INT       pin
      R10         REGSYM    ---      BYTE      dat
      00FF94DDH   LINE      CODE     ---       #472
      00FF94E1H   LINE      CODE     ---       #474
      00FF9518H   LINE      CODE     ---       #476
      00FF9518H   LINE      CODE     ---       #478
      00FF951CH   LINE      CODE     ---       #480
      00FF952FH   LINE      CODE     ---       #481
      00FF9532H   LINE      CODE     ---       #484
      00FF9547H   LINE      CODE     ---       #485
      00FF9547H   LINE      CODE     ---       #487
      00FF954AH   LINE      CODE     ---       #489
      00FF954AH   LINE      CODE     ---       #491
      00FF954EH   LINE      CODE     ---       #493
      00FF9561H   LINE      CODE     ---       #494
      00FF9564H   LINE      CODE     ---       #497
      00FF9579H   LINE      CODE     ---       #498
      00FF9579H   LINE      CODE     ---       #500
      00FF957CH   LINE      CODE     ---       #502
      00FF957CH   LINE      CODE     ---       #504
      00FF9580H   LINE      CODE     ---       #506
      00FF9593H   LINE      CODE     ---       #507
      00FF9596H   LINE      CODE     ---       #510
      00FF95ABH   LINE      CODE     ---       #511
      00FF95ABH   LINE      CODE     ---       #513
      00FF95AEH   LINE      CODE     ---       #515
      00FF95AEH   LINE      CODE     ---       #517
      00FF95B2H   LINE      CODE     ---       #519
      00FF95C5H   LINE      CODE     ---       #520
L251 LINKER/LOCATER V4.66.93.0                                                        11/01/2025  17:49:51  PAGE 68


      00FF95C8H   LINE      CODE     ---       #523
      00FF95DDH   LINE      CODE     ---       #524
      00FF95DDH   LINE      CODE     ---       #526
      00FF95DFH   LINE      CODE     ---       #528
      00FF95DFH   LINE      CODE     ---       #530
      00FF95E3H   LINE      CODE     ---       #532
      00FF95F6H   LINE      CODE     ---       #533
      00FF95F8H   LINE      CODE     ---       #536
      00FF960DH   LINE      CODE     ---       #537
      00FF960DH   LINE      CODE     ---       #539
      00FF960FH   LINE      CODE     ---       #541
      00FF960FH   LINE      CODE     ---       #543
      00FF9613H   LINE      CODE     ---       #545
      00FF9626H   LINE      CODE     ---       #546
      00FF9628H   LINE      CODE     ---       #549
      00FF963DH   LINE      CODE     ---       #550
      00FF963DH   LINE      CODE     ---       #552
      00FF963FH   LINE      CODE     ---       #554
      00FF963FH   LINE      CODE     ---       #556
      00FF964FH   LINE      CODE     ---       #558
      00FF964FH   LINE      CODE     ---       #559
      00FF964FH   LINE      CODE     ---       #560
      ---         BLOCKEND  ---      ---       LVL=0
      WR14        REGSYM    ---      INT       pin

      00FF98E9H   BLOCK     CODE     ---       LVL=0
      WR4         REGSYM    ---      INT       pin
      00FF98E9H   LINE      CODE     ---       #587
      00FF98EBH   LINE      CODE     ---       #589
      00FF991FH   LINE      CODE     ---       #591
      00FF991FH   LINE      CODE     ---       #593
      00FF9932H   LINE      CODE     ---       #594
      00FF9947H   LINE      CODE     ---       #596
      00FF994AH   LINE      CODE     ---       #598
      00FF994AH   LINE      CODE     ---       #600
      00FF995DH   LINE      CODE     ---       #601
      00FF9972H   LINE      CODE     ---       #603
      00FF9975H   LINE      CODE     ---       #605
      00FF9975H   LINE      CODE     ---       #607
      00FF9988H   LINE      CODE     ---       #608
      00FF999DH   LINE      CODE     ---       #610
      00FF99A0H   LINE      CODE     ---       #612
      00FF99A0H   LINE      CODE     ---       #614
      00FF99B3H   LINE      CODE     ---       #615
      00FF99C8H   LINE      CODE     ---       #617
      00FF99CAH   LINE      CODE     ---       #619
      00FF99CAH   LINE      CODE     ---       #621
      00FF99DDH   LINE      CODE     ---       #622
      00FF99F2H   LINE      CODE     ---       #624
      00FF99F4H   LINE      CODE     ---       #626
      00FF99F4H   LINE      CODE     ---       #628
      00FF9A07H   LINE      CODE     ---       #629
      00FF9A1CH   LINE      CODE     ---       #631
      00FF9A1EH   LINE      CODE     ---       #633
      00FF9A1EH   LINE      CODE     ---       #635
      00FF9A2EH   LINE      CODE     ---       #637
      00FF9A2EH   LINE      CODE     ---       #638
      00FF9A2EH   LINE      CODE     ---       #639
      ---         BLOCKEND  ---      ---       LVL=0

      00FFA951H   BLOCK     CODE     ---       LVL=0
      WR14        REGSYM    ---      INT       pin
      0001156CH   SYMBOL    XDATA    INT       dir
      0001156EH   SYMBOL    XDATA    BYTE      dat
      WR12        REGSYM    ---      INT       mode
L251 LINKER/LOCATER V4.66.93.0                                                        11/01/2025  17:49:51  PAGE 69


      00FFA951H   LINE      CODE     ---       #650
      00FFA961H   LINE      CODE     ---       #652
      00FFA989H   LINE      CODE     ---       #654
      00FFA995H   LINE      CODE     ---       #656
      00FFA99EH   LINE      CODE     ---       #657
      00FFA9A5H   LINE      CODE     ---       #658
      00FFA9A7H   LINE      CODE     ---       #659
      00FFA9B1H   LINE      CODE     ---       #661
      00FFA9B5H   LINE      CODE     ---       #663
      00FFA9BAH   LINE      CODE     ---       #664
      00FFA9BCH   LINE      CODE     ---       #667
      00FFA9C3H   LINE      CODE     ---       #668
      00FFA9CAH   LINE      CODE     ---       #669
      00FFA9CAH   LINE      CODE     ---       #670
      00FFA9CCH   LINE      CODE     ---       #671
      00FFA9D8H   LINE      CODE     ---       #673
      00FFA9DEH   LINE      CODE     ---       #675
      00FFA9E7H   LINE      CODE     ---       #676
      00FFA9F0H   LINE      CODE     ---       #677
      00FFA9F2H   LINE      CODE     ---       #678
      00FFA9F8H   LINE      CODE     ---       #680
      00FFAA01H   LINE      CODE     ---       #681
      00FFAA01H   LINE      CODE     ---       #683
      00FFAA0AH   LINE      CODE     ---       #684
      ---         BLOCKEND  ---      ---       LVL=0

      ---         MODULE    ---      ---       zf_driver_pit
      00FF8C39H   PUBLIC    CODE     ---       pit_init
      000000D0H   SFRSYM    DATA     BYTE      PSW
      0000009DH   SFRSYM    DATA     BYTE      IRCBAND
      00000097H   SFRSYM    DATA     BYTE      AUXR2
      000000EFH   SFRSYM    DATA     BYTE      AUXINTIF
      000000FDH   SFRSYM    DATA     BYTE      S4CON
      000000ACH   SFRSYM    DATA     BYTE      S3CON
      0000009AH   SFRSYM    DATA     BYTE      S2CON
      000000B7H   SFRSYM    DATA     BYTE      IPH
      000000CDH   SFRSYM    DATA     BYTE      SPSTAT
      000000DDH   SFRSYM    DATA     BYTE      T4T3M
      000000C1H   SFRSYM    DATA     BYTE      WDT_CONTR
      00000088H.6 SFRSYM    DATA     BIT       TR1
      00000088H.4 SFRSYM    DATA     BIT       TR0
      000000D3H   SFRSYM    DATA     BYTE      T4L
      000000D5H   SFRSYM    DATA     BYTE      T3L
      000000D7H   SFRSYM    DATA     BYTE      T2L
      0000008BH   SFRSYM    DATA     BYTE      TL1
      0000008AH   SFRSYM    DATA     BYTE      TL0
      000000D2H   SFRSYM    DATA     BYTE      T4H
      000000D4H   SFRSYM    DATA     BYTE      T3H
      000000D6H   SFRSYM    DATA     BYTE      T2H
      0000008DH   SFRSYM    DATA     BYTE      TH1
      0000008CH   SFRSYM    DATA     BYTE      TH0
      000000DFH   SFRSYM    DATA     BYTE      IP3
      000000F4H   SFRSYM    DATA     BYTE      USBCON
      000000B5H   SFRSYM    DATA     BYTE      IP2
      000000FFH   SFRSYM    DATA     BYTE      RSTCFG
      000000A8H.3 SFRSYM    DATA     BIT       ET1
      000000A8H.1 SFRSYM    DATA     BIT       ET0
      000000C7H   SFRSYM    DATA     BYTE      IAP_CONTR
      0000008EH   SFRSYM    DATA     BYTE      AUXR
      000000AFH   SFRSYM    DATA     BYTE      IE2
      00000088H   SFRSYM    DATA     BYTE      TCON
      00000089H   SFRSYM    DATA     BYTE      TMOD
      00000098H   SFRSYM    DATA     BYTE      SCON
      00000087H   SFRSYM    DATA     BYTE      PCON
      000000BCH   SFRSYM    DATA     BYTE      ADC_CONTR
L251 LINKER/LOCATER V4.66.93.0                                                        11/01/2025  17:49:51  PAGE 70


      000000D1H   SFRSYM    DATA     BYTE      PSW1
      000000E7H   SFRSYM    DATA     BYTE      CMPCR2
      000000E6H   SFRSYM    DATA     BYTE      CMPCR1
      000000DEH   SFRSYM    DATA     BYTE      ADCCFG
      000000B8H   SFRSYM    DATA     BYTE      IP
      0000008FH   SFRSYM    DATA     BYTE      INTCLKO
      000000EEH   SFRSYM    DATA     BYTE      IP3H
      000000B6H   SFRSYM    DATA     BYTE      IP2H
      000000BFH   SFRSYM    DATA     BYTE      P_SW4
      000000A8H   SFRSYM    DATA     BYTE      IE
      000000BBH   SFRSYM    DATA     BYTE      P_SW3
      000000BAH   SFRSYM    DATA     BYTE      P_SW2
      000000A2H   SFRSYM    DATA     BYTE      P_SW1
      000000CEH   SFRSYM    DATA     BYTE      SPCTL
      000000F8H   SFRSYM    DATA     BYTE      P7
      000000E8H   SFRSYM    DATA     BYTE      P6
      000000C8H   SFRSYM    DATA     BYTE      P5
      000000C0H   SFRSYM    DATA     BYTE      P4
      000000ABH   SFRSYM    DATA     BYTE      WKTCH
      000000B0H   SFRSYM    DATA     BYTE      P3
      000000A0H   SFRSYM    DATA     BYTE      P2
      00000090H   SFRSYM    DATA     BYTE      P1
      00000080H   SFRSYM    DATA     BYTE      P0

      00FF8C39H   BLOCK     CODE     ---       LVL=0
      WR30        REGSYM    ---      INT       pit_n
      DR24        REGSYM    ---      DWORD     period
      00FF8C3FH   BLOCK     CODE     NEAR LAB  LVL=1
      R15         REGSYM    ---      BYTE      freq_div
      WR22        REGSYM    ---      WORD      period_temp
      WR28        REGSYM    ---      WORD      temp
      ---         BLOCKEND  ---      ---       LVL=1
      00FF8C39H   LINE      CODE     ---       #50
      00FF8C3FH   LINE      CODE     ---       #51
      00FF8C3FH   LINE      CODE     ---       #52
      00FF8C41H   LINE      CODE     ---       #53
      00FF8C43H   LINE      CODE     ---       #54
      00FF8C45H   LINE      CODE     ---       #57
      00FF8C51H   LINE      CODE     ---       #60
      00FF8C5CH   LINE      CODE     ---       #62
      00FF8C60H   LINE      CODE     ---       #64
      00FF8C63H   LINE      CODE     ---       #65
      00FF8C66H   LINE      CODE     ---       #66
      00FF8C6CH   LINE      CODE     ---       #68
      00FF8C6FH   LINE      CODE     ---       #69
      00FF8C72H   LINE      CODE     ---       #70
      00FF8C78H   LINE      CODE     ---       #72
      00FF8C7BH   LINE      CODE     ---       #73
      00FF8C7DH   LINE      CODE     ---       #74
      00FF8C83H   LINE      CODE     ---       #76
      00FF8C86H   LINE      CODE     ---       #77
      00FF8C88H   LINE      CODE     ---       #78
      00FF8C8EH   LINE      CODE     ---       #80
      00FF8C91H   LINE      CODE     ---       #81
      00FF8C93H   LINE      CODE     ---       #82
      00FF8C99H   LINE      CODE     ---       #84
      00FF8CA9H   LINE      CODE     ---       #85
      00FF8CABH   LINE      CODE     ---       #91
      00FF8CAFH   LINE      CODE     ---       #93
      00FF8CB2H   LINE      CODE     ---       #94
      00FF8CB4H   LINE      CODE     ---       #95
      00FF8CBAH   LINE      CODE     ---       #97
      00FF8CBDH   LINE      CODE     ---       #98
      00FF8CBFH   LINE      CODE     ---       #99
      00FF8CC5H   LINE      CODE     ---       #101
L251 LINKER/LOCATER V4.66.93.0                                                        11/01/2025  17:49:51  PAGE 71


      00FF8CC8H   LINE      CODE     ---       #102
      00FF8CCAH   LINE      CODE     ---       #103
      00FF8CD0H   LINE      CODE     ---       #105
      00FF8CD3H   LINE      CODE     ---       #106
      00FF8CD5H   LINE      CODE     ---       #107
      00FF8CDBH   LINE      CODE     ---       #109
      00FF8CDEH   LINE      CODE     ---       #110
      00FF8CE0H   LINE      CODE     ---       #111
      00FF8CE6H   LINE      CODE     ---       #113
      00FF8CF6H   LINE      CODE     ---       #114
      00FF8CF6H   LINE      CODE     ---       #118
      00FF8D06H   LINE      CODE     ---       #119
      00FF8D13H   LINE      CODE     ---       #121
      00FF8D17H   LINE      CODE     ---       #123
      00FF8D1BH   LINE      CODE     ---       #125
      00FF8D26H   LINE      CODE     ---       #126
      00FF8D2AH   LINE      CODE     ---       #127
      00FF8D30H   LINE      CODE     ---       #128
      00FF8D36H   LINE      CODE     ---       #129
      00FF8D38H   LINE      CODE     ---       #130
      00FF8D3AH   LINE      CODE     ---       #131
      00FF8D3DH   LINE      CODE     ---       #132
      00FF8D43H   LINE      CODE     ---       #134
      00FF8D4EH   LINE      CODE     ---       #135
      00FF8D52H   LINE      CODE     ---       #136
      00FF8D58H   LINE      CODE     ---       #137
      00FF8D5EH   LINE      CODE     ---       #138
      00FF8D60H   LINE      CODE     ---       #139
      00FF8D62H   LINE      CODE     ---       #140
      00FF8D65H   LINE      CODE     ---       #141
      00FF8D6BH   LINE      CODE     ---       #143
      00FF8D76H   LINE      CODE     ---       #144
      00FF8D7CH   LINE      CODE     ---       #145
      00FF8D82H   LINE      CODE     ---       #146
      00FF8D85H   LINE      CODE     ---       #147
      00FF8D88H   LINE      CODE     ---       #148
      00FF8D8BH   LINE      CODE     ---       #149
      00FF8D91H   LINE      CODE     ---       #151
      00FF8D9CH   LINE      CODE     ---       #152
      00FF8DA2H   LINE      CODE     ---       #153
      00FF8DA8H   LINE      CODE     ---       #154
      00FF8DABH   LINE      CODE     ---       #155
      00FF8DAEH   LINE      CODE     ---       #156
      00FF8DB0H   LINE      CODE     ---       #157
      00FF8DB6H   LINE      CODE     ---       #159
      00FF8DC1H   LINE      CODE     ---       #160
      00FF8DC7H   LINE      CODE     ---       #161
      00FF8DCDH   LINE      CODE     ---       #162
      00FF8DD0H   LINE      CODE     ---       #163
      00FF8DD3H   LINE      CODE     ---       #164
      00FF8DD5H   LINE      CODE     ---       #165
      00FF8DDBH   LINE      CODE     ---       #167
      00FF8DE6H   LINE      CODE     ---       #168
      00FF8DF5H   LINE      CODE     ---       #169
      00FF8E04H   LINE      CODE     ---       #170
      00FF8E11H   LINE      CODE     ---       #172
      ---         BLOCKEND  ---      ---       LVL=0

      ---         MODULE    ---      ---       zf_driver_pwm
      00FFEC6FH   PUBLIC    HCONST   ---       PWM_PSCR_ADDR
      00FFEC77H   PUBLIC    HCONST   ---       PWM_CCR_ADDR
      00FFEC97H   PUBLIC    HCONST   ---       PWM_ARR_ADDR
      00FFEC9FH   PUBLIC    HCONST   ---       PWM_CCER_ADDR
      00FFECAFH   PUBLIC    HCONST   ---       PWM_CCMR_ADDR
      00FF934DH   PUBLIC    CODE     ---       pwm_set_duty
L251 LINKER/LOCATER V4.66.93.0                                                        11/01/2025  17:49:51  PAGE 72


      00FF608EH   PUBLIC    CODE     ---       pwm_init
      0001155AH   PUBLIC    XDATA    BYTE      ?pwm_init?BYTE
      000000D0H   SFRSYM    DATA     BYTE      PSW
      0000009DH   SFRSYM    DATA     BYTE      IRCBAND
      00000097H   SFRSYM    DATA     BYTE      AUXR2
      000000EFH   SFRSYM    DATA     BYTE      AUXINTIF
      000000FDH   SFRSYM    DATA     BYTE      S4CON
      000000ACH   SFRSYM    DATA     BYTE      S3CON
      0000009AH   SFRSYM    DATA     BYTE      S2CON
      000000B7H   SFRSYM    DATA     BYTE      IPH
      000000CDH   SFRSYM    DATA     BYTE      SPSTAT
      000000DDH   SFRSYM    DATA     BYTE      T4T3M
      000000C1H   SFRSYM    DATA     BYTE      WDT_CONTR
      000000DFH   SFRSYM    DATA     BYTE      IP3
      000000F4H   SFRSYM    DATA     BYTE      USBCON
      000000B5H   SFRSYM    DATA     BYTE      IP2
      000000FFH   SFRSYM    DATA     BYTE      RSTCFG
      000000C7H   SFRSYM    DATA     BYTE      IAP_CONTR
      0000008EH   SFRSYM    DATA     BYTE      AUXR
      000000AFH   SFRSYM    DATA     BYTE      IE2
      00000088H   SFRSYM    DATA     BYTE      TCON
      00000089H   SFRSYM    DATA     BYTE      TMOD
      00000098H   SFRSYM    DATA     BYTE      SCON
      00000087H   SFRSYM    DATA     BYTE      PCON
      000000BCH   SFRSYM    DATA     BYTE      ADC_CONTR
      000000D1H   SFRSYM    DATA     BYTE      PSW1
      000000E7H   SFRSYM    DATA     BYTE      CMPCR2
      000000E6H   SFRSYM    DATA     BYTE      CMPCR1
      000000DEH   SFRSYM    DATA     BYTE      ADCCFG
      000000B8H   SFRSYM    DATA     BYTE      IP
      0000008FH   SFRSYM    DATA     BYTE      INTCLKO
      000000EEH   SFRSYM    DATA     BYTE      IP3H
      000000B6H   SFRSYM    DATA     BYTE      IP2H
      000000BFH   SFRSYM    DATA     BYTE      P_SW4
      000000A8H   SFRSYM    DATA     BYTE      IE
      000000BBH   SFRSYM    DATA     BYTE      P_SW3
      000000BAH   SFRSYM    DATA     BYTE      P_SW2
      000000A2H   SFRSYM    DATA     BYTE      P_SW1
      000000CEH   SFRSYM    DATA     BYTE      SPCTL
      000000F8H   SFRSYM    DATA     BYTE      P7
      000000E8H   SFRSYM    DATA     BYTE      P6
      000000C8H   SFRSYM    DATA     BYTE      P5
      000000C0H   SFRSYM    DATA     BYTE      P4
      000000ABH   SFRSYM    DATA     BYTE      WKTCH
      000000B0H   SFRSYM    DATA     BYTE      P3
      000000A0H   SFRSYM    DATA     BYTE      P2
      00000090H   SFRSYM    DATA     BYTE      P1
      00000080H   SFRSYM    DATA     BYTE      P0
      WR14        REGSYM    ---      INT       pin
      WR12        REGSYM    ---      WORD      freq_div

      00FF934DH   BLOCK     CODE     ---       LVL=0
      WR14        REGSYM    ---      INT       pin
      00011560H   SYMBOL    XDATA    DWORD     duty
      00FF935BH   BLOCK     CODE     NEAR LAB  LVL=1
      00011564H   SYMBOL    XDATA    DWORD     match_temp
      00011568H   SYMBOL    XDATA    DWORD     arr
      ---         BLOCKEND  ---      ---       LVL=1
      00FF934DH   LINE      CODE     ---       #132
      00FF935BH   LINE      CODE     ---       #133
      00FF935BH   LINE      CODE     ---       #135
      00FF93B9H   LINE      CODE     ---       #138
      00FF93DDH   LINE      CODE     ---       #140
      00FF93EDH   LINE      CODE     ---       #142
      00FF9426H   LINE      CODE     ---       #143
L251 LINKER/LOCATER V4.66.93.0                                                        11/01/2025  17:49:51  PAGE 73


      00FF9428H   LINE      CODE     ---       #146
      00FF943EH   LINE      CODE     ---       #147
      00FF943EH   LINE      CODE     ---       #150
      00FF948CH   LINE      CODE     ---       #151
      00FF94DAH   LINE      CODE     ---       #153
      ---         BLOCKEND  ---      ---       LVL=0

      00FF608EH   BLOCK     CODE     ---       LVL=0
      WR14        REGSYM    ---      INT       pin
      0001155CH   SYMBOL    XDATA    DWORD     freq
      00011560H   SYMBOL    XDATA    DWORD     duty
      00FF609CH   BLOCK     CODE     NEAR LAB  LVL=1
      00011564H   SYMBOL    XDATA    WORD      match_temp
      00011566H   SYMBOL    XDATA    DWORD     period_temp
      WR12        REGSYM    ---      WORD      freq_div
      ---         BLOCKEND  ---      ---       LVL=1
      00FF608EH   LINE      CODE     ---       #164
      00FF609CH   LINE      CODE     ---       #165
      00FF609CH   LINE      CODE     ---       #167
      00FF60A4H   LINE      CODE     ---       #168
      00FF60B0H   LINE      CODE     ---       #169
      00FF60B2H   LINE      CODE     ---       #172
      00FF60D6H   LINE      CODE     ---       #174
      00FF60E8H   LINE      CODE     ---       #178
      00FF6105H   LINE      CODE     ---       #179
      00FF6126H   LINE      CODE     ---       #180
      00FF6143H   LINE      CODE     ---       #182
      00FF6153H   LINE      CODE     ---       #184
      00FF6188H   LINE      CODE     ---       #185
      00FF618AH   LINE      CODE     ---       #188
      00FF619CH   LINE      CODE     ---       #189
      00FF619CH   LINE      CODE     ---       #191
      00FF61C6H   LINE      CODE     ---       #192
      00FF61F0H   LINE      CODE     ---       #194
      00FF6222H   LINE      CODE     ---       #195
      00FF6254H   LINE      CODE     ---       #197
      00FF62A0H   LINE      CODE     ---       #198
      00FF62EAH   LINE      CODE     ---       #200
      00FF62F9H   LINE      CODE     ---       #202
      00FF6338H   LINE      CODE     ---       #203
      00FF636DH   LINE      CODE     ---       #204
      00FF63E7H   LINE      CODE     ---       #206
      00FF63F4H   LINE      CODE     ---       #207
      00FF6401H   LINE      CODE     ---       #208
      00FF6404H   LINE      CODE     ---       #209
      00FF6417H   LINE      CODE     ---       #211
      00FF6456H   LINE      CODE     ---       #212
      00FF648BH   LINE      CODE     ---       #213
      00FF64F3H   LINE      CODE     ---       #215
      00FF6500H   LINE      CODE     ---       #216
      00FF650DH   LINE      CODE     ---       #217
      00FF650DH   LINE      CODE     ---       #219
      00FF6554H   LINE      CODE     ---       #220
      00FF659BH   LINE      CODE     ---       #221
      ---         BLOCKEND  ---      ---       LVL=0

      ---         MODULE    ---      ---       zf_driver_soft_iic
      00FFB91EH   PUBLIC    CODE     ---       soft_iic_wait_ack
      00FFBD06H   PUBLIC    CODE     ---       soft_iic_stop
      00FFC5E6H   PUBLIC    CODE     ---       soft_iic_delay
      00FFAB82H   PUBLIC    CODE     ---       soft_iic_read_data
      00FFB3CFH   PUBLIC    CODE     ---       soft_iic_send_data
      00FFBEDBH   PUBLIC    CODE     ---       soft_iic_start
      00FFBA83H   PUBLIC    CODE     ---       soft_iic_send_ack
      000000D0H   SFRSYM    DATA     BYTE      PSW
L251 LINKER/LOCATER V4.66.93.0                                                        11/01/2025  17:49:51  PAGE 74


      0000009DH   SFRSYM    DATA     BYTE      IRCBAND
      00000097H   SFRSYM    DATA     BYTE      AUXR2
      000000EFH   SFRSYM    DATA     BYTE      AUXINTIF
      000000FDH   SFRSYM    DATA     BYTE      S4CON
      000000ACH   SFRSYM    DATA     BYTE      S3CON
      0000009AH   SFRSYM    DATA     BYTE      S2CON
      000000B7H   SFRSYM    DATA     BYTE      IPH
      000000CDH   SFRSYM    DATA     BYTE      SPSTAT
      000000DDH   SFRSYM    DATA     BYTE      T4T3M
      000000C1H   SFRSYM    DATA     BYTE      WDT_CONTR
      000000DFH   SFRSYM    DATA     BYTE      IP3
      000000F4H   SFRSYM    DATA     BYTE      USBCON
      000000B5H   SFRSYM    DATA     BYTE      IP2
      000000FFH   SFRSYM    DATA     BYTE      RSTCFG
      000000C7H   SFRSYM    DATA     BYTE      IAP_CONTR
      0000008EH   SFRSYM    DATA     BYTE      AUXR
      000000AFH   SFRSYM    DATA     BYTE      IE2
      00000088H   SFRSYM    DATA     BYTE      TCON
      00000089H   SFRSYM    DATA     BYTE      TMOD
      00000098H   SFRSYM    DATA     BYTE      SCON
      00000087H   SFRSYM    DATA     BYTE      PCON
      000000BCH   SFRSYM    DATA     BYTE      ADC_CONTR
      000000D1H   SFRSYM    DATA     BYTE      PSW1
      000000E7H   SFRSYM    DATA     BYTE      CMPCR2
      000000E6H   SFRSYM    DATA     BYTE      CMPCR1
      000000DEH   SFRSYM    DATA     BYTE      ADCCFG
      000000B8H   SFRSYM    DATA     BYTE      IP
      0000008FH   SFRSYM    DATA     BYTE      INTCLKO
      000000EEH   SFRSYM    DATA     BYTE      IP3H
      000000B6H   SFRSYM    DATA     BYTE      IP2H
      000000BFH   SFRSYM    DATA     BYTE      P_SW4
      000000A8H   SFRSYM    DATA     BYTE      IE
      000000BBH   SFRSYM    DATA     BYTE      P_SW3
      000000BAH   SFRSYM    DATA     BYTE      P_SW2
      000000A2H   SFRSYM    DATA     BYTE      P_SW1
      000000CEH   SFRSYM    DATA     BYTE      SPCTL
      000000F8H   SFRSYM    DATA     BYTE      P7
      000000E8H   SFRSYM    DATA     BYTE      P6
      000000C8H   SFRSYM    DATA     BYTE      P5
      000000C0H   SFRSYM    DATA     BYTE      P4
      000000ABH   SFRSYM    DATA     BYTE      WKTCH
      000000B0H   SFRSYM    DATA     BYTE      P3
      000000A0H   SFRSYM    DATA     BYTE      P2
      00000090H   SFRSYM    DATA     BYTE      P1
      00000080H   SFRSYM    DATA     BYTE      P0

      00FFC5E6H   BLOCK     CODE     ---       LVL=0
      00011813H   SYMBOL    XDATA    DWORD     delay
      00FFC5F0H   BLOCK     CODE     NEAR LAB  LVL=1
      00011817H   SYMBOL    XDATA    DWORD     count
      ---         BLOCKEND  ---      ---       LVL=1
      00FFC5E6H   LINE      CODE     ---       #53
      00FFC5F0H   LINE      CODE     ---       #54
      00FFC5F0H   LINE      CODE     ---       #55
      00FFC604H   LINE      CODE     ---       #56
      00FFC61DH   LINE      CODE     ---       #57
      ---         BLOCKEND  ---      ---       LVL=0

      00FFBEDBH   BLOCK     CODE     ---       LVL=0
      REG=3       REGSYM    ---      ---       soft_iic_obj
      00FFBEDBH   LINE      CODE     ---       #67
      00FFBEDFH   LINE      CODE     ---       #69
      00FFBEF9H   LINE      CODE     ---       #70
      00FFBF01H   LINE      CODE     ---       #71
      00FFBF0AH   LINE      CODE     ---       #73
L251 LINKER/LOCATER V4.66.93.0                                                        11/01/2025  17:49:51  PAGE 75


      00FFBF15H   LINE      CODE     ---       #74
      00FFBF1DH   LINE      CODE     ---       #75
      00FFBF28H   LINE      CODE     ---       #76
      00FFBF2FH   LINE      CODE     ---       #77
      ---         BLOCKEND  ---      ---       LVL=0

      00FFBD06H   BLOCK     CODE     ---       LVL=0
      REG=3       REGSYM    ---      ---       soft_iic_obj
      00FFBD06H   LINE      CODE     ---       #86
      00FFBD0AH   LINE      CODE     ---       #88
      00FFBD24H   LINE      CODE     ---       #89
      00FFBD2CH   LINE      CODE     ---       #90
      00FFBD33H   LINE      CODE     ---       #92
      00FFBD3EH   LINE      CODE     ---       #93
      00FFBD46H   LINE      CODE     ---       #94
      00FFBD51H   LINE      CODE     ---       #95
      00FFBD5AH   LINE      CODE     ---       #96
      00FFBD65H   LINE      CODE     ---       #97
      ---         BLOCKEND  ---      ---       LVL=0

      00FFBA83H   BLOCK     CODE     ---       LVL=0
      REG=3       REGSYM    ---      ---       soft_iic_obj
      0001184BH   SYMBOL    XDATA    BYTE      ack
      00FFBA83H   LINE      CODE     ---       #107
      00FFBA8BH   LINE      CODE     ---       #109
      00FFBAA5H   LINE      CODE     ---       #110
      00FFBAACH   LINE      CODE     ---       #112
      00FFBAB2H   LINE      CODE     ---       #114
      00FFBABBH   LINE      CODE     ---       #115
      00FFBABDH   LINE      CODE     ---       #118
      00FFBAC5H   LINE      CODE     ---       #119
      00FFBAC5H   LINE      CODE     ---       #121
      00FFBAD0H   LINE      CODE     ---       #122
      00FFBAD8H   LINE      CODE     ---       #123
      00FFBAE3H   LINE      CODE     ---       #124
      00FFBAEAH   LINE      CODE     ---       #125
      00FFBAF3H   LINE      CODE     ---       #126
      ---         BLOCKEND  ---      ---       LVL=0

      00FFB91EH   BLOCK     CODE     ---       LVL=0
      REG=3       REGSYM    ---      ---       soft_iic_obj
      00FFB922H   BLOCK     CODE     NEAR LAB  LVL=1
      0001184CH   SYMBOL    XDATA    BYTE      temp
      ---         BLOCKEND  ---      ---       LVL=1
      00FFB91EH   LINE      CODE     ---       #135
      00FFB922H   LINE      CODE     ---       #136
      00FFB922H   LINE      CODE     ---       #137
      00FFB927H   LINE      CODE     ---       #138
      00FFB941H   LINE      CODE     ---       #140
      00FFB948H   LINE      CODE     ---       #141
      00FFB951H   LINE      CODE     ---       #145
      00FFB95CH   LINE      CODE     ---       #147
      00FFB964H   LINE      CODE     ---       #148
      00FFB96FH   LINE      CODE     ---       #150
      00FFB978H   LINE      CODE     ---       #152
      00FFB97EH   LINE      CODE     ---       #153
      00FFB97EH   LINE      CODE     ---       #154
      00FFB985H   LINE      CODE     ---       #158
      00FFB990H   LINE      CODE     ---       #160
      00FFB994H   LINE      CODE     ---       #161
      ---         BLOCKEND  ---      ---       LVL=0

      00FFB3CFH   BLOCK     CODE     ---       LVL=0
      REG=3       REGSYM    ---      ---       soft_iic_obj
      00011848H   SYMBOL    XDATA    BYTE      dat
L251 LINKER/LOCATER V4.66.93.0                                                        11/01/2025  17:49:51  PAGE 76


      00FFB3D7H   BLOCK     CODE     NEAR LAB  LVL=1
      00011849H   SYMBOL    XDATA    BYTE      temp
      ---         BLOCKEND  ---      ---       LVL=1
      00FFB3CFH   LINE      CODE     ---       #170
      00FFB3D7H   LINE      CODE     ---       #171
      00FFB3D7H   LINE      CODE     ---       #172
      00FFB3DDH   LINE      CODE     ---       #174
      00FFB3F7H   LINE      CODE     ---       #176
      00FFB3F9H   LINE      CODE     ---       #179
      00FFB41EH   LINE      CODE     ---       #180
      00FFB425H   LINE      CODE     ---       #182
      00FFB430H   LINE      CODE     ---       #183
      00FFB438H   LINE      CODE     ---       #184
      00FFB443H   LINE      CODE     ---       #185
      00FFB44AH   LINE      CODE     ---       #186
      00FFB450H   LINE      CODE     ---       #187
      00FFB45DH   LINE      CODE     ---       #188
      ---         BLOCKEND  ---      ---       LVL=0

      00FFAB82H   BLOCK     CODE     ---       LVL=0
      REG=3       REGSYM    ---      ---       soft_iic_obj
      00011845H   SYMBOL    XDATA    BYTE      ack
      00FFAB8AH   BLOCK     CODE     NEAR LAB  LVL=1
      00011846H   SYMBOL    XDATA    BYTE      dat
      00011847H   SYMBOL    XDATA    BYTE      temp
      ---         BLOCKEND  ---      ---       LVL=1
      00FFAB82H   LINE      CODE     ---       #197
      00FFAB8AH   LINE      CODE     ---       #198
      00FFAB8AH   LINE      CODE     ---       #199
      00FFAB8FH   LINE      CODE     ---       #200
      00FFAB95H   LINE      CODE     ---       #201
      00FFABAFH   LINE      CODE     ---       #202
      00FFABB6H   LINE      CODE     ---       #203
      00FFABC1H   LINE      CODE     ---       #204
      00FFABCAH   LINE      CODE     ---       #209
      00FFABCCH   LINE      CODE     ---       #211
      00FFABD3H   LINE      CODE     ---       #212
      00FFABDEH   LINE      CODE     ---       #213
      00FFABE6H   LINE      CODE     ---       #214
      00FFABF1H   LINE      CODE     ---       #215
      00FFAC06H   LINE      CODE     ---       #216
      00FFAC14H   LINE      CODE     ---       #217
      00FFAC1BH   LINE      CODE     ---       #221
      00FFAC26H   LINE      CODE     ---       #222
      00FFAC2FH   LINE      CODE     ---       #223
      00FFAC33H   LINE      CODE     ---       #224
      ---         BLOCKEND  ---      ---       LVL=0
      REG=3       REGSYM    ---      ---       soft_iic_obj
      REG=3       REGSYM    ---      ---       soft_iic_obj
      REG=3       REGSYM    ---      ---       soft_iic_obj
      REG=3       REGSYM    ---      ---       soft_iic_obj
      REG=3       REGSYM    ---      ---       soft_iic_obj
      REG=3       REGSYM    ---      ---       soft_iic_obj
      REG=3       REGSYM    ---      ---       soft_iic_obj
      REG=3       REGSYM    ---      ---       soft_iic_obj
      REG=3       REGSYM    ---      ---       soft_iic_obj
      REG=3       REGSYM    ---      ---       soft_iic_obj
      REG=3       REGSYM    ---      ---       soft_iic_obj
      REG=3       REGSYM    ---      ---       soft_iic_obj
      REG=3       REGSYM    ---      ---       soft_iic_obj
      REG=3       REGSYM    ---      ---       soft_iic_obj
      REG=3       REGSYM    ---      ---       soft_iic_obj
      REG=3       REGSYM    ---      ---       soft_iic_obj
      REG=3       REGSYM    ---      ---       soft_iic_obj
      REG=3       REGSYM    ---      ---       soft_iic_obj
L251 LINKER/LOCATER V4.66.93.0                                                        11/01/2025  17:49:51  PAGE 77


      REG=3       REGSYM    ---      ---       soft_iic_obj
      REG=3       REGSYM    ---      ---       soft_iic_obj
      REG=3       REGSYM    ---      ---       soft_iic_obj

      ---         MODULE    ---      ---       zf_driver_soft_spi
      000000D0H   SFRSYM    DATA     BYTE      PSW
      0000009DH   SFRSYM    DATA     BYTE      IRCBAND
      00000097H   SFRSYM    DATA     BYTE      AUXR2
      000000EFH   SFRSYM    DATA     BYTE      AUXINTIF
      000000FDH   SFRSYM    DATA     BYTE      S4CON
      000000ACH   SFRSYM    DATA     BYTE      S3CON
      0000009AH   SFRSYM    DATA     BYTE      S2CON
      000000B7H   SFRSYM    DATA     BYTE      IPH
      000000CDH   SFRSYM    DATA     BYTE      SPSTAT
      000000DDH   SFRSYM    DATA     BYTE      T4T3M
      000000C1H   SFRSYM    DATA     BYTE      WDT_CONTR
      000000DFH   SFRSYM    DATA     BYTE      IP3
      000000F4H   SFRSYM    DATA     BYTE      USBCON
      000000B5H   SFRSYM    DATA     BYTE      IP2
      000000FFH   SFRSYM    DATA     BYTE      RSTCFG
      000000C7H   SFRSYM    DATA     BYTE      IAP_CONTR
      0000008EH   SFRSYM    DATA     BYTE      AUXR
      000000AFH   SFRSYM    DATA     BYTE      IE2
      00000088H   SFRSYM    DATA     BYTE      TCON
      00000089H   SFRSYM    DATA     BYTE      TMOD
      00000098H   SFRSYM    DATA     BYTE      SCON
      00000087H   SFRSYM    DATA     BYTE      PCON
      000000BCH   SFRSYM    DATA     BYTE      ADC_CONTR
      000000D1H   SFRSYM    DATA     BYTE      PSW1
      000000E7H   SFRSYM    DATA     BYTE      CMPCR2
      000000E6H   SFRSYM    DATA     BYTE      CMPCR1
      000000DEH   SFRSYM    DATA     BYTE      ADCCFG
      000000B8H   SFRSYM    DATA     BYTE      IP
      0000008FH   SFRSYM    DATA     BYTE      INTCLKO
      000000EEH   SFRSYM    DATA     BYTE      IP3H
      000000B6H   SFRSYM    DATA     BYTE      IP2H
      000000BFH   SFRSYM    DATA     BYTE      P_SW4
      000000A8H   SFRSYM    DATA     BYTE      IE
      000000BBH   SFRSYM    DATA     BYTE      P_SW3
      000000BAH   SFRSYM    DATA     BYTE      P_SW2
      000000A2H   SFRSYM    DATA     BYTE      P_SW1
      000000CEH   SFRSYM    DATA     BYTE      SPCTL
      000000F8H   SFRSYM    DATA     BYTE      P7
      000000E8H   SFRSYM    DATA     BYTE      P6
      000000C8H   SFRSYM    DATA     BYTE      P5
      000000C0H   SFRSYM    DATA     BYTE      P4
      000000ABH   SFRSYM    DATA     BYTE      WKTCH
      000000B0H   SFRSYM    DATA     BYTE      P3
      000000A0H   SFRSYM    DATA     BYTE      P2
      00000090H   SFRSYM    DATA     BYTE      P1
      00000080H   SFRSYM    DATA     BYTE      P0
      DR0         REGSYM    ---      DWORD     x
      REG=3       REGSYM    ---      ---       soft_spi_obj
      R10         REGSYM    ---      BYTE      dat
      REG=3       REGSYM    ---      ---       soft_spi_obj
      WR6         REGSYM    ---      WORD      dat
      REG=3       REGSYM    ---      ---       soft_spi_obj
      REG=3       REGSYM    ---      ---       soft_spi_obj
      REG=3       REGSYM    ---      ---       soft_spi_obj
      REG=3       REGSYM    ---      ---       soft_spi_obj
      REG=3       REGSYM    ---      ---       soft_spi_obj
      REG=3       REGSYM    ---      ---       soft_spi_obj
      REG=3       REGSYM    ---      ---       soft_spi_obj
      REG=3       REGSYM    ---      ---       soft_spi_obj
      REG=3       REGSYM    ---      ---       soft_spi_obj
L251 LINKER/LOCATER V4.66.93.0                                                        11/01/2025  17:49:51  PAGE 78


      REG=3       REGSYM    ---      ---       soft_spi_obj
      REG=3       REGSYM    ---      ---       soft_spi_obj
      REG=3       REGSYM    ---      ---       soft_spi_obj
      REG=3       REGSYM    ---      ---       soft_spi_obj
      REG=3       REGSYM    ---      ---       soft_spi_obj
      REG=3       REGSYM    ---      ---       soft_spi_obj
      REG=3       REGSYM    ---      ---       soft_spi_obj
      REG=3       REGSYM    ---      ---       soft_spi_obj
      REG=3       REGSYM    ---      ---       soft_spi_obj
      REG=3       REGSYM    ---      ---       soft_spi_obj

      ---         MODULE    ---      ---       zf_driver_spi
      00FF0003H   PUBLIC    CODE     ---       spi_write_8bit
      00FF659EH   PUBLIC    CODE     ---       spi_init
      00FFC804H   PUBLIC    CODE     ---       spi_write_16bit
      00FFC305H   PUBLIC    CODE     ---       spi_write_dat
      00011558H   PUBLIC    XDATA    BYTE      ?spi_init?BYTE
      000000CFH   SFRSYM    DATA     BYTE      SPDAT
      000000D0H   SFRSYM    DATA     BYTE      PSW
      0000009DH   SFRSYM    DATA     BYTE      IRCBAND
      00000097H   SFRSYM    DATA     BYTE      AUXR2
      000000EFH   SFRSYM    DATA     BYTE      AUXINTIF
      000000FDH   SFRSYM    DATA     BYTE      S4CON
      000000ACH   SFRSYM    DATA     BYTE      S3CON
      0000009AH   SFRSYM    DATA     BYTE      S2CON
      0000009BH   SFRSYM    DATA     BYTE      S2BUF
      000000B7H   SFRSYM    DATA     BYTE      IPH
      000000CDH   SFRSYM    DATA     BYTE      SPSTAT
      000000DDH   SFRSYM    DATA     BYTE      T4T3M
      000000C1H   SFRSYM    DATA     BYTE      WDT_CONTR
      000000DFH   SFRSYM    DATA     BYTE      IP3
      000000F4H   SFRSYM    DATA     BYTE      USBCON
      000000B5H   SFRSYM    DATA     BYTE      IP2
      000000FFH   SFRSYM    DATA     BYTE      RSTCFG
      000000C7H   SFRSYM    DATA     BYTE      IAP_CONTR
      0000008EH   SFRSYM    DATA     BYTE      AUXR
      000000AFH   SFRSYM    DATA     BYTE      IE2
      00000088H   SFRSYM    DATA     BYTE      TCON
      00000089H   SFRSYM    DATA     BYTE      TMOD
      00000098H   SFRSYM    DATA     BYTE      SCON
      00000087H   SFRSYM    DATA     BYTE      PCON
      00000099H   SFRSYM    DATA     BYTE      SBUF
      000000BCH   SFRSYM    DATA     BYTE      ADC_CONTR
      000000D1H   SFRSYM    DATA     BYTE      PSW1
      000000E7H   SFRSYM    DATA     BYTE      CMPCR2
      000000E6H   SFRSYM    DATA     BYTE      CMPCR1
      0000009AH.1 SFRSYM    DATA     BIT       S2TI
      00000098H.1 SFRSYM    DATA     BIT       TI
      000000DEH   SFRSYM    DATA     BYTE      ADCCFG
      000000B8H   SFRSYM    DATA     BYTE      IP
      0000008FH   SFRSYM    DATA     BYTE      INTCLKO
      000000EEH   SFRSYM    DATA     BYTE      IP3H
      000000B6H   SFRSYM    DATA     BYTE      IP2H
      000000BFH   SFRSYM    DATA     BYTE      P_SW4
      000000A8H   SFRSYM    DATA     BYTE      IE
      000000BBH   SFRSYM    DATA     BYTE      P_SW3
      000000BAH   SFRSYM    DATA     BYTE      P_SW2
      000000A2H   SFRSYM    DATA     BYTE      P_SW1
      000000CEH   SFRSYM    DATA     BYTE      SPCTL
      000000F8H   SFRSYM    DATA     BYTE      P7
      000000E8H   SFRSYM    DATA     BYTE      P6
      000000C8H   SFRSYM    DATA     BYTE      P5
      000000C0H   SFRSYM    DATA     BYTE      P4
      000000ABH   SFRSYM    DATA     BYTE      WKTCH
      000000B0H   SFRSYM    DATA     BYTE      P3
L251 LINKER/LOCATER V4.66.93.0                                                        11/01/2025  17:49:51  PAGE 79


      000000A0H   SFRSYM    DATA     BYTE      P2
      00000090H   SFRSYM    DATA     BYTE      P1
      00000080H   SFRSYM    DATA     BYTE      P0

      00FFC305H   BLOCK     CODE     ---       LVL=0
      WR6         REGSYM    ---      INT       spi_n
      R10         REGSYM    ---      BYTE      dat
      00FFC305H   LINE      CODE     ---       #81
      00FFC307H   LINE      CODE     ---       #83
      00FFC313H   LINE      CODE     ---       #85
      00FFC313H   LINE      CODE     ---       #86
      00FFC316H   LINE      CODE     ---       #87
      00FFC319H   LINE      CODE     ---       #88
      00FFC31EH   LINE      CODE     ---       #89
      00FFC320H   LINE      CODE     ---       #90
      00FFC320H   LINE      CODE     ---       #91
      00FFC322H   LINE      CODE     ---       #92
      00FFC325H   LINE      CODE     ---       #93
      00FFC328H   LINE      CODE     ---       #94
      00FFC32AH   LINE      CODE     ---       #95
      00FFC32AH   LINE      CODE     ---       #96
      00FFC32DH   LINE      CODE     ---       #97
      00FFC330H   LINE      CODE     ---       #98
      00FFC334H   LINE      CODE     ---       #99
      00FFC336H   LINE      CODE     ---       #100
      00FFC336H   LINE      CODE     ---       #101
      00FFC346H   LINE      CODE     ---       #102
      00FFC346H   LINE      CODE     ---       #103
      00FFC346H   LINE      CODE     ---       #104
      ---         BLOCKEND  ---      ---       LVL=0
      WR8         REGSYM    ---      INT       spi_n
      R10         REGSYM    ---      BYTE      dat
      R15         REGSYM    ---      BYTE      ret

      00FF0003H   BLOCK     CODE     ---       LVL=0
      WR6         REGSYM    ---      INT       spi_n
      R5          REGSYM    ---      BYTE      dat
      00FF0003H   LINE      CODE     ---       #147
      00FF0005H   LINE      CODE     ---       #149
      00FF0008H   LINE      CODE     ---       #150
      ---         BLOCKEND  ---      ---       LVL=0
      REG=3       REGSYM    ---      ---       dat

      00FFC804H   BLOCK     CODE     ---       LVL=0
      WR12        REGSYM    ---      INT       spi_n
      WR14        REGSYM    ---      WORD      dat
      00FFC804H   LINE      CODE     ---       #175
      00FFC80AH   LINE      CODE     ---       #177
      00FFC816H   LINE      CODE     ---       #178
      00FFC820H   LINE      CODE     ---       #179
      ---         BLOCKEND  ---      ---       LVL=0
      REG=3       REGSYM    ---      ---       dat
      WR14        REGSYM    ---      INT       spi_n
      R5          REGSYM    ---      BYTE      register_name
      R13         REGSYM    ---      BYTE      dat
      R5          REGSYM    ---      BYTE      register_name
      REG=3       REGSYM    ---      ---       dat
      WR14        REGSYM    ---      INT       spi_n
      WR12        REGSYM    ---      WORD      dat
      WR14        REGSYM    ---      INT       spi_n
      WR12        REGSYM    ---      WORD      register_name
      WR6         REGSYM    ---      INT       spi_n
      REG=3       REGSYM    ---      ---       dat
      WR14        REGSYM    ---      INT       spi_n
      WR12        REGSYM    ---      WORD      dat
L251 LINKER/LOCATER V4.66.93.0                                                        11/01/2025  17:49:51  PAGE 80


      REG=3       REGSYM    ---      ---       dat
      WR14        REGSYM    ---      INT       spi_n
      R5          REGSYM    ---      BYTE      register_name
      R5          REGSYM    ---      BYTE      register_name
      REG=3       REGSYM    ---      ---       dat
      WR14        REGSYM    ---      INT       spi_n
      WR12        REGSYM    ---      WORD      register_name
      REG=3       REGSYM    ---      ---       dat
      REG=3       REGSYM    ---      ---       write_buffer
      REG=3       REGSYM    ---      ---       write_buffer

      00FF659EH   BLOCK     CODE     ---       LVL=0
      0001155CH   SYMBOL    XDATA    INT       spi_n
      0001155EH   SYMBOL    XDATA    INT       mode
      DR12        REGSYM    ---      DWORD     baud
      00011560H   SYMBOL    XDATA    INT       sck_pin
      00011562H   SYMBOL    XDATA    INT       mosi_pin
      00011564H   SYMBOL    XDATA    INT       miso_pin
      00011566H   SYMBOL    XDATA    INT       cs_pin
      00FF65AEH   BLOCK     CODE     NEAR LAB  LVL=1
      00011568H   SYMBOL    XDATA    DWORD     spi_psc
      ---         BLOCKEND  ---      ---       LVL=1
      00FF659EH   LINE      CODE     ---       #465
      00FF65AEH   LINE      CODE     ---       #466
      00FF65AEH   LINE      CODE     ---       #467
      00FF65BAH   LINE      CODE     ---       #469
      00FF65D0H   LINE      CODE     ---       #471
      00FF65E0H   LINE      CODE     ---       #473
      00FF65E0H   LINE      CODE     ---       #475
      00FF65F6H   LINE      CODE     ---       #476
      00FF660CH   LINE      CODE     ---       #478
      00FF6618H   LINE      CODE     ---       #480
      00FF662EH   LINE      CODE     ---       #481
      00FF662EH   LINE      CODE     ---       #483
      00FF663AH   LINE      CODE     ---       #485
      00FF664FH   LINE      CODE     ---       #486
      00FF664FH   LINE      CODE     ---       #489
      00FF6655H   LINE      CODE     ---       #491
      00FF6663H   LINE      CODE     ---       #492
      00FF6671H   LINE      CODE     ---       #493
      00FF667DH   LINE      CODE     ---       #495
      00FF668BH   LINE      CODE     ---       #496
      00FF668BH   LINE      CODE     ---       #497
      00FF6697H   LINE      CODE     ---       #499
      00FF66A5H   LINE      CODE     ---       #500
      00FF66A5H   LINE      CODE     ---       #503
      00FF66B2H   LINE      CODE     ---       #505
      00FF66B5H   LINE      CODE     ---       #507
      00FF66D3H   LINE      CODE     ---       #509
      00FF66D3H   LINE      CODE     ---       #510
      00FF66D7H   LINE      CODE     ---       #511
      00FF66D9H   LINE      CODE     ---       #513
      00FF66D9H   LINE      CODE     ---       #514
      00FF66DCH   LINE      CODE     ---       #515
      00FF66DEH   LINE      CODE     ---       #517
      00FF66DEH   LINE      CODE     ---       #518
      00FF66E1H   LINE      CODE     ---       #519
      00FF66E3H   LINE      CODE     ---       #521
      00FF66E3H   LINE      CODE     ---       #522
      00FF66E6H   LINE      CODE     ---       #523
      00FF66E6H   LINE      CODE     ---       #524
      00FF66E6H   LINE      CODE     ---       #526
      00FF66E9H   LINE      CODE     ---       #527
      00FF66ECH   LINE      CODE     ---       #528
      00FF66EFH   LINE      CODE     ---       #531
L251 LINKER/LOCATER V4.66.93.0                                                        11/01/2025  17:49:51  PAGE 81


      00FF6708H   LINE      CODE     ---       #533
      00FF670BH   LINE      CODE     ---       #535
      00FF671BH   LINE      CODE     ---       #537
      00FF671EH   LINE      CODE     ---       #538
      00FF6720H   LINE      CODE     ---       #539
      00FF6730H   LINE      CODE     ---       #541
      00FF6733H   LINE      CODE     ---       #542
      00FF6735H   LINE      CODE     ---       #543
      00FF6745H   LINE      CODE     ---       #545
      00FF6749H   LINE      CODE     ---       #546
      00FF674BH   LINE      CODE     ---       #549
      00FF674EH   LINE      CODE     ---       #550
      00FF674EH   LINE      CODE     ---       #553
      00FF6760H   LINE      CODE     ---       #555
      00FF6760H   LINE      CODE     ---       #556
      00FF6760H   LINE      CODE     ---       #558
      00FF6760H   LINE      CODE     ---       #559
      00FF6763H   LINE      CODE     ---       #560
      00FF6765H   LINE      CODE     ---       #562
      00FF6765H   LINE      CODE     ---       #563
      00FF6768H   LINE      CODE     ---       #564
      00FF676AH   LINE      CODE     ---       #566
      00FF676AH   LINE      CODE     ---       #567
      00FF676DH   LINE      CODE     ---       #568
      00FF676DH   LINE      CODE     ---       #569
      00FF676DH   LINE      CODE     ---       #571
      00FF6770H   LINE      CODE     ---       #572
      00FF6773H   LINE      CODE     ---       #573
      00FF6782H   LINE      CODE     ---       #582
      00FF679AH   LINE      CODE     ---       #585
      00FF679DH   LINE      CODE     ---       #587
      00FF67BBH   LINE      CODE     ---       #589
      00FF67BBH   LINE      CODE     ---       #590
      00FF67BFH   LINE      CODE     ---       #591
      00FF67C1H   LINE      CODE     ---       #593
      00FF67C1H   LINE      CODE     ---       #594
      00FF67C4H   LINE      CODE     ---       #595
      00FF67C6H   LINE      CODE     ---       #597
      00FF67C6H   LINE      CODE     ---       #598
      00FF67C9H   LINE      CODE     ---       #599
      00FF67CBH   LINE      CODE     ---       #601
      00FF67CBH   LINE      CODE     ---       #602
      00FF67CEH   LINE      CODE     ---       #603
      00FF67CEH   LINE      CODE     ---       #604
      00FF67CEH   LINE      CODE     ---       #606
      00FF67D1H   LINE      CODE     ---       #607
      00FF67DEH   LINE      CODE     ---       #611
      00FF67F7H   LINE      CODE     ---       #615
      00FF6807H   LINE      CODE     ---       #617
      00FF6817H   LINE      CODE     ---       #618
      00FF6819H   LINE      CODE     ---       #619
      00FF6829H   LINE      CODE     ---       #621
      00FF6839H   LINE      CODE     ---       #622
      00FF683BH   LINE      CODE     ---       #623
      00FF684BH   LINE      CODE     ---       #625
      00FF6859H   LINE      CODE     ---       #626
      00FF685BH   LINE      CODE     ---       #629
      00FF686BH   LINE      CODE     ---       #630
      00FF686BH   LINE      CODE     ---       #634
      00FF6883H   LINE      CODE     ---       #636
      00FF6883H   LINE      CODE     ---       #637
      00FF6891H   LINE      CODE     ---       #638
      00FF6893H   LINE      CODE     ---       #640
      00FF6893H   LINE      CODE     ---       #641
      00FF68A3H   LINE      CODE     ---       #642
L251 LINKER/LOCATER V4.66.93.0                                                        11/01/2025  17:49:51  PAGE 82


      00FF68A5H   LINE      CODE     ---       #644
      00FF68A5H   LINE      CODE     ---       #645
      00FF68B5H   LINE      CODE     ---       #646
      00FF68B7H   LINE      CODE     ---       #648
      00FF68B7H   LINE      CODE     ---       #649
      00FF68C7H   LINE      CODE     ---       #650
      00FF68C7H   LINE      CODE     ---       #651
      00FF68C7H   LINE      CODE     ---       #653
      00FF68D7H   LINE      CODE     ---       #654
      00FF68DAH   LINE      CODE     ---       #655
      00FF68E9H   LINE      CODE     ---       #664
      00FF6903H   LINE      CODE     ---       #666
      00FF6906H   LINE      CODE     ---       #668
      00FF6924H   LINE      CODE     ---       #670
      00FF6924H   LINE      CODE     ---       #671
      00FF6928H   LINE      CODE     ---       #672
      00FF692AH   LINE      CODE     ---       #674
      00FF692AH   LINE      CODE     ---       #675
      00FF692DH   LINE      CODE     ---       #676
      00FF692FH   LINE      CODE     ---       #678
      00FF692FH   LINE      CODE     ---       #679
      00FF6932H   LINE      CODE     ---       #680
      00FF6934H   LINE      CODE     ---       #682
      00FF6934H   LINE      CODE     ---       #683
      00FF6937H   LINE      CODE     ---       #684
      00FF6937H   LINE      CODE     ---       #685
      00FF6937H   LINE      CODE     ---       #687
      00FF693AH   LINE      CODE     ---       #688
      00FF6947H   LINE      CODE     ---       #692
      00FF6960H   LINE      CODE     ---       #694
      00FF6970H   LINE      CODE     ---       #696
      00FF6980H   LINE      CODE     ---       #697
      00FF6982H   LINE      CODE     ---       #698
      00FF6992H   LINE      CODE     ---       #700
      00FF69A2H   LINE      CODE     ---       #701
      00FF69A4H   LINE      CODE     ---       #702
      00FF69B4H   LINE      CODE     ---       #704
      00FF69C2H   LINE      CODE     ---       #705
      00FF69C4H   LINE      CODE     ---       #708
      00FF69D4H   LINE      CODE     ---       #709
      00FF69D4H   LINE      CODE     ---       #713
      00FF69ECH   LINE      CODE     ---       #715
      00FF69ECH   LINE      CODE     ---       #716
      00FF69FAH   LINE      CODE     ---       #717
      00FF69FCH   LINE      CODE     ---       #719
      00FF69FCH   LINE      CODE     ---       #720
      00FF6A0CH   LINE      CODE     ---       #721
      00FF6A0EH   LINE      CODE     ---       #723
      00FF6A0EH   LINE      CODE     ---       #724
      00FF6A1EH   LINE      CODE     ---       #725
      00FF6A20H   LINE      CODE     ---       #727
      00FF6A20H   LINE      CODE     ---       #728
      00FF6A30H   LINE      CODE     ---       #729
      00FF6A30H   LINE      CODE     ---       #730
      00FF6A30H   LINE      CODE     ---       #732
      00FF6A40H   LINE      CODE     ---       #733
      ---         BLOCKEND  ---      ---       LVL=0

      ---         MODULE    ---      ---       zf_driver_timer
      00FFC080H   PUBLIC    CODE     ---       timer_funciton_check
      000000D0H   SFRSYM    DATA     BYTE      PSW
      0000009DH   SFRSYM    DATA     BYTE      IRCBAND
      00000097H   SFRSYM    DATA     BYTE      AUXR2
      000000EFH   SFRSYM    DATA     BYTE      AUXINTIF
      000000FDH   SFRSYM    DATA     BYTE      S4CON
L251 LINKER/LOCATER V4.66.93.0                                                        11/01/2025  17:49:51  PAGE 83


      000000ACH   SFRSYM    DATA     BYTE      S3CON
      0000009AH   SFRSYM    DATA     BYTE      S2CON
      000000B7H   SFRSYM    DATA     BYTE      IPH
      000000CDH   SFRSYM    DATA     BYTE      SPSTAT
      000000DDH   SFRSYM    DATA     BYTE      T4T3M
      000000C1H   SFRSYM    DATA     BYTE      WDT_CONTR
      000000DFH   SFRSYM    DATA     BYTE      IP3
      000000F4H   SFRSYM    DATA     BYTE      USBCON
      000000B5H   SFRSYM    DATA     BYTE      IP2
      000000FFH   SFRSYM    DATA     BYTE      RSTCFG
      000000C7H   SFRSYM    DATA     BYTE      IAP_CONTR
      0000008EH   SFRSYM    DATA     BYTE      AUXR
      000000AFH   SFRSYM    DATA     BYTE      IE2
      00000088H   SFRSYM    DATA     BYTE      TCON
      00000089H   SFRSYM    DATA     BYTE      TMOD
      00000098H   SFRSYM    DATA     BYTE      SCON
      00000087H   SFRSYM    DATA     BYTE      PCON
      000000BCH   SFRSYM    DATA     BYTE      ADC_CONTR
      000000D1H   SFRSYM    DATA     BYTE      PSW1
      000000E7H   SFRSYM    DATA     BYTE      CMPCR2
      000000E6H   SFRSYM    DATA     BYTE      CMPCR1
      000000DEH   SFRSYM    DATA     BYTE      ADCCFG
      000000B8H   SFRSYM    DATA     BYTE      IP
      0000008FH   SFRSYM    DATA     BYTE      INTCLKO
      000000EEH   SFRSYM    DATA     BYTE      IP3H
      000000B6H   SFRSYM    DATA     BYTE      IP2H
      000000BFH   SFRSYM    DATA     BYTE      P_SW4
      000000A8H   SFRSYM    DATA     BYTE      IE
      000000BBH   SFRSYM    DATA     BYTE      P_SW3
      000000BAH   SFRSYM    DATA     BYTE      P_SW2
      000000A2H   SFRSYM    DATA     BYTE      P_SW1
      000000CEH   SFRSYM    DATA     BYTE      SPCTL
      000000F8H   SFRSYM    DATA     BYTE      P7
      000000E8H   SFRSYM    DATA     BYTE      P6
      000000C8H   SFRSYM    DATA     BYTE      P5
      000000C0H   SFRSYM    DATA     BYTE      P4
      000000ABH   SFRSYM    DATA     BYTE      WKTCH
      000000B0H   SFRSYM    DATA     BYTE      P3
      000000A0H   SFRSYM    DATA     BYTE      P2
      00000090H   SFRSYM    DATA     BYTE      P1
      00000080H   SFRSYM    DATA     BYTE      P0
      000117DAH   SYMBOL    XDATA    ---       timer_function_state

      00FFC080H   BLOCK     CODE     ---       LVL=0
      WR2         REGSYM    ---      INT       index
      WR0         REGSYM    ---      INT       mode
      00FFC084H   BLOCK     CODE     NEAR LAB  LVL=1
      R10         REGSYM    ---      BYTE      return_state
      ---         BLOCKEND  ---      ---       LVL=1
      00FFC080H   LINE      CODE     ---       #58
      00FFC084H   LINE      CODE     ---       #59
      00FFC084H   LINE      CODE     ---       #60
      00FFC087H   LINE      CODE     ---       #61
      00FFC09CH   LINE      CODE     ---       #63
      00FFC0ADH   LINE      CODE     ---       #64
      00FFC0AFH   LINE      CODE     ---       #65
      00FFC0C2H   LINE      CODE     ---       #67
      00FFC0C5H   LINE      CODE     ---       #68
      00FFC0C7H   LINE      CODE     ---       #71
      00FFC0C9H   LINE      CODE     ---       #72
      00FFC0C9H   LINE      CODE     ---       #73
      00FFC0CBH   LINE      CODE     ---       #74
      ---         BLOCKEND  ---      ---       LVL=0

      ---         MODULE    ---      ---       zf_driver_uart
L251 LINKER/LOCATER V4.66.93.0                                                        11/01/2025  17:49:51  PAGE 84


      00FFB460H   PUBLIC    CODE     ---       uart_rx_start_buff
      00FFA0DFH   PUBLIC    CODE     ---       uart_write_buffer
      00FF87DEH   PUBLIC    CODE     ---       uart_init
      00FFC1F4H   PUBLIC    CODE     ---       uart_rx_interrupt
      00FFC8B9H   PUBLIC    CODE     ---       uart_write_byte
      00FF97A2H   PUBLIC    CODE     ---       uart_dma_init
      00FFC0CCH   PUBLIC    CODE     ---       uart_funciton_check
      00FFBD68H   PUBLIC    CODE     ---       uart_query_byte
      000117EEH   PUBLIC    XDATA    ---       uart_rx_buff
      00011558H   PUBLIC    XDATA    BYTE      ?uart_init?BYTE
      000000D0H   SFRSYM    DATA     BYTE      PSW
      0000009DH   SFRSYM    DATA     BYTE      IRCBAND
      00000097H   SFRSYM    DATA     BYTE      AUXR2
      000000EFH   SFRSYM    DATA     BYTE      AUXINTIF
      000000FDH   SFRSYM    DATA     BYTE      S4CON
      000000ACH   SFRSYM    DATA     BYTE      S3CON
      0000009AH   SFRSYM    DATA     BYTE      S2CON
      000000B7H   SFRSYM    DATA     BYTE      IPH
      000000CDH   SFRSYM    DATA     BYTE      SPSTAT
      000000DDH   SFRSYM    DATA     BYTE      T4T3M
      000000C1H   SFRSYM    DATA     BYTE      WDT_CONTR
      00000088H.6 SFRSYM    DATA     BIT       TR1
      000000D7H   SFRSYM    DATA     BYTE      T2L
      000000D6H   SFRSYM    DATA     BYTE      T2H
      000000DFH   SFRSYM    DATA     BYTE      IP3
      000000F4H   SFRSYM    DATA     BYTE      USBCON
      000000B5H   SFRSYM    DATA     BYTE      IP2
      000000FFH   SFRSYM    DATA     BYTE      RSTCFG
      000000C7H   SFRSYM    DATA     BYTE      IAP_CONTR
      0000008EH   SFRSYM    DATA     BYTE      AUXR
      000000AFH   SFRSYM    DATA     BYTE      IE2
      00000088H   SFRSYM    DATA     BYTE      TCON
      00000089H   SFRSYM    DATA     BYTE      TMOD
      00000098H   SFRSYM    DATA     BYTE      SCON
      00000087H   SFRSYM    DATA     BYTE      PCON
      000000BCH   SFRSYM    DATA     BYTE      ADC_CONTR
      000000D1H   SFRSYM    DATA     BYTE      PSW1
      000000E7H   SFRSYM    DATA     BYTE      CMPCR2
      000000E6H   SFRSYM    DATA     BYTE      CMPCR1
      000000DEH   SFRSYM    DATA     BYTE      ADCCFG
      000000B8H   SFRSYM    DATA     BYTE      IP
      0000008FH   SFRSYM    DATA     BYTE      INTCLKO
      000000EEH   SFRSYM    DATA     BYTE      IP3H
      000000B6H   SFRSYM    DATA     BYTE      IP2H
      000000BFH   SFRSYM    DATA     BYTE      P_SW4
      000000A8H   SFRSYM    DATA     BYTE      IE
      000000BBH   SFRSYM    DATA     BYTE      P_SW3
      000000BAH   SFRSYM    DATA     BYTE      P_SW2
      000000A2H   SFRSYM    DATA     BYTE      P_SW1
      000000CEH   SFRSYM    DATA     BYTE      SPCTL
      000000F8H   SFRSYM    DATA     BYTE      P7
      000000E8H   SFRSYM    DATA     BYTE      P6
      000000C8H   SFRSYM    DATA     BYTE      P5
      000000C0H   SFRSYM    DATA     BYTE      P4
      000000ABH   SFRSYM    DATA     BYTE      WKTCH
      000000B0H   SFRSYM    DATA     BYTE      P3
      000000A0H   SFRSYM    DATA     BYTE      P2
      00000090H   SFRSYM    DATA     BYTE      P1
      00000080H   SFRSYM    DATA     BYTE      P0
      000117E6H   SYMBOL    XDATA    ---       uart_function_state

      00FFC0CCH   BLOCK     CODE     ---       LVL=0
      WR2         REGSYM    ---      INT       index
      WR0         REGSYM    ---      INT       mode
      00FFC0D0H   BLOCK     CODE     NEAR LAB  LVL=1
L251 LINKER/LOCATER V4.66.93.0                                                        11/01/2025  17:49:51  PAGE 85


      R10         REGSYM    ---      BYTE      return_state
      ---         BLOCKEND  ---      ---       LVL=1
      00FFC0CCH   LINE      CODE     ---       #83
      00FFC0D0H   LINE      CODE     ---       #84
      00FFC0D0H   LINE      CODE     ---       #85
      00FFC0D3H   LINE      CODE     ---       #86
      00FFC0E8H   LINE      CODE     ---       #88
      00FFC0F9H   LINE      CODE     ---       #89
      00FFC0FBH   LINE      CODE     ---       #90
      00FFC10EH   LINE      CODE     ---       #92
      00FFC111H   LINE      CODE     ---       #93
      00FFC113H   LINE      CODE     ---       #96
      00FFC115H   LINE      CODE     ---       #97
      00FFC115H   LINE      CODE     ---       #98
      00FFC117H   LINE      CODE     ---       #99
      ---         BLOCKEND  ---      ---       LVL=0

      00FFA0DFH   BLOCK     CODE     ---       LVL=0
      WR0         REGSYM    ---      INT       uart_n
      REG=7       REGSYM    ---      ---       buff
      WR8         REGSYM    ---      WORD      len
      00FFA0DFH   LINE      CODE     ---       #108
      00FFA0E5H   LINE      CODE     ---       #112
      00FFA0FFH   LINE      CODE     ---       #113
      00FFA101H   LINE      CODE     ---       #114
      00FFA11BH   LINE      CODE     ---       #115
      00FFA134H   LINE      CODE     ---       #116
      00FFA154H   LINE      CODE     ---       #117
      00FFA170H   LINE      CODE     ---       #118
      00FFA18BH   LINE      CODE     ---       #120
      00FFA1A6H   LINE      CODE     ---       #122
      00FFA1C0H   LINE      CODE     ---       #124
      ---         BLOCKEND  ---      ---       LVL=0
      REG=3       REGSYM    ---      ---       str

      00FFC8B9H   BLOCK     CODE     ---       LVL=0
      WR6         REGSYM    ---      INT       uart_n
      000115D3H   SYMBOL    XDATA    BYTE      dat
      00FFC8B9H   LINE      CODE     ---       #154
      00FFC8BDH   LINE      CODE     ---       #156
      00FFC8CCH   LINE      CODE     ---       #157
      ---         BLOCKEND  ---      ---       LVL=0

      00FFB460H   BLOCK     CODE     ---       LVL=0
      WR8         REGSYM    ---      INT       uart_n
      00FFB460H   LINE      CODE     ---       #165
      00FFB462H   LINE      CODE     ---       #167
      00FFB47CH   LINE      CODE     ---       #168
      00FFB492H   LINE      CODE     ---       #169
      00FFB4B2H   LINE      CODE     ---       #170
      00FFB4D4H   LINE      CODE     ---       #171
      00FFB4EFH   LINE      CODE     ---       #172
      ---         BLOCKEND  ---      ---       LVL=0

      00FFC1F4H   BLOCK     CODE     ---       LVL=0
      WR2         REGSYM    ---      INT       uart_n
      R5          REGSYM    ---      BYTE      status
      00FFC1F4H   LINE      CODE     ---       #183
      00FFC1F8H   LINE      CODE     ---       #185
      00FFC1FCH   LINE      CODE     ---       #187
      00FFC219H   LINE      CODE     ---       #188
      00FFC21BH   LINE      CODE     ---       #191
      00FFC238H   LINE      CODE     ---       #192
      00FFC238H   LINE      CODE     ---       #193
      ---         BLOCKEND  ---      ---       LVL=0
L251 LINKER/LOCATER V4.66.93.0                                                        11/01/2025  17:49:51  PAGE 86


      WR8         REGSYM    ---      INT       uart_n
      R15         REGSYM    ---      BYTE      dat

      00FFBD68H   BLOCK     CODE     ---       LVL=0
      WR2         REGSYM    ---      INT       uart_n
      REG=7       REGSYM    ---      ---       dat
      00FFBD6EH   BLOCK     CODE     NEAR LAB  LVL=1
      R15         REGSYM    ---      BYTE      ret
      ---         BLOCKEND  ---      ---       LVL=1
      00FFBD68H   LINE      CODE     ---       #227
      00FFBD6EH   LINE      CODE     ---       #228
      00FFBD6EH   LINE      CODE     ---       #229
      00FFBD70H   LINE      CODE     ---       #232
      00FFBD80H   LINE      CODE     ---       #234
      00FFBD9CH   LINE      CODE     ---       #236
      00FFBD9FH   LINE      CODE     ---       #238
      00FFBDBCH   LINE      CODE     ---       #239
      00FFBDBEH   LINE      CODE     ---       #242
      00FFBDC0H   LINE      CODE     ---       #243
      00FFBDC0H   LINE      CODE     ---       #246
      00FFBDC5H   LINE      CODE     ---       #248
      00FFBDC7H   LINE      CODE     ---       #249
      ---         BLOCKEND  ---      ---       LVL=0

      00FF97A2H   BLOCK     CODE     ---       LVL=0
      WR8         REGSYM    ---      INT       uart_n
      00FF97A2H   LINE      CODE     ---       #257
      00FF97A4H   LINE      CODE     ---       #259
      00FF97BEH   LINE      CODE     ---       #260
      00FF97D8H   LINE      CODE     ---       #261
      00FF97F2H   LINE      CODE     ---       #263
      00FF980CH   LINE      CODE     ---       #264
      00FF9826H   LINE      CODE     ---       #265
      00FF9840H   LINE      CODE     ---       #267
      00FF985AH   LINE      CODE     ---       #268
      00FF9870H   LINE      CODE     ---       #269
      00FF9890H   LINE      CODE     ---       #270
      00FF98B2H   LINE      CODE     ---       #271
      00FF98CDH   LINE      CODE     ---       #272
      00FF98E8H   LINE      CODE     ---       #274
      ---         BLOCKEND  ---      ---       LVL=0

      00FF87DEH   BLOCK     CODE     ---       LVL=0
      WR12        REGSYM    ---      INT       uart_n
      0001155CH   SYMBOL    XDATA    DWORD     baud
      WR14        REGSYM    ---      INT       tx_pin
      00011560H   SYMBOL    XDATA    INT       rx_pin
      00FF87EEH   BLOCK     CODE     NEAR LAB  LVL=1
      WR6         REGSYM    ---      WORD      brt
      ---         BLOCKEND  ---      ---       LVL=1
      00FF87DEH   LINE      CODE     ---       #286
      00FF87EEH   LINE      CODE     ---       #287
      00FF87EEH   LINE      CODE     ---       #296
      00FF8804H   LINE      CODE     ---       #303
      00FF881EH   LINE      CODE     ---       #308
      00FF884CH   LINE      CODE     ---       #311
      00FF885EH   LINE      CODE     ---       #312
      00FF8872H   LINE      CODE     ---       #314
      00FF88A3H   LINE      CODE     ---       #316
      00FF88C3H   LINE      CODE     ---       #318
      00FF88C3H   LINE      CODE     ---       #332
      00FF88C6H   LINE      CODE     ---       #333
      00FF88CAH   LINE      CODE     ---       #334
      00FF88D0H   LINE      CODE     ---       #335
      00FF88D3H   LINE      CODE     ---       #336
L251 LINKER/LOCATER V4.66.93.0                                                        11/01/2025  17:49:51  PAGE 87


      00FF88D5H   LINE      CODE     ---       #339
      00FF88D8H   LINE      CODE     ---       #341
      00FF88EAH   LINE      CODE     ---       #343
      00FF88EEH   LINE      CODE     ---       #344
      00FF88F1H   LINE      CODE     ---       #345
      00FF8903H   LINE      CODE     ---       #347
      00FF8906H   LINE      CODE     ---       #348
      00FF8909H   LINE      CODE     ---       #349
      00FF891BH   LINE      CODE     ---       #351
      00FF891EH   LINE      CODE     ---       #352
      00FF8921H   LINE      CODE     ---       #353
      00FF8939H   LINE      CODE     ---       #355
      00FF893CH   LINE      CODE     ---       #356
      00FF893CH   LINE      CODE     ---       #359
      00FF893FH   LINE      CODE     ---       #362
      00FF893FH   LINE      CODE     ---       #366
      00FF8942H   LINE      CODE     ---       #367
      00FF8946H   LINE      CODE     ---       #368
      00FF894CH   LINE      CODE     ---       #369
      00FF894FH   LINE      CODE     ---       #372
      00FF8952H   LINE      CODE     ---       #374
      00FF8964H   LINE      CODE     ---       #376
      00FF8968H   LINE      CODE     ---       #377
      00FF896BH   LINE      CODE     ---       #378
      00FF8983H   LINE      CODE     ---       #380
      00FF8986H   LINE      CODE     ---       #381
      00FF8986H   LINE      CODE     ---       #385
      00FF8989H   LINE      CODE     ---       #388
      00FF8989H   LINE      CODE     ---       #392
      00FF898CH   LINE      CODE     ---       #393
      00FF8990H   LINE      CODE     ---       #394
      00FF8996H   LINE      CODE     ---       #395
      00FF8999H   LINE      CODE     ---       #405
      00FF899CH   LINE      CODE     ---       #407
      00FF89AEH   LINE      CODE     ---       #409
      00FF89B2H   LINE      CODE     ---       #410
      00FF89B4H   LINE      CODE     ---       #411
      00FF89C6H   LINE      CODE     ---       #413
      00FF89C9H   LINE      CODE     ---       #414
      00FF89C9H   LINE      CODE     ---       #418
      00FF89CBH   LINE      CODE     ---       #421
      00FF89CBH   LINE      CODE     ---       #425
      00FF89CEH   LINE      CODE     ---       #426
      00FF89D2H   LINE      CODE     ---       #427
      00FF89D8H   LINE      CODE     ---       #428
      00FF89DBH   LINE      CODE     ---       #438
      00FF89DEH   LINE      CODE     ---       #440
      00FF89F0H   LINE      CODE     ---       #442
      00FF89F4H   LINE      CODE     ---       #443
      00FF89F6H   LINE      CODE     ---       #444
      00FF8A08H   LINE      CODE     ---       #448
      00FF8A0BH   LINE      CODE     ---       #449
      00FF8A0BH   LINE      CODE     ---       #453
      00FF8A0BH   LINE      CODE     ---       #456
      00FF8A0BH   LINE      CODE     ---       #459
      00FF8A10H   LINE      CODE     ---       #461
      ---         BLOCKEND  ---      ---       LVL=0

      ---         MODULE    ---      ---       zf_device_config
      00FF021EH   PUBLIC    CODE     ---       imu660ra_config_file

      ---         MODULE    ---      ---       zf_device_type
      0001181BH   PUBLIC    XDATA    ---       tof_module_exti_handler
      0001181DH   PUBLIC    XDATA    INT       wireless_type
      0001181FH   PUBLIC    XDATA    INT       tof_type
L251 LINKER/LOCATER V4.66.93.0                                                        11/01/2025  17:49:51  PAGE 88


      00011821H   PUBLIC    XDATA    INT       gps_type
      000000D0H   SFRSYM    DATA     BYTE      PSW
      0000009DH   SFRSYM    DATA     BYTE      IRCBAND
      00000097H   SFRSYM    DATA     BYTE      AUXR2
      000000EFH   SFRSYM    DATA     BYTE      AUXINTIF
      000000FDH   SFRSYM    DATA     BYTE      S4CON
      000000ACH   SFRSYM    DATA     BYTE      S3CON
      0000009AH   SFRSYM    DATA     BYTE      S2CON
      000000B7H   SFRSYM    DATA     BYTE      IPH
      000000CDH   SFRSYM    DATA     BYTE      SPSTAT
      000000DDH   SFRSYM    DATA     BYTE      T4T3M
      000000C1H   SFRSYM    DATA     BYTE      WDT_CONTR
      000000DFH   SFRSYM    DATA     BYTE      IP3
      000000F4H   SFRSYM    DATA     BYTE      USBCON
      000000B5H   SFRSYM    DATA     BYTE      IP2
      000000FFH   SFRSYM    DATA     BYTE      RSTCFG
      000000C7H   SFRSYM    DATA     BYTE      IAP_CONTR
      0000008EH   SFRSYM    DATA     BYTE      AUXR
      000000AFH   SFRSYM    DATA     BYTE      IE2
      00000088H   SFRSYM    DATA     BYTE      TCON
      00000089H   SFRSYM    DATA     BYTE      TMOD
      00000098H   SFRSYM    DATA     BYTE      SCON
      00000087H   SFRSYM    DATA     BYTE      PCON
      000000BCH   SFRSYM    DATA     BYTE      ADC_CONTR
      000000D1H   SFRSYM    DATA     BYTE      PSW1
      000000E7H   SFRSYM    DATA     BYTE      CMPCR2
      000000E6H   SFRSYM    DATA     BYTE      CMPCR1
      000000DEH   SFRSYM    DATA     BYTE      ADCCFG
      000000B8H   SFRSYM    DATA     BYTE      IP
      0000008FH   SFRSYM    DATA     BYTE      INTCLKO
      000000EEH   SFRSYM    DATA     BYTE      IP3H
      000000B6H   SFRSYM    DATA     BYTE      IP2H
      000000BFH   SFRSYM    DATA     BYTE      P_SW4
      000000A8H   SFRSYM    DATA     BYTE      IE
      000000BBH   SFRSYM    DATA     BYTE      P_SW3
      000000BAH   SFRSYM    DATA     BYTE      P_SW2
      000000A2H   SFRSYM    DATA     BYTE      P_SW1
      000000CEH   SFRSYM    DATA     BYTE      SPCTL
      000000F8H   SFRSYM    DATA     BYTE      P7
      000000E8H   SFRSYM    DATA     BYTE      P6
      000000C8H   SFRSYM    DATA     BYTE      P5
      000000C0H   SFRSYM    DATA     BYTE      P4
      000000ABH   SFRSYM    DATA     BYTE      WKTCH
      000000B0H   SFRSYM    DATA     BYTE      P3
      000000A0H   SFRSYM    DATA     BYTE      P2
      00000090H   SFRSYM    DATA     BYTE      P1
      00000080H   SFRSYM    DATA     BYTE      P0
      WR6         REGSYM    ---      INT       type_set
      WR4         REGSYM    ---      INT       uartx
      REG=0       REGSYM    ---      ---       uart_callback
      WR6         REGSYM    ---      INT       type_set
      REG=0       REGSYM    ---      ---       exti_callback
      WR6         REGSYM    ---      INT       type_set
      WR4         REGSYM    ---      INT       uartx
      REG=0       REGSYM    ---      ---       uart_callback

      ---         MODULE    ---      ---       zf_device_tft180
      00FF786FH   PUBLIC    CODE     ---       tft180_init
      00FF8FE9H   PUBLIC    CODE     ---       tft180_show_float
      00FFAD95H   PUBLIC    CODE     ---       tft180_show_string
      00FFA2A2H   PUBLIC    CODE     ---       tft180_show_char
      00FF000EH   PUBLIC    CODE     ---       tft180_set_color
      00FF9B64H   PUBLIC    CODE     ---       tft180_show_int16
      00FFC795H   PUBLIC    CODE     ---       tft180_set_dir
      00FFBC39H   PUBLIC    CODE     ---       tft180_clear
L251 LINKER/LOCATER V4.66.93.0                                                        11/01/2025  17:49:51  PAGE 89


      00011823H   PUBLIC    XDATA    WORD      tft180_pencolor
      00011825H   PUBLIC    XDATA    WORD      tft180_bgcolor
      00011827H   PUBLIC    XDATA    INT       tft180_display_dir
      00011829H   PUBLIC    XDATA    BYTE      tft180_x_max
      0001182AH   PUBLIC    XDATA    BYTE      tft180_y_max
      0001155AH   PUBLIC    XDATA    BYTE      ?tft180_show_float?BYTE
      000000D0H   SFRSYM    DATA     BYTE      PSW
      0000009DH   SFRSYM    DATA     BYTE      IRCBAND
      00000097H   SFRSYM    DATA     BYTE      AUXR2
      000000EFH   SFRSYM    DATA     BYTE      AUXINTIF
      000000FDH   SFRSYM    DATA     BYTE      S4CON
      000000ACH   SFRSYM    DATA     BYTE      S3CON
      0000009AH   SFRSYM    DATA     BYTE      S2CON
      000000B7H   SFRSYM    DATA     BYTE      IPH
      000000CDH   SFRSYM    DATA     BYTE      SPSTAT
      000000DDH   SFRSYM    DATA     BYTE      T4T3M
      000000C1H   SFRSYM    DATA     BYTE      WDT_CONTR
      000000DFH   SFRSYM    DATA     BYTE      IP3
      000000F4H   SFRSYM    DATA     BYTE      USBCON
      000000B5H   SFRSYM    DATA     BYTE      IP2
      000000FFH   SFRSYM    DATA     BYTE      RSTCFG
      000000C7H   SFRSYM    DATA     BYTE      IAP_CONTR
      0000008EH   SFRSYM    DATA     BYTE      AUXR
      000000AFH   SFRSYM    DATA     BYTE      IE2
      00000088H   SFRSYM    DATA     BYTE      TCON
      00000089H   SFRSYM    DATA     BYTE      TMOD
      00000098H   SFRSYM    DATA     BYTE      SCON
      000000A0H.2 SFRSYM    DATA     BIT       P22
      000000A0H.1 SFRSYM    DATA     BIT       P21
      000000A0H.0 SFRSYM    DATA     BIT       P20
      00000087H   SFRSYM    DATA     BYTE      PCON
      000000BCH   SFRSYM    DATA     BYTE      ADC_CONTR
      000000D1H   SFRSYM    DATA     BYTE      PSW1
      000000E7H   SFRSYM    DATA     BYTE      CMPCR2
      000000E6H   SFRSYM    DATA     BYTE      CMPCR1
      000000DEH   SFRSYM    DATA     BYTE      ADCCFG
      000000B8H   SFRSYM    DATA     BYTE      IP
      0000008FH   SFRSYM    DATA     BYTE      INTCLKO
      000000EEH   SFRSYM    DATA     BYTE      IP3H
      000000B6H   SFRSYM    DATA     BYTE      IP2H
      000000BFH   SFRSYM    DATA     BYTE      P_SW4
      000000A8H   SFRSYM    DATA     BYTE      IE
      000000BBH   SFRSYM    DATA     BYTE      P_SW3
      000000BAH   SFRSYM    DATA     BYTE      P_SW2
      000000A2H   SFRSYM    DATA     BYTE      P_SW1
      000000CEH   SFRSYM    DATA     BYTE      SPCTL
      000000F8H   SFRSYM    DATA     BYTE      P7
      000000E8H   SFRSYM    DATA     BYTE      P6
      000000C8H   SFRSYM    DATA     BYTE      P5
      000000C0H   SFRSYM    DATA     BYTE      P4
      000000ABH   SFRSYM    DATA     BYTE      WKTCH
      000000B0H   SFRSYM    DATA     BYTE      P3
      000000A0H   SFRSYM    DATA     BYTE      P2
      00000090H   SFRSYM    DATA     BYTE      P1
      00000080H   SFRSYM    DATA     BYTE      P0
      00FF9C97H   SYMBOL    CODE     ---       tft180_set_region
      00FFC88DH   SYMBOL    CODE     ---       tft180_write_index

      00FFC88DH   BLOCK     CODE     ---       LVL=0
      R5          REGSYM    ---      BYTE      dat
      00FFC88DH   LINE      CODE     ---       #80
      00FFC88FH   LINE      CODE     ---       #82
      00FFC891H   LINE      CODE     ---       #83
      00FFC893H   LINE      CODE     ---       #84
      00FFC895H   LINE      CODE     ---       #85
L251 LINKER/LOCATER V4.66.93.0                                                        11/01/2025  17:49:51  PAGE 90


      00FFC89CH   LINE      CODE     ---       #86
      00FFC89EH   LINE      CODE     ---       #87
      00FFC8A0H   LINE      CODE     ---       #88
      00FFC8A2H   LINE      CODE     ---       #89
      ---         BLOCKEND  ---      ---       LVL=0

      00FF9C97H   BLOCK     CODE     ---       LVL=0
      00011597H   SYMBOL    XDATA    WORD      x1
      00011599H   SYMBOL    XDATA    WORD      y1
      WR12        REGSYM    ---      WORD      x2
      WR14        REGSYM    ---      WORD      y2
      00FF9C97H   LINE      CODE     ---       #100
      00FF9CA9H   LINE      CODE     ---       #102
      00FF9CCDH   LINE      CODE     ---       #103
      00FF9CF1H   LINE      CODE     ---       #104
      00FF9D0FH   LINE      CODE     ---       #105
      00FF9D2DH   LINE      CODE     ---       #107
      00FF9D43H   LINE      CODE     ---       #109
      00FF9D48H   LINE      CODE     ---       #110
      00FF9D55H   LINE      CODE     ---       #111
      00FF9D5EH   LINE      CODE     ---       #113
      00FF9D63H   LINE      CODE     ---       #114
      00FF9D70H   LINE      CODE     ---       #115
      00FF9D79H   LINE      CODE     ---       #116
      00FF9D7BH   LINE      CODE     ---       #119
      00FF9D80H   LINE      CODE     ---       #120
      00FF9D8DH   LINE      CODE     ---       #121
      00FF9D96H   LINE      CODE     ---       #123
      00FF9D9BH   LINE      CODE     ---       #124
      00FF9DA8H   LINE      CODE     ---       #125
      00FF9DB1H   LINE      CODE     ---       #126
      00FF9DB1H   LINE      CODE     ---       #127
      00FF9DB6H   LINE      CODE     ---       #128
      ---         BLOCKEND  ---      ---       LVL=0

      00FFBC39H   BLOCK     CODE     ---       LVL=0
      WR14        REGSYM    ---      WORD      color
      00FFBC3DH   BLOCK     CODE     NEAR LAB  LVL=1
      0001155CH   SYMBOL    XDATA    DWORD     i
      ---         BLOCKEND  ---      ---       LVL=1
      00FFBC39H   LINE      CODE     ---       #138
      00FFBC3DH   LINE      CODE     ---       #139
      00FFBC3DH   LINE      CODE     ---       #140
      00FFBC5AH   LINE      CODE     ---       #142
      00FFBC71H   LINE      CODE     ---       #143
      00FFBC73H   LINE      CODE     ---       #145
      00FFBC7AH   LINE      CODE     ---       #146
      00FFBC9DH   LINE      CODE     ---       #147
      ---         BLOCKEND  ---      ---       LVL=0

      00FFC795H   BLOCK     CODE     ---       LVL=0
      WR6         REGSYM    ---      INT       dir
      00FFC795H   LINE      CODE     ---       #155
      00FFC795H   LINE      CODE     ---       #157
      00FFC79BH   LINE      CODE     ---       #158
      00FFC7A1H   LINE      CODE     ---       #160
      00FFC7A7H   LINE      CODE     ---       #161
      00FFC7ADH   LINE      CODE     ---       #162
      00FFC7AFH   LINE      CODE     ---       #165
      00FFC7B5H   LINE      CODE     ---       #166
      00FFC7BBH   LINE      CODE     ---       #167
      00FFC7BBH   LINE      CODE     ---       #168
      ---         BLOCKEND  ---      ---       LVL=0

      00FF000EH   BLOCK     CODE     ---       LVL=0
L251 LINKER/LOCATER V4.66.93.0                                                        11/01/2025  17:49:51  PAGE 91


      WR6         REGSYM    ---      WORD      pen
      WR4         REGSYM    ---      WORD      bgcolor
      00FF000EH   LINE      CODE     ---       #177
      00FF000EH   LINE      CODE     ---       #179
      00FF0014H   LINE      CODE     ---       #180
      00FF001AH   LINE      CODE     ---       #181
      ---         BLOCKEND  ---      ---       LVL=0
      WR12        REGSYM    ---      WORD      x
      WR14        REGSYM    ---      WORD      y

      00FFA2A2H   BLOCK     CODE     ---       LVL=0
      WR12        REGSYM    ---      WORD      x
      WR14        REGSYM    ---      WORD      y
      00011593H   SYMBOL    XDATA    CHAR      dat
      00FFA2ACH   BLOCK     CODE     NEAR LAB  LVL=1
      00011594H   SYMBOL    XDATA    BYTE      i
      00011595H   SYMBOL    XDATA    BYTE      j
      00011596H   SYMBOL    XDATA    BYTE      temp
      ---         BLOCKEND  ---      ---       LVL=1
      00FFA2A2H   LINE      CODE     ---       #208
      00FFA2ACH   LINE      CODE     ---       #209
      00FFA2ACH   LINE      CODE     ---       #213
      00FFA2CAH   LINE      CODE     ---       #214
      00FFA2E8H   LINE      CODE     ---       #216
      00FFA2F0H   LINE      CODE     ---       #218
      00FFA30BH   LINE      CODE     ---       #219
      00FFA331H   LINE      CODE     ---       #220
      00FFA338H   LINE      CODE     ---       #222
      00FFA33FH   LINE      CODE     ---       #223
      00FFA34CH   LINE      CODE     ---       #225
      00FFA357H   LINE      CODE     ---       #226
      00FFA35EH   LINE      CODE     ---       #227
      00FFA36DH   LINE      CODE     ---       #228
      00FFA37FH   LINE      CODE     ---       #229
      ---         BLOCKEND  ---      ---       LVL=0

      00FFAD95H   BLOCK     CODE     ---       LVL=0
      0001158DH   SYMBOL    XDATA    WORD      x
      0001158FH   SYMBOL    XDATA    WORD      y
      REG=3       REGSYM    ---      ---       dat
      00FFADA5H   BLOCK     CODE     NEAR LAB  LVL=1
      00011591H   SYMBOL    XDATA    WORD      j
      ---         BLOCKEND  ---      ---       LVL=1
      00FFAD95H   LINE      CODE     ---       #239
      00FFADA5H   LINE      CODE     ---       #240
      00FFADA5H   LINE      CODE     ---       #241
      00FFADADH   LINE      CODE     ---       #243
      00FFADD1H   LINE      CODE     ---       #244
      00FFADF5H   LINE      CODE     ---       #247
      00FFADF7H   LINE      CODE     ---       #249
      00FFAE21H   LINE      CODE     ---       #250
      00FFAE2CH   LINE      CODE     ---       #251
      00FFAE3BH   LINE      CODE     ---       #252
      ---         BLOCKEND  ---      ---       LVL=0
      WR12        REGSYM    ---      WORD      x
      WR14        REGSYM    ---      WORD      y
      WR12        REGSYM    ---      WORD      x
      WR14        REGSYM    ---      WORD      y

      00FF9B64H   BLOCK     CODE     ---       LVL=0
      WR12        REGSYM    ---      WORD      x
      WR14        REGSYM    ---      WORD      y
      0001155CH   SYMBOL    XDATA    INT       dat
      00FF9B70H   BLOCK     CODE     NEAR LAB  LVL=1
      0001155EH   SYMBOL    XDATA    ---       a
L251 LINKER/LOCATER V4.66.93.0                                                        11/01/2025  17:49:51  PAGE 92


      00011563H   SYMBOL    XDATA    BYTE      i
      ---         BLOCKEND  ---      ---       LVL=1
      00FF9B64H   LINE      CODE     ---       #326
      00FF9B70H   LINE      CODE     ---       #327
      00FF9B70H   LINE      CODE     ---       #331
      00FF9B8EH   LINE      CODE     ---       #332
      00FF9BACH   LINE      CODE     ---       #334
      00FF9BB8H   LINE      CODE     ---       #336
      00FF9BC1H   LINE      CODE     ---       #337
      00FF9BD3H   LINE      CODE     ---       #338
      00FF9BD5H   LINE      CODE     ---       #339
      00FF9BDEH   LINE      CODE     ---       #341
      00FF9BF1H   LINE      CODE     ---       #342
      00FF9C0BH   LINE      CODE     ---       #343
      00FF9C25H   LINE      CODE     ---       #344
      00FF9C3FH   LINE      CODE     ---       #345
      00FF9C52H   LINE      CODE     ---       #347
      00FF9C57H   LINE      CODE     ---       #348
      00FF9C59H   LINE      CODE     ---       #350
      00FF9C85H   LINE      CODE     ---       #351
      00FF9C8BH   LINE      CODE     ---       #352
      00FF9C94H   LINE      CODE     ---       #353
      ---         BLOCKEND  ---      ---       LVL=0
      WR12        REGSYM    ---      WORD      x
      WR14        REGSYM    ---      WORD      y
      WR12        REGSYM    ---      WORD      y
      R15         REGSYM    ---      BYTE      num
      R14         REGSYM    ---      BYTE      length

      00FF8FE9H   BLOCK     CODE     ---       LVL=0
      0001155CH   SYMBOL    XDATA    WORD      x
      WR12        REGSYM    ---      WORD      y
      0001155EH   SYMBOL    XDATA    DOUBLE    dat
      R14         REGSYM    ---      BYTE      num
      R15         REGSYM    ---      BYTE      pointnum
      00FF8FF7H   BLOCK     CODE     NEAR LAB  LVL=1
      00011568H   SYMBOL    XDATA    BYTE      length
      00011569H   SYMBOL    XDATA    ---       buff
      0001158BH   SYMBOL    XDATA    CHAR      start
      0001158CH   SYMBOL    XDATA    CHAR      end
      R10         REGSYM    ---      CHAR      point
      ---         BLOCKEND  ---      ---       LVL=1
      00FF8FE9H   LINE      CODE     ---       #437
      00FF8FF7H   LINE      CODE     ---       #438
      00FF8FF7H   LINE      CODE     ---       #443
      00FF901BH   LINE      CODE     ---       #444
      00FF9039H   LINE      CODE     ---       #446
      00FF9041H   LINE      CODE     ---       #447
      00FF9049H   LINE      CODE     ---       #449
      00FF90A3H   LINE      CODE     ---       #452
      00FF90E0H   LINE      CODE     ---       #453
      00FF90E6H   LINE      CODE     ---       #454
      00FF90E6H   LINE      CODE     ---       #455
      00FF90F2H   LINE      CODE     ---       #456
      00FF9100H   LINE      CODE     ---       #457
      00FF910CH   LINE      CODE     ---       #458
      00FF910EH   LINE      CODE     ---       #460
      00FF9124H   LINE      CODE     ---       #461
      00FF912AH   LINE      CODE     ---       #462
      00FF9130H   LINE      CODE     ---       #463
      00FF9139H   LINE      CODE     ---       #465
      00FF916CH   LINE      CODE     ---       #466
      00FF9182H   LINE      CODE     ---       #468
      00FF9197H   LINE      CODE     ---       #470
      00FF91AAH   LINE      CODE     ---       #471
L251 LINKER/LOCATER V4.66.93.0                                                        11/01/2025  17:49:51  PAGE 93


      ---         BLOCKEND  ---      ---       LVL=0
      REG=3       REGSYM    ---      ---       p

      00FF786FH   BLOCK     CODE     ---       LVL=0
      00FF786FH   LINE      CODE     ---       #515
      00FF786FH   LINE      CODE     ---       #520
      00FF78A6H   LINE      CODE     ---       #528
      00FF78AFH   LINE      CODE     ---       #529
      00FF78BEH   LINE      CODE     ---       #531
      00FF78C0H   LINE      CODE     ---       #532
      00FF78C7H   LINE      CODE     ---       #534
      00FF78C9H   LINE      CODE     ---       #535
      00FF78D0H   LINE      CODE     ---       #537
      00FF78D5H   LINE      CODE     ---       #538
      00FF78DCH   LINE      CODE     ---       #540
      00FF78E1H   LINE      CODE     ---       #541
      00FF78E8H   LINE      CODE     ---       #542
      00FF78EFH   LINE      CODE     ---       #543
      00FF78F6H   LINE      CODE     ---       #545
      00FF78FBH   LINE      CODE     ---       #546
      00FF7902H   LINE      CODE     ---       #547
      00FF7909H   LINE      CODE     ---       #548
      00FF7910H   LINE      CODE     ---       #550
      00FF7915H   LINE      CODE     ---       #551
      00FF791CH   LINE      CODE     ---       #552
      00FF7923H   LINE      CODE     ---       #553
      00FF792AH   LINE      CODE     ---       #554
      00FF7931H   LINE      CODE     ---       #555
      00FF7938H   LINE      CODE     ---       #556
      00FF793FH   LINE      CODE     ---       #558
      00FF7944H   LINE      CODE     ---       #559
      00FF794BH   LINE      CODE     ---       #561
      00FF7950H   LINE      CODE     ---       #562
      00FF7957H   LINE      CODE     ---       #563
      00FF795EH   LINE      CODE     ---       #564
      00FF7965H   LINE      CODE     ---       #565
      00FF796AH   LINE      CODE     ---       #566
      00FF7971H   LINE      CODE     ---       #568
      00FF7976H   LINE      CODE     ---       #569
      00FF797DH   LINE      CODE     ---       #570
      00FF7983H   LINE      CODE     ---       #572
      00FF7988H   LINE      CODE     ---       #573
      00FF798FH   LINE      CODE     ---       #574
      00FF7996H   LINE      CODE     ---       #575
      00FF799BH   LINE      CODE     ---       #576
      00FF79A2H   LINE      CODE     ---       #577
      00FF79A9H   LINE      CODE     ---       #579
      00FF79AEH   LINE      CODE     ---       #580
      00FF79B5H   LINE      CODE     ---       #582
      00FF79BAH   LINE      CODE     ---       #583
      00FF79D2H   LINE      CODE     ---       #585
      00FF79DBH   LINE      CODE     ---       #586
      00FF79E3H   LINE      CODE     ---       #587
      00FF79ECH   LINE      CODE     ---       #588
      00FF79F3H   LINE      CODE     ---       #589
      00FF79F3H   LINE      CODE     ---       #591
      00FF79F8H   LINE      CODE     ---       #592
      00FF79FFH   LINE      CODE     ---       #593
      00FF7A06H   LINE      CODE     ---       #594
      00FF7A0DH   LINE      CODE     ---       #595
      00FF7A14H   LINE      CODE     ---       #596
      00FF7A1BH   LINE      CODE     ---       #597
      00FF7A22H   LINE      CODE     ---       #598
      00FF7A29H   LINE      CODE     ---       #599
      00FF7A30H   LINE      CODE     ---       #600
L251 LINKER/LOCATER V4.66.93.0                                                        11/01/2025  17:49:51  PAGE 94


      00FF7A37H   LINE      CODE     ---       #601
      00FF7A3EH   LINE      CODE     ---       #602
      00FF7A45H   LINE      CODE     ---       #603
      00FF7A4CH   LINE      CODE     ---       #604
      00FF7A52H   LINE      CODE     ---       #605
      00FF7A59H   LINE      CODE     ---       #606
      00FF7A60H   LINE      CODE     ---       #607
      00FF7A67H   LINE      CODE     ---       #609
      00FF7A6CH   LINE      CODE     ---       #610
      00FF7A73H   LINE      CODE     ---       #611
      00FF7A7AH   LINE      CODE     ---       #612
      00FF7A81H   LINE      CODE     ---       #613
      00FF7A88H   LINE      CODE     ---       #614
      00FF7A8FH   LINE      CODE     ---       #615
      00FF7A96H   LINE      CODE     ---       #616
      00FF7A9DH   LINE      CODE     ---       #617
      00FF7AA4H   LINE      CODE     ---       #618
      00FF7AABH   LINE      CODE     ---       #619
      00FF7AB2H   LINE      CODE     ---       #620
      00FF7AB9H   LINE      CODE     ---       #621
      00FF7AC0H   LINE      CODE     ---       #622
      00FF7AC6H   LINE      CODE     ---       #623
      00FF7ACDH   LINE      CODE     ---       #624
      00FF7AD4H   LINE      CODE     ---       #625
      00FF7ADBH   LINE      CODE     ---       #627
      00FF7AE0H   LINE      CODE     ---       #628
      00FF7AE6H   LINE      CODE     ---       #629
      00FF7AEDH   LINE      CODE     ---       #630
      00FF7AF3H   LINE      CODE     ---       #631
      00FF7AFAH   LINE      CODE     ---       #633
      00FF7AFFH   LINE      CODE     ---       #634
      00FF7B05H   LINE      CODE     ---       #635
      00FF7B0CH   LINE      CODE     ---       #636
      00FF7B12H   LINE      CODE     ---       #637
      00FF7B19H   LINE      CODE     ---       #639
      00FF7B1EH   LINE      CODE     ---       #640
      00FF7B25H   LINE      CODE     ---       #641
      00FF7B2AH   LINE      CODE     ---       #642
      00FF7B30H   LINE      CODE     ---       #644
      00FF7B35H   LINE      CODE     ---       #645
      00FF7B3CH   LINE      CODE     ---       #646
      00FF7B41H   LINE      CODE     ---       #648
      00FF7B4AH   LINE      CODE     ---       #649
      ---         BLOCKEND  ---      ---       LVL=0

      ---         MODULE    ---      ---       zf_device_ips114
      0001182BH   PUBLIC    XDATA    WORD      ips114_pencolor
      0001182DH   PUBLIC    XDATA    WORD      ips114_bgcolor
      0001182FH   PUBLIC    XDATA    INT       ips114_display_dir
      00011831H   PUBLIC    XDATA    BYTE      ips114_x_max
      00011832H   PUBLIC    XDATA    BYTE      ips114_y_max
      000000D0H   SFRSYM    DATA     BYTE      PSW
      0000009DH   SFRSYM    DATA     BYTE      IRCBAND
      00000097H   SFRSYM    DATA     BYTE      AUXR2
      000000EFH   SFRSYM    DATA     BYTE      AUXINTIF
      000000FDH   SFRSYM    DATA     BYTE      S4CON
      000000ACH   SFRSYM    DATA     BYTE      S3CON
      0000009AH   SFRSYM    DATA     BYTE      S2CON
      000000B7H   SFRSYM    DATA     BYTE      IPH
      000000CDH   SFRSYM    DATA     BYTE      SPSTAT
      000000DDH   SFRSYM    DATA     BYTE      T4T3M
      000000C1H   SFRSYM    DATA     BYTE      WDT_CONTR
      000000DFH   SFRSYM    DATA     BYTE      IP3
      000000F4H   SFRSYM    DATA     BYTE      USBCON
      000000B5H   SFRSYM    DATA     BYTE      IP2
L251 LINKER/LOCATER V4.66.93.0                                                        11/01/2025  17:49:51  PAGE 95


      000000FFH   SFRSYM    DATA     BYTE      RSTCFG
      000000C7H   SFRSYM    DATA     BYTE      IAP_CONTR
      0000008EH   SFRSYM    DATA     BYTE      AUXR
      000000AFH   SFRSYM    DATA     BYTE      IE2
      00000088H   SFRSYM    DATA     BYTE      TCON
      00000089H   SFRSYM    DATA     BYTE      TMOD
      00000098H   SFRSYM    DATA     BYTE      SCON
      000000A0H.2 SFRSYM    DATA     BIT       P22
      000000A0H.1 SFRSYM    DATA     BIT       P21
      000000A0H.0 SFRSYM    DATA     BIT       P20
      00000087H   SFRSYM    DATA     BYTE      PCON
      000000BCH   SFRSYM    DATA     BYTE      ADC_CONTR
      000000D1H   SFRSYM    DATA     BYTE      PSW1
      000000E7H   SFRSYM    DATA     BYTE      CMPCR2
      000000E6H   SFRSYM    DATA     BYTE      CMPCR1
      000000DEH   SFRSYM    DATA     BYTE      ADCCFG
      000000B8H   SFRSYM    DATA     BYTE      IP
      0000008FH   SFRSYM    DATA     BYTE      INTCLKO
      000000EEH   SFRSYM    DATA     BYTE      IP3H
      000000B6H   SFRSYM    DATA     BYTE      IP2H
      000000BFH   SFRSYM    DATA     BYTE      P_SW4
      000000A8H   SFRSYM    DATA     BYTE      IE
      000000BBH   SFRSYM    DATA     BYTE      P_SW3
      000000BAH   SFRSYM    DATA     BYTE      P_SW2
      000000A2H   SFRSYM    DATA     BYTE      P_SW1
      000000CEH   SFRSYM    DATA     BYTE      SPCTL
      000000F8H   SFRSYM    DATA     BYTE      P7
      000000E8H   SFRSYM    DATA     BYTE      P6
      000000C8H   SFRSYM    DATA     BYTE      P5
      000000C0H   SFRSYM    DATA     BYTE      P4
      000000ABH   SFRSYM    DATA     BYTE      WKTCH
      000000B0H   SFRSYM    DATA     BYTE      P3
      000000A0H   SFRSYM    DATA     BYTE      P2
      00000090H   SFRSYM    DATA     BYTE      P1
      00000080H   SFRSYM    DATA     BYTE      P0
      R5          REGSYM    ---      BYTE      dat
      WR12        REGSYM    ---      WORD      x2
      WR14        REGSYM    ---      WORD      y2
      WR14        REGSYM    ---      WORD      color
      WR12        REGSYM    ---      WORD      i
      WR6         REGSYM    ---      INT       dir
      WR6         REGSYM    ---      WORD      pen
      WR4         REGSYM    ---      WORD      bgcolor
      WR12        REGSYM    ---      WORD      x
      WR14        REGSYM    ---      WORD      y
      WR12        REGSYM    ---      WORD      x
      WR14        REGSYM    ---      WORD      y
      REG=3       REGSYM    ---      ---       dat
      WR12        REGSYM    ---      WORD      x
      WR14        REGSYM    ---      WORD      y
      WR12        REGSYM    ---      WORD      x
      WR14        REGSYM    ---      WORD      y
      WR12        REGSYM    ---      WORD      x
      WR14        REGSYM    ---      WORD      y
      WR12        REGSYM    ---      WORD      x
      WR14        REGSYM    ---      WORD      y
      WR12        REGSYM    ---      WORD      y
      R15         REGSYM    ---      BYTE      num
      R14         REGSYM    ---      BYTE      length
      WR12        REGSYM    ---      WORD      y
      R14         REGSYM    ---      BYTE      num
      R15         REGSYM    ---      BYTE      pointnum
      R10         REGSYM    ---      CHAR      point
      REG=3       REGSYM    ---      ---       p
      REG=3       REGSYM    ---      ---       p
L251 LINKER/LOCATER V4.66.93.0                                                        11/01/2025  17:49:51  PAGE 96



      ---         MODULE    ---      ---       zf_device_ips200
      00011809H   PUBLIC    XDATA    WORD      ips200_pencolor
      0001180BH   PUBLIC    XDATA    WORD      ips200_bgcolor
      0001180DH   PUBLIC    XDATA    INT       ips200_display_dir
      0001180FH   PUBLIC    XDATA    WORD      ips200_x_max
      00011811H   PUBLIC    XDATA    WORD      ips200_y_max
      000000D0H   SFRSYM    DATA     BYTE      PSW
      0000009DH   SFRSYM    DATA     BYTE      IRCBAND
      00000097H   SFRSYM    DATA     BYTE      AUXR2
      000000EFH   SFRSYM    DATA     BYTE      AUXINTIF
      000000FDH   SFRSYM    DATA     BYTE      S4CON
      000000ACH   SFRSYM    DATA     BYTE      S3CON
      0000009AH   SFRSYM    DATA     BYTE      S2CON
      000000B7H   SFRSYM    DATA     BYTE      IPH
      000000CDH   SFRSYM    DATA     BYTE      SPSTAT
      000000DDH   SFRSYM    DATA     BYTE      T4T3M
      000000C1H   SFRSYM    DATA     BYTE      WDT_CONTR
      000000DFH   SFRSYM    DATA     BYTE      IP3
      000000F4H   SFRSYM    DATA     BYTE      USBCON
      000000B5H   SFRSYM    DATA     BYTE      IP2
      000000FFH   SFRSYM    DATA     BYTE      RSTCFG
      000000C7H   SFRSYM    DATA     BYTE      IAP_CONTR
      0000008EH   SFRSYM    DATA     BYTE      AUXR
      000000AFH   SFRSYM    DATA     BYTE      IE2
      00000088H   SFRSYM    DATA     BYTE      TCON
      00000089H   SFRSYM    DATA     BYTE      TMOD
      00000098H   SFRSYM    DATA     BYTE      SCON
      000000A0H.2 SFRSYM    DATA     BIT       P22
      000000A0H.1 SFRSYM    DATA     BIT       P21
      000000A0H.0 SFRSYM    DATA     BIT       P20
      00000087H   SFRSYM    DATA     BYTE      PCON
      000000BCH   SFRSYM    DATA     BYTE      ADC_CONTR
      000000D1H   SFRSYM    DATA     BYTE      PSW1
      000000E7H   SFRSYM    DATA     BYTE      CMPCR2
      000000E6H   SFRSYM    DATA     BYTE      CMPCR1
      000000DEH   SFRSYM    DATA     BYTE      ADCCFG
      000000B8H   SFRSYM    DATA     BYTE      IP
      0000008FH   SFRSYM    DATA     BYTE      INTCLKO
      000000EEH   SFRSYM    DATA     BYTE      IP3H
      000000B6H   SFRSYM    DATA     BYTE      IP2H
      000000BFH   SFRSYM    DATA     BYTE      P_SW4
      000000A8H   SFRSYM    DATA     BYTE      IE
      000000BBH   SFRSYM    DATA     BYTE      P_SW3
      000000BAH   SFRSYM    DATA     BYTE      P_SW2
      000000A2H   SFRSYM    DATA     BYTE      P_SW1
      000000CEH   SFRSYM    DATA     BYTE      SPCTL
      000000F8H   SFRSYM    DATA     BYTE      P7
      000000E8H   SFRSYM    DATA     BYTE      P6
      000000C8H   SFRSYM    DATA     BYTE      P5
      000000C0H   SFRSYM    DATA     BYTE      P4
      000000ABH   SFRSYM    DATA     BYTE      WKTCH
      000000B0H   SFRSYM    DATA     BYTE      P3
      000000A0H   SFRSYM    DATA     BYTE      P2
      00000090H   SFRSYM    DATA     BYTE      P1
      00000080H   SFRSYM    DATA     BYTE      P0
      R5          REGSYM    ---      BYTE      dat
      WR12        REGSYM    ---      WORD      x2
      WR14        REGSYM    ---      WORD      y2
      WR14        REGSYM    ---      WORD      color
      WR12        REGSYM    ---      WORD      i
      WR6         REGSYM    ---      INT       dir
      WR6         REGSYM    ---      WORD      pen
      WR4         REGSYM    ---      WORD      bgcolor
      WR12        REGSYM    ---      WORD      x
L251 LINKER/LOCATER V4.66.93.0                                                        11/01/2025  17:49:51  PAGE 97


      WR14        REGSYM    ---      WORD      y
      WR12        REGSYM    ---      WORD      x
      WR14        REGSYM    ---      WORD      y
      REG=3       REGSYM    ---      ---       dat
      WR12        REGSYM    ---      WORD      x
      WR14        REGSYM    ---      WORD      y
      WR12        REGSYM    ---      WORD      x
      WR14        REGSYM    ---      WORD      y
      WR12        REGSYM    ---      WORD      x
      WR14        REGSYM    ---      WORD      y
      WR12        REGSYM    ---      WORD      x
      WR14        REGSYM    ---      WORD      y
      WR12        REGSYM    ---      WORD      y
      R15         REGSYM    ---      BYTE      num
      R14         REGSYM    ---      BYTE      length
      WR12        REGSYM    ---      WORD      y
      R14         REGSYM    ---      BYTE      num
      R15         REGSYM    ---      BYTE      pointnum
      R10         REGSYM    ---      CHAR      point
      REG=3       REGSYM    ---      ---       p
      REG=3       REGSYM    ---      ---       p

      ---         MODULE    ---      ---       zf_device_dl1a
      000117C9H   PUBLIC    XDATA    WORD      dl1a_distance_mm
      000117CBH   PUBLIC    XDATA    BYTE      dl1a_finsh_flag
      000000D0H   SFRSYM    DATA     BYTE      PSW
      0000009DH   SFRSYM    DATA     BYTE      IRCBAND
      00000097H   SFRSYM    DATA     BYTE      AUXR2
      000000EFH   SFRSYM    DATA     BYTE      AUXINTIF
      000000FDH   SFRSYM    DATA     BYTE      S4CON
      000000ACH   SFRSYM    DATA     BYTE      S3CON
      0000009AH   SFRSYM    DATA     BYTE      S2CON
      000000B7H   SFRSYM    DATA     BYTE      IPH
      000000CDH   SFRSYM    DATA     BYTE      SPSTAT
      000000DDH   SFRSYM    DATA     BYTE      T4T3M
      000000C1H   SFRSYM    DATA     BYTE      WDT_CONTR
      000000DFH   SFRSYM    DATA     BYTE      IP3
      000000F4H   SFRSYM    DATA     BYTE      USBCON
      000000B5H   SFRSYM    DATA     BYTE      IP2
      000000FFH   SFRSYM    DATA     BYTE      RSTCFG
      000000C7H   SFRSYM    DATA     BYTE      IAP_CONTR
      0000008EH   SFRSYM    DATA     BYTE      AUXR
      000000AFH   SFRSYM    DATA     BYTE      IE2
      00000088H   SFRSYM    DATA     BYTE      TCON
      00000089H   SFRSYM    DATA     BYTE      TMOD
      00000098H   SFRSYM    DATA     BYTE      SCON
      00000087H   SFRSYM    DATA     BYTE      PCON
      000000BCH   SFRSYM    DATA     BYTE      ADC_CONTR
      000000D1H   SFRSYM    DATA     BYTE      PSW1
      000000E7H   SFRSYM    DATA     BYTE      CMPCR2
      000000E6H   SFRSYM    DATA     BYTE      CMPCR1
      000000DEH   SFRSYM    DATA     BYTE      ADCCFG
      000000B8H   SFRSYM    DATA     BYTE      IP
      0000008FH   SFRSYM    DATA     BYTE      INTCLKO
      000000EEH   SFRSYM    DATA     BYTE      IP3H
      000000B6H   SFRSYM    DATA     BYTE      IP2H
      000000BFH   SFRSYM    DATA     BYTE      P_SW4
      000000A8H   SFRSYM    DATA     BYTE      IE
      000000BBH   SFRSYM    DATA     BYTE      P_SW3
      000000BAH   SFRSYM    DATA     BYTE      P_SW2
      000000A2H   SFRSYM    DATA     BYTE      P_SW1
      000000CEH   SFRSYM    DATA     BYTE      SPCTL
      000000F8H   SFRSYM    DATA     BYTE      P7
      000000E8H   SFRSYM    DATA     BYTE      P6
      000000C8H   SFRSYM    DATA     BYTE      P5
L251 LINKER/LOCATER V4.66.93.0                                                        11/01/2025  17:49:51  PAGE 98


      000000C0H   SFRSYM    DATA     BYTE      P4
      000000ABH   SFRSYM    DATA     BYTE      WKTCH
      000000B0H   SFRSYM    DATA     BYTE      P3
      000000A0H   SFRSYM    DATA     BYTE      P2
      00000090H   SFRSYM    DATA     BYTE      P1
      00000080H   SFRSYM    DATA     BYTE      P0
      00FFE7DCH   SYMBOL    HCONST   ---       ?tpl?0001
      00FFE7E4H   SYMBOL    HCONST   ---       ?tpl?0002
      00FFE7EAH   SYMBOL    HCONST   ---       ?tpl?0003
      00FFE7F4H   SYMBOL    HCONST   ---       ?tpl?0004
      000117C0H   SYMBOL    XDATA    ---       dl1a_iic_struct
      000117CCH   SYMBOL    XDATA    BYTE      dl1a_init_flag
      REG=3       REGSYM    ---      ---       type_is_aperture
      WR30        REGSYM    ---      WORD      timeout_period_mclks
      R5          REGSYM    ---      BYTE      vcsel_period_pclks
      DR24        REGSYM    ---      DWORD     macro_period_ns
      DR28        REGSYM    ---      DWORD     timeout_period_us
      R3          REGSYM    ---      BYTE      vcsel_period_pclks
      DR8         REGSYM    ---      DWORD     macro_period_ns
      WR4         REGSYM    ---      WORD      reg_val
      WR2         REGSYM    ---      WORD      timeout_mclks
      DR8         REGSYM    ---      DWORD     ls_byte
      WR4         REGSYM    ---      WORD      ms_byte
      WR6         REGSYM    ---      WORD      return_data
      REG=3       REGSYM    ---      ---       enables
      WR14        REGSYM    ---      INT       type
      REG=3       REGSYM    ---      ---       timeouts
      R10         REGSYM    ---      BYTE      vhv_init_byte
      R15         REGSYM    ---      BYTE      return_state
      DR12        REGSYM    ---      DWORD     budget_us
      DR12        REGSYM    ---      DWORD     budget_us
      DR28        REGSYM    ---      FLOAT     limit_mcps
      WR14        REGSYM    ---      WORD      limit_mcps_16bit
      R15         REGSYM    ---      BYTE      return_state
      R14         REGSYM    ---      BYTE      reg_data_buffer
      WR12        REGSYM    ---      WORD      i

      ---         MODULE    ---      ---       zf_device_ble6a20
      000000D0H   SFRSYM    DATA     BYTE      PSW
      0000009DH   SFRSYM    DATA     BYTE      IRCBAND
      00000097H   SFRSYM    DATA     BYTE      AUXR2
      000000EFH   SFRSYM    DATA     BYTE      AUXINTIF
      000000FDH   SFRSYM    DATA     BYTE      S4CON
      000000ACH   SFRSYM    DATA     BYTE      S3CON
      0000009AH   SFRSYM    DATA     BYTE      S2CON
      000000B7H   SFRSYM    DATA     BYTE      IPH
      000000CDH   SFRSYM    DATA     BYTE      SPSTAT
      000000DDH   SFRSYM    DATA     BYTE      T4T3M
      000000C1H   SFRSYM    DATA     BYTE      WDT_CONTR
      000000DFH   SFRSYM    DATA     BYTE      IP3
      000000F4H   SFRSYM    DATA     BYTE      USBCON
      000000B5H   SFRSYM    DATA     BYTE      IP2
      000000FFH   SFRSYM    DATA     BYTE      RSTCFG
      000000C7H   SFRSYM    DATA     BYTE      IAP_CONTR
      0000008EH   SFRSYM    DATA     BYTE      AUXR
      000000AFH   SFRSYM    DATA     BYTE      IE2
      00000088H   SFRSYM    DATA     BYTE      TCON
      00000089H   SFRSYM    DATA     BYTE      TMOD
      00000098H   SFRSYM    DATA     BYTE      SCON
      00000087H   SFRSYM    DATA     BYTE      PCON
      000000BCH   SFRSYM    DATA     BYTE      ADC_CONTR
      000000D1H   SFRSYM    DATA     BYTE      PSW1
      000000E7H   SFRSYM    DATA     BYTE      CMPCR2
      000000E6H   SFRSYM    DATA     BYTE      CMPCR1
      000000DEH   SFRSYM    DATA     BYTE      ADCCFG
L251 LINKER/LOCATER V4.66.93.0                                                        11/01/2025  17:49:51  PAGE 99


      000000B8H   SFRSYM    DATA     BYTE      IP
      0000008FH   SFRSYM    DATA     BYTE      INTCLKO
      000000EEH   SFRSYM    DATA     BYTE      IP3H
      000000B6H   SFRSYM    DATA     BYTE      IP2H
      000000BFH   SFRSYM    DATA     BYTE      P_SW4
      000000A8H   SFRSYM    DATA     BYTE      IE
      000000BBH   SFRSYM    DATA     BYTE      P_SW3
      000000BAH   SFRSYM    DATA     BYTE      P_SW2
      000000A2H   SFRSYM    DATA     BYTE      P_SW1
      000000CEH   SFRSYM    DATA     BYTE      SPCTL
      000000F8H   SFRSYM    DATA     BYTE      P7
      000000E8H   SFRSYM    DATA     BYTE      P6
      000000C8H   SFRSYM    DATA     BYTE      P5
      000000C0H   SFRSYM    DATA     BYTE      P4
      000000ABH   SFRSYM    DATA     BYTE      WKTCH
      000000B0H   SFRSYM    DATA     BYTE      P3
      000000A0H   SFRSYM    DATA     BYTE      P2
      00000090H   SFRSYM    DATA     BYTE      P1
      00000080H   SFRSYM    DATA     BYTE      P0
      0001164AH   SYMBOL    XDATA    ---       ble6a20_buffer
      0001168AH   SYMBOL    XDATA    ---       ble6a20_fifo
      R15         REGSYM    ---      BYTE      dat
      WR12        REGSYM    ---      WORD      time_cnt
      DR12        REGSYM    ---      DWORD     len
      REG=3       REGSYM    ---      ---       str
      REG=3       REGSYM    ---      ---       buff
      DR8         REGSYM    ---      DWORD     len
      R15         REGSYM    ---      BYTE      return_state

      ---         MODULE    ---      ---       zf_device_wireless_uart
      000000D0H   SFRSYM    DATA     BYTE      PSW
      0000009DH   SFRSYM    DATA     BYTE      IRCBAND
      00000097H   SFRSYM    DATA     BYTE      AUXR2
      000000EFH   SFRSYM    DATA     BYTE      AUXINTIF
      000000FDH   SFRSYM    DATA     BYTE      S4CON
      000000ACH   SFRSYM    DATA     BYTE      S3CON
      0000009AH   SFRSYM    DATA     BYTE      S2CON
      000000B7H   SFRSYM    DATA     BYTE      IPH
      000000CDH   SFRSYM    DATA     BYTE      SPSTAT
      000000DDH   SFRSYM    DATA     BYTE      T4T3M
      000000C1H   SFRSYM    DATA     BYTE      WDT_CONTR
      000000DFH   SFRSYM    DATA     BYTE      IP3
      000000F4H   SFRSYM    DATA     BYTE      USBCON
      000000B5H   SFRSYM    DATA     BYTE      IP2
      000000FFH   SFRSYM    DATA     BYTE      RSTCFG
      000000C7H   SFRSYM    DATA     BYTE      IAP_CONTR
      0000008EH   SFRSYM    DATA     BYTE      AUXR
      000000AFH   SFRSYM    DATA     BYTE      IE2
      00000088H   SFRSYM    DATA     BYTE      TCON
      00000089H   SFRSYM    DATA     BYTE      TMOD
      00000098H   SFRSYM    DATA     BYTE      SCON
      00000087H   SFRSYM    DATA     BYTE      PCON
      000000BCH   SFRSYM    DATA     BYTE      ADC_CONTR
      000000D1H   SFRSYM    DATA     BYTE      PSW1
      000000E7H   SFRSYM    DATA     BYTE      CMPCR2
      000000E6H   SFRSYM    DATA     BYTE      CMPCR1
      000000DEH   SFRSYM    DATA     BYTE      ADCCFG
      000000B8H   SFRSYM    DATA     BYTE      IP
      0000008FH   SFRSYM    DATA     BYTE      INTCLKO
      000000EEH   SFRSYM    DATA     BYTE      IP3H
      000000B6H   SFRSYM    DATA     BYTE      IP2H
      000000BFH   SFRSYM    DATA     BYTE      P_SW4
      000000A8H   SFRSYM    DATA     BYTE      IE
      000000BBH   SFRSYM    DATA     BYTE      P_SW3
      000000BAH   SFRSYM    DATA     BYTE      P_SW2
L251 LINKER/LOCATER V4.66.93.0                                                        11/01/2025  17:49:51  PAGE 100


      000000A2H   SFRSYM    DATA     BYTE      P_SW1
      000000CEH   SFRSYM    DATA     BYTE      SPCTL
      000000F8H   SFRSYM    DATA     BYTE      P7
      000000E8H   SFRSYM    DATA     BYTE      P6
      000000C8H   SFRSYM    DATA     BYTE      P5
      000000C0H   SFRSYM    DATA     BYTE      P4
      000000ABH   SFRSYM    DATA     BYTE      WKTCH
      000000B0H   SFRSYM    DATA     BYTE      P3
      000000A0H   SFRSYM    DATA     BYTE      P2
      00000090H   SFRSYM    DATA     BYTE      P1
      00000080H   SFRSYM    DATA     BYTE      P0
      000116A1H   SYMBOL    XDATA    ---       wireless_uart_fifo
      000116B8H   SYMBOL    XDATA    ---       wireless_uart_buffer
      R15         REGSYM    ---      BYTE      dat
      WR12        REGSYM    ---      WORD      time_cnt
      DR12        REGSYM    ---      DWORD     len
      REG=3       REGSYM    ---      ---       str
      REG=3       REGSYM    ---      ---       buff
      DR8         REGSYM    ---      DWORD     len
      R15         REGSYM    ---      BYTE      return_state

      ---         MODULE    ---      ---       zf_device_icm20602
      00011787H   PUBLIC    XDATA    INT       icm20602_acc_x
      00011789H   PUBLIC    XDATA    INT       icm20602_acc_y
      0001178BH   PUBLIC    XDATA    INT       icm20602_acc_z
      0001178DH   PUBLIC    XDATA    INT       icm20602_gyro_x
      0001178FH   PUBLIC    XDATA    INT       icm20602_gyro_y
      00011791H   PUBLIC    XDATA    INT       icm20602_gyro_z
      00011793H   PUBLIC    XDATA    ---       icm20602_transition_factor
      000000D0H   SFRSYM    DATA     BYTE      PSW
      0000009DH   SFRSYM    DATA     BYTE      IRCBAND
      00000097H   SFRSYM    DATA     BYTE      AUXR2
      000000EFH   SFRSYM    DATA     BYTE      AUXINTIF
      000000FDH   SFRSYM    DATA     BYTE      S4CON
      000000ACH   SFRSYM    DATA     BYTE      S3CON
      0000009AH   SFRSYM    DATA     BYTE      S2CON
      000000B7H   SFRSYM    DATA     BYTE      IPH
      000000CDH   SFRSYM    DATA     BYTE      SPSTAT
      000000DDH   SFRSYM    DATA     BYTE      T4T3M
      000000C1H   SFRSYM    DATA     BYTE      WDT_CONTR
      000000DFH   SFRSYM    DATA     BYTE      IP3
      000000F4H   SFRSYM    DATA     BYTE      USBCON
      000000B5H   SFRSYM    DATA     BYTE      IP2
      000000FFH   SFRSYM    DATA     BYTE      RSTCFG
      000000C7H   SFRSYM    DATA     BYTE      IAP_CONTR
      0000008EH   SFRSYM    DATA     BYTE      AUXR
      000000AFH   SFRSYM    DATA     BYTE      IE2
      000000C0H.3 SFRSYM    DATA     BIT       P43
      000000C0H.2 SFRSYM    DATA     BIT       P42
      00000088H   SFRSYM    DATA     BYTE      TCON
      00000089H   SFRSYM    DATA     BYTE      TMOD
      000000C0H.1 SFRSYM    DATA     BIT       P41
      00000098H   SFRSYM    DATA     BYTE      SCON
      000000C0H.0 SFRSYM    DATA     BIT       P40
      00000087H   SFRSYM    DATA     BYTE      PCON
      000000BCH   SFRSYM    DATA     BYTE      ADC_CONTR
      000000D1H   SFRSYM    DATA     BYTE      PSW1
      000000E7H   SFRSYM    DATA     BYTE      CMPCR2
      000000E6H   SFRSYM    DATA     BYTE      CMPCR1
      000000DEH   SFRSYM    DATA     BYTE      ADCCFG
      000000B8H   SFRSYM    DATA     BYTE      IP
      0000008FH   SFRSYM    DATA     BYTE      INTCLKO
      000000EEH   SFRSYM    DATA     BYTE      IP3H
      000000B6H   SFRSYM    DATA     BYTE      IP2H
      000000BFH   SFRSYM    DATA     BYTE      P_SW4
L251 LINKER/LOCATER V4.66.93.0                                                        11/01/2025  17:49:51  PAGE 101


      000000A8H   SFRSYM    DATA     BYTE      IE
      000000BBH   SFRSYM    DATA     BYTE      P_SW3
      000000BAH   SFRSYM    DATA     BYTE      P_SW2
      000000A2H   SFRSYM    DATA     BYTE      P_SW1
      000000CEH   SFRSYM    DATA     BYTE      SPCTL
      000000F8H   SFRSYM    DATA     BYTE      P7
      000000E8H   SFRSYM    DATA     BYTE      P6
      000000C8H   SFRSYM    DATA     BYTE      P5
      000000C0H   SFRSYM    DATA     BYTE      P4
      000000ABH   SFRSYM    DATA     BYTE      WKTCH
      000000B0H   SFRSYM    DATA     BYTE      P3
      000000A0H   SFRSYM    DATA     BYTE      P2
      00000090H   SFRSYM    DATA     BYTE      P1
      00000080H   SFRSYM    DATA     BYTE      P0
      R7          REGSYM    ---      BYTE      byte
      R6          REGSYM    ---      BYTE      i
      R7          REGSYM    ---      BYTE      cmd
      R15         REGSYM    ---      BYTE      val
      R10         REGSYM    ---      BYTE      cmd
      REG=3       REGSYM    ---      ---       val
      R10         REGSYM    ---      BYTE      cmd
      REG=3       REGSYM    ---      ---       val
      R11         REGSYM    ---      BYTE      reg
      R10         REGSYM    ---      BYTE      dat
      R7          REGSYM    ---      BYTE      reg
      R3          REGSYM    ---      BYTE      reg
      REG=1       REGSYM    ---      ---       dat
      DR28        REGSYM    ---      DWORD     len
      R14         REGSYM    ---      BYTE      dat
      R15         REGSYM    ---      BYTE      return_state
      WR12        REGSYM    ---      WORD      timeout_count
      R14         REGSYM    ---      BYTE      val
      R15         REGSYM    ---      BYTE      return_state
      WR12        REGSYM    ---      WORD      timeout_count

      ---         MODULE    ---      ---       zf_device_imu660ra
      0001179BH   PUBLIC    XDATA    INT       imu660ra_acc_x
      0001179DH   PUBLIC    XDATA    INT       imu660ra_acc_y
      0001179FH   PUBLIC    XDATA    INT       imu660ra_acc_z
      000117A1H   PUBLIC    XDATA    INT       imu660ra_gyro_x
      000117A3H   PUBLIC    XDATA    INT       imu660ra_gyro_y
      000117A5H   PUBLIC    XDATA    INT       imu660ra_gyro_z
      000117A7H   PUBLIC    XDATA    ---       imu660ra_transition_factor
      000000D0H   SFRSYM    DATA     BYTE      PSW
      0000009DH   SFRSYM    DATA     BYTE      IRCBAND
      00000097H   SFRSYM    DATA     BYTE      AUXR2
      000000EFH   SFRSYM    DATA     BYTE      AUXINTIF
      000000FDH   SFRSYM    DATA     BYTE      S4CON
      000000ACH   SFRSYM    DATA     BYTE      S3CON
      0000009AH   SFRSYM    DATA     BYTE      S2CON
      000000B7H   SFRSYM    DATA     BYTE      IPH
      000000CDH   SFRSYM    DATA     BYTE      SPSTAT
      000000DDH   SFRSYM    DATA     BYTE      T4T3M
      000000C1H   SFRSYM    DATA     BYTE      WDT_CONTR
      000000DFH   SFRSYM    DATA     BYTE      IP3
      000000F4H   SFRSYM    DATA     BYTE      USBCON
      000000B5H   SFRSYM    DATA     BYTE      IP2
      000000FFH   SFRSYM    DATA     BYTE      RSTCFG
      000000C7H   SFRSYM    DATA     BYTE      IAP_CONTR
      0000008EH   SFRSYM    DATA     BYTE      AUXR
      000000AFH   SFRSYM    DATA     BYTE      IE2
      000000C0H.3 SFRSYM    DATA     BIT       P43
      000000C0H.2 SFRSYM    DATA     BIT       P42
      00000088H   SFRSYM    DATA     BYTE      TCON
      00000089H   SFRSYM    DATA     BYTE      TMOD
L251 LINKER/LOCATER V4.66.93.0                                                        11/01/2025  17:49:51  PAGE 102


      000000C0H.1 SFRSYM    DATA     BIT       P41
      00000098H   SFRSYM    DATA     BYTE      SCON
      000000C0H.0 SFRSYM    DATA     BIT       P40
      00000087H   SFRSYM    DATA     BYTE      PCON
      000000BCH   SFRSYM    DATA     BYTE      ADC_CONTR
      000000D1H   SFRSYM    DATA     BYTE      PSW1
      000000E7H   SFRSYM    DATA     BYTE      CMPCR2
      000000E6H   SFRSYM    DATA     BYTE      CMPCR1
      000000DEH   SFRSYM    DATA     BYTE      ADCCFG
      000000B8H   SFRSYM    DATA     BYTE      IP
      0000008FH   SFRSYM    DATA     BYTE      INTCLKO
      000000EEH   SFRSYM    DATA     BYTE      IP3H
      000000B6H   SFRSYM    DATA     BYTE      IP2H
      000000BFH   SFRSYM    DATA     BYTE      P_SW4
      000000A8H   SFRSYM    DATA     BYTE      IE
      000000BBH   SFRSYM    DATA     BYTE      P_SW3
      000000BAH   SFRSYM    DATA     BYTE      P_SW2
      000000A2H   SFRSYM    DATA     BYTE      P_SW1
      000000CEH   SFRSYM    DATA     BYTE      SPCTL
      000000F8H   SFRSYM    DATA     BYTE      P7
      000000E8H   SFRSYM    DATA     BYTE      P6
      000000C8H   SFRSYM    DATA     BYTE      P5
      000000C0H   SFRSYM    DATA     BYTE      P4
      000000ABH   SFRSYM    DATA     BYTE      WKTCH
      000000B0H   SFRSYM    DATA     BYTE      P3
      000000A0H   SFRSYM    DATA     BYTE      P2
      00000090H   SFRSYM    DATA     BYTE      P1
      00000080H   SFRSYM    DATA     BYTE      P0
      R7          REGSYM    ---      BYTE      byte
      R6          REGSYM    ---      BYTE      i
      R7          REGSYM    ---      BYTE      cmd
      R15         REGSYM    ---      BYTE      val
      R7          REGSYM    ---      BYTE      cmd
      DR12        REGSYM    ---      DWORD     len
      R10         REGSYM    ---      BYTE      cmd
      REG=3       REGSYM    ---      ---       val
      R11         REGSYM    ---      BYTE      reg
      R10         REGSYM    ---      BYTE      dat
      R3          REGSYM    ---      BYTE      reg
      REG=1       REGSYM    ---      ---       dat
      DR28        REGSYM    ---      DWORD     len
      R7          REGSYM    ---      BYTE      reg
      R5          REGSYM    ---      BYTE      reg
      REG=3       REGSYM    ---      ---       dat
      R14         REGSYM    ---      BYTE      dat
      R15         REGSYM    ---      BYTE      return_state
      WR12        REGSYM    ---      WORD      timeout_count
      R15         REGSYM    ---      BYTE      return_state

      ---         MODULE    ---      ---       zf_device_imu660rb
      000117F2H   PUBLIC    XDATA    INT       imu660rb_acc_x
      000117F4H   PUBLIC    XDATA    INT       imu660rb_acc_y
      000117F6H   PUBLIC    XDATA    INT       imu660rb_acc_z
      000117F8H   PUBLIC    XDATA    INT       imu660rb_gyro_x
      000117FAH   PUBLIC    XDATA    INT       imu660rb_gyro_y
      000117FCH   PUBLIC    XDATA    INT       imu660rb_gyro_z
      000000D0H   SFRSYM    DATA     BYTE      PSW
      0000009DH   SFRSYM    DATA     BYTE      IRCBAND
      00000097H   SFRSYM    DATA     BYTE      AUXR2
      000000EFH   SFRSYM    DATA     BYTE      AUXINTIF
      000000FDH   SFRSYM    DATA     BYTE      S4CON
      000000ACH   SFRSYM    DATA     BYTE      S3CON
      0000009AH   SFRSYM    DATA     BYTE      S2CON
      000000B7H   SFRSYM    DATA     BYTE      IPH
      000000CDH   SFRSYM    DATA     BYTE      SPSTAT
L251 LINKER/LOCATER V4.66.93.0                                                        11/01/2025  17:49:51  PAGE 103


      000000DDH   SFRSYM    DATA     BYTE      T4T3M
      000000C1H   SFRSYM    DATA     BYTE      WDT_CONTR
      000000DFH   SFRSYM    DATA     BYTE      IP3
      000000F4H   SFRSYM    DATA     BYTE      USBCON
      000000B5H   SFRSYM    DATA     BYTE      IP2
      000000FFH   SFRSYM    DATA     BYTE      RSTCFG
      000000C7H   SFRSYM    DATA     BYTE      IAP_CONTR
      0000008EH   SFRSYM    DATA     BYTE      AUXR
      000000AFH   SFRSYM    DATA     BYTE      IE2
      000000C0H.3 SFRSYM    DATA     BIT       P43
      000000C0H.2 SFRSYM    DATA     BIT       P42
      00000088H   SFRSYM    DATA     BYTE      TCON
      00000089H   SFRSYM    DATA     BYTE      TMOD
      000000C0H.1 SFRSYM    DATA     BIT       P41
      00000098H   SFRSYM    DATA     BYTE      SCON
      000000C0H.0 SFRSYM    DATA     BIT       P40
      00000087H   SFRSYM    DATA     BYTE      PCON
      000000BCH   SFRSYM    DATA     BYTE      ADC_CONTR
      000000D1H   SFRSYM    DATA     BYTE      PSW1
      000000E7H   SFRSYM    DATA     BYTE      CMPCR2
      000000E6H   SFRSYM    DATA     BYTE      CMPCR1
      000000DEH   SFRSYM    DATA     BYTE      ADCCFG
      000000B8H   SFRSYM    DATA     BYTE      IP
      0000008FH   SFRSYM    DATA     BYTE      INTCLKO
      000000EEH   SFRSYM    DATA     BYTE      IP3H
      000000B6H   SFRSYM    DATA     BYTE      IP2H
      000000BFH   SFRSYM    DATA     BYTE      P_SW4
      000000A8H   SFRSYM    DATA     BYTE      IE
      000000BBH   SFRSYM    DATA     BYTE      P_SW3
      000000BAH   SFRSYM    DATA     BYTE      P_SW2
      000000A2H   SFRSYM    DATA     BYTE      P_SW1
      000000CEH   SFRSYM    DATA     BYTE      SPCTL
      000000F8H   SFRSYM    DATA     BYTE      P7
      000000E8H   SFRSYM    DATA     BYTE      P6
      000000C8H   SFRSYM    DATA     BYTE      P5
      000000C0H   SFRSYM    DATA     BYTE      P4
      000000ABH   SFRSYM    DATA     BYTE      WKTCH
      000000B0H   SFRSYM    DATA     BYTE      P3
      000000A0H   SFRSYM    DATA     BYTE      P2
      00000090H   SFRSYM    DATA     BYTE      P1
      00000080H   SFRSYM    DATA     BYTE      P0
      R7          REGSYM    ---      BYTE      byte
      R6          REGSYM    ---      BYTE      i
      R7          REGSYM    ---      BYTE      cmd
      R15         REGSYM    ---      BYTE      val
      R10         REGSYM    ---      BYTE      cmd
      REG=3       REGSYM    ---      ---       val
      R10         REGSYM    ---      BYTE      cmd
      REG=3       REGSYM    ---      ---       val
      R11         REGSYM    ---      BYTE      reg
      R10         REGSYM    ---      BYTE      dat
      R7          REGSYM    ---      BYTE      reg
      R3          REGSYM    ---      BYTE      reg
      REG=1       REGSYM    ---      ---       dat
      DR28        REGSYM    ---      DWORD     len
      R14         REGSYM    ---      BYTE      dat
      R15         REGSYM    ---      BYTE      return_state
      WR12        REGSYM    ---      WORD      timeout_count
      WR30        REGSYM    ---      INT       acc_value
      DR24        REGSYM    ---      FLOAT     acc_data
      WR30        REGSYM    ---      INT       gyro_value
      DR24        REGSYM    ---      FLOAT     gyro_data
      R15         REGSYM    ---      BYTE      return_state

      ---         MODULE    ---      ---       zf_device_imu963ra
L251 LINKER/LOCATER V4.66.93.0                                                        11/01/2025  17:49:51  PAGE 104


      00FFBF88H   PUBLIC    CODE     ---       imu963ra_get_gyro
      00FF7B4BH   PUBLIC    CODE     ---       imu963ra_init
      00011754H   PUBLIC    XDATA    INT       imu963ra_acc_x
      00011756H   PUBLIC    XDATA    INT       imu963ra_acc_y
      00011758H   PUBLIC    XDATA    INT       imu963ra_acc_z
      0001175AH   PUBLIC    XDATA    INT       imu963ra_mag_x
      0001175CH   PUBLIC    XDATA    INT       imu963ra_mag_y
      0001175EH   PUBLIC    XDATA    INT       imu963ra_mag_z
      00011760H   PUBLIC    XDATA    INT       imu963ra_gyro_x
      00011762H   PUBLIC    XDATA    INT       imu963ra_gyro_y
      00011764H   PUBLIC    XDATA    INT       imu963ra_gyro_z
      00011766H   PUBLIC    XDATA    ---       imu963ra_transition_factor
      000000D0H   SFRSYM    DATA     BYTE      PSW
      0000009DH   SFRSYM    DATA     BYTE      IRCBAND
      00000097H   SFRSYM    DATA     BYTE      AUXR2
      000000EFH   SFRSYM    DATA     BYTE      AUXINTIF
      000000FDH   SFRSYM    DATA     BYTE      S4CON
      000000ACH   SFRSYM    DATA     BYTE      S3CON
      0000009AH   SFRSYM    DATA     BYTE      S2CON
      000000B7H   SFRSYM    DATA     BYTE      IPH
      000000CDH   SFRSYM    DATA     BYTE      SPSTAT
      000000DDH   SFRSYM    DATA     BYTE      T4T3M
      000000C1H   SFRSYM    DATA     BYTE      WDT_CONTR
      000000DFH   SFRSYM    DATA     BYTE      IP3
      000000F4H   SFRSYM    DATA     BYTE      USBCON
      000000B5H   SFRSYM    DATA     BYTE      IP2
      000000FFH   SFRSYM    DATA     BYTE      RSTCFG
      000000C7H   SFRSYM    DATA     BYTE      IAP_CONTR
      0000008EH   SFRSYM    DATA     BYTE      AUXR
      000000AFH   SFRSYM    DATA     BYTE      IE2
      000000C0H.3 SFRSYM    DATA     BIT       P43
      000000C0H.2 SFRSYM    DATA     BIT       P42
      00000088H   SFRSYM    DATA     BYTE      TCON
      00000089H   SFRSYM    DATA     BYTE      TMOD
      000000C0H.1 SFRSYM    DATA     BIT       P41
      00000098H   SFRSYM    DATA     BYTE      SCON
      000000C0H.0 SFRSYM    DATA     BIT       P40
      00000087H   SFRSYM    DATA     BYTE      PCON
      000000BCH   SFRSYM    DATA     BYTE      ADC_CONTR
      000000D1H   SFRSYM    DATA     BYTE      PSW1
      000000E7H   SFRSYM    DATA     BYTE      CMPCR2
      000000E6H   SFRSYM    DATA     BYTE      CMPCR1
      000000DEH   SFRSYM    DATA     BYTE      ADCCFG
      000000B8H   SFRSYM    DATA     BYTE      IP
      0000008FH   SFRSYM    DATA     BYTE      INTCLKO
      000000EEH   SFRSYM    DATA     BYTE      IP3H
      000000B6H   SFRSYM    DATA     BYTE      IP2H
      000000BFH   SFRSYM    DATA     BYTE      P_SW4
      000000A8H   SFRSYM    DATA     BYTE      IE
      000000BBH   SFRSYM    DATA     BYTE      P_SW3
      000000BAH   SFRSYM    DATA     BYTE      P_SW2
      000000A2H   SFRSYM    DATA     BYTE      P_SW1
      000000CEH   SFRSYM    DATA     BYTE      SPCTL
      000000F8H   SFRSYM    DATA     BYTE      P7
      000000E8H   SFRSYM    DATA     BYTE      P6
      000000C8H   SFRSYM    DATA     BYTE      P5
      000000C0H   SFRSYM    DATA     BYTE      P4
      000000ABH   SFRSYM    DATA     BYTE      WKTCH
      000000B0H   SFRSYM    DATA     BYTE      P3
      000000A0H   SFRSYM    DATA     BYTE      P2
      00000090H   SFRSYM    DATA     BYTE      P1
      00000080H   SFRSYM    DATA     BYTE      P0
      00FFC7E1H   SYMBOL    CODE     ---       imu963ra_simspi_wr_byte
      00FFBFDCH   SYMBOL    CODE     ---       imu963ra_read_mag_register
      00FFC73EH   SYMBOL    CODE     ---       imu963ra_connect_mag
L251 LINKER/LOCATER V4.66.93.0                                                        11/01/2025  17:49:51  PAGE 105


      00FFC8A3H   SYMBOL    CODE     ---       imu963ra_read_acc_gyro_registers
      00FFBCA0H   SYMBOL    CODE     ---       imu963ra_write_mag_register
      00FFC823H   SYMBOL    CODE     ---       imu963ra_read_acc_gyro_register
      00FFC347H   SYMBOL    CODE     ---       imu963ra_simspi_r_reg_bytes
      00FF0046H   SYMBOL    CODE     ---       imu963ra_simspi_r_reg_byte
      00FFC61EH   SYMBOL    CODE     ---       imu963ra_mag_self_check
      00FF019EH   SYMBOL    CODE     ---       imu963ra_write_acc_gyro_register
      00FFC876H   SYMBOL    CODE     ---       imu963ra_simspi_w_reg_byte
      00FFC27EH   SYMBOL    CODE     ---       imu963ra_acc_gyro_self_check

      00FFC7E1H   BLOCK     CODE     ---       LVL=0
      R7          REGSYM    ---      BYTE      byte
      00FFC7E3H   BLOCK     CODE     NEAR LAB  LVL=1
      R6          REGSYM    ---      BYTE      i
      ---         BLOCKEND  ---      ---       LVL=1
      00FFC7E1H   LINE      CODE     ---       #137
      00FFC7E3H   LINE      CODE     ---       #138
      00FFC7E3H   LINE      CODE     ---       #140
      00FFC7E7H   LINE      CODE     ---       #142
      00FFC7E9H   LINE      CODE     ---       #143
      00FFC7EEH   LINE      CODE     ---       #144
      00FFC7F0H   LINE      CODE     ---       #145
      00FFC7F2H   LINE      CODE     ---       #146
      00FFC7F8H   LINE      CODE     ---       #147
      00FFC7FFH   LINE      CODE     ---       #148
      00FFC801H   LINE      CODE     ---       #149
      00FFC803H   LINE      CODE     ---       #150
      ---         BLOCKEND  ---      ---       LVL=0

      00FFC876H   BLOCK     CODE     ---       LVL=0
      R7          REGSYM    ---      BYTE      cmd
      R15         REGSYM    ---      BYTE      val
      00FFC876H   LINE      CODE     ---       #160
      00FFC87CH   LINE      CODE     ---       #162
      00FFC87EH   LINE      CODE     ---       #163
      00FFC87EH   LINE      CODE     ---       #164
      00FFC883H   LINE      CODE     ---       #165
      00FFC888H   LINE      CODE     ---       #166
      00FFC88AH   LINE      CODE     ---       #167
      ---         BLOCKEND  ---      ---       LVL=0

      00FF0046H   BLOCK     CODE     ---       LVL=0
      R10         REGSYM    ---      BYTE      cmd
      REG=3       REGSYM    ---      ---       val
      00FF0046H   LINE      CODE     ---       #176
      00FF004CH   LINE      CODE     ---       #178
      00FF004EH   LINE      CODE     ---       #179
      00FF0051H   LINE      CODE     ---       #180
      00FF0056H   LINE      CODE     ---       #181
      00FF005DH   LINE      CODE     ---       #182
      00FF005FH   LINE      CODE     ---       #183
      ---         BLOCKEND  ---      ---       LVL=0

      00FFC347H   BLOCK     CODE     ---       LVL=0
      R10         REGSYM    ---      BYTE      cmd
      REG=3       REGSYM    ---      ---       val
      00011562H   SYMBOL    XDATA    DWORD     num
      00FFC347H   LINE      CODE     ---       #193
      00FFC357H   LINE      CODE     ---       #195
      00FFC35AH   LINE      CODE     ---       #196
      00FFC35FH   LINE      CODE     ---       #197
      00FFC361H   LINE      CODE     ---       #199
      00FFC36AH   LINE      CODE     ---       #200
      00FFC383H   LINE      CODE     ---       #201
      ---         BLOCKEND  ---      ---       LVL=0
L251 LINKER/LOCATER V4.66.93.0                                                        11/01/2025  17:49:51  PAGE 106



      00FF019EH   BLOCK     CODE     ---       LVL=0
      R11         REGSYM    ---      BYTE      reg
      R10         REGSYM    ---      BYTE      dat
      00FF019EH   LINE      CODE     ---       #211
      00FF01A0H   LINE      CODE     ---       #213
      00FF01A2H   LINE      CODE     ---       #214
      00FF01A7H   LINE      CODE     ---       #215
      00FF01A9H   LINE      CODE     ---       #216
      ---         BLOCKEND  ---      ---       LVL=0

      00FFC823H   BLOCK     CODE     ---       LVL=0
      R10         REGSYM    ---      BYTE      reg
      00FFC825H   BLOCK     CODE     NEAR LAB  LVL=1
      0001155EH   SYMBOL    XDATA    BYTE      dat
      ---         BLOCKEND  ---      ---       LVL=1
      00FFC823H   LINE      CODE     ---       #225
      00FFC825H   LINE      CODE     ---       #226
      00FFC825H   LINE      CODE     ---       #227
      00FFC82AH   LINE      CODE     ---       #228
      00FFC82CH   LINE      CODE     ---       #229
      00FFC83BH   LINE      CODE     ---       #230
      00FFC83DH   LINE      CODE     ---       #231
      00FFC841H   LINE      CODE     ---       #232
      ---         BLOCKEND  ---      ---       LVL=0

      00FFC8A3H   BLOCK     CODE     ---       LVL=0
      R3          REGSYM    ---      BYTE      reg
      REG=1       REGSYM    ---      ---       dat
      DR28        REGSYM    ---      DWORD     len
      00FFC8A3H   LINE      CODE     ---       #243
      00FFC8A9H   LINE      CODE     ---       #245
      00FFC8ABH   LINE      CODE     ---       #246
      00FFC8B6H   LINE      CODE     ---       #247
      00FFC8B8H   LINE      CODE     ---       #248
      ---         BLOCKEND  ---      ---       LVL=0

      00FFBCA0H   BLOCK     CODE     ---       LVL=0
      R15         REGSYM    ---      BYTE      addr
      R13         REGSYM    ---      BYTE      reg
      R14         REGSYM    ---      BYTE      dat
      00FFBCA8H   BLOCK     CODE     NEAR LAB  LVL=1
      R12         REGSYM    ---      BYTE      return_state
      0001155CH   SYMBOL    XDATA    WORD      timeout_count
      ---         BLOCKEND  ---      ---       LVL=1
      00FFBCA0H   LINE      CODE     ---       #293
      00FFBCA8H   LINE      CODE     ---       #294
      00FFBCA8H   LINE      CODE     ---       #295
      00FFBCAAH   LINE      CODE     ---       #296
      00FFBCB2H   LINE      CODE     ---       #298
      00FFBCB4H   LINE      CODE     ---       #299
      00FFBCBBH   LINE      CODE     ---       #300
      00FFBCC2H   LINE      CODE     ---       #301
      00FFBCC9H   LINE      CODE     ---       #302
      00FFBCD0H   LINE      CODE     ---       #303
      00FFBCD8H   LINE      CODE     ---       #306
      00FFBCDAH   LINE      CODE     ---       #308
      00FFBCEDH   LINE      CODE     ---       #310
      00FFBCF0H   LINE      CODE     ---       #311
      00FFBCF2H   LINE      CODE     ---       #312
      00FFBCF2H   LINE      CODE     ---       #314
      00FFBCF9H   LINE      CODE     ---       #315
      00FFBD01H   LINE      CODE     ---       #317
      00FFBD03H   LINE      CODE     ---       #318
      ---         BLOCKEND  ---      ---       LVL=0
L251 LINKER/LOCATER V4.66.93.0                                                        11/01/2025  17:49:51  PAGE 107



      00FFBFDCH   BLOCK     CODE     ---       LVL=0
      R10         REGSYM    ---      BYTE      addr
      R15         REGSYM    ---      BYTE      reg
      00FFBFE4H   BLOCK     CODE     NEAR LAB  LVL=1
      WR12        REGSYM    ---      WORD      timeout_count
      ---         BLOCKEND  ---      ---       LVL=1
      00FFBFDCH   LINE      CODE     ---       #328
      00FFBFE4H   LINE      CODE     ---       #329
      00FFBFE4H   LINE      CODE     ---       #330
      00FFBFE6H   LINE      CODE     ---       #332
      00FFBFE8H   LINE      CODE     ---       #333
      00FFBFF2H   LINE      CODE     ---       #334
      00FFBFF9H   LINE      CODE     ---       #335
      00FFC001H   LINE      CODE     ---       #336
      00FFC009H   LINE      CODE     ---       #339
      00FFC00BH   LINE      CODE     ---       #341
      00FFC015H   LINE      CODE     ---       #343
      00FFC015H   LINE      CODE     ---       #344
      00FFC015H   LINE      CODE     ---       #346
      00FFC01CH   LINE      CODE     ---       #347
      00FFC024H   LINE      CODE     ---       #349
      00FFC029H   LINE      CODE     ---       #350
      ---         BLOCKEND  ---      ---       LVL=0

      00FFC73EH   BLOCK     CODE     ---       LVL=0
      R10         REGSYM    ---      BYTE      addr
      R15         REGSYM    ---      BYTE      reg
      00FFC73EH   LINE      CODE     ---       #360
      00FFC744H   LINE      CODE     ---       #362
      00FFC746H   LINE      CODE     ---       #364
      00FFC750H   LINE      CODE     ---       #365
      00FFC757H   LINE      CODE     ---       #366
      00FFC75FH   LINE      CODE     ---       #367
      00FFC767H   LINE      CODE     ---       #368
      ---         BLOCKEND  ---      ---       LVL=0

      00FFC27EH   BLOCK     CODE     ---       LVL=0
      00FFC280H   BLOCK     CODE     NEAR LAB  LVL=1
      R15         REGSYM    ---      BYTE      return_state
      R14         REGSYM    ---      BYTE      dat
      WR12        REGSYM    ---      WORD      timeout_count
      ---         BLOCKEND  ---      ---       LVL=1
      00FFC27EH   LINE      CODE     ---       #378
      00FFC280H   LINE      CODE     ---       #379
      00FFC280H   LINE      CODE     ---       #380
      00FFC282H   LINE      CODE     ---       #381
      00FFC284H   LINE      CODE     ---       #382
      00FFC286H   LINE      CODE     ---       #384
      00FFC288H   LINE      CODE     ---       #386
      00FFC292H   LINE      CODE     ---       #388
      00FFC295H   LINE      CODE     ---       #389
      00FFC297H   LINE      CODE     ---       #390
      00FFC297H   LINE      CODE     ---       #392
      00FFC29EH   LINE      CODE     ---       #393
      00FFC2B1H   LINE      CODE     ---       #394
      00FFC2B8H   LINE      CODE     ---       #395
      00FFC2BDH   LINE      CODE     ---       #397
      00FFC2BFH   LINE      CODE     ---       #398
      ---         BLOCKEND  ---      ---       LVL=0

      00FFC61EH   BLOCK     CODE     ---       LVL=0
      00FFC620H   BLOCK     CODE     NEAR LAB  LVL=1
      R15         REGSYM    ---      BYTE      return_state
      R14         REGSYM    ---      BYTE      dat
L251 LINKER/LOCATER V4.66.93.0                                                        11/01/2025  17:49:51  PAGE 108


      WR12        REGSYM    ---      WORD      timeout_count
      ---         BLOCKEND  ---      ---       LVL=1
      00FFC61EH   LINE      CODE     ---       #407
      00FFC620H   LINE      CODE     ---       #408
      00FFC620H   LINE      CODE     ---       #409
      00FFC622H   LINE      CODE     ---       #410
      00FFC624H   LINE      CODE     ---       #411
      00FFC626H   LINE      CODE     ---       #413
      00FFC628H   LINE      CODE     ---       #415
      00FFC632H   LINE      CODE     ---       #417
      00FFC635H   LINE      CODE     ---       #418
      00FFC637H   LINE      CODE     ---       #419
      00FFC637H   LINE      CODE     ---       #421
      00FFC641H   LINE      CODE     ---       #422
      00FFC648H   LINE      CODE     ---       #423
      00FFC64DH   LINE      CODE     ---       #425
      00FFC64FH   LINE      CODE     ---       #426
      ---         BLOCKEND  ---      ---       LVL=0

      00FFBF88H   BLOCK     CODE     ---       LVL=0
      0001155CH   SYMBOL    XDATA    ---       dat
      00FFBF88H   LINE      CODE     ---       #453
      00FFBF88H   LINE      CODE     ---       #454
      00FFBF88H   LINE      CODE     ---       #457
      00FFBF99H   LINE      CODE     ---       #458
      00FFBFAFH   LINE      CODE     ---       #459
      00FFBFC5H   LINE      CODE     ---       #460
      00FFBFDBH   LINE      CODE     ---       #461
      ---         BLOCKEND  ---      ---       LVL=0
      R11         REGSYM    ---      BYTE      temp_status

      00FF7B4BH   BLOCK     CODE     ---       LVL=0
      00FF7B4DH   BLOCK     CODE     NEAR LAB  LVL=1
      R15         REGSYM    ---      BYTE      return_state
      ---         BLOCKEND  ---      ---       LVL=1
      00FF7B4BH   LINE      CODE     ---       #497
      00FF7B4DH   LINE      CODE     ---       #498
      00FF7B4DH   LINE      CODE     ---       #499
      00FF7B4FH   LINE      CODE     ---       #500
      00FF7B56H   LINE      CODE     ---       #518
      00FF7B56H   LINE      CODE     ---       #520
      00FF7B5DH   LINE      CODE     ---       #521
      00FF7B65H   LINE      CODE     ---       #522
      00FF7B6CH   LINE      CODE     ---       #523
      00FF7B73H   LINE      CODE     ---       #525
      00FF7B78H   LINE      CODE     ---       #527
      00FF7B83H   LINE      CODE     ---       #528
      00FF7B86H   LINE      CODE     ---       #529
      00FF7B89H   LINE      CODE     ---       #530
      00FF7B89H   LINE      CODE     ---       #532
      00FF7B91H   LINE      CODE     ---       #539
      00FF7BA9H   LINE      CODE     ---       #541
      00FF7BA9H   LINE      CODE     ---       #543
      00FF7BB4H   LINE      CODE     ---       #544
      00FF7BB7H   LINE      CODE     ---       #546
      00FF7BB9H   LINE      CODE     ---       #548
      00FF7BB9H   LINE      CODE     ---       #550
      00FF7BC1H   LINE      CODE     ---       #551
      00FF7BD3H   LINE      CODE     ---       #553
      00FF7BD5H   LINE      CODE     ---       #555
      00FF7BD5H   LINE      CODE     ---       #557
      00FF7BDDH   LINE      CODE     ---       #558
      00FF7BEFH   LINE      CODE     ---       #560
      00FF7BF1H   LINE      CODE     ---       #562
      00FF7BF1H   LINE      CODE     ---       #564
L251 LINKER/LOCATER V4.66.93.0                                                        11/01/2025  17:49:51  PAGE 109


      00FF7BF9H   LINE      CODE     ---       #565
      00FF7C0BH   LINE      CODE     ---       #567
      00FF7C0DH   LINE      CODE     ---       #569
      00FF7C0DH   LINE      CODE     ---       #571
      00FF7C15H   LINE      CODE     ---       #572
      00FF7C27H   LINE      CODE     ---       #574
      00FF7C27H   LINE      CODE     ---       #575
      00FF7C27H   LINE      CODE     ---       #577
      00FF7C2FH   LINE      CODE     ---       #579
      00FF7C2FH   LINE      CODE     ---       #580
      00FF7C2FH   LINE      CODE     ---       #589
      00FF7C55H   LINE      CODE     ---       #591
      00FF7C55H   LINE      CODE     ---       #593
      00FF7C60H   LINE      CODE     ---       #594
      00FF7C63H   LINE      CODE     ---       #596
      00FF7C66H   LINE      CODE     ---       #598
      00FF7C66H   LINE      CODE     ---       #600
      00FF7C6EH   LINE      CODE     ---       #601
      00FF7C80H   LINE      CODE     ---       #603
      00FF7C83H   LINE      CODE     ---       #605
      00FF7C83H   LINE      CODE     ---       #607
      00FF7C8BH   LINE      CODE     ---       #608
      00FF7C9DH   LINE      CODE     ---       #610
      00FF7C9FH   LINE      CODE     ---       #612
      00FF7C9FH   LINE      CODE     ---       #614
      00FF7CA7H   LINE      CODE     ---       #615
      00FF7CB9H   LINE      CODE     ---       #617
      00FF7CBBH   LINE      CODE     ---       #619
      00FF7CBBH   LINE      CODE     ---       #621
      00FF7CC3H   LINE      CODE     ---       #622
      00FF7CD5H   LINE      CODE     ---       #624
      00FF7CD7H   LINE      CODE     ---       #626
      00FF7CD7H   LINE      CODE     ---       #628
      00FF7CDFH   LINE      CODE     ---       #629
      00FF7CF1H   LINE      CODE     ---       #631
      00FF7CF3H   LINE      CODE     ---       #633
      00FF7CF3H   LINE      CODE     ---       #635
      00FF7CFBH   LINE      CODE     ---       #636
      00FF7D0DH   LINE      CODE     ---       #638
      00FF7D0DH   LINE      CODE     ---       #639
      00FF7D0DH   LINE      CODE     ---       #641
      00FF7D15H   LINE      CODE     ---       #643
      00FF7D15H   LINE      CODE     ---       #644
      00FF7D15H   LINE      CODE     ---       #646
      00FF7D1DH   LINE      CODE     ---       #647
      00FF7D25H   LINE      CODE     ---       #648
      00FF7D2CH   LINE      CODE     ---       #649
      00FF7D33H   LINE      CODE     ---       #650
      00FF7D3AH   LINE      CODE     ---       #651
      00FF7D42H   LINE      CODE     ---       #653
      00FF7D4AH   LINE      CODE     ---       #654
      00FF7D52H   LINE      CODE     ---       #655
      00FF7D59H   LINE      CODE     ---       #656
      00FF7D60H   LINE      CODE     ---       #657
      00FF7D67H   LINE      CODE     ---       #659
      00FF7D72H   LINE      CODE     ---       #660
      00FF7D79H   LINE      CODE     ---       #661
      00FF7D83H   LINE      CODE     ---       #662
      00FF7D8AH   LINE      CODE     ---       #664
      00FF7D8FH   LINE      CODE     ---       #666
      00FF7D9AH   LINE      CODE     ---       #667
      00FF7D9DH   LINE      CODE     ---       #668
      00FF7DA0H   LINE      CODE     ---       #669
      00FF7DA0H   LINE      CODE     ---       #674
      00FF7DB0H   LINE      CODE     ---       #676
L251 LINKER/LOCATER V4.66.93.0                                                        11/01/2025  17:49:51  PAGE 110


      00FF7DB0H   LINE      CODE     ---       #678
      00FF7DBBH   LINE      CODE     ---       #679
      00FF7DBEH   LINE      CODE     ---       #681
      00FF7DC0H   LINE      CODE     ---       #683
      00FF7DC0H   LINE      CODE     ---       #685
      00FF7DCBH   LINE      CODE     ---       #686
      00FF7DDDH   LINE      CODE     ---       #688
      00FF7DDFH   LINE      CODE     ---       #690
      00FF7DDFH   LINE      CODE     ---       #692
      00FF7DEAH   LINE      CODE     ---       #693
      00FF7DFCH   LINE      CODE     ---       #695
      00FF7DFCH   LINE      CODE     ---       #696
      00FF7DFCH   LINE      CODE     ---       #698
      00FF7E01H   LINE      CODE     ---       #700
      00FF7E01H   LINE      CODE     ---       #701
      00FF7E01H   LINE      CODE     ---       #703
      00FF7E0CH   LINE      CODE     ---       #704
      00FF7E13H   LINE      CODE     ---       #706
      00FF7E1AH   LINE      CODE     ---       #708
      00FF7E21H   LINE      CODE     ---       #709
      00FF7E21H   LINE      CODE     ---       #712
      00FF7E23H   LINE      CODE     ---       #713
      ---         BLOCKEND  ---      ---       LVL=0

      ---         MODULE    ---      ---       zf_device_gps_tau1201
      000111CBH   PUBLIC    XDATA    BYTE      gps_tau1201_flag
      0001124CH   PUBLIC    XDATA    ---       gps_tau1201
      00011380H   PUBLIC    XDATA    INT       gps_gga_state
      00011382H   PUBLIC    XDATA    INT       gps_rmc_state
      000000D0H   SFRSYM    DATA     BYTE      PSW
      0000009DH   SFRSYM    DATA     BYTE      IRCBAND
      00000097H   SFRSYM    DATA     BYTE      AUXR2
      000000EFH   SFRSYM    DATA     BYTE      AUXINTIF
      000000FDH   SFRSYM    DATA     BYTE      S4CON
      000000ACH   SFRSYM    DATA     BYTE      S3CON
      0000009AH   SFRSYM    DATA     BYTE      S2CON
      000000B7H   SFRSYM    DATA     BYTE      IPH
      000000CDH   SFRSYM    DATA     BYTE      SPSTAT
      000000DDH   SFRSYM    DATA     BYTE      T4T3M
      000000C1H   SFRSYM    DATA     BYTE      WDT_CONTR
      000000DFH   SFRSYM    DATA     BYTE      IP3
      000000F4H   SFRSYM    DATA     BYTE      USBCON
      000000B5H   SFRSYM    DATA     BYTE      IP2
      000000FFH   SFRSYM    DATA     BYTE      RSTCFG
      000000C7H   SFRSYM    DATA     BYTE      IAP_CONTR
      0000008EH   SFRSYM    DATA     BYTE      AUXR
      000000AFH   SFRSYM    DATA     BYTE      IE2
      00000088H   SFRSYM    DATA     BYTE      TCON
      00000089H   SFRSYM    DATA     BYTE      TMOD
      00000098H   SFRSYM    DATA     BYTE      SCON
      00000087H   SFRSYM    DATA     BYTE      PCON
      000000BCH   SFRSYM    DATA     BYTE      ADC_CONTR
      000000D1H   SFRSYM    DATA     BYTE      PSW1
      000000E7H   SFRSYM    DATA     BYTE      CMPCR2
      000000E6H   SFRSYM    DATA     BYTE      CMPCR1
      000000DEH   SFRSYM    DATA     BYTE      ADCCFG
      000000B8H   SFRSYM    DATA     BYTE      IP
      0000008FH   SFRSYM    DATA     BYTE      INTCLKO
      000000EEH   SFRSYM    DATA     BYTE      IP3H
      000000B6H   SFRSYM    DATA     BYTE      IP2H
      000000BFH   SFRSYM    DATA     BYTE      P_SW4
      000000A8H   SFRSYM    DATA     BYTE      IE
      000000BBH   SFRSYM    DATA     BYTE      P_SW3
      000000BAH   SFRSYM    DATA     BYTE      P_SW2
      000000A2H   SFRSYM    DATA     BYTE      P_SW1
L251 LINKER/LOCATER V4.66.93.0                                                        11/01/2025  17:49:51  PAGE 111


      000000CEH   SFRSYM    DATA     BYTE      SPCTL
      000000F8H   SFRSYM    DATA     BYTE      P7
      000000E8H   SFRSYM    DATA     BYTE      P6
      000000C8H   SFRSYM    DATA     BYTE      P5
      000000C0H   SFRSYM    DATA     BYTE      P4
      000000ABH   SFRSYM    DATA     BYTE      WKTCH
      000000B0H   SFRSYM    DATA     BYTE      P3
      000000A0H   SFRSYM    DATA     BYTE      P2
      00000090H   SFRSYM    DATA     BYTE      P1
      00000080H   SFRSYM    DATA     BYTE      P0
      00FFEBABH   SYMBOL    HCONST   ---       ?tpl?0001
      00FFEBB0H   SYMBOL    HCONST   ---       ?tpl?0002
      00FFEBCCH   SYMBOL    HCONST   ---       ?tpl?0003
      00FFEBD7H   SYMBOL    HCONST   ---       ?tpl?0004
      00FFEBE2H   SYMBOL    HCONST   ---       ?tpl?0005
      00FFEBEDH   SYMBOL    HCONST   ---       ?tpl?0006
      00FFEBF8H   SYMBOL    HCONST   ---       ?tpl?0007
      00FFEC03H   SYMBOL    HCONST   ---       ?tpl?0008
      00FFEC0EH   SYMBOL    HCONST   ---       ?tpl?0009
      00FFEC19H   SYMBOL    HCONST   ---       ?tpl?000A
      00FFEC24H   SYMBOL    HCONST   ---       ?tpl?000B
      00FFEC2FH   SYMBOL    HCONST   ---       ?tpl?000C
      00FFEC3AH   SYMBOL    HCONST   ---       ?tpl?000D
      000111B4H   SYMBOL    XDATA    ---       gps_tau1201_receiver_fifo
      000111CCH   SYMBOL    XDATA    ---       gps_gga_buffer
      0001127FH   SYMBOL    XDATA    BYTE      gps_tau1201_state
      00011280H   SYMBOL    XDATA    ---       gps_rmc_buffer
      00011300H   SYMBOL    XDATA    ---       gps_tau1201_receiver_buffer
      REG=3       REGSYM    ---      ---       str
      REG=7       REGSYM    ---      ---       temp
      R7          REGSYM    ---      BYTE      len
      R10         REGSYM    ---      BYTE      len1
      REG=3       REGSYM    ---      ---       s
      REG=3       REGSYM    ---      ---       s
      REG=3       REGSYM    ---      ---       s
      REG=7       REGSYM    ---      ---       time
      R6          REGSYM    ---      BYTE      day_num
      REG=7       REGSYM    ---      ---       line
      REG=3       REGSYM    ---      ---       gps
      REG=0       REGSYM    ---      ---       line
      R15         REGSYM    ---      BYTE      state
      DR12        REGSYM    ---      DWORD     data_len

      ---         MODULE    ---      ---       zf_device_tsl1401
      00010FB2H   PUBLIC    XDATA    BYTE      tsl1401_finish_flag
      00010FB3H   PUBLIC    XDATA    ---       tsl1401_data
      000000D0H   SFRSYM    DATA     BYTE      PSW
      0000009DH   SFRSYM    DATA     BYTE      IRCBAND
      00000097H   SFRSYM    DATA     BYTE      AUXR2
      000000EFH   SFRSYM    DATA     BYTE      AUXINTIF
      000000FDH   SFRSYM    DATA     BYTE      S4CON
      000000ACH   SFRSYM    DATA     BYTE      S3CON
      0000009AH   SFRSYM    DATA     BYTE      S2CON
      000000B7H   SFRSYM    DATA     BYTE      IPH
      000000CDH   SFRSYM    DATA     BYTE      SPSTAT
      000000DDH   SFRSYM    DATA     BYTE      T4T3M
      000000C1H   SFRSYM    DATA     BYTE      WDT_CONTR
      000000DFH   SFRSYM    DATA     BYTE      IP3
      000000F4H   SFRSYM    DATA     BYTE      USBCON
      000000B5H   SFRSYM    DATA     BYTE      IP2
      000000FFH   SFRSYM    DATA     BYTE      RSTCFG
      000000C7H   SFRSYM    DATA     BYTE      IAP_CONTR
      0000008EH   SFRSYM    DATA     BYTE      AUXR
      000000AFH   SFRSYM    DATA     BYTE      IE2
      00000088H   SFRSYM    DATA     BYTE      TCON
L251 LINKER/LOCATER V4.66.93.0                                                        11/01/2025  17:49:51  PAGE 112


      00000089H   SFRSYM    DATA     BYTE      TMOD
      00000098H   SFRSYM    DATA     BYTE      SCON
      00000087H   SFRSYM    DATA     BYTE      PCON
      000000BCH   SFRSYM    DATA     BYTE      ADC_CONTR
      000000D1H   SFRSYM    DATA     BYTE      PSW1
      000000E7H   SFRSYM    DATA     BYTE      CMPCR2
      000000E6H   SFRSYM    DATA     BYTE      CMPCR1
      000000DEH   SFRSYM    DATA     BYTE      ADCCFG
      000000B8H   SFRSYM    DATA     BYTE      IP
      0000008FH   SFRSYM    DATA     BYTE      INTCLKO
      000000EEH   SFRSYM    DATA     BYTE      IP3H
      000000B6H   SFRSYM    DATA     BYTE      IP2H
      000000BFH   SFRSYM    DATA     BYTE      P_SW4
      000000A8H   SFRSYM    DATA     BYTE      IE
      000000BBH   SFRSYM    DATA     BYTE      P_SW3
      000000BAH   SFRSYM    DATA     BYTE      P_SW2
      000000A2H   SFRSYM    DATA     BYTE      P_SW1
      000000CEH   SFRSYM    DATA     BYTE      SPCTL
      000000F8H   SFRSYM    DATA     BYTE      P7
      000000E8H   SFRSYM    DATA     BYTE      P6
      000000C8H   SFRSYM    DATA     BYTE      P5
      000000C0H   SFRSYM    DATA     BYTE      P4
      000000ABH   SFRSYM    DATA     BYTE      WKTCH
      000000B0H   SFRSYM    DATA     BYTE      P3
      000000A0H   SFRSYM    DATA     BYTE      P2
      00000090H   SFRSYM    DATA     BYTE      P1
      00000080H   SFRSYM    DATA     BYTE      P0
      000111B3H   SYMBOL    XDATA    BYTE      tsl1401_init_state
      R15         REGSYM    ---      BYTE      i
      WR14        REGSYM    ---      INT       uart_n
      R13         REGSYM    ---      BYTE      index
      R12         REGSYM    ---      BYTE      i

      ---         MODULE    ---      ---       seekfree_assistant
      0001138CH   PUBLIC    XDATA    ---       seekfree_assistant_oscilloscope_data
      000113C7H   PUBLIC    XDATA    ---       seekfree_assistant_parameter_update_flag
      000113CFH   PUBLIC    XDATA    ---       seekfree_assistant_parameter
      000000D0H   SFRSYM    DATA     BYTE      PSW
      0000009DH   SFRSYM    DATA     BYTE      IRCBAND
      00000097H   SFRSYM    DATA     BYTE      AUXR2
      000000EFH   SFRSYM    DATA     BYTE      AUXINTIF
      000000FDH   SFRSYM    DATA     BYTE      S4CON
      000000ACH   SFRSYM    DATA     BYTE      S3CON
      0000009AH   SFRSYM    DATA     BYTE      S2CON
      000000B7H   SFRSYM    DATA     BYTE      IPH
      000000CDH   SFRSYM    DATA     BYTE      SPSTAT
      000000DDH   SFRSYM    DATA     BYTE      T4T3M
      000000C1H   SFRSYM    DATA     BYTE      WDT_CONTR
      000000DFH   SFRSYM    DATA     BYTE      IP3
      000000F4H   SFRSYM    DATA     BYTE      USBCON
      000000B5H   SFRSYM    DATA     BYTE      IP2
      000000FFH   SFRSYM    DATA     BYTE      RSTCFG
      000000C7H   SFRSYM    DATA     BYTE      IAP_CONTR
      0000008EH   SFRSYM    DATA     BYTE      AUXR
      000000AFH   SFRSYM    DATA     BYTE      IE2
      00000088H   SFRSYM    DATA     BYTE      TCON
      00000089H   SFRSYM    DATA     BYTE      TMOD
      00000098H   SFRSYM    DATA     BYTE      SCON
      00000087H   SFRSYM    DATA     BYTE      PCON
      000000BCH   SFRSYM    DATA     BYTE      ADC_CONTR
      000000D1H   SFRSYM    DATA     BYTE      PSW1
      000000E7H   SFRSYM    DATA     BYTE      CMPCR2
      000000E6H   SFRSYM    DATA     BYTE      CMPCR1
      000000DEH   SFRSYM    DATA     BYTE      ADCCFG
      000000B8H   SFRSYM    DATA     BYTE      IP
L251 LINKER/LOCATER V4.66.93.0                                                        11/01/2025  17:49:51  PAGE 113


      0000008FH   SFRSYM    DATA     BYTE      INTCLKO
      000000EEH   SFRSYM    DATA     BYTE      IP3H
      000000B6H   SFRSYM    DATA     BYTE      IP2H
      000000BFH   SFRSYM    DATA     BYTE      P_SW4
      000000A8H   SFRSYM    DATA     BYTE      IE
      000000BBH   SFRSYM    DATA     BYTE      P_SW3
      000000BAH   SFRSYM    DATA     BYTE      P_SW2
      000000A2H   SFRSYM    DATA     BYTE      P_SW1
      000000CEH   SFRSYM    DATA     BYTE      SPCTL
      000000F8H   SFRSYM    DATA     BYTE      P7
      000000A8H.7 SFRSYM    DATA     BIT       EA
      000000E8H   SFRSYM    DATA     BYTE      P6
      000000C8H   SFRSYM    DATA     BYTE      P5
      000000C0H   SFRSYM    DATA     BYTE      P4
      000000ABH   SFRSYM    DATA     BYTE      WKTCH
      000000B0H   SFRSYM    DATA     BYTE      P3
      000000A0H   SFRSYM    DATA     BYTE      P2
      00000090H   SFRSYM    DATA     BYTE      P1
      00000080H   SFRSYM    DATA     BYTE      P0
      00011384H   SYMBOL    XDATA    ---       seekfree_assistant_camera_dot_data
      000113B0H   SYMBOL    XDATA    ---       seekfree_assistant_fifo
      000113EFH   SYMBOL    XDATA    ---       seekfree_assistant_camera_buffer
      00011439H   SYMBOL    XDATA    ---       seekfree_assistant_camera_data
      00011441H   SYMBOL    XDATA    ---       seekfree_assistant_buffer
      00FFEAFFH   SYMBOL    HCONST   ---       ?tpl?0001
      00FFEB23H   SYMBOL    HCONST   ---       ?tpl?0002
      REG=6       REGSYM    ---      ---       buffer
      DR28        REGSYM    ---      DWORD     length
      R11         REGSYM    ---      BYTE      temp_sum
      WR12        REGSYM    ---      INT       camera_type
      R9          REGSYM    ---      BYTE      boundary_num
      WR14        REGSYM    ---      WORD      width
      WR6         REGSYM    ---      INT       camera_type
      REG=0       REGSYM    ---      ---       image_addr
      WR8         REGSYM    ---      WORD      width
      REG=7       REGSYM    ---      ---       seekfree_assistant_oscilloscope
      R15         REGSYM    ---      BYTE      packet_size
      R14         REGSYM    ---      BYTE      i
      REG=3       REGSYM    ---      ---       buffer
      WR8         REGSYM    ---      INT       boundary_type
      WR2         REGSYM    ---      WORD      dot_num
      REG=7       REGSYM    ---      ---       dot_x1
      R6          REGSYM    ---      BYTE      i
      R7          REGSYM    ---      BYTE      boundary_num
      R5          REGSYM    ---      BYTE      boundary_data_type
      R15         REGSYM    ---      BYTE      temp_sum
      WR12        REGSYM    ---      WORD      struct_len

      ---         MODULE    ---      ---       seekfree_assistant_interface
      00011841H   PUBLIC    XDATA    ---       seekfree_assistant_receive_callback
      00011843H   PUBLIC    XDATA    ---       seekfree_assistant_transfer_callback
      000000D0H   SFRSYM    DATA     BYTE      PSW
      0000009DH   SFRSYM    DATA     BYTE      IRCBAND
      00000097H   SFRSYM    DATA     BYTE      AUXR2
      000000EFH   SFRSYM    DATA     BYTE      AUXINTIF
      000000FDH   SFRSYM    DATA     BYTE      S4CON
      000000ACH   SFRSYM    DATA     BYTE      S3CON
      0000009AH   SFRSYM    DATA     BYTE      S2CON
      000000B7H   SFRSYM    DATA     BYTE      IPH
      000000CDH   SFRSYM    DATA     BYTE      SPSTAT
      000000DDH   SFRSYM    DATA     BYTE      T4T3M
      000000C1H   SFRSYM    DATA     BYTE      WDT_CONTR
      000000DFH   SFRSYM    DATA     BYTE      IP3
      000000F4H   SFRSYM    DATA     BYTE      USBCON
      000000B5H   SFRSYM    DATA     BYTE      IP2
L251 LINKER/LOCATER V4.66.93.0                                                        11/01/2025  17:49:51  PAGE 114


      000000FFH   SFRSYM    DATA     BYTE      RSTCFG
      000000C7H   SFRSYM    DATA     BYTE      IAP_CONTR
      0000008EH   SFRSYM    DATA     BYTE      AUXR
      000000AFH   SFRSYM    DATA     BYTE      IE2
      00000088H   SFRSYM    DATA     BYTE      TCON
      00000089H   SFRSYM    DATA     BYTE      TMOD
      00000098H   SFRSYM    DATA     BYTE      SCON
      00000087H   SFRSYM    DATA     BYTE      PCON
      000000BCH   SFRSYM    DATA     BYTE      ADC_CONTR
      000000D1H   SFRSYM    DATA     BYTE      PSW1
      000000E7H   SFRSYM    DATA     BYTE      CMPCR2
      000000E6H   SFRSYM    DATA     BYTE      CMPCR1
      000000DEH   SFRSYM    DATA     BYTE      ADCCFG
      000000B8H   SFRSYM    DATA     BYTE      IP
      0000008FH   SFRSYM    DATA     BYTE      INTCLKO
      000000EEH   SFRSYM    DATA     BYTE      IP3H
      000000B6H   SFRSYM    DATA     BYTE      IP2H
      000000BFH   SFRSYM    DATA     BYTE      P_SW4
      000000A8H   SFRSYM    DATA     BYTE      IE
      000000BBH   SFRSYM    DATA     BYTE      P_SW3
      000000BAH   SFRSYM    DATA     BYTE      P_SW2
      000000A2H   SFRSYM    DATA     BYTE      P_SW1
      000000CEH   SFRSYM    DATA     BYTE      SPCTL
      000000F8H   SFRSYM    DATA     BYTE      P7
      000000E8H   SFRSYM    DATA     BYTE      P6
      000000C8H   SFRSYM    DATA     BYTE      P5
      000000C0H   SFRSYM    DATA     BYTE      P4
      000000ABH   SFRSYM    DATA     BYTE      WKTCH
      000000B0H   SFRSYM    DATA     BYTE      P3
      000000A0H   SFRSYM    DATA     BYTE      P2
      00000090H   SFRSYM    DATA     BYTE      P1
      00000080H   SFRSYM    DATA     BYTE      P0
      WR6         REGSYM    ---      INT       transfer_device

      ---         MODULE    ---      ---       isr
      00FFC118H   PUBLIC    CODE     ---       TM11_IRQHandler
      00FFB0D6H   PUBLIC    CODE     ---       DMA_UART1_IRQHandler
      00FFB57BH   PUBLIC    CODE     ---       DMA_UART2_IRQHandler
      00FFB604H   PUBLIC    CODE     ---       DMA_UART3_IRQHandler
      00FFB68DH   PUBLIC    CODE     ---       DMA_UART4_IRQHandler
      00FFC386H   PUBLIC    CODE     ---       TM0_IRQHandler
      00FFC3C4H   PUBLIC    CODE     ---       TM1_IRQHandler
      00FFC402H   PUBLIC    CODE     ---       TM2_IRQHandler
      00FFC440H   PUBLIC    CODE     ---       TM3_IRQHandler
      00FFC47EH   PUBLIC    CODE     ---       TM4_IRQHandler
      000000D0H   SFRSYM    DATA     BYTE      PSW
      0000009DH   SFRSYM    DATA     BYTE      IRCBAND
      00000097H   SFRSYM    DATA     BYTE      AUXR2
      000000EFH   SFRSYM    DATA     BYTE      AUXINTIF
      000000FDH   SFRSYM    DATA     BYTE      S4CON
      000000ACH   SFRSYM    DATA     BYTE      S3CON
      0000009AH   SFRSYM    DATA     BYTE      S2CON
      000000B7H   SFRSYM    DATA     BYTE      IPH
      000000CDH   SFRSYM    DATA     BYTE      SPSTAT
      000000DDH   SFRSYM    DATA     BYTE      T4T3M
      000000C1H   SFRSYM    DATA     BYTE      WDT_CONTR
      000000DFH   SFRSYM    DATA     BYTE      IP3
      000000F4H   SFRSYM    DATA     BYTE      USBCON
      000000B5H   SFRSYM    DATA     BYTE      IP2
      000000FFH   SFRSYM    DATA     BYTE      RSTCFG
      000000C7H   SFRSYM    DATA     BYTE      IAP_CONTR
      0000008EH   SFRSYM    DATA     BYTE      AUXR
      000000AFH   SFRSYM    DATA     BYTE      IE2
      00000088H   SFRSYM    DATA     BYTE      TCON
      00000089H   SFRSYM    DATA     BYTE      TMOD
L251 LINKER/LOCATER V4.66.93.0                                                        11/01/2025  17:49:51  PAGE 115


      00000098H   SFRSYM    DATA     BYTE      SCON
      00000087H   SFRSYM    DATA     BYTE      PCON
      000000BCH   SFRSYM    DATA     BYTE      ADC_CONTR
      000000D1H   SFRSYM    DATA     BYTE      PSW1
      000000E7H   SFRSYM    DATA     BYTE      CMPCR2
      000000E6H   SFRSYM    DATA     BYTE      CMPCR1
      000000DEH   SFRSYM    DATA     BYTE      ADCCFG
      000000B8H   SFRSYM    DATA     BYTE      IP
      0000008FH   SFRSYM    DATA     BYTE      INTCLKO
      000000EEH   SFRSYM    DATA     BYTE      IP3H
      000000B6H   SFRSYM    DATA     BYTE      IP2H
      000000BFH   SFRSYM    DATA     BYTE      P_SW4
      000000A8H   SFRSYM    DATA     BYTE      IE
      000000BBH   SFRSYM    DATA     BYTE      P_SW3
      000000BAH   SFRSYM    DATA     BYTE      P_SW2
      000000A2H   SFRSYM    DATA     BYTE      P_SW1
      000000CEH   SFRSYM    DATA     BYTE      SPCTL
      000000F8H   SFRSYM    DATA     BYTE      P7
      000000E8H   SFRSYM    DATA     BYTE      P6
      000000C8H   SFRSYM    DATA     BYTE      P5
      000000C0H   SFRSYM    DATA     BYTE      P4
      000000ABH   SFRSYM    DATA     BYTE      WKTCH
      000000B0H   SFRSYM    DATA     BYTE      P3
      000000A0H   SFRSYM    DATA     BYTE      P2
      00000090H   SFRSYM    DATA     BYTE      P1
      00000080H   SFRSYM    DATA     BYTE      P0

      00FFB0D6H   BLOCK     CODE     ---       LVL=0
      00FFB0EAH   BLOCK     CODE     NEAR LAB  LVL=1
      0001184DH   SYMBOL    XDATA    BYTE      dwon_count
      ---         BLOCKEND  ---      ---       LVL=1
      00FFB0D6H   LINE      CODE     ---       #40
      00FFB0EAH   LINE      CODE     ---       #41
      00FFB0EAH   LINE      CODE     ---       #43
      00FFB0F8H   LINE      CODE     ---       #45
      00FFB108H   LINE      CODE     ---       #46
      00FFB10DH   LINE      CODE     ---       #49
      00FFB114H   LINE      CODE     ---       #51
      00FFB123H   LINE      CODE     ---       #53
      00FFB126H   LINE      CODE     ---       #54
      00FFB128H   LINE      CODE     ---       #58
      00FFB12DH   LINE      CODE     ---       #59
      00FFB12DH   LINE      CODE     ---       #61
      00FFB137H   LINE      CODE     ---       #63
      00FFB143H   LINE      CODE     ---       #64
      00FFB143H   LINE      CODE     ---       #67
      00FFB151H   LINE      CODE     ---       #69
      00FFB161H   LINE      CODE     ---       #70
      00FFB166H   LINE      CODE     ---       #74
      ---         BLOCKEND  ---      ---       LVL=0

      00FFB57BH   BLOCK     CODE     ---       LVL=0
      00FFB57BH   LINE      CODE     ---       #79
      00FFB58FH   LINE      CODE     ---       #82
      00FFB59DH   LINE      CODE     ---       #84
      00FFB5ADH   LINE      CODE     ---       #85
      00FFB5B4H   LINE      CODE     ---       #87
      00FFB5BEH   LINE      CODE     ---       #89
      00FFB5CAH   LINE      CODE     ---       #90
      00FFB5CAH   LINE      CODE     ---       #93
      00FFB5D8H   LINE      CODE     ---       #95
      00FFB5E8H   LINE      CODE     ---       #96
      00FFB5EFH   LINE      CODE     ---       #101
      ---         BLOCKEND  ---      ---       LVL=0

L251 LINKER/LOCATER V4.66.93.0                                                        11/01/2025  17:49:51  PAGE 116


      00FFB604H   BLOCK     CODE     ---       LVL=0
      00FFB604H   LINE      CODE     ---       #104
      00FFB618H   LINE      CODE     ---       #107
      00FFB626H   LINE      CODE     ---       #109
      00FFB636H   LINE      CODE     ---       #110
      00FFB63DH   LINE      CODE     ---       #112
      00FFB647H   LINE      CODE     ---       #115
      00FFB653H   LINE      CODE     ---       #117
      00FFB653H   LINE      CODE     ---       #120
      00FFB661H   LINE      CODE     ---       #122
      00FFB671H   LINE      CODE     ---       #123
      00FFB678H   LINE      CODE     ---       #128
      ---         BLOCKEND  ---      ---       LVL=0

      00FFB68DH   BLOCK     CODE     ---       LVL=0
      00FFB68DH   LINE      CODE     ---       #131
      00FFB6A1H   LINE      CODE     ---       #134
      00FFB6AFH   LINE      CODE     ---       #136
      00FFB6BFH   LINE      CODE     ---       #137
      00FFB6C6H   LINE      CODE     ---       #139
      00FFB6D0H   LINE      CODE     ---       #141
      00FFB6DCH   LINE      CODE     ---       #143
      00FFB6DCH   LINE      CODE     ---       #146
      00FFB6EAH   LINE      CODE     ---       #148
      00FFB6FAH   LINE      CODE     ---       #149
      00FFB701H   LINE      CODE     ---       #154
      ---         BLOCKEND  ---      ---       LVL=0

      00FFC386H   BLOCK     CODE     ---       LVL=0
      00FFC386H   LINE      CODE     ---       #158
      00FFC39AH   LINE      CODE     ---       #160
      00FFC39DH   LINE      CODE     ---       #162
      00FFC3A7H   LINE      CODE     ---       #164
      00FFC3AFH   LINE      CODE     ---       #165
      ---         BLOCKEND  ---      ---       LVL=0

      00FFC3C4H   BLOCK     CODE     ---       LVL=0
      00FFC3C4H   LINE      CODE     ---       #167
      00FFC3D8H   LINE      CODE     ---       #169
      00FFC3DBH   LINE      CODE     ---       #171
      00FFC3E5H   LINE      CODE     ---       #173
      00FFC3EDH   LINE      CODE     ---       #174
      ---         BLOCKEND  ---      ---       LVL=0

      00FFC402H   BLOCK     CODE     ---       LVL=0
      00FFC402H   LINE      CODE     ---       #176
      00FFC416H   LINE      CODE     ---       #178
      00FFC419H   LINE      CODE     ---       #180
      00FFC423H   LINE      CODE     ---       #182
      00FFC42BH   LINE      CODE     ---       #183
      ---         BLOCKEND  ---      ---       LVL=0

      00FFC440H   BLOCK     CODE     ---       LVL=0
      00FFC440H   LINE      CODE     ---       #185
      00FFC454H   LINE      CODE     ---       #187
      00FFC457H   LINE      CODE     ---       #189
      00FFC461H   LINE      CODE     ---       #191
      00FFC469H   LINE      CODE     ---       #192
      ---         BLOCKEND  ---      ---       LVL=0

      00FFC47EH   BLOCK     CODE     ---       LVL=0
      00FFC47EH   LINE      CODE     ---       #195
      00FFC492H   LINE      CODE     ---       #197
      00FFC495H   LINE      CODE     ---       #199
      00FFC49FH   LINE      CODE     ---       #201
L251 LINKER/LOCATER V4.66.93.0                                                        11/01/2025  17:49:51  PAGE 117


      00FFC4A7H   LINE      CODE     ---       #202
      ---         BLOCKEND  ---      ---       LVL=0

      00FFC118H   BLOCK     CODE     ---       LVL=0
      00FFC118H   LINE      CODE     ---       #205
      00FFC12CH   LINE      CODE     ---       #207
      00FFC13CH   LINE      CODE     ---       #209
      00FFC146H   LINE      CODE     ---       #211
      00FFC14EH   LINE      CODE     ---       #212
      ---         BLOCKEND  ---      ---       LVL=0

      ---         MODULE    ---      ---       main
      00FF0066H   PUBLIC    CODE     ---       main
      00FF8E14H   PUBLIC    CODE     ---       pit_handler1
      00FFAE3EH   PUBLIC    CODE     ---       _m
      000117AFH   PUBLIC    XDATA    INT       T4
      000117B1H   PUBLIC    XDATA    INT       T
      000117B3H   PUBLIC    XDATA    FLOAT     delta_angle_buffer
      000117B7H   PUBLIC    XDATA    INT       current_delta_angle
      000117B9H   PUBLIC    XDATA    INT       delta_Speed
      000117BBH   PUBLIC    XDATA    LONG      encoder
      000117BFH   PUBLIC    XDATA    BYTE      speed_update_flag
      000000D0H   SFRSYM    DATA     BYTE      PSW
      0000009DH   SFRSYM    DATA     BYTE      IRCBAND
      00000097H   SFRSYM    DATA     BYTE      AUXR2
      000000EFH   SFRSYM    DATA     BYTE      AUXINTIF
      000000FDH   SFRSYM    DATA     BYTE      S4CON
      000000ACH   SFRSYM    DATA     BYTE      S3CON
      0000009AH   SFRSYM    DATA     BYTE      S2CON
      000000B7H   SFRSYM    DATA     BYTE      IPH
      000000CDH   SFRSYM    DATA     BYTE      SPSTAT
      000000DDH   SFRSYM    DATA     BYTE      T4T3M
      000000C1H   SFRSYM    DATA     BYTE      WDT_CONTR
      000000DFH   SFRSYM    DATA     BYTE      IP3
      000000F4H   SFRSYM    DATA     BYTE      USBCON
      000000B5H   SFRSYM    DATA     BYTE      IP2
      000000FFH   SFRSYM    DATA     BYTE      RSTCFG
      000000C7H   SFRSYM    DATA     BYTE      IAP_CONTR
      0000008EH   SFRSYM    DATA     BYTE      AUXR
      000000AFH   SFRSYM    DATA     BYTE      IE2
      00000088H   SFRSYM    DATA     BYTE      TCON
      00000089H   SFRSYM    DATA     BYTE      TMOD
      00000098H   SFRSYM    DATA     BYTE      SCON
      00000087H   SFRSYM    DATA     BYTE      PCON
      000000BCH   SFRSYM    DATA     BYTE      ADC_CONTR
      000000D1H   SFRSYM    DATA     BYTE      PSW1
      000000E7H   SFRSYM    DATA     BYTE      CMPCR2
      000000E6H   SFRSYM    DATA     BYTE      CMPCR1
      000000DEH   SFRSYM    DATA     BYTE      ADCCFG
      000000B8H   SFRSYM    DATA     BYTE      IP
      0000008FH   SFRSYM    DATA     BYTE      INTCLKO
      000000EEH   SFRSYM    DATA     BYTE      IP3H
      000000B6H   SFRSYM    DATA     BYTE      IP2H
      000000BFH   SFRSYM    DATA     BYTE      P_SW4
      000000A8H   SFRSYM    DATA     BYTE      IE
      000000BBH   SFRSYM    DATA     BYTE      P_SW3
      000000BAH   SFRSYM    DATA     BYTE      P_SW2
      000000A2H   SFRSYM    DATA     BYTE      P_SW1
      000000CEH   SFRSYM    DATA     BYTE      SPCTL
      000000F8H   SFRSYM    DATA     BYTE      P7
      000000A8H.7 SFRSYM    DATA     BIT       EA
      000000E8H   SFRSYM    DATA     BYTE      P6
      000000C8H   SFRSYM    DATA     BYTE      P5
      000000C0H   SFRSYM    DATA     BYTE      P4
      000000ABH   SFRSYM    DATA     BYTE      WKTCH
L251 LINKER/LOCATER V4.66.93.0                                                        11/01/2025  17:49:51  PAGE 118


      000000B0H   SFRSYM    DATA     BYTE      P3
      000000A0H   SFRSYM    DATA     BYTE      P2
      00000090H   SFRSYM    DATA     BYTE      P1
      00000080H   SFRSYM    DATA     BYTE      P0

      00FF0066H   BLOCK     CODE     ---       LVL=0
      00FF0066H   LINE      CODE     ---       #13
      ---         BLOCKEND  ---      ---       LVL=0

      00FFAE3EH   BLOCK     CODE     ---       LVL=0
      00FFAE3EH   LINE      CODE     ---       #13
      00FFAE3EH   LINE      CODE     ---       #15
      00FFAE49H   LINE      CODE     ---       #16
      00FFAE4CH   LINE      CODE     ---       #18
      00FFAE4FH   LINE      CODE     ---       #19
      00FFAE59H   LINE      CODE     ---       #21
      00FFAE59H   LINE      CODE     ---       #24
      00FFAE85H   LINE      CODE     ---       #26
      00FFAE85H   LINE      CODE     ---       #28
      00FFAE88H   LINE      CODE     ---       #29
      00FFAE8EH   LINE      CODE     ---       #31
      00FFAE90H   LINE      CODE     ---       #32
      00FFAE97H   LINE      CODE     ---       #33
      00FFAE9CH   LINE      CODE     ---       #34
      00FFAE9EH   LINE      CODE     ---       #35
      00FFAE9EH   LINE      CODE     ---       #36
      00FFAEA0H   LINE      CODE     ---       #38
      00FFAEA0H   LINE      CODE     ---       #40
      00FFAEA3H   LINE      CODE     ---       #41
      00FFAEA5H   LINE      CODE     ---       #43
      00FFAEA5H   LINE      CODE     ---       #45
      00FFAEA8H   LINE      CODE     ---       #46
      00FFAEAAH   LINE      CODE     ---       #48
      00FFAEAAH   LINE      CODE     ---       #50
      00FFAEADH   LINE      CODE     ---       #51
      00FFAEAFH   LINE      CODE     ---       #53
      00FFAEAFH   LINE      CODE     ---       #55
      00FFAEB2H   LINE      CODE     ---       #56
      00FFAEB4H   LINE      CODE     ---       #58
      00FFAEB4H   LINE      CODE     ---       #60
      00FFAEB7H   LINE      CODE     ---       #61
      00FFAEBAH   LINE      CODE     ---       #62
      00FFAEBCH   LINE      CODE     ---       #64
      00FFAEBCH   LINE      CODE     ---       #66
      00FFAEBFH   LINE      CODE     ---       #67
      00FFAEC2H   LINE      CODE     ---       #68
      00FFAEC4H   LINE      CODE     ---       #70
      00FFAEC4H   LINE      CODE     ---       #72
      00FFAEC7H   LINE      CODE     ---       #73
      00FFAEC9H   LINE      CODE     ---       #75
      00FFAEC9H   LINE      CODE     ---       #77
      00FFAECCH   LINE      CODE     ---       #78
      00FFAECFH   LINE      CODE     ---       #79
      00FFAECFH   LINE      CODE     ---       #81
      00FFAECFH   LINE      CODE     ---       #82
      00FFAED5H   LINE      CODE     ---       #84
      00FFAEDAH   LINE      CODE     ---       #85
      00FFAEDFH   LINE      CODE     ---       #86
      00FFAEE2H   LINE      CODE     ---       #87
      ---         BLOCKEND  ---      ---       LVL=0

      00FF8E14H   BLOCK     CODE     ---       LVL=0
      00FF8E14H   LINE      CODE     ---       #94
      00FF8E14H   LINE      CODE     ---       #96
      00FF8E1FH   LINE      CODE     ---       #97
L251 LINKER/LOCATER V4.66.93.0                                                        11/01/2025  17:49:51  PAGE 119


      00FF8E22H   LINE      CODE     ---       #98
      00FF8E2EH   LINE      CODE     ---       #99
      00FF8E3AH   LINE      CODE     ---       #100
      00FF8E3DH   LINE      CODE     ---       #101
      00FF8E40H   LINE      CODE     ---       #102
      00FF8E46H   LINE      CODE     ---       #104
      00FF8E49H   LINE      CODE     ---       #106
      00FF8E49H   LINE      CODE     ---       #107
      00FF8E70H   LINE      CODE     ---       #109
      00FF8E8FH   LINE      CODE     ---       #110
      00FF8EA4H   LINE      CODE     ---       #112
      00FF8EA7H   LINE      CODE     ---       #113
      00FF8EEBH   LINE      CODE     ---       #114
      00FF8F09H   LINE      CODE     ---       #115
      00FF8F19H   LINE      CODE     ---       #116
      00FF8F1CH   LINE      CODE     ---       #117
      00FF8F1FH   LINE      CODE     ---       #125
      00FF8F34H   LINE      CODE     ---       #127
      00FF8F37H   LINE      CODE     ---       #128
      00FF8F7BH   LINE      CODE     ---       #129
      00FF8F99H   LINE      CODE     ---       #130
      00FF8FA9H   LINE      CODE     ---       #131
      00FF8FABH   LINE      CODE     ---       #132
      00FF8FB7H   LINE      CODE     ---       #134
      00FF8FBAH   LINE      CODE     ---       #135
      00FF8FBCH   LINE      CODE     ---       #138
      00FF8FBFH   LINE      CODE     ---       #139
      00FF8FBFH   LINE      CODE     ---       #140
      00FF8FBFH   LINE      CODE     ---       #141
      00FF8FCBH   LINE      CODE     ---       #143
      00FF8FD3H   LINE      CODE     ---       #144
      00FF8FD6H   LINE      CODE     ---       #145
      00FF8FDCH   LINE      CODE     ---       #147
      00FF8FDFH   LINE      CODE     ---       #148
      00FF8FDFH   LINE      CODE     ---       #149
      00FF8FE5H   LINE      CODE     ---       #151
      00FF8FE8H   LINE      CODE     ---       #152
      00FF8FE8H   LINE      CODE     ---       #154
      ---         BLOCKEND  ---      ---       LVL=0

      ---         MODULE    ---      ---       ADC_Get
      00FFA1C1H   PUBLIC    CODE     ---       ADC_SampleAndFilter
      00FFAEE5H   PUBLIC    CODE     ---       adc_filter
      00FFC711H   PUBLIC    CODE     ---       ADC_GetInit
      000116F8H   PUBLIC    XDATA    ---       raw_adc_data
      00011720H   PUBLIC    XDATA    ---       ADC_Num
      0001172EH   PUBLIC    XDATA    ---       filtered_adc
      00000020H.0 PUBLIC    BIT      BIT       Battery_Init
      000000D0H   SFRSYM    DATA     BYTE      PSW
      0000009DH   SFRSYM    DATA     BYTE      IRCBAND
      00000097H   SFRSYM    DATA     BYTE      AUXR2
      000000EFH   SFRSYM    DATA     BYTE      AUXINTIF
      000000FDH   SFRSYM    DATA     BYTE      S4CON
      000000ACH   SFRSYM    DATA     BYTE      S3CON
      0000009AH   SFRSYM    DATA     BYTE      S2CON
      000000B7H   SFRSYM    DATA     BYTE      IPH
      000000CDH   SFRSYM    DATA     BYTE      SPSTAT
      000000DDH   SFRSYM    DATA     BYTE      T4T3M
      000000C1H   SFRSYM    DATA     BYTE      WDT_CONTR
      000000DFH   SFRSYM    DATA     BYTE      IP3
      000000F4H   SFRSYM    DATA     BYTE      USBCON
      000000B5H   SFRSYM    DATA     BYTE      IP2
      000000FFH   SFRSYM    DATA     BYTE      RSTCFG
      000000C7H   SFRSYM    DATA     BYTE      IAP_CONTR
      0000008EH   SFRSYM    DATA     BYTE      AUXR
L251 LINKER/LOCATER V4.66.93.0                                                        11/01/2025  17:49:51  PAGE 120


      000000AFH   SFRSYM    DATA     BYTE      IE2
      00000088H   SFRSYM    DATA     BYTE      TCON
      00000089H   SFRSYM    DATA     BYTE      TMOD
      00000098H   SFRSYM    DATA     BYTE      SCON
      00000087H   SFRSYM    DATA     BYTE      PCON
      000000BCH   SFRSYM    DATA     BYTE      ADC_CONTR
      000000D1H   SFRSYM    DATA     BYTE      PSW1
      000000E7H   SFRSYM    DATA     BYTE      CMPCR2
      000000E6H   SFRSYM    DATA     BYTE      CMPCR1
      000000DEH   SFRSYM    DATA     BYTE      ADCCFG
      000000B8H   SFRSYM    DATA     BYTE      IP
      0000008FH   SFRSYM    DATA     BYTE      INTCLKO
      000000EEH   SFRSYM    DATA     BYTE      IP3H
      000000B6H   SFRSYM    DATA     BYTE      IP2H
      000000BFH   SFRSYM    DATA     BYTE      P_SW4
      000000A8H   SFRSYM    DATA     BYTE      IE
      000000BBH   SFRSYM    DATA     BYTE      P_SW3
      000000BAH   SFRSYM    DATA     BYTE      P_SW2
      000000A2H   SFRSYM    DATA     BYTE      P_SW1
      000000CEH   SFRSYM    DATA     BYTE      SPCTL
      000000F8H   SFRSYM    DATA     BYTE      P7
      000000E8H   SFRSYM    DATA     BYTE      P6
      000000C8H   SFRSYM    DATA     BYTE      P5
      000000C0H   SFRSYM    DATA     BYTE      P4
      000000ABH   SFRSYM    DATA     BYTE      WKTCH
      000000B0H   SFRSYM    DATA     BYTE      P3
      000000A0H   SFRSYM    DATA     BYTE      P2
      00000090H   SFRSYM    DATA     BYTE      P1
      00000080H   SFRSYM    DATA     BYTE      P0

      00FFC711H   BLOCK     CODE     ---       LVL=0
      00FFC711H   LINE      CODE     ---       #7
      00FFC711H   LINE      CODE     ---       #9
      00FFC71CH   LINE      CODE     ---       #10
      00FFC727H   LINE      CODE     ---       #11
      00FFC732H   LINE      CODE     ---       #12
      00FFC73DH   LINE      CODE     ---       #17
      ---         BLOCKEND  ---      ---       LVL=0

      00FFAEE5H   BLOCK     CODE     ---       LVL=0
      REG=7       REGSYM    ---      ---       samples
      R15         REGSYM    ---      BYTE      count
      00FFAEEBH   BLOCK     CODE     NEAR LAB  LVL=1
      R14         REGSYM    ---      BYTE      i
      DR20        REGSYM    ---      DWORD     sum
      WR24        REGSYM    ---      WORD      max
      WR26        REGSYM    ---      WORD      min
      ---         BLOCKEND  ---      ---       LVL=1
      00FFAEE5H   LINE      CODE     ---       #20
      00FFAEEBH   LINE      CODE     ---       #21
      00FFAEEBH   LINE      CODE     ---       #23
      00FFAEEDH   LINE      CODE     ---       #24
      00FFAEF0H   LINE      CODE     ---       #25
      00FFAEF3H   LINE      CODE     ---       #27
      00FFAEF8H   LINE      CODE     ---       #29
      00FFAEFCH   LINE      CODE     ---       #31
      00FFAF0BH   LINE      CODE     ---       #32
      00FFAF11H   LINE      CODE     ---       #33
      00FFAF1CH   LINE      CODE     ---       #34
      00FFAF1CH   LINE      CODE     ---       #35
      00FFAF20H   LINE      CODE     ---       #37
      00FFAF3EH   LINE      CODE     ---       #38
      00FFAF5CH   LINE      CODE     ---       #39
      00FFAF6BH   LINE      CODE     ---       #40
      00FFAF71H   LINE      CODE     ---       #41
L251 LINKER/LOCATER V4.66.93.0                                                        11/01/2025  17:49:51  PAGE 121


      00FFAF88H   LINE      CODE     ---       #42
      ---         BLOCKEND  ---      ---       LVL=0

      00FFA1C1H   BLOCK     CODE     ---       LVL=0
      00FFA1C3H   BLOCK     CODE     NEAR LAB  LVL=1
      R14         REGSYM    ---      BYTE      sample_index
      R15         REGSYM    ---      BYTE      channel_index
      ---         BLOCKEND  ---      ---       LVL=1
      00FFA1C1H   LINE      CODE     ---       #45
      00FFA1C3H   LINE      CODE     ---       #46
      00FFA1C3H   LINE      CODE     ---       #47
      00FFA1C5H   LINE      CODE     ---       #48
      00FFA1C7H   LINE      CODE     ---       #51
      00FFA1CBH   LINE      CODE     ---       #53
      00FFA1E6H   LINE      CODE     ---       #54
      00FFA201H   LINE      CODE     ---       #55
      00FFA21CH   LINE      CODE     ---       #56
      00FFA237H   LINE      CODE     ---       #57
      00FFA23EH   LINE      CODE     ---       #60
      00FFA242H   LINE      CODE     ---       #62
      00FFA268H   LINE      CODE     ---       #63
      00FFA26FH   LINE      CODE     ---       #64
      00FFA27BH   LINE      CODE     ---       #65
      00FFA287H   LINE      CODE     ---       #66
      00FFA293H   LINE      CODE     ---       #67
      00FFA29FH   LINE      CODE     ---       #68
      ---         BLOCKEND  ---      ---       LVL=0
      WR14        REGSYM    ---      WORD      battery_adc
      WR2         REGSYM    ---      WORD      ref_adc
      WR6         REGSYM    ---      WORD      battery_v
      R13         REGSYM    ---      BYTE      i

      ---         MODULE    ---      ---       control
      00FFA53CH   PUBLIC    CODE     ---       Motor_Right_pi_control
      00FFA614H   PUBLIC    CODE     ---       Motor_Left_pi_control
      00FF85A6H   PUBLIC    CODE     ---       PID_Update
      00FFC911H   PUBLIC    CODE     ---       Ser_Servo_Duty
      00FF91ADH   PUBLIC    CODE     ---       Cycle_Update
      00FFAF8BH   PUBLIC    CODE     ---       Motor_Update_Smooth
      00FFC163H   PUBLIC    CODE     ---       Motor_Update
      00FFB33BH   PUBLIC    CODE     ---       Servo_turn_pid
      00FFC4FAH   PUBLIC    CODE     ---       MotorL_SetSpeed
      00FFC537H   PUBLIC    CODE     ---       MotorR_SetSpeed
      00FF9650H   PUBLIC    CODE     ---       Speed_diff
      00011772H   PUBLIC    XDATA    FLOAT     Current_dajiao
      00011776H   PUBLIC    XDATA    FLOAT     Current_Speed
      0001177AH   PUBLIC    XDATA    BYTE      CAR_Mode
      0001177BH   PUBLIC    XDATA    FLOAT     d_range
      0001177FH   PUBLIC    XDATA    FLOAT     Right_Speed
      00011783H   PUBLIC    XDATA    FLOAT     Left_Speed
      000000D0H   SFRSYM    DATA     BYTE      PSW
      0000009DH   SFRSYM    DATA     BYTE      IRCBAND
      00000097H   SFRSYM    DATA     BYTE      AUXR2
      000000EFH   SFRSYM    DATA     BYTE      AUXINTIF
      000000FDH   SFRSYM    DATA     BYTE      S4CON
      000000ACH   SFRSYM    DATA     BYTE      S3CON
      0000009AH   SFRSYM    DATA     BYTE      S2CON
      000000B7H   SFRSYM    DATA     BYTE      IPH
      000000CDH   SFRSYM    DATA     BYTE      SPSTAT
      000000DDH   SFRSYM    DATA     BYTE      T4T3M
      000000C1H   SFRSYM    DATA     BYTE      WDT_CONTR
      000000DFH   SFRSYM    DATA     BYTE      IP3
      000000F4H   SFRSYM    DATA     BYTE      USBCON
      000000B5H   SFRSYM    DATA     BYTE      IP2
      000000FFH   SFRSYM    DATA     BYTE      RSTCFG
L251 LINKER/LOCATER V4.66.93.0                                                        11/01/2025  17:49:51  PAGE 122


      000000C7H   SFRSYM    DATA     BYTE      IAP_CONTR
      0000008EH   SFRSYM    DATA     BYTE      AUXR
      000000AFH   SFRSYM    DATA     BYTE      IE2
      00000088H   SFRSYM    DATA     BYTE      TCON
      00000089H   SFRSYM    DATA     BYTE      TMOD
      00000098H   SFRSYM    DATA     BYTE      SCON
      00000087H   SFRSYM    DATA     BYTE      PCON
      000000BCH   SFRSYM    DATA     BYTE      ADC_CONTR
      000000D1H   SFRSYM    DATA     BYTE      PSW1
      000000E7H   SFRSYM    DATA     BYTE      CMPCR2
      000000E6H   SFRSYM    DATA     BYTE      CMPCR1
      000000DEH   SFRSYM    DATA     BYTE      ADCCFG
      000000B8H   SFRSYM    DATA     BYTE      IP
      0000008FH   SFRSYM    DATA     BYTE      INTCLKO
      000000EEH   SFRSYM    DATA     BYTE      IP3H
      000000B6H   SFRSYM    DATA     BYTE      IP2H
      000000BFH   SFRSYM    DATA     BYTE      P_SW4
      000000A8H   SFRSYM    DATA     BYTE      IE
      000000BBH   SFRSYM    DATA     BYTE      P_SW3
      000000BAH   SFRSYM    DATA     BYTE      P_SW2
      000000A2H   SFRSYM    DATA     BYTE      P_SW1
      000000CEH   SFRSYM    DATA     BYTE      SPCTL
      000000F8H   SFRSYM    DATA     BYTE      P7
      000000E8H   SFRSYM    DATA     BYTE      P6
      000000C8H   SFRSYM    DATA     BYTE      P5
      000000C0H   SFRSYM    DATA     BYTE      P4
      000000ABH   SFRSYM    DATA     BYTE      WKTCH
      000000B0H   SFRSYM    DATA     BYTE      P3
      000000A0H   SFRSYM    DATA     BYTE      P2
      00000090H   SFRSYM    DATA     BYTE      P1
      00000080H   SFRSYM    DATA     BYTE      P0

      00FFC911H   BLOCK     CODE     ---       LVL=0
      WR4         REGSYM    ---      INT       value
      00FFC911H   LINE      CODE     ---       #11
      00FFC913H   LINE      CODE     ---       #13
      00FFC920H   LINE      CODE     ---       #14
      ---         BLOCKEND  ---      ---       LVL=0

      00FFB33BH   BLOCK     CODE     ---       LVL=0
      DR0         REGSYM    ---      FLOAT     Current
      00FFB33DH   BLOCK     CODE     NEAR LAB  LVL=1
      DR20        REGSYM    ---      FLOAT     kp
      DR24        REGSYM    ---      FLOAT     kd
      DR8         REGSYM    ---      FLOAT     last_error
      DR28        REGSYM    ---      FLOAT     error
      DR28        REGSYM    ---      FLOAT     temp
      DR24        REGSYM    ---      FLOAT     out
      ---         BLOCKEND  ---      ---       LVL=1
      00FFB33BH   LINE      CODE     ---       #23
      00FFB33DH   LINE      CODE     ---       #24
      00FFB33DH   LINE      CODE     ---       #25
      00FFB347H   LINE      CODE     ---       #26
      00FFB351H   LINE      CODE     ---       #27
      00FFB35BH   LINE      CODE     ---       #28
      00FFB35DH   LINE      CODE     ---       #30
      00FFB379H   LINE      CODE     ---       #35
      00FFB383H   LINE      CODE     ---       #37
      00FFB3AFH   LINE      CODE     ---       #38
      00FFB3CEH   LINE      CODE     ---       #39
      ---         BLOCKEND  ---      ---       LVL=0

      00FFA614H   BLOCK     CODE     ---       LVL=0
      WR2         REGSYM    ---      INT       point
      00FFA616H   BLOCK     CODE     NEAR LAB  LVL=1
L251 LINKER/LOCATER V4.66.93.0                                                        11/01/2025  17:49:51  PAGE 123


      DR20        REGSYM    ---      FLOAT     kp
      DR16        REGSYM    ---      FLOAT     ki
      DR28        REGSYM    ---      FLOAT     out
      WR26        REGSYM    ---      INT       error
      DR20        REGSYM    ---      FLOAT     delta_out
      ---         BLOCKEND  ---      ---       LVL=1
      00FFA614H   LINE      CODE     ---       #44
      00FFA616H   LINE      CODE     ---       #45
      00FFA616H   LINE      CODE     ---       #46
      00FFA620H   LINE      CODE     ---       #47
      00FFA62AH   LINE      CODE     ---       #48
      00FFA62CH   LINE      CODE     ---       #50
      00FFA636H   LINE      CODE     ---       #52
      00FFA664H   LINE      CODE     ---       #54
      00FFA67BH   LINE      CODE     ---       #55
      00FFA692H   LINE      CODE     ---       #56
      00FFA6A3H   LINE      CODE     ---       #58
      00FFA6B8H   LINE      CODE     ---       #59
      00FFA6CBH   LINE      CODE     ---       #61
      00FFA6DCH   LINE      CODE     ---       #62
      00FFA6E6H   LINE      CODE     ---       #64
      00FFA6EBH   LINE      CODE     ---       #65
      ---         BLOCKEND  ---      ---       LVL=0

      00FFA53CH   BLOCK     CODE     ---       LVL=0
      WR2         REGSYM    ---      INT       point
      00FFA53EH   BLOCK     CODE     NEAR LAB  LVL=1
      DR20        REGSYM    ---      FLOAT     kp
      DR16        REGSYM    ---      FLOAT     ki
      DR28        REGSYM    ---      FLOAT     out
      WR26        REGSYM    ---      INT       error
      DR20        REGSYM    ---      FLOAT     delta_out
      ---         BLOCKEND  ---      ---       LVL=1
      00FFA53CH   LINE      CODE     ---       #71
      00FFA53EH   LINE      CODE     ---       #72
      00FFA53EH   LINE      CODE     ---       #73
      00FFA548H   LINE      CODE     ---       #74
      00FFA552H   LINE      CODE     ---       #75
      00FFA554H   LINE      CODE     ---       #77
      00FFA55EH   LINE      CODE     ---       #79
      00FFA58CH   LINE      CODE     ---       #81
      00FFA5A3H   LINE      CODE     ---       #82
      00FFA5BAH   LINE      CODE     ---       #83
      00FFA5CBH   LINE      CODE     ---       #85
      00FFA5E0H   LINE      CODE     ---       #86
      00FFA5F3H   LINE      CODE     ---       #88
      00FFA604H   LINE      CODE     ---       #89
      00FFA60EH   LINE      CODE     ---       #91
      00FFA613H   LINE      CODE     ---       #92
      ---         BLOCKEND  ---      ---       LVL=0

      00FFC4FAH   BLOCK     CODE     ---       LVL=0
      WR14        REGSYM    ---      INT       pwm
      00FFC4FAH   LINE      CODE     ---       #99
      00FFC4FEH   LINE      CODE     ---       #102
      00FFC504H   LINE      CODE     ---       #104
      00FFC511H   LINE      CODE     ---       #105
      00FFC51AH   LINE      CODE     ---       #106
      00FFC51CH   LINE      CODE     ---       #109
      00FFC52BH   LINE      CODE     ---       #110
      00FFC534H   LINE      CODE     ---       #111
      00FFC534H   LINE      CODE     ---       #112
      ---         BLOCKEND  ---      ---       LVL=0

      00FFC537H   BLOCK     CODE     ---       LVL=0
L251 LINKER/LOCATER V4.66.93.0                                                        11/01/2025  17:49:51  PAGE 124


      WR14        REGSYM    ---      INT       pwm
      00FFC537H   LINE      CODE     ---       #119
      00FFC53BH   LINE      CODE     ---       #121
      00FFC541H   LINE      CODE     ---       #123
      00FFC54EH   LINE      CODE     ---       #124
      00FFC557H   LINE      CODE     ---       #125
      00FFC559H   LINE      CODE     ---       #128
      00FFC568H   LINE      CODE     ---       #129
      00FFC571H   LINE      CODE     ---       #130
      00FFC571H   LINE      CODE     ---       #131
      ---         BLOCKEND  ---      ---       LVL=0

      00FFC163H   BLOCK     CODE     ---       LVL=0
      DR12        REGSYM    ---      FLOAT     X
      00FFC163H   LINE      CODE     ---       #139
      00FFC167H   LINE      CODE     ---       #176
      00FFC188H   LINE      CODE     ---       #177
      00FFC1A9H   LINE      CODE     ---       #178
      ---         BLOCKEND  ---      ---       LVL=0

      00FFAF8BH   BLOCK     CODE     ---       LVL=0
      DR28        REGSYM    ---      FLOAT     target
      00FFAF8DH   BLOCK     CODE     NEAR LAB  LVL=1
      DR20        REGSYM    ---      FLOAT     step1
      DR24        REGSYM    ---      FLOAT     step2
      ---         BLOCKEND  ---      ---       LVL=1
      00FFAF8BH   LINE      CODE     ---       #180
      00FFAF8DH   LINE      CODE     ---       #181
      00FFAF8DH   LINE      CODE     ---       #182
      00FFAF95H   LINE      CODE     ---       #183
      00FFAF9DH   LINE      CODE     ---       #184
      00FFAFAEH   LINE      CODE     ---       #186
      00FFAFC4H   LINE      CODE     ---       #187
      00FFAFDFH   LINE      CODE     ---       #188
      00FFAFE1H   LINE      CODE     ---       #189
      00FFAFF2H   LINE      CODE     ---       #191
      00FFB008H   LINE      CODE     ---       #192
      00FFB023H   LINE      CODE     ---       #193
      00FFB023H   LINE      CODE     ---       #194
      00FFB030H   LINE      CODE     ---       #195
      ---         BLOCKEND  ---      ---       LVL=0

      00FF85A6H   BLOCK     CODE     ---       LVL=0
      00FF85A6H   LINE      CODE     ---       #196
      00FF85A6H   LINE      CODE     ---       #198
      00FF85C4H   LINE      CODE     ---       #200
      00FF85C4H   LINE      CODE     ---       #202
      00FF85D8H   LINE      CODE     ---       #203
      00FF85E4H   LINE      CODE     ---       #204
      00FF85F8H   LINE      CODE     ---       #205
      00FF860CH   LINE      CODE     ---       #206
      00FF8620H   LINE      CODE     ---       #207
      00FF8634H   LINE      CODE     ---       #208
      00FF8648H   LINE      CODE     ---       #209
      00FF864BH   LINE      CODE     ---       #210
      00FF864BH   LINE      CODE     ---       #212
      00FF865FH   LINE      CODE     ---       #213
      00FF866BH   LINE      CODE     ---       #214
      00FF867FH   LINE      CODE     ---       #215
      00FF8693H   LINE      CODE     ---       #216
      00FF86A7H   LINE      CODE     ---       #217
      00FF86BBH   LINE      CODE     ---       #218
      00FF86CFH   LINE      CODE     ---       #219
      00FF86D2H   LINE      CODE     ---       #220
      00FF86D2H   LINE      CODE     ---       #222
L251 LINKER/LOCATER V4.66.93.0                                                        11/01/2025  17:49:51  PAGE 125


      00FF86E6H   LINE      CODE     ---       #223
      00FF86F2H   LINE      CODE     ---       #224
      00FF8706H   LINE      CODE     ---       #225
      00FF871AH   LINE      CODE     ---       #226
      00FF872EH   LINE      CODE     ---       #227
      00FF8742H   LINE      CODE     ---       #228
      00FF8756H   LINE      CODE     ---       #229
      00FF8759H   LINE      CODE     ---       #230
      00FF8759H   LINE      CODE     ---       #232
      00FF876DH   LINE      CODE     ---       #233
      00FF8779H   LINE      CODE     ---       #234
      00FF878DH   LINE      CODE     ---       #235
      00FF87A1H   LINE      CODE     ---       #236
      00FF87B5H   LINE      CODE     ---       #237
      00FF87C9H   LINE      CODE     ---       #238
      00FF87DDH   LINE      CODE     ---       #239
      00FF87DDH   LINE      CODE     ---       #240
      00FF87DDH   LINE      CODE     ---       #242
      ---         BLOCKEND  ---      ---       LVL=0

      00FF91ADH   BLOCK     CODE     ---       LVL=0
      00FF91ADH   LINE      CODE     ---       #244
      00FF91ADH   LINE      CODE     ---       #246
      00FF91C8H   LINE      CODE     ---       #248
      00FF91C8H   LINE      CODE     ---       #250
      00FF91DBH   LINE      CODE     ---       #251
      00FF91EEH   LINE      CODE     ---       #252
      00FF9201H   LINE      CODE     ---       #253
      00FF9214H   LINE      CODE     ---       #254
      00FF9227H   LINE      CODE     ---       #255
      00FF922AH   LINE      CODE     ---       #256
      00FF922AH   LINE      CODE     ---       #258
      00FF923DH   LINE      CODE     ---       #259
      00FF9250H   LINE      CODE     ---       #260
      00FF9263H   LINE      CODE     ---       #261
      00FF9276H   LINE      CODE     ---       #262
      00FF9289H   LINE      CODE     ---       #263
      00FF928CH   LINE      CODE     ---       #264
      00FF928CH   LINE      CODE     ---       #266
      00FF929FH   LINE      CODE     ---       #267
      00FF92B2H   LINE      CODE     ---       #268
      00FF92C5H   LINE      CODE     ---       #269
      00FF92D8H   LINE      CODE     ---       #270
      00FF92EBH   LINE      CODE     ---       #271
      00FF92EDH   LINE      CODE     ---       #272
      00FF92EDH   LINE      CODE     ---       #274
      00FF9300H   LINE      CODE     ---       #275
      00FF9313H   LINE      CODE     ---       #276
      00FF9326H   LINE      CODE     ---       #277
      00FF9339H   LINE      CODE     ---       #278
      00FF934CH   LINE      CODE     ---       #279
      00FF934CH   LINE      CODE     ---       #280
      00FF934CH   LINE      CODE     ---       #281
      ---         BLOCKEND  ---      ---       LVL=0

      00FF9650H   BLOCK     CODE     ---       LVL=0
      DR24        REGSYM    ---      FLOAT     value
      DR28        REGSYM    ---      FLOAT     Pargarm
      00FF9650H   LINE      CODE     ---       #325
      00FF9654H   LINE      CODE     ---       #327
      00FF966FH   LINE      CODE     ---       #329
      00FF966FH   LINE      CODE     ---       #331
      00FF968FH   LINE      CODE     ---       #332
      00FF96ADH   LINE      CODE     ---       #333
      00FF96B0H   LINE      CODE     ---       #335
L251 LINKER/LOCATER V4.66.93.0                                                        11/01/2025  17:49:51  PAGE 126


      00FF96B0H   LINE      CODE     ---       #337
      00FF96D0H   LINE      CODE     ---       #338
      00FF96EEH   LINE      CODE     ---       #339
      00FF96F1H   LINE      CODE     ---       #341
      00FF96F1H   LINE      CODE     ---       #343
      00FF9711H   LINE      CODE     ---       #344
      00FF972FH   LINE      CODE     ---       #345
      00FF9731H   LINE      CODE     ---       #347
      00FF9731H   LINE      CODE     ---       #349
      00FF9751H   LINE      CODE     ---       #350
      00FF976FH   LINE      CODE     ---       #351
      00FF9771H   LINE      CODE     ---       #353
      00FF9771H   LINE      CODE     ---       #355
      00FF977DH   LINE      CODE     ---       #356
      00FF9789H   LINE      CODE     ---       #357
      00FF9795H   LINE      CODE     ---       #358
      00FF97A1H   LINE      CODE     ---       #360
      00FF97A1H   LINE      CODE     ---       #361
      ---         BLOCKEND  ---      ---       LVL=0
      DR28        REGSYM    ---      FLOAT     target
      DR24        REGSYM    ---      FLOAT     step

      ---         MODULE    ---      ---       eeprom
      000000D0H   SFRSYM    DATA     BYTE      PSW
      0000009DH   SFRSYM    DATA     BYTE      IRCBAND
      00000097H   SFRSYM    DATA     BYTE      AUXR2
      000000EFH   SFRSYM    DATA     BYTE      AUXINTIF
      000000FDH   SFRSYM    DATA     BYTE      S4CON
      000000ACH   SFRSYM    DATA     BYTE      S3CON
      0000009AH   SFRSYM    DATA     BYTE      S2CON
      000000B7H   SFRSYM    DATA     BYTE      IPH
      000000CDH   SFRSYM    DATA     BYTE      SPSTAT
      000000DDH   SFRSYM    DATA     BYTE      T4T3M
      000000C1H   SFRSYM    DATA     BYTE      WDT_CONTR
      000000DFH   SFRSYM    DATA     BYTE      IP3
      000000F4H   SFRSYM    DATA     BYTE      USBCON
      000000B5H   SFRSYM    DATA     BYTE      IP2
      000000FFH   SFRSYM    DATA     BYTE      RSTCFG
      000000C7H   SFRSYM    DATA     BYTE      IAP_CONTR
      0000008EH   SFRSYM    DATA     BYTE      AUXR
      000000AFH   SFRSYM    DATA     BYTE      IE2
      00000088H   SFRSYM    DATA     BYTE      TCON
      00000089H   SFRSYM    DATA     BYTE      TMOD
      00000098H   SFRSYM    DATA     BYTE      SCON
      00000087H   SFRSYM    DATA     BYTE      PCON
      000000BCH   SFRSYM    DATA     BYTE      ADC_CONTR
      000000D1H   SFRSYM    DATA     BYTE      PSW1
      000000E7H   SFRSYM    DATA     BYTE      CMPCR2
      000000E6H   SFRSYM    DATA     BYTE      CMPCR1
      000000DEH   SFRSYM    DATA     BYTE      ADCCFG
      000000B8H   SFRSYM    DATA     BYTE      IP
      0000008FH   SFRSYM    DATA     BYTE      INTCLKO
      000000EEH   SFRSYM    DATA     BYTE      IP3H
      000000B6H   SFRSYM    DATA     BYTE      IP2H
      000000BFH   SFRSYM    DATA     BYTE      P_SW4
      000000A8H   SFRSYM    DATA     BYTE      IE
      000000BBH   SFRSYM    DATA     BYTE      P_SW3
      000000BAH   SFRSYM    DATA     BYTE      P_SW2
      000000A2H   SFRSYM    DATA     BYTE      P_SW1
      000000CEH   SFRSYM    DATA     BYTE      SPCTL
      000000F8H   SFRSYM    DATA     BYTE      P7
      000000A8H.7 SFRSYM    DATA     BIT       EA
      000000E8H   SFRSYM    DATA     BYTE      P6
      000000C8H   SFRSYM    DATA     BYTE      P5
      000000C0H   SFRSYM    DATA     BYTE      P4
L251 LINKER/LOCATER V4.66.93.0                                                        11/01/2025  17:49:51  PAGE 127


      000000ABH   SFRSYM    DATA     BYTE      WKTCH
      000000B0H   SFRSYM    DATA     BYTE      P3
      000000A0H   SFRSYM    DATA     BYTE      P2
      00000090H   SFRSYM    DATA     BYTE      P1
      00000080H   SFRSYM    DATA     BYTE      P0
      00FFDF65H   SYMBOL    HCONST   ---       ?tpl?0001
      00FFE165H   SYMBOL    HCONST   ---       ?tpl?0002
      00FFE365H   SYMBOL    HCONST   ---       ?tpl?0003
      DR12        REGSYM    ---      DWORD     sector_start
      DR4         REGSYM    ---      DWORD     array_size
      DR4         REGSYM    ---      DWORD     sector_start
      DR28        REGSYM    ---      DWORD     addr
      REG=3       REGSYM    ---      ---       float_ptr
      R10         REGSYM    ---      BYTE      i
      DR0         REGSYM    ---      DWORD     addr
      REG=2       REGSYM    ---      ---       float_ptr

      ---         MODULE    ---      ---       function
      00FFC8CDH   PUBLIC    CODE     ---       CAR_STOP
      00FF00A6H   PUBLIC    CODE     ---       Servo_Init
      00FFBE27H   PUBLIC    CODE     ---       Motor_Init
      00FF5B05H   PUBLIC    CODE     ---       Show_pararm
      00FFC76AH   PUBLIC    CODE     ---       speed_control_ring
      00FFB4F0H   PUBLIC    CODE     ---       unification
      00FF8356H   PUBLIC    CODE     ---       Turn_mode_Init
      00FFC5ADH   PUBLIC    CODE     ---       Speed_Control
      00FFC921H   PUBLIC    CODE     ---       GO_Function
      00FFBA0EH   PUBLIC    CODE     ---       init_all
      00FFACE9H   PUBLIC    CODE     ---       Servo_Control
      00FFAC36H   PUBLIC    CODE     ---       fast_sqrt
      00FFC4BCH   PUBLIC    CODE     ---       Protect
      00FF0026H   PUBLIC    CODE     ---       enconder_init
      00FFC6B5H   PUBLIC    CODE     ---       show_test_info
      000114C1H   PUBLIC    XDATA    BYTE      Key_Flag
      000114C2H   PUBLIC    XDATA    INT       T3
      000114C4H   PUBLIC    XDATA    INT       encoder_data_dir_1
      000114C6H   PUBLIC    XDATA    INT       encoder_data_dir_2
      000114C8H   PUBLIC    XDATA    BYTE      GO_PID_Control
      000114C9H   PUBLIC    XDATA    BYTE      Init_Fg
      000114CAH   PUBLIC    XDATA    BYTE      ADC_Show_Flag
      000114CBH   PUBLIC    XDATA    BYTE      GO_PID_Control1
      000114CCH   PUBLIC    XDATA    BYTE      GO_PID_Control2
      000114CDH   PUBLIC    XDATA    ---       M_Right_pid
      000114F9H   PUBLIC    XDATA    BYTE      GO_PID_Control3
      000114FAH   PUBLIC    XDATA    ---       servo_pid
      00011526H   PUBLIC    XDATA    INT       Speed_Mode
      00011528H   PUBLIC    XDATA    INT       Set_T
      0001152AH   PUBLIC    XDATA    INT       Last_dajiao
      0001152CH   PUBLIC    XDATA    BYTE      Protect_flag
      0001152DH   PUBLIC    XDATA    INT       dajiao
      0001152FH   PUBLIC    XDATA    BYTE      Servo_Flag
      00011530H   PUBLIC    XDATA    ---       M_left_pid
      000000D0H   SFRSYM    DATA     BYTE      PSW
      0000009DH   SFRSYM    DATA     BYTE      IRCBAND
      00000097H   SFRSYM    DATA     BYTE      AUXR2
      000000EFH   SFRSYM    DATA     BYTE      AUXINTIF
      000000FDH   SFRSYM    DATA     BYTE      S4CON
      000000ACH   SFRSYM    DATA     BYTE      S3CON
      0000009AH   SFRSYM    DATA     BYTE      S2CON
      000000B7H   SFRSYM    DATA     BYTE      IPH
      000000CDH   SFRSYM    DATA     BYTE      SPSTAT
      000000DDH   SFRSYM    DATA     BYTE      T4T3M
      000000C1H   SFRSYM    DATA     BYTE      WDT_CONTR
      000000DFH   SFRSYM    DATA     BYTE      IP3
      000000F4H   SFRSYM    DATA     BYTE      USBCON
L251 LINKER/LOCATER V4.66.93.0                                                        11/01/2025  17:49:51  PAGE 128


      000000B5H   SFRSYM    DATA     BYTE      IP2
      000000FFH   SFRSYM    DATA     BYTE      RSTCFG
      000000C7H   SFRSYM    DATA     BYTE      IAP_CONTR
      0000008EH   SFRSYM    DATA     BYTE      AUXR
      000000AFH   SFRSYM    DATA     BYTE      IE2
      00000088H   SFRSYM    DATA     BYTE      TCON
      00000089H   SFRSYM    DATA     BYTE      TMOD
      00000098H   SFRSYM    DATA     BYTE      SCON
      00000087H   SFRSYM    DATA     BYTE      PCON
      000000BCH   SFRSYM    DATA     BYTE      ADC_CONTR
      000000D1H   SFRSYM    DATA     BYTE      PSW1
      000000E7H   SFRSYM    DATA     BYTE      CMPCR2
      000000E6H   SFRSYM    DATA     BYTE      CMPCR1
      000000DEH   SFRSYM    DATA     BYTE      ADCCFG
      000000B8H   SFRSYM    DATA     BYTE      IP
      0000008FH   SFRSYM    DATA     BYTE      INTCLKO
      000000EEH   SFRSYM    DATA     BYTE      IP3H
      000000B6H   SFRSYM    DATA     BYTE      IP2H
      000000BFH   SFRSYM    DATA     BYTE      P_SW4
      000000A8H   SFRSYM    DATA     BYTE      IE
      000000BBH   SFRSYM    DATA     BYTE      P_SW3
      000000BAH   SFRSYM    DATA     BYTE      P_SW2
      000000A2H   SFRSYM    DATA     BYTE      P_SW1
      000000CEH   SFRSYM    DATA     BYTE      SPCTL
      000000F8H   SFRSYM    DATA     BYTE      P7
      000000A8H.7 SFRSYM    DATA     BIT       EA
      000000E8H   SFRSYM    DATA     BYTE      P6
      000000C8H   SFRSYM    DATA     BYTE      P5
      000000C0H   SFRSYM    DATA     BYTE      P4
      000000ABH   SFRSYM    DATA     BYTE      WKTCH
      000000B0H   SFRSYM    DATA     BYTE      P3
      000000A0H   SFRSYM    DATA     BYTE      P2
      00000090H   SFRSYM    DATA     BYTE      P1
      00000080H   SFRSYM    DATA     BYTE      P0
      REG=6       REGSYM    ---      ---       PID
      DR28        REGSYM    ---      FLOAT     NowData

      00FFB4F0H   BLOCK     CODE     ---       LVL=0
      00FFB4F2H   BLOCK     CODE     NEAR LAB  LVL=1
      0001155CH   SYMBOL    XDATA    INT       left_1
      WR6         REGSYM    ---      INT       left_2
      WR10        REGSYM    ---      INT       right_2
      WR2         REGSYM    ---      INT       right_1
      0001155EH   SYMBOL    XDATA    LONG      he
      ---         BLOCKEND  ---      ---       LVL=1
      00FFB4F0H   LINE      CODE     ---       #46
      00FFB4F2H   LINE      CODE     ---       #47
      00FFB4F2H   LINE      CODE     ---       #48
      00FFB4FEH   LINE      CODE     ---       #49
      00FFB504H   LINE      CODE     ---       #50
      00FFB50AH   LINE      CODE     ---       #51
      00FFB510H   LINE      CODE     ---       #53
      00FFB524H   LINE      CODE     ---       #54
      00FFB538H   LINE      CODE     ---       #55
      00FFB578H   LINE      CODE     ---       #56
      ---         BLOCKEND  ---      ---       LVL=0

      00FFAC36H   BLOCK     CODE     ---       LVL=0
      DR12        REGSYM    ---      FLOAT     number
      00FFAC3AH   BLOCK     CODE     NEAR LAB  LVL=1
      00011562H   SYMBOL    XDATA    DWORD     i
      00011566H   SYMBOL    XDATA    FLOAT     x
      ---         BLOCKEND  ---      ---       LVL=1
      00FFAC36H   LINE      CODE     ---       #58
      00FFAC3AH   LINE      CODE     ---       #59
L251 LINKER/LOCATER V4.66.93.0                                                        11/01/2025  17:49:51  PAGE 129


      00FFAC3AH   LINE      CODE     ---       #61
      00FFAC44H   LINE      CODE     ---       #63
      00FFAC52H   LINE      CODE     ---       #65
      00FFAC6DH   LINE      CODE     ---       #67
      00FFAC92H   LINE      CODE     ---       #69
      00FFACADH   LINE      CODE     ---       #71
      00FFACDCH   LINE      CODE     ---       #72
      00FFACE6H   LINE      CODE     ---       #73
      ---         BLOCKEND  ---      ---       LVL=0

      00FFBE27H   BLOCK     CODE     ---       LVL=0
      00FFBE27H   LINE      CODE     ---       #75
      00FFBE27H   LINE      CODE     ---       #78
      00FFBE3EH   LINE      CODE     ---       #79
      00FFBE55H   LINE      CODE     ---       #80
      00FFBE6CH   LINE      CODE     ---       #81
      00FFBE83H   LINE      CODE     ---       #82
      ---         BLOCKEND  ---      ---       LVL=0

      00FF00A6H   BLOCK     CODE     ---       LVL=0
      00FF00A6H   LINE      CODE     ---       #85
      00FF00A6H   LINE      CODE     ---       #87
      00FF00BFH   LINE      CODE     ---       #88
      ---         BLOCKEND  ---      ---       LVL=0

      00FFC8CDH   BLOCK     CODE     ---       LVL=0
      00FFC8CDH   LINE      CODE     ---       #89
      00FFC8CDH   LINE      CODE     ---       #91
      00FFC8D2H   LINE      CODE     ---       #92
      00FFC8D7H   LINE      CODE     ---       #93
      00FFC8DEH   LINE      CODE     ---       #94
      ---         BLOCKEND  ---      ---       LVL=0

      00FFC4BCH   BLOCK     CODE     ---       LVL=0
      00FFC4BCH   LINE      CODE     ---       #97
      00FFC4BCH   LINE      CODE     ---       #99
      00FFC4C2H   LINE      CODE     ---       #101
      00FFC4F3H   LINE      CODE     ---       #103
      00FFC4F9H   LINE      CODE     ---       #104
      00FFC4F9H   LINE      CODE     ---       #106
      ---         BLOCKEND  ---      ---       LVL=0

      00FFBA0EH   BLOCK     CODE     ---       LVL=0
      00FFBA0EH   LINE      CODE     ---       #108
      00FFBA0EH   LINE      CODE     ---       #110
      00FFBA10H   LINE      CODE     ---       #112
      00FFBA17H   LINE      CODE     ---       #113
      00FFBA1AH   LINE      CODE     ---       #114
      00FFBA1DH   LINE      CODE     ---       #116
      00FFBA26H   LINE      CODE     ---       #117
      00FFBA2DH   LINE      CODE     ---       #118
      00FFBA30H   LINE      CODE     ---       #119
      00FFBA33H   LINE      CODE     ---       #120
      00FFBA36H   LINE      CODE     ---       #121
      00FFBA39H   LINE      CODE     ---       #124
      00FFBA3CH   LINE      CODE     ---       #125
      00FFBA3FH   LINE      CODE     ---       #126
      00FFBA46H   LINE      CODE     ---       #127
      00FFBA51H   LINE      CODE     ---       #129
      00FFBA54H   LINE      CODE     ---       #130
      00FFBA5BH   LINE      CODE     ---       #132
      00FFBA80H   LINE      CODE     ---       #134
      00FFBA82H   LINE      CODE     ---       #136
      ---         BLOCKEND  ---      ---       LVL=0

L251 LINKER/LOCATER V4.66.93.0                                                        11/01/2025  17:49:51  PAGE 130


      00FFC6B5H   BLOCK     CODE     ---       LVL=0
      REG=3       REGSYM    ---      ---       info
      00FFC6B5H   LINE      CODE     ---       #137
      00FFC6B9H   LINE      CODE     ---       #139
      00FFC6C0H   LINE      CODE     ---       #140
      00FFC6C7H   LINE      CODE     ---       #141
      00FFC6D2H   LINE      CODE     ---       #142
      00FFC6D9H   LINE      CODE     ---       #143
      00FFC6E0H   LINE      CODE     ---       #145
      ---         BLOCKEND  ---      ---       LVL=0

      00FF8356H   BLOCK     CODE     ---       LVL=0
      00FF8356H   LINE      CODE     ---       #147
      00FF8356H   LINE      CODE     ---       #149
      00FF8358H   LINE      CODE     ---       #150
      00FF8387H   LINE      CODE     ---       #152
      00FF8387H   LINE      CODE     ---       #154
      00FF838AH   LINE      CODE     ---       #155
      00FF838DH   LINE      CODE     ---       #156
      00FF8392H   LINE      CODE     ---       #157
      00FF8398H   LINE      CODE     ---       #159
      00FF839DH   LINE      CODE     ---       #160
      00FF83A8H   LINE      CODE     ---       #161
      00FF83ABH   LINE      CODE     ---       #162
      00FF83AEH   LINE      CODE     ---       #163
      00FF83B1H   LINE      CODE     ---       #164
      00FF83B4H   LINE      CODE     ---       #165
      00FF83B9H   LINE      CODE     ---       #166
      00FF83BEH   LINE      CODE     ---       #167
      00FF83C3H   LINE      CODE     ---       #168
      00FF83C8H   LINE      CODE     ---       #171
      00FF83D4H   LINE      CODE     ---       #172
      00FF83DCH   LINE      CODE     ---       #173
      00FF83E1H   LINE      CODE     ---       #174
      00FF83E9H   LINE      CODE     ---       #175
      00FF83F5H   LINE      CODE     ---       #176
      00FF8401H   LINE      CODE     ---       #178
      00FF8407H   LINE      CODE     ---       #179
      00FF8413H   LINE      CODE     ---       #180
      00FF841FH   LINE      CODE     ---       #181
      00FF8427H   LINE      CODE     ---       #182
      00FF842CH   LINE      CODE     ---       #183
      00FF8431H   LINE      CODE     ---       #184
      00FF8436H   LINE      CODE     ---       #185
      00FF8442H   LINE      CODE     ---       #186
      00FF8448H   LINE      CODE     ---       #187
      00FF844BH   LINE      CODE     ---       #189
      00FF844BH   LINE      CODE     ---       #191
      00FF8450H   LINE      CODE     ---       #192
      00FF8455H   LINE      CODE     ---       #194
      00FF8468H   LINE      CODE     ---       #195
      00FF846EH   LINE      CODE     ---       #197
      00FF8479H   LINE      CODE     ---       #198
      00FF847FH   LINE      CODE     ---       #200
      00FF8482H   LINE      CODE     ---       #201
      00FF8485H   LINE      CODE     ---       #202
      00FF8488H   LINE      CODE     ---       #204
      00FF8488H   LINE      CODE     ---       #206
      00FF848DH   LINE      CODE     ---       #207
      00FF8492H   LINE      CODE     ---       #209
      00FF84A5H   LINE      CODE     ---       #210
      00FF84ABH   LINE      CODE     ---       #212
      00FF84B6H   LINE      CODE     ---       #213
      00FF84BCH   LINE      CODE     ---       #215
      00FF84BFH   LINE      CODE     ---       #216
L251 LINKER/LOCATER V4.66.93.0                                                        11/01/2025  17:49:51  PAGE 131


      00FF84C2H   LINE      CODE     ---       #217
      00FF84C5H   LINE      CODE     ---       #219
      00FF84C5H   LINE      CODE     ---       #221
      00FF84CAH   LINE      CODE     ---       #222
      00FF84CFH   LINE      CODE     ---       #224
      00FF84E2H   LINE      CODE     ---       #225
      00FF84E8H   LINE      CODE     ---       #226
      00FF84F3H   LINE      CODE     ---       #227
      00FF84F9H   LINE      CODE     ---       #229
      00FF84FCH   LINE      CODE     ---       #230
      00FF84FFH   LINE      CODE     ---       #231
      00FF8502H   LINE      CODE     ---       #233
      00FF8502H   LINE      CODE     ---       #235
      00FF8507H   LINE      CODE     ---       #236
      00FF850CH   LINE      CODE     ---       #238
      00FF851FH   LINE      CODE     ---       #239
      00FF8525H   LINE      CODE     ---       #240
      00FF8530H   LINE      CODE     ---       #241
      00FF8536H   LINE      CODE     ---       #244
      00FF8539H   LINE      CODE     ---       #245
      00FF853CH   LINE      CODE     ---       #246
      00FF853EH   LINE      CODE     ---       #248
      00FF853EH   LINE      CODE     ---       #250
      00FF8544H   LINE      CODE     ---       #251
      00FF8549H   LINE      CODE     ---       #252
      00FF8554H   LINE      CODE     ---       #253
      00FF8556H   LINE      CODE     ---       #255
      00FF8556H   LINE      CODE     ---       #257
      00FF855CH   LINE      CODE     ---       #258
      00FF8561H   LINE      CODE     ---       #259
      00FF856CH   LINE      CODE     ---       #260
      00FF856EH   LINE      CODE     ---       #262
      00FF856EH   LINE      CODE     ---       #264
      00FF8574H   LINE      CODE     ---       #265
      00FF857AH   LINE      CODE     ---       #266
      00FF8580H   LINE      CODE     ---       #267
      00FF858BH   LINE      CODE     ---       #268
      00FF858DH   LINE      CODE     ---       #270
      00FF858DH   LINE      CODE     ---       #272
      00FF8593H   LINE      CODE     ---       #273
      00FF8598H   LINE      CODE     ---       #274
      00FF85A3H   LINE      CODE     ---       #275
      00FF85A3H   LINE      CODE     ---       #277
      00FF85A3H   LINE      CODE     ---       #279
      00FF85A5H   LINE      CODE     ---       #280
      ---         BLOCKEND  ---      ---       LVL=0

      00FF5B05H   BLOCK     CODE     ---       LVL=0
      00FF5B05H   LINE      CODE     ---       #282
      00FF5B05H   LINE      CODE     ---       #284
      00FF5B35H   LINE      CODE     ---       #286
      00FF5B35H   LINE      CODE     ---       #287
      00FF5B35H   LINE      CODE     ---       #289
      00FF5B75H   LINE      CODE     ---       #290
      00FF5BB5H   LINE      CODE     ---       #291
      00FF5BB8H   LINE      CODE     ---       #292
      00FF5BB8H   LINE      CODE     ---       #299
      00FF5BEBH   LINE      CODE     ---       #303
      00FF5BEEH   LINE      CODE     ---       #304
      00FF5BEEH   LINE      CODE     ---       #305
      00FF5BEEH   LINE      CODE     ---       #307
      00FF5C2CH   LINE      CODE     ---       #308
      00FF5C69H   LINE      CODE     ---       #309
      00FF5CA9H   LINE      CODE     ---       #310
      00FF5CE9H   LINE      CODE     ---       #311
L251 LINKER/LOCATER V4.66.93.0                                                        11/01/2025  17:49:51  PAGE 132


      00FF5D26H   LINE      CODE     ---       #312
      00FF5D29H   LINE      CODE     ---       #313
      00FF5D29H   LINE      CODE     ---       #315
      00FF5D67H   LINE      CODE     ---       #316
      00FF5DA4H   LINE      CODE     ---       #317
      00FF5DE4H   LINE      CODE     ---       #318
      00FF5E24H   LINE      CODE     ---       #319
      00FF5E61H   LINE      CODE     ---       #320
      00FF5E64H   LINE      CODE     ---       #321
      00FF5E64H   LINE      CODE     ---       #323
      00FF5EA1H   LINE      CODE     ---       #324
      00FF5EE1H   LINE      CODE     ---       #325
      00FF5F21H   LINE      CODE     ---       #326
      00FF5F5EH   LINE      CODE     ---       #327
      00FF5F61H   LINE      CODE     ---       #328
      00FF5F61H   LINE      CODE     ---       #330
      00FF5F7FH   LINE      CODE     ---       #331
      00FF5FA1H   LINE      CODE     ---       #332
      00FF5FC3H   LINE      CODE     ---       #333
      00FF5FE5H   LINE      CODE     ---       #334
      00FF6007H   LINE      CODE     ---       #335
      00FF6029H   LINE      CODE     ---       #336
      00FF605CH   LINE      CODE     ---       #340
      00FF605EH   LINE      CODE     ---       #341
      00FF605EH   LINE      CODE     ---       #343
      00FF608DH   LINE      CODE     ---       #344
      00FF608DH   LINE      CODE     ---       #345
      00FF608DH   LINE      CODE     ---       #347
      ---         BLOCKEND  ---      ---       LVL=0

      00FFC921H   BLOCK     CODE     ---       LVL=0
      00FFC921H   LINE      CODE     ---       #357
      00FFC921H   LINE      CODE     ---       #359
      00FFC928H   LINE      CODE     ---       #361
      00FFC92BH   LINE      CODE     ---       #362
      00FFC930H   LINE      CODE     ---       #363
      ---         BLOCKEND  ---      ---       LVL=0

      00FF0026H   BLOCK     CODE     ---       LVL=0
      00FF0026H   LINE      CODE     ---       #366
      00FF0026H   LINE      CODE     ---       #368
      00FF0033H   LINE      CODE     ---       #369
      00FF0042H   LINE      CODE     ---       #370
      ---         BLOCKEND  ---      ---       LVL=0

      00FFC76AH   BLOCK     CODE     ---       LVL=0
      00FFC76AH   LINE      CODE     ---       #371
      00FFC76AH   LINE      CODE     ---       #373
      00FFC77BH   LINE      CODE     ---       #374
      00FFC788H   LINE      CODE     ---       #375
      00FFC78DH   LINE      CODE     ---       #376
      00FFC794H   LINE      CODE     ---       #377
      ---         BLOCKEND  ---      ---       LVL=0

      00FFC5ADH   BLOCK     CODE     ---       LVL=0
      00FFC5ADH   LINE      CODE     ---       #379
      00FFC5ADH   LINE      CODE     ---       #381
      00FFC5C9H   LINE      CODE     ---       #382
      00FFC5E5H   LINE      CODE     ---       #383
      ---         BLOCKEND  ---      ---       LVL=0

      00FFACE9H   BLOCK     CODE     ---       LVL=0
      00FFACE9H   LINE      CODE     ---       #385
      00FFACE9H   LINE      CODE     ---       #387
      00FFACEFH   LINE      CODE     ---       #389
L251 LINKER/LOCATER V4.66.93.0                                                        11/01/2025  17:49:51  PAGE 133


      00FFACFBH   LINE      CODE     ---       #391
      00FFAD10H   LINE      CODE     ---       #392
      00FFAD13H   LINE      CODE     ---       #393
      00FFAD1FH   LINE      CODE     ---       #395
      00FFAD36H   LINE      CODE     ---       #396
      00FFAD38H   LINE      CODE     ---       #399
      00FFAD65H   LINE      CODE     ---       #401
      00FFAD65H   LINE      CODE     ---       #402
      00FFAD67H   LINE      CODE     ---       #405
      00FFAD94H   LINE      CODE     ---       #407
      00FFAD94H   LINE      CODE     ---       #408
      ---         BLOCKEND  ---      ---       LVL=0

      ---         MODULE    ---      ---       Key
      00FF9DB9H   PUBLIC    CODE     ---       Key_scaner
      00FFAA0DH   PUBLIC    CODE     ---       Turn_mode
      00FFC239H   PUBLIC    CODE     ---       Key_Number
      000117FEH   PUBLIC    XDATA    BYTE      State
      000117FFH   PUBLIC    XDATA    INT       Trigg_time
      00011801H   PUBLIC    XDATA    INT       Press_time
      00011803H   PUBLIC    XDATA    BYTE      Key_count
      00011804H   PUBLIC    XDATA    WORD      Time_dou
      00011806H   PUBLIC    XDATA    BYTE      keynumber
      00011807H   PUBLIC    XDATA    BYTE      last_keynumber
      00011808H   PUBLIC    XDATA    BYTE      Init_Flag
      00FFEE63H   PUBLIC    HCONST   ---       mode_map
      000000D0H   SFRSYM    DATA     BYTE      PSW
      0000009DH   SFRSYM    DATA     BYTE      IRCBAND
      00000097H   SFRSYM    DATA     BYTE      AUXR2
      000000EFH   SFRSYM    DATA     BYTE      AUXINTIF
      000000FDH   SFRSYM    DATA     BYTE      S4CON
      000000ACH   SFRSYM    DATA     BYTE      S3CON
      0000009AH   SFRSYM    DATA     BYTE      S2CON
      000000B7H   SFRSYM    DATA     BYTE      IPH
      000000CDH   SFRSYM    DATA     BYTE      SPSTAT
      000000DDH   SFRSYM    DATA     BYTE      T4T3M
      000000C1H   SFRSYM    DATA     BYTE      WDT_CONTR
      000000DFH   SFRSYM    DATA     BYTE      IP3
      000000F4H   SFRSYM    DATA     BYTE      USBCON
      000000B5H   SFRSYM    DATA     BYTE      IP2
      000000FFH   SFRSYM    DATA     BYTE      RSTCFG
      000000C7H   SFRSYM    DATA     BYTE      IAP_CONTR
      0000008EH   SFRSYM    DATA     BYTE      AUXR
      000000AFH   SFRSYM    DATA     BYTE      IE2
      00000088H   SFRSYM    DATA     BYTE      TCON
      00000089H   SFRSYM    DATA     BYTE      TMOD
      00000098H   SFRSYM    DATA     BYTE      SCON
      00000087H   SFRSYM    DATA     BYTE      PCON
      000000BCH   SFRSYM    DATA     BYTE      ADC_CONTR
      000000D1H   SFRSYM    DATA     BYTE      PSW1
      000000E7H   SFRSYM    DATA     BYTE      CMPCR2
      000000E6H   SFRSYM    DATA     BYTE      CMPCR1
      000000DEH   SFRSYM    DATA     BYTE      ADCCFG
      000000B8H   SFRSYM    DATA     BYTE      IP
      0000008FH   SFRSYM    DATA     BYTE      INTCLKO
      000000EEH   SFRSYM    DATA     BYTE      IP3H
      000000B6H   SFRSYM    DATA     BYTE      IP2H
      000000BFH   SFRSYM    DATA     BYTE      P_SW4
      000000A8H   SFRSYM    DATA     BYTE      IE
      000000BBH   SFRSYM    DATA     BYTE      P_SW3
      000000BAH   SFRSYM    DATA     BYTE      P_SW2
      000000A2H   SFRSYM    DATA     BYTE      P_SW1
      000000CEH   SFRSYM    DATA     BYTE      SPCTL
      000000F8H   SFRSYM    DATA     BYTE      P7
      000000E8H   SFRSYM    DATA     BYTE      P6
L251 LINKER/LOCATER V4.66.93.0                                                        11/01/2025  17:49:51  PAGE 134


      000000C8H   SFRSYM    DATA     BYTE      P5
      000000C0H   SFRSYM    DATA     BYTE      P4
      000000ABH   SFRSYM    DATA     BYTE      WKTCH
      000000B0H   SFRSYM    DATA     BYTE      P3
      000000A0H   SFRSYM    DATA     BYTE      P2
      00000090H   SFRSYM    DATA     BYTE      P1
      00000080H   SFRSYM    DATA     BYTE      P0

      00FFC239H   BLOCK     CODE     ---       LVL=0
      00FFC23BH   BLOCK     CODE     NEAR LAB  LVL=1
      R15         REGSYM    ---      BYTE      KeyNumber
      ---         BLOCKEND  ---      ---       LVL=1
      00FFC239H   LINE      CODE     ---       #26
      00FFC23BH   LINE      CODE     ---       #27
      00FFC23BH   LINE      CODE     ---       #28
      00FFC23DH   LINE      CODE     ---       #35
      00FFC249H   LINE      CODE     ---       #36
      00FFC255H   LINE      CODE     ---       #37
      00FFC261H   LINE      CODE     ---       #38
      00FFC26DH   LINE      CODE     ---       #39
      00FFC279H   LINE      CODE     ---       #47
      00FFC27BH   LINE      CODE     ---       #48
      ---         BLOCKEND  ---      ---       LVL=0

      00FFAA0DH   BLOCK     CODE     ---       LVL=0
      WR8         REGSYM    ---      INT       i
      00FFAA0DH   LINE      CODE     ---       #49
      00FFAA0DH   LINE      CODE     ---       #50
      00FFAA0DH   LINE      CODE     ---       #52
      00FFAA12H   LINE      CODE     ---       #54
      00FFAA42H   LINE      CODE     ---       #56
      00FFAA79H   LINE      CODE     ---       #57
      00FFAAB4H   LINE      CODE     ---       #58
      00FFAABAH   LINE      CODE     ---       #59
      00FFAABCH   LINE      CODE     ---       #60
      00FFAABCH   LINE      CODE     ---       #62
      00FFAAC7H   LINE      CODE     ---       #63
      ---         BLOCKEND  ---      ---       LVL=0

      00FF9DB9H   BLOCK     CODE     ---       LVL=0
      00FF9DB9H   LINE      CODE     ---       #64
      00FF9DB9H   LINE      CODE     ---       #66
      00FF9DC0H   LINE      CODE     ---       #67
      00FF9DD7H   LINE      CODE     ---       #69
      00FF9DD7H   LINE      CODE     ---       #71
      00FF9DE0H   LINE      CODE     ---       #73
      00FF9DE6H   LINE      CODE     ---       #74
      00FF9DEBH   LINE      CODE     ---       #75
      00FF9DEBH   LINE      CODE     ---       #76
      00FF9DEEH   LINE      CODE     ---       #78
      00FF9DEEH   LINE      CODE     ---       #80
      00FF9DF4H   LINE      CODE     ---       #82
      00FF9DF9H   LINE      CODE     ---       #83
      00FF9DFCH   LINE      CODE     ---       #86
      00FF9E02H   LINE      CODE     ---       #87
      00FF9E15H   LINE      CODE     ---       #89
      00FF9E1BH   LINE      CODE     ---       #90
      00FF9E23H   LINE      CODE     ---       #92
      00FF9E23H   LINE      CODE     ---       #94
      00FF9E26H   LINE      CODE     ---       #96
      00FF9E26H   LINE      CODE     ---       #98
      00FF9E2CH   LINE      CODE     ---       #101
      00FF9E32H   LINE      CODE     ---       #102
      00FF9E37H   LINE      CODE     ---       #103
      00FF9E3FH   LINE      CODE     ---       #104
L251 LINKER/LOCATER V4.66.93.0                                                        11/01/2025  17:49:51  PAGE 135


      00FF9E42H   LINE      CODE     ---       #107
      00FF9E4DH   LINE      CODE     ---       #108
      00FF9E59H   LINE      CODE     ---       #110
      00FF9E64H   LINE      CODE     ---       #111
      00FF9E6BH   LINE      CODE     ---       #113
      00FF9E6EH   LINE      CODE     ---       #114
      00FF9E74H   LINE      CODE     ---       #115
      00FF9E7CH   LINE      CODE     ---       #116
      00FF9E81H   LINE      CODE     ---       #117
      00FF9E83H   LINE      CODE     ---       #118
      00FF9E8FH   LINE      CODE     ---       #120
      00FF9E97H   LINE      CODE     ---       #121
      00FF9E9FH   LINE      CODE     ---       #123
      00FF9E9FH   LINE      CODE     ---       #125
      00FF9E9FH   LINE      CODE     ---       #126
      00FF9EA1H   LINE      CODE     ---       #128
      00FF9EA1H   LINE      CODE     ---       #130
      00FF9EA7H   LINE      CODE     ---       #132
      00FF9EADH   LINE      CODE     ---       #133
      00FF9EBDH   LINE      CODE     ---       #135
      00FF9EC2H   LINE      CODE     ---       #136
      00FF9ECAH   LINE      CODE     ---       #137
      00FF9ECCH   LINE      CODE     ---       #141
      00FF9ED2H   LINE      CODE     ---       #142
      00FF9ED2H   LINE      CODE     ---       #143
      00FF9ED2H   LINE      CODE     ---       #145
      00FF9ED2H   LINE      CODE     ---       #146
      ---         BLOCKEND  ---      ---       LVL=0

      ---         MODULE    ---      ---       menu
      00FFB997H   PUBLIC    CODE     ---       Show_bujin
      00FFB8A2H   PUBLIC    CODE     ---       menu_Init
      00FFC6E3H   PUBLIC    CODE     ---       menu_handle_key
      00FFA460H   PUBLIC    CODE     ---       handle_key1
      00FFC2C2H   PUBLIC    CODE     ---       handle_key2
      00FFC02EH   PUBLIC    CODE     ---       handle_key3
      00FFA88AH   PUBLIC    CODE     ---       handle_key4
      00FFC842H   PUBLIC    CODE     ---       handle_key5
      00FFA6ECH   PUBLIC    CODE     ---       Menu_SetChildren
      00FF01AEH   PUBLIC    CODE     ---       Key3_handle1
      00FFA7BCH   PUBLIC    CODE     ---       Key3_handle2
      00FFB79EH   PUBLIC    CODE     ---       Refesh_arrow
      00FF9A2FH   PUBLIC    CODE     ---       menu_display_content
      00FFC8DFH   PUBLIC    CODE     ---       show_all_menu
      000117CDH   PUBLIC    XDATA    BYTE      Show_image_mode
      000117CEH   PUBLIC    XDATA    FLOAT     bujin
      000117D2H   PUBLIC    XDATA    CHAR      mode
      000117D3H   PUBLIC    XDATA    BYTE      Key
      000117D4H   PUBLIC    XDATA    CHAR      Start_Show_Row
      000117D5H   PUBLIC    XDATA    CHAR      i
      000117D6H   PUBLIC    XDATA    CHAR      j
      000117D7H   PUBLIC    XDATA    CHAR      Key3_count
      000117D8H   PUBLIC    XDATA    BYTE      Save_Flag
      000117D9H   PUBLIC    XDATA    CHAR      Flag
      000000D0H   SFRSYM    DATA     BYTE      PSW
      0000009DH   SFRSYM    DATA     BYTE      IRCBAND
      00000097H   SFRSYM    DATA     BYTE      AUXR2
      000000EFH   SFRSYM    DATA     BYTE      AUXINTIF
      000000FDH   SFRSYM    DATA     BYTE      S4CON
      000000ACH   SFRSYM    DATA     BYTE      S3CON
      0000009AH   SFRSYM    DATA     BYTE      S2CON
      000000B7H   SFRSYM    DATA     BYTE      IPH
      000000CDH   SFRSYM    DATA     BYTE      SPSTAT
      000000DDH   SFRSYM    DATA     BYTE      T4T3M
      000000C1H   SFRSYM    DATA     BYTE      WDT_CONTR
L251 LINKER/LOCATER V4.66.93.0                                                        11/01/2025  17:49:51  PAGE 136


      000000DFH   SFRSYM    DATA     BYTE      IP3
      000000F4H   SFRSYM    DATA     BYTE      USBCON
      000000B5H   SFRSYM    DATA     BYTE      IP2
      000000FFH   SFRSYM    DATA     BYTE      RSTCFG
      000000C7H   SFRSYM    DATA     BYTE      IAP_CONTR
      0000008EH   SFRSYM    DATA     BYTE      AUXR
      000000AFH   SFRSYM    DATA     BYTE      IE2
      00000088H   SFRSYM    DATA     BYTE      TCON
      00000089H   SFRSYM    DATA     BYTE      TMOD
      00000098H   SFRSYM    DATA     BYTE      SCON
      00000087H   SFRSYM    DATA     BYTE      PCON
      000000BCH   SFRSYM    DATA     BYTE      ADC_CONTR
      000000D1H   SFRSYM    DATA     BYTE      PSW1
      000000E7H   SFRSYM    DATA     BYTE      CMPCR2
      000000E6H   SFRSYM    DATA     BYTE      CMPCR1
      000000DEH   SFRSYM    DATA     BYTE      ADCCFG
      000000B8H   SFRSYM    DATA     BYTE      IP
      0000008FH   SFRSYM    DATA     BYTE      INTCLKO
      000000EEH   SFRSYM    DATA     BYTE      IP3H
      000000B6H   SFRSYM    DATA     BYTE      IP2H
      000000BFH   SFRSYM    DATA     BYTE      P_SW4
      000000A8H   SFRSYM    DATA     BYTE      IE
      000000BBH   SFRSYM    DATA     BYTE      P_SW3
      000000BAH   SFRSYM    DATA     BYTE      P_SW2
      000000A2H   SFRSYM    DATA     BYTE      P_SW1
      000000CEH   SFRSYM    DATA     BYTE      SPCTL
      000000F8H   SFRSYM    DATA     BYTE      P7
      000000E8H   SFRSYM    DATA     BYTE      P6
      000000C8H   SFRSYM    DATA     BYTE      P5
      000000C0H   SFRSYM    DATA     BYTE      P4
      000000ABH   SFRSYM    DATA     BYTE      WKTCH
      000000B0H   SFRSYM    DATA     BYTE      P3
      000000A0H   SFRSYM    DATA     BYTE      P2
      00000090H   SFRSYM    DATA     BYTE      P1
      00000080H   SFRSYM    DATA     BYTE      P0

      00FFA6ECH   BLOCK     CODE     ---       LVL=0
      REG=6       REGSYM    ---      ---       parent
      REG=7       REGSYM    ---      ---       child_indices
      00FFA6ECH   LINE      CODE     ---       #19
      00FFA6F0H   LINE      CODE     ---       #22
      00FFA6F7H   LINE      CODE     ---       #23
      00FFA70FH   LINE      CODE     ---       #24
      00FFA71EH   LINE      CODE     ---       #27
      00FFA725H   LINE      CODE     ---       #29
      00FFA749H   LINE      CODE     ---       #31
      00FFA779H   LINE      CODE     ---       #32
      00FFA797H   LINE      CODE     ---       #33
      00FFA7BBH   LINE      CODE     ---       #36
      ---         BLOCKEND  ---      ---       LVL=0

      00FFB79EH   BLOCK     CODE     ---       LVL=0
      00FFB79EH   LINE      CODE     ---       #38
      00FFB79EH   LINE      CODE     ---       #40
      00FFB7A4H   LINE      CODE     ---       #42
      00FFB7ADH   LINE      CODE     ---       #44
      00FFB7CCH   LINE      CODE     ---       #45
      00FFB7CEH   LINE      CODE     ---       #48
      00FFB7E1H   LINE      CODE     ---       #49
      00FFB7E1H   LINE      CODE     ---       #50
      00FFB7E3H   LINE      CODE     ---       #53
      00FFB7ECH   LINE      CODE     ---       #55
      00FFB80BH   LINE      CODE     ---       #56
      00FFB80DH   LINE      CODE     ---       #59
      00FFB820H   LINE      CODE     ---       #60
L251 LINKER/LOCATER V4.66.93.0                                                        11/01/2025  17:49:51  PAGE 137


      00FFB820H   LINE      CODE     ---       #61
      00FFB820H   LINE      CODE     ---       #62
      ---         BLOCKEND  ---      ---       LVL=0

      00FF9A2FH   BLOCK     CODE     ---       LVL=0
      00FF9A2FH   LINE      CODE     ---       #64
      00FF9A2FH   LINE      CODE     ---       #66
      00FF9A37H   LINE      CODE     ---       #68
      00FF9A6CH   LINE      CODE     ---       #69
      00FF9AEBH   LINE      CODE     ---       #71
      00FF9B51H   LINE      CODE     ---       #72
      00FF9B63H   LINE      CODE     ---       #74
      ---         BLOCKEND  ---      ---       LVL=0

      00FFB997H   BLOCK     CODE     ---       LVL=0
      00FFB997H   LINE      CODE     ---       #75
      00FFB997H   LINE      CODE     ---       #77
      00FFB9C3H   LINE      CODE     ---       #79
      00FFB9D6H   LINE      CODE     ---       #80
      00FFB9E9H   LINE      CODE     ---       #81
      00FFB9FCH   LINE      CODE     ---       #82
      00FFBA0DH   LINE      CODE     ---       #83
      00FFBA0DH   LINE      CODE     ---       #84
      ---         BLOCKEND  ---      ---       LVL=0

      00FFC8DFH   BLOCK     CODE     ---       LVL=0
      00FFC8DFH   LINE      CODE     ---       #86
      00FFC8DFH   LINE      CODE     ---       #88
      00FFC8E6H   LINE      CODE     ---       #89
      00FFC8E9H   LINE      CODE     ---       #90
      00FFC8ECH   LINE      CODE     ---       #91
      00FFC8EFH   LINE      CODE     ---       #92
      ---         BLOCKEND  ---      ---       LVL=0

      00FFA460H   BLOCK     CODE     ---       LVL=0
      00FFA460H   LINE      CODE     ---       #93
      00FFA462H   LINE      CODE     ---       #95
      00FFA468H   LINE      CODE     ---       #97
      00FFA471H   LINE      CODE     ---       #99
      00FFA477H   LINE      CODE     ---       #100
      00FFA477H   LINE      CODE     ---       #101
      00FFA480H   LINE      CODE     ---       #103
      00FFA49FH   LINE      CODE     ---       #104
      00FFA4A1H   LINE      CODE     ---       #107
      00FFA4B0H   LINE      CODE     ---       #108
      00FFA4BFH   LINE      CODE     ---       #109
      00FFA4CEH   LINE      CODE     ---       #110
      00FFA4D5H   LINE      CODE     ---       #111
      00FFA4D8H   LINE      CODE     ---       #112
      00FFA4D8H   LINE      CODE     ---       #113
      00FFA4DBH   LINE      CODE     ---       #114
      00FFA4DDH   LINE      CODE     ---       #115
      00FFA4E4H   LINE      CODE     ---       #117
      00FFA52DH   LINE      CODE     ---       #118
      00FFA533H   LINE      CODE     ---       #119
      00FFA536H   LINE      CODE     ---       #120
      00FFA539H   LINE      CODE     ---       #121
      ---         BLOCKEND  ---      ---       LVL=0

      00FFC2C2H   BLOCK     CODE     ---       LVL=0
      00FFC2C2H   LINE      CODE     ---       #124
      00FFC2C2H   LINE      CODE     ---       #126
      00FFC2DCH   LINE      CODE     ---       #127
      00FFC2F1H   LINE      CODE     ---       #129
      00FFC301H   LINE      CODE     ---       #130
L251 LINKER/LOCATER V4.66.93.0                                                        11/01/2025  17:49:51  PAGE 138


      00FFC301H   LINE      CODE     ---       #131
      00FFC304H   LINE      CODE     ---       #133
      ---         BLOCKEND  ---      ---       LVL=0

      00FFC02EH   BLOCK     CODE     ---       LVL=0
      00FFC02EH   LINE      CODE     ---       #135
      00FFC02EH   LINE      CODE     ---       #137
      00FFC048H   LINE      CODE     ---       #138
      00FFC06AH   LINE      CODE     ---       #140
      00FFC07CH   LINE      CODE     ---       #141
      00FFC07CH   LINE      CODE     ---       #142
      00FFC07FH   LINE      CODE     ---       #143
      ---         BLOCKEND  ---      ---       LVL=0

      00FFA88AH   BLOCK     CODE     ---       LVL=0
      00FFA88AH   LINE      CODE     ---       #144
      00FFA88CH   LINE      CODE     ---       #146
      00FFA893H   LINE      CODE     ---       #148
      00FFA8DCH   LINE      CODE     ---       #149
      00FFA8E2H   LINE      CODE     ---       #150
      00FFA8E5H   LINE      CODE     ---       #151
      00FFA8E7H   LINE      CODE     ---       #152
      00FFA8EDH   LINE      CODE     ---       #154
      00FFA8F6H   LINE      CODE     ---       #156
      00FFA8FCH   LINE      CODE     ---       #157
      00FFA8FCH   LINE      CODE     ---       #158
      00FFA905H   LINE      CODE     ---       #160
      00FFA90EH   LINE      CODE     ---       #161
      00FFA913H   LINE      CODE     ---       #162
      00FFA930H   LINE      CODE     ---       #163
      00FFA932H   LINE      CODE     ---       #166
      00FFA941H   LINE      CODE     ---       #167
      00FFA948H   LINE      CODE     ---       #168
      00FFA94BH   LINE      CODE     ---       #169
      00FFA94BH   LINE      CODE     ---       #170
      00FFA94EH   LINE      CODE     ---       #171
      ---         BLOCKEND  ---      ---       LVL=0

      00FFC842H   BLOCK     CODE     ---       LVL=0
      00FFC842H   LINE      CODE     ---       #173
      00FFC842H   LINE      CODE     ---       #175
      00FFC848H   LINE      CODE     ---       #178
      00FFC853H   LINE      CODE     ---       #180
      00FFC858H   LINE      CODE     ---       #181
      00FFC85BH   LINE      CODE     ---       #182
      00FFC85BH   LINE      CODE     ---       #183
      00FFC85BH   LINE      CODE     ---       #184
      ---         BLOCKEND  ---      ---       LVL=0

      00FF01AEH   BLOCK     CODE     ---       LVL=0
      00FF01AEH   LINE      CODE     ---       #185
      00FF01AEH   LINE      CODE     ---       #187
      00FF01B4H   LINE      CODE     ---       #188
      00FF01B7H   LINE      CODE     ---       #189
      ---         BLOCKEND  ---      ---       LVL=0

      00FFA7BCH   BLOCK     CODE     ---       LVL=0
      00FFA7BCH   LINE      CODE     ---       #190
      00FFA7BCH   LINE      CODE     ---       #192
      00FFA7C2H   LINE      CODE     ---       #195
      00FFA7C7H   LINE      CODE     ---       #196
      00FFA7C7H   LINE      CODE     ---       #197
      00FFA7E9H   LINE      CODE     ---       #199
      00FFA811H   LINE      CODE     ---       #200
      00FFA817H   LINE      CODE     ---       #201
L251 LINKER/LOCATER V4.66.93.0                                                        11/01/2025  17:49:51  PAGE 139


      00FFA81CH   LINE      CODE     ---       #202
      00FFA826H   LINE      CODE     ---       #203
      00FFA829H   LINE      CODE     ---       #204
      00FFA82BH   LINE      CODE     ---       #205
      00FFA848H   LINE      CODE     ---       #207
      00FFA864H   LINE      CODE     ---       #208
      00FFA86AH   LINE      CODE     ---       #209
      00FFA86FH   LINE      CODE     ---       #210
      00FFA879H   LINE      CODE     ---       #211
      00FFA87CH   LINE      CODE     ---       #212
      00FFA87CH   LINE      CODE     ---       #213
      00FFA886H   LINE      CODE     ---       #214
      00FFA889H   LINE      CODE     ---       #215
      ---         BLOCKEND  ---      ---       LVL=0

      00FFC6E3H   BLOCK     CODE     ---       LVL=0
      R7          REGSYM    ---      BYTE      Flag_Key
      00FFC6E3H   LINE      CODE     ---       #221
      00FFC6E5H   LINE      CODE     ---       #224
      00FFC6F9H   LINE      CODE     ---       #226
      00FFC6FEH   LINE      CODE     ---       #227
      00FFC703H   LINE      CODE     ---       #228
      00FFC708H   LINE      CODE     ---       #229
      00FFC70DH   LINE      CODE     ---       #230
      00FFC710H   LINE      CODE     ---       #231
      00FFC710H   LINE      CODE     ---       #232
      ---         BLOCKEND  ---      ---       LVL=0

      00FFB8A2H   BLOCK     CODE     ---       LVL=0
      00FFB8A2H   LINE      CODE     ---       #237
      00FFB8A2H   LINE      CODE     ---       #239
      00FFB8B5H   LINE      CODE     ---       #240
      00FFB8C8H   LINE      CODE     ---       #241
      00FFB8DBH   LINE      CODE     ---       #242
      00FFB8EEH   LINE      CODE     ---       #243
      00FFB901H   LINE      CODE     ---       #244
      00FFB914H   LINE      CODE     ---       #245
      00FFB917H   LINE      CODE     ---       #246
      00FFB91AH   LINE      CODE     ---       #247
      00FFB91DH   LINE      CODE     ---       #249
      ---         BLOCKEND  ---      ---       LVL=0

      ---         MODULE    ---      ---       menu_font
      00010000H   PUBLIC    XDATA    ---       Page
      0001082DH   PUBLIC    XDATA    ---       Pin
      00010831H   PUBLIC    XDATA    ---       Num
      00010AD5H   PUBLIC    XDATA    WORD      ADC_1
      00010AD7H   PUBLIC    XDATA    WORD      ADC_2
      00010AD9H   PUBLIC    XDATA    WORD      ADC_3
      00010ADBH   PUBLIC    XDATA    WORD      ADC_4
      00010ADDH   PUBLIC    XDATA    WORD      ADC_5
      00010ADFH   PUBLIC    XDATA    WORD      ADC_6
      00010AE1H   PUBLIC    XDATA    ---       Page0_children
      00010AEFH   PUBLIC    XDATA    ---       Page1_children
      00010AFDH   PUBLIC    XDATA    WORD      ADC_8
      00010AFFH   PUBLIC    XDATA    ---       Page2_children
      00010B0DH   PUBLIC    XDATA    ---       Page3_children
      00010B1BH   PUBLIC    XDATA    ---       Page4_children
      00010B29H   PUBLIC    XDATA    ---       Page5_children
      000000D0H   SFRSYM    DATA     BYTE      PSW
      0000009DH   SFRSYM    DATA     BYTE      IRCBAND
      00000097H   SFRSYM    DATA     BYTE      AUXR2
      000000EFH   SFRSYM    DATA     BYTE      AUXINTIF
      000000FDH   SFRSYM    DATA     BYTE      S4CON
      000000ACH   SFRSYM    DATA     BYTE      S3CON
L251 LINKER/LOCATER V4.66.93.0                                                        11/01/2025  17:49:51  PAGE 140


      0000009AH   SFRSYM    DATA     BYTE      S2CON
      000000B7H   SFRSYM    DATA     BYTE      IPH
      000000CDH   SFRSYM    DATA     BYTE      SPSTAT
      000000DDH   SFRSYM    DATA     BYTE      T4T3M
      000000C1H   SFRSYM    DATA     BYTE      WDT_CONTR
      000000DFH   SFRSYM    DATA     BYTE      IP3
      000000F4H   SFRSYM    DATA     BYTE      USBCON
      000000B5H   SFRSYM    DATA     BYTE      IP2
      000000FFH   SFRSYM    DATA     BYTE      RSTCFG
      000000C7H   SFRSYM    DATA     BYTE      IAP_CONTR
      0000008EH   SFRSYM    DATA     BYTE      AUXR
      000000AFH   SFRSYM    DATA     BYTE      IE2
      00000088H   SFRSYM    DATA     BYTE      TCON
      00000089H   SFRSYM    DATA     BYTE      TMOD
      00000098H   SFRSYM    DATA     BYTE      SCON
      00000087H   SFRSYM    DATA     BYTE      PCON
      000000BCH   SFRSYM    DATA     BYTE      ADC_CONTR
      000000D1H   SFRSYM    DATA     BYTE      PSW1
      000000E7H   SFRSYM    DATA     BYTE      CMPCR2
      000000E6H   SFRSYM    DATA     BYTE      CMPCR1
      000000DEH   SFRSYM    DATA     BYTE      ADCCFG
      000000B8H   SFRSYM    DATA     BYTE      IP
      0000008FH   SFRSYM    DATA     BYTE      INTCLKO
      000000EEH   SFRSYM    DATA     BYTE      IP3H
      000000B6H   SFRSYM    DATA     BYTE      IP2H
      000000BFH   SFRSYM    DATA     BYTE      P_SW4
      000000A8H   SFRSYM    DATA     BYTE      IE
      000000BBH   SFRSYM    DATA     BYTE      P_SW3
      000000BAH   SFRSYM    DATA     BYTE      P_SW2
      000000A2H   SFRSYM    DATA     BYTE      P_SW1
      000000CEH   SFRSYM    DATA     BYTE      SPCTL
      000000F8H   SFRSYM    DATA     BYTE      P7
      000000E8H   SFRSYM    DATA     BYTE      P6
      000000C8H   SFRSYM    DATA     BYTE      P5
      000000C0H   SFRSYM    DATA     BYTE      P4
      000000ABH   SFRSYM    DATA     BYTE      WKTCH
      000000B0H   SFRSYM    DATA     BYTE      P3
      000000A0H   SFRSYM    DATA     BYTE      P2
      00000090H   SFRSYM    DATA     BYTE      P1
      00000080H   SFRSYM    DATA     BYTE      P0

      ---         MODULE    ---      ---       Device_Test
      00FFBF32H   PUBLIC    CODE     ---       Serve_Test
      00FFC85CH   PUBLIC    CODE     ---       Set_Sevo
      00FFC652H   PUBLIC    CODE     ---       PWM_Test
      000000D0H   SFRSYM    DATA     BYTE      PSW
      0000009DH   SFRSYM    DATA     BYTE      IRCBAND
      00000097H   SFRSYM    DATA     BYTE      AUXR2
      000000EFH   SFRSYM    DATA     BYTE      AUXINTIF
      000000FDH   SFRSYM    DATA     BYTE      S4CON
      000000ACH   SFRSYM    DATA     BYTE      S3CON
      0000009AH   SFRSYM    DATA     BYTE      S2CON
      000000B7H   SFRSYM    DATA     BYTE      IPH
      000000CDH   SFRSYM    DATA     BYTE      SPSTAT
      000000DDH   SFRSYM    DATA     BYTE      T4T3M
      000000C1H   SFRSYM    DATA     BYTE      WDT_CONTR
      000000DFH   SFRSYM    DATA     BYTE      IP3
      000000F4H   SFRSYM    DATA     BYTE      USBCON
      000000B5H   SFRSYM    DATA     BYTE      IP2
      000000FFH   SFRSYM    DATA     BYTE      RSTCFG
      000000C7H   SFRSYM    DATA     BYTE      IAP_CONTR
      0000008EH   SFRSYM    DATA     BYTE      AUXR
      000000AFH   SFRSYM    DATA     BYTE      IE2
      00000088H   SFRSYM    DATA     BYTE      TCON
      00000089H   SFRSYM    DATA     BYTE      TMOD
L251 LINKER/LOCATER V4.66.93.0                                                        11/01/2025  17:49:51  PAGE 141


      00000098H   SFRSYM    DATA     BYTE      SCON
      00000087H   SFRSYM    DATA     BYTE      PCON
      000000BCH   SFRSYM    DATA     BYTE      ADC_CONTR
      000000D1H   SFRSYM    DATA     BYTE      PSW1
      000000E7H   SFRSYM    DATA     BYTE      CMPCR2
      000000E6H   SFRSYM    DATA     BYTE      CMPCR1
      000000DEH   SFRSYM    DATA     BYTE      ADCCFG
      000000B8H   SFRSYM    DATA     BYTE      IP
      0000008FH   SFRSYM    DATA     BYTE      INTCLKO
      000000EEH   SFRSYM    DATA     BYTE      IP3H
      000000B6H   SFRSYM    DATA     BYTE      IP2H
      000000BFH   SFRSYM    DATA     BYTE      P_SW4
      000000A8H   SFRSYM    DATA     BYTE      IE
      000000BBH   SFRSYM    DATA     BYTE      P_SW3
      000000BAH   SFRSYM    DATA     BYTE      P_SW2
      000000A2H   SFRSYM    DATA     BYTE      P_SW1
      000000CEH   SFRSYM    DATA     BYTE      SPCTL
      000000F8H   SFRSYM    DATA     BYTE      P7
      000000E8H   SFRSYM    DATA     BYTE      P6
      000000C8H   SFRSYM    DATA     BYTE      P5
      000000C0H   SFRSYM    DATA     BYTE      P4
      000000ABH   SFRSYM    DATA     BYTE      WKTCH
      000000B0H   SFRSYM    DATA     BYTE      P3
      000000A0H   SFRSYM    DATA     BYTE      P2
      00000090H   SFRSYM    DATA     BYTE      P1
      00000080H   SFRSYM    DATA     BYTE      P0

      00FFBF32H   BLOCK     CODE     ---       LVL=0
      00FFBF34H   BLOCK     CODE     NEAR LAB  LVL=1
      R14         REGSYM    ---      BYTE      a
      R15         REGSYM    ---      BYTE      j
      ---         BLOCKEND  ---      ---       LVL=1
      00FFBF32H   LINE      CODE     ---       #3
      00FFBF34H   LINE      CODE     ---       #4
      00FFBF34H   LINE      CODE     ---       #8
      00FFBF38H   LINE      CODE     ---       #10
      00FFBF3CH   LINE      CODE     ---       #12
      00FFBF45H   LINE      CODE     ---       #13
      00FFBF4CH   LINE      CODE     ---       #14
      00FFBF5AH   LINE      CODE     ---       #16
      00FFBF5EH   LINE      CODE     ---       #18
      00FFBF69H   LINE      CODE     ---       #19
      00FFBF70H   LINE      CODE     ---       #20
      00FFBF7EH   LINE      CODE     ---       #22
      00FFBF85H   LINE      CODE     ---       #23
      ---         BLOCKEND  ---      ---       LVL=0

      00FFC652H   BLOCK     CODE     ---       LVL=0
      00FFC652H   LINE      CODE     ---       #25
      00FFC652H   LINE      CODE     ---       #27
      00FFC66BH   LINE      CODE     ---       #28
      00FFC684H   LINE      CODE     ---       #29
      ---         BLOCKEND  ---      ---       LVL=0

      00FFC85CH   BLOCK     CODE     ---       LVL=0
      00FFC85CH   LINE      CODE     ---       #31
      00FFC85CH   LINE      CODE     ---       #33
      00FFC875H   LINE      CODE     ---       #34
      ---         BLOCKEND  ---      ---       LVL=0

      ---         MODULE    ---      ---       oled
      00FF3940H   PUBLIC    CODE     ---       asc2_0806
      00FF3B68H   PUBLIC    CODE     ---       asc2_1608
      00FF4158H   PUBLIC    CODE     ---       Hzk
      000000D0H   SFRSYM    DATA     BYTE      PSW
L251 LINKER/LOCATER V4.66.93.0                                                        11/01/2025  17:49:51  PAGE 142


      0000009DH   SFRSYM    DATA     BYTE      IRCBAND
      00000097H   SFRSYM    DATA     BYTE      AUXR2
      000000EFH   SFRSYM    DATA     BYTE      AUXINTIF
      000000FDH   SFRSYM    DATA     BYTE      S4CON
      000000ACH   SFRSYM    DATA     BYTE      S3CON
      0000009AH   SFRSYM    DATA     BYTE      S2CON
      000000B7H   SFRSYM    DATA     BYTE      IPH
      000000CDH   SFRSYM    DATA     BYTE      SPSTAT
      000000DDH   SFRSYM    DATA     BYTE      T4T3M
      000000C1H   SFRSYM    DATA     BYTE      WDT_CONTR
      000000DFH   SFRSYM    DATA     BYTE      IP3
      000000F4H   SFRSYM    DATA     BYTE      USBCON
      000000B5H   SFRSYM    DATA     BYTE      IP2
      000000FFH   SFRSYM    DATA     BYTE      RSTCFG
      000000C7H   SFRSYM    DATA     BYTE      IAP_CONTR
      0000008EH   SFRSYM    DATA     BYTE      AUXR
      000000AFH   SFRSYM    DATA     BYTE      IE2
      00000088H   SFRSYM    DATA     BYTE      TCON
      00000089H   SFRSYM    DATA     BYTE      TMOD
      00000098H   SFRSYM    DATA     BYTE      SCON
      00000087H   SFRSYM    DATA     BYTE      PCON
      000000BCH   SFRSYM    DATA     BYTE      ADC_CONTR
      000000D1H   SFRSYM    DATA     BYTE      PSW1
      000000E7H   SFRSYM    DATA     BYTE      CMPCR2
      000000E6H   SFRSYM    DATA     BYTE      CMPCR1
      000000DEH   SFRSYM    DATA     BYTE      ADCCFG
      000000B8H   SFRSYM    DATA     BYTE      IP
      0000008FH   SFRSYM    DATA     BYTE      INTCLKO
      000000EEH   SFRSYM    DATA     BYTE      IP3H
      000000B6H   SFRSYM    DATA     BYTE      IP2H
      000000BFH   SFRSYM    DATA     BYTE      P_SW4
      000000A8H   SFRSYM    DATA     BYTE      IE
      000000BBH   SFRSYM    DATA     BYTE      P_SW3
      000000BAH   SFRSYM    DATA     BYTE      P_SW2
      000000A2H   SFRSYM    DATA     BYTE      P_SW1
      000000CEH   SFRSYM    DATA     BYTE      SPCTL
      000000F8H   SFRSYM    DATA     BYTE      P7
      000000E8H   SFRSYM    DATA     BYTE      P6
      000000C8H   SFRSYM    DATA     BYTE      P5
      000000C0H   SFRSYM    DATA     BYTE      P4
      000000ABH   SFRSYM    DATA     BYTE      WKTCH
      000000B0H   SFRSYM    DATA     BYTE      P3
      000000A0H   SFRSYM    DATA     BYTE      P2
      00000090H   SFRSYM    DATA     BYTE      P1
      00000080H   SFRSYM    DATA     BYTE      P0
      WR2         REGSYM    ---      WORD      ms
      WR0         REGSYM    ---      WORD      a
      R15         REGSYM    ---      BYTE      i
      R15         REGSYM    ---      BYTE      i
      R15         REGSYM    ---      BYTE      dat
      R10         REGSYM    ---      BYTE      cmd
      R14         REGSYM    ---      BYTE      i
      R15         REGSYM    ---      BYTE      x
      R10         REGSYM    ---      BYTE      y
      R15         REGSYM    ---      BYTE      i
      R14         REGSYM    ---      BYTE      n
      R13         REGSYM    ---      BYTE      x
      R14         REGSYM    ---      BYTE      y
      R3          REGSYM    ---      BYTE      chr
      R15         REGSYM    ---      BYTE      sizey
      R12         REGSYM    ---      BYTE      facial
      R3          REGSYM    ---      BYTE      m
      R10         REGSYM    ---      BYTE      n
      WR6         REGSYM    ---      WORD      result
      WR14        REGSYM    ---      WORD      num
L251 LINKER/LOCATER V4.66.93.0                                                        11/01/2025  17:49:51  PAGE 143


      R12         REGSYM    ---      BYTE      len
      R13         REGSYM    ---      BYTE      sizey
      REG=3       REGSYM    ---      ---       chr
      R12         REGSYM    ---      BYTE      x
      R13         REGSYM    ---      BYTE      y
      R14         REGSYM    ---      BYTE      no
      R15         REGSYM    ---      BYTE      sizey

      ---         MODULE    ---      ---       Strategy
      00FFBAF6H   PUBLIC    CODE     ---       angle_Get
      00FF720DH   PUBLIC    CODE     ---       Half_State_of_road
      00FF9FDFH   PUBLIC    CODE     ---       if_Cycle
      00FF4E35H   PUBLIC    CODE     ---       Inertial_Navigation
      00FF754EH   PUBLIC    CODE     ---       State_of_road
      00FF80DFH   PUBLIC    CODE     ---       Help_turn2
      00010B37H   PUBLIC    XDATA    INT       Wan_Falg
      00010B39H   PUBLIC    XDATA    WORD      Long_Time
      00010B3BH   PUBLIC    XDATA    WORD      Short_Time
      00010B3DH   PUBLIC    XDATA    INT       current_angle_time
      00010B3FH   PUBLIC    XDATA    BYTE      Road_Stat
      00010B40H   PUBLIC    XDATA    INT       Zhi_Falg
      00010B42H   PUBLIC    XDATA    WORD      Wait_Time
      00010B44H   PUBLIC    XDATA    FLOAT     angle
      00010B48H   PUBLIC    XDATA    BYTE      Long_road_Time
      00010B49H   PUBLIC    XDATA    WORD      Entern_Continue_Time
      00010B4BH   PUBLIC    XDATA    WORD      if2_time
      00010B4DH   PUBLIC    XDATA    ---       Road_information
      00010BB1H   PUBLIC    XDATA    FLOAT     Str_Data
      00010BB5H   PUBLIC    XDATA    BYTE      Last_stact
      00010BB6H   PUBLIC    XDATA    BYTE      Show_Init
      00010BB7H   PUBLIC    XDATA    FLOAT     angle_buffer1
      00010BBBH   PUBLIC    XDATA    ---       Long_road
      00010C0BH   PUBLIC    XDATA    BYTE      ACC_Flag
      00010C0CH   PUBLIC    XDATA    ---       long_road_angle
      00010C5CH   PUBLIC    XDATA    INT       turn_Value
      00010C5EH   PUBLIC    XDATA    INT       Type_road
      00010C60H   PUBLIC    XDATA    INT       Inertial_Time
      00010C62H   PUBLIC    XDATA    WORD      Entern_Delay_Time
      00010C64H   PUBLIC    XDATA    WORD      SLOW_Time
      00010C66H   PUBLIC    XDATA    WORD      Continue_Time
      00010C68H   PUBLIC    XDATA    FLOAT     State_Data_Bend
      00010C6CH   PUBLIC    XDATA    WORD      Entern_Flag_Time
      00010C6EH   PUBLIC    XDATA    ---       Last_Range_Data
      00010DFEH   PUBLIC    XDATA    BYTE      Enter_Flag_Left
      00010DFFH   PUBLIC    XDATA    ---       Range_Data
      00010F8FH   PUBLIC    XDATA    WORD      Accel_Time
      00010F91H   PUBLIC    XDATA    FLOAT     Bend_Data
      00010F95H   PUBLIC    XDATA    WORD      if_time
      00010F97H   PUBLIC    XDATA    INT       Mode_Flag
      00010F99H   PUBLIC    XDATA    WORD      Bend_Time
      00010F9BH   PUBLIC    XDATA    BYTE      Cycle_Stat
      00010F9CH   PUBLIC    XDATA    BYTE      Fires_Init
      00010F9DH   PUBLIC    XDATA    BYTE      finsh_Flag
      00010F9EH   PUBLIC    XDATA    FLOAT     delta_angle
      00010FA2H   PUBLIC    XDATA    FLOAT     State_Data_Str
      000000D0H   SFRSYM    DATA     BYTE      PSW
      0000009DH   SFRSYM    DATA     BYTE      IRCBAND
      00000097H   SFRSYM    DATA     BYTE      AUXR2
      000000EFH   SFRSYM    DATA     BYTE      AUXINTIF
      000000FDH   SFRSYM    DATA     BYTE      S4CON
      000000ACH   SFRSYM    DATA     BYTE      S3CON
      0000009AH   SFRSYM    DATA     BYTE      S2CON
      000000B7H   SFRSYM    DATA     BYTE      IPH
      000000CDH   SFRSYM    DATA     BYTE      SPSTAT
      000000DDH   SFRSYM    DATA     BYTE      T4T3M
L251 LINKER/LOCATER V4.66.93.0                                                        11/01/2025  17:49:51  PAGE 144


      000000C1H   SFRSYM    DATA     BYTE      WDT_CONTR
      000000DFH   SFRSYM    DATA     BYTE      IP3
      000000F4H   SFRSYM    DATA     BYTE      USBCON
      000000B5H   SFRSYM    DATA     BYTE      IP2
      000000FFH   SFRSYM    DATA     BYTE      RSTCFG
      000000C7H   SFRSYM    DATA     BYTE      IAP_CONTR
      0000008EH   SFRSYM    DATA     BYTE      AUXR
      000000AFH   SFRSYM    DATA     BYTE      IE2
      00000088H   SFRSYM    DATA     BYTE      TCON
      00000089H   SFRSYM    DATA     BYTE      TMOD
      00000098H   SFRSYM    DATA     BYTE      SCON
      00000087H   SFRSYM    DATA     BYTE      PCON
      000000BCH   SFRSYM    DATA     BYTE      ADC_CONTR
      000000D1H   SFRSYM    DATA     BYTE      PSW1
      000000E7H   SFRSYM    DATA     BYTE      CMPCR2
      000000E6H   SFRSYM    DATA     BYTE      CMPCR1
      000000DEH   SFRSYM    DATA     BYTE      ADCCFG
      000000B8H   SFRSYM    DATA     BYTE      IP
      0000008FH   SFRSYM    DATA     BYTE      INTCLKO
      000000EEH   SFRSYM    DATA     BYTE      IP3H
      000000B6H   SFRSYM    DATA     BYTE      IP2H
      000000BFH   SFRSYM    DATA     BYTE      P_SW4
      000000A8H   SFRSYM    DATA     BYTE      IE
      000000BBH   SFRSYM    DATA     BYTE      P_SW3
      000000BAH   SFRSYM    DATA     BYTE      P_SW2
      000000A2H   SFRSYM    DATA     BYTE      P_SW1
      000000CEH   SFRSYM    DATA     BYTE      SPCTL
      000000F8H   SFRSYM    DATA     BYTE      P7
      000000E8H   SFRSYM    DATA     BYTE      P6
      000000C8H   SFRSYM    DATA     BYTE      P5
      000000C0H   SFRSYM    DATA     BYTE      P4
      000000ABH   SFRSYM    DATA     BYTE      WKTCH
      000000B0H   SFRSYM    DATA     BYTE      P3
      000000A0H   SFRSYM    DATA     BYTE      P2
      00000090H   SFRSYM    DATA     BYTE      P1
      00000080H   SFRSYM    DATA     BYTE      P0

      00FF9FDFH   BLOCK     CODE     ---       LVL=0
      00FF9FDFH   LINE      CODE     ---       #69
      00FF9FDFH   LINE      CODE     ---       #71
      00FF9FEBH   LINE      CODE     ---       #73
      00FF9FF6H   LINE      CODE     ---       #74
      00FF9FF9H   LINE      CODE     ---       #75
      00FF9FF9H   LINE      CODE     ---       #78
      00FFA00EH   LINE      CODE     ---       #80
      00FFA00EH   LINE      CODE     ---       #82
      00FFA011H   LINE      CODE     ---       #83
      00FFA029H   LINE      CODE     ---       #85
      00FFA034H   LINE      CODE     ---       #86
      00FFA047H   LINE      CODE     ---       #88
      00FFA04CH   LINE      CODE     ---       #89
      00FFA054H   LINE      CODE     ---       #90
      00FFA057H   LINE      CODE     ---       #94
      00FFA05FH   LINE      CODE     ---       #95
      00FFA05FH   LINE      CODE     ---       #96
      00FFA061H   LINE      CODE     ---       #98
      00FFA061H   LINE      CODE     ---       #100
      00FFA06CH   LINE      CODE     ---       #101
      00FFA07CH   LINE      CODE     ---       #103
      00FFA082H   LINE      CODE     ---       #104
      00FFA08EH   LINE      CODE     ---       #105
      00FFA096H   LINE      CODE     ---       #106
      00FFA096H   LINE      CODE     ---       #107
      00FFA098H   LINE      CODE     ---       #109
      00FFA098H   LINE      CODE     ---       #111
L251 LINKER/LOCATER V4.66.93.0                                                        11/01/2025  17:49:51  PAGE 145


      00FFA09EH   LINE      CODE     ---       #112
      00FFA0A1H   LINE      CODE     ---       #113
      00FFA0ACH   LINE      CODE     ---       #115
      00FFA0BCH   LINE      CODE     ---       #117
      00FFA0C2H   LINE      CODE     ---       #118
      00FFA0CCH   LINE      CODE     ---       #119
      00FFA0D4H   LINE      CODE     ---       #120
      00FFA0D9H   LINE      CODE     ---       #121
      00FFA0D9H   LINE      CODE     ---       #122
      00FFA0DBH   LINE      CODE     ---       #124
      00FFA0DBH   LINE      CODE     ---       #126
      00FFA0DEH   LINE      CODE     ---       #127
      00FFA0DEH   LINE      CODE     ---       #129
      00FFA0DEH   LINE      CODE     ---       #130
      00FFA0DEH   LINE      CODE     ---       #132
      ---         BLOCKEND  ---      ---       LVL=0
      WR2         REGSYM    ---      INT       left
      WR4         REGSYM    ---      INT       right

      00FF80DFH   BLOCK     CODE     ---       LVL=0
      WR14        REGSYM    ---      INT       temp
      WR2         REGSYM    ---      INT       value
      WR0         REGSYM    ---      INT       ADC_Flag
      00FF80E7H   BLOCK     CODE     NEAR LAB  LVL=1
      00010FA6H   SYMBOL    XDATA    INT       last_dir
      00010FA8H   SYMBOL    XDATA    INT       first_double
      WR24        REGSYM    ---      INT       left
      WR6         REGSYM    ---      INT       right
      WR26        REGSYM    ---      INT       target
      00010FAAH   SYMBOL    XDATA    FLOAT     smooth_temp
      WR10        REGSYM    ---      INT       delta
      0001155CH   SYMBOL    XDATA    FLOAT     smooth
      ---         BLOCKEND  ---      ---       LVL=1
      00FF80DFH   LINE      CODE     ---       #159
      00FF80E7H   LINE      CODE     ---       #160
      00FF80E7H   LINE      CODE     ---       #164
      00FF80F5H   LINE      CODE     ---       #165
      00FF8103H   LINE      CODE     ---       #166
      00FF8105H   LINE      CODE     ---       #169
      00FF8109H   LINE      CODE     ---       #170
      00FF811BH   LINE      CODE     ---       #171
      00FF8126H   LINE      CODE     ---       #173
      00FF8134H   LINE      CODE     ---       #175
      00FF813EH   LINE      CODE     ---       #177
      00FF8142H   LINE      CODE     ---       #179
      00FF8146H   LINE      CODE     ---       #180
      00FF8150H   LINE      CODE     ---       #181
      00FF8152H   LINE      CODE     ---       #184
      00FF8154H   LINE      CODE     ---       #185
      00FF815EH   LINE      CODE     ---       #186
      00FF815EH   LINE      CODE     ---       #187
      00FF8166H   LINE      CODE     ---       #188
      00FF8169H   LINE      CODE     ---       #191
      00FF8181H   LINE      CODE     ---       #194
      00FF8193H   LINE      CODE     ---       #195
      00FF81A3H   LINE      CODE     ---       #196
      00FF81A5H   LINE      CODE     ---       #197
      00FF81A7H   LINE      CODE     ---       #198
      00FF81ABH   LINE      CODE     ---       #200
      00FF81AFH   LINE      CODE     ---       #201
      00FF81B9H   LINE      CODE     ---       #202
      00FF81BBH   LINE      CODE     ---       #205
      00FF81BDH   LINE      CODE     ---       #206
      00FF81C7H   LINE      CODE     ---       #207
      00FF81C7H   LINE      CODE     ---       #208
L251 LINKER/LOCATER V4.66.93.0                                                        11/01/2025  17:49:51  PAGE 146


      00FF81C7H   LINE      CODE     ---       #209
      00FF81C9H   LINE      CODE     ---       #210
      00FF81CDH   LINE      CODE     ---       #212
      00FF81D1H   LINE      CODE     ---       #213
      00FF81DBH   LINE      CODE     ---       #214
      00FF81E5H   LINE      CODE     ---       #215
      00FF81E7H   LINE      CODE     ---       #218
      00FF81E9H   LINE      CODE     ---       #219
      00FF81F3H   LINE      CODE     ---       #220
      00FF81FDH   LINE      CODE     ---       #221
      00FF81FDH   LINE      CODE     ---       #222
      00FF8242H   LINE      CODE     ---       #223
      00FF8267H   LINE      CODE     ---       #224
      00FF826AH   LINE      CODE     ---       #227
      00FF82C5H   LINE      CODE     ---       #229
      00FF82D6H   LINE      CODE     ---       #230
      00FF82E7H   LINE      CODE     ---       #231
      00FF82E9H   LINE      CODE     ---       #234
      00FF832EH   LINE      CODE     ---       #235
      00FF8353H   LINE      CODE     ---       #236
      00FF8353H   LINE      CODE     ---       #237
      00FF8353H   LINE      CODE     ---       #238
      ---         BLOCKEND  ---      ---       LVL=0
      REG=7       REGSYM    ---      ---       temp
      WR24        REGSYM    ---      INT       value
      WR26        REGSYM    ---      INT       value2
      00010FAEH   SYMBOL    XDATA    INT       last_dir
      00010FB0H   SYMBOL    XDATA    INT       first_double
      WR16        REGSYM    ---      INT       left
      WR18        REGSYM    ---      INT       right
      DR20        REGSYM    ---      FLOAT     K
      WR6         REGSYM    ---      INT       delta
      WR8         REGSYM    ---      INT       temp
      WR10        REGSYM    ---      INT       value
      WR2         REGSYM    ---      INT       value2
      WR0         REGSYM    ---      INT       ADC_Flag
      WR30        REGSYM    ---      INT       left
      WR4         REGSYM    ---      INT       right

      00FF754EH   BLOCK     CODE     ---       LVL=0
      00FF754EH   LINE      CODE     ---       #379
      00FF754EH   LINE      CODE     ---       #381
      00FF756BH   LINE      CODE     ---       #383
      00FF756BH   LINE      CODE     ---       #385
      00FF7578H   LINE      CODE     ---       #386
      00FF75AAH   LINE      CODE     ---       #388
      00FF75B5H   LINE      CODE     ---       #389
      00FF75BDH   LINE      CODE     ---       #390
      00FF75D6H   LINE      CODE     ---       #392
      00FF75DEH   LINE      CODE     ---       #393
      00FF75E4H   LINE      CODE     ---       #394
      00FF75E6H   LINE      CODE     ---       #398
      00FF75EEH   LINE      CODE     ---       #399
      00FF75F9H   LINE      CODE     ---       #401
      00FF7612H   LINE      CODE     ---       #403
      00FF761AH   LINE      CODE     ---       #404
      00FF7620H   LINE      CODE     ---       #405
      00FF7620H   LINE      CODE     ---       #407
      00FF7620H   LINE      CODE     ---       #408
      00FF7630H   LINE      CODE     ---       #409
      00FF7630H   LINE      CODE     ---       #411
      00FF7630H   LINE      CODE     ---       #413
      00FF763DH   LINE      CODE     ---       #414
      00FF7648H   LINE      CODE     ---       #415
      00FF767AH   LINE      CODE     ---       #417
L251 LINKER/LOCATER V4.66.93.0                                                        11/01/2025  17:49:51  PAGE 147


      00FF7685H   LINE      CODE     ---       #418
      00FF769EH   LINE      CODE     ---       #420
      00FF76AAH   LINE      CODE     ---       #422
      00FF76B0H   LINE      CODE     ---       #423
      00FF76B8H   LINE      CODE     ---       #424
      00FF76BAH   LINE      CODE     ---       #427
      00FF76C0H   LINE      CODE     ---       #428
      00FF76C0H   LINE      CODE     ---       #429
      00FF76C8H   LINE      CODE     ---       #430
      00FF76D0H   LINE      CODE     ---       #431
      00FF76D2H   LINE      CODE     ---       #435
      00FF76DAH   LINE      CODE     ---       #436
      00FF76DAH   LINE      CODE     ---       #437
      00FF76EAH   LINE      CODE     ---       #438
      00FF76EAH   LINE      CODE     ---       #440
      00FF76EAH   LINE      CODE     ---       #442
      00FF76F7H   LINE      CODE     ---       #443
      00FF7729H   LINE      CODE     ---       #445
      00FF7731H   LINE      CODE     ---       #446
      00FF7733H   LINE      CODE     ---       #449
      00FF773EH   LINE      CODE     ---       #450
      00FF7757H   LINE      CODE     ---       #452
      00FF775FH   LINE      CODE     ---       #453
      00FF7764H   LINE      CODE     ---       #454
      00FF7764H   LINE      CODE     ---       #456
      00FF7774H   LINE      CODE     ---       #457
      00FF7774H   LINE      CODE     ---       #459
      00FF7774H   LINE      CODE     ---       #461
      00FF777FH   LINE      CODE     ---       #462
      00FF7798H   LINE      CODE     ---       #464
      00FF779BH   LINE      CODE     ---       #465
      00FF77A8H   LINE      CODE     ---       #466
      00FF77AAH   LINE      CODE     ---       #469
      00FF77ADH   LINE      CODE     ---       #471
      00FF77BAH   LINE      CODE     ---       #472
      00FF77BAH   LINE      CODE     ---       #474
      00FF77ECH   LINE      CODE     ---       #476
      00FF77F7H   LINE      CODE     ---       #477
      00FF7810H   LINE      CODE     ---       #479
      00FF7813H   LINE      CODE     ---       #480
      00FF781BH   LINE      CODE     ---       #481
      00FF7823H   LINE      CODE     ---       #482
      00FF7828H   LINE      CODE     ---       #483
      00FF782AH   LINE      CODE     ---       #488
      00FF7832H   LINE      CODE     ---       #489
      00FF7832H   LINE      CODE     ---       #490
      00FF784BH   LINE      CODE     ---       #492
      00FF785AH   LINE      CODE     ---       #493
      00FF785AH   LINE      CODE     ---       #496
      00FF7869H   LINE      CODE     ---       #497
      00FF7869H   LINE      CODE     ---       #499
      00FF7869H   LINE      CODE     ---       #501
      00FF7869H   LINE      CODE     ---       #503
      00FF786CH   LINE      CODE     ---       #504
      00FF786EH   LINE      CODE     ---       #505
      00FF786EH   LINE      CODE     ---       #508
      00FF786EH   LINE      CODE     ---       #509
      ---         BLOCKEND  ---      ---       LVL=0

      00FF4E35H   BLOCK     CODE     ---       LVL=0
      WR14        REGSYM    ---      INT       value
      00FF4E35H   LINE      CODE     ---       #511
      00FF4E39H   LINE      CODE     ---       #513
      00FF4E54H   LINE      CODE     ---       #515
      00FF4E54H   LINE      CODE     ---       #517
L251 LINKER/LOCATER V4.66.93.0                                                        11/01/2025  17:49:51  PAGE 148


      00FF4E84H   LINE      CODE     ---       #518
      00FF4EE4H   LINE      CODE     ---       #520
      00FF4EEFH   LINE      CODE     ---       #521
      00FF4F0CH   LINE      CODE     ---       #523
      00FF4F16H   LINE      CODE     ---       #524
      00FF4F1EH   LINE      CODE     ---       #525
      00FF4F2AH   LINE      CODE     ---       #526
      00FF4F32H   LINE      CODE     ---       #527
      00FF4F35H   LINE      CODE     ---       #531
      00FF4F3DH   LINE      CODE     ---       #532
      00FF4F7DH   LINE      CODE     ---       #534
      00FF4F91H   LINE      CODE     ---       #535
      00FF4F94H   LINE      CODE     ---       #536
      00FF4FB9H   LINE      CODE     ---       #538
      00FF4FC3H   LINE      CODE     ---       #539
      00FF4FCBH   LINE      CODE     ---       #540
      00FF4FCBH   LINE      CODE     ---       #542
      00FF4FCEH   LINE      CODE     ---       #544
      00FF4FCEH   LINE      CODE     ---       #546
      00FF4FFEH   LINE      CODE     ---       #547
      00FF505BH   LINE      CODE     ---       #549
      00FF5066H   LINE      CODE     ---       #550
      00FF5083H   LINE      CODE     ---       #552
      00FF508DH   LINE      CODE     ---       #553
      00FF5095H   LINE      CODE     ---       #554
      00FF5098H   LINE      CODE     ---       #558
      00FF50A0H   LINE      CODE     ---       #559
      00FF50A0H   LINE      CODE     ---       #560
      00FF50A3H   LINE      CODE     ---       #562
      00FF50A3H   LINE      CODE     ---       #564
      00FF50D3H   LINE      CODE     ---       #565
      00FF5146H   LINE      CODE     ---       #567
      00FF5151H   LINE      CODE     ---       #568
      00FF516BH   LINE      CODE     ---       #570
      00FF5173H   LINE      CODE     ---       #571
      00FF517BH   LINE      CODE     ---       #572
      00FF517DH   LINE      CODE     ---       #576
      00FF5185H   LINE      CODE     ---       #577
      00FF5185H   LINE      CODE     ---       #578
      00FF5185H   LINE      CODE     ---       #580
      00FF5185H   LINE      CODE     ---       #581
      00FF5198H   LINE      CODE     ---       #583
      00FF51A4H   LINE      CODE     ---       #585
      00FF51B7H   LINE      CODE     ---       #586
      00FF51E1H   LINE      CODE     ---       #587
      00FF51E7H   LINE      CODE     ---       #589
      00FF521DH   LINE      CODE     ---       #590
      00FF5222H   LINE      CODE     ---       #591
      00FF5224H   LINE      CODE     ---       #594
      00FF5280H   LINE      CODE     ---       #595
      00FF5280H   LINE      CODE     ---       #596
      00FF528BH   LINE      CODE     ---       #597
      00FF5297H   LINE      CODE     ---       #598
      00FF529AH   LINE      CODE     ---       #599
      00FF52B2H   LINE      CODE     ---       #601
      00FF52C5H   LINE      CODE     ---       #602
      00FF52EFH   LINE      CODE     ---       #603
      00FF52F5H   LINE      CODE     ---       #605
      00FF532BH   LINE      CODE     ---       #606
      00FF5330H   LINE      CODE     ---       #607
      00FF5332H   LINE      CODE     ---       #610
      00FF538EH   LINE      CODE     ---       #611
      00FF538EH   LINE      CODE     ---       #612
      00FF5399H   LINE      CODE     ---       #613
      00FF53A5H   LINE      CODE     ---       #614
L251 LINKER/LOCATER V4.66.93.0                                                        11/01/2025  17:49:51  PAGE 149


      00FF53A8H   LINE      CODE     ---       #615
      00FF53B4H   LINE      CODE     ---       #617
      00FF53C7H   LINE      CODE     ---       #618
      00FF53F1H   LINE      CODE     ---       #620
      00FF541BH   LINE      CODE     ---       #621
      00FF5440H   LINE      CODE     ---       #622
      00FF5446H   LINE      CODE     ---       #624
      00FF547CH   LINE      CODE     ---       #625
      00FF5481H   LINE      CODE     ---       #626
      00FF5483H   LINE      CODE     ---       #629
      00FF54DFH   LINE      CODE     ---       #630
      00FF54DFH   LINE      CODE     ---       #632
      00FF54EAH   LINE      CODE     ---       #633
      00FF54F0H   LINE      CODE     ---       #634
      00FF54FCH   LINE      CODE     ---       #635
      00FF5508H   LINE      CODE     ---       #636
      00FF5508H   LINE      CODE     ---       #637
      00FF5512H   LINE      CODE     ---       #638
      ---         BLOCKEND  ---      ---       LVL=0

      00FF720DH   BLOCK     CODE     ---       LVL=0
      WR14        REGSYM    ---      INT       value
      00FF720DH   LINE      CODE     ---       #643
      00FF7211H   LINE      CODE     ---       #645
      00FF7222H   LINE      CODE     ---       #647
      00FF7222H   LINE      CODE     ---       #649
      00FF7252H   LINE      CODE     ---       #650
      00FF727AH   LINE      CODE     ---       #653
      00FF727FH   LINE      CODE     ---       #654
      00FF727FH   LINE      CODE     ---       #655
      00FF7356H   LINE      CODE     ---       #659
      00FF735CH   LINE      CODE     ---       #660
      00FF735CH   LINE      CODE     ---       #661
      00FF7363H   LINE      CODE     ---       #663
      00FF73A3H   LINE      CODE     ---       #665
      00FF73B0H   LINE      CODE     ---       #666
      00FF73B6H   LINE      CODE     ---       #667
      00FF73B9H   LINE      CODE     ---       #668
      00FF73BBH   LINE      CODE     ---       #671
      00FF73C1H   LINE      CODE     ---       #672
      00FF73C1H   LINE      CODE     ---       #673
      00FF73C3H   LINE      CODE     ---       #674
      00FF73CAH   LINE      CODE     ---       #676
      00FF73CDH   LINE      CODE     ---       #677
      00FF73DAH   LINE      CODE     ---       #678
      00FF73DCH   LINE      CODE     ---       #681
      00FF73DFH   LINE      CODE     ---       #682
      00FF73E4H   LINE      CODE     ---       #683
      00FF73E4H   LINE      CODE     ---       #684
      00FF7444H   LINE      CODE     ---       #686
      00FF744FH   LINE      CODE     ---       #687
      00FF746BH   LINE      CODE     ---       #689
      00FF7471H   LINE      CODE     ---       #690
      00FF747DH   LINE      CODE     ---       #691
      00FF7483H   LINE      CODE     ---       #692
      00FF7488H   LINE      CODE     ---       #693
      00FF7491H   LINE      CODE     ---       #695
      00FF7497H   LINE      CODE     ---       #696
      00FF749CH   LINE      CODE     ---       #697
      00FF749CH   LINE      CODE     ---       #699
      00FF749FH   LINE      CODE     ---       #702
      00FF74A7H   LINE      CODE     ---       #703
      00FF74A7H   LINE      CODE     ---       #704
      00FF74AAH   LINE      CODE     ---       #706
      00FF74AAH   LINE      CODE     ---       #708
L251 LINKER/LOCATER V4.66.93.0                                                        11/01/2025  17:49:51  PAGE 150


      00FF74AFH   LINE      CODE     ---       #709
      00FF74B2H   LINE      CODE     ---       #710
      00FF750FH   LINE      CODE     ---       #712
      00FF751AH   LINE      CODE     ---       #713
      00FF7533H   LINE      CODE     ---       #715
      00FF7539H   LINE      CODE     ---       #716
      00FF7541H   LINE      CODE     ---       #717
      00FF7543H   LINE      CODE     ---       #721
      00FF754BH   LINE      CODE     ---       #722
      00FF754BH   LINE      CODE     ---       #723
      00FF754BH   LINE      CODE     ---       #725
      00FF754BH   LINE      CODE     ---       #726
      ---         BLOCKEND  ---      ---       LVL=0

      00FFBAF6H   BLOCK     CODE     ---       LVL=0
      WR8         REGSYM    ---      INT       value
      WR2         REGSYM    ---      INT       Count
      00FFBAF6H   LINE      CODE     ---       #728
      00FFBAFAH   LINE      CODE     ---       #730
      00FFBB08H   LINE      CODE     ---       #732
      00FFBB19H   LINE      CODE     ---       #733
      00FFBB1BH   LINE      CODE     ---       #734
      00FFBB25H   LINE      CODE     ---       #736
      00FFBB30H   LINE      CODE     ---       #737
      00FFBB4BH   LINE      CODE     ---       #738
      00FFBB65H   LINE      CODE     ---       #739
      ---         BLOCKEND  ---      ---       LVL=0

      ---         MODULE    ---      ---       Buzzer
      00FF01BEH   PUBLIC    CODE     ---       Buzzer_ON
      00FFC931H   PUBLIC    CODE     ---       Buzzer_OFF
      00FFC8F0H   PUBLIC    CODE     ---       Buzzer_Init
      000000D0H   SFRSYM    DATA     BYTE      PSW
      0000009DH   SFRSYM    DATA     BYTE      IRCBAND
      00000097H   SFRSYM    DATA     BYTE      AUXR2
      000000EFH   SFRSYM    DATA     BYTE      AUXINTIF
      000000FDH   SFRSYM    DATA     BYTE      S4CON
      000000ACH   SFRSYM    DATA     BYTE      S3CON
      0000009AH   SFRSYM    DATA     BYTE      S2CON
      000000B7H   SFRSYM    DATA     BYTE      IPH
      000000CDH   SFRSYM    DATA     BYTE      SPSTAT
      000000DDH   SFRSYM    DATA     BYTE      T4T3M
      000000C1H   SFRSYM    DATA     BYTE      WDT_CONTR
      000000DFH   SFRSYM    DATA     BYTE      IP3
      000000F4H   SFRSYM    DATA     BYTE      USBCON
      000000B5H   SFRSYM    DATA     BYTE      IP2
      000000FFH   SFRSYM    DATA     BYTE      RSTCFG
      000000C7H   SFRSYM    DATA     BYTE      IAP_CONTR
      0000008EH   SFRSYM    DATA     BYTE      AUXR
      000000AFH   SFRSYM    DATA     BYTE      IE2
      00000088H   SFRSYM    DATA     BYTE      TCON
      00000089H   SFRSYM    DATA     BYTE      TMOD
      00000098H   SFRSYM    DATA     BYTE      SCON
      00000087H   SFRSYM    DATA     BYTE      PCON
      000000BCH   SFRSYM    DATA     BYTE      ADC_CONTR
      000000D1H   SFRSYM    DATA     BYTE      PSW1
      000000E7H   SFRSYM    DATA     BYTE      CMPCR2
      000000E6H   SFRSYM    DATA     BYTE      CMPCR1
      000000DEH   SFRSYM    DATA     BYTE      ADCCFG
      000000B8H   SFRSYM    DATA     BYTE      IP
      0000008FH   SFRSYM    DATA     BYTE      INTCLKO
      000000EEH   SFRSYM    DATA     BYTE      IP3H
      000000B6H   SFRSYM    DATA     BYTE      IP2H
      000000BFH   SFRSYM    DATA     BYTE      P_SW4
      000000A8H   SFRSYM    DATA     BYTE      IE
L251 LINKER/LOCATER V4.66.93.0                                                        11/01/2025  17:49:51  PAGE 151


      000000BBH   SFRSYM    DATA     BYTE      P_SW3
      000000BAH   SFRSYM    DATA     BYTE      P_SW2
      000000A2H   SFRSYM    DATA     BYTE      P_SW1
      000000CEH   SFRSYM    DATA     BYTE      SPCTL
      000000F8H   SFRSYM    DATA     BYTE      P7
      000000E8H   SFRSYM    DATA     BYTE      P6
      000000C8H   SFRSYM    DATA     BYTE      P5
      000000C0H   SFRSYM    DATA     BYTE      P4
      000000ABH   SFRSYM    DATA     BYTE      WKTCH
      000000B0H   SFRSYM    DATA     BYTE      P3
      000000A0H   SFRSYM    DATA     BYTE      P2
      00000090H   SFRSYM    DATA     BYTE      P1
      00000080H   SFRSYM    DATA     BYTE      P0

      00FFC8F0H   BLOCK     CODE     ---       LVL=0
      00FFC8F0H   LINE      CODE     ---       #2
      00FFC8F0H   LINE      CODE     ---       #4
      00FFC900H   LINE      CODE     ---       #5
      ---         BLOCKEND  ---      ---       LVL=0

      00FF01BEH   BLOCK     CODE     ---       LVL=0
      00FF01BEH   LINE      CODE     ---       #6
      00FF01BEH   LINE      CODE     ---       #8
      00FF01C7H   LINE      CODE     ---       #9
      ---         BLOCKEND  ---      ---       LVL=0

      00FFC931H   BLOCK     CODE     ---       LVL=0
      00FFC931H   LINE      CODE     ---       #11
      00FFC931H   LINE      CODE     ---       #13
      00FFC939H   LINE      CODE     ---       #14
      ---         BLOCKEND  ---      ---       LVL=0

      ---         MODULE    ---      ---       ?C?DPADD
      00FF2225H   PUBLIC    CODE     ---       ?C?DPADD
      00FF2221H   PUBLIC    CODE     ---       ?C?DPSUB

      ---         MODULE    ---      ---       ?C?DPMUL
      00FF2334H   PUBLIC    CODE     ---       ?C?DPMUL

      ---         MODULE    ---      ---       ?C?DPDIV
      00FF2444H   PUBLIC    CODE     ---       ?C?DPDIV

      ---         MODULE    ---      ---       ?C?DPCMP
      00FF24E5H   PUBLIC    CODE     ---       ?C?DPCMP
      00FF24E3H   PUBLIC    CODE     ---       ?C?DPCMP3

      ---         MODULE    ---      ---       ?C?DPNEG
      00FF2544H   PUBLIC    CODE     ---       ?C?DPNEG

      ---         MODULE    ---      ---       ?C?DCAST
      00FF255CH   PUBLIC    CODE     NEAR LAB  ?C?DCASTC
      00FF2557H   PUBLIC    CODE     NEAR LAB  ?C?DCASTI
      00FF2552H   PUBLIC    CODE     NEAR LAB  ?C?DCASTL

      ---         MODULE    ---      ---       ?C?CASTD
      00FF259FH   PUBLIC    CODE     NEAR LAB  ?C?CASTD

      ---         MODULE    ---      ---       ?C?DCASTF
      00FF25FFH   PUBLIC    CODE     NEAR LAB  ?C?DCASTF

      ---         MODULE    ---      ---       ?C?FCASTD
      00FF2641H   PUBLIC    CODE     NEAR LAB  ?C?FCASTD

      ---         MODULE    ---      ---       PRINTF
      000115D3H   PUBLIC    XDATA    ---       ?PRINTF?BYTE
L251 LINKER/LOCATER V4.66.93.0                                                        11/01/2025  17:49:51  PAGE 152


      00FF2678H   PUBLIC    CODE     NEAR LAB  PRINTF

      ---         MODULE    ---      ---       SPRINTF
      00011584H   PUBLIC    XDATA    ---       ?SPRINTF?BYTE
      00FF26A4H   PUBLIC    CODE     NEAR LAB  SPRINTF

      ---         MODULE    ---      ---       SQRT?_
      00FF26CAH   PUBLIC    CODE     ---       SQRT?_

      ---         MODULE    ---      ---       pow

      ---         MODULE    ---      ---       SIN?_
      00FF2818H   PUBLIC    CODE     ---       COS?_
      00FF2839H   PUBLIC    CODE     ---       SIN?_
      00FF286EH   PUBLIC    CODE     ---       TAN?_

      ---         MODULE    ---      ---       ATAN?_
      00FF29B0H   PUBLIC    CODE     ---       ATAN?_

      ---         MODULE    ---      ---       ASIN?_
      00FF2ACBH   PUBLIC    CODE     ---       ASIN?_

      ---         MODULE    ---      ---       ?C?DPGETOPN
      00FF2AF5H   PUBLIC    CODE     ---       ?C?DPGETOPN2
      00FF2B40H   PUBLIC    CODE     ---       ?C?DPNANRESULT
      00FF2B4CH   PUBLIC    CODE     ---       ?C?DPOVERFLOW
      00FF2B18H   PUBLIC    CODE     ---       ?C?DPRESULT
      00FF2B31H   PUBLIC    CODE     ---       ?C?DPRESULT2
      00FF2B47H   PUBLIC    CODE     ---       ?C?DPUNDERFLOW

      ---         MODULE    ---      ---       _CHKDOUBLE_?_
      00FF2B5AH   PUBLIC    CODE     ---       _CHKDOUBLE_?_

      ---         MODULE    ---      ---       ?C?PRNFMT
      00FF2BA5H   PUBLIC    CODE     ---       ?C?PRNFMT

      ---         MODULE    ---      ---       ?C?DPSERIES
      00FF2FD3H   PUBLIC    CODE     ---       ?C?DP2SERIES
      00FF2FDEH   PUBLIC    CODE     ---       ?C?DPSERIES

      ---         MODULE    ---      ---       EXP?_
      00FF30BAH   PUBLIC    CODE     ---       EXP?_

      ---         MODULE    ---      ---       LOG?_
      00FF31A3H   PUBLIC    CODE     NEAR LAB  LOG?_

      ---         MODULE    ---      ---       ?C?DPCONVERT
      00FF32BEH   PUBLIC    CODE     ---       ?C?DPCONVERT
      00FF33E5H   PUBLIC    CODE     ---       ?C?DPROUND

      ---         MODULE    ---      ---       ?C?DTNPWR
      00FF34C0H   PUBLIC    CODE     ---       ?C?DTNPWR

      ---         MODULE    ---      ---       ?C?FPGETOPN
      00FF3546H   PUBLIC    CODE     ---       ?C?FPGETOPN2
      00FF3583H   PUBLIC    CODE     ---       ?C?FPNANRESULT
      00FF358BH   PUBLIC    CODE     ---       ?C?FPOVERFLOW
      00FF355FH   PUBLIC    CODE     ---       ?C?FPRESULT
      00FF3575H   PUBLIC    CODE     ---       ?C?FPRESULT2
      00FF3588H   PUBLIC    CODE     ---       ?C?FPUNDERFLOW

      ---         MODULE    ---      ---       ?C?FPADD
      00FF359DH   PUBLIC    CODE     ---       ?C?FPADD
      00FF359AH   PUBLIC    CODE     ---       ?C?FPSUB

L251 LINKER/LOCATER V4.66.93.0                                                        11/01/2025  17:49:51  PAGE 153


      ---         MODULE    ---      ---       ?C?FPMUL
      00FF3655H   PUBLIC    CODE     ---       ?C?FPMUL

      ---         MODULE    ---      ---       ?C?FPDIV
      00FF36F5H   PUBLIC    CODE     ---       ?C?FPDIV

      ---         MODULE    ---      ---       ?C?FPCMP
      00FF3778H   PUBLIC    CODE     ---       ?C?FPCMP
      00FF3776H   PUBLIC    CODE     ---       ?C?FPCMP3

      ---         MODULE    ---      ---       ?C?FPNEG
      00FF37BCH   PUBLIC    CODE     ---       ?C?FPNEG

      ---         MODULE    ---      ---       ?C?FCAST
      00FF37D4H   PUBLIC    CODE     NEAR LAB  ?C?FCASTC
      00FF37CFH   PUBLIC    CODE     NEAR LAB  ?C?FCASTI
      00FF37CAH   PUBLIC    CODE     NEAR LAB  ?C?FCASTL

      ---         MODULE    ---      ---       ?C?CASTF
      00FF3807H   PUBLIC    CODE     NEAR LAB  ?C?CASTF

      ---         MODULE    ---      ---       ?C?INITHDATA
      00FFBEA7H   PUBLIC    CODE     ---       ?C?INITHDATA

      ---         MODULE    ---      ---       ?C?SIDIV
      00FF3844H   PUBLIC    CODE     ---       ?C?SIDIV

      ---         MODULE    ---      ---       ?C?LMUL
      00FF3876H   PUBLIC    CODE     ---       ?C?LMUL

      ---         MODULE    ---      ---       ?C?LIMUL
      00FF3887H   PUBLIC    CODE     ---       ?C?LIMUL

      ---         MODULE    ---      ---       ?C?ULDIV
      00FF3892H   PUBLIC    CODE     NEAR LAB  ?C?ULDIV
      00FF3890H   PUBLIC    CODE     NEAR LAB  ?C?ULIDIV

      ---         MODULE    ---      ---       ?C?SLDIV
      00FF38E3H   PUBLIC    CODE     NEAR LAB  ?C?SLDIV

      ---         MODULE    ---      ---       ?C?BMOVEPP
      00FF3919H   PUBLIC    CODE     ---       ?C?BMOVEPP
      00FF3917H   PUBLIC    CODE     ---       ?C?BMOVEPP8

      ---         MODULE    ---      ---       STRNCMP

      ---         MODULE    ---      ---       STRNCPY

      ---         MODULE    ---      ---       STRLEN

      ---         MODULE    ---      ---       STRCHR

      ---         MODULE    ---      ---       memcpy
      00FFC7BCH   PUBLIC    CODE     ---       memcpy?_

      ---         MODULE    ---      ---       memset

      ---         MODULE    ---      ---       ?C?INITHDATA_END
      00FFDF63H   PUBLIC    HCONST   WORD      ?C?INITHDATA_END

Program Size: data=8.1 edata+hdata=1792 xdata=6222 const=10070 code=51482
L251 RUN COMPLETE.  0 WARNING(S),  0 ERROR(S)
