L251 LINKER/LOCATER V4.66.93.0                                                          09/26/2025  18:18:13  PAGE 1


L251 LINKER/LOCATER V4.66.93.0, INVOKED BY:
D:\KEIL\C251\BIN\L251.EXE .\out_file\ai8051u_isr.obj, .\out_file\zf_common_clock.obj, .\out_file\zf_common_debug.obj, .\
>> out_file\zf_common_fifo.obj, .\out_file\zf_common_font.obj, .\out_file\zf_common_function.obj, .\out_file\zf_common_t
>> ypedef.obj, .\out_file\zf_common_interrupt.obj, .\out_file\START251.obj, .\out_file\zf_driver_adc.obj, .\out_file\zf_
>> driver_delay.obj, .\out_file\zf_driver_eeprom.obj, .\out_file\zf_driver_encoder.obj, .\out_file\zf_driver_exti.obj, .
>> \out_file\zf_driver_gpio.obj, .\out_file\zf_driver_pit.obj, .\out_file\zf_driver_pwm.obj, .\out_file\zf_driver_soft_i
>> ic.obj, .\out_file\zf_driver_soft_spi.obj, .\out_file\zf_driver_spi.obj, .\out_file\zf_driver_timer.obj, .\out_file\z
>> f_driver_uart.obj, .\out_file\zf_device_config.obj, .\out_file\zf_device_type.obj, .\out_file\zf_device_tft180.obj, .
>> \out_file\zf_device_ips114.obj, .\out_file\zf_device_ips200.obj, .\out_file\zf_device_dl1a.obj, .\out_file\zf_device_
>> ble6a20.obj, .\out_file\zf_device_wireless_uart.obj, .\out_file\zf_device_icm20602.obj, .\out_file\zf_device_imu660ra
>> .obj, .\out_file\zf_device_imu660rb.obj, .\out_file\zf_device_imu963ra.obj, .\out_file\zf_device_gps_tau1201.obj, .\o
>> ut_file\zf_device_tsl1401.obj, .\out_file\seekfree_assistant.obj, .\out_file\seekfree_assistant_interface.obj, .\out_
>> file\isr.obj, .\out_file\main.obj, .\out_file\ADC_Get.obj, .\out_file\control.obj, .\out_file\eeprom.obj, .\out_file\
>> function.obj, .\out_file\Key.obj, .\out_file\menu.obj, .\out_file\menu_font.obj, .\out_file\Device_Test.obj, .\out_fi
>> le\oled.obj, .\out_file\Strategy.obj TO .\out_file\SEEKFREE PRINT (.\out_file\SEEKFREE.map) CASE DISABLEWARNING (57, 
>> 16) REMOVEUNUSED CLASSES (EDATA (0X0-0X7FF), HDATA (0X0-0X7FF))


CPU MODE:     251 SOURCE MODE
INTR FRAME:   4 BYTES SAVED ON INTERRUPT
MEMORY MODEL: LARGE WITH DOUBLE PRECISION FLOATING POINT ARITHMETIC


INPUT MODULES INCLUDED:
  .\out_file\ai8051u_isr.obj (ai8051u_isr)
         COMMENT TYPE 0: A251 V4.69.13.0
  .\out_file\zf_common_clock.obj (zf_common_clock)
         COMMENT TYPE 0: C251 V5.60.0
  .\out_file\zf_common_debug.obj (zf_common_debug)
         COMMENT TYPE 0: C251 V5.60.0
  .\out_file\zf_common_fifo.obj (zf_common_fifo)
         COMMENT TYPE 0: C251 V5.60.0
  .\out_file\zf_common_font.obj (zf_common_font)
         COMMENT TYPE 0: C251 V5.60.0
  .\out_file\zf_common_function.obj (zf_common_function)
         COMMENT TYPE 0: C251 V5.60.0
  .\out_file\zf_common_typedef.obj (zf_common_typedef)
         COMMENT TYPE 0: C251 V5.60.0
  .\out_file\zf_common_interrupt.obj (zf_common_interrupt)
         COMMENT TYPE 0: C251 V5.60.0
  .\out_file\START251.obj (?C_START)
         COMMENT TYPE 0: A251 V4.69.13.0
  .\out_file\zf_driver_adc.obj (zf_driver_adc)
         COMMENT TYPE 0: C251 V5.60.0
  .\out_file\zf_driver_delay.obj (zf_driver_delay)
         COMMENT TYPE 0: C251 V5.60.0
  .\out_file\zf_driver_eeprom.obj (zf_driver_eeprom)
         COMMENT TYPE 0: C251 V5.60.0
  .\out_file\zf_driver_encoder.obj (zf_driver_encoder)
         COMMENT TYPE 0: C251 V5.60.0
  .\out_file\zf_driver_exti.obj (zf_driver_exti)
         COMMENT TYPE 0: C251 V5.60.0
  .\out_file\zf_driver_gpio.obj (zf_driver_gpio)
         COMMENT TYPE 0: C251 V5.60.0
  .\out_file\zf_driver_pit.obj (zf_driver_pit)
         COMMENT TYPE 0: C251 V5.60.0
  .\out_file\zf_driver_pwm.obj (zf_driver_pwm)
         COMMENT TYPE 0: C251 V5.60.0
  .\out_file\zf_driver_soft_iic.obj (zf_driver_soft_iic)
         COMMENT TYPE 0: C251 V5.60.0
  .\out_file\zf_driver_soft_spi.obj (zf_driver_soft_spi)
         COMMENT TYPE 0: C251 V5.60.0
  .\out_file\zf_driver_spi.obj (zf_driver_spi)
         COMMENT TYPE 0: C251 V5.60.0
  .\out_file\zf_driver_timer.obj (zf_driver_timer)
         COMMENT TYPE 0: C251 V5.60.0
L251 LINKER/LOCATER V4.66.93.0                                                        09/26/2025  18:18:13  PAGE 2


  .\out_file\zf_driver_uart.obj (zf_driver_uart)
         COMMENT TYPE 0: C251 V5.60.0
  .\out_file\zf_device_config.obj (zf_device_config)
         COMMENT TYPE 0: C251 V5.60.0
  .\out_file\zf_device_type.obj (zf_device_type)
         COMMENT TYPE 0: C251 V5.60.0
  .\out_file\zf_device_tft180.obj (zf_device_tft180)
         COMMENT TYPE 0: C251 V5.60.0
  .\out_file\zf_device_ips114.obj (zf_device_ips114)
         COMMENT TYPE 0: C251 V5.60.0
  .\out_file\zf_device_ips200.obj (zf_device_ips200)
         COMMENT TYPE 0: C251 V5.60.0
  .\out_file\zf_device_dl1a.obj (zf_device_dl1a)
         COMMENT TYPE 0: C251 V5.60.0
  .\out_file\zf_device_ble6a20.obj (zf_device_ble6a20)
         COMMENT TYPE 0: C251 V5.60.0
  .\out_file\zf_device_wireless_uart.obj (zf_device_wireless_uart)
         COMMENT TYPE 0: C251 V5.60.0
  .\out_file\zf_device_icm20602.obj (zf_device_icm20602)
         COMMENT TYPE 0: C251 V5.60.0
  .\out_file\zf_device_imu660ra.obj (zf_device_imu660ra)
         COMMENT TYPE 0: C251 V5.60.0
  .\out_file\zf_device_imu660rb.obj (zf_device_imu660rb)
         COMMENT TYPE 0: C251 V5.60.0
  .\out_file\zf_device_imu963ra.obj (zf_device_imu963ra)
         COMMENT TYPE 0: C251 V5.60.0
  .\out_file\zf_device_gps_tau1201.obj (zf_device_gps_tau1201)
         COMMENT TYPE 0: C251 V5.60.0
  .\out_file\zf_device_tsl1401.obj (zf_device_tsl1401)
         COMMENT TYPE 0: C251 V5.60.0
  .\out_file\seekfree_assistant.obj (seekfree_assistant)
         COMMENT TYPE 0: C251 V5.60.0
  .\out_file\seekfree_assistant_interface.obj (seekfree_assistant_interface)
         COMMENT TYPE 0: C251 V5.60.0
  .\out_file\isr.obj (isr)
         COMMENT TYPE 0: C251 V5.60.0
  .\out_file\main.obj (main)
         COMMENT TYPE 0: C251 V5.60.0
  .\out_file\ADC_Get.obj (ADC_Get)
         COMMENT TYPE 0: C251 V5.60.0
  .\out_file\control.obj (control)
         COMMENT TYPE 0: C251 V5.60.0
  .\out_file\eeprom.obj (eeprom)
         COMMENT TYPE 0: C251 V5.60.0
  .\out_file\function.obj (function)
         COMMENT TYPE 0: C251 V5.60.0
  .\out_file\Key.obj (Key)
         COMMENT TYPE 0: C251 V5.60.0
  .\out_file\menu.obj (menu)
         COMMENT TYPE 0: C251 V5.60.0
  .\out_file\menu_font.obj (menu_font)
         COMMENT TYPE 0: C251 V5.60.0
  .\out_file\Device_Test.obj (Device_Test)
         COMMENT TYPE 0: C251 V5.60.0
  .\out_file\oled.obj (oled)
         COMMENT TYPE 0: C251 V5.60.0
  .\out_file\Strategy.obj (Strategy)
         COMMENT TYPE 0: C251 V5.60.0
  D:\KEIL\C251\LIB\C2SDPL.LIB (?C?DPADD)
         COMMENT TYPE 0: A251 V4.69.6.0
  D:\KEIL\C251\LIB\C2SDPL.LIB (?C?DPMUL)
         COMMENT TYPE 0: A251 V4.69.6.0
  D:\KEIL\C251\LIB\C2SDPL.LIB (?C?DPDIV)
         COMMENT TYPE 0: A251 V4.69.6.0
  D:\KEIL\C251\LIB\C2SDPL.LIB (?C?DPCMP)
L251 LINKER/LOCATER V4.66.93.0                                                        09/26/2025  18:18:13  PAGE 3


         COMMENT TYPE 0: A251 V4.69.6.0
  D:\KEIL\C251\LIB\C2SDPL.LIB (?C?DPNEG)
         COMMENT TYPE 0: A251 V4.69.6.0
  D:\KEIL\C251\LIB\C2SDPL.LIB (?C?DCAST)
         COMMENT TYPE 0: A251 V4.69.6.0
  D:\KEIL\C251\LIB\C2SDPL.LIB (?C?CASTD)
         COMMENT TYPE 0: A251 V4.69.6.0
  D:\KEIL\C251\LIB\C2SDPL.LIB (?C?DCASTF)
         COMMENT TYPE 0: A251 V4.69.6.0
  D:\KEIL\C251\LIB\C2SDPL.LIB (?C?FCASTD)
         COMMENT TYPE 0: A251 V4.69.6.0
  D:\KEIL\C251\LIB\C2SDPL.LIB (PRINTF)
         COMMENT TYPE 0: A251 V4.69.6.0
  D:\KEIL\C251\LIB\C2SDPL.LIB (SPRINTF)
         COMMENT TYPE 0: A251 V4.69.6.0
  D:\KEIL\C251\LIB\C2SDPL.LIB (SQRT?_)
         COMMENT TYPE 0: A251 V4.69.6.0
  D:\KEIL\C251\LIB\C2SDPL.LIB (pow)
         COMMENT TYPE 0: C251 V5.58.7
  D:\KEIL\C251\LIB\C2SDPL.LIB (SIN?_)
         COMMENT TYPE 0: A251 V4.69.6.0
  D:\KEIL\C251\LIB\C2SDPL.LIB (ATAN?_)
         COMMENT TYPE 0: A251 V4.69.6.0
  D:\KEIL\C251\LIB\C2SDPL.LIB (ASIN?_)
         COMMENT TYPE 0: A251 V4.69.6.0
  D:\KEIL\C251\LIB\C2SDPL.LIB (?C?DPGETOPN)
         COMMENT TYPE 0: A251 V4.69.6.0
  D:\KEIL\C251\LIB\C2SDPL.LIB (_CHKDOUBLE_?_)
         COMMENT TYPE 0: A251 V4.69.6.0
  D:\KEIL\C251\LIB\C2SDPL.LIB (?C?PRNFMT)
         COMMENT TYPE 0: A251 V4.69.6.0
  D:\KEIL\C251\LIB\C2SDPL.LIB (?C?DPSERIES)
         COMMENT TYPE 0: A251 V4.69.6.0
  D:\KEIL\C251\LIB\C2SDPL.LIB (EXP?_)
         COMMENT TYPE 0: A251 V4.69.6.0
  D:\KEIL\C251\LIB\C2SDPL.LIB (LOG?_)
         COMMENT TYPE 0: A251 V4.69.6.0
  D:\KEIL\C251\LIB\C2SDPL.LIB (?C?DPCONVERT)
         COMMENT TYPE 0: A251 V4.69.6.0
  D:\KEIL\C251\LIB\C2SDPL.LIB (?C?DTNPWR)
         COMMENT TYPE 0: A251 V4.69.6.0
  D:\KEIL\C251\LIB\C2SFPL.LIB (?C?FPGETOPN)
         COMMENT TYPE 0: A251 V4.69.6.0
  D:\KEIL\C251\LIB\C2SFPL.LIB (?C?FPADD)
         COMMENT TYPE 0: A251 V4.69.6.0
  D:\KEIL\C251\LIB\C2SFPL.LIB (?C?FPMUL)
         COMMENT TYPE 0: A251 V4.69.6.0
  D:\KEIL\C251\LIB\C2SFPL.LIB (?C?FPDIV)
         COMMENT TYPE 0: A251 V4.69.6.0
  D:\KEIL\C251\LIB\C2SFPL.LIB (?C?FPCMP)
         COMMENT TYPE 0: A251 V4.69.6.0
  D:\KEIL\C251\LIB\C2SFPL.LIB (?C?FPNEG)
         COMMENT TYPE 0: A251 V4.69.6.0
  D:\KEIL\C251\LIB\C2SFPL.LIB (?C?FCAST)
         COMMENT TYPE 0: A251 V4.69.6.0
  D:\KEIL\C251\LIB\C2SFPL.LIB (?C?CASTF)
         COMMENT TYPE 0: A251 V4.69.6.0
  D:\KEIL\C251\LIB\C2SL.LIB (?C?INITHDATA)
         COMMENT TYPE 0: A251 V4.69.6.0
  D:\KEIL\C251\LIB\C2SL.LIB (?C?SIDIV)
         COMMENT TYPE 0: A251 V4.69.6.0
  D:\KEIL\C251\LIB\C2SL.LIB (?C?LMUL)
         COMMENT TYPE 0: A251 V4.69.6.0
  D:\KEIL\C251\LIB\C2SL.LIB (?C?LIMUL)
         COMMENT TYPE 0: A251 V4.69.6.0
L251 LINKER/LOCATER V4.66.93.0                                                        09/26/2025  18:18:13  PAGE 4


  D:\KEIL\C251\LIB\C2SL.LIB (?C?ULDIV)
         COMMENT TYPE 0: A251 V4.69.6.0
  D:\KEIL\C251\LIB\C2SL.LIB (?C?SLDIV)
         COMMENT TYPE 0: A251 V4.69.6.0
  D:\KEIL\C251\LIB\C2SL.LIB (?C?BMOVEPP)
         COMMENT TYPE 0: A251 V4.69.6.0
  D:\KEIL\C251\LIB\C2SL.LIB (STRNCMP)
         COMMENT TYPE 0: C251 V5.58.7
  D:\KEIL\C251\LIB\C2SL.LIB (STRNCPY)
         COMMENT TYPE 0: C251 V5.58.7
  D:\KEIL\C251\LIB\C2SL.LIB (STRLEN)
         COMMENT TYPE 0: C251 V5.58.7
  D:\KEIL\C251\LIB\C2SL.LIB (STRCHR)
         COMMENT TYPE 0: C251 V5.58.7
  D:\KEIL\C251\LIB\C2SL.LIB (memcpy)
         COMMENT TYPE 0: C251 V5.58.7
  D:\KEIL\C251\LIB\C2SL.LIB (memset)
         COMMENT TYPE 0: C251 V5.58.7
  D:\KEIL\C251\LIB\C2SL.LIB (?C?INITHDATA_END)
         COMMENT TYPE 0: A251 V4.69.6.0


ACTIVE MEMORY CLASSES OF MODULE:  .\out_file\SEEKFREE (ai8051u_isr)

BASE        START       END         USED      MEMORY CLASS
==========================================================
000000H     000000H     0007FFH     000700H   EDATA
000000H     000000H     0007FFH               HDATA
FF0000H     FF0000H     FFFFFFH     00AB0CH   CODE
010000H     010000H     01FFFFH     000EEBH   XDATA
000000H     FF0000H     FFFFFFH     001ACFH   HCONST
000020H.0   000020H.0   00002FH.7   000000H.3 BIT
FF0000H     FF0000H     FFFFFFH     000004H   CONST
000000H     000000H     00007FH     000008H   DATA


MEMORY MAP OF MODULE:  .\out_file\SEEKFREE (ai8051u_isr)


START     STOP      LENGTH    ALIGN  RELOC    MEMORY CLASS   SEGMENT NAME
=========================================================================
000000H   000007H   000008H   ---    AT..     DATA           "REG BANK 0"
000008H.0 00001FH.7 000018H.0 ---    ---      **GAP**
000020H.0 000020H.1 000000H.2 BIT    UNIT     BIT            _BIT_GROUP_
000020H.2 000020H.2 000000H.1 BIT    UNIT     BIT            ?BI?ADC_GET
000020H.3 000020H   000000H.5 ---    ---      **GAP**
000021H   000720H   000700H   BYTE   UNIT     EDATA          ?STACK
000721H   00FFFFH   00F8DFH   ---    ---      **GAP**
010000H   01055DH   00055EH   BYTE   INSEG    XDATA          ?XD?MENU_FONT
01055EH   010763H   000206H   BYTE   UNIT     XDATA          _XDATA_GROUP_
010764H   010965H   000202H   BYTE   INSEG    XDATA          ?XD?ZF_DEVICE_TSL1401
010966H   010B35H   0001D0H   BYTE   INSEG    XDATA          ?XD?ZF_DEVICE_GPS_TAU1201
010B36H   010C72H   00013DH   BYTE   INSEG    XDATA          ?XD?SEEKFREE_ASSISTANT
010C73H   010CCBH   000059H   BYTE   INSEG    XDATA          ?XD?ZF_COMMON_DEBUG
010CCCH   010D22H   000057H   BYTE   INSEG    XDATA          ?XD?ZF_DEVICE_BLE6A20
010D23H   010D79H   000057H   BYTE   INSEG    XDATA          ?XD?ZF_DEVICE_WIRELESS_UART
010D7AH   010DB7H   00003EH   BYTE   INSEG    XDATA          ?XD?ADC_GET
010DB8H   010DE7H   000030H   BYTE   INSEG    XDATA          ?XD?FUNCTION
010DE8H   010E05H   00001EH   BYTE   INSEG    XDATA          ?XD?ZF_COMMON_TYPEDEF
010E06H   010E23H   00001EH   BYTE   INSEG    XDATA          ?XD?ZF_DEVICE_IMU963RA
010E24H   010E37H   000014H   BYTE   INSEG    XDATA          ?XD?ZF_DEVICE_ICM20602
010E38H   010E4BH   000014H   BYTE   INSEG    XDATA          ?XD?ZF_DEVICE_IMU660RA
010E4CH   010E58H   00000DH   BYTE   INSEG    XDATA          ?XD?ZF_DEVICE_DL1A
010E59H   010E65H   00000DH   BYTE   INSEG    XDATA          ?XD?MENU
010E66H   010E71H   00000CH   BYTE   INSEG    XDATA          ?XD?ZF_DRIVER_TIMER
L251 LINKER/LOCATER V4.66.93.0                                                        09/26/2025  18:18:13  PAGE 5


010E72H   010E7DH   00000CH   BYTE   INSEG    XDATA          ?XD?ZF_DRIVER_UART
010E7EH   010E89H   00000CH   BYTE   INSEG    XDATA          ?XD?ZF_DEVICE_IMU660RB
010E8AH   010E93H   00000AH   BYTE   INSEG    XDATA          ?XD?ZF_DEVICE_IPS200
010E94H   010E9DH   00000AH   BYTE   INSEG    XDATA          ?XD?KEY
010E9EH   010EA7H   00000AH   BYTE   INSEG    XDATA          ?XD?STRATEGY
010EA8H   010EAFH   000008H   BYTE   UNIT     XDATA          ?XD?SOFT_IIC_DELAY?ZF_DRIVER_SOFT_IIC
010EB0H   010EB7H   000008H   BYTE   INSEG    XDATA          ?XD?ZF_DEVICE_TYPE
010EB8H   010EBFH   000008H   BYTE   INSEG    XDATA          ?XD?ZF_DEVICE_TFT180
010EC0H   010EC7H   000008H   BYTE   INSEG    XDATA          ?XD?ZF_DEVICE_IPS114
010EC8H   010ECEH   000007H   BYTE   INSEG    XDATA          ?XD?MAIN
010ECFH   010ED4H   000006H   BYTE   INSEG    XDATA          ?XD?ZF_DRIVER_ENCODER
010ED5H   010ED8H   000004H   BYTE   INSEG    XDATA          ?XD?ZF_COMMON_CLOCK
010ED9H   010EDCH   000004H   BYTE   INSEG    XDATA          ?XD?ZF_DRIVER_DELAY
010EDDH   010EE0H   000004H   BYTE   INSEG    XDATA          ?XD?SEEKFREE_ASSISTANT_INTERFACE
010EE1H   010EE3H   000003H   BYTE   UNIT     XDATA          ?XD?SOFT_IIC_READ_DATA?ZF_DRIVER_SOFT_IIC
010EE4H   010EE5H   000002H   BYTE   UNIT     XDATA          ?XD?SOFT_IIC_SEND_DATA?ZF_DRIVER_SOFT_IIC
010EE6H   010EE6H   000001H   BYTE   INSEG    XDATA          ?XD?ZF_DRIVER_ADC
010EE7H   010EE7H   000001H   BYTE   UNIT     XDATA          ?XD?SOFT_IIC_SEND_ACK?ZF_DRIVER_SOFT_IIC
010EE8H   010EE8H   000001H   BYTE   UNIT     XDATA          ?XD?SOFT_IIC_WAIT_ACK?ZF_DRIVER_SOFT_IIC
010EE9H   010EE9H   000001H   BYTE   INSEG    XDATA          ?XD?ISR
010EEAH   010EEAH   000001H   BYTE   INSEG    XDATA          ?XD?CONTROL
010EEBH   FEFFFFH   FDF115H   ---    ---      **GAP**
FF0000H   FF0002H   000003H   ---    OFFS..   CODE           ?CO?START251?4
FF0003H   FF0009H   000007H   BYTE   INSEG    CODE           ?PR?IAP_INIT?ZF_DRIVER_EEPROM
FF000AH   FF000AH   000001H   ---    ---      **GAP**
FF000BH   FF000DH   000003H   ---    OFFS..   CODE           ?PR?IV?1
FF000EH   FF001AH   00000DH   BYTE   INSEG    CODE           ?PR?TFT180_SET_COLOR?ZF_DEVICE_TFT180
FF001BH   FF001DH   000003H   ---    OFFS..   CODE           ?PR?IV?3
FF001EH   FF0020H   000003H   BYTE   INSEG    CODE           ?PR?INTERRUPT_GLOBAL_ENABLE?ZF_COMMON_INTERRUPT
FF0021H   FF0022H   000002H   BYTE   UNIT     HCONST         ?HC?MAIN
FF0023H   FF0025H   000003H   ---    OFFS..   CODE           ?PR?IV?4
FF0026H   FF0042H   00001DH   BYTE   INSEG    CODE           ?PR?SERVO_INIT?FUNCTION
FF0043H   FF0045H   000003H   ---    OFFS..   CODE           ?PR?IV?8
FF0046H   FF0061H   00001CH   BYTE   INSEG    CODE           ?PR?IAP_SET_TPS?ZF_DRIVER_EEPROM
FF0062H   FF0062H   000001H   ---    ---      **GAP**
FF0063H   FF0065H   000003H   ---    OFFS..   CODE           ?PR?IV?12
FF0066H   FF008AH   000025H   BYTE   INSEG    CODE           ?PR?MAIN?MAIN
FF008BH   FF008DH   000003H   ---    OFFS..   CODE           ?PR?IV?17
FF008EH   FF0091H   000004H   BYTE   UNIT     CONST          ?CO?PRINTF
FF0092H   FF0092H   000001H   ---    ---      **GAP**
FF0093H   FF0095H   000003H   ---    OFFS..   CODE           ?PR?IV?18
FF0096H   FF009AH   000005H   ---    ---      **GAP**
FF009BH   FF009DH   000003H   ---    OFFS..   CODE           ?PR?IV?19
FF009EH   FF00A2H   000005H   ---    ---      **GAP**
FF00A3H   FF00A5H   000003H   ---    OFFS..   CODE           ?PR?IV?20
FF00A6H   FF00BFH   00001AH   BYTE   INSEG    CODE           ?PR?HANDLE_KEY3?MENU
FF00C0H   FF00C2H   000003H   ---    ---      **GAP**
FF00C3H   FF00C5H   000003H   ---    OFFS..   CODE           ?PR?IV?24
FF00C6H   FF0198H   0000D3H   BYTE   INSEG    CODE           ?PR?GPIO_GET_LEVEL?ZF_DRIVER_GPIO
FF0199H   FF019AH   000002H   ---    ---      **GAP**
FF019BH   FF019DH   000003H   ---    OFFS..   CODE           ?CO?ai8051u_isr?1
FF019EH   FF01A8H   00000BH   BYTE   INSEG    CODE           ?PR?EEPROM_TRIG?ZF_DRIVER_EEPROM
FF01A9H   FF01AAH   000002H   ---    ---      **GAP**
FF01ABH   FF01ADH   000003H   ---    OFFS..   CODE           ?CO?ai8051u_isr?2
FF01AEH   FF01B7H   00000AH   BYTE   INSEG    CODE           ?PR?KEY3_HANDLE1?MENU
FF01B8H   FF01BAH   000003H   ---    ---      **GAP**
FF01BBH   FF01BDH   000003H   ---    OFFS..   CODE           ?CO?ai8051u_isr?3
FF01BEH   FF01C4H   000007H   BYTE   INSEG    CODE           ?PR?PIT_HANDLER0?MAIN
FF01C5H   FF01CAH   000006H   BYTE   INSEG    CODE           ?PR?SPI_WRITE_8BIT?ZF_DRIVER_SPI
FF01CBH   FF01CDH   000003H   ---    OFFS..   CODE           ?CO?ai8051u_isr?4
FF01CEH   FF021AH   00004DH   BYTE   INSEG    CODE           ?PR?FIFO_HEAD_OFFSET?ZF_COMMON_FIFO
FF021BH   FF021DH   000003H   ---    OFFS..   CODE           ?CO?ai8051u_isr?5
FF021EH   FF221DH   002000H   BYTE   UNIT     CODE           ?CO?ZF_DEVICE_CONFIG
FF221EH   FF393FH   001722H   BYTE   UNIT     CODE           ?C?LIB_CODE
FF3940H   FF4617H   000CD8H   BYTE   UNIT     CODE           ?CO?OLED
L251 LINKER/LOCATER V4.66.93.0                                                        09/26/2025  18:18:13  PAGE 6


FF4618H   FF4E34H   00081DH   BYTE   INSEG    CODE           ?PR?ZF_SPRINTF?ZF_COMMON_FUNCTION
FF4E35H   FF54D9H   0006A5H   BYTE   INSEG    CODE           ?PR?SHOW_PARARM?FUNCTION
FF54DAH   FF5AC9H   0005F0H   BYTE   UNIT     CODE           ?CO?ZF_COMMON_FONT
FF5ACAH   FF5FD9H   000510H   BYTE   INSEG    CODE           ?PR?PWM_INIT?ZF_DRIVER_PWM
FF5FDAH   FF647EH   0004A5H   BYTE   INSEG    CODE           ?PR?SPI_INIT?ZF_DRIVER_SPI
FF647FH   FF687BH   0003FDH   BYTE   INSEG    CODE           ?PR?FIFO_WRITE_BUFFER?ZF_COMMON_FIFO
FF687CH   FF6C48H   0003CDH   BYTE   INSEG    CODE           ?PR?GPIO_SET_DIR?ZF_DRIVER_GPIO
FF6C49H   FF6F24H   0002DCH   BYTE   INSEG    CODE           ?PR?TFT180_INIT?ZF_DEVICE_TFT180
FF6F25H   FF71DDH   0002B9H   BYTE   INSEG    CODE           ?PR?GPIO_SET_LEVEL_SPEED?ZF_DRIVER_GPIO
FF71DEH   FF7412H   000235H   BYTE   INSEG    CODE           ?PR?UART_INIT?ZF_DRIVER_UART
FF7413H   FF7638H   000226H   BYTE   INSEG    CODE           ?PR?GPIO_SET_MODE?ZF_DRIVER_GPIO
FF7639H   FF7813H   0001DBH   BYTE   INSEG    CODE           ?PR?PIT_INIT?ZF_DRIVER_PIT
FF7814H   FF79D7H   0001C4H   BYTE   INSEG    CODE           ?PR?TFT180_SHOW_FLOAT?ZF_DEVICE_TFT180
FF79D8H   FF7B79H   0001A2H   BYTE   INSEG    CODE           ?PR?HANDLE_KEY2?MENU
FF7B7AH   FF7D09H   000190H   BYTE   INSEG    CODE           ?PR?PWM_SET_DUTY?ZF_DRIVER_PWM
FF7D0AH   FF7E96H   00018DH   BYTE   INSEG    CODE           ?PR?TURN_MODE_INIT?FUNCTION
FF7E97H   FF8023H   00018DH   BYTE   INSEG    CODE           ?PR?TURN_MODE?KEY
FF8024H   FF8196H   000173H   BYTE   INSEG    CODE           ?PR?GPIO_SET_LEVEL?ZF_DRIVER_GPIO
FF8197H   FF82DDH   000147H   BYTE   INSEG    CODE           ?PR?UART_DMA_INIT?ZF_DRIVER_UART
FF82DEH   FF8423H   000146H   BYTE   INSEG    CODE           ?PR?GPIO_SET_IMPEDANCE?ZF_DRIVER_GPIO
FF8424H   FF8558H   000135H   BYTE   INSEG    CODE           ?PR?MENU_DISPLAY_CONTENT?MENU
FF8559H   FF868BH   000133H   BYTE   INSEG    CODE           ?PR?TFT180_SHOW_INT16?ZF_DEVICE_TFT180
FF868CH   FF87ADH   000122H   BYTE   INSEG    CODE           ?PR?TFT180_SET_REGION?ZF_DEVICE_TFT180
FF87AEH   FF88C1H   000114H   BYTE   INSEG    CODE           ?PR?KEY_SCANER?KEY
FF88C2H   FF89C2H   000101H   BYTE   INSEG    CODE           ?PR?ADC_SAMPLEANDFILTER?ADC_GET
FF89C3H   FF8AB2H   0000F0H   BYTE   INSEG    CODE           ?PR?PID_UPDATE?CONTROL
FF8AB3H   FF8B9AH   0000E8H   BYTE   INSEG    CODE           ?PR?MOTOR_UPDATE?CONTROL
FF8B9BH   FF8C7CH   0000E2H   BYTE   INSEG    CODE           ?PR?UART_WRITE_BUFFER?ZF_DRIVER_UART
FF8C7DH   FF8D5CH   0000E0H   BYTE   INSEG    CODE           ?PR?TFT180_SHOW_CHAR?ZF_DEVICE_TFT180
FF8D5DH   FF8E3AH   0000DEH   BYTE   INSEG    CODE           ?PR?CLOCK_INIT?ZF_COMMON_CLOCK
FF8E3BH   FF8F16H   0000DCH   BYTE   INSEG    CODE           ?PR?HANDLE_KEY1?MENU
FF8F17H   FF8FE6H   0000D0H   BYTE   INSEG    CODE           ?PR?MENU_SETCHILDREN?MENU
FF8FE7H   FF90ADH   0000C7H   BYTE   INSEG    CODE           ?PR?HANDLE_KEY4?MENU
FF90AEH   FF9172H   0000C5H   BYTE   INSEG    CODE           ?PR?_M?MAIN
FF9173H   FF9233H   0000C1H   BYTE   INSEG    CODE           ?PR?KEY3_HANDLE2?MENU
FF9234H   FF92EFH   0000BCH   BYTE   INSEG    CODE           ?PR?GPIO_INIT?ZF_DRIVER_GPIO
FF92F0H   FF93ABH   0000BCH   BYTE   INSEG    CODE           ?PR?NORMAL_PID?FUNCTION
FF93ACH   FF945FH   0000B4H   BYTE   INSEG    CODE           ?PR?SOFT_IIC_READ_DATA?ZF_DRIVER_SOFT_IIC
FF9460H   FF9512H   0000B3H   BYTE   INSEG    CODE           ?PR?FAST_SQRT?FUNCTION
FF9513H   FF95BBH   0000A9H   BYTE   INSEG    CODE           ?PR?TFT180_SHOW_STRING?ZF_DEVICE_TFT180
FF95BCH   FF9661H   0000A6H   BYTE   INSEG    CODE           ?PR?ADC_FILTER?ADC_GET
FF9662H   FF9706H   0000A5H   BYTE   INSEG    CODE           ?PR?DMA_UART1_IRQHANDLER?ISR
FF9707H   FF979DH   000097H   BYTE   INSEG    CODE           ?PR?DEBUG_INIT?ZF_COMMON_DEBUG
FF979EH   FF9831H   000094H   BYTE   INSEG    CODE           ?PR?NUMBER_CONVERSION_ASCII?ZF_COMMON_FUNCTION
FF9832H   FF98C2H   000091H   BYTE   INSEG    CODE           ?PR?SOFT_IIC_SEND_DATA?ZF_DRIVER_SOFT_IIC
FF98C3H   FF9952H   000090H   BYTE   INSEG    CODE           ?PR?UART_RX_START_BUFF?ZF_DRIVER_UART
FF9953H   FF99DBH   000089H   BYTE   INSEG    CODE           ?PR?DMA_UART2_IRQHANDLER?ISR
FF99DCH   FF9A64H   000089H   BYTE   INSEG    CODE           ?PR?DMA_UART3_IRQHANDLER?ISR
FF9A65H   FF9AEDH   000089H   BYTE   INSEG    CODE           ?PR?DMA_UART4_IRQHANDLER?ISR
FF9AEEH   FF9B76H   000089H   BYTE   INSEG    CODE           ?PR?EEPROM_SAVE_NUM?EEPROM
FF9B77H   FF9BFDH   000087H   BYTE   INSEG    CODE           ?PR?ADC_INIT?ZF_DRIVER_ADC
FF9BFEH   FF9C80H   000083H   BYTE   INSEG    CODE           ?PR?REFESH_ARROW?MENU
FF9C81H   FF9D02H   000082H   BYTE   INSEG    CODE           ?PR?UNIFICATION?FUNCTION
FF9D03H   FF9D83H   000081H   BYTE   INSEG    CODE           ?PR?FIFO_INIT?ZF_COMMON_FIFO
FF9D84H   FF9DFCH   000079H   BYTE   INSEG    CODE           ?PR?SOFT_IIC_WAIT_ACK?ZF_DRIVER_SOFT_IIC
FF9DFDH   FF9E72H   000076H   BYTE   INSEG    CODE           ?PR?MOTOR_INIT?FUNCTION
FF9E73H   FF9EE5H   000073H   BYTE   INSEG    CODE           ?PR?SOFT_IIC_SEND_ACK?ZF_DRIVER_SOFT_IIC
FF9EE6H   FF9F57H   000072H   BYTE   INSEG    CODE           ?PR?PROTECT?FUNCTION
FF9F58H   FF9FC7H   000070H   BYTE   INSEG    CODE           ?PR?SERVO_TURN_PID?CONTROL
FF9FC8H   FFA032H   00006BH   BYTE   INSEG    CODE           ?PR?SYSTEM_DELAY_MS?ZF_DRIVER_DELAY
FFA033H   FFA09BH   000069H   BYTE   INSEG    CODE           ?PR?INIT_ALL?FUNCTION
FFA09CH   FFA103H   000068H   BYTE   INSEG    CODE           ?PR?DEBUG_ASSERT_HANDLER?ZF_COMMON_DEBUG
FFA104H   FFA16AH   000067H   BYTE   INSEG    CODE           ?PR?TFT180_CLEAR?ZF_DEVICE_TFT180
FFA16BH   FFA1CCH   000062H   BYTE   INSEG    CODE           ?PR?SOFT_IIC_STOP?ZF_DRIVER_SOFT_IIC
FFA1CDH   FFA22EH   000062H   BYTE   INSEG    CODE           ?PR?UART_QUERY_BYTE?ZF_DRIVER_UART
L251 LINKER/LOCATER V4.66.93.0                                                        09/26/2025  18:18:13  PAGE 7


FFA22FH   FFA28BH   00005DH   BYTE   INSEG    CODE           ?PR?SYSTEM_DELAY_INIT?ZF_DRIVER_DELAY
FFA28CH   FFA2E8H   00005DH   BYTE   INSEG    CODE           ?PR?PIT_HANDLER1?MAIN
FFA2E9H   FFA309H   000021H   BYTE   UNIT     CODE           ?C_C51STARTUP
FFA30AH   FFA30BH   000002H   BYTE   UNIT     CODE           ?C_C51STARTUP?1
FFA30CH   FFA33CH   000031H   BYTE   UNIT     CODE           ?C_C51STARTUP?2
FFA33DH   FFA33FH   000003H   BYTE   UNIT     CODE           ?C_C51STARTUP?3
FFA340H   FFA396H   000057H   BYTE   INSEG    CODE           ?PR?SOFT_IIC_START?ZF_DRIVER_SOFT_IIC
FFA397H   FFA3ECH   000056H   BYTE   INSEG    CODE           ?PR?EEPROM_READ_NUM?EEPROM
FFA3EDH   FFA442H   000056H   BYTE   INSEG    CODE           ?PR?SERVE_TEST?DEVICE_TEST
FFA443H   FFA48EH   00004CH   BYTE   INSEG    CODE           ?PR?TIMER_FUNCITON_CHECK?ZF_DRIVER_TIMER
FFA48FH   FFA4DAH   00004CH   BYTE   INSEG    CODE           ?PR?UART_FUNCITON_CHECK?ZF_DRIVER_UART
FFA4DBH   FFA525H   00004BH   BYTE   INSEG    CODE           ?PR?TM11_IRQHANDLER?ISR
FFA526H   FFA56EH   000049H   BYTE   INSEG    CODE           ?PR?IAP_READ_BUFF?ZF_DRIVER_EEPROM
FFA56FH   FFA5B7H   000049H   BYTE   INSEG    CODE           ?PR?IAP_WRITE_BUFF?ZF_DRIVER_EEPROM
FFA5B8H   FFA5FFH   000048H   BYTE   INSEG    CODE           ?PR?PRINTF_REVERSE_ORDER?ZF_COMMON_FUNCTION
FFA600H   FFA644H   000045H   BYTE   INSEG    CODE           ?PR?UART_RX_INTERRUPT?ZF_DRIVER_UART
FFA645H   FFA686H   000042H   BYTE   INSEG    CODE           ?PR?SPI_WRITE_DAT?ZF_DRIVER_SPI
FFA687H   FFA6C4H   00003EH   BYTE   INSEG    CODE           ?PR?TM0_IRQHANDLER?ISR
FFA6C5H   FFA702H   00003EH   BYTE   INSEG    CODE           ?PR?TM1_IRQHANDLER?ISR
FFA703H   FFA740H   00003EH   BYTE   INSEG    CODE           ?PR?TM2_IRQHANDLER?ISR
FFA741H   FFA77EH   00003EH   BYTE   INSEG    CODE           ?PR?TM3_IRQHANDLER?ISR
FFA77FH   FFA7BCH   00003EH   BYTE   INSEG    CODE           ?PR?TM4_IRQHANDLER?ISR
FFA7BDH   FFA7F9H   00003DH   BYTE   INSEG    CODE           ?PR?MOTORL_SETSPEED?CONTROL
FFA7FAH   FFA836H   00003DH   BYTE   INSEG    CODE           ?PR?MOTORR_SETSPEED?CONTROL
FFA837H   FFA86FH   000039H   BYTE   INSEG    CODE           ?PR?DEBUG_INTERRUPR_HANDLER?ZF_COMMON_DEBUG
FFA870H   FFA8A8H   000039H   BYTE   INSEG    CODE           ?PR?KEY_NUMBER?KEY
FFA8A9H   FFA8E0H   000038H   BYTE   INSEG    CODE           ?PR?SOFT_IIC_DELAY?ZF_DRIVER_SOFT_IIC
FFA8E1H   FFA913H   000033H   BYTE   INSEG    CODE           ?PR?PWM_TEST?DEVICE_TEST
FFA914H   FFA943H   000030H   BYTE   INSEG    CODE           ?PR?ADC_CONVERT?ZF_DRIVER_ADC
FFA944H   FFA970H   00002DH   BYTE   INSEG    CODE           ?PR?ADC_GETINIT?ADC_GET
FFA971H   FFA99DH   00002DH   BYTE   INSEG    CODE           ?PR?MENU_INIT?MENU
FFA99EH   FFA9C7H   00002AH   BYTE   INSEG    CODE           ?PR?IAP_WRITE_BYTE?ZF_DRIVER_EEPROM
FFA9C8H   FFA9F0H   000029H   BYTE   INSEG    CODE           ?PR?SET_TIME?FUNCTION
FFA9F1H   FFAA18H   000028H   BYTE   INSEG    CODE           ?PR?IAP_ERASE_PAGE?ZF_DRIVER_EEPROM
FFAA19H   FFAA3FH   000027H   BYTE   INSEG    CODE           ?PR?TFT180_SET_DIR?ZF_DEVICE_TFT180
FFAA40H   FFAA65H   000026H   BYTE   INSEG    CODE           ?PR?MENU_HANDLE_KEY?MENU
FFAA66H   FFAA8AH   000025H   BYTE   INSEG    CODE           ?PR?MEMCPY?_?MEMCPY
FFAA8BH   FFAAADH   000023H   BYTE   INSEG    CODE           ?PR?IAP_READ_BYTE?ZF_DRIVER_EEPROM
FFAAAEH   FFAACCH   00001FH   BYTE   INSEG    CODE           ?PR?SPI_WRITE_16BIT?ZF_DRIVER_SPI
FFAACDH   FFAAE2H   000016H   BYTE   INSEG    CODE           ?PR?TFT180_WRITE_INDEX?ZF_DEVICE_TFT180
FFAAE3H   FFAAF6H   000014H   BYTE   INSEG    CODE           ?PR?UART_WRITE_BYTE?ZF_DRIVER_UART
FFAAF7H   FFAB08H   000012H   BYTE   INSEG    CODE           ?PR?CAR_STOP?FUNCTION
FFAB09H   FFAB18H   000010H   BYTE   INSEG    CODE           ?PR?PUTCHAR?ZF_COMMON_DEBUG
FFAB19H   FFAB28H   000010H   BYTE   INSEG    CODE           ?PR?SER_SERVO_DUTY?CONTROL
FFAB29H   FFB521H   0009F9H   BYTE   UNIT     HCONST         ?C_INITHDATA
FFB522H   FFBB21H   000600H   BYTE   UNIT     HCONST         ?HC?EEPROM
FFBB22H   FFBD21H   000200H   BYTE   UNIT     HCONST         ?HC?ZF_DRIVER_EEPROM
FFBD22H   FFBE50H   00012FH   BYTE   UNIT     HCONST         ?HC?ZF_DEVICE_DL1A
FFBE51H   FFBF31H   0000E1H   BYTE   UNIT     HCONST         ?HC?FUNCTION
FFBF32H   FFC001H   0000D0H   BYTE   UNIT     HCONST         ?HC?ZF_DEVICE_IMU963RA
FFC002H   FFC0A8H   0000A7H   BYTE   UNIT     HCONST         ?HC?ZF_DEVICE_IMU660RA
FFC0A9H   FFC14CH   0000A4H   BYTE   UNIT     HCONST         ?HC?SEEKFREE_ASSISTANT
FFC14DH   FFC1EEH   0000A2H   BYTE   UNIT     HCONST         ?HC?ZF_DEVICE_GPS_TAU1201
FFC1EFH   FFC278H   00008AH   BYTE   UNIT     HCONST         ?HC?ZF_DRIVER_PWM
FFC279H   FFC300H   000088H   BYTE   UNIT     HCONST         ?HC?ZF_DEVICE_ICM20602
FFC301H   FFC33FH   00003FH   BYTE   UNIT     HCONST         ?HC?ZF_COMMON_FUNCTION
FFC340H   FFC373H   000034H   BYTE   UNIT     HCONST         ?HC?ZF_DEVICE_WIRELESS_UART
FFC374H   FFC3A6H   000033H   BYTE   UNIT     HCONST         ?HC?ZF_DEVICE_TFT180
FFC3A7H   FFC3D9H   000033H   BYTE   UNIT     HCONST         ?HC?ZF_DEVICE_IPS114
FFC3DAH   FFC40CH   000033H   BYTE   UNIT     HCONST         ?HC?ZF_DEVICE_IPS200
FFC40DH   FFC43BH   00002FH   BYTE   UNIT     HCONST         ?HC?ZF_DRIVER_SOFT_IIC
FFC43CH   FFC46AH   00002FH   BYTE   UNIT     HCONST         ?HC?ZF_DRIVER_SOFT_SPI
FFC46BH   FFC498H   00002EH   BYTE   UNIT     HCONST         ?HC?ZF_DRIVER_ENCODER
FFC499H   FFC4C6H   00002EH   BYTE   UNIT     HCONST         ?HC?ZF_DEVICE_BLE6A20
FFC4C7H   FFC4F1H   00002BH   BYTE   UNIT     HCONST         ?HC?ZF_COMMON_FIFO
L251 LINKER/LOCATER V4.66.93.0                                                        09/26/2025  18:18:13  PAGE 8


FFC4F2H   FFC51CH   00002BH   BYTE   UNIT     HCONST         ?HC?ZF_DRIVER_GPIO
FFC51DH   FFC547H   00002BH   BYTE   UNIT     HCONST         ?HC?ZF_DRIVER_UART
FFC548H   FFC571H   00002AH   BYTE   UNIT     HCONST         ?HC?ZF_DRIVER_ADC
FFC572H   FFC59BH   00002AH   BYTE   UNIT     HCONST         ?HC?ZF_DRIVER_SPI
FFC59CH   FFC5C0H   000025H   BYTE   UNIT     HCONST         ?HC?ZF_COMMON_DEBUG
FFC5C1H   FFC5DBH   00001BH   BYTE   UNIT     HCONST         ?HC?ZF_DEVICE_IMU660RB
FFC5DCH   FFC5F5H   00001AH   BYTE   UNIT     HCONST         ?HC?MENU

* * * * * * * * *   R E M O V E D     S E G M E N T S   * * * * * * * *
   *DEL*:           00003EH   BYTE   INSEG    CODE           ?PR?DEBUG_READ_BUFFER?ZF_COMMON_DEBUG
   *DEL*:           000045H   BYTE   INSEG    CODE           ?PR?DEBUG_SEND_BUFFER?ZF_COMMON_DEBUG
   *DEL*:           000004H   BYTE   UNIT     XDATA          ?XD?DEBUG_SEND_BUFFER?ZF_COMMON_DEBUG
   *DEL*:           000004H   BYTE   UNIT     XDATA          ?XD?DEBUG_READ_BUFFER?ZF_COMMON_DEBUG
   *DEL*:           00043DH   BYTE   INSEG    CODE           ?PR?FIFO_READ_BUFFER?ZF_COMMON_FIFO
   *DEL*:           0000C7H   BYTE   INSEG    CODE           ?PR?FIFO_CLEAR?ZF_COMMON_FIFO
   *DEL*:           00004DH   BYTE   INSEG    CODE           ?PR?FIFO_END_OFFSET?ZF_COMMON_FIFO
   *DEL*:           000033H   BYTE   INSEG    CODE           ?PR?FIFO_USED?ZF_COMMON_FIFO
   *DEL*:           000002H   BYTE   UNIT     XDATA          ?XD?FIFO_CLEAR?ZF_COMMON_FIFO
   *DEL*:           000014H   BYTE   UNIT     XDATA          ?XD?FIFO_READ_BUFFER?ZF_COMMON_FIFO
   *DEL*:           0002D1H   BYTE   INSEG    CODE           ?PR?FUNC_DOUBLE_TO_STR?ZF_COMMON_FUNCTION
   *DEL*:           000245H   BYTE   INSEG    CODE           ?PR?FUNC_STR_TO_DOUBLE?ZF_COMMON_FUNCTION
   *DEL*:           000298H   BYTE   INSEG    CODE           ?PR?FUNC_FLOAT_TO_STR?ZF_COMMON_FUNCTION
   *DEL*:           00019DH   BYTE   INSEG    CODE           ?PR?FUNC_STR_TO_FLOAT?ZF_COMMON_FUNCTION
   *DEL*:           000024H   BYTE   INSEG    CODE           ?PR?FUNC_SOFT_DELAY?ZF_COMMON_FUNCTION
   *DEL*:           0000CCH   BYTE   INSEG    CODE           ?PR?FUNC_UINT_TO_STR?ZF_COMMON_FUNCTION
   *DEL*:           000079H   BYTE   INSEG    CODE           ?PR?FUNC_STR_TO_UINT?ZF_COMMON_FUNCTION
   *DEL*:           0000FAH   BYTE   INSEG    CODE           ?PR?FUNC_HEX_TO_STR?ZF_COMMON_FUNCTION
   *DEL*:           00011BH   BYTE   INSEG    CODE           ?PR?FUNC_STR_TO_HEX?ZF_COMMON_FUNCTION
   *DEL*:           000149H   BYTE   INSEG    CODE           ?PR?FUNC_INT_TO_STR?ZF_COMMON_FUNCTION
   *DEL*:           0000BAH   BYTE   INSEG    CODE           ?PR?FUNC_STR_TO_INT?ZF_COMMON_FUNCTION
   *DEL*:           000019H   BYTE   INSEG    CODE           ?PR?FUNC_GET_GREATEST_COMMON_DIVISOR?ZF_COMMON_FUNCTION
   *DEL*:           000004H   BYTE   UNIT     XDATA          ?XD?FUNC_SOFT_DELAY?ZF_COMMON_FUNCTION
   *DEL*:           000005H   BYTE   UNIT     XDATA          ?XD?FUNC_STR_TO_INT?ZF_COMMON_FUNCTION
   *DEL*:           000019H   BYTE   UNIT     XDATA          ?XD?FUNC_INT_TO_STR?ZF_COMMON_FUNCTION
   *DEL*:           000004H   BYTE   UNIT     XDATA          ?XD?FUNC_STR_TO_UINT?ZF_COMMON_FUNCTION
   *DEL*:           000015H   BYTE   UNIT     XDATA          ?XD?FUNC_UINT_TO_STR?ZF_COMMON_FUNCTION
   *DEL*:           00000DH   BYTE   UNIT     XDATA          ?XD?FUNC_STR_TO_FLOAT?ZF_COMMON_FUNCTION
   *DEL*:           000026H   BYTE   UNIT     XDATA          ?XD?FUNC_FLOAT_TO_STR?ZF_COMMON_FUNCTION
   *DEL*:           000019H   BYTE   UNIT     XDATA          ?XD?FUNC_STR_TO_DOUBLE?ZF_COMMON_FUNCTION
   *DEL*:           000038H   BYTE   UNIT     XDATA          ?XD?FUNC_DOUBLE_TO_STR?ZF_COMMON_FUNCTION
   *DEL*:           00000AH   BYTE   UNIT     XDATA          ?XD?FUNC_STR_TO_HEX?ZF_COMMON_FUNCTION
   *DEL*:           000021H   BYTE   UNIT     XDATA          ?XD?FUNC_HEX_TO_STR?ZF_COMMON_FUNCTION
   *DEL*:           000003H   BYTE   INSEG    CODE           ?PR?INTERRUPT_GLOBAL_DISABLE?ZF_COMMON_INTERRUPT
   *DEL*:           0000BAH   BYTE   INSEG    CODE           ?PR?INTERRUPT_SET_PRIORITY?ZF_COMMON_INTERRUPT
   *DEL*:           00006EH   BYTE   INSEG    CODE           ?PR?ADC_MEAN_FILTER_CONVERT?ZF_DRIVER_ADC
   *DEL*:           000004H   BYTE   UNIT     XDATA          ?XD?ADC_MEAN_FILTER_CONVERT?ZF_DRIVER_ADC
   *DEL*:           00006BH   BYTE   INSEG    CODE           ?PR?SYSTEM_DELAY_US?ZF_DRIVER_DELAY
   *DEL*:           000004H   BYTE   INSEG    CODE           ?PR?IAP_IDLE?ZF_DRIVER_EEPROM
   *DEL*:           0000F8H   BYTE   INSEG    CODE           ?PR?EXTERN_IAP_WRITE_BUFF?ZF_DRIVER_EEPROM
   *DEL*:           00000DH   BYTE   INSEG    CODE           ?PR?IAP_GET_CMD_STATE?ZF_DRIVER_EEPROM
   *DEL*:           000206H   BYTE   UNIT     XDATA          ?XD?EXTERN_IAP_WRITE_BUFF?ZF_DRIVER_EEPROM
   *DEL*:           0000A5H   BYTE   INSEG    CODE           ?PR?ENCODER_GET_COUNT?ZF_DRIVER_ENCODER
   *DEL*:           00010CH   BYTE   INSEG    CODE           ?PR?ENCODER_DIR_INIT?ZF_DRIVER_ENCODER
   *DEL*:           000095H   BYTE   INSEG    CODE           ?PR?ENCODER_CLEAR_COUNT?ZF_DRIVER_ENCODER
   *DEL*:           000002H   BYTE   UNIT     XDATA          ?XD?ENCODER_DIR_INIT?ZF_DRIVER_ENCODER
   *DEL*:           00001BH   BYTE   INSEG    CODE           ?PR?GPIO_TOGGLE_LEVEL?ZF_DRIVER_GPIO
   *DEL*:           00025FH   BYTE   INSEG    CODE           ?PR?PWM_SET_FREQ?ZF_DRIVER_PWM
   *DEL*:           000010H   BYTE   UNIT     XDATA          ?XD?PWM_SET_FREQ?ZF_DRIVER_PWM
   *DEL*:           000052H   BYTE   INSEG    CODE           ?PR?SOFT_IIC_WRITE_8BIT_REGISTER?ZF_DRIVER_SOFT_IIC
   *DEL*:           00010DH   BYTE   INSEG    CODE           ?PR?SOFT_IIC_READ_16BIT_REGISTERS?ZF_DRIVER_SOFT_IIC
   *DEL*:           00006EH   BYTE   INSEG    CODE           ?PR?SOFT_IIC_SCCB_READ_REGISTER?ZF_DRIVER_SOFT_IIC
   *DEL*:           0000A5H   BYTE   INSEG    CODE           ?PR?SOFT_IIC_READ_16BIT_REGISTER?ZF_DRIVER_SOFT_IIC
   *DEL*:           000176H   BYTE   INSEG    CODE           ?PR?SOFT_IIC_TRANSFER_16BIT_ARRAY?ZF_DRIVER_SOFT_IIC
   *DEL*:           0000D0H   BYTE   INSEG    CODE           ?PR?SOFT_IIC_WRITE_16BIT_REGISTERS?ZF_DRIVER_SOFT_IIC
   *DEL*:           000052H   BYTE   INSEG    CODE           ?PR?SOFT_IIC_SCCB_WRITE_REGISTER?ZF_DRIVER_SOFT_IIC
L251 LINKER/LOCATER V4.66.93.0                                                        09/26/2025  18:18:13  PAGE 9


   *DEL*:           00004CH   BYTE   INSEG    CODE           ?PR?SOFT_IIC_READ_8BIT?ZF_DRIVER_SOFT_IIC
   *DEL*:           0000BAH   BYTE   INSEG    CODE           ?PR?SOFT_IIC_READ_8BIT_ARRAY?ZF_DRIVER_SOFT_IIC
   *DEL*:           000082H   BYTE   INSEG    CODE           ?PR?SOFT_IIC_WRITE_16BIT_REGISTER?ZF_DRIVER_SOFT_IIC
   *DEL*:           000043H   BYTE   INSEG    CODE           ?PR?SOFT_IIC_WRITE_8BIT?ZF_DRIVER_SOFT_IIC
   *DEL*:           000098H   BYTE   INSEG    CODE           ?PR?SOFT_IIC_WRITE_8BIT_ARRAY?ZF_DRIVER_SOFT_IIC
   *DEL*:           00006FH   BYTE   INSEG    CODE           ?PR?SOFT_IIC_READ_16BIT?ZF_DRIVER_SOFT_IIC
   *DEL*:           0000E1H   BYTE   INSEG    CODE           ?PR?SOFT_IIC_READ_16BIT_ARRAY?ZF_DRIVER_SOFT_IIC
   *DEL*:           0000A6H   BYTE   INSEG    CODE           ?PR?SOFT_IIC_INIT?ZF_DRIVER_SOFT_IIC
   *DEL*:           0000D7H   BYTE   INSEG    CODE           ?PR?SOFT_IIC_READ_8BIT_REGISTERS?ZF_DRIVER_SOFT_IIC
   *DEL*:           00005CH   BYTE   INSEG    CODE           ?PR?SOFT_IIC_WRITE_16BIT?ZF_DRIVER_SOFT_IIC
   *DEL*:           0000B4H   BYTE   INSEG    CODE           ?PR?SOFT_IIC_WRITE_16BIT_ARRAY?ZF_DRIVER_SOFT_IIC
   *DEL*:           000069H   BYTE   INSEG    CODE           ?PR?SOFT_IIC_READ_8BIT_REGISTER?ZF_DRIVER_SOFT_IIC
   *DEL*:           000130H   BYTE   INSEG    CODE           ?PR?SOFT_IIC_TRANSFER_8BIT_ARRAY?ZF_DRIVER_SOFT_IIC
   *DEL*:           0000A5H   BYTE   INSEG    CODE           ?PR?SOFT_IIC_WRITE_8BIT_REGISTERS?ZF_DRIVER_SOFT_IIC
   *DEL*:           000001H   BYTE   UNIT     XDATA          ?XD?SOFT_IIC_WRITE_8BIT?ZF_DRIVER_SOFT_IIC
   *DEL*:           000008H   BYTE   UNIT     XDATA          ?XD?SOFT_IIC_WRITE_8BIT_ARRAY?ZF_DRIVER_SOFT_IIC
   *DEL*:           000002H   BYTE   UNIT     XDATA          ?XD?SOFT_IIC_WRITE_16BIT?ZF_DRIVER_SOFT_IIC
   *DEL*:           000008H   BYTE   UNIT     XDATA          ?XD?SOFT_IIC_WRITE_16BIT_ARRAY?ZF_DRIVER_SOFT_IIC
   *DEL*:           000002H   BYTE   UNIT     XDATA          ?XD?SOFT_IIC_WRITE_8BIT_REGISTER?ZF_DRIVER_SOFT_IIC
   *DEL*:           000009H   BYTE   UNIT     XDATA          ?XD?SOFT_IIC_WRITE_8BIT_REGISTERS?ZF_DRIVER_SOFT_IIC
   *DEL*:           000004H   BYTE   UNIT     XDATA          ?XD?SOFT_IIC_WRITE_16BIT_REGISTER?ZF_DRIVER_SOFT_IIC
   *DEL*:           00000AH   BYTE   UNIT     XDATA          ?XD?SOFT_IIC_WRITE_16BIT_REGISTERS?ZF_DRIVER_SOFT_IIC
   *DEL*:           000001H   BYTE   UNIT     XDATA          ?XD?SOFT_IIC_READ_8BIT?ZF_DRIVER_SOFT_IIC
   *DEL*:           000008H   BYTE   UNIT     XDATA          ?XD?SOFT_IIC_READ_8BIT_ARRAY?ZF_DRIVER_SOFT_IIC
   *DEL*:           000002H   BYTE   UNIT     XDATA          ?XD?SOFT_IIC_READ_16BIT?ZF_DRIVER_SOFT_IIC
   *DEL*:           000008H   BYTE   UNIT     XDATA          ?XD?SOFT_IIC_READ_16BIT_ARRAY?ZF_DRIVER_SOFT_IIC
   *DEL*:           000002H   BYTE   UNIT     XDATA          ?XD?SOFT_IIC_READ_8BIT_REGISTER?ZF_DRIVER_SOFT_IIC
   *DEL*:           000009H   BYTE   UNIT     XDATA          ?XD?SOFT_IIC_READ_8BIT_REGISTERS?ZF_DRIVER_SOFT_IIC
   *DEL*:           000004H   BYTE   UNIT     XDATA          ?XD?SOFT_IIC_READ_16BIT_REGISTER?ZF_DRIVER_SOFT_IIC
   *DEL*:           00000AH   BYTE   UNIT     XDATA          ?XD?SOFT_IIC_READ_16BIT_REGISTERS?ZF_DRIVER_SOFT_IIC
   *DEL*:           000010H   BYTE   UNIT     XDATA          ?XD?SOFT_IIC_TRANSFER_8BIT_ARRAY?ZF_DRIVER_SOFT_IIC
   *DEL*:           000010H   BYTE   UNIT     XDATA          ?XD?SOFT_IIC_TRANSFER_16BIT_ARRAY?ZF_DRIVER_SOFT_IIC
   *DEL*:           000002H   BYTE   UNIT     XDATA          ?XD?SOFT_IIC_SCCB_WRITE_REGISTER?ZF_DRIVER_SOFT_IIC
   *DEL*:           000002H   BYTE   UNIT     XDATA          ?XD?SOFT_IIC_SCCB_READ_REGISTER?ZF_DRIVER_SOFT_IIC
   *DEL*:           000009H   BYTE   UNIT     XDATA          ?XD?SOFT_IIC_INIT?ZF_DRIVER_SOFT_IIC
   *DEL*:           00023EH   BYTE   INSEG    CODE           ?PR?SOFT_SPI_INIT?ZF_DRIVER_SOFT_SPI
   *DEL*:           0000BBH   BYTE   INSEG    CODE           ?PR?SOFT_SPI_READ_8BIT_REGISTERS?ZF_DRIVER_SOFT_SPI
   *DEL*:           00004FH   BYTE   INSEG    CODE           ?PR?SOFT_SPI_WRITE_16BIT?ZF_DRIVER_SOFT_SPI
   *DEL*:           00010EH   BYTE   INSEG    CODE           ?PR?SOFT_SPI_8BIT_DATA_HANDLER?ZF_DRIVER_SOFT_SPI
   *DEL*:           0000A0H   BYTE   INSEG    CODE           ?PR?SOFT_SPI_WRITE_16BIT_ARRAY?ZF_DRIVER_SOFT_SPI
   *DEL*:           00005EH   BYTE   INSEG    CODE           ?PR?SOFT_SPI_READ_8BIT_REGISTER?ZF_DRIVER_SOFT_SPI
   *DEL*:           000102H   BYTE   INSEG    CODE           ?PR?SOFT_SPI_TRANSFER_8BIT?ZF_DRIVER_SOFT_SPI
   *DEL*:           0000ADH   BYTE   INSEG    CODE           ?PR?SOFT_SPI_WRITE_8BIT_REGISTERS?ZF_DRIVER_SOFT_SPI
   *DEL*:           00005AH   BYTE   INSEG    CODE           ?PR?SOFT_SPI_WRITE_8BIT_REGISTER?ZF_DRIVER_SOFT_SPI
   *DEL*:           0000B8H   BYTE   INSEG    CODE           ?PR?SOFT_SPI_READ_16BIT_REGISTERS?ZF_DRIVER_SOFT_SPI
   *DEL*:           000133H   BYTE   INSEG    CODE           ?PR?SOFT_SPI_16BIT_DATA_HANDLER?ZF_DRIVER_SOFT_SPI
   *DEL*:           00006AH   BYTE   INSEG    CODE           ?PR?SOFT_SPI_READ_16BIT_REGISTER?ZF_DRIVER_SOFT_SPI
   *DEL*:           000104H   BYTE   INSEG    CODE           ?PR?SOFT_SPI_TRANSFER_16BIT?ZF_DRIVER_SOFT_SPI
   *DEL*:           0000A7H   BYTE   INSEG    CODE           ?PR?SOFT_SPI_WRITE_16BIT_REGISTERS?ZF_DRIVER_SOFT_SPI
   *DEL*:           000051H   BYTE   INSEG    CODE           ?PR?SOFT_SPI_READ_8BIT?ZF_DRIVER_SOFT_SPI
   *DEL*:           0000AEH   BYTE   INSEG    CODE           ?PR?SOFT_SPI_READ_8BIT_ARRAY?ZF_DRIVER_SOFT_SPI
   *DEL*:           000060H   BYTE   INSEG    CODE           ?PR?SOFT_SPI_WRITE_16BIT_REGISTER?ZF_DRIVER_SOFT_SPI
   *DEL*:           00004BH   BYTE   INSEG    CODE           ?PR?SOFT_SPI_WRITE_8BIT?ZF_DRIVER_SOFT_SPI
   *DEL*:           0000A0H   BYTE   INSEG    CODE           ?PR?SOFT_SPI_WRITE_8BIT_ARRAY?ZF_DRIVER_SOFT_SPI
   *DEL*:           000026H   BYTE   INSEG    CODE           ?PR?SOFT_SPI_DELAY?ZF_DRIVER_SOFT_SPI
   *DEL*:           000056H   BYTE   INSEG    CODE           ?PR?SOFT_SPI_READ_16BIT?ZF_DRIVER_SOFT_SPI
   *DEL*:           0000B1H   BYTE   INSEG    CODE           ?PR?SOFT_SPI_READ_16BIT_ARRAY?ZF_DRIVER_SOFT_SPI
   *DEL*:           000004H   BYTE   UNIT     XDATA          ?XD?SOFT_SPI_DELAY?ZF_DRIVER_SOFT_SPI
   *DEL*:           000003H   BYTE   UNIT     XDATA          ?XD?SOFT_SPI_8BIT_DATA_HANDLER?ZF_DRIVER_SOFT_SPI
   *DEL*:           000005H   BYTE   UNIT     XDATA          ?XD?SOFT_SPI_16BIT_DATA_HANDLER?ZF_DRIVER_SOFT_SPI
   *DEL*:           000001H   BYTE   UNIT     XDATA          ?XD?SOFT_SPI_WRITE_8BIT?ZF_DRIVER_SOFT_SPI
   *DEL*:           000008H   BYTE   UNIT     XDATA          ?XD?SOFT_SPI_WRITE_8BIT_ARRAY?ZF_DRIVER_SOFT_SPI
   *DEL*:           000002H   BYTE   UNIT     XDATA          ?XD?SOFT_SPI_WRITE_16BIT?ZF_DRIVER_SOFT_SPI
   *DEL*:           000008H   BYTE   UNIT     XDATA          ?XD?SOFT_SPI_WRITE_16BIT_ARRAY?ZF_DRIVER_SOFT_SPI
   *DEL*:           000002H   BYTE   UNIT     XDATA          ?XD?SOFT_SPI_WRITE_8BIT_REGISTER?ZF_DRIVER_SOFT_SPI
L251 LINKER/LOCATER V4.66.93.0                                                        09/26/2025  18:18:13  PAGE 10


   *DEL*:           000009H   BYTE   UNIT     XDATA          ?XD?SOFT_SPI_WRITE_8BIT_REGISTERS?ZF_DRIVER_SOFT_SPI
   *DEL*:           000004H   BYTE   UNIT     XDATA          ?XD?SOFT_SPI_WRITE_16BIT_REGISTER?ZF_DRIVER_SOFT_SPI
   *DEL*:           00000AH   BYTE   UNIT     XDATA          ?XD?SOFT_SPI_WRITE_16BIT_REGISTERS?ZF_DRIVER_SOFT_SPI
   *DEL*:           000001H   BYTE   UNIT     XDATA          ?XD?SOFT_SPI_READ_8BIT?ZF_DRIVER_SOFT_SPI
   *DEL*:           000008H   BYTE   UNIT     XDATA          ?XD?SOFT_SPI_READ_8BIT_ARRAY?ZF_DRIVER_SOFT_SPI
   *DEL*:           000001H   BYTE   UNIT     XDATA          ?XD?SOFT_SPI_READ_16BIT?ZF_DRIVER_SOFT_SPI
   *DEL*:           000008H   BYTE   UNIT     XDATA          ?XD?SOFT_SPI_READ_16BIT_ARRAY?ZF_DRIVER_SOFT_SPI
   *DEL*:           000002H   BYTE   UNIT     XDATA          ?XD?SOFT_SPI_READ_8BIT_REGISTER?ZF_DRIVER_SOFT_SPI
   *DEL*:           000009H   BYTE   UNIT     XDATA          ?XD?SOFT_SPI_READ_8BIT_REGISTERS?ZF_DRIVER_SOFT_SPI
   *DEL*:           000004H   BYTE   UNIT     XDATA          ?XD?SOFT_SPI_READ_16BIT_REGISTER?ZF_DRIVER_SOFT_SPI
   *DEL*:           00000AH   BYTE   UNIT     XDATA          ?XD?SOFT_SPI_READ_16BIT_REGISTERS?ZF_DRIVER_SOFT_SPI
   *DEL*:           00000CH   BYTE   UNIT     XDATA          ?XD?SOFT_SPI_TRANSFER_8BIT?ZF_DRIVER_SOFT_SPI
   *DEL*:           00000CH   BYTE   UNIT     XDATA          ?XD?SOFT_SPI_TRANSFER_16BIT?ZF_DRIVER_SOFT_SPI
   *DEL*:           000011H   BYTE   UNIT     XDATA          ?XD?SOFT_SPI_INIT?ZF_DRIVER_SOFT_SPI
   *DEL*:           00001BH   BYTE   INSEG    CODE           ?PR?SPI_WRITE_8BIT_REGISTER?ZF_DRIVER_SPI
   *DEL*:           00007FH   BYTE   INSEG    CODE           ?PR?SPI_READ_16BIT_REGISTERS?ZF_DRIVER_SPI
   *DEL*:           000057H   BYTE   INSEG    CODE           ?PR?SPI_READ_16BIT_REGISTER?ZF_DRIVER_SPI
   *DEL*:           0000C3H   BYTE   INSEG    CODE           ?PR?SPI_TRANSFER_16BIT?ZF_DRIVER_SPI
   *DEL*:           000060H   BYTE   INSEG    CODE           ?PR?SPI_WRITE_16BIT_REGISTERS?ZF_DRIVER_SPI
   *DEL*:           000005H   BYTE   INSEG    CODE           ?PR?SPI_READ_8BIT?ZF_DRIVER_SPI
   *DEL*:           000037H   BYTE   INSEG    CODE           ?PR?SPI_READ_8BIT_ARRAY?ZF_DRIVER_SPI
   *DEL*:           000045H   BYTE   INSEG    CODE           ?PR?SPI_WRITE_16BIT_REGISTER?ZF_DRIVER_SPI
   *DEL*:           000036H   BYTE   INSEG    CODE           ?PR?SPI_WRITE_8BIT_ARRAY?ZF_DRIVER_SPI
   *DEL*:           000021H   BYTE   INSEG    CODE           ?PR?SPI_READ_16BIT?ZF_DRIVER_SPI
   *DEL*:           000051H   BYTE   INSEG    CODE           ?PR?SPI_READ_16BIT_ARRAY?ZF_DRIVER_SPI
   *DEL*:           000044H   BYTE   INSEG    CODE           ?PR?SPI_READ_8BIT_REGISTERS?ZF_DRIVER_SPI
   *DEL*:           000056H   BYTE   INSEG    CODE           ?PR?SPI_READ_DAT?ZF_DRIVER_SPI
   *DEL*:           00004CH   BYTE   INSEG    CODE           ?PR?SPI_WRITE_16BIT_ARRAY?ZF_DRIVER_SPI
   *DEL*:           000014H   BYTE   INSEG    CODE           ?PR?SPI_READ_8BIT_REGISTER?ZF_DRIVER_SPI
   *DEL*:           000077H   BYTE   INSEG    CODE           ?PR?SPI_TRANSFER_8BIT?ZF_DRIVER_SPI
   *DEL*:           000043H   BYTE   INSEG    CODE           ?PR?SPI_WRITE_8BIT_REGISTERS?ZF_DRIVER_SPI
   *DEL*:           000006H   BYTE   UNIT     XDATA          ?XD?SPI_WRITE_8BIT_ARRAY?ZF_DRIVER_SPI
   *DEL*:           000006H   BYTE   UNIT     XDATA          ?XD?SPI_WRITE_16BIT_ARRAY?ZF_DRIVER_SPI
   *DEL*:           000006H   BYTE   UNIT     XDATA          ?XD?SPI_WRITE_8BIT_REGISTERS?ZF_DRIVER_SPI
   *DEL*:           000002H   BYTE   UNIT     XDATA          ?XD?SPI_WRITE_16BIT_REGISTER?ZF_DRIVER_SPI
   *DEL*:           000008H   BYTE   UNIT     XDATA          ?XD?SPI_WRITE_16BIT_REGISTERS?ZF_DRIVER_SPI
   *DEL*:           000006H   BYTE   UNIT     XDATA          ?XD?SPI_READ_8BIT_ARRAY?ZF_DRIVER_SPI
   *DEL*:           000006H   BYTE   UNIT     XDATA          ?XD?SPI_READ_16BIT_ARRAY?ZF_DRIVER_SPI
   *DEL*:           000006H   BYTE   UNIT     XDATA          ?XD?SPI_READ_8BIT_REGISTERS?ZF_DRIVER_SPI
   *DEL*:           000002H   BYTE   UNIT     XDATA          ?XD?SPI_READ_16BIT_REGISTER?ZF_DRIVER_SPI
   *DEL*:           000008H   BYTE   UNIT     XDATA          ?XD?SPI_READ_16BIT_REGISTERS?ZF_DRIVER_SPI
   *DEL*:           00000AH   BYTE   UNIT     XDATA          ?XD?SPI_TRANSFER_8BIT?ZF_DRIVER_SPI
   *DEL*:           00000AH   BYTE   UNIT     XDATA          ?XD?SPI_TRANSFER_16BIT?ZF_DRIVER_SPI
   *DEL*:           000052H   BYTE   INSEG    CODE           ?PR?UART_WRITE_STRING?ZF_DRIVER_UART
   *DEL*:           000053H   BYTE   INSEG    CODE           ?PR?UART_READ_BYTE?ZF_DRIVER_UART
   *DEL*:           000104H   BYTE   UNIT     XDATA          ?XD?UART_WRITE_STRING?ZF_DRIVER_UART
   *DEL*:           00000FH   BYTE   INSEG    CODE           ?PR?SET_TOF_TYPE?ZF_DEVICE_TYPE
   *DEL*:           000043H   BYTE   INSEG    CODE           ?PR?SET_GPS_TYPE?ZF_DEVICE_TYPE
   *DEL*:           000043H   BYTE   INSEG    CODE           ?PR?SET_WIRELESS_TYPE?ZF_DEVICE_TYPE
   *DEL*:           000061H   BYTE   INSEG    CODE           ?PR?TFT180_DRAW_POINT?ZF_DEVICE_TFT180
   *DEL*:           0000F3H   BYTE   INSEG    CODE           ?PR?TFT180_SHOW_UINT16?ZF_DEVICE_TFT180
   *DEL*:           000109H   BYTE   INSEG    CODE           ?PR?TFT180_SHOW_INT32?ZF_DEVICE_TFT180
   *DEL*:           0001E8H   BYTE   INSEG    CODE           ?PR?TFT180_SHOW_WAVE?ZF_DEVICE_TFT180
   *DEL*:           0000C3H   BYTE   INSEG    CODE           ?PR?TFT180_SHOW_UINT8?ZF_DEVICE_TFT180
   *DEL*:           0000F3H   BYTE   INSEG    CODE           ?PR?TFT180_SHOW_INT8?ZF_DEVICE_TFT180
   *DEL*:           000002H   BYTE   UNIT     XDATA          ?XD?TFT180_DRAW_POINT?ZF_DEVICE_TFT180
   *DEL*:           000005H   BYTE   UNIT     XDATA          ?XD?TFT180_SHOW_INT8?ZF_DEVICE_TFT180
   *DEL*:           000005H   BYTE   UNIT     XDATA          ?XD?TFT180_SHOW_UINT8?ZF_DEVICE_TFT180
   *DEL*:           000008H   BYTE   UNIT     XDATA          ?XD?TFT180_SHOW_UINT16?ZF_DEVICE_TFT180
   *DEL*:           000028H   BYTE   UNIT     XDATA          ?XD?TFT180_SHOW_INT32?ZF_DEVICE_TFT180
   *DEL*:           00001CH   BYTE   UNIT     XDATA          ?XD?TFT180_SHOW_WAVE?ZF_DEVICE_TFT180
   *DEL*:           0001C4H   BYTE   INSEG    CODE           ?PR?IPS114_SHOW_FLOAT?ZF_DEVICE_IPS114
   *DEL*:           000061H   BYTE   INSEG    CODE           ?PR?IPS114_DRAW_POINT?ZF_DEVICE_IPS114
   *DEL*:           0000A9H   BYTE   INSEG    CODE           ?PR?IPS114_SHOW_STRING?ZF_DEVICE_IPS114
   *DEL*:           0000E0H   BYTE   INSEG    CODE           ?PR?IPS114_SHOW_CHAR?ZF_DEVICE_IPS114
L251 LINKER/LOCATER V4.66.93.0                                                        09/26/2025  18:18:13  PAGE 11


   *DEL*:           0000F3H   BYTE   INSEG    CODE           ?PR?IPS114_SHOW_UINT16?ZF_DEVICE_IPS114
   *DEL*:           00000DH   BYTE   INSEG    CODE           ?PR?IPS114_SET_COLOR?ZF_DEVICE_IPS114
   *DEL*:           000109H   BYTE   INSEG    CODE           ?PR?IPS114_SHOW_INT32?ZF_DEVICE_IPS114
   *DEL*:           000133H   BYTE   INSEG    CODE           ?PR?IPS114_SHOW_INT16?ZF_DEVICE_IPS114
   *DEL*:           0001E8H   BYTE   INSEG    CODE           ?PR?IPS114_SHOW_WAVE?ZF_DEVICE_IPS114
   *DEL*:           000027H   BYTE   INSEG    CODE           ?PR?IPS114_SET_DIR?ZF_DEVICE_IPS114
   *DEL*:           0001D0H   BYTE   INSEG    CODE           ?PR?IPS114_SHOW_CHINESE?ZF_DEVICE_IPS114
   *DEL*:           00005AH   BYTE   INSEG    CODE           ?PR?IPS114_CLEAR?ZF_DEVICE_IPS114
   *DEL*:           0000C3H   BYTE   INSEG    CODE           ?PR?IPS114_SHOW_UINT8?ZF_DEVICE_IPS114
   *DEL*:           0000F3H   BYTE   INSEG    CODE           ?PR?IPS114_SHOW_INT8?ZF_DEVICE_IPS114
   *DEL*:           000016H   BYTE   INSEG    CODE           ?PR?IPS114_WRITE_INDEX?ZF_DEVICE_IPS114
   *DEL*:           0001CFH   BYTE   INSEG    CODE           ?PR?IPS114_SET_REGION?ZF_DEVICE_IPS114
   *DEL*:           00025AH   BYTE   INSEG    CODE           ?PR?IPS114_INIT?ZF_DEVICE_IPS114
   *DEL*:           000004H   BYTE   UNIT     XDATA          ?XD?IPS114_SET_REGION?ZF_DEVICE_IPS114
   *DEL*:           000002H   BYTE   UNIT     XDATA          ?XD?IPS114_CLEAR?ZF_DEVICE_IPS114
   *DEL*:           000002H   BYTE   UNIT     XDATA          ?XD?IPS114_DRAW_POINT?ZF_DEVICE_IPS114
   *DEL*:           000004H   BYTE   UNIT     XDATA          ?XD?IPS114_SHOW_CHAR?ZF_DEVICE_IPS114
   *DEL*:           000006H   BYTE   UNIT     XDATA          ?XD?IPS114_SHOW_STRING?ZF_DEVICE_IPS114
   *DEL*:           000005H   BYTE   UNIT     XDATA          ?XD?IPS114_SHOW_INT8?ZF_DEVICE_IPS114
   *DEL*:           000005H   BYTE   UNIT     XDATA          ?XD?IPS114_SHOW_UINT8?ZF_DEVICE_IPS114
   *DEL*:           000008H   BYTE   UNIT     XDATA          ?XD?IPS114_SHOW_INT16?ZF_DEVICE_IPS114
   *DEL*:           000008H   BYTE   UNIT     XDATA          ?XD?IPS114_SHOW_UINT16?ZF_DEVICE_IPS114
   *DEL*:           000028H   BYTE   UNIT     XDATA          ?XD?IPS114_SHOW_INT32?ZF_DEVICE_IPS114
   *DEL*:           000031H   BYTE   UNIT     XDATA          ?XD?IPS114_SHOW_FLOAT?ZF_DEVICE_IPS114
   *DEL*:           00001CH   BYTE   UNIT     XDATA          ?XD?IPS114_SHOW_WAVE?ZF_DEVICE_IPS114
   *DEL*:           000015H   BYTE   UNIT     XDATA          ?XD?IPS114_SHOW_CHINESE?ZF_DEVICE_IPS114
   *DEL*:           0001C4H   BYTE   INSEG    CODE           ?PR?IPS200_SHOW_FLOAT?ZF_DEVICE_IPS200
   *DEL*:           000061H   BYTE   INSEG    CODE           ?PR?IPS200_DRAW_POINT?ZF_DEVICE_IPS200
   *DEL*:           0000A9H   BYTE   INSEG    CODE           ?PR?IPS200_SHOW_STRING?ZF_DEVICE_IPS200
   *DEL*:           0000E0H   BYTE   INSEG    CODE           ?PR?IPS200_SHOW_CHAR?ZF_DEVICE_IPS200
   *DEL*:           0000F3H   BYTE   INSEG    CODE           ?PR?IPS200_SHOW_UINT16?ZF_DEVICE_IPS200
   *DEL*:           00000DH   BYTE   INSEG    CODE           ?PR?IPS200_SET_COLOR?ZF_DEVICE_IPS200
   *DEL*:           000109H   BYTE   INSEG    CODE           ?PR?IPS200_SHOW_INT32?ZF_DEVICE_IPS200
   *DEL*:           000133H   BYTE   INSEG    CODE           ?PR?IPS200_SHOW_INT16?ZF_DEVICE_IPS200
   *DEL*:           0001E8H   BYTE   INSEG    CODE           ?PR?IPS200_SHOW_WAVE?ZF_DEVICE_IPS200
   *DEL*:           000007H   BYTE   INSEG    CODE           ?PR?IPS200_SET_DIR?ZF_DEVICE_IPS200
   *DEL*:           0001D0H   BYTE   INSEG    CODE           ?PR?IPS200_SHOW_CHINESE?ZF_DEVICE_IPS200
   *DEL*:           00005AH   BYTE   INSEG    CODE           ?PR?IPS200_CLEAR?ZF_DEVICE_IPS200
   *DEL*:           0000C3H   BYTE   INSEG    CODE           ?PR?IPS200_SHOW_UINT8?ZF_DEVICE_IPS200
   *DEL*:           0000F3H   BYTE   INSEG    CODE           ?PR?IPS200_SHOW_INT8?ZF_DEVICE_IPS200
   *DEL*:           000016H   BYTE   INSEG    CODE           ?PR?IPS200_WRITE_INDEX?ZF_DEVICE_IPS200
   *DEL*:           0000CCH   BYTE   INSEG    CODE           ?PR?IPS200_SET_REGION?ZF_DEVICE_IPS200
   *DEL*:           00025AH   BYTE   INSEG    CODE           ?PR?IPS200_INIT?ZF_DEVICE_IPS200
   *DEL*:           000004H   BYTE   UNIT     XDATA          ?XD?IPS200_SET_REGION?ZF_DEVICE_IPS200
   *DEL*:           000002H   BYTE   UNIT     XDATA          ?XD?IPS200_CLEAR?ZF_DEVICE_IPS200
   *DEL*:           000002H   BYTE   UNIT     XDATA          ?XD?IPS200_DRAW_POINT?ZF_DEVICE_IPS200
   *DEL*:           000004H   BYTE   UNIT     XDATA          ?XD?IPS200_SHOW_CHAR?ZF_DEVICE_IPS200
   *DEL*:           000006H   BYTE   UNIT     XDATA          ?XD?IPS200_SHOW_STRING?ZF_DEVICE_IPS200
   *DEL*:           000005H   BYTE   UNIT     XDATA          ?XD?IPS200_SHOW_INT8?ZF_DEVICE_IPS200
   *DEL*:           000005H   BYTE   UNIT     XDATA          ?XD?IPS200_SHOW_UINT8?ZF_DEVICE_IPS200
   *DEL*:           000008H   BYTE   UNIT     XDATA          ?XD?IPS200_SHOW_INT16?ZF_DEVICE_IPS200
   *DEL*:           000008H   BYTE   UNIT     XDATA          ?XD?IPS200_SHOW_UINT16?ZF_DEVICE_IPS200
   *DEL*:           000028H   BYTE   UNIT     XDATA          ?XD?IPS200_SHOW_INT32?ZF_DEVICE_IPS200
   *DEL*:           000031H   BYTE   UNIT     XDATA          ?XD?IPS200_SHOW_FLOAT?ZF_DEVICE_IPS200
   *DEL*:           00001CH   BYTE   UNIT     XDATA          ?XD?IPS200_SHOW_WAVE?ZF_DEVICE_IPS200
   *DEL*:           000015H   BYTE   UNIT     XDATA          ?XD?IPS200_SHOW_CHINESE?ZF_DEVICE_IPS200
   *DEL*:           00003FH   BYTE   INSEG    CODE           ?PR?DL1A_TIMEOUT_MICROSECONDS_TO_MCLKS?ZF_DEVICE_DL1A
   *DEL*:           000041H   BYTE   INSEG    CODE           ?PR?DL1A_TIMEOUT_MCLKS_TO_MICROSECONDS?ZF_DEVICE_DL1A
   *DEL*:           000083H   BYTE   INSEG    CODE           ?PR?DL1A_SET_SIGNAL_RATE_LIMIT?ZF_DEVICE_DL1A
   *DEL*:           000018H   BYTE   INSEG    CODE           ?PR?DL1A_DECODE_TIMEOUT?ZF_DEVICE_DL1A
   *DEL*:           000233H   BYTE   INSEG    CODE           ?PR?DL1A_GET_SPAD_INFO?ZF_DEVICE_DL1A
   *DEL*:           000038H   BYTE   INSEG    CODE           ?PR?DL1A_ENCODE_TIMEOUT?ZF_DEVICE_DL1A
   *DEL*:           00006AH   BYTE   INSEG    CODE           ?PR?DL1A_GET_SEQUENCE_STEP_ENABLES?ZF_DEVICE_DL1A
   *DEL*:           0000C7H   BYTE   INSEG    CODE           ?PR?DL1A_GET_DISTANCE?ZF_DEVICE_DL1A
   *DEL*:           0000BAH   BYTE   INSEG    CODE           ?PR?DL1A_PERFORM_SINGLE_REF_CALIBRATION?ZF_DEVICE_DL1A
L251 LINKER/LOCATER V4.66.93.0                                                        09/26/2025  18:18:13  PAGE 12


   *DEL*:           00013CH   BYTE   INSEG    CODE           ?PR?DL1A_GET_SEQUENCE_STEP_TIMEOUTS?ZF_DEVICE_DL1A
   *DEL*:           000001H   BYTE   INSEG    CODE           ?PR?DL1A_INT_HANDLER?ZF_DEVICE_DL1A
   *DEL*:           00009BH   BYTE   INSEG    CODE           ?PR?DL1A_GET_MEASUREMENT_TIMING_BUDGET?ZF_DEVICE_DL1A
   *DEL*:           0001D4H   BYTE   INSEG    CODE           ?PR?DL1A_SET_MEASUREMENT_TIMING_BUDGET?ZF_DEVICE_DL1A
   *DEL*:           0004C9H   BYTE   INSEG    CODE           ?PR?DL1A_INIT?ZF_DEVICE_DL1A
   *DEL*:           000086H   BYTE   INSEG    CODE           ?PR?DL1A_GET_VCSEL_PULSE_PERIOD?ZF_DEVICE_DL1A
   *DEL*:           000008H   BYTE   UNIT     XDATA          ?XD?DL1A_GET_SPAD_INFO?ZF_DEVICE_DL1A
   *DEL*:           000001H   BYTE   UNIT     XDATA          ?XD?DL1A_GET_SEQUENCE_STEP_ENABLES?ZF_DEVICE_DL1A
   *DEL*:           000001H   BYTE   UNIT     XDATA          ?XD?DL1A_GET_VCSEL_PULSE_PERIOD?ZF_DEVICE_DL1A
   *DEL*:           000008H   BYTE   UNIT     XDATA          ?XD?DL1A_GET_SEQUENCE_STEP_TIMEOUTS?ZF_DEVICE_DL1A
   *DEL*:           000003H   BYTE   UNIT     XDATA          ?XD?DL1A_PERFORM_SINGLE_REF_CALIBRATION?ZF_DEVICE_DL1A
   *DEL*:           00002BH   BYTE   UNIT     XDATA          ?XD?DL1A_SET_MEASUREMENT_TIMING_BUDGET?ZF_DEVICE_DL1A
   *DEL*:           00001BH   BYTE   UNIT     XDATA          ?XD?DL1A_GET_MEASUREMENT_TIMING_BUDGET?ZF_DEVICE_DL1A
   *DEL*:           000003H   BYTE   UNIT     XDATA          ?XD?DL1A_SET_SIGNAL_RATE_LIMIT?ZF_DEVICE_DL1A
   *DEL*:           000003H   BYTE   UNIT     XDATA          ?XD?DL1A_GET_DISTANCE?ZF_DEVICE_DL1A
   *DEL*:           0000CAH   BYTE   UNIT     XDATA          ?XD?DL1A_INIT?ZF_DEVICE_DL1A
   *DEL*:           00005EH   BYTE   INSEG    CODE           ?PR?BLE6A20_READ_BUFFER?ZF_DEVICE_BLE6A20
   *DEL*:           0000CFH   BYTE   INSEG    CODE           ?PR?BLE6A20_SEND_BUFFER?ZF_DEVICE_BLE6A20
   *DEL*:           00003FH   BYTE   INSEG    CODE           ?PR?BLE6A20_SEND_STRING?ZF_DEVICE_BLE6A20
   *DEL*:           000026H   BYTE   INSEG    CODE           ?PR?BLE6A20_CALLBACK?ZF_DEVICE_BLE6A20
   *DEL*:           000087H   BYTE   INSEG    CODE           ?PR?BLE6A20_INIT?ZF_DEVICE_BLE6A20
   *DEL*:           000044H   BYTE   INSEG    CODE           ?PR?BLE6A20_SEND_BYTE?ZF_DEVICE_BLE6A20
   *DEL*:           000008H   BYTE   UNIT     XDATA          ?XD?BLE6A20_SEND_BUFFER?ZF_DEVICE_BLE6A20
   *DEL*:           000004H   BYTE   UNIT     XDATA          ?XD?BLE6A20_SEND_STRING?ZF_DEVICE_BLE6A20
   *DEL*:           000004H   BYTE   UNIT     XDATA          ?XD?BLE6A20_READ_BUFFER?ZF_DEVICE_BLE6A20
   *DEL*:           000001H   BYTE   UNIT     XDATA          ?XD?BLE6A20_CALLBACK?ZF_DEVICE_BLE6A20
   *DEL*:           0000CFH   BYTE   INSEG    CODE           ?PR?WIRELESS_UART_SEND_BUFFER?ZF_DEVICE_WIRELESS_UART
   *DEL*:           00003FH   BYTE   INSEG    CODE           ?PR?WIRELESS_UART_SEND_STRING?ZF_DEVICE_WIRELESS_UART
   *DEL*:           000026H   BYTE   INSEG    CODE           ?PR?WIRELESS_UART_CALLBACK?ZF_DEVICE_WIRELESS_UART
   *DEL*:           000080H   BYTE   INSEG    CODE           ?PR?WIRELESS_UART_INIT?ZF_DEVICE_WIRELESS_UART
   *DEL*:           000044H   BYTE   INSEG    CODE           ?PR?WIRELESS_UART_SEND_BYTE?ZF_DEVICE_WIRELESS_UART
   *DEL*:           00005EH   BYTE   INSEG    CODE           ?PR?WIRELESS_UART_READ_BUFFER?ZF_DEVICE_WIRELESS_UART
   *DEL*:           000008H   BYTE   UNIT     XDATA          ?XD?WIRELESS_UART_SEND_BUFFER?ZF_DEVICE_WIRELESS_UART
   *DEL*:           000004H   BYTE   UNIT     XDATA          ?XD?WIRELESS_UART_SEND_STRING?ZF_DEVICE_WIRELESS_UART
   *DEL*:           000004H   BYTE   UNIT     XDATA          ?XD?WIRELESS_UART_READ_BUFFER?ZF_DEVICE_WIRELESS_UART
   *DEL*:           000001H   BYTE   UNIT     XDATA          ?XD?WIRELESS_UART_CALLBACK?ZF_DEVICE_WIRELESS_UART
   *DEL*:           00001AH   BYTE   INSEG    CODE           ?PR?ICM20602_READ_REGISTER?ZF_DEVICE_ICM20602
   *DEL*:           00000CH   BYTE   INSEG    CODE           ?PR?ICM20602_WRITE_REGISTER?ZF_DEVICE_ICM20602
   *DEL*:           000021H   BYTE   INSEG    CODE           ?PR?ICM20602_SIMSPI_WR_BYTE?ZF_DEVICE_ICM20602
   *DEL*:           000031H   BYTE   INSEG    CODE           ?PR?ICM20602_SELF_CHECK?ZF_DEVICE_ICM20602
   *DEL*:           00003FH   BYTE   INSEG    CODE           ?PR?ICM20602_SIMSPI_R_REG_BYTES?ZF_DEVICE_ICM20602
   *DEL*:           000018H   BYTE   INSEG    CODE           ?PR?ICM20602_SIMSPI_R_REG_BYTE?ZF_DEVICE_ICM20602
   *DEL*:           000011H   BYTE   INSEG    CODE           ?PR?ICM20602_SIMSPI_W_REG_BYTE?ZF_DEVICE_ICM20602
   *DEL*:           0001B9H   BYTE   INSEG    CODE           ?PR?ICM20602_INIT?ZF_DEVICE_ICM20602
   *DEL*:           000054H   BYTE   INSEG    CODE           ?PR?ICM20602_GET_ACC?ZF_DEVICE_ICM20602
   *DEL*:           000016H   BYTE   INSEG    CODE           ?PR?ICM20602_READ_REGISTERS?ZF_DEVICE_ICM20602
   *DEL*:           000054H   BYTE   INSEG    CODE           ?PR?ICM20602_GET_GYRO?ZF_DEVICE_ICM20602
   *DEL*:           000004H   BYTE   UNIT     XDATA          ?XD?ICM20602_SIMSPI_R_REG_BYTES?ZF_DEVICE_ICM20602
   *DEL*:           000001H   BYTE   UNIT     XDATA          ?XD?ICM20602_READ_REGISTER?ZF_DEVICE_ICM20602
   *DEL*:           000006H   BYTE   UNIT     XDATA          ?XD?ICM20602_GET_ACC?ZF_DEVICE_ICM20602
   *DEL*:           000006H   BYTE   UNIT     XDATA          ?XD?ICM20602_GET_GYRO?ZF_DEVICE_ICM20602
   *DEL*:           000054H   BYTE   INSEG    CODE           ?PR?IMU660RA_GET_GYRO?ZF_DEVICE_IMU660RA
   *DEL*:           00001EH   BYTE   INSEG    CODE           ?PR?IMU660RA_READ_REGISTER?ZF_DEVICE_IMU660RA
   *DEL*:           000014H   BYTE   INSEG    CODE           ?PR?IMU660RA_WRITE_REGISTERS?ZF_DEVICE_IMU660RA
   *DEL*:           00000CH   BYTE   INSEG    CODE           ?PR?IMU660RA_WRITE_REGISTER?ZF_DEVICE_IMU660RA
   *DEL*:           000023H   BYTE   INSEG    CODE           ?PR?IMU660RA_SIMSPI_WR_BYTE?ZF_DEVICE_IMU660RA
   *DEL*:           000041H   BYTE   INSEG    CODE           ?PR?IMU660RA_SELF_CHECK?ZF_DEVICE_IMU660RA
   *DEL*:           00003FH   BYTE   INSEG    CODE           ?PR?IMU660RA_SIMSPI_R_REG_BYTES?ZF_DEVICE_IMU660RA
   *DEL*:           000039H   BYTE   INSEG    CODE           ?PR?IMU660RA_SIMSPI_W_REG_BYTES?ZF_DEVICE_IMU660RA
   *DEL*:           000011H   BYTE   INSEG    CODE           ?PR?IMU660RA_SIMSPI_W_REG_BYTE?ZF_DEVICE_IMU660RA
   *DEL*:           0001E0H   BYTE   INSEG    CODE           ?PR?IMU660RA_INIT?ZF_DEVICE_IMU660RA
   *DEL*:           000054H   BYTE   INSEG    CODE           ?PR?IMU660RA_GET_ACC?ZF_DEVICE_IMU660RA
   *DEL*:           000079H   BYTE   INSEG    CODE           ?PR?IMU660RA_READ_REGISTERS?ZF_DEVICE_IMU660RA
   *DEL*:           000004H   BYTE   UNIT     XDATA          ?XD?IMU660RA_SIMSPI_W_REG_BYTES?ZF_DEVICE_IMU660RA
   *DEL*:           000004H   BYTE   UNIT     XDATA          ?XD?IMU660RA_SIMSPI_R_REG_BYTES?ZF_DEVICE_IMU660RA
L251 LINKER/LOCATER V4.66.93.0                                                        09/26/2025  18:18:13  PAGE 13


   *DEL*:           000002H   BYTE   UNIT     XDATA          ?XD?IMU660RA_READ_REGISTER?ZF_DEVICE_IMU660RA
   *DEL*:           00000EH   BYTE   UNIT     XDATA          ?XD?IMU660RA_READ_REGISTERS?ZF_DEVICE_IMU660RA
   *DEL*:           000006H   BYTE   UNIT     XDATA          ?XD?IMU660RA_GET_ACC?ZF_DEVICE_IMU660RA
   *DEL*:           000006H   BYTE   UNIT     XDATA          ?XD?IMU660RA_GET_GYRO?ZF_DEVICE_IMU660RA
   *DEL*:           000054H   BYTE   INSEG    CODE           ?PR?IMU660RB_GET_GYRO?ZF_DEVICE_IMU660RB
   *DEL*:           00001AH   BYTE   INSEG    CODE           ?PR?IMU660RB_READ_REGISTER?ZF_DEVICE_IMU660RB
   *DEL*:           0000B1H   BYTE   INSEG    CODE           ?PR?IMU660RB_GYRO_TRANSITION?ZF_DEVICE_IMU660RB
   *DEL*:           00000CH   BYTE   INSEG    CODE           ?PR?IMU660RB_WRITE_REGISTER?ZF_DEVICE_IMU660RB
   *DEL*:           000023H   BYTE   INSEG    CODE           ?PR?IMU660RB_SIMSPI_WR_BYTE?ZF_DEVICE_IMU660RB
   *DEL*:           00002FH   BYTE   INSEG    CODE           ?PR?IMU660RB_SELF_CHECK?ZF_DEVICE_IMU660RB
   *DEL*:           00003FH   BYTE   INSEG    CODE           ?PR?IMU660RB_SIMSPI_R_REG_BYTES?ZF_DEVICE_IMU660RB
   *DEL*:           00001CH   BYTE   INSEG    CODE           ?PR?IMU660RB_SIMSPI_R_REG_BYTE?ZF_DEVICE_IMU660RB
   *DEL*:           000011H   BYTE   INSEG    CODE           ?PR?IMU660RB_SIMSPI_W_REG_BYTE?ZF_DEVICE_IMU660RB
   *DEL*:           00006AH   BYTE   INSEG    CODE           ?PR?IMU660RB_INIT?ZF_DEVICE_IMU660RB
   *DEL*:           000054H   BYTE   INSEG    CODE           ?PR?IMU660RB_GET_ACC?ZF_DEVICE_IMU660RB
   *DEL*:           000075H   BYTE   INSEG    CODE           ?PR?IMU660RB_ACC_TRANSITION?ZF_DEVICE_IMU660RB
   *DEL*:           000016H   BYTE   INSEG    CODE           ?PR?IMU660RB_READ_REGISTERS?ZF_DEVICE_IMU660RB
   *DEL*:           000004H   BYTE   UNIT     XDATA          ?XD?IMU660RB_SIMSPI_R_REG_BYTES?ZF_DEVICE_IMU660RB
   *DEL*:           000001H   BYTE   UNIT     XDATA          ?XD?IMU660RB_READ_REGISTER?ZF_DEVICE_IMU660RB
   *DEL*:           000006H   BYTE   UNIT     XDATA          ?XD?IMU660RB_GET_ACC?ZF_DEVICE_IMU660RB
   *DEL*:           000006H   BYTE   UNIT     XDATA          ?XD?IMU660RB_GET_GYRO?ZF_DEVICE_IMU660RB
   *DEL*:           000054H   BYTE   INSEG    CODE           ?PR?IMU963RA_GET_GYRO?ZF_DEVICE_IMU963RA
   *DEL*:           000023H   BYTE   INSEG    CODE           ?PR?IMU963RA_SIMSPI_WR_BYTE?ZF_DEVICE_IMU963RA
   *DEL*:           000052H   BYTE   INSEG    CODE           ?PR?IMU963RA_READ_MAG_REGISTER?ZF_DEVICE_IMU963RA
   *DEL*:           00002CH   BYTE   INSEG    CODE           ?PR?IMU963RA_CONNECT_MAG?ZF_DEVICE_IMU963RA
   *DEL*:           000016H   BYTE   INSEG    CODE           ?PR?IMU963RA_READ_ACC_GYRO_REGISTERS?ZF_DEVICE_IMU963RA
   *DEL*:           000066H   BYTE   INSEG    CODE           ?PR?IMU963RA_WRITE_MAG_REGISTER?ZF_DEVICE_IMU963RA
   *DEL*:           00001FH   BYTE   INSEG    CODE           ?PR?IMU963RA_READ_ACC_GYRO_REGISTER?ZF_DEVICE_IMU963RA
   *DEL*:           00003FH   BYTE   INSEG    CODE           ?PR?IMU963RA_SIMSPI_R_REG_BYTES?ZF_DEVICE_IMU963RA
   *DEL*:           00001CH   BYTE   INSEG    CODE           ?PR?IMU963RA_SIMSPI_R_REG_BYTE?ZF_DEVICE_IMU963RA
   *DEL*:           000034H   BYTE   INSEG    CODE           ?PR?IMU963RA_MAG_SELF_CHECK?ZF_DEVICE_IMU963RA
   *DEL*:           00000CH   BYTE   INSEG    CODE           ?PR?IMU963RA_WRITE_ACC_GYRO_REGISTER?ZF_DEVICE_IMU963RA
   *DEL*:           000017H   BYTE   INSEG    CODE           ?PR?IMU963RA_SIMSPI_W_REG_BYTE?ZF_DEVICE_IMU963RA
   *DEL*:           0002DBH   BYTE   INSEG    CODE           ?PR?IMU963RA_INIT?ZF_DEVICE_IMU963RA
   *DEL*:           000044H   BYTE   INSEG    CODE           ?PR?IMU963RA_ACC_GYRO_SELF_CHECK?ZF_DEVICE_IMU963RA
   *DEL*:           000054H   BYTE   INSEG    CODE           ?PR?IMU963RA_GET_ACC?ZF_DEVICE_IMU963RA
   *DEL*:           00006BH   BYTE   INSEG    CODE           ?PR?IMU963RA_GET_MAG?ZF_DEVICE_IMU963RA
   *DEL*:           000004H   BYTE   UNIT     XDATA          ?XD?IMU963RA_SIMSPI_R_REG_BYTES?ZF_DEVICE_IMU963RA
   *DEL*:           000001H   BYTE   UNIT     XDATA          ?XD?IMU963RA_READ_ACC_GYRO_REGISTER?ZF_DEVICE_IMU963RA
   *DEL*:           000002H   BYTE   UNIT     XDATA          ?XD?IMU963RA_WRITE_MAG_REGISTER?ZF_DEVICE_IMU963RA
   *DEL*:           000006H   BYTE   UNIT     XDATA          ?XD?IMU963RA_GET_ACC?ZF_DEVICE_IMU963RA
   *DEL*:           000006H   BYTE   UNIT     XDATA          ?XD?IMU963RA_GET_GYRO?ZF_DEVICE_IMU963RA
   *DEL*:           000006H   BYTE   UNIT     XDATA          ?XD?IMU963RA_GET_MAG?ZF_DEVICE_IMU963RA
   *DEL*:           000094H   BYTE   INSEG    CODE           ?PR?GET_DOUBLE_NUMBER?ZF_DEVICE_GPS_TAU1201
   *DEL*:           00007DH   BYTE   INSEG    CODE           ?PR?GET_FLOAT_NUMBER?ZF_DEVICE_GPS_TAU1201
   *DEL*:           0000C5H   BYTE   INSEG    CODE           ?PR?UTC_TO_BTC?ZF_DEVICE_GPS_TAU1201
   *DEL*:           000372H   BYTE   INSEG    CODE           ?PR?GET_TWO_POINTS_DISTANCE?ZF_DEVICE_GPS_TAU1201
   *DEL*:           0000D9H   BYTE   INSEG    CODE           ?PR?GPS_GNGGA_PARSE?ZF_DEVICE_GPS_TAU1201
   *DEL*:           0005A6H   BYTE   INSEG    CODE           ?PR?GPS_GNRMC_PARSE?ZF_DEVICE_GPS_TAU1201
   *DEL*:           000196H   BYTE   INSEG    CODE           ?PR?GPS_DATA_PARSE?ZF_DEVICE_GPS_TAU1201
   *DEL*:           00006EH   BYTE   INSEG    CODE           ?PR?GET_INT_NUMBER?ZF_DEVICE_GPS_TAU1201
   *DEL*:           000290H   BYTE   INSEG    CODE           ?PR?GPS_INIT?ZF_DEVICE_GPS_TAU1201
   *DEL*:           000077H   BYTE   INSEG    CODE           ?PR?GET_PARAMETER_INDEX?ZF_DEVICE_GPS_TAU1201
   *DEL*:           00055CH   BYTE   INSEG    CODE           ?PR?GET_TWO_POINTS_AZIMUTH?ZF_DEVICE_GPS_TAU1201
   *DEL*:           000184H   BYTE   INSEG    CODE           ?PR?GPS_UART_CALLBACK?ZF_DEVICE_GPS_TAU1201
   *DEL*:           000003H   BYTE   UNIT     XDATA          ?XD?GET_PARAMETER_INDEX?ZF_DEVICE_GPS_TAU1201
   *DEL*:           00000DH   BYTE   UNIT     XDATA          ?XD?GET_INT_NUMBER?ZF_DEVICE_GPS_TAU1201
   *DEL*:           000014H   BYTE   UNIT     XDATA          ?XD?GET_FLOAT_NUMBER?ZF_DEVICE_GPS_TAU1201
   *DEL*:           000018H   BYTE   UNIT     XDATA          ?XD?GET_DOUBLE_NUMBER?ZF_DEVICE_GPS_TAU1201
   *DEL*:           00003BH   BYTE   UNIT     XDATA          ?XD?GPS_GNRMC_PARSE?ZF_DEVICE_GPS_TAU1201
   *DEL*:           000009H   BYTE   UNIT     XDATA          ?XD?GPS_GNGGA_PARSE?ZF_DEVICE_GPS_TAU1201
   *DEL*:           000060H   BYTE   UNIT     XDATA          ?XD?GET_TWO_POINTS_DISTANCE?ZF_DEVICE_GPS_TAU1201
   *DEL*:           000038H   BYTE   UNIT     XDATA          ?XD?GET_TWO_POINTS_AZIMUTH?ZF_DEVICE_GPS_TAU1201
   *DEL*:           000008H   BYTE   UNIT     XDATA          ?XD?GPS_DATA_PARSE?ZF_DEVICE_GPS_TAU1201
   *DEL*:           00000BH   BYTE   UNIT     XDATA          ?XD?GPS_UART_CALLBACK?ZF_DEVICE_GPS_TAU1201
L251 LINKER/LOCATER V4.66.93.0                                                        09/26/2025  18:18:13  PAGE 14


   *DEL*:           000095H   BYTE   UNIT     XDATA          ?XD?GPS_INIT?ZF_DEVICE_GPS_TAU1201
   *DEL*:           000075H   BYTE   INSEG    CODE           ?PR?TSL1401_SEND_DATA?ZF_DEVICE_TSL1401
   *DEL*:           00003DH   BYTE   INSEG    CODE           ?PR?TSL1401_INIT?ZF_DEVICE_TSL1401
   *DEL*:           00009BH   BYTE   INSEG    CODE           ?PR?TSL1401_COLLECT_PIT_HANDLER?ZF_DEVICE_TSL1401
   *DEL*:           00034DH   BYTE   INSEG    CODE           ?PR?SEEKFREE_ASSISTANT_CAMERA_BOUNDARY_CONFIG?SEEKFREE_ASS
                                                             -ISTANT
   *DEL*:           000101H   BYTE   INSEG    CODE           ?PR?SEEKFREE_ASSISTANT_CAMERA_DOT_SEND?SEEKFREE_ASSISTANT
   *DEL*:           000102H   BYTE   INSEG    CODE           ?PR?SEEKFREE_ASSISTANT_OSCILLOSCOPE_SEND?SEEKFREE_ASSISTAN
                                                             -T
   *DEL*:           00002EH   BYTE   INSEG    CODE           ?PR?SEEKFREE_ASSISTANT_INIT?SEEKFREE_ASSISTANT
   *DEL*:           000017H   BYTE   INSEG    CODE           ?PR?SEEKFREE_ASSISTANT_SUM?SEEKFREE_ASSISTANT
   *DEL*:           000037H   BYTE   INSEG    CODE           ?PR?SEEKFREE_ASSISTANT_CAMERA_INFORMATION_CONFIG?SEEKFREE_
                                                             -ASSISTANT
   *DEL*:           000265H   BYTE   INSEG    CODE           ?PR?SEEKFREE_ASSISTANT_DATA_ANALYSIS?SEEKFREE_ASSISTANT
   *DEL*:           00012AH   BYTE   INSEG    CODE           ?PR?SEEKFREE_ASSISTANT_CAMERA_DATA_SEND?SEEKFREE_ASSISTANT
   *DEL*:           00003FH   BYTE   INSEG    CODE           ?PR?SEEKFREE_ASSISTANT_CAMERA_SEND?SEEKFREE_ASSISTANT
   *DEL*:           00000AH   BYTE   UNIT     XDATA          ?XD?SEEKFREE_ASSISTANT_CAMERA_DATA_SEND?SEEKFREE_ASSISTANT
   *DEL*:           000002H   BYTE   UNIT     XDATA          ?XD?SEEKFREE_ASSISTANT_CAMERA_INFORMATION_CONFIG?SEEKFREE_
                                                             -ASSISTANT
   *DEL*:           000024H   BYTE   UNIT     XDATA          ?XD?SEEKFREE_ASSISTANT_OSCILLOSCOPE_SEND?SEEKFREE_ASSISTAN
                                                             -T
   *DEL*:           000003H   BYTE   UNIT     XDATA          ?XD?SEEKFREE_ASSISTANT_CAMERA_DOT_SEND?SEEKFREE_ASSISTANT
   *DEL*:           000014H   BYTE   UNIT     XDATA          ?XD?SEEKFREE_ASSISTANT_CAMERA_BOUNDARY_CONFIG?SEEKFREE_ASS
                                                             -ISTANT
   *DEL*:           000088H   BYTE   UNIT     XDATA          ?XD?SEEKFREE_ASSISTANT_DATA_ANALYSIS?SEEKFREE_ASSISTANT
   *DEL*:           000000H.1 BIT    UNIT     BIT            ?BI?SEEKFREE_ASSISTANT_DATA_ANALYSIS?SEEKFREE_ASSISTANT
   *DEL*:           00004DH   BYTE   INSEG    CODE           ?PR?SEEKFREE_ASSISTANT_INTERFACE_INIT?SEEKFREE_ASSISTANT_I
                                                             -NTERFACE
   *DEL*:           00007BH   BYTE   INSEG    CODE           ?PR?BATTERY_GET?ADC_GET
   *DEL*:           000002H   BYTE   UNIT     XDATA          ?XD?BATTERY_GET?ADC_GET
   *DEL*:           000030H   BYTE   INSEG    CODE           ?PR?EEPROM_READ_FLOAT?EEPROM
   *DEL*:           0000D0H   BYTE   INSEG    CODE           ?PR?EEPROM_SAVE_FLOAT?EEPROM
   *DEL*:           00020AH   BYTE   UNIT     XDATA          ?XD?EEPROM_SAVE_FLOAT?EEPROM
   *DEL*:           000000H.1 BIT    UNIT     BIT            ?BI?EEPROM_SAVE_FLOAT?EEPROM
   *DEL*:           000004H   BYTE   UNIT     XDATA          ?XD?EEPROM_READ_FLOAT?EEPROM
   *DEL*:           000000H.1 BIT    UNIT     BIT            ?BI?EEPROM_READ_FLOAT?EEPROM
   *DEL*:           00002CH   BYTE   INSEG    CODE           ?PR?OLED_DISPLAYTURN?OLED
   *DEL*:           0000DEH   BYTE   INSEG    CODE           ?PR?OLED_INIT?OLED
   *DEL*:           0000F5H   BYTE   INSEG    CODE           ?PR?OLED_SHOWSTRING?OLED
   *DEL*:           000070H   BYTE   INSEG    CODE           ?PR?OLED_WR_BYTE?OLED
   *DEL*:           0001BEH   BYTE   INSEG    CODE           ?PR?OLED_SHOWCHAR?OLED
   *DEL*:           00001EH   BYTE   INSEG    CODE           ?PR?OLED_COLORTURN?OLED
   *DEL*:           00002BH   BYTE   INSEG    CODE           ?PR?OLED_SET_POS?OLED
   *DEL*:           000017H   BYTE   INSEG    CODE           ?PR?DELAY_MS?OLED
   *DEL*:           0001C9H   BYTE   INSEG    CODE           ?PR?OLED_SHOWNUM?OLED
   *DEL*:           000017H   BYTE   INSEG    CODE           ?PR?OLED_POW?OLED
   *DEL*:           00010AH   BYTE   INSEG    CODE           ?PR?OLED_SHOWCHINESE?OLED
   *DEL*:           00003AH   BYTE   INSEG    CODE           ?PR?OLED_CLEAR?OLED
   *DEL*:           000006H   BYTE   UNIT     XDATA          ?XD?OLED_SHOWCHAR?OLED
   *DEL*:           000007H   BYTE   UNIT     XDATA          ?XD?OLED_SHOWNUM?OLED
   *DEL*:           000005H   BYTE   UNIT     XDATA          ?XD?OLED_SHOWSTRING?OLED
   *DEL*:           000005H   BYTE   UNIT     XDATA          ?XD?OLED_SHOWCHINESE?OLED
   *DEL*:           00001BH   BYTE   INSEG    CODE           ?PR?LINELOSSPROTECTION?STRATEGY
   *DEL*:           00019BH   BYTE   INSEG    CODE           ?PR?POW?_?POW
   *DEL*:           000037H   BYTE   INSEG    CODE           ?PR?STRNCMP?_?STRNCMP
   *DEL*:           000030H   BYTE   INSEG    CODE           ?PR?STRNCPY?_?STRNCPY
   *DEL*:           00000EH   BYTE   INSEG    CODE           ?PR?STRLEN?_?STRLEN
   *DEL*:           00001FH   BYTE   INSEG    CODE           ?PR?STRCHR?_?STRCHR
   *DEL*:           00001AH   BYTE   INSEG    CODE           ?PR?MEMSET?_?MEMSET



OVERLAY MAP OF MODULE:   .\out_file\SEEKFREE (ai8051u_isr)


L251 LINKER/LOCATER V4.66.93.0                                                        09/26/2025  18:18:13  PAGE 15


FUNCTION/MODULE                                BIT_GROUP   XDATA_GROUP
--> CALLED FUNCTION/MODULE                    START  STOP  START  STOP
======================================================================
?C_C51STARTUP                                 ----- -----  ----- -----

*** NEW ROOT ********************************

?C_C51STARTUP?3                               ----- -----  ----- -----
  +--> main/main

main/main                                     ----- -----  ----- -----
  +--> _m/main
  +--> SPRINTF/SPRINTF

_m/main                                       ----- -----  ----- -----
  +--> clock_init/zf_common_clock
  +--> debug_init/zf_common_debug
  +--> pit_handler0/main
  +--> pit_handler1/main
  +--> init_all/function
  +--> ADC_SampleAndFilter/ADC_Get
  +--> unification/function
  +--> Servo_turn_pid/control
  +--> menu_handle_key/menu
  +--> SET_Time/function
  +--> Protect/function
  +--> PWM_Test/Device_Test
  +--> Serve_Test/Device_Test

clock_init/zf_common_clock                    ----- -----  ----- -----
  +--> system_delay_init/zf_driver_delay
  +--> interrupt_global_enable/zf_common_interrupt

system_delay_init/zf_driver_delay             ----- -----  ----- -----
  +--> ?C?SLDIV/?C?SLDIV

?C?SLDIV/?C?SLDIV                             ----- -----  ----- -----
  +--> ?C?ULIDIV/?C?ULDIV

?C?ULIDIV/?C?ULDIV                            ----- -----  ----- -----

interrupt_global_enable/zf_common_interr+     ----- -----  ----- -----
... upt

debug_init/zf_common_debug                    ----- -----  ----- -----
  +--> uart_init/zf_driver_uart
  +--> fifo_init/zf_common_fifo
  +--> uart_rx_interrupt/zf_driver_uart
  +--> debug_interrupr_handler/zf_common_debug

uart_init/zf_driver_uart                      ----- -----  055EH 0563H
  +--> uart_funciton_check/zf_driver_uart
  +--> debug_assert_handler/zf_common_debug
  +--> timer_funciton_check/zf_driver_timer
  +--> gpio_init/zf_driver_gpio
  +--> ?C?ULIDIV/?C?ULDIV
  +--> uart_dma_init/zf_driver_uart

uart_funciton_check/zf_driver_uart            ----- -----  ----- -----

debug_assert_handler/zf_common_debug          ----- -----  059DH 05ACH
  +--> PRINTF/PRINTF
  +--> system_delay_ms/zf_driver_delay

PRINTF/PRINTF                                 ----- -----  05ADH 05D4H
L251 LINKER/LOCATER V4.66.93.0                                                        09/26/2025  18:18:13  PAGE 16


  +--> OUT/PRINTF

OUT/PRINTF                                    ----- -----  ----- -----
  +--> PUTCH/PRINTF

PUTCH/PRINTF                                  ----- -----  ----- -----
  +--> putchar/zf_common_debug
  +--> OUT/PRINTF

putchar/zf_common_debug                       ----- -----  ----- -----
  +--> uart_write_byte/zf_driver_uart

uart_write_byte/zf_driver_uart                ----- -----  05D5H 05D5H
  +--> uart_write_buffer/zf_driver_uart

uart_write_buffer/zf_driver_uart              ----- -----  ----- -----

system_delay_ms/zf_driver_delay               ----- -----  ----- -----

timer_funciton_check/zf_driver_timer          ----- -----  ----- -----

gpio_init/zf_driver_gpio                      ----- -----  056EH 0570H
  +--> debug_assert_handler/zf_common_debug
  +--> gpio_set_dir/zf_driver_gpio
  +--> gpio_set_mode/zf_driver_gpio
  +--> gpio_set_impedance/zf_driver_gpio
  +--> gpio_set_level/zf_driver_gpio

gpio_set_dir/zf_driver_gpio                   ----- -----  ----- -----
  +--> debug_assert_handler/zf_common_debug

gpio_set_mode/zf_driver_gpio                  ----- -----  ----- -----
  +--> debug_assert_handler/zf_common_debug

gpio_set_impedance/zf_driver_gpio             ----- -----  ----- -----
  +--> debug_assert_handler/zf_common_debug

gpio_set_level/zf_driver_gpio                 ----- -----  ----- -----
  +--> debug_assert_handler/zf_common_debug

uart_dma_init/zf_driver_uart                  ----- -----  ----- -----

fifo_init/zf_common_fifo                      ----- -----  055EH 0567H
  +--> debug_assert_handler/zf_common_debug

uart_rx_interrupt/zf_driver_uart              ----- -----  ----- -----

debug_interrupr_handler/zf_common_debug       ----- -----  055EH 055EH
  +--> uart_query_byte/zf_driver_uart
  +--> fifo_write_buffer/zf_common_fifo

uart_query_byte/zf_driver_uart                ----- -----  ----- -----
  +--> uart_rx_start_buff/zf_driver_uart

uart_rx_start_buff/zf_driver_uart             ----- -----  ----- -----

fifo_write_buffer/zf_common_fifo              ----- -----  055FH 056CH
  +--> debug_assert_handler/zf_common_debug
  +--> memcpy?_/memcpy
  +--> fifo_head_offset/zf_common_fifo

memcpy?_/memcpy                               ----- -----  ----- -----

fifo_head_offset/zf_common_fifo               ----- -----  ----- -----

L251 LINKER/LOCATER V4.66.93.0                                                        09/26/2025  18:18:13  PAGE 17


pit_handler0/main                             ----- -----  ----- -----

pit_handler1/main                             ----- -----  ----- -----
  +--> Key_scaner/Key
  +--> Show_pararm/function

Key_scaner/Key                                ----- -----  ----- -----
  +--> Key_Number/Key
  +--> Turn_mode/Key

Key_Number/Key                                ----- -----  ----- -----
  +--> gpio_get_level/zf_driver_gpio

gpio_get_level/zf_driver_gpio                 ----- -----  ----- -----
  +--> debug_assert_handler/zf_common_debug

Turn_mode/Key                                 ----- -----  ----- -----
  +--> Turn_mode_Init/function

Turn_mode_Init/function                       ----- -----  ----- -----
  +--> CAR_STOP/function
  +--> tft180_clear/zf_device_tft180
  +--> tft180_show_string/zf_device_tft180
  +--> system_delay_ms/zf_driver_delay
  +--> Refesh_arrow/menu
  +--> menu_display_content/menu
  +--> Motor_Update/control
  +--> PID_Update/control

CAR_STOP/function                             ----- -----  ----- -----
  +--> MotorL_SetSpeed/control
  +--> MotorR_SetSpeed/control
  +--> Ser_Servo_Duty/control

MotorL_SetSpeed/control                       ----- -----  ----- -----
  +--> pwm_set_duty/zf_driver_pwm

pwm_set_duty/zf_driver_pwm                    ----- -----  055EH 0569H
  +--> debug_assert_handler/zf_common_debug

MotorR_SetSpeed/control                       ----- -----  ----- -----
  +--> pwm_set_duty/zf_driver_pwm

Ser_Servo_Duty/control                        ----- -----  ----- -----
  +--> pwm_set_duty/zf_driver_pwm

tft180_clear/zf_device_tft180                 ----- -----  055EH 0561H
  +--> tft180_set_region/zf_device_tft180
  +--> spi_write_16bit/zf_driver_spi

tft180_set_region/zf_device_tft180            ----- -----  0599H 059CH
  +--> debug_assert_handler/zf_common_debug
  +--> tft180_write_index/zf_device_tft180
  +--> spi_write_16bit/zf_driver_spi

tft180_write_index/zf_device_tft180           ----- -----  ----- -----
  +--> spi_write_8bit/zf_driver_spi

spi_write_8bit/zf_driver_spi                  ----- -----  ----- -----
  +--> spi_write_dat/zf_driver_spi

spi_write_dat/zf_driver_spi                   ----- -----  ----- -----
  +--> debug_assert_handler/zf_common_debug

spi_write_16bit/zf_driver_spi                 ----- -----  ----- -----
L251 LINKER/LOCATER V4.66.93.0                                                        09/26/2025  18:18:13  PAGE 18


  +--> spi_write_dat/zf_driver_spi

tft180_show_string/zf_device_tft180           ----- -----  058FH 0594H
  +--> debug_assert_handler/zf_common_debug
  +--> tft180_show_char/zf_device_tft180

tft180_show_char/zf_device_tft180             ----- -----  0595H 0598H
  +--> debug_assert_handler/zf_common_debug
  +--> tft180_set_region/zf_device_tft180
  +--> spi_write_16bit/zf_driver_spi

Refesh_arrow/menu                             ----- -----  ----- -----
  +--> tft180_show_string/zf_device_tft180

menu_display_content/menu                     ----- -----  ----- -----
  +--> tft180_show_string/zf_device_tft180
  +--> tft180_show_float/zf_device_tft180

tft180_show_float/zf_device_tft180            ----- -----  055EH 058EH
  +--> debug_assert_handler/zf_common_debug
  +--> zf_sprintf/zf_common_function
  +--> tft180_show_string/zf_device_tft180

zf_sprintf/zf_common_function                 ----- -----  058FH 05F1H
  +--> number_conversion_ascii/zf_common_function
  +--> printf_reverse_order/zf_common_function
  +--> memcpy?_/memcpy

number_conversion_ascii/zf_common_functi+     ----- -----  05F2H 05F2H
... on
  +--> ?C?SLDIV/?C?SLDIV
  +--> ?C?ULIDIV/?C?ULDIV

printf_reverse_order/zf_common_function       ----- -----  ----- -----

Motor_Update/control                          ----- -----  ----- -----
  +--> MotorR_SetSpeed/control
  +--> MotorL_SetSpeed/control

PID_Update/control                            ----- -----  ----- -----

Show_pararm/function                          ----- -----  ----- -----
  +--> tft180_show_string/zf_device_tft180
  +--> tft180_show_float/zf_device_tft180
  +--> tft180_show_int16/zf_device_tft180

tft180_show_int16/zf_device_tft180            ----- -----  055EH 0565H
  +--> debug_assert_handler/zf_common_debug
  +--> tft180_show_char/zf_device_tft180

init_all/function                             ----- -----  ----- -----
  +--> Motor_Init/function
  +--> Servo_Init/function
  +--> iap_init/zf_driver_eeprom
  +--> ADC_GetInit/ADC_Get
  +--> tft180_init/zf_device_tft180
  +--> tft180_set_color/zf_device_tft180
  +--> eeprom_read_Num/eeprom
  +--> menu_Init/menu
  +--> ?C?SLDIV/?C?SLDIV
  +--> pit_init/zf_driver_pit

Motor_Init/function                           ----- -----  ----- -----
  +--> pwm_init/zf_driver_pwm

L251 LINKER/LOCATER V4.66.93.0                                                        09/26/2025  18:18:13  PAGE 19


pwm_init/zf_driver_pwm                        ----- -----  055EH 056BH
  +--> debug_assert_handler/zf_common_debug
  +--> gpio_init/zf_driver_gpio
  +--> ?C?ULIDIV/?C?ULDIV

Servo_Init/function                           ----- -----  ----- -----
  +--> system_delay_init/zf_driver_delay
  +--> pwm_init/zf_driver_pwm

iap_init/zf_driver_eeprom                     ----- -----  ----- -----
  +--> iap_set_tps/zf_driver_eeprom

iap_set_tps/zf_driver_eeprom                  ----- -----  ----- -----
  +--> ?C?SLDIV/?C?SLDIV

ADC_GetInit/ADC_Get                           ----- -----  ----- -----
  +--> adc_init/zf_driver_adc

adc_init/zf_driver_adc                        ----- -----  ----- -----

tft180_init/zf_device_tft180                  ----- -----  ----- -----
  +--> spi_init/zf_driver_spi
  +--> tft180_set_dir/zf_device_tft180
  +--> tft180_set_color/zf_device_tft180
  +--> system_delay_ms/zf_driver_delay
  +--> tft180_write_index/zf_device_tft180
  +--> spi_write_8bit/zf_driver_spi
  +--> tft180_clear/zf_device_tft180

spi_init/zf_driver_spi                        ----- -----  055EH 056DH
  +--> debug_assert_handler/zf_common_debug
  +--> gpio_init/zf_driver_gpio
  +--> gpio_set_level_speed/zf_driver_gpio
  +--> ?C?ULIDIV/?C?ULDIV
  +--> uart_funciton_check/zf_driver_uart

gpio_set_level_speed/zf_driver_gpio           ----- -----  ----- -----
  +--> debug_assert_handler/zf_common_debug

tft180_set_dir/zf_device_tft180               ----- -----  ----- -----

tft180_set_color/zf_device_tft180             ----- -----  ----- -----

eeprom_read_Num/eeprom                        20H.0 20H.0  055EH 075DH
  +--> iap_read_buff/zf_driver_eeprom
  +--> memcpy?_/memcpy

iap_read_buff/zf_driver_eeprom                ----- -----  075EH 0763H
  +--> iap_read_byte/zf_driver_eeprom

iap_read_byte/zf_driver_eeprom                20H.1 20H.1  ----- -----
  +--> eeprom_trig/zf_driver_eeprom

eeprom_trig/zf_driver_eeprom                  ----- -----  ----- -----

menu_Init/menu                                ----- -----  ----- -----
  +--> Menu_SetChildren/menu
  +--> Refesh_arrow/menu
  +--> menu_display_content/menu

Menu_SetChildren/menu                         ----- -----  ----- -----

pit_init/zf_driver_pit                        ----- -----  ----- -----
  +--> ?C?ULIDIV/?C?ULDIV

L251 LINKER/LOCATER V4.66.93.0                                                        09/26/2025  18:18:13  PAGE 20


ADC_SampleAndFilter/ADC_Get                   ----- -----  ----- -----
  +--> adc_convert/zf_driver_adc
  +--> adc_filter/ADC_Get

adc_convert/zf_driver_adc                     ----- -----  ----- -----

adc_filter/ADC_Get                            ----- -----  ----- -----
  +--> ?C?ULIDIV/?C?ULDIV

unification/function                          ----- -----  055EH 0569H
  +--> fast_sqrt/function

fast_sqrt/function                            ----- -----  056AH 0571H
  +--> memcpy?_/memcpy

Servo_turn_pid/control                        ----- -----  ----- -----
  +--> Normal_PID/function
  +--> pwm_set_duty/zf_driver_pwm

Normal_PID/function                           ----- -----  055EH 0561H

menu_handle_key/menu                          ----- -----  ----- -----
  +--> handle_key1/menu
  +--> handle_key2/menu
  +--> handle_key3/menu
  +--> handle_key4/menu

handle_key1/menu                              ----- -----  ----- -----
  +--> tft180_show_string/zf_device_tft180
  +--> tft180_clear/zf_device_tft180
  +--> menu_display_content/menu
  +--> Refesh_arrow/menu

handle_key2/menu                              ----- -----  ----- -----
  +--> tft180_show_string/zf_device_tft180

handle_key3/menu                              ----- -----  ----- -----
  +--> Key3_handle1/menu
  +--> Key3_handle2/menu

Key3_handle1/menu                             ----- -----  ----- -----
  +--> Refesh_arrow/menu

Key3_handle2/menu                             ----- -----  ----- -----
  +--> eeprom_save_Num/eeprom
  +--> tft180_clear/zf_device_tft180
  +--> Refesh_arrow/menu
  +--> menu_display_content/menu

eeprom_save_Num/eeprom                        20H.0 20H.0  055EH 075DH
  +--> iap_read_buff/zf_driver_eeprom
  +--> memcpy?_/memcpy
  +--> iap_erase_page/zf_driver_eeprom
  +--> system_delay_ms/zf_driver_delay
  +--> iap_write_buff/zf_driver_eeprom

iap_erase_page/zf_driver_eeprom               20H.1 20H.1  ----- -----
  +--> eeprom_trig/zf_driver_eeprom
  +--> system_delay_ms/zf_driver_delay

iap_write_buff/zf_driver_eeprom               ----- -----  075EH 0763H
  +--> iap_write_byte/zf_driver_eeprom

iap_write_byte/zf_driver_eeprom               20H.1 20H.1  ----- -----
  +--> eeprom_trig/zf_driver_eeprom
L251 LINKER/LOCATER V4.66.93.0                                                        09/26/2025  18:18:13  PAGE 21



handle_key4/menu                              ----- -----  ----- -----
  +--> menu_display_content/menu
  +--> tft180_show_string/zf_device_tft180
  +--> tft180_clear/zf_device_tft180
  +--> Refesh_arrow/menu

SET_Time/function                             ----- -----  ----- -----
  +--> Turn_mode_Init/function

Protect/function                              ----- -----  ----- -----
  +--> Turn_mode_Init/function

PWM_Test/Device_Test                          ----- -----  ----- -----
  +--> MotorL_SetSpeed/control
  +--> MotorR_SetSpeed/control

Serve_Test/Device_Test                        ----- -----  ----- -----
  +--> Ser_Servo_Duty/control
  +--> system_delay_ms/zf_driver_delay

SPRINTF/SPRINTF                               ----- -----  055EH 0585H
  +--> OUT/SPRINTF

OUT/SPRINTF                                   ----- -----  ----- -----
  +--> PUTCH/SPRINTF

PUTCH/SPRINTF                                 ----- -----  ----- -----

*** NEW ROOT ********************************

TM11_IRQHandler/isr                           ----- -----  ----- -----

*** NEW ROOT ********************************

DMA_UART1_IRQHandler/isr                      ----- -----  ----- -----
  +--> uart_rx_start_buff/zf_driver_uart

*** NEW ROOT ********************************

DMA_UART2_IRQHandler/isr                      ----- -----  ----- -----
  +--> uart_rx_start_buff/zf_driver_uart

*** NEW ROOT ********************************

DMA_UART3_IRQHandler/isr                      ----- -----  ----- -----
  +--> uart_rx_start_buff/zf_driver_uart

*** NEW ROOT ********************************

DMA_UART4_IRQHandler/isr                      ----- -----  ----- -----
  +--> uart_rx_start_buff/zf_driver_uart

*** NEW ROOT ********************************

TM0_IRQHandler/isr                            ----- -----  ----- -----

*** NEW ROOT ********************************

TM1_IRQHandler/isr                            ----- -----  ----- -----

*** NEW ROOT ********************************

TM2_IRQHandler/isr                            ----- -----  ----- -----

L251 LINKER/LOCATER V4.66.93.0                                                        09/26/2025  18:18:13  PAGE 22


*** NEW ROOT ********************************

TM3_IRQHandler/isr                            ----- -----  ----- -----

*** NEW ROOT ********************************

TM4_IRQHandler/isr                            ----- -----  ----- -----

*** NEW ROOT ********************************

?C_C51STARTUP?1                               ----- -----  ----- -----

*** NEW ROOT ********************************

?C_C51STARTUP?2                               ----- -----  ----- -----



PUBLIC SYMBOLS OF MODULE:  .\out_file\SEEKFREE (ai8051u_isr)


      VALUE       CLASS    TYPE      PUBLIC SYMBOL NAME
      =================================================
      00FF3919H   CODE     ---       ?C?BMOVEPP
      00FF3917H   CODE     ---       ?C?BMOVEPP8
      00FF259FH   CODE     NEAR LAB  ?C?CASTD
      00FF3807H   CODE     NEAR LAB  ?C?CASTF
      000000FFH   NUMBER   ---       ?C?CODESEG
      00FF255CH   CODE     NEAR LAB  ?C?DCASTC
      00FF25FFH   CODE     NEAR LAB  ?C?DCASTF
      00FF2557H   CODE     NEAR LAB  ?C?DCASTI
      00FF2552H   CODE     NEAR LAB  ?C?DCASTL
      00FF2FD3H   CODE     ---       ?C?DP2SERIES
      00FF2225H   CODE     ---       ?C?DPADD
      00FF24E5H   CODE     ---       ?C?DPCMP
      00FF24E3H   CODE     ---       ?C?DPCMP3
      00FF32BEH   CODE     ---       ?C?DPCONVERT
      00FF2444H   CODE     ---       ?C?DPDIV
      00FF2AF5H   CODE     ---       ?C?DPGETOPN2
      00FF2334H   CODE     ---       ?C?DPMUL
      00FF2B40H   CODE     ---       ?C?DPNANRESULT
      00FF2544H   CODE     ---       ?C?DPNEG
      00FF2B4CH   CODE     ---       ?C?DPOVERFLOW
      00FF2B18H   CODE     ---       ?C?DPRESULT
      00FF2B31H   CODE     ---       ?C?DPRESULT2
      00FF33E5H   CODE     ---       ?C?DPROUND
      00FF2FDEH   CODE     ---       ?C?DPSERIES
      00FF2221H   CODE     ---       ?C?DPSUB
      00FF2B47H   CODE     ---       ?C?DPUNDERFLOW
      00FF34C0H   CODE     ---       ?C?DTNPWR
      00FF37D4H   CODE     NEAR LAB  ?C?FCASTC
      00FF2641H   CODE     NEAR LAB  ?C?FCASTD
      00FF37CFH   CODE     NEAR LAB  ?C?FCASTI
      00FF37CAH   CODE     NEAR LAB  ?C?FCASTL
      00FF359DH   CODE     ---       ?C?FPADD
      00FF3778H   CODE     ---       ?C?FPCMP
      00FF3776H   CODE     ---       ?C?FPCMP3
      00FF36F5H   CODE     ---       ?C?FPDIV
      00FF3546H   CODE     ---       ?C?FPGETOPN2
      00FF3655H   CODE     ---       ?C?FPMUL
      00FF3583H   CODE     ---       ?C?FPNANRESULT
      00FF37BCH   CODE     ---       ?C?FPNEG
      00FF358BH   CODE     ---       ?C?FPOVERFLOW
      00FF355FH   CODE     ---       ?C?FPRESULT
      00FF3575H   CODE     ---       ?C?FPRESULT2
L251 LINKER/LOCATER V4.66.93.0                                                        09/26/2025  18:18:13  PAGE 23


      00FF359AH   CODE     ---       ?C?FPSUB
      00FF3588H   CODE     ---       ?C?FPUNDERFLOW
      00FFA30CH   CODE     ---       ?C?INITHDATA
      00FFB520H   HCONST   WORD      ?C?INITHDATA_END
      00FF3887H   CODE     ---       ?C?LIMUL
      00FF3876H   CODE     ---       ?C?LMUL
      00FF2BA5H   CODE     ---       ?C?PRNFMT
      00FF3844H   CODE     ---       ?C?SIDIV
      00FF38E3H   CODE     NEAR LAB  ?C?SLDIV
      00FF0000H   CODE     ---       ?C?STARTUP
      00FF3892H   CODE     NEAR LAB  ?C?ULDIV
      00FF3890H   CODE     NEAR LAB  ?C?ULIDIV
      00000001H   NUMBER   ---       ?C?XDATASEG
      00FF0000H   CODE     ---       ?C_STARTUP
      0001055AH   XDATA    BYTE      ?fifo_init?BYTE
*DEL*:1FFFFFFCH   XDATA    BYTE      ?fifo_read_buffer?BYTE
      0001055BH   XDATA    BYTE      ?fifo_write_buffer?BYTE
*DEL*:1FFFFFFCH   XDATA    BYTE      ?func_double_to_str?BYTE
*DEL*:00000000H   XDATA    BYTE      ?get_two_points_azimuth?BYTE
*DEL*:00000000H   XDATA    BYTE      ?get_two_points_distance?BYTE
      0001075AH   XDATA    BYTE      ?iap_read_buff?BYTE
      0001075AH   XDATA    BYTE      ?iap_write_buff?BYTE
*DEL*:1FFFFFFCH   XDATA    BYTE      ?ips114_show_chinese?BYTE
*DEL*:1FFFFFFEH   XDATA    BYTE      ?ips114_show_float?BYTE
*DEL*:1FFFFFFCH   XDATA    BYTE      ?ips114_show_wave?BYTE
*DEL*:1FFFFFFCH   XDATA    BYTE      ?ips200_show_chinese?BYTE
*DEL*:1FFFFFFEH   XDATA    BYTE      ?ips200_show_float?BYTE
*DEL*:1FFFFFFCH   XDATA    BYTE      ?ips200_show_wave?BYTE
      00010556H   XDATA    BYTE      ?Normal_PID?BYTE
      000105D5H   XDATA    ---       ?printf?BYTE
      0001055CH   XDATA    BYTE      ?pwm_init?BYTE
*DEL*:1FFFFFFEH   XDATA    BYTE      ?pwm_set_freq?BYTE
*DEL*:1FFFFFF8H   XDATA    BYTE      ?seekfree_assistant_camera_boundary_config?BYTE
*DEL*:1FFFFFFBH   XDATA    BYTE      ?seekfree_assistant_camera_data_send?BYTE
*DEL*:1FFFFFF8H   XDATA    BYTE      ?seekfree_assistant_camera_information_config?BYTE
*DEL*:1FFFFFFCH   XDATA    BYTE      ?soft_iic_init?BYTE
*DEL*:1FFFFFFCH   XDATA    BYTE      ?soft_iic_read_16bit_array?BYTE
*DEL*:1FFFFFFCH   XDATA    BYTE      ?soft_iic_read_16bit_registers?BYTE
*DEL*:1FFFFFFCH   XDATA    BYTE      ?soft_iic_read_8bit_array?BYTE
*DEL*:1FFFFFFCH   XDATA    BYTE      ?soft_iic_read_8bit_registers?BYTE
*DEL*:1FFFFFFCH   XDATA    BYTE      ?soft_iic_transfer_16bit_array?BYTE
*DEL*:1FFFFFFCH   XDATA    BYTE      ?soft_iic_transfer_8bit_array?BYTE
*DEL*:1FFFFFFCH   XDATA    BYTE      ?soft_iic_write_16bit_array?BYTE
*DEL*:1FFFFFFCH   XDATA    BYTE      ?soft_iic_write_16bit_registers?BYTE
*DEL*:1FFFFFFCH   XDATA    BYTE      ?soft_iic_write_8bit_array?BYTE
*DEL*:1FFFFFFCH   XDATA    BYTE      ?soft_iic_write_8bit_registers?BYTE
*DEL*:1FFFFFFCH   XDATA    BYTE      ?soft_spi_init?BYTE
*DEL*:1FFFFFFCH   XDATA    BYTE      ?soft_spi_read_16bit_array?BYTE
*DEL*:1FFFFFFCH   XDATA    BYTE      ?soft_spi_read_16bit_registers?BYTE
*DEL*:1FFFFFFCH   XDATA    BYTE      ?soft_spi_read_8bit_array?BYTE
*DEL*:1FFFFFFCH   XDATA    BYTE      ?soft_spi_read_8bit_registers?BYTE
*DEL*:1FFFFFFCH   XDATA    BYTE      ?soft_spi_transfer_16bit?BYTE
*DEL*:1FFFFFFCH   XDATA    BYTE      ?soft_spi_transfer_8bit?BYTE
*DEL*:1FFFFFFCH   XDATA    BYTE      ?soft_spi_write_16bit_array?BYTE
*DEL*:1FFFFFFCH   XDATA    BYTE      ?soft_spi_write_16bit_registers?BYTE
*DEL*:1FFFFFFCH   XDATA    BYTE      ?soft_spi_write_8bit_array?BYTE
*DEL*:1FFFFFFCH   XDATA    BYTE      ?soft_spi_write_8bit_registers?BYTE
      0001055AH   XDATA    BYTE      ?spi_init?BYTE
*DEL*:1FFFFFFCH   XDATA    BYTE      ?spi_read_16bit_array?BYTE
*DEL*:1FFFFFFCH   XDATA    BYTE      ?spi_read_16bit_registers?BYTE
*DEL*:1FFFFFFCH   XDATA    BYTE      ?spi_read_8bit_array?BYTE
*DEL*:1FFFFFFBH   XDATA    BYTE      ?spi_read_8bit_registers?BYTE
*DEL*:1FFFFFFCH   XDATA    BYTE      ?spi_transfer_16bit?BYTE
*DEL*:1FFFFFFCH   XDATA    BYTE      ?spi_transfer_8bit?BYTE
*DEL*:1FFFFFFCH   XDATA    BYTE      ?spi_write_16bit_array?BYTE
L251 LINKER/LOCATER V4.66.93.0                                                        09/26/2025  18:18:13  PAGE 24


*DEL*:1FFFFFFCH   XDATA    BYTE      ?spi_write_16bit_registers?BYTE
*DEL*:1FFFFFFCH   XDATA    BYTE      ?spi_write_8bit_array?BYTE
*DEL*:1FFFFFFBH   XDATA    BYTE      ?spi_write_8bit_registers?BYTE
      00010586H   XDATA    ---       ?sprintf?BYTE
      0001055CH   XDATA    BYTE      ?tft180_show_float?BYTE
*DEL*:1FFFFFFCH   XDATA    BYTE      ?tft180_show_wave?BYTE
      0001055AH   XDATA    BYTE      ?uart_init?BYTE
      000105B7H   XDATA    BYTE      ?zf_sprintf?BYTE
      00FF2B5AH   CODE     ---       _chkdouble_?_
      00FF90AEH   CODE     ---       _m
*SFR* 000000D0H.6 DATA     BIT       AC
*SFR* 000000E0H   DATA     BYTE      ACC
      0001052CH   XDATA    FLOAT     ADC_1
      00010530H   XDATA    FLOAT     ADC_2
      00010534H   XDATA    FLOAT     ADC_3
      00010538H   XDATA    FLOAT     ADC_4
      0001053CH   XDATA    FLOAT     ADC_5
      00010540H   XDATA    FLOAT     ADC_6
      0001054FH   XDATA    FLOAT     ADC_8
*SFR* 000000BCH   DATA     BYTE      ADC_CONTR
      00FFA914H   CODE     ---       adc_convert
      00FF95BCH   CODE     ---       adc_filter
      00FFA944H   CODE     ---       ADC_GetInit
      00FF9B77H   CODE     ---       adc_init
*DEL*:00000000H   CODE     ---       adc_mean_filter_convert
      00010DA2H   XDATA    ---       ADC_Num
*SFR* 000000BDH   DATA     BYTE      ADC_RES
*SFR* 000000BEH   DATA     BYTE      ADC_RESL
      00FF88C2H   CODE     ---       ADC_SampleAndFilter
*SFR* 000000DEH   DATA     BYTE      ADCCFG
      00FF3940H   CODE     ---       asc2_0806
      00FF3B68H   CODE     ---       asc2_1608
      00FF54DAH   CODE     ---       ascii_font_8x16
      00FF2ACBH   CODE     ---       asin?_
      00FF29B0H   CODE     ---       atan?_
*SFR* 000000EFH   DATA     BYTE      AUXINTIF
*SFR* 0000008EH   DATA     BYTE      AUXR
*SFR* 00000097H   DATA     BYTE      AUXR2
*SFR* 000000F0H   DATA     BYTE      B
*DEL*:00000000H   CODE     ---       battery_get
      00000020H.2 BIT      BIT       Battery_Init
*DEL*:00000000H   CODE     ---       ble6a20_callback
*DEL*:00000000H   CODE     ---       ble6a20_init
*DEL*:00000000H   CODE     ---       ble6a20_read_buffer
*DEL*:00000000H   CODE     ---       ble6a20_send_buffer
*DEL*:00000000H   CODE     ---       ble6a20_send_byte
*DEL*:00000000H   CODE     ---       ble6a20_send_string
      00010E5AH   XDATA    FLOAT     bujin
*SFR* 000000C8H.1 DATA     BIT       C_T2
      00010EEAH   XDATA    BYTE      CAR_Mode
      00FFAAF7H   CODE     ---       CAR_STOP
*SFR* 000000FAH   DATA     BYTE      CCAP0H
*SFR* 000000EAH   DATA     BYTE      CCAP0L
*SFR* 000000FBH   DATA     BYTE      CCAP1H
*SFR* 000000EBH   DATA     BYTE      CCAP1L
*SFR* 000000FCH   DATA     BYTE      CCAP2H
*SFR* 000000ECH   DATA     BYTE      CCAP2L
*SFR* 000000FDH   DATA     BYTE      CCAP3H
*SFR* 000000EDH   DATA     BYTE      CCAP3L
*SFR* 000000FEH   DATA     BYTE      CCAP4H
*SFR* 000000EEH   DATA     BYTE      CCAP4L
*SFR* 000000DAH   DATA     BYTE      CCAPM0
*SFR* 000000DBH   DATA     BYTE      CCAPM1
*SFR* 000000DCH   DATA     BYTE      CCAPM2
*SFR* 000000DDH   DATA     BYTE      CCAPM3
L251 LINKER/LOCATER V4.66.93.0                                                        09/26/2025  18:18:13  PAGE 25


*SFR* 000000DEH   DATA     BYTE      CCAPM4
*SFR* 000000D8H.0 DATA     BIT       CCF0
*SFR* 000000D8H.1 DATA     BIT       CCF1
*SFR* 000000D8H.2 DATA     BIT       CCF2
*SFR* 000000D8H.3 DATA     BIT       CCF3
*SFR* 000000D8H.4 DATA     BIT       CCF4
*SFR* 000000D8H   DATA     BYTE      CCON
*SFR* 00000090H.3 DATA     BIT       CEX0
*SFR* 00000090H.4 DATA     BIT       CEX1
*SFR* 00000090H.5 DATA     BIT       CEX2
*SFR* 00000090H.6 DATA     BIT       CEX3
*SFR* 00000090H.7 DATA     BIT       CEX4
*SFR* 000000D8H.7 DATA     BIT       CF
*SFR* 000000F9H   DATA     BYTE      CH
*SFR* 000000EAH   DATA     BYTE      CKCON
*SFR* 000000E9H   DATA     BYTE      CL
      00FF8D5DH   CODE     ---       clock_init
*SFR* 000000D9H   DATA     BYTE      CMOD
*SFR* 000000E6H   DATA     BYTE      CMPCR1
*SFR* 000000E7H   DATA     BYTE      CMPCR2
      00FF2818H   CODE     ---       cos?_
*SFR* 000000C8H.0 DATA     BIT       CP_RL2
*SFR* 000000D8H.6 DATA     BIT       CR
*SFR* 000000D0H.7 DATA     BIT       CY
      00FFA09CH   CODE     ---       debug_assert_handler
      00FF9707H   CODE     ---       debug_init
      00FFA837H   CODE     ---       debug_interrupr_handler
*DEL*:00000000H   CODE     ---       debug_read_buffer
*DEL*:00000000H   CODE     ---       debug_send_buffer
      00010C73H   XDATA    ---       debug_uart_buffer
      00010CB4H   XDATA    ---       debug_uart_fifo
*DEL*:00000000H   CODE     ---       delay_ms
      00010E55H   XDATA    WORD      dl1a_distance_mm
      00010E57H   XDATA    BYTE      dl1a_finsh_flag
*DEL*:00000000H   CODE     ---       dl1a_get_distance
*DEL*:00000000H   CODE     ---       dl1a_init
*DEL*:00000000H   CODE     ---       dl1a_int_handler
      00FF9662H   CODE     ---       DMA_UART1_IRQHandler
      00FF9953H   CODE     ---       DMA_UART2_IRQHandler
      00FF99DCH   CODE     ---       DMA_UART3_IRQHandler
      00FF9A65H   CODE     ---       DMA_UART4_IRQHandler
*SFR* 00000083H   DATA     BYTE      DPH
*SFR* 00000082H   DATA     BYTE      DPL
*SFR* 00000084H   DATA     BYTE      DPXL
*SFR* 000000A8H.7 DATA     BIT       EA
*SFR* 000000A8H.6 DATA     BIT       EC
*SFR* 00000090H.2 DATA     BIT       ECI
*DEL*:00000000H   CODE     ---       eeprom_read_float
      00FFA397H   CODE     ---       eeprom_read_Num
*DEL*:00000000H   CODE     ---       eeprom_save_float
      00FF9AEEH   CODE     ---       eeprom_save_Num
      00FF019EH   CODE     ---       eeprom_trig
*DEL*:00000000H   CODE     ---       encoder_clear_count
*DEL*:00000000H   CODE     ---       encoder_dir_init
*DEL*:00000000H   CODE     ---       encoder_get_count
*SFR* 000000A8H.4 DATA     BIT       ES
*SFR* 000000A8H.1 DATA     BIT       ET0
*SFR* 000000A8H.3 DATA     BIT       ET1
*SFR* 000000A8H.5 DATA     BIT       ET2
*SFR* 000000A8H.0 DATA     BIT       EX0
*SFR* 000000A8H.2 DATA     BIT       EX1
*SFR* 000000C8H.3 DATA     BIT       EXEN2
*SFR* 000000C8H.6 DATA     BIT       EXF2
      00FF30BAH   CODE     ---       exp?_
*DEL*:00000000H   CODE     ---       extern_iap_write_buff
L251 LINKER/LOCATER V4.66.93.0                                                        09/26/2025  18:18:13  PAGE 26


*SFR* 000000D0H.5 DATA     BIT       F0
      00FF9460H   CODE     ---       fast_sqrt
*SFR* 00000098H.7 DATA     BIT       FE
*DEL*:00000000H   CODE     ---       fifo_clear
      00FF9D03H   CODE     ---       fifo_init
*DEL*:00000000H   CODE     ---       fifo_read_buffer
*DEL*:00000000H   CODE     ---       fifo_used
      00FF647FH   CODE     ---       fifo_write_buffer
      00010DB0H   XDATA    ---       filtered_adc
      00010E65H   XDATA    CHAR      Flag
*DEL*:00000000H   CODE     ---       func_double_to_str
*DEL*:00000000H   CODE     ---       func_float_to_str
*DEL*:00000000H   CODE     ---       func_get_greatest_common_divisor
*DEL*:00000000H   CODE     ---       func_hex_to_str
*DEL*:00000000H   CODE     ---       func_int_to_str
*DEL*:00000000H   CODE     ---       func_soft_delay
*DEL*:00000000H   CODE     ---       func_str_to_double
*DEL*:00000000H   CODE     ---       func_str_to_float
*DEL*:00000000H   CODE     ---       func_str_to_hex
*DEL*:00000000H   CODE     ---       func_str_to_int
*DEL*:00000000H   CODE     ---       func_str_to_uint
*DEL*:00000000H   CODE     ---       func_uint_to_str
*DEL*:00000000H   CODE     ---       get_two_points_azimuth
*DEL*:00000000H   CODE     ---       get_two_points_distance
      00FF00C6H   CODE     ---       gpio_get_level
      00FF9234H   CODE     ---       gpio_init
      00FF82DEH   CODE     ---       gpio_set_impedance
      00FF8024H   CODE     ---       gpio_set_level
      00FF6F25H   CODE     ---       gpio_set_level_speed
*DEL*:00000000H   CODE     ---       gpio_toggle_level
*DEL*:00000000H   CODE     ---       gps_data_parse
      00010B32H   XDATA    INT       gps_gga_state
*DEL*:00000000H   CODE     ---       gps_init
      00010B34H   XDATA    INT       gps_rmc_state
      000109FEH   XDATA    ---       gps_tau1201
      0001097DH   XDATA    BYTE      gps_tau1201_flag
      00010EB6H   XDATA    INT       gps_type
*DEL*:00000000H   CODE     ---       gps_uart_callback
      00FF8E3BH   CODE     ---       handle_key1
      00FF79D8H   CODE     ---       handle_key2
      00FF00A6H   CODE     ---       handle_key3
      00FF8FE7H   CODE     ---       handle_key4
      00FF4158H   CODE     ---       Hzk
      00010E61H   XDATA    CHAR      i
*SFR* 000000F6H   DATA     BYTE      IAP_ADDRE
*SFR* 000000C3H   DATA     BYTE      IAP_ADDRH
*SFR* 000000C4H   DATA     BYTE      IAP_ADDRL
*SFR* 000000C5H   DATA     BYTE      IAP_CMD
*SFR* 000000C7H   DATA     BYTE      IAP_CONTR
*SFR* 000000C2H   DATA     BYTE      IAP_DATA
      00FFA9F1H   CODE     ---       iap_erase_page
*DEL*:00000000H   CODE     ---       iap_get_cmd_state
*DEL*:00000000H   CODE     ---       iap_idle
      00FF0003H   CODE     ---       iap_init
      00FFA526H   CODE     ---       iap_read_buff
      00FFAA8BH   CODE     ---       iap_read_byte
      00FF0046H   CODE     ---       iap_set_tps
*SFR* 000000F5H   DATA     BYTE      IAP_TPS
*SFR* 000000C6H   DATA     BYTE      IAP_TRIG
      00FFA56FH   CODE     ---       iap_write_buff
      00FFA99EH   CODE     ---       iap_write_byte
      00010E24H   XDATA    INT       icm20602_acc_x
      00010E26H   XDATA    INT       icm20602_acc_y
      00010E28H   XDATA    INT       icm20602_acc_z
*DEL*:00000000H   CODE     ---       icm20602_get_acc
L251 LINKER/LOCATER V4.66.93.0                                                        09/26/2025  18:18:13  PAGE 27


*DEL*:00000000H   CODE     ---       icm20602_get_gyro
      00010E2AH   XDATA    INT       icm20602_gyro_x
      00010E2CH   XDATA    INT       icm20602_gyro_y
      00010E2EH   XDATA    INT       icm20602_gyro_z
*DEL*:00000000H   CODE     ---       icm20602_init
      00010E30H   XDATA    ---       icm20602_transition_factor
*SFR* 000000A8H   DATA     BYTE      IE
*SFR* 000000A8H   DATA     BYTE      IE0
*SFR* 00000088H.1 DATA     BIT       IE0_
*SFR* 000000B1H   DATA     BYTE      IE1
*SFR* 00000088H.3 DATA     BIT       IE1_
*SFR* 000000AFH   DATA     BYTE      IE2
      00010E38H   XDATA    INT       imu660ra_acc_x
      00010E3AH   XDATA    INT       imu660ra_acc_y
      00010E3CH   XDATA    INT       imu660ra_acc_z
      00FF021EH   CODE     ---       imu660ra_config_file
*DEL*:00000000H   CODE     ---       imu660ra_get_acc
*DEL*:00000000H   CODE     ---       imu660ra_get_gyro
      00010E3EH   XDATA    INT       imu660ra_gyro_x
      00010E40H   XDATA    INT       imu660ra_gyro_y
      00010E42H   XDATA    INT       imu660ra_gyro_z
*DEL*:00000000H   CODE     ---       imu660ra_init
      00010E44H   XDATA    ---       imu660ra_transition_factor
*DEL*:00000000H   CODE     ---       imu660rb_acc_transition
      00010E7EH   XDATA    INT       imu660rb_acc_x
      00010E80H   XDATA    INT       imu660rb_acc_y
      00010E82H   XDATA    INT       imu660rb_acc_z
*DEL*:00000000H   CODE     ---       imu660rb_get_acc
*DEL*:00000000H   CODE     ---       imu660rb_get_gyro
*DEL*:00000000H   CODE     ---       imu660rb_gyro_transition
      00010E84H   XDATA    INT       imu660rb_gyro_x
      00010E86H   XDATA    INT       imu660rb_gyro_y
      00010E88H   XDATA    INT       imu660rb_gyro_z
*DEL*:00000000H   CODE     ---       imu660rb_init
      00010E06H   XDATA    INT       imu963ra_acc_x
      00010E08H   XDATA    INT       imu963ra_acc_y
      00010E0AH   XDATA    INT       imu963ra_acc_z
*DEL*:00000000H   CODE     ---       imu963ra_get_acc
*DEL*:00000000H   CODE     ---       imu963ra_get_gyro
*DEL*:00000000H   CODE     ---       imu963ra_get_mag
      00010E12H   XDATA    INT       imu963ra_gyro_x
      00010E14H   XDATA    INT       imu963ra_gyro_y
      00010E16H   XDATA    INT       imu963ra_gyro_z
*DEL*:00000000H   CODE     ---       imu963ra_init
      00010E0CH   XDATA    INT       imu963ra_mag_x
      00010E0EH   XDATA    INT       imu963ra_mag_y
      00010E10H   XDATA    INT       imu963ra_mag_z
      00010E18H   XDATA    ---       imu963ra_transition_factor
      00FFA033H   CODE     ---       init_all
*SFR* 000000B0H.2 DATA     BIT       INT0
      00010DF4H   XDATA    ---       int0_irq_handler
*SFR* 000000B0H.3 DATA     BIT       INT1
      00010DF8H   XDATA    ---       int1_irq_handler
      00010DFCH   XDATA    ---       int2_irq_handler
      00010E00H   XDATA    ---       int3_irq_handler
      00010E04H   XDATA    ---       int4_irq_handler
*SFR* 0000008FH   DATA     BYTE      INTCLKO
*DEL*:00000000H   CODE     ---       interrupt_global_disable
      00FF001EH   CODE     ---       interrupt_global_enable
*DEL*:00000000H   CODE     ---       interrupt_set_priority
*SFR* 000000B8H   DATA     BYTE      IP
*SFR* 000000B5H   DATA     BYTE      IP2
*SFR* 000000B6H   DATA     BYTE      IP2H
*SFR* 000000DFH   DATA     BYTE      IP3
*SFR* 000000EEH   DATA     BYTE      IP3H
L251 LINKER/LOCATER V4.66.93.0                                                        09/26/2025  18:18:13  PAGE 28


*SFR* 000000B7H   DATA     BYTE      IPH
*SFR* 000000B7H   DATA     BYTE      IPH0
*SFR* 000000B8H   DATA     BYTE      IPL0
      00010EC2H   XDATA    WORD      ips114_bgcolor
*DEL*:00000000H   CODE     ---       ips114_clear
      00010EC4H   XDATA    INT       ips114_display_dir
*DEL*:00000000H   CODE     ---       ips114_draw_point
*DEL*:00000000H   CODE     ---       ips114_init
      00010EC0H   XDATA    WORD      ips114_pencolor
*DEL*:00000000H   CODE     ---       ips114_set_color
*DEL*:00000000H   CODE     ---       ips114_set_dir
*DEL*:00000000H   CODE     ---       ips114_show_char
*DEL*:00000000H   CODE     ---       ips114_show_chinese
*DEL*:00000000H   CODE     ---       ips114_show_float
*DEL*:00000000H   CODE     ---       ips114_show_int16
*DEL*:00000000H   CODE     ---       ips114_show_int32
*DEL*:00000000H   CODE     ---       ips114_show_int8
*DEL*:00000000H   CODE     ---       ips114_show_string
*DEL*:00000000H   CODE     ---       ips114_show_uint16
*DEL*:00000000H   CODE     ---       ips114_show_uint8
*DEL*:00000000H   CODE     ---       ips114_show_wave
      00010EC6H   XDATA    BYTE      ips114_x_max
      00010EC7H   XDATA    BYTE      ips114_y_max
      00010E8CH   XDATA    WORD      ips200_bgcolor
*DEL*:00000000H   CODE     ---       ips200_clear
      00010E8EH   XDATA    INT       ips200_display_dir
*DEL*:00000000H   CODE     ---       ips200_draw_point
*DEL*:00000000H   CODE     ---       ips200_init
      00010E8AH   XDATA    WORD      ips200_pencolor
*DEL*:00000000H   CODE     ---       ips200_set_color
*DEL*:00000000H   CODE     ---       ips200_set_dir
*DEL*:00000000H   CODE     ---       ips200_show_char
*DEL*:00000000H   CODE     ---       ips200_show_chinese
*DEL*:00000000H   CODE     ---       ips200_show_float
*DEL*:00000000H   CODE     ---       ips200_show_int16
*DEL*:00000000H   CODE     ---       ips200_show_int32
*DEL*:00000000H   CODE     ---       ips200_show_int8
*DEL*:00000000H   CODE     ---       ips200_show_string
*DEL*:00000000H   CODE     ---       ips200_show_uint16
*DEL*:00000000H   CODE     ---       ips200_show_uint8
*DEL*:00000000H   CODE     ---       ips200_show_wave
      00010E90H   XDATA    WORD      ips200_x_max
      00010E92H   XDATA    WORD      ips200_y_max
*SFR* 0000009DH   DATA     BYTE      IRCBAND
*SFR* 00000088H.0 DATA     BIT       IT0
*SFR* 00000088H.2 DATA     BIT       IT1
      00010E62H   XDATA    CHAR      j
      00010E5FH   XDATA    BYTE      Key
      00010E63H   XDATA    CHAR      Key3_count
      00FF01AEH   CODE     ---       Key3_handle1
      00FF9173H   CODE     ---       Key3_handle2
      00010E99H   XDATA    BYTE      Key_count
      00FFA870H   CODE     ---       Key_Number
      00FF87AEH   CODE     ---       Key_scaner
      00010E9CH   XDATA    BYTE      keynumber
      00010E9DH   XDATA    BYTE      last_keynumber
      00010EA4H   XDATA    FLOAT     last_uni
*DEL*:00000000H   CODE     ---       LineLossProtection
      00FF31A3H   CODE     NEAR LAB  log?_
      00010E9EH   XDATA    INT       loss_Time
      00FF0066H   CODE     ---       MAIN
      00FFAA66H   CODE     ---       memcpy?_
*DEL*:00000000H   CODE     ---       memset?_
      00FF8424H   CODE     ---       menu_display_content
      00FFAA40H   CODE     ---       menu_handle_key
L251 LINKER/LOCATER V4.66.93.0                                                        09/26/2025  18:18:13  PAGE 29


      00FFA971H   CODE     ---       menu_Init
      00FF8F17H   CODE     ---       Menu_SetChildren
      00010E5EH   XDATA    CHAR      mode
      00FF9DFDH   CODE     ---       Motor_Init
      00FF8AB3H   CODE     ---       Motor_Update
      00FFA7BDH   CODE     ---       MotorL_SetSpeed
      00FFA7FAH   CODE     ---       MotorR_SetSpeed
      00FF92F0H   CODE     ---       Normal_PID
      000103ECH   XDATA    ---       Num
*DEL*:00000000H   CODE     ---       OLED_Clear
*DEL*:00000000H   CODE     ---       OLED_ColorTurn
*DEL*:00000000H   CODE     ---       OLED_DisplayTurn
*DEL*:00000000H   CODE     ---       OLED_Init
*DEL*:00000000H   CODE     ---       oled_pow
*DEL*:00000000H   CODE     ---       OLED_Set_Pos
*DEL*:00000000H   CODE     ---       OLED_ShowChar
*DEL*:00000000H   CODE     ---       OLED_ShowChinese
*DEL*:00000000H   CODE     ---       OLED_ShowNum
*DEL*:00000000H   CODE     ---       OLED_ShowString
*DEL*:00000000H   CODE     ---       OLED_WR_Byte
*SFR* 000000D0H.2 DATA     BIT       OV
*SFR* 000000D0H.0 DATA     BIT       P
*SFR* 00000080H   DATA     BYTE      P0
*SFR* 00000094H   DATA     BYTE      P0M0
*SFR* 00000093H   DATA     BYTE      P0M1
*SFR* 00000090H   DATA     BYTE      P1
*SFR* 00000092H   DATA     BYTE      P1M0
*SFR* 00000091H   DATA     BYTE      P1M1
*SFR* 000000A0H   DATA     BYTE      P2
*SFR* 000000A0H.0 DATA     BIT       P20
*SFR* 000000A0H.1 DATA     BIT       P21
*SFR* 000000A0H.2 DATA     BIT       P22
*SFR* 00000096H   DATA     BYTE      P2M0
*SFR* 00000095H   DATA     BYTE      P2M1
*SFR* 000000B0H   DATA     BYTE      P3
*SFR* 000000B2H   DATA     BYTE      P3M0
*SFR* 000000B1H   DATA     BYTE      P3M1
*SFR* 000000C0H   DATA     BYTE      P4
*SFR* 000000C0H.0 DATA     BIT       P40
*SFR* 000000C0H.1 DATA     BIT       P41
*SFR* 000000C0H.2 DATA     BIT       P42
*SFR* 000000C0H.3 DATA     BIT       P43
*SFR* 000000B4H   DATA     BYTE      P4M0
*SFR* 000000B3H   DATA     BYTE      P4M1
*SFR* 000000C8H   DATA     BYTE      P5
*SFR* 000000CAH   DATA     BYTE      P5M0
*SFR* 000000C9H   DATA     BYTE      P5M1
*SFR* 000000E8H   DATA     BYTE      P6
*SFR* 000000CCH   DATA     BYTE      P6M0
*SFR* 000000CBH   DATA     BYTE      P6M1
*SFR* 000000F8H   DATA     BYTE      P7
*SFR* 000000E2H   DATA     BYTE      P7M0
*SFR* 000000E1H   DATA     BYTE      P7M1
*SFR* 000000A2H   DATA     BYTE      P_SW1
*SFR* 000000BAH   DATA     BYTE      P_SW2
*SFR* 000000BBH   DATA     BYTE      P_SW3
*SFR* 000000BFH   DATA     BYTE      P_SW4
      00010000H   XDATA    ---       Page
      00010544H   XDATA    ---       Page0_children
      00010553H   XDATA    ---       Page5_children
*SFR* 00000087H   DATA     BYTE      PCON
      00FF89C3H   CODE     ---       PID_Update
      000103E8H   XDATA    ---       Pin
      00010ECCH   XDATA    BYTE      pit_Flag
      00FF01BEH   CODE     ---       pit_handler0
L251 LINKER/LOCATER V4.66.93.0                                                        09/26/2025  18:18:13  PAGE 30


      00FFA28CH   CODE     ---       pit_handler1
      00FF7639H   CODE     ---       pit_init
*DEL*:00000000H   CODE     ---       pow?_
*SFR* 000000B8H.6 DATA     BIT       PPC
      00010E97H   XDATA    INT       Press_time
      00FF2678H   CODE     NEAR LAB  printf
      00010DE6H   XDATA    INT       PRO_Set_Time
      00FF9EE6H   CODE     ---       Protect
*SFR* 000000B8H.4 DATA     BIT       PS
*SFR* 000000D0H   DATA     BYTE      PSW
*SFR* 000000D1H   DATA     BYTE      PSW1
*SFR* 000000B8H.1 DATA     BIT       PT0
*SFR* 000000B8H.3 DATA     BIT       PT1
*SFR* 000000B8H.5 DATA     BIT       PT2
      00FFAB09H   CODE     ---       putchar
      00FFC241H   HCONST   ---       PWM_ARR_ADDR
      00FFC249H   HCONST   ---       PWM_CCER_ADDR
      00FFC259H   HCONST   ---       PWM_CCMR_ADDR
      00FFC221H   HCONST   ---       PWM_CCR_ADDR
      00FF5ACAH   CODE     ---       pwm_init
      00FFC219H   HCONST   ---       PWM_PSCR_ADDR
      00FF7B7AH   CODE     ---       pwm_set_duty
*DEL*:00000000H   CODE     ---       pwm_set_freq
      00FFA8E1H   CODE     ---       PWM_Test
*SFR* 000000B8H.0 DATA     BIT       PX0
*SFR* 000000B8H.2 DATA     BIT       PX1
      00010D7AH   XDATA    ---       raw_adc_data
*SFR* 00000098H.2 DATA     BIT       RB8
*SFR* 000000CBH   DATA     BYTE      RCAP2H
*SFR* 000000CAH   DATA     BYTE      RCAP2L
*SFR* 000000C8H.5 DATA     BIT       RCLK
*SFR* 000000B0H.7 DATA     BIT       RD
      00FF9BFEH   CODE     ---       Refesh_arrow
*SFR* 00000098H.4 DATA     BIT       REN
*SFR* 00000098H.0 DATA     BIT       RI
*SFR* 000000D0H.3 DATA     BIT       RS0
*SFR* 000000D0H.4 DATA     BIT       RS1
*SFR* 000000FFH   DATA     BYTE      RSTCFG
*SFR* 000000B0H.0 DATA     BIT       RXD
*SFR* 0000009BH   DATA     BYTE      S2BUF
*SFR* 0000009AH   DATA     BYTE      S2CON
*SFR* 0000009AH.1 DATA     BIT       S2TI
*SFR* 000000ACH   DATA     BYTE      S3CON
*SFR* 000000FDH   DATA     BYTE      S4CON
*SFR* 000000A9H   DATA     BYTE      SADDR
*SFR* 000000B9H   DATA     BYTE      SADEN
      00010E64H   XDATA    BYTE      Save_Flag
*SFR* 00000099H   DATA     BYTE      SBUF
*SFR* 00000098H   DATA     BYTE      SCON
*DEL*:00000000H   CODE     ---       seekfree_assistant_camera_boundary_config
*DEL*:00000000H   CODE     ---       seekfree_assistant_camera_data_send
*DEL*:00000000H   CODE     ---       seekfree_assistant_camera_dot_send
*DEL*:00000000H   CODE     ---       seekfree_assistant_camera_information_config
*DEL*:00000000H   CODE     ---       seekfree_assistant_camera_send
*DEL*:00000000H   CODE     ---       seekfree_assistant_data_analysis
*DEL*:00000000H   CODE     ---       seekfree_assistant_init
*DEL*:00000000H   CODE     ---       seekfree_assistant_interface_init
      00010B3EH   XDATA    ---       seekfree_assistant_oscilloscope_data
*DEL*:00000000H   CODE     ---       seekfree_assistant_oscilloscope_send
      00010B81H   XDATA    ---       seekfree_assistant_parameter
      00010B79H   XDATA    ---       seekfree_assistant_parameter_update_flag
      00010EDDH   XDATA    ---       seekfree_assistant_receive_callback
      00010EDFH   XDATA    ---       seekfree_assistant_transfer_callback
      00FFAB19H   CODE     ---       Ser_Servo_Duty
      00FFA3EDH   CODE     ---       Serve_Test
L251 LINKER/LOCATER V4.66.93.0                                                        09/26/2025  18:18:13  PAGE 31


      00FF0026H   CODE     ---       Servo_Init
      00010DB8H   XDATA    ---       servo_pid
      00FF9F58H   CODE     ---       Servo_turn_pid
*DEL*:00000000H   CODE     ---       set_gps_type
      00010DE4H   XDATA    INT       Set_T
      00FFA9C8H   CODE     ---       SET_Time
*DEL*:00000000H   CODE     ---       set_tof_type
*DEL*:00000000H   CODE     ---       set_wireless_type
      00010E59H   XDATA    BYTE      Show_image_mode
      00FF4E35H   CODE     ---       Show_pararm
      00FF2839H   CODE     ---       sin?_
*SFR* 00000098H.7 DATA     BIT       SM0
*SFR* 00000098H.6 DATA     BIT       SM1
*SFR* 00000098H.5 DATA     BIT       SM2
      00FFA8A9H   CODE     ---       soft_iic_delay
*DEL*:00000000H   CODE     ---       soft_iic_init
*DEL*:00000000H   CODE     ---       soft_iic_read_16bit
*DEL*:00000000H   CODE     ---       soft_iic_read_16bit_array
*DEL*:00000000H   CODE     ---       soft_iic_read_16bit_register
*DEL*:00000000H   CODE     ---       soft_iic_read_16bit_registers
*DEL*:00000000H   CODE     ---       soft_iic_read_8bit
*DEL*:00000000H   CODE     ---       soft_iic_read_8bit_array
*DEL*:00000000H   CODE     ---       soft_iic_read_8bit_register
*DEL*:00000000H   CODE     ---       soft_iic_read_8bit_registers
      00FF93ACH   CODE     ---       soft_iic_read_data
*DEL*:00000000H   CODE     ---       soft_iic_sccb_read_register
*DEL*:00000000H   CODE     ---       soft_iic_sccb_write_register
      00FF9E73H   CODE     ---       soft_iic_send_ack
      00FF9832H   CODE     ---       soft_iic_send_data
      00FFA340H   CODE     ---       soft_iic_start
      00FFA16BH   CODE     ---       soft_iic_stop
*DEL*:00000000H   CODE     ---       soft_iic_transfer_16bit_array
*DEL*:00000000H   CODE     ---       soft_iic_transfer_8bit_array
      00FF9D84H   CODE     ---       soft_iic_wait_ack
*DEL*:00000000H   CODE     ---       soft_iic_write_16bit
*DEL*:00000000H   CODE     ---       soft_iic_write_16bit_array
*DEL*:00000000H   CODE     ---       soft_iic_write_16bit_register
*DEL*:00000000H   CODE     ---       soft_iic_write_16bit_registers
*DEL*:00000000H   CODE     ---       soft_iic_write_8bit
*DEL*:00000000H   CODE     ---       soft_iic_write_8bit_array
*DEL*:00000000H   CODE     ---       soft_iic_write_8bit_register
*DEL*:00000000H   CODE     ---       soft_iic_write_8bit_registers
*DEL*:00000000H   CODE     ---       soft_spi_delay
*DEL*:00000000H   CODE     ---       soft_spi_init
*DEL*:00000000H   CODE     ---       soft_spi_read_16bit
*DEL*:00000000H   CODE     ---       soft_spi_read_16bit_array
*DEL*:00000000H   CODE     ---       soft_spi_read_16bit_register
*DEL*:00000000H   CODE     ---       soft_spi_read_16bit_registers
*DEL*:00000000H   CODE     ---       soft_spi_read_8bit
*DEL*:00000000H   CODE     ---       soft_spi_read_8bit_array
*DEL*:00000000H   CODE     ---       soft_spi_read_8bit_register
*DEL*:00000000H   CODE     ---       soft_spi_read_8bit_registers
*DEL*:00000000H   CODE     ---       soft_spi_transfer_16bit
*DEL*:00000000H   CODE     ---       soft_spi_transfer_8bit
*DEL*:00000000H   CODE     ---       soft_spi_write_16bit
*DEL*:00000000H   CODE     ---       soft_spi_write_16bit_array
*DEL*:00000000H   CODE     ---       soft_spi_write_16bit_register
*DEL*:00000000H   CODE     ---       soft_spi_write_16bit_registers
*DEL*:00000000H   CODE     ---       soft_spi_write_8bit
*DEL*:00000000H   CODE     ---       soft_spi_write_8bit_array
*DEL*:00000000H   CODE     ---       soft_spi_write_8bit_register
*DEL*:00000000H   CODE     ---       soft_spi_write_8bit_registers
*SFR* 00000081H   DATA     BYTE      SP
*SFR* 000000CEH   DATA     BYTE      SPCTL
*SFR* 000000CFH   DATA     BYTE      SPDAT
L251 LINKER/LOCATER V4.66.93.0                                                        09/26/2025  18:18:13  PAGE 32


*SFR* 000000BEH   DATA     BYTE      SPH
      00FF5FDAH   CODE     ---       spi_init
*DEL*:00000000H   CODE     ---       spi_read_16bit
*DEL*:00000000H   CODE     ---       spi_read_16bit_array
*DEL*:00000000H   CODE     ---       spi_read_16bit_register
*DEL*:00000000H   CODE     ---       spi_read_16bit_registers
*DEL*:00000000H   CODE     ---       spi_read_8bit
*DEL*:00000000H   CODE     ---       spi_read_8bit_array
*DEL*:00000000H   CODE     ---       spi_read_8bit_register
*DEL*:00000000H   CODE     ---       spi_read_8bit_registers
*DEL*:00000000H   CODE     ---       spi_read_dat
*DEL*:00000000H   CODE     ---       spi_transfer_16bit
*DEL*:00000000H   CODE     ---       spi_transfer_8bit
      00FFAAAEH   CODE     ---       spi_write_16bit
*DEL*:00000000H   CODE     ---       spi_write_16bit_array
*DEL*:00000000H   CODE     ---       spi_write_16bit_register
*DEL*:00000000H   CODE     ---       spi_write_16bit_registers
      00FF01C5H   CODE     ---       spi_write_8bit
*DEL*:00000000H   CODE     ---       spi_write_8bit_array
*DEL*:00000000H   CODE     ---       spi_write_8bit_register
*DEL*:00000000H   CODE     ---       spi_write_8bit_registers
      00FFA645H   CODE     ---       spi_write_dat
      00FF26A4H   CODE     NEAR LAB  sprintf
*SFR* 000000CDH   DATA     BYTE      SPSTAT
      00FF26CAH   CODE     ---       sqrt?_
      00010E60H   XDATA    CHAR      Start_Show_Row
      00010E94H   XDATA    BYTE      State
*DEL*:00000000H   CODE     ---       strchr?_
*DEL*:00000000H   CODE     ---       strlen?_
*DEL*:00000000H   CODE     ---       strncmp?_
*DEL*:00000000H   CODE     ---       strncpy?_
      00010ED5H   XDATA    LONG      system_clock
      00FFA22FH   CODE     ---       system_delay_init
      00FF9FC8H   CODE     ---       system_delay_ms
*DEL*:00000000H   CODE     ---       system_delay_us
      00010ECDH   XDATA    INT       T
*SFR* 000000B0H.4 DATA     BIT       T0
*SFR* 000000B0H.5 DATA     BIT       T1
*SFR* 00000090H.0 DATA     BIT       T2
*SFR* 000000C8H   DATA     BYTE      T2CON
*SFR* 00000090H.1 DATA     BIT       T2EX
*SFR* 000000D6H   DATA     BYTE      T2H
*SFR* 000000D7H   DATA     BYTE      T2L
*SFR* 000000C9H   DATA     BYTE      T2MOD
      00010EC8H   XDATA    INT       T3
*SFR* 000000D4H   DATA     BYTE      T3H
*SFR* 000000D5H   DATA     BYTE      T3L
      00010ECAH   XDATA    INT       T4
*SFR* 000000D2H   DATA     BYTE      T4H
*SFR* 000000D3H   DATA     BYTE      T4L
*SFR* 000000DDH   DATA     BYTE      T4T3M
      00FF286EH   CODE     ---       TAN?_
*SFR* 00000098H.3 DATA     BIT       TB8
*SFR* 000000C8H.4 DATA     BIT       TCLK
*SFR* 00000088H   DATA     BYTE      TCON
*SFR* 00000088H.5 DATA     BIT       TF0
*SFR* 00000088H.7 DATA     BIT       TF1
*SFR* 000000C8H.7 DATA     BIT       TF2
      00010EBAH   XDATA    WORD      tft180_bgcolor
      00FFA104H   CODE     ---       tft180_clear
      00010EBCH   XDATA    INT       tft180_display_dir
*DEL*:00000000H   CODE     ---       tft180_draw_point
      00FF6C49H   CODE     ---       tft180_init
      00010EB8H   XDATA    WORD      tft180_pencolor
      00FF000EH   CODE     ---       tft180_set_color
L251 LINKER/LOCATER V4.66.93.0                                                        09/26/2025  18:18:13  PAGE 33


      00FFAA19H   CODE     ---       tft180_set_dir
      00FF8C7DH   CODE     ---       tft180_show_char
      00FF7814H   CODE     ---       tft180_show_float
      00FF8559H   CODE     ---       tft180_show_int16
*DEL*:00000000H   CODE     ---       tft180_show_int32
*DEL*:00000000H   CODE     ---       tft180_show_int8
      00FF9513H   CODE     ---       tft180_show_string
*DEL*:00000000H   CODE     ---       tft180_show_uint16
*DEL*:00000000H   CODE     ---       tft180_show_uint8
*DEL*:00000000H   CODE     ---       tft180_show_wave
      00010EBEH   XDATA    BYTE      tft180_x_max
      00010EBFH   XDATA    BYTE      tft180_y_max
*SFR* 0000008CH   DATA     BYTE      TH0
*SFR* 0000008DH   DATA     BYTE      TH1
*SFR* 000000CDH   DATA     BYTE      TH2
*SFR* 00000098H.1 DATA     BIT       TI
      00010DF2H   XDATA    ---       tim0_irq_handler
      00010DE8H   XDATA    ---       tim11_irq_handler
      00010DF6H   XDATA    ---       tim1_irq_handler
      00010DFAH   XDATA    ---       tim2_irq_handler
      00010DFEH   XDATA    ---       tim3_irq_handler
      00010E02H   XDATA    ---       tim4_irq_handler
      00010E9AH   XDATA    WORD      Time_dou
      00FFA443H   CODE     ---       timer_funciton_check
*SFR* 0000008AH   DATA     BYTE      TL0
*SFR* 0000008BH   DATA     BYTE      TL1
*SFR* 000000CCH   DATA     BYTE      TL2
      00FFA687H   CODE     ---       TM0_IRQHandler
      00FFA4DBH   CODE     ---       TM11_IRQHandler
      00FFA6C5H   CODE     ---       TM1_IRQHandler
      00FFA703H   CODE     ---       TM2_IRQHandler
      00FFA741H   CODE     ---       TM3_IRQHandler
      00FFA77FH   CODE     ---       TM4_IRQHandler
*SFR* 00000089H   DATA     BYTE      TMOD
      00010EB0H   XDATA    ---       tof_module_exti_handler
      00010EB4H   XDATA    INT       tof_type
*SFR* 00000088H.4 DATA     BIT       TR0
*SFR* 00000088H.6 DATA     BIT       TR1
*SFR* 000000C8H.2 DATA     BIT       TR2
      00010E95H   XDATA    INT       Trigg_time
*DEL*:00000000H   CODE     ---       tsl1401_collect_pit_handler
      00010765H   XDATA    ---       tsl1401_data
      00010764H   XDATA    BYTE      tsl1401_finish_flag
*DEL*:00000000H   CODE     ---       tsl1401_init
*DEL*:00000000H   CODE     ---       tsl1401_send_data
      00FF7E97H   CODE     ---       Turn_mode
      00FF7D0AH   CODE     ---       Turn_mode_Init
*SFR* 000000B0H.1 DATA     BIT       TXD
      00010DEAH   XDATA    ---       uart1_irq_handler
      00010DECH   XDATA    ---       uart2_irq_handler
      00010DEEH   XDATA    ---       uart3_irq_handler
      00010DF0H   XDATA    ---       uart4_irq_handler
      00FF8197H   CODE     ---       uart_dma_init
      00FFA48FH   CODE     ---       uart_funciton_check
      00FF71DEH   CODE     ---       uart_init
      00FFA1CDH   CODE     ---       uart_query_byte
*DEL*:00000000H   CODE     ---       uart_read_byte
      00010E7AH   XDATA    ---       uart_rx_buff
      00FFA600H   CODE     ---       uart_rx_interrupt
      00FF98C3H   CODE     ---       uart_rx_start_buff
      00FF8B9BH   CODE     ---       uart_write_buffer
      00FFAAE3H   CODE     ---       uart_write_byte
*DEL*:00000000H   CODE     ---       uart_write_string
      00010EA0H   XDATA    FLOAT     uni
      00FF9C81H   CODE     ---       unification
L251 LINKER/LOCATER V4.66.93.0                                                        09/26/2025  18:18:13  PAGE 34


*SFR* 000000F4H   DATA     BYTE      USBCON
*SFR* 000000C1H   DATA     BYTE      WDT_CONTR
*SFR* 000000A6H   DATA     BYTE      WDTRST
      00010EB2H   XDATA    INT       wireless_type
*DEL*:00000000H   CODE     ---       wireless_uart_callback
*DEL*:00000000H   CODE     ---       wireless_uart_init
*DEL*:00000000H   CODE     ---       wireless_uart_read_buffer
*DEL*:00000000H   CODE     ---       wireless_uart_send_buffer
*DEL*:00000000H   CODE     ---       wireless_uart_send_byte
*DEL*:00000000H   CODE     ---       wireless_uart_send_string
*SFR* 000000ABH   DATA     BYTE      WKTCH
*SFR* 000000B0H.6 DATA     BIT       WR
*SFR* 000000E9H   DATA     BYTE      WTST
      00FF4618H   CODE     ---       zf_sprintf



SYMBOL TABLE OF MODULE:  .\out_file\SEEKFREE (ai8051u_isr)

      VALUE       REP       CLASS    TYPE      SYMBOL NAME
      ====================================================
      ---         MODULE    ---      ---       ai8051u_isr

      00FF019BH   BLOCK     CODE     NEAR LAB  LVL=0
      00FF019BH   LINE      CODE     ---       #3
      ---         BLOCKEND  ---      ---       LVL=0

      00FF01ABH   BLOCK     CODE     NEAR LAB  LVL=0
      00FF01ABH   LINE      CODE     ---       #6
      ---         BLOCKEND  ---      ---       LVL=0

      00FF01BBH   BLOCK     CODE     NEAR LAB  LVL=0
      00FF01BBH   LINE      CODE     ---       #9
      ---         BLOCKEND  ---      ---       LVL=0

      00FF01CBH   BLOCK     CODE     NEAR LAB  LVL=0
      00FF01CBH   LINE      CODE     ---       #12
      ---         BLOCKEND  ---      ---       LVL=0

      00FF021BH   BLOCK     CODE     NEAR LAB  LVL=0
      00FF021BH   LINE      CODE     ---       #15
      ---         BLOCKEND  ---      ---       LVL=0

      ---         MODULE    ---      ---       zf_common_clock
      00FF8D5DH   PUBLIC    CODE     ---       clock_init
      00010ED5H   PUBLIC    XDATA    LONG      system_clock
      00000094H   SFRSYM    DATA     BYTE      P0M0
      000000D0H   SFRSYM    DATA     BYTE      PSW
      0000009DH   SFRSYM    DATA     BYTE      IRCBAND
      00000097H   SFRSYM    DATA     BYTE      AUXR2
      000000EAH   SFRSYM    DATA     BYTE      CKCON
      000000EFH   SFRSYM    DATA     BYTE      AUXINTIF
      000000FDH   SFRSYM    DATA     BYTE      S4CON
      000000ACH   SFRSYM    DATA     BYTE      S3CON
      0000009AH   SFRSYM    DATA     BYTE      S2CON
      000000B7H   SFRSYM    DATA     BYTE      IPH
      000000CDH   SFRSYM    DATA     BYTE      SPSTAT
      000000DDH   SFRSYM    DATA     BYTE      T4T3M
      000000C1H   SFRSYM    DATA     BYTE      WDT_CONTR
      000000E9H   SFRSYM    DATA     BYTE      WTST
      000000DFH   SFRSYM    DATA     BYTE      IP3
      000000F4H   SFRSYM    DATA     BYTE      USBCON
      000000B5H   SFRSYM    DATA     BYTE      IP2
      000000FFH   SFRSYM    DATA     BYTE      RSTCFG
      000000C7H   SFRSYM    DATA     BYTE      IAP_CONTR
L251 LINKER/LOCATER V4.66.93.0                                                        09/26/2025  18:18:13  PAGE 35


      0000008EH   SFRSYM    DATA     BYTE      AUXR
      000000AFH   SFRSYM    DATA     BYTE      IE2
      00000088H   SFRSYM    DATA     BYTE      TCON
      00000089H   SFRSYM    DATA     BYTE      TMOD
      00000098H   SFRSYM    DATA     BYTE      SCON
      00000087H   SFRSYM    DATA     BYTE      PCON
      000000BCH   SFRSYM    DATA     BYTE      ADC_CONTR
      000000D1H   SFRSYM    DATA     BYTE      PSW1
      000000E7H   SFRSYM    DATA     BYTE      CMPCR2
      000000E6H   SFRSYM    DATA     BYTE      CMPCR1
      000000DEH   SFRSYM    DATA     BYTE      ADCCFG
      000000B8H   SFRSYM    DATA     BYTE      IP
      0000008FH   SFRSYM    DATA     BYTE      INTCLKO
      000000EEH   SFRSYM    DATA     BYTE      IP3H
      000000B6H   SFRSYM    DATA     BYTE      IP2H
      000000BFH   SFRSYM    DATA     BYTE      P_SW4
      000000A8H   SFRSYM    DATA     BYTE      IE
      000000BBH   SFRSYM    DATA     BYTE      P_SW3
      000000BAH   SFRSYM    DATA     BYTE      P_SW2
      000000A2H   SFRSYM    DATA     BYTE      P_SW1
      000000CEH   SFRSYM    DATA     BYTE      SPCTL
      000000F8H   SFRSYM    DATA     BYTE      P7
      000000E1H   SFRSYM    DATA     BYTE      P7M1
      000000E8H   SFRSYM    DATA     BYTE      P6
      000000C8H   SFRSYM    DATA     BYTE      P5
      000000CBH   SFRSYM    DATA     BYTE      P6M1
      000000E2H   SFRSYM    DATA     BYTE      P7M0
      000000C0H   SFRSYM    DATA     BYTE      P4
      000000C9H   SFRSYM    DATA     BYTE      P5M1
      000000CCH   SFRSYM    DATA     BYTE      P6M0
      000000ABH   SFRSYM    DATA     BYTE      WKTCH
      000000B0H   SFRSYM    DATA     BYTE      P3
      000000B3H   SFRSYM    DATA     BYTE      P4M1
      000000CAH   SFRSYM    DATA     BYTE      P5M0
      000000A0H   SFRSYM    DATA     BYTE      P2
      000000B1H   SFRSYM    DATA     BYTE      P3M1
      000000B4H   SFRSYM    DATA     BYTE      P4M0
      00000090H   SFRSYM    DATA     BYTE      P1
      00000095H   SFRSYM    DATA     BYTE      P2M1
      000000B2H   SFRSYM    DATA     BYTE      P3M0
      00000080H   SFRSYM    DATA     BYTE      P0
      00000091H   SFRSYM    DATA     BYTE      P1M1
      00000096H   SFRSYM    DATA     BYTE      P2M0
      00000092H   SFRSYM    DATA     BYTE      P1M0
      00000093H   SFRSYM    DATA     BYTE      P0M1

      00FF8D5DH   BLOCK     CODE     ---       LVL=0
      DR12        REGSYM    ---      DWORD     clock
      00FF8D5DH   LINE      CODE     ---       #47
      00FF8D61H   LINE      CODE     ---       #49
      00FF8D64H   LINE      CODE     ---       #50
      00FF8D67H   LINE      CODE     ---       #51
      00FF8D6AH   LINE      CODE     ---       #54
      00FF8D77H   LINE      CODE     ---       #55
      00FF8D85H   LINE      CODE     ---       #56
      00FF8D91H   LINE      CODE     ---       #57
      00FF8D9EH   LINE      CODE     ---       #58
      00FF8DAAH   LINE      CODE     ---       #60
      00FF8DADH   LINE      CODE     ---       #63
      00FF8DB7H   LINE      CODE     ---       #65
      00FF8DBAH   LINE      CODE     ---       #66
      00FF8DBDH   LINE      CODE     ---       #67
      00FF8DC0H   LINE      CODE     ---       #68
      00FF8DC3H   LINE      CODE     ---       #69
      00FF8DC6H   LINE      CODE     ---       #70
L251 LINKER/LOCATER V4.66.93.0                                                        09/26/2025  18:18:13  PAGE 36


      00FF8DC9H   LINE      CODE     ---       #71
      00FF8DCCH   LINE      CODE     ---       #72
      00FF8DCFH   LINE      CODE     ---       #73
      00FF8DD2H   LINE      CODE     ---       #74
      00FF8DD5H   LINE      CODE     ---       #75
      00FF8DD8H   LINE      CODE     ---       #76
      00FF8DDBH   LINE      CODE     ---       #77
      00FF8DDEH   LINE      CODE     ---       #78
      00FF8DE1H   LINE      CODE     ---       #79
      00FF8DE4H   LINE      CODE     ---       #80
      00FF8DE7H   LINE      CODE     ---       #83
      00FF8DEAH   LINE      CODE     ---       #84
      00FF8DEDH   LINE      CODE     ---       #85
      00FF8DF0H   LINE      CODE     ---       #86
      00FF8DF3H   LINE      CODE     ---       #87
      00FF8DF6H   LINE      CODE     ---       #88
      00FF8DF9H   LINE      CODE     ---       #89
      00FF8DFCH   LINE      CODE     ---       #90
      00FF8DFFH   LINE      CODE     ---       #91
      00FF8E02H   LINE      CODE     ---       #92
      00FF8E05H   LINE      CODE     ---       #93
      00FF8E11H   LINE      CODE     ---       #94
      00FF8E1DH   LINE      CODE     ---       #96
      00FF8E29H   LINE      CODE     ---       #97
      00FF8E35H   LINE      CODE     ---       #100
      00FF8E38H   LINE      CODE     ---       #101
      ---         BLOCKEND  ---      ---       LVL=0

      ---         MODULE    ---      ---       zf_common_debug
      00FFA837H   PUBLIC    CODE     ---       debug_interrupr_handler
      00FF9707H   PUBLIC    CODE     ---       debug_init
      00FFA09CH   PUBLIC    CODE     ---       debug_assert_handler
      00FFAB09H   PUBLIC    CODE     ---       putchar
      00010C73H   PUBLIC    XDATA    ---       debug_uart_buffer
      00010CB4H   PUBLIC    XDATA    ---       debug_uart_fifo
      000000D0H   SFRSYM    DATA     BYTE      PSW
      0000009DH   SFRSYM    DATA     BYTE      IRCBAND
      00000097H   SFRSYM    DATA     BYTE      AUXR2
      000000EFH   SFRSYM    DATA     BYTE      AUXINTIF
      000000FDH   SFRSYM    DATA     BYTE      S4CON
      000000ACH   SFRSYM    DATA     BYTE      S3CON
      0000009AH   SFRSYM    DATA     BYTE      S2CON
      000000B7H   SFRSYM    DATA     BYTE      IPH
      000000CDH   SFRSYM    DATA     BYTE      SPSTAT
      000000DDH   SFRSYM    DATA     BYTE      T4T3M
      000000C1H   SFRSYM    DATA     BYTE      WDT_CONTR
      000000DFH   SFRSYM    DATA     BYTE      IP3
      000000F4H   SFRSYM    DATA     BYTE      USBCON
      000000B5H   SFRSYM    DATA     BYTE      IP2
      000000FFH   SFRSYM    DATA     BYTE      RSTCFG
      000000C7H   SFRSYM    DATA     BYTE      IAP_CONTR
      0000008EH   SFRSYM    DATA     BYTE      AUXR
      000000AFH   SFRSYM    DATA     BYTE      IE2
      00000088H   SFRSYM    DATA     BYTE      TCON
      00000089H   SFRSYM    DATA     BYTE      TMOD
      00000098H   SFRSYM    DATA     BYTE      SCON
      00000087H   SFRSYM    DATA     BYTE      PCON
      000000BCH   SFRSYM    DATA     BYTE      ADC_CONTR
      000000D1H   SFRSYM    DATA     BYTE      PSW1
      000000E7H   SFRSYM    DATA     BYTE      CMPCR2
      000000E6H   SFRSYM    DATA     BYTE      CMPCR1
      000000DEH   SFRSYM    DATA     BYTE      ADCCFG
      000000B8H   SFRSYM    DATA     BYTE      IP
      0000008FH   SFRSYM    DATA     BYTE      INTCLKO
      000000EEH   SFRSYM    DATA     BYTE      IP3H
L251 LINKER/LOCATER V4.66.93.0                                                        09/26/2025  18:18:13  PAGE 37


      000000B6H   SFRSYM    DATA     BYTE      IP2H
      000000BFH   SFRSYM    DATA     BYTE      P_SW4
      000000A8H   SFRSYM    DATA     BYTE      IE
      000000BBH   SFRSYM    DATA     BYTE      P_SW3
      000000BAH   SFRSYM    DATA     BYTE      P_SW2
      000000A2H   SFRSYM    DATA     BYTE      P_SW1
      000000CEH   SFRSYM    DATA     BYTE      SPCTL
      000000F8H   SFRSYM    DATA     BYTE      P7
      000000E8H   SFRSYM    DATA     BYTE      P6
      000000C8H   SFRSYM    DATA     BYTE      P5
      000000C0H   SFRSYM    DATA     BYTE      P4
      000000ABH   SFRSYM    DATA     BYTE      WKTCH
      000000B0H   SFRSYM    DATA     BYTE      P3
      000000A0H   SFRSYM    DATA     BYTE      P2
      00000090H   SFRSYM    DATA     BYTE      P1
      00000080H   SFRSYM    DATA     BYTE      P0
      00FFC5B4H   SYMBOL    HCONST   ---       ?tpl?0001
      00010CB3H   SYMBOL    XDATA    BYTE      zf_debug_assert_enable
      00010CCBH   SYMBOL    XDATA    BYTE      zf_debug_init_flag
      DR12        REGSYM    ---      DWORD     len
      REG=2       REGSYM    ---      ---       buff

      00FFA837H   BLOCK     CODE     ---       LVL=0
      0001055EH   SYMBOL    XDATA    BYTE      dat
      00FFA837H   LINE      CODE     ---       #281
      00FFA83BH   LINE      CODE     ---       #283
      00FFA841H   LINE      CODE     ---       #285
      00FFA84EH   LINE      CODE     ---       #286
      00FFA86FH   LINE      CODE     ---       #287
      ---         BLOCKEND  ---      ---       LVL=0

      00FFAB09H   BLOCK     CODE     ---       LVL=0
      R15         REGSYM    ---      CHAR      c
      00FFAB09H   LINE      CODE     ---       #303
      00FFAB0DH   LINE      CODE     ---       #305
      00FFAB14H   LINE      CODE     ---       #307
      00FFAB16H   LINE      CODE     ---       #308
      ---         BLOCKEND  ---      ---       LVL=0

      00FFA09CH   BLOCK     CODE     ---       LVL=0
      0001059DH   SYMBOL    XDATA    BYTE      pass
      REG=3       REGSYM    ---      ---       file
      0001059EH   SYMBOL    XDATA    INT       line
      00FFA0AAH   BLOCK     CODE     NEAR LAB  LVL=1
      000105A0H   SYMBOL    XDATA    ---       log_str
      ---         BLOCKEND  ---      ---       LVL=1
      00FFA09CH   LINE      CODE     ---       #346
      00FFA0AAH   LINE      CODE     ---       #347
      00FFA0AAH   LINE      CODE     ---       #348
      00FFA0BFH   LINE      CODE     ---       #350
      00FFA0C1H   LINE      CODE     ---       #366
      00FFA0F4H   LINE      CODE     ---       #369
      00FFA0FBH   LINE      CODE     ---       #370
      00FFA101H   LINE      CODE     ---       #371
      ---         BLOCKEND  ---      ---       LVL=0

      00FF9707H   BLOCK     CODE     ---       LVL=0
      00FF9709H   BLOCK     CODE     NEAR LAB  LVL=1
      R15         REGSYM    ---      BYTE      uartx
      ---         BLOCKEND  ---      ---       LVL=1
      00FF9707H   LINE      CODE     ---       #453
      00FF9709H   LINE      CODE     ---       #454
      00FF9709H   LINE      CODE     ---       #455
      00FF970BH   LINE      CODE     ---       #461
      00FF9726H   LINE      CODE     ---       #468
L251 LINKER/LOCATER V4.66.93.0                                                        09/26/2025  18:18:13  PAGE 38


      00FF9753H   LINE      CODE     ---       #469
      00FF975AH   LINE      CODE     ---       #472
      00FF975EH   LINE      CODE     ---       #474
      00FF9768H   LINE      CODE     ---       #475
      00FF976AH   LINE      CODE     ---       #476
      00FF976FH   LINE      CODE     ---       #478
      00FF9779H   LINE      CODE     ---       #479
      00FF977BH   LINE      CODE     ---       #480
      00FF9780H   LINE      CODE     ---       #482
      00FF978AH   LINE      CODE     ---       #483
      00FF978CH   LINE      CODE     ---       #484
      00FF9791H   LINE      CODE     ---       #486
      00FF979BH   LINE      CODE     ---       #487
      ---         BLOCKEND  ---      ---       LVL=0

      ---         MODULE    ---      ---       zf_common_fifo
      00FF647FH   PUBLIC    CODE     ---       fifo_write_buffer
      00FF9D03H   PUBLIC    CODE     ---       fifo_init
      0001055BH   PUBLIC    XDATA    BYTE      ?fifo_write_buffer?BYTE
      0001055AH   PUBLIC    XDATA    BYTE      ?fifo_init?BYTE
      000000D0H   SFRSYM    DATA     BYTE      PSW
      0000009DH   SFRSYM    DATA     BYTE      IRCBAND
      00000097H   SFRSYM    DATA     BYTE      AUXR2
      000000EFH   SFRSYM    DATA     BYTE      AUXINTIF
      000000FDH   SFRSYM    DATA     BYTE      S4CON
      000000ACH   SFRSYM    DATA     BYTE      S3CON
      0000009AH   SFRSYM    DATA     BYTE      S2CON
      000000B7H   SFRSYM    DATA     BYTE      IPH
      000000CDH   SFRSYM    DATA     BYTE      SPSTAT
      000000DDH   SFRSYM    DATA     BYTE      T4T3M
      000000C1H   SFRSYM    DATA     BYTE      WDT_CONTR
      000000DFH   SFRSYM    DATA     BYTE      IP3
      000000F4H   SFRSYM    DATA     BYTE      USBCON
      000000B5H   SFRSYM    DATA     BYTE      IP2
      000000FFH   SFRSYM    DATA     BYTE      RSTCFG
      000000C7H   SFRSYM    DATA     BYTE      IAP_CONTR
      0000008EH   SFRSYM    DATA     BYTE      AUXR
      000000AFH   SFRSYM    DATA     BYTE      IE2
      00000088H   SFRSYM    DATA     BYTE      TCON
      00000089H   SFRSYM    DATA     BYTE      TMOD
      00000098H   SFRSYM    DATA     BYTE      SCON
      00000087H   SFRSYM    DATA     BYTE      PCON
      000000BCH   SFRSYM    DATA     BYTE      ADC_CONTR
      000000D1H   SFRSYM    DATA     BYTE      PSW1
      000000E7H   SFRSYM    DATA     BYTE      CMPCR2
      000000E6H   SFRSYM    DATA     BYTE      CMPCR1
      000000DEH   SFRSYM    DATA     BYTE      ADCCFG
      000000B8H   SFRSYM    DATA     BYTE      IP
      0000008FH   SFRSYM    DATA     BYTE      INTCLKO
      000000EEH   SFRSYM    DATA     BYTE      IP3H
      000000B6H   SFRSYM    DATA     BYTE      IP2H
      000000BFH   SFRSYM    DATA     BYTE      P_SW4
      000000A8H   SFRSYM    DATA     BYTE      IE
      000000BBH   SFRSYM    DATA     BYTE      P_SW3
      000000BAH   SFRSYM    DATA     BYTE      P_SW2
      000000A2H   SFRSYM    DATA     BYTE      P_SW1
      000000CEH   SFRSYM    DATA     BYTE      SPCTL
      000000F8H   SFRSYM    DATA     BYTE      P7
      000000E8H   SFRSYM    DATA     BYTE      P6
      000000C8H   SFRSYM    DATA     BYTE      P5
      000000C0H   SFRSYM    DATA     BYTE      P4
      000000ABH   SFRSYM    DATA     BYTE      WKTCH
      000000B0H   SFRSYM    DATA     BYTE      P3
      000000A0H   SFRSYM    DATA     BYTE      P2
      00000090H   SFRSYM    DATA     BYTE      P1
L251 LINKER/LOCATER V4.66.93.0                                                        09/26/2025  18:18:13  PAGE 39


      00000080H   SFRSYM    DATA     BYTE      P0
      00FF01CEH   SYMBOL    CODE     ---       fifo_head_offset

      00FF01CEH   BLOCK     CODE     ---       LVL=0
      REG=7       REGSYM    ---      ---       fifo
      DR24        REGSYM    ---      DWORD     offset
      00FF01CEH   LINE      CODE     ---       #51
      00FF01D2H   LINE      CODE     ---       #53
      00FF01E6H   LINE      CODE     ---       #55
      00FF01E8H   LINE      CODE     ---       #57
      00FF0206H   LINE      CODE     ---       #58
      00FF021AH   LINE      CODE     ---       #59
      ---         BLOCKEND  ---      ---       LVL=0
      REG=7       REGSYM    ---      ---       fifo
      DR24        REGSYM    ---      DWORD     offset
      REG=3       REGSYM    ---      ---       fifo
      REG=3       REGSYM    ---      ---       fifo

      00FF647FH   BLOCK     CODE     ---       LVL=0
      REG=3       REGSYM    ---      ---       fifo
      0001055FH   SYMBOL    XDATA    ---       dat
      00010563H   SYMBOL    XDATA    DWORD     length
      00FF648DH   BLOCK     CODE     NEAR LAB  LVL=1
      00010567H   SYMBOL    XDATA    INT       return_state
      00010569H   SYMBOL    XDATA    DWORD     temp_length
      ---         BLOCKEND  ---      ---       LVL=1
      00FF647FH   LINE      CODE     ---       #178
      00FF648DH   LINE      CODE     ---       #179
      00FF648DH   LINE      CODE     ---       #180
      00FF6495H   LINE      CODE     ---       #181
      00FF64A1H   LINE      CODE     ---       #182
      00FF64BBH   LINE      CODE     ---       #184
      00FF64BBH   LINE      CODE     ---       #186
      00FF64C9H   LINE      CODE     ---       #188
      00FF64D3H   LINE      CODE     ---       #189
      00FF64D6H   LINE      CODE     ---       #190
      00FF64D6H   LINE      CODE     ---       #191
      00FF64E1H   LINE      CODE     ---       #193
      00FF64EBH   LINE      CODE     ---       #194
      00FF64EEH   LINE      CODE     ---       #195
      00FF64EEH   LINE      CODE     ---       #196
      00FF64F6H   LINE      CODE     ---       #198
      00FF650FH   LINE      CODE     ---       #200
      00FF652BH   LINE      CODE     ---       #202
      00FF6546H   LINE      CODE     ---       #204
      00FF655FH   LINE      CODE     ---       #206
      00FF655FH   LINE      CODE     ---       #208
      00FF658CH   LINE      CODE     ---       #211
      00FF659BH   LINE      CODE     ---       #212
      00FF65E6H   LINE      CODE     ---       #216
      00FF6601H   LINE      CODE     ---       #217
      00FF6604H   LINE      CODE     ---       #218
      00FF6604H   LINE      CODE     ---       #220
      00FF6635H   LINE      CODE     ---       #223
      00FF6644H   LINE      CODE     ---       #224
      00FF6691H   LINE      CODE     ---       #228
      00FF66ACH   LINE      CODE     ---       #229
      00FF66AFH   LINE      CODE     ---       #230
      00FF66AFH   LINE      CODE     ---       #232
      00FF66E4H   LINE      CODE     ---       #235
      00FF66F3H   LINE      CODE     ---       #236
      00FF6746H   LINE      CODE     ---       #240
      00FF6761H   LINE      CODE     ---       #241
      00FF6761H   LINE      CODE     ---       #242
      00FF6761H   LINE      CODE     ---       #243
L251 LINKER/LOCATER V4.66.93.0                                                        09/26/2025  18:18:13  PAGE 40


      00FF6764H   LINE      CODE     ---       #246
      00FF677AH   LINE      CODE     ---       #248
      00FF677AH   LINE      CODE     ---       #250
      00FF67A7H   LINE      CODE     ---       #253
      00FF67B6H   LINE      CODE     ---       #254
      00FF67B9H   LINE      CODE     ---       #255
      00FF67B9H   LINE      CODE     ---       #257
      00FF67EAH   LINE      CODE     ---       #260
      00FF67F9H   LINE      CODE     ---       #261
      00FF67FBH   LINE      CODE     ---       #262
      00FF67FBH   LINE      CODE     ---       #264
      00FF6830H   LINE      CODE     ---       #267
      00FF683FH   LINE      CODE     ---       #268
      00FF683FH   LINE      CODE     ---       #269
      00FF683FH   LINE      CODE     ---       #270
      00FF683FH   LINE      CODE     ---       #272
      00FF685FH   LINE      CODE     ---       #273
      00FF6861H   LINE      CODE     ---       #276
      00FF686BH   LINE      CODE     ---       #277
      00FF686BH   LINE      CODE     ---       #278
      00FF6873H   LINE      CODE     ---       #279
      00FF6873H   LINE      CODE     ---       #281
      00FF6879H   LINE      CODE     ---       #282
      ---         BLOCKEND  ---      ---       LVL=0
      REG=3       REGSYM    ---      ---       fifo

      00FF9D03H   BLOCK     CODE     ---       LVL=0
      REG=3       REGSYM    ---      ---       fifo
      0001055EH   SYMBOL    XDATA    INT       type
      00010560H   SYMBOL    XDATA    ---       buffer_addr
      00010564H   SYMBOL    XDATA    DWORD     siz
      00FF9D03H   LINE      CODE     ---       #549
      00FF9D0DH   LINE      CODE     ---       #551
      00FF9D27H   LINE      CODE     ---       #552
      00FF9D27H   LINE      CODE     ---       #554
      00FF9D39H   LINE      CODE     ---       #555
      00FF9D3DH   LINE      CODE     ---       #556
      00FF9D47H   LINE      CODE     ---       #557
      00FF9D51H   LINE      CODE     ---       #558
      00FF9D5BH   LINE      CODE     ---       #559
      00FF9D6DH   LINE      CODE     ---       #560
      00FF9D7FH   LINE      CODE     ---       #561
      00FF9D7FH   LINE      CODE     ---       #562
      00FF9D81H   LINE      CODE     ---       #563
      ---         BLOCKEND  ---      ---       LVL=0

      ---         MODULE    ---      ---       zf_common_font
      00FF54DAH   PUBLIC    CODE     ---       ascii_font_8x16
      000000D0H   SFRSYM    DATA     BYTE      PSW
      0000009DH   SFRSYM    DATA     BYTE      IRCBAND
      00000097H   SFRSYM    DATA     BYTE      AUXR2
      000000EFH   SFRSYM    DATA     BYTE      AUXINTIF
      000000FDH   SFRSYM    DATA     BYTE      S4CON
      000000ACH   SFRSYM    DATA     BYTE      S3CON
      0000009AH   SFRSYM    DATA     BYTE      S2CON
      000000B7H   SFRSYM    DATA     BYTE      IPH
      000000CDH   SFRSYM    DATA     BYTE      SPSTAT
      000000DDH   SFRSYM    DATA     BYTE      T4T3M
      000000C1H   SFRSYM    DATA     BYTE      WDT_CONTR
      000000DFH   SFRSYM    DATA     BYTE      IP3
      000000F4H   SFRSYM    DATA     BYTE      USBCON
      000000B5H   SFRSYM    DATA     BYTE      IP2
      000000FFH   SFRSYM    DATA     BYTE      RSTCFG
      000000C7H   SFRSYM    DATA     BYTE      IAP_CONTR
      0000008EH   SFRSYM    DATA     BYTE      AUXR
L251 LINKER/LOCATER V4.66.93.0                                                        09/26/2025  18:18:13  PAGE 41


      000000AFH   SFRSYM    DATA     BYTE      IE2
      00000088H   SFRSYM    DATA     BYTE      TCON
      00000089H   SFRSYM    DATA     BYTE      TMOD
      00000098H   SFRSYM    DATA     BYTE      SCON
      00000087H   SFRSYM    DATA     BYTE      PCON
      000000BCH   SFRSYM    DATA     BYTE      ADC_CONTR
      000000D1H   SFRSYM    DATA     BYTE      PSW1
      000000E7H   SFRSYM    DATA     BYTE      CMPCR2
      000000E6H   SFRSYM    DATA     BYTE      CMPCR1
      000000DEH   SFRSYM    DATA     BYTE      ADCCFG
      000000B8H   SFRSYM    DATA     BYTE      IP
      0000008FH   SFRSYM    DATA     BYTE      INTCLKO
      000000EEH   SFRSYM    DATA     BYTE      IP3H
      000000B6H   SFRSYM    DATA     BYTE      IP2H
      000000BFH   SFRSYM    DATA     BYTE      P_SW4
      000000A8H   SFRSYM    DATA     BYTE      IE
      000000BBH   SFRSYM    DATA     BYTE      P_SW3
      000000BAH   SFRSYM    DATA     BYTE      P_SW2
      000000A2H   SFRSYM    DATA     BYTE      P_SW1
      000000CEH   SFRSYM    DATA     BYTE      SPCTL
      000000F8H   SFRSYM    DATA     BYTE      P7
      000000E8H   SFRSYM    DATA     BYTE      P6
      000000C8H   SFRSYM    DATA     BYTE      P5
      000000C0H   SFRSYM    DATA     BYTE      P4
      000000ABH   SFRSYM    DATA     BYTE      WKTCH
      000000B0H   SFRSYM    DATA     BYTE      P3
      000000A0H   SFRSYM    DATA     BYTE      P2
      00000090H   SFRSYM    DATA     BYTE      P1
      00000080H   SFRSYM    DATA     BYTE      P0

      ---         MODULE    ---      ---       zf_common_function
      00FF4618H   PUBLIC    CODE     ---       zf_sprintf
      000105B7H   PUBLIC    XDATA    BYTE      ?zf_sprintf?BYTE
      000000D0H   SFRSYM    DATA     BYTE      PSW
      0000009DH   SFRSYM    DATA     BYTE      IRCBAND
      00000097H   SFRSYM    DATA     BYTE      AUXR2
      000000EFH   SFRSYM    DATA     BYTE      AUXINTIF
      000000FDH   SFRSYM    DATA     BYTE      S4CON
      000000ACH   SFRSYM    DATA     BYTE      S3CON
      0000009AH   SFRSYM    DATA     BYTE      S2CON
      000000B7H   SFRSYM    DATA     BYTE      IPH
      000000CDH   SFRSYM    DATA     BYTE      SPSTAT
      000000DDH   SFRSYM    DATA     BYTE      T4T3M
      000000C1H   SFRSYM    DATA     BYTE      WDT_CONTR
      000000DFH   SFRSYM    DATA     BYTE      IP3
      000000F4H   SFRSYM    DATA     BYTE      USBCON
      000000B5H   SFRSYM    DATA     BYTE      IP2
      000000FFH   SFRSYM    DATA     BYTE      RSTCFG
      000000C7H   SFRSYM    DATA     BYTE      IAP_CONTR
      0000008EH   SFRSYM    DATA     BYTE      AUXR
      000000AFH   SFRSYM    DATA     BYTE      IE2
      00000088H   SFRSYM    DATA     BYTE      TCON
      00000089H   SFRSYM    DATA     BYTE      TMOD
      00000098H   SFRSYM    DATA     BYTE      SCON
      00000087H   SFRSYM    DATA     BYTE      PCON
      000000BCH   SFRSYM    DATA     BYTE      ADC_CONTR
      000000D1H   SFRSYM    DATA     BYTE      PSW1
      000000E7H   SFRSYM    DATA     BYTE      CMPCR2
      000000E6H   SFRSYM    DATA     BYTE      CMPCR1
      000000DEH   SFRSYM    DATA     BYTE      ADCCFG
      000000B8H   SFRSYM    DATA     BYTE      IP
      0000008FH   SFRSYM    DATA     BYTE      INTCLKO
      000000EEH   SFRSYM    DATA     BYTE      IP3H
      000000B6H   SFRSYM    DATA     BYTE      IP2H
      000000BFH   SFRSYM    DATA     BYTE      P_SW4
L251 LINKER/LOCATER V4.66.93.0                                                        09/26/2025  18:18:13  PAGE 42


      000000A8H   SFRSYM    DATA     BYTE      IE
      000000BBH   SFRSYM    DATA     BYTE      P_SW3
      000000BAH   SFRSYM    DATA     BYTE      P_SW2
      000000A2H   SFRSYM    DATA     BYTE      P_SW1
      000000CEH   SFRSYM    DATA     BYTE      SPCTL
      000000F8H   SFRSYM    DATA     BYTE      P7
      000000E8H   SFRSYM    DATA     BYTE      P6
      000000C8H   SFRSYM    DATA     BYTE      P5
      000000C0H   SFRSYM    DATA     BYTE      P4
      000000ABH   SFRSYM    DATA     BYTE      WKTCH
      000000B0H   SFRSYM    DATA     BYTE      P3
      000000A0H   SFRSYM    DATA     BYTE      P2
      00000090H   SFRSYM    DATA     BYTE      P1
      00000080H   SFRSYM    DATA     BYTE      P0
      00FFC330H   SYMBOL    HCONST   ---       ?tpl?0001
      00FF979EH   SYMBOL    CODE     ---       number_conversion_ascii
      00FFA5B8H   SYMBOL    CODE     ---       printf_reverse_order
      DR8         REGSYM    ---      DWORD     num1
      DR28        REGSYM    ---      DWORD     num2
      REG=3       REGSYM    ---      ---       str
      REG=3       REGSYM    ---      ---       str
      REG=3       REGSYM    ---      ---       str
      REG=3       REGSYM    ---      ---       str
      REG=3       REGSYM    ---      ---       str
      REG=3       REGSYM    ---      ---       str
      REG=3       REGSYM    ---      ---       str
      REG=3       REGSYM    ---      ---       str
      REG=3       REGSYM    ---      ---       str
      REG=3       REGSYM    ---      ---       str

      00FF979EH   BLOCK     CODE     ---       LVL=0
      DR24        REGSYM    ---      DWORD     dat
      REG=7       REGSYM    ---      ---       p
      R10         REGSYM    ---      BYTE      neg_type
      000105F2H   SYMBOL    XDATA    BYTE      radix
      00FF97A6H   BLOCK     CODE     NEAR LAB  LVL=1
      DR20        REGSYM    ---      LONG      neg_dat
      DR24        REGSYM    ---      DWORD     pos_dat
      R14         REGSYM    ---      BYTE      temp_data
      R15         REGSYM    ---      BYTE      valid_num
      ---         BLOCKEND  ---      ---       LVL=1
      00FF979EH   LINE      CODE     ---       #647
      00FF97A6H   LINE      CODE     ---       #648
      00FF97A6H   LINE      CODE     ---       #651
      00FF97A8H   LINE      CODE     ---       #652
      00FF97AAH   LINE      CODE     ---       #654
      00FF97AEH   LINE      CODE     ---       #656
      00FF97B0H   LINE      CODE     ---       #657
      00FF97B6H   LINE      CODE     ---       #659
      00FF97C0H   LINE      CODE     ---       #660
      00FF97C0H   LINE      CODE     ---       #661
      00FF97C0H   LINE      CODE     ---       #663
      00FF97D6H   LINE      CODE     ---       #664
      00FF97E5H   LINE      CODE     ---       #665
      00FF97E7H   LINE      CODE     ---       #667
      00FF97EDH   LINE      CODE     ---       #669
      00FF97EDH   LINE      CODE     ---       #670
      00FF97EDH   LINE      CODE     ---       #671
      00FF97EFH   LINE      CODE     ---       #672
      00FF97F1H   LINE      CODE     ---       #673
      00FF97F3H   LINE      CODE     ---       #676
      00FF97F3H   LINE      CODE     ---       #677
      00FF97F3H   LINE      CODE     ---       #679
      00FF9802H   LINE      CODE     ---       #680
      00FF9807H   LINE      CODE     ---       #682
L251 LINKER/LOCATER V4.66.93.0                                                        09/26/2025  18:18:13  PAGE 43


      00FF980AH   LINE      CODE     ---       #683
      00FF980CH   LINE      CODE     ---       #686
      00FF980FH   LINE      CODE     ---       #687
      00FF980FH   LINE      CODE     ---       #689
      00FF9812H   LINE      CODE     ---       #691
      00FF9821H   LINE      CODE     ---       #692
      00FF9823H   LINE      CODE     ---       #694
      00FF9829H   LINE      CODE     ---       #696
      00FF9829H   LINE      CODE     ---       #697
      00FF9829H   LINE      CODE     ---       #698
      00FF982BH   LINE      CODE     ---       #699
      00FF982DH   LINE      CODE     ---       #700
      00FF982DH   LINE      CODE     ---       #701
      00FF982FH   LINE      CODE     ---       #702
      ---         BLOCKEND  ---      ---       LVL=0

      00FFA5B8H   BLOCK     CODE     ---       LVL=0
      REG=7       REGSYM    ---      ---       d_buff
      DR24        REGSYM    ---      DWORD     len
      00FFA5BCH   BLOCK     CODE     NEAR LAB  LVL=1
      DR4         REGSYM    ---      DWORD     i
      R3          REGSYM    ---      CHAR      temp_data
      ---         BLOCKEND  ---      ---       LVL=1
      00FFA5B8H   LINE      CODE     ---       #712
      00FFA5BCH   LINE      CODE     ---       #713
      00FFA5BCH   LINE      CODE     ---       #716
      00FFA5C0H   LINE      CODE     ---       #718
      00FFA5CDH   LINE      CODE     ---       #719
      00FFA5E5H   LINE      CODE     ---       #720
      00FFA5EEH   LINE      CODE     ---       #721
      00FFA5FFH   LINE      CODE     ---       #722
      ---         BLOCKEND  ---      ---       LVL=0

      00FF4618H   BLOCK     CODE     ---       LVL=0
      REG=3       REGSYM    ---      ---       buff
      000105BBH   SYMBOL    XDATA    ---       format
      00FF4626H   BLOCK     CODE     NEAR LAB  LVL=1
      000105BFH   SYMBOL    XDATA    DWORD     buff_len
      000105C3H   SYMBOL    XDATA    ---       arg
      00FF4647H   BLOCK     CODE     NEAR LAB  LVL=2
      000105C7H   SYMBOL    XDATA    CHAR      ret
      00FF4788H   BLOCK     CODE     NEAR LAB  LVL=3
      000105C8H   SYMBOL    XDATA    CHAR      ch
      ---         BLOCKEND  ---      ---       LVL=3
      00FF47CFH   BLOCK     CODE     NEAR LAB  LVL=3
      000105C8H   SYMBOL    XDATA    ---       vstr
      000105E9H   SYMBOL    XDATA    LONG      ival
      000105EDH   SYMBOL    XDATA    BYTE      vlen
      ---         BLOCKEND  ---      ---       LVL=3
      00FF489AH   BLOCK     CODE     NEAR LAB  LVL=3
      000105C8H   SYMBOL    XDATA    ---       vstr
      000105E9H   SYMBOL    XDATA    DOUBLE    ival
      000105F1H   SYMBOL    XDATA    BYTE      vlen
      ---         BLOCKEND  ---      ---       LVL=3
      00FF4AE5H   BLOCK     CODE     NEAR LAB  LVL=3
      000105C8H   SYMBOL    XDATA    ---       vstr
      000105E9H   SYMBOL    XDATA    DWORD     ival
      000105EDH   SYMBOL    XDATA    BYTE      vlen
      ---         BLOCKEND  ---      ---       LVL=3
      00FF4B83H   BLOCK     CODE     NEAR LAB  LVL=3
      000105C8H   SYMBOL    XDATA    ---       vstr
      000105E9H   SYMBOL    XDATA    DWORD     ival
      000105EDH   SYMBOL    XDATA    BYTE      vlen
      ---         BLOCKEND  ---      ---       LVL=3
      00FF4C21H   BLOCK     CODE     NEAR LAB  LVL=3
L251 LINKER/LOCATER V4.66.93.0                                                        09/26/2025  18:18:13  PAGE 44


      000105C8H   SYMBOL    XDATA    ---       vstr
      000105E9H   SYMBOL    XDATA    DWORD     ival
      000105EDH   SYMBOL    XDATA    BYTE      vlen
      ---         BLOCKEND  ---      ---       LVL=3
      00FF4CBFH   BLOCK     CODE     NEAR LAB  LVL=3
      000105C8H   SYMBOL    XDATA    ---       pc
      ---         BLOCKEND  ---      ---       LVL=3
      00FF4D39H   BLOCK     CODE     NEAR LAB  LVL=3
      000105C8H   SYMBOL    XDATA    ---       vstr
      000105E9H   SYMBOL    XDATA    DWORD     ival
      ---         BLOCKEND  ---      ---       LVL=3
      ---         BLOCKEND  ---      ---       LVL=2
      ---         BLOCKEND  ---      ---       LVL=1
      00FF4618H   LINE      CODE     ---       #733
      00FF4626H   LINE      CODE     ---       #734
      00FF4626H   LINE      CODE     ---       #735
      00FF4632H   LINE      CODE     ---       #737
      00FF4644H   LINE      CODE     ---       #739
      00FF4647H   LINE      CODE     ---       #740
      00FF4647H   LINE      CODE     ---       #741
      00FF4658H   LINE      CODE     ---       #742
      00FF4664H   LINE      CODE     ---       #744
      00FF4788H   LINE      CODE     ---       #746
      00FF4788H   LINE      CODE     ---       #749
      00FF4788H   LINE      CODE     ---       #751
      00FF4788H   LINE      CODE     ---       #752
      00FF4788H   LINE      CODE     ---       #753
      00FF47B0H   LINE      CODE     ---       #754
      00FF47B7H   LINE      CODE     ---       #755
      00FF47B9H   LINE      CODE     ---       #756
      00FF47CCH   LINE      CODE     ---       #758
      00FF47CFH   LINE      CODE     ---       #760
      00FF47CFH   LINE      CODE     ---       #761
      00FF47CFH   LINE      CODE     ---       #762
      00FF47CFH   LINE      CODE     ---       #764
      00FF47FDH   LINE      CODE     ---       #765
      00FF481EH   LINE      CODE     ---       #767
      00FF482EH   LINE      CODE     ---       #769
      00FF4844H   LINE      CODE     ---       #770
      00FF484AH   LINE      CODE     ---       #771
      00FF484AH   LINE      CODE     ---       #772
      00FF485DH   LINE      CODE     ---       #773
      00FF4874H   LINE      CODE     ---       #774
      00FF487CH   LINE      CODE     ---       #775
      00FF4897H   LINE      CODE     ---       #777
      00FF489AH   LINE      CODE     ---       #779
      00FF489AH   LINE      CODE     ---       #780
      00FF489AH   LINE      CODE     ---       #781
      00FF489AH   LINE      CODE     ---       #783
      00FF48DAH   LINE      CODE     ---       #784
      00FF4906H   LINE      CODE     ---       #786
      00FF4921H   LINE      CODE     ---       #788
      00FF4937H   LINE      CODE     ---       #789
      00FF493DH   LINE      CODE     ---       #790
      00FF493DH   LINE      CODE     ---       #791
      00FF4950H   LINE      CODE     ---       #792
      00FF4967H   LINE      CODE     ---       #793
      00FF496FH   LINE      CODE     ---       #794
      00FF498AH   LINE      CODE     ---       #796
      00FF49DCH   LINE      CODE     ---       #797
      00FF49FAH   LINE      CODE     ---       #799
      00FF4A26H   LINE      CODE     ---       #800
      00FF4A28H   LINE      CODE     ---       #803
      00FF4A4CH   LINE      CODE     ---       #804
      00FF4A52H   LINE      CODE     ---       #805
L251 LINKER/LOCATER V4.66.93.0                                                        09/26/2025  18:18:13  PAGE 45


      00FF4A52H   LINE      CODE     ---       #807
      00FF4A54H   LINE      CODE     ---       #809
      00FF4A6AH   LINE      CODE     ---       #810
      00FF4A70H   LINE      CODE     ---       #811
      00FF4A79H   LINE      CODE     ---       #813
      00FF4A8FH   LINE      CODE     ---       #814
      00FF4A95H   LINE      CODE     ---       #816
      00FF4AA8H   LINE      CODE     ---       #817
      00FF4ABFH   LINE      CODE     ---       #818
      00FF4AC7H   LINE      CODE     ---       #819
      00FF4AE2H   LINE      CODE     ---       #821
      00FF4AE5H   LINE      CODE     ---       #823
      00FF4AE5H   LINE      CODE     ---       #824
      00FF4AE5H   LINE      CODE     ---       #826
      00FF4B13H   LINE      CODE     ---       #827
      00FF4B33H   LINE      CODE     ---       #829
      00FF4B46H   LINE      CODE     ---       #830
      00FF4B5DH   LINE      CODE     ---       #831
      00FF4B65H   LINE      CODE     ---       #832
      00FF4B80H   LINE      CODE     ---       #834
      00FF4B83H   LINE      CODE     ---       #836
      00FF4B83H   LINE      CODE     ---       #837
      00FF4B83H   LINE      CODE     ---       #839
      00FF4BB1H   LINE      CODE     ---       #840
      00FF4BD1H   LINE      CODE     ---       #842
      00FF4BE4H   LINE      CODE     ---       #843
      00FF4BFBH   LINE      CODE     ---       #844
      00FF4C03H   LINE      CODE     ---       #845
      00FF4C1EH   LINE      CODE     ---       #848
      00FF4C21H   LINE      CODE     ---       #850
      00FF4C21H   LINE      CODE     ---       #851
      00FF4C21H   LINE      CODE     ---       #852
      00FF4C21H   LINE      CODE     ---       #854
      00FF4C4FH   LINE      CODE     ---       #855
      00FF4C6FH   LINE      CODE     ---       #857
      00FF4C82H   LINE      CODE     ---       #858
      00FF4C99H   LINE      CODE     ---       #859
      00FF4CA1H   LINE      CODE     ---       #860
      00FF4CBCH   LINE      CODE     ---       #862
      00FF4CBFH   LINE      CODE     ---       #864
      00FF4CBFH   LINE      CODE     ---       #865
      00FF4CBFH   LINE      CODE     ---       #866
      00FF4CEDH   LINE      CODE     ---       #867
      00FF4CEFH   LINE      CODE     ---       #869
      00FF4CFFH   LINE      CODE     ---       #870
      00FF4D01H   LINE      CODE     ---       #871
      00FF4D14H   LINE      CODE     ---       #872
      00FF4D27H   LINE      CODE     ---       #873
      00FF4D36H   LINE      CODE     ---       #875
      00FF4D39H   LINE      CODE     ---       #877
      00FF4D39H   LINE      CODE     ---       #878
      00FF4D39H   LINE      CODE     ---       #880
      00FF4D67H   LINE      CODE     ---       #882
      00FF4D83H   LINE      CODE     ---       #883
      00FF4D92H   LINE      CODE     ---       #884
      00FF4DA7H   LINE      CODE     ---       #885
      00FF4DABH   LINE      CODE     ---       #886
      00FF4DC0H   LINE      CODE     ---       #888
      00FF4DC2H   LINE      CODE     ---       #890
      00FF4DC2H   LINE      CODE     ---       #892
      00FF4DC7H   LINE      CODE     ---       #893
      00FF4DC9H   LINE      CODE     ---       #894
      00FF4DDCH   LINE      CODE     ---       #896
      00FF4DDEH   LINE      CODE     ---       #898
      00FF4DDEH   LINE      CODE     ---       #899
L251 LINKER/LOCATER V4.66.93.0                                                        09/26/2025  18:18:13  PAGE 46


      00FF4DDEH   LINE      CODE     ---       #900
      00FF4DDEH   LINE      CODE     ---       #901
      00FF4DDEH   LINE      CODE     ---       #904
      00FF4DEEH   LINE      CODE     ---       #905
      00FF4DF0H   LINE      CODE     ---       #906
      00FF4E03H   LINE      CODE     ---       #907
      00FF4E03H   LINE      CODE     ---       #908
      00FF4E16H   LINE      CODE     ---       #909
      00FF4E28H   LINE      CODE     ---       #912
      00FF4E32H   LINE      CODE     ---       #913
      ---         BLOCKEND  ---      ---       LVL=0

      ---         MODULE    ---      ---       zf_common_typedef
      00010DE8H   PUBLIC    XDATA    ---       tim11_irq_handler
      00010DEAH   PUBLIC    XDATA    ---       uart1_irq_handler
      00010DECH   PUBLIC    XDATA    ---       uart2_irq_handler
      00010DEEH   PUBLIC    XDATA    ---       uart3_irq_handler
      00010DF0H   PUBLIC    XDATA    ---       uart4_irq_handler
      00010DF2H   PUBLIC    XDATA    ---       tim0_irq_handler
      00010DF4H   PUBLIC    XDATA    ---       int0_irq_handler
      00010DF6H   PUBLIC    XDATA    ---       tim1_irq_handler
      00010DF8H   PUBLIC    XDATA    ---       int1_irq_handler
      00010DFAH   PUBLIC    XDATA    ---       tim2_irq_handler
      00010DFCH   PUBLIC    XDATA    ---       int2_irq_handler
      00010DFEH   PUBLIC    XDATA    ---       tim3_irq_handler
      00010E00H   PUBLIC    XDATA    ---       int3_irq_handler
      00010E02H   PUBLIC    XDATA    ---       tim4_irq_handler
      00010E04H   PUBLIC    XDATA    ---       int4_irq_handler
      000000D0H   SFRSYM    DATA     BYTE      PSW
      0000009DH   SFRSYM    DATA     BYTE      IRCBAND
      00000097H   SFRSYM    DATA     BYTE      AUXR2
      000000EFH   SFRSYM    DATA     BYTE      AUXINTIF
      000000FDH   SFRSYM    DATA     BYTE      S4CON
      000000ACH   SFRSYM    DATA     BYTE      S3CON
      0000009AH   SFRSYM    DATA     BYTE      S2CON
      000000B7H   SFRSYM    DATA     BYTE      IPH
      000000CDH   SFRSYM    DATA     BYTE      SPSTAT
      000000DDH   SFRSYM    DATA     BYTE      T4T3M
      000000C1H   SFRSYM    DATA     BYTE      WDT_CONTR
      000000DFH   SFRSYM    DATA     BYTE      IP3
      000000F4H   SFRSYM    DATA     BYTE      USBCON
      000000B5H   SFRSYM    DATA     BYTE      IP2
      000000FFH   SFRSYM    DATA     BYTE      RSTCFG
      000000C7H   SFRSYM    DATA     BYTE      IAP_CONTR
      0000008EH   SFRSYM    DATA     BYTE      AUXR
      000000AFH   SFRSYM    DATA     BYTE      IE2
      00000088H   SFRSYM    DATA     BYTE      TCON
      00000089H   SFRSYM    DATA     BYTE      TMOD
      00000098H   SFRSYM    DATA     BYTE      SCON
      00000087H   SFRSYM    DATA     BYTE      PCON
      000000BCH   SFRSYM    DATA     BYTE      ADC_CONTR
      000000D1H   SFRSYM    DATA     BYTE      PSW1
      000000E7H   SFRSYM    DATA     BYTE      CMPCR2
      000000E6H   SFRSYM    DATA     BYTE      CMPCR1
      000000DEH   SFRSYM    DATA     BYTE      ADCCFG
      000000B8H   SFRSYM    DATA     BYTE      IP
      0000008FH   SFRSYM    DATA     BYTE      INTCLKO
      000000EEH   SFRSYM    DATA     BYTE      IP3H
      000000B6H   SFRSYM    DATA     BYTE      IP2H
      000000BFH   SFRSYM    DATA     BYTE      P_SW4
      000000A8H   SFRSYM    DATA     BYTE      IE
      000000BBH   SFRSYM    DATA     BYTE      P_SW3
      000000BAH   SFRSYM    DATA     BYTE      P_SW2
      000000A2H   SFRSYM    DATA     BYTE      P_SW1
      000000CEH   SFRSYM    DATA     BYTE      SPCTL
L251 LINKER/LOCATER V4.66.93.0                                                        09/26/2025  18:18:13  PAGE 47


      000000F8H   SFRSYM    DATA     BYTE      P7
      000000E8H   SFRSYM    DATA     BYTE      P6
      000000C8H   SFRSYM    DATA     BYTE      P5
      000000C0H   SFRSYM    DATA     BYTE      P4
      000000ABH   SFRSYM    DATA     BYTE      WKTCH
      000000B0H   SFRSYM    DATA     BYTE      P3
      000000A0H   SFRSYM    DATA     BYTE      P2
      00000090H   SFRSYM    DATA     BYTE      P1
      00000080H   SFRSYM    DATA     BYTE      P0

      ---         MODULE    ---      ---       zf_common_interrupt
      00FF001EH   PUBLIC    CODE     ---       interrupt_global_enable
      000000D0H   SFRSYM    DATA     BYTE      PSW
      0000009DH   SFRSYM    DATA     BYTE      IRCBAND
      00000097H   SFRSYM    DATA     BYTE      AUXR2
      000000EFH   SFRSYM    DATA     BYTE      AUXINTIF
      000000FDH   SFRSYM    DATA     BYTE      S4CON
      000000ACH   SFRSYM    DATA     BYTE      S3CON
      0000009AH   SFRSYM    DATA     BYTE      S2CON
      000000B7H   SFRSYM    DATA     BYTE      IPH
      000000CDH   SFRSYM    DATA     BYTE      SPSTAT
      000000DDH   SFRSYM    DATA     BYTE      T4T3M
      000000C1H   SFRSYM    DATA     BYTE      WDT_CONTR
      000000DFH   SFRSYM    DATA     BYTE      IP3
      000000F4H   SFRSYM    DATA     BYTE      USBCON
      000000B5H   SFRSYM    DATA     BYTE      IP2
      000000FFH   SFRSYM    DATA     BYTE      RSTCFG
      000000C7H   SFRSYM    DATA     BYTE      IAP_CONTR
      0000008EH   SFRSYM    DATA     BYTE      AUXR
      000000AFH   SFRSYM    DATA     BYTE      IE2
      00000088H   SFRSYM    DATA     BYTE      TCON
      00000089H   SFRSYM    DATA     BYTE      TMOD
      00000098H   SFRSYM    DATA     BYTE      SCON
      00000087H   SFRSYM    DATA     BYTE      PCON
      000000BCH   SFRSYM    DATA     BYTE      ADC_CONTR
      000000D1H   SFRSYM    DATA     BYTE      PSW1
      000000E7H   SFRSYM    DATA     BYTE      CMPCR2
      000000E6H   SFRSYM    DATA     BYTE      CMPCR1
      000000DEH   SFRSYM    DATA     BYTE      ADCCFG
      000000B8H   SFRSYM    DATA     BYTE      IP
      0000008FH   SFRSYM    DATA     BYTE      INTCLKO
      000000EEH   SFRSYM    DATA     BYTE      IP3H
      000000B6H   SFRSYM    DATA     BYTE      IP2H
      000000BFH   SFRSYM    DATA     BYTE      P_SW4
      000000A8H   SFRSYM    DATA     BYTE      IE
      000000BBH   SFRSYM    DATA     BYTE      P_SW3
      000000BAH   SFRSYM    DATA     BYTE      P_SW2
      000000A2H   SFRSYM    DATA     BYTE      P_SW1
      000000CEH   SFRSYM    DATA     BYTE      SPCTL
      000000F8H   SFRSYM    DATA     BYTE      P7
      000000A8H.7 SFRSYM    DATA     BIT       EA
      000000E8H   SFRSYM    DATA     BYTE      P6
      000000C8H   SFRSYM    DATA     BYTE      P5
      000000C0H   SFRSYM    DATA     BYTE      P4
      000000ABH   SFRSYM    DATA     BYTE      WKTCH
      000000B0H   SFRSYM    DATA     BYTE      P3
      000000A0H   SFRSYM    DATA     BYTE      P2
      00000090H   SFRSYM    DATA     BYTE      P1
      00000080H   SFRSYM    DATA     BYTE      P0
      WR4         REGSYM    ---      INT       irqn
      R3          REGSYM    ---      BYTE      priority

      00FF001EH   BLOCK     CODE     ---       LVL=0
      00FF001EH   LINE      CODE     ---       #88
      00FF001EH   LINE      CODE     ---       #90
L251 LINKER/LOCATER V4.66.93.0                                                        09/26/2025  18:18:13  PAGE 48


      00FF0020H   LINE      CODE     ---       #91
      ---         BLOCKEND  ---      ---       LVL=0

      ---         MODULE    ---      ---       ?C_START
      00FF0000H   PUBLIC    CODE     ---       ?C?STARTUP
      00FF0000H   PUBLIC    CODE     ---       ?C_STARTUP
      000000D0H.6 SFRSYM    DATA     BIT       AC
      000000E0H   SFRSYM    DATA     BYTE      ACC
      000000F0H   SFRSYM    DATA     BYTE      B
      000000FAH   SFRSYM    DATA     BYTE      CCAP0H
      000000EAH   SFRSYM    DATA     BYTE      CCAP0L
      000000FBH   SFRSYM    DATA     BYTE      CCAP1H
      000000EBH   SFRSYM    DATA     BYTE      CCAP1L
      000000FCH   SFRSYM    DATA     BYTE      CCAP2H
      000000ECH   SFRSYM    DATA     BYTE      CCAP2L
      000000FDH   SFRSYM    DATA     BYTE      CCAP3H
      000000EDH   SFRSYM    DATA     BYTE      CCAP3L
      000000FEH   SFRSYM    DATA     BYTE      CCAP4H
      000000EEH   SFRSYM    DATA     BYTE      CCAP4L
      000000DAH   SFRSYM    DATA     BYTE      CCAPM0
      000000DBH   SFRSYM    DATA     BYTE      CCAPM1
      000000DCH   SFRSYM    DATA     BYTE      CCAPM2
      000000DDH   SFRSYM    DATA     BYTE      CCAPM3
      000000DEH   SFRSYM    DATA     BYTE      CCAPM4
      000000D8H.0 SFRSYM    DATA     BIT       CCF0
      000000D8H.1 SFRSYM    DATA     BIT       CCF1
      000000D8H.2 SFRSYM    DATA     BIT       CCF2
      000000D8H.3 SFRSYM    DATA     BIT       CCF3
      000000D8H.4 SFRSYM    DATA     BIT       CCF4
      000000D8H   SFRSYM    DATA     BYTE      CCON
      00000090H.3 SFRSYM    DATA     BIT       CEX0
      00000090H.4 SFRSYM    DATA     BIT       CEX1
      00000090H.5 SFRSYM    DATA     BIT       CEX2
      00000090H.6 SFRSYM    DATA     BIT       CEX3
      00000090H.7 SFRSYM    DATA     BIT       CEX4
      000000D8H.7 SFRSYM    DATA     BIT       CF
      000000F9H   SFRSYM    DATA     BYTE      CH
      000000E9H   SFRSYM    DATA     BYTE      CL
      000000D9H   SFRSYM    DATA     BYTE      CMOD
      000000C8H.0 SFRSYM    DATA     BIT       CP_RL2
      000000D8H.6 SFRSYM    DATA     BIT       CR
      000000D0H.7 SFRSYM    DATA     BIT       CY
      000000C8H.1 SFRSYM    DATA     BIT       C_T2
      00000083H   SFRSYM    DATA     BYTE      DPH
      00000082H   SFRSYM    DATA     BYTE      DPL
      00000084H   SFRSYM    DATA     BYTE      DPXL
      000000A8H.7 SFRSYM    DATA     BIT       EA
      000000A8H.6 SFRSYM    DATA     BIT       EC
      00000090H.2 SFRSYM    DATA     BIT       ECI
      000000A8H.4 SFRSYM    DATA     BIT       ES
      000000A8H.1 SFRSYM    DATA     BIT       ET0
      000000A8H.3 SFRSYM    DATA     BIT       ET1
      000000A8H.5 SFRSYM    DATA     BIT       ET2
      000000A8H.0 SFRSYM    DATA     BIT       EX0
      000000A8H.2 SFRSYM    DATA     BIT       EX1
      000000C8H.3 SFRSYM    DATA     BIT       EXEN2
      000000C8H.6 SFRSYM    DATA     BIT       EXF2
      000000D0H.5 SFRSYM    DATA     BIT       F0
      00000098H.7 SFRSYM    DATA     BIT       FE
      000000A8H   SFRSYM    DATA     BYTE      IE0
      00000088H.1 SFRSYM    DATA     BIT       IE0_
      000000B1H   SFRSYM    DATA     BYTE      IE1
      00000088H.3 SFRSYM    DATA     BIT       IE1_
      000000B0H.2 SFRSYM    DATA     BIT       INT0
      000000B0H.3 SFRSYM    DATA     BIT       INT1
L251 LINKER/LOCATER V4.66.93.0                                                        09/26/2025  18:18:13  PAGE 49


      000000B7H   SFRSYM    DATA     BYTE      IPH0
      000000B8H   SFRSYM    DATA     BYTE      IPL0
      00000088H.0 SFRSYM    DATA     BIT       IT0
      00000088H.2 SFRSYM    DATA     BIT       IT1
      000000D0H.2 SFRSYM    DATA     BIT       OV
      000000D0H.0 SFRSYM    DATA     BIT       P
      00000080H   SFRSYM    DATA     BYTE      P0
      00000090H   SFRSYM    DATA     BYTE      P1
      000000A0H   SFRSYM    DATA     BYTE      P2
      000000B0H   SFRSYM    DATA     BYTE      P3
      00000087H   SFRSYM    DATA     BYTE      PCON
      000000B8H.6 SFRSYM    DATA     BIT       PPC
      000000B8H.4 SFRSYM    DATA     BIT       PS
      000000D0H   SFRSYM    DATA     BYTE      PSW
      000000D1H   SFRSYM    DATA     BYTE      PSW1
      000000B8H.1 SFRSYM    DATA     BIT       PT0
      000000B8H.3 SFRSYM    DATA     BIT       PT1
      000000B8H.5 SFRSYM    DATA     BIT       PT2
      000000B8H.0 SFRSYM    DATA     BIT       PX0
      000000B8H.2 SFRSYM    DATA     BIT       PX1
      00000098H.2 SFRSYM    DATA     BIT       RB8
      000000CBH   SFRSYM    DATA     BYTE      RCAP2H
      000000CAH   SFRSYM    DATA     BYTE      RCAP2L
      000000C8H.5 SFRSYM    DATA     BIT       RCLK
      000000B0H.7 SFRSYM    DATA     BIT       RD
      00000098H.4 SFRSYM    DATA     BIT       REN
      00000098H.0 SFRSYM    DATA     BIT       RI
      000000D0H.3 SFRSYM    DATA     BIT       RS0
      000000D0H.4 SFRSYM    DATA     BIT       RS1
      000000B0H.0 SFRSYM    DATA     BIT       RXD
      000000A9H   SFRSYM    DATA     BYTE      SADDR
      000000B9H   SFRSYM    DATA     BYTE      SADEN
      00000099H   SFRSYM    DATA     BYTE      SBUF
      00000098H   SFRSYM    DATA     BYTE      SCON
      00000098H.7 SFRSYM    DATA     BIT       SM0
      00000098H.6 SFRSYM    DATA     BIT       SM1
      00000098H.5 SFRSYM    DATA     BIT       SM2
      00000081H   SFRSYM    DATA     BYTE      SP
      000000BEH   SFRSYM    DATA     BYTE      SPH
      000000B0H.4 SFRSYM    DATA     BIT       T0
      000000B0H.5 SFRSYM    DATA     BIT       T1
      00000090H.0 SFRSYM    DATA     BIT       T2
      000000C8H   SFRSYM    DATA     BYTE      T2CON
      00000090H.1 SFRSYM    DATA     BIT       T2EX
      000000C9H   SFRSYM    DATA     BYTE      T2MOD
      00000098H.3 SFRSYM    DATA     BIT       TB8
      000000C8H.4 SFRSYM    DATA     BIT       TCLK
      00000088H   SFRSYM    DATA     BYTE      TCON
      00000088H.5 SFRSYM    DATA     BIT       TF0
      00000088H.7 SFRSYM    DATA     BIT       TF1
      000000C8H.7 SFRSYM    DATA     BIT       TF2
      0000008CH   SFRSYM    DATA     BYTE      TH0
      0000008DH   SFRSYM    DATA     BYTE      TH1
      000000CDH   SFRSYM    DATA     BYTE      TH2
      00000098H.1 SFRSYM    DATA     BIT       TI
      0000008AH   SFRSYM    DATA     BYTE      TL0
      0000008BH   SFRSYM    DATA     BYTE      TL1
      000000CCH   SFRSYM    DATA     BYTE      TL2
      00000089H   SFRSYM    DATA     BYTE      TMOD
      00000088H.4 SFRSYM    DATA     BIT       TR0
      00000088H.6 SFRSYM    DATA     BIT       TR1
      000000C8H.2 SFRSYM    DATA     BIT       TR2
      000000B0H.1 SFRSYM    DATA     BIT       TXD
      000000A6H   SFRSYM    DATA     BYTE      WDTRST
      000000B0H.6 SFRSYM    DATA     BIT       WR
L251 LINKER/LOCATER V4.66.93.0                                                        09/26/2025  18:18:13  PAGE 50


      00000800H   SYMBOL    NUMBER   ---       EDATALEN
      00FFA2F1H   SYMBOL    CODE     ---       EDATALOOP
      00000001H   SYMBOL    NUMBER   ---       EDF
      00000001H   SYMBOL    NUMBER   ---       EMAP
      00000000H   SYMBOL    NUMBER   ---       HDATALEN
      00010000H   SYMBOL    NUMBER   ---       HDATASTART
      00000000H   SYMBOL    NUMBER   ---       IBPSTACK
      00000100H   SYMBOL    NUMBER   ---       IBPSTACKTOP
      00000001H   SYMBOL    NUMBER   ---       INTR
      00000001H   SYMBOL    NUMBER   ---       PAGM
      00000003H   SYMBOL    NUMBER   ---       RDRG
      00000001H   SYMBOL    NUMBER   ---       SRCM
      00000700H   SYMBOL    NUMBER   ---       STACKSIZE
      00FFA2E9H   SYMBOL    CODE     ---       STARTUP1
      00000003H   SYMBOL    NUMBER   ---       WSA
      00000003H   SYMBOL    NUMBER   ---       WSB
      00000001H   SYMBOL    NUMBER   ---       XALE
      00000000H   SYMBOL    NUMBER   ---       XBPSTACK
      00010000H   SYMBOL    NUMBER   ---       XBPSTACKTOP
      00008000H   SYMBOL    NUMBER   ---       XDATALEN
      00FFA300H   SYMBOL    CODE     ---       XDATALOOP
      00010000H   SYMBOL    NUMBER   ---       XDATASTART

      00FF0000H   BLOCK     CODE     NEAR LAB  LVL=0
      00FF0000H   LINE      CODE     ---       #183
      ---         BLOCKEND  ---      ---       LVL=0

      00FFA2E9H   BLOCK     CODE     NEAR LAB  LVL=0
      00FFA2E9H   LINE      CODE     ---       #188
      00FFA2ECH   LINE      CODE     ---       #191
      00FFA2F0H   LINE      CODE     ---       #192
      00FFA2F1H   LINE      CODE     ---       #193
      00FFA2F4H   LINE      CODE     ---       #194
      00FFA2F6H   LINE      CODE     ---       #195
      00FFA2F8H   LINE      CODE     ---       #199
      00FFA2FBH   LINE      CODE     ---       #200
      00FFA2FFH   LINE      CODE     ---       #201
      00FFA300H   LINE      CODE     ---       #202
      00FFA301H   LINE      CODE     ---       #203
      00FFA302H   LINE      CODE     ---       #204
      00FFA304H   LINE      CODE     ---       #205
      00FFA306H   LINE      CODE     ---       #235
      ---         BLOCKEND  ---      ---       LVL=0

      00FFA33DH   BLOCK     CODE     NEAR LAB  LVL=0
      00FFA33DH   LINE      CODE     ---       #238
      ---         BLOCKEND  ---      ---       LVL=0

      ---         MODULE    ---      ---       zf_driver_adc
      00FFA914H   PUBLIC    CODE     ---       adc_convert
      00FF9B77H   PUBLIC    CODE     ---       adc_init
      00000094H   SFRSYM    DATA     BYTE      P0M0
      000000D0H   SFRSYM    DATA     BYTE      PSW
      0000009DH   SFRSYM    DATA     BYTE      IRCBAND
      00000097H   SFRSYM    DATA     BYTE      AUXR2
      000000EFH   SFRSYM    DATA     BYTE      AUXINTIF
      000000FDH   SFRSYM    DATA     BYTE      S4CON
      000000ACH   SFRSYM    DATA     BYTE      S3CON
      0000009AH   SFRSYM    DATA     BYTE      S2CON
      000000B7H   SFRSYM    DATA     BYTE      IPH
      000000CDH   SFRSYM    DATA     BYTE      SPSTAT
      000000BEH   SFRSYM    DATA     BYTE      ADC_RESL
      000000DDH   SFRSYM    DATA     BYTE      T4T3M
      000000C1H   SFRSYM    DATA     BYTE      WDT_CONTR
      000000DFH   SFRSYM    DATA     BYTE      IP3
L251 LINKER/LOCATER V4.66.93.0                                                        09/26/2025  18:18:13  PAGE 51


      000000F4H   SFRSYM    DATA     BYTE      USBCON
      000000B5H   SFRSYM    DATA     BYTE      IP2
      000000FFH   SFRSYM    DATA     BYTE      RSTCFG
      000000C7H   SFRSYM    DATA     BYTE      IAP_CONTR
      0000008EH   SFRSYM    DATA     BYTE      AUXR
      000000AFH   SFRSYM    DATA     BYTE      IE2
      00000088H   SFRSYM    DATA     BYTE      TCON
      00000089H   SFRSYM    DATA     BYTE      TMOD
      00000098H   SFRSYM    DATA     BYTE      SCON
      00000087H   SFRSYM    DATA     BYTE      PCON
      000000BCH   SFRSYM    DATA     BYTE      ADC_CONTR
      000000D1H   SFRSYM    DATA     BYTE      PSW1
      000000E7H   SFRSYM    DATA     BYTE      CMPCR2
      000000E6H   SFRSYM    DATA     BYTE      CMPCR1
      000000DEH   SFRSYM    DATA     BYTE      ADCCFG
      000000B8H   SFRSYM    DATA     BYTE      IP
      0000008FH   SFRSYM    DATA     BYTE      INTCLKO
      000000EEH   SFRSYM    DATA     BYTE      IP3H
      000000B6H   SFRSYM    DATA     BYTE      IP2H
      000000BDH   SFRSYM    DATA     BYTE      ADC_RES
      000000BFH   SFRSYM    DATA     BYTE      P_SW4
      000000A8H   SFRSYM    DATA     BYTE      IE
      000000BBH   SFRSYM    DATA     BYTE      P_SW3
      000000BAH   SFRSYM    DATA     BYTE      P_SW2
      000000A2H   SFRSYM    DATA     BYTE      P_SW1
      000000CEH   SFRSYM    DATA     BYTE      SPCTL
      000000F8H   SFRSYM    DATA     BYTE      P7
      000000E8H   SFRSYM    DATA     BYTE      P6
      000000C8H   SFRSYM    DATA     BYTE      P5
      000000C0H   SFRSYM    DATA     BYTE      P4
      000000ABH   SFRSYM    DATA     BYTE      WKTCH
      000000B0H   SFRSYM    DATA     BYTE      P3
      000000A0H   SFRSYM    DATA     BYTE      P2
      00000090H   SFRSYM    DATA     BYTE      P1
      00000080H   SFRSYM    DATA     BYTE      P0
      00000091H   SFRSYM    DATA     BYTE      P1M1
      00000092H   SFRSYM    DATA     BYTE      P1M0
      00000093H   SFRSYM    DATA     BYTE      P0M1
      00010EE6H   SYMBOL    XDATA    BYTE      adc_resolution
      WR14        REGSYM    ---      INT       ch
      R13         REGSYM    ---      BYTE      count
      R12         REGSYM    ---      BYTE      i

      00FFA914H   BLOCK     CODE     ---       LVL=0
      WR6         REGSYM    ---      INT       ch
      WR6         REGSYM    ---      WORD      adc_value
      00FFA914H   LINE      CODE     ---       #75
      00FFA914H   LINE      CODE     ---       #76
      00FFA914H   LINE      CODE     ---       #79
      00FFA917H   LINE      CODE     ---       #80
      00FFA91BH   LINE      CODE     ---       #82
      00FFA91EH   LINE      CODE     ---       #84
      00FFA923H   LINE      CODE     ---       #86
      00FFA926H   LINE      CODE     ---       #88
      00FFA928H   LINE      CODE     ---       #89
      00FFA92CH   LINE      CODE     ---       #90
      00FFA932H   LINE      CODE     ---       #92
      00FFA935H   LINE      CODE     ---       #93
      00FFA938H   LINE      CODE     ---       #95
      00FFA943H   LINE      CODE     ---       #98
      00FFA943H   LINE      CODE     ---       #99
      ---         BLOCKEND  ---      ---       LVL=0

      00FF9B77H   BLOCK     CODE     ---       LVL=0
      WR4         REGSYM    ---      INT       ch
L251 LINKER/LOCATER V4.66.93.0                                                        09/26/2025  18:18:13  PAGE 52


      WR2         REGSYM    ---      INT       resolution
      00FF9B77H   LINE      CODE     ---       #108
      00FF9B7BH   LINE      CODE     ---       #110
      00FF9B7EH   LINE      CODE     ---       #112
      00FF9B81H   LINE      CODE     ---       #113
      00FF9B87H   LINE      CODE     ---       #115
      00FF9B95H   LINE      CODE     ---       #118
      00FF9BAAH   LINE      CODE     ---       #119
      00FF9BBDH   LINE      CODE     ---       #120
      00FF9BBFH   LINE      CODE     ---       #121
      00FF9BC9H   LINE      CODE     ---       #124
      00FF9BDEH   LINE      CODE     ---       #125
      00FF9BF1H   LINE      CODE     ---       #126
      00FF9BF1H   LINE      CODE     ---       #128
      00FF9BF4H   LINE      CODE     ---       #130
      00FF9BF7H   LINE      CODE     ---       #132
      00FF9BFDH   LINE      CODE     ---       #133
      ---         BLOCKEND  ---      ---       LVL=0

      ---         MODULE    ---      ---       zf_driver_delay
      00FFA22FH   PUBLIC    CODE     ---       system_delay_init
      00FF9FC8H   PUBLIC    CODE     ---       system_delay_ms
      000000D0H   SFRSYM    DATA     BYTE      PSW
      0000009DH   SFRSYM    DATA     BYTE      IRCBAND
      00000097H   SFRSYM    DATA     BYTE      AUXR2
      000000EFH   SFRSYM    DATA     BYTE      AUXINTIF
      000000FDH   SFRSYM    DATA     BYTE      S4CON
      000000ACH   SFRSYM    DATA     BYTE      S3CON
      0000009AH   SFRSYM    DATA     BYTE      S2CON
      000000B7H   SFRSYM    DATA     BYTE      IPH
      000000CDH   SFRSYM    DATA     BYTE      SPSTAT
      000000DDH   SFRSYM    DATA     BYTE      T4T3M
      000000C1H   SFRSYM    DATA     BYTE      WDT_CONTR
      000000DFH   SFRSYM    DATA     BYTE      IP3
      000000F4H   SFRSYM    DATA     BYTE      USBCON
      000000B5H   SFRSYM    DATA     BYTE      IP2
      000000FFH   SFRSYM    DATA     BYTE      RSTCFG
      000000C7H   SFRSYM    DATA     BYTE      IAP_CONTR
      0000008EH   SFRSYM    DATA     BYTE      AUXR
      000000AFH   SFRSYM    DATA     BYTE      IE2
      00000088H   SFRSYM    DATA     BYTE      TCON
      00000089H   SFRSYM    DATA     BYTE      TMOD
      00000098H   SFRSYM    DATA     BYTE      SCON
      00000087H   SFRSYM    DATA     BYTE      PCON
      000000BCH   SFRSYM    DATA     BYTE      ADC_CONTR
      000000D1H   SFRSYM    DATA     BYTE      PSW1
      000000E7H   SFRSYM    DATA     BYTE      CMPCR2
      000000E6H   SFRSYM    DATA     BYTE      CMPCR1
      000000DEH   SFRSYM    DATA     BYTE      ADCCFG
      000000B8H   SFRSYM    DATA     BYTE      IP
      0000008FH   SFRSYM    DATA     BYTE      INTCLKO
      000000EEH   SFRSYM    DATA     BYTE      IP3H
      000000B6H   SFRSYM    DATA     BYTE      IP2H
      000000BFH   SFRSYM    DATA     BYTE      P_SW4
      000000A8H   SFRSYM    DATA     BYTE      IE
      000000BBH   SFRSYM    DATA     BYTE      P_SW3
      000000BAH   SFRSYM    DATA     BYTE      P_SW2
      000000A2H   SFRSYM    DATA     BYTE      P_SW1
      000000CEH   SFRSYM    DATA     BYTE      SPCTL
      000000F8H   SFRSYM    DATA     BYTE      P7
      000000E8H   SFRSYM    DATA     BYTE      P6
      000000C8H   SFRSYM    DATA     BYTE      P5
      000000C0H   SFRSYM    DATA     BYTE      P4
      000000ABH   SFRSYM    DATA     BYTE      WKTCH
      000000B0H   SFRSYM    DATA     BYTE      P3
L251 LINKER/LOCATER V4.66.93.0                                                        09/26/2025  18:18:13  PAGE 53


      000000A0H   SFRSYM    DATA     BYTE      P2
      00000090H   SFRSYM    DATA     BYTE      P1
      00000080H   SFRSYM    DATA     BYTE      P0
      00010ED9H   SYMBOL    XDATA    WORD      pca_delay_1ms
      00010EDBH   SYMBOL    XDATA    WORD      pca_delay_1us

      00FFA22FH   BLOCK     CODE     ---       LVL=0
      00FFA22FH   LINE      CODE     ---       #48
      00FFA22FH   LINE      CODE     ---       #50
      00FFA246H   LINE      CODE     ---       #51
      00FFA261H   LINE      CODE     ---       #53
      00FFA26EH   LINE      CODE     ---       #54
      00FFA27BH   LINE      CODE     ---       #55
      00FFA28BH   LINE      CODE     ---       #57
      ---         BLOCKEND  ---      ---       LVL=0

      00FF9FC8H   BLOCK     CODE     ---       LVL=0
      WR8         REGSYM    ---      WORD      ms
      00FF9FCAH   BLOCK     CODE     NEAR LAB  LVL=1
      WR6         REGSYM    ---      WORD      temp
      ---         BLOCKEND  ---      ---       LVL=1
      00FF9FC8H   LINE      CODE     ---       #65
      00FF9FCAH   LINE      CODE     ---       #66
      00FF9FCAH   LINE      CODE     ---       #69
      00FF9FCCH   LINE      CODE     ---       #71
      00FF9FF0H   LINE      CODE     ---       #73
      00FF9FFDH   LINE      CODE     ---       #74
      00FFA00CH   LINE      CODE     ---       #76
      00FFA01AH   LINE      CODE     ---       #77
      00FFA02AH   LINE      CODE     ---       #78
      00FFA032H   LINE      CODE     ---       #79
      ---         BLOCKEND  ---      ---       LVL=0
      WR8         REGSYM    ---      WORD      ms
      WR6         REGSYM    ---      WORD      temp

      ---         MODULE    ---      ---       zf_driver_eeprom
      00FF0046H   PUBLIC    CODE     ---       iap_set_tps
      00FF019EH   PUBLIC    CODE     ---       eeprom_trig
      00FFA9F1H   PUBLIC    CODE     ---       iap_erase_page
      00FFA526H   PUBLIC    CODE     ---       iap_read_buff
      00FFA56FH   PUBLIC    CODE     ---       iap_write_buff
      00FFAA8BH   PUBLIC    CODE     ---       iap_read_byte
      00FF0003H   PUBLIC    CODE     ---       iap_init
      00FFA99EH   PUBLIC    CODE     ---       iap_write_byte
      0001075AH   PUBLIC    XDATA    BYTE      ?iap_read_buff?BYTE
      0001075AH   PUBLIC    XDATA    BYTE      ?iap_write_buff?BYTE
      000000D0H   SFRSYM    DATA     BYTE      PSW
      0000009DH   SFRSYM    DATA     BYTE      IRCBAND
      00000097H   SFRSYM    DATA     BYTE      AUXR2
      000000C6H   SFRSYM    DATA     BYTE      IAP_TRIG
      000000EFH   SFRSYM    DATA     BYTE      AUXINTIF
      000000FDH   SFRSYM    DATA     BYTE      S4CON
      000000ACH   SFRSYM    DATA     BYTE      S3CON
      0000009AH   SFRSYM    DATA     BYTE      S2CON
      000000B7H   SFRSYM    DATA     BYTE      IPH
      000000CDH   SFRSYM    DATA     BYTE      SPSTAT
      000000DDH   SFRSYM    DATA     BYTE      T4T3M
      000000C1H   SFRSYM    DATA     BYTE      WDT_CONTR
      000000C2H   SFRSYM    DATA     BYTE      IAP_DATA
      000000DFH   SFRSYM    DATA     BYTE      IP3
      000000F4H   SFRSYM    DATA     BYTE      USBCON
      000000B5H   SFRSYM    DATA     BYTE      IP2
      000000FFH   SFRSYM    DATA     BYTE      RSTCFG
      000000C7H   SFRSYM    DATA     BYTE      IAP_CONTR
      0000008EH   SFRSYM    DATA     BYTE      AUXR
L251 LINKER/LOCATER V4.66.93.0                                                        09/26/2025  18:18:13  PAGE 54


      000000AFH   SFRSYM    DATA     BYTE      IE2
      00000088H   SFRSYM    DATA     BYTE      TCON
      00000089H   SFRSYM    DATA     BYTE      TMOD
      00000098H   SFRSYM    DATA     BYTE      SCON
      000000F5H   SFRSYM    DATA     BYTE      IAP_TPS
      00000087H   SFRSYM    DATA     BYTE      PCON
      000000BCH   SFRSYM    DATA     BYTE      ADC_CONTR
      000000D1H   SFRSYM    DATA     BYTE      PSW1
      000000E7H   SFRSYM    DATA     BYTE      CMPCR2
      000000E6H   SFRSYM    DATA     BYTE      CMPCR1
      000000C4H   SFRSYM    DATA     BYTE      IAP_ADDRL
      000000C3H   SFRSYM    DATA     BYTE      IAP_ADDRH
      000000F6H   SFRSYM    DATA     BYTE      IAP_ADDRE
      000000DEH   SFRSYM    DATA     BYTE      ADCCFG
      000000B8H   SFRSYM    DATA     BYTE      IP
      0000008FH   SFRSYM    DATA     BYTE      INTCLKO
      000000EEH   SFRSYM    DATA     BYTE      IP3H
      000000B6H   SFRSYM    DATA     BYTE      IP2H
      000000C5H   SFRSYM    DATA     BYTE      IAP_CMD
      000000BFH   SFRSYM    DATA     BYTE      P_SW4
      000000A8H   SFRSYM    DATA     BYTE      IE
      000000BBH   SFRSYM    DATA     BYTE      P_SW3
      000000BAH   SFRSYM    DATA     BYTE      P_SW2
      000000A2H   SFRSYM    DATA     BYTE      P_SW1
      000000CEH   SFRSYM    DATA     BYTE      SPCTL
      000000F8H   SFRSYM    DATA     BYTE      P7
      000000A8H.7 SFRSYM    DATA     BIT       EA
      000000E8H   SFRSYM    DATA     BYTE      P6
      000000C8H   SFRSYM    DATA     BYTE      P5
      000000C0H   SFRSYM    DATA     BYTE      P4
      000000ABH   SFRSYM    DATA     BYTE      WKTCH
      000000B0H   SFRSYM    DATA     BYTE      P3
      000000A0H   SFRSYM    DATA     BYTE      P2
      00000090H   SFRSYM    DATA     BYTE      P1
      00000080H   SFRSYM    DATA     BYTE      P0
      00FFBB22H   SYMBOL    HCONST   ---       ?tpl?0001

      00FF019EH   BLOCK     CODE     ---       LVL=0
      00FF019EH   LINE      CODE     ---       #46
      00FF019EH   LINE      CODE     ---       #49
      00FF01A1H   LINE      CODE     ---       #50
      00FF01A4H   LINE      CODE     ---       #53
      00FF01A5H   LINE      CODE     ---       #54
      00FF01A6H   LINE      CODE     ---       #55
      00FF01A7H   LINE      CODE     ---       #56
      00FF01A8H   LINE      CODE     ---       #58
      ---         BLOCKEND  ---      ---       LVL=0

      00FF0003H   BLOCK     CODE     ---       LVL=0
      00FF0003H   LINE      CODE     ---       #67
      00FF0003H   LINE      CODE     ---       #69
      00FF0006H   LINE      CODE     ---       #70
      00FF0009H   LINE      CODE     ---       #71
      ---         BLOCKEND  ---      ---       LVL=0

      00FF0046H   BLOCK     CODE     ---       LVL=0
      R7          REGSYM    ---      BYTE      write_time
      00FF0046H   LINE      CODE     ---       #104
      00FF0046H   LINE      CODE     ---       #105
      00FF0046H   LINE      CODE     ---       #107
      00FF005BH   LINE      CODE     ---       #108
      00FF0061H   LINE      CODE     ---       #109
      ---         BLOCKEND  ---      ---       LVL=0

      00FFAA8BH   BLOCK     CODE     ---       LVL=0
L251 LINKER/LOCATER V4.66.93.0                                                        09/26/2025  18:18:13  PAGE 55


      DR0         REGSYM    ---      DWORD     addr
      00FFAA8DH   BLOCK     CODE     NEAR LAB  LVL=1
      R11         REGSYM    ---      BYTE      temp
      00000020H.1 SYMBOL    BIT      BIT       flag
      ---         BLOCKEND  ---      ---       LVL=1
      00FFAA8BH   LINE      CODE     ---       #119
      00FFAA8DH   LINE      CODE     ---       #120
      00FFAA8DH   LINE      CODE     ---       #122
      00FFAA8FH   LINE      CODE     ---       #123
      00FFAA93H   LINE      CODE     ---       #124
      00FFAA95H   LINE      CODE     ---       #126
      00FFAA98H   LINE      CODE     ---       #128
      00FFAA9CH   LINE      CODE     ---       #129
      00FFAAA0H   LINE      CODE     ---       #130
      00FFAAA4H   LINE      CODE     ---       #131
      00FFAAA7H   LINE      CODE     ---       #132
      00FFAAA9H   LINE      CODE     ---       #134
      00FFAAADH   LINE      CODE     ---       #135
      00FFAAADH   LINE      CODE     ---       #136
      ---         BLOCKEND  ---      ---       LVL=0

      00FFA99EH   BLOCK     CODE     ---       LVL=0
      DR0         REGSYM    ---      DWORD     addr
      R15         REGSYM    ---      BYTE      byte
      00FFA9A4H   BLOCK     CODE     NEAR LAB  LVL=1
      00000020H.1 SYMBOL    BIT      BIT       flag
      ---         BLOCKEND  ---      ---       LVL=1
      00FFA99EH   LINE      CODE     ---       #146
      00FFA9A4H   LINE      CODE     ---       #147
      00FFA9A4H   LINE      CODE     ---       #148
      00FFA9A6H   LINE      CODE     ---       #150
      00FFA9AAH   LINE      CODE     ---       #151
      00FFA9ACH   LINE      CODE     ---       #153
      00FFA9AFH   LINE      CODE     ---       #155
      00FFA9B3H   LINE      CODE     ---       #156
      00FFA9B7H   LINE      CODE     ---       #157
      00FFA9BBH   LINE      CODE     ---       #158
      00FFA9BEH   LINE      CODE     ---       #160
      00FFA9C1H   LINE      CODE     ---       #162
      00FFA9C5H   LINE      CODE     ---       #163
      ---         BLOCKEND  ---      ---       LVL=0

      00FFA526H   BLOCK     CODE     ---       LVL=0
      0001075EH   SYMBOL    XDATA    DWORD     addr
      REG=3       REGSYM    ---      ---       buf
      00010762H   SYMBOL    XDATA    WORD      len
      00FFA526H   LINE      CODE     ---       #175
      00FFA534H   LINE      CODE     ---       #177
      00FFA536H   LINE      CODE     ---       #179
      00FFA548H   LINE      CODE     ---       #180
      00FFA55BH   LINE      CODE     ---       #181
      00FFA56CH   LINE      CODE     ---       #182
      ---         BLOCKEND  ---      ---       LVL=0

      00FFA56FH   BLOCK     CODE     ---       LVL=0
      0001075EH   SYMBOL    XDATA    DWORD     addr
      REG=3       REGSYM    ---      ---       buf
      00010762H   SYMBOL    XDATA    WORD      len
      00FFA56FH   LINE      CODE     ---       #194
      00FFA57DH   LINE      CODE     ---       #196
      00FFA57FH   LINE      CODE     ---       #198
      00FFA58FH   LINE      CODE     ---       #199
      00FFA5A2H   LINE      CODE     ---       #200
      00FFA5A4H   LINE      CODE     ---       #201
      00FFA5B5H   LINE      CODE     ---       #202
L251 LINKER/LOCATER V4.66.93.0                                                        09/26/2025  18:18:13  PAGE 56


      ---         BLOCKEND  ---      ---       LVL=0

      00FFA9F1H   BLOCK     CODE     ---       LVL=0
      DR0         REGSYM    ---      DWORD     addr
      00FFA9F3H   BLOCK     CODE     NEAR LAB  LVL=1
      00000020H.1 SYMBOL    BIT      BIT       flag
      ---         BLOCKEND  ---      ---       LVL=1
      00FFA9F1H   LINE      CODE     ---       #213
      00FFA9F3H   LINE      CODE     ---       #214
      00FFA9F3H   LINE      CODE     ---       #215
      00FFA9F5H   LINE      CODE     ---       #217
      00FFA9F9H   LINE      CODE     ---       #218
      00FFA9FBH   LINE      CODE     ---       #219
      00FFA9FEH   LINE      CODE     ---       #220
      00FFAA02H   LINE      CODE     ---       #221
      00FFAA06H   LINE      CODE     ---       #222
      00FFAA0AH   LINE      CODE     ---       #223
      00FFAA0DH   LINE      CODE     ---       #225
      00FFAA11H   LINE      CODE     ---       #226
      00FFAA18H   LINE      CODE     ---       #227
      ---         BLOCKEND  ---      ---       LVL=0
      REG=3       REGSYM    ---      ---       buf

      ---         MODULE    ---      ---       zf_driver_encoder
      000000D0H   SFRSYM    DATA     BYTE      PSW
      0000009DH   SFRSYM    DATA     BYTE      IRCBAND
      00000097H   SFRSYM    DATA     BYTE      AUXR2
      000000EFH   SFRSYM    DATA     BYTE      AUXINTIF
      000000FDH   SFRSYM    DATA     BYTE      S4CON
      000000ACH   SFRSYM    DATA     BYTE      S3CON
      0000009AH   SFRSYM    DATA     BYTE      S2CON
      000000B7H   SFRSYM    DATA     BYTE      IPH
      000000CDH   SFRSYM    DATA     BYTE      SPSTAT
      000000DDH   SFRSYM    DATA     BYTE      T4T3M
      000000C1H   SFRSYM    DATA     BYTE      WDT_CONTR
      00000088H.6 SFRSYM    DATA     BIT       TR1
      00000088H.4 SFRSYM    DATA     BIT       TR0
      000000D3H   SFRSYM    DATA     BYTE      T4L
      000000D5H   SFRSYM    DATA     BYTE      T3L
      000000D7H   SFRSYM    DATA     BYTE      T2L
      0000008BH   SFRSYM    DATA     BYTE      TL1
      0000008AH   SFRSYM    DATA     BYTE      TL0
      000000D2H   SFRSYM    DATA     BYTE      T4H
      000000D4H   SFRSYM    DATA     BYTE      T3H
      000000D6H   SFRSYM    DATA     BYTE      T2H
      0000008DH   SFRSYM    DATA     BYTE      TH1
      0000008CH   SFRSYM    DATA     BYTE      TH0
      000000DFH   SFRSYM    DATA     BYTE      IP3
      000000F4H   SFRSYM    DATA     BYTE      USBCON
      000000B5H   SFRSYM    DATA     BYTE      IP2
      000000FFH   SFRSYM    DATA     BYTE      RSTCFG
      000000C7H   SFRSYM    DATA     BYTE      IAP_CONTR
      0000008EH   SFRSYM    DATA     BYTE      AUXR
      000000AFH   SFRSYM    DATA     BYTE      IE2
      00000088H   SFRSYM    DATA     BYTE      TCON
      00000089H   SFRSYM    DATA     BYTE      TMOD
      00000098H   SFRSYM    DATA     BYTE      SCON
      00000087H   SFRSYM    DATA     BYTE      PCON
      000000BCH   SFRSYM    DATA     BYTE      ADC_CONTR
      000000D1H   SFRSYM    DATA     BYTE      PSW1
      000000E7H   SFRSYM    DATA     BYTE      CMPCR2
      000000E6H   SFRSYM    DATA     BYTE      CMPCR1
      000000DEH   SFRSYM    DATA     BYTE      ADCCFG
      000000B8H   SFRSYM    DATA     BYTE      IP
      0000008FH   SFRSYM    DATA     BYTE      INTCLKO
L251 LINKER/LOCATER V4.66.93.0                                                        09/26/2025  18:18:13  PAGE 57


      000000EEH   SFRSYM    DATA     BYTE      IP3H
      000000B6H   SFRSYM    DATA     BYTE      IP2H
      000000BFH   SFRSYM    DATA     BYTE      P_SW4
      000000A8H   SFRSYM    DATA     BYTE      IE
      000000BBH   SFRSYM    DATA     BYTE      P_SW3
      000000BAH   SFRSYM    DATA     BYTE      P_SW2
      000000A2H   SFRSYM    DATA     BYTE      P_SW1
      000000CEH   SFRSYM    DATA     BYTE      SPCTL
      000000F8H   SFRSYM    DATA     BYTE      P7
      000000E8H   SFRSYM    DATA     BYTE      P6
      000000C8H   SFRSYM    DATA     BYTE      P5
      000000C0H   SFRSYM    DATA     BYTE      P4
      000000ABH   SFRSYM    DATA     BYTE      WKTCH
      000000B0H   SFRSYM    DATA     BYTE      P3
      000000A0H   SFRSYM    DATA     BYTE      P2
      00000090H   SFRSYM    DATA     BYTE      P1
      00000080H   SFRSYM    DATA     BYTE      P0
      00010ECFH   SYMBOL    XDATA    ---       encoder_dir_pin
      WR2         REGSYM    ---      INT       encoder_n
      WR14        REGSYM    ---      INT       dat
      WR6         REGSYM    ---      INT       encoder_n
      WR14        REGSYM    ---      INT       encoder_n
      WR12        REGSYM    ---      INT       dir_pin

      ---         MODULE    ---      ---       zf_driver_exti
      000000D0H   SFRSYM    DATA     BYTE      PSW
      0000009DH   SFRSYM    DATA     BYTE      IRCBAND
      00000097H   SFRSYM    DATA     BYTE      AUXR2
      000000EFH   SFRSYM    DATA     BYTE      AUXINTIF
      000000FDH   SFRSYM    DATA     BYTE      S4CON
      000000ACH   SFRSYM    DATA     BYTE      S3CON
      0000009AH   SFRSYM    DATA     BYTE      S2CON
      000000B7H   SFRSYM    DATA     BYTE      IPH
      000000CDH   SFRSYM    DATA     BYTE      SPSTAT
      000000DDH   SFRSYM    DATA     BYTE      T4T3M
      000000C1H   SFRSYM    DATA     BYTE      WDT_CONTR
      000000DFH   SFRSYM    DATA     BYTE      IP3
      000000F4H   SFRSYM    DATA     BYTE      USBCON
      000000B5H   SFRSYM    DATA     BYTE      IP2
      000000FFH   SFRSYM    DATA     BYTE      RSTCFG
      000000C7H   SFRSYM    DATA     BYTE      IAP_CONTR
      0000008EH   SFRSYM    DATA     BYTE      AUXR
      000000AFH   SFRSYM    DATA     BYTE      IE2
      00000088H   SFRSYM    DATA     BYTE      TCON
      00000089H   SFRSYM    DATA     BYTE      TMOD
      00000098H   SFRSYM    DATA     BYTE      SCON
      00000087H   SFRSYM    DATA     BYTE      PCON
      000000BCH   SFRSYM    DATA     BYTE      ADC_CONTR
      000000D1H   SFRSYM    DATA     BYTE      PSW1
      000000E7H   SFRSYM    DATA     BYTE      CMPCR2
      000000E6H   SFRSYM    DATA     BYTE      CMPCR1
      000000DEH   SFRSYM    DATA     BYTE      ADCCFG
      000000B8H   SFRSYM    DATA     BYTE      IP
      0000008FH   SFRSYM    DATA     BYTE      INTCLKO
      000000EEH   SFRSYM    DATA     BYTE      IP3H
      000000B6H   SFRSYM    DATA     BYTE      IP2H
      000000BFH   SFRSYM    DATA     BYTE      P_SW4
      000000A8H   SFRSYM    DATA     BYTE      IE
      000000BBH   SFRSYM    DATA     BYTE      P_SW3
      000000BAH   SFRSYM    DATA     BYTE      P_SW2
      000000A2H   SFRSYM    DATA     BYTE      P_SW1
      000000CEH   SFRSYM    DATA     BYTE      SPCTL
      000000F8H   SFRSYM    DATA     BYTE      P7
      000000E8H   SFRSYM    DATA     BYTE      P6
      000000C8H   SFRSYM    DATA     BYTE      P5
L251 LINKER/LOCATER V4.66.93.0                                                        09/26/2025  18:18:13  PAGE 58


      000000C0H   SFRSYM    DATA     BYTE      P4
      000000ABH   SFRSYM    DATA     BYTE      WKTCH
      000000B0H   SFRSYM    DATA     BYTE      P3
      000000A0H   SFRSYM    DATA     BYTE      P2
      00000090H   SFRSYM    DATA     BYTE      P1
      00000080H   SFRSYM    DATA     BYTE      P0

      ---         MODULE    ---      ---       zf_driver_gpio
      00FF9234H   PUBLIC    CODE     ---       gpio_init
      00FF00C6H   PUBLIC    CODE     ---       gpio_get_level
      00FF6F25H   PUBLIC    CODE     ---       gpio_set_level_speed
      00FF8024H   PUBLIC    CODE     ---       gpio_set_level
      00FF82DEH   PUBLIC    CODE     ---       gpio_set_impedance
      00000094H   SFRSYM    DATA     BYTE      P0M0
      000000D0H   SFRSYM    DATA     BYTE      PSW
      0000009DH   SFRSYM    DATA     BYTE      IRCBAND
      00000097H   SFRSYM    DATA     BYTE      AUXR2
      000000EFH   SFRSYM    DATA     BYTE      AUXINTIF
      000000FDH   SFRSYM    DATA     BYTE      S4CON
      000000ACH   SFRSYM    DATA     BYTE      S3CON
      0000009AH   SFRSYM    DATA     BYTE      S2CON
      000000B7H   SFRSYM    DATA     BYTE      IPH
      000000CDH   SFRSYM    DATA     BYTE      SPSTAT
      000000DDH   SFRSYM    DATA     BYTE      T4T3M
      000000C1H   SFRSYM    DATA     BYTE      WDT_CONTR
      000000DFH   SFRSYM    DATA     BYTE      IP3
      000000F4H   SFRSYM    DATA     BYTE      USBCON
      000000B5H   SFRSYM    DATA     BYTE      IP2
      000000FFH   SFRSYM    DATA     BYTE      RSTCFG
      000000C7H   SFRSYM    DATA     BYTE      IAP_CONTR
      0000008EH   SFRSYM    DATA     BYTE      AUXR
      000000AFH   SFRSYM    DATA     BYTE      IE2
      00000088H   SFRSYM    DATA     BYTE      TCON
      00000089H   SFRSYM    DATA     BYTE      TMOD
      00000098H   SFRSYM    DATA     BYTE      SCON
      00000087H   SFRSYM    DATA     BYTE      PCON
      000000BCH   SFRSYM    DATA     BYTE      ADC_CONTR
      000000D1H   SFRSYM    DATA     BYTE      PSW1
      000000E7H   SFRSYM    DATA     BYTE      CMPCR2
      000000E6H   SFRSYM    DATA     BYTE      CMPCR1
      000000DEH   SFRSYM    DATA     BYTE      ADCCFG
      000000B8H   SFRSYM    DATA     BYTE      IP
      0000008FH   SFRSYM    DATA     BYTE      INTCLKO
      000000EEH   SFRSYM    DATA     BYTE      IP3H
      000000B6H   SFRSYM    DATA     BYTE      IP2H
      000000BFH   SFRSYM    DATA     BYTE      P_SW4
      000000A8H   SFRSYM    DATA     BYTE      IE
      000000BBH   SFRSYM    DATA     BYTE      P_SW3
      000000BAH   SFRSYM    DATA     BYTE      P_SW2
      000000A2H   SFRSYM    DATA     BYTE      P_SW1
      000000CEH   SFRSYM    DATA     BYTE      SPCTL
      000000F8H   SFRSYM    DATA     BYTE      P7
      000000E8H   SFRSYM    DATA     BYTE      P6
      000000C8H   SFRSYM    DATA     BYTE      P5
      000000C0H   SFRSYM    DATA     BYTE      P4
      000000C9H   SFRSYM    DATA     BYTE      P5M1
      000000ABH   SFRSYM    DATA     BYTE      WKTCH
      000000B0H   SFRSYM    DATA     BYTE      P3
      000000B3H   SFRSYM    DATA     BYTE      P4M1
      000000CAH   SFRSYM    DATA     BYTE      P5M0
      000000A0H   SFRSYM    DATA     BYTE      P2
      000000B1H   SFRSYM    DATA     BYTE      P3M1
      000000B4H   SFRSYM    DATA     BYTE      P4M0
      00000090H   SFRSYM    DATA     BYTE      P1
      00000095H   SFRSYM    DATA     BYTE      P2M1
L251 LINKER/LOCATER V4.66.93.0                                                        09/26/2025  18:18:13  PAGE 59


      000000B2H   SFRSYM    DATA     BYTE      P3M0
      00000080H   SFRSYM    DATA     BYTE      P0
      00000091H   SFRSYM    DATA     BYTE      P1M1
      00000096H   SFRSYM    DATA     BYTE      P2M0
      00000092H   SFRSYM    DATA     BYTE      P1M0
      00000093H   SFRSYM    DATA     BYTE      P0M1
      00FF687CH   SYMBOL    CODE     ---       gpio_set_dir
      00FF7413H   SYMBOL    CODE     ---       gpio_set_mode

      00FF7413H   BLOCK     CODE     ---       LVL=0
      WR4         REGSYM    ---      INT       pin
      WR8         REGSYM    ---      INT       mode
      00FF7413H   LINE      CODE     ---       #45
      00FF7417H   LINE      CODE     ---       #51
      00FF7423H   LINE      CODE     ---       #53
      00FF7452H   LINE      CODE     ---       #54
      00FF7481H   LINE      CODE     ---       #55
      00FF7484H   LINE      CODE     ---       #56
      00FF748AH   LINE      CODE     ---       #58
      00FF74B7H   LINE      CODE     ---       #59
      00FF74BAH   LINE      CODE     ---       #60
      00FF74C6H   LINE      CODE     ---       #62
      00FF74F3H   LINE      CODE     ---       #63
      00FF74F6H   LINE      CODE     ---       #64
      00FF74FFH   LINE      CODE     ---       #66
      00FF7535H   LINE      CODE     ---       #68
      00FF7535H   LINE      CODE     ---       #70
      00FF7548H   LINE      CODE     ---       #71
      00FF755BH   LINE      CODE     ---       #73
      00FF755EH   LINE      CODE     ---       #75
      00FF755EH   LINE      CODE     ---       #77
      00FF7571H   LINE      CODE     ---       #78
      00FF7584H   LINE      CODE     ---       #80
      00FF7587H   LINE      CODE     ---       #82
      00FF7587H   LINE      CODE     ---       #84
      00FF759AH   LINE      CODE     ---       #85
      00FF75ADH   LINE      CODE     ---       #87
      00FF75B0H   LINE      CODE     ---       #89
      00FF75B0H   LINE      CODE     ---       #91
      00FF75C3H   LINE      CODE     ---       #92
      00FF75D6H   LINE      CODE     ---       #94
      00FF75D8H   LINE      CODE     ---       #96
      00FF75D8H   LINE      CODE     ---       #98
      00FF75EBH   LINE      CODE     ---       #99
      00FF75FEH   LINE      CODE     ---       #101
      00FF7600H   LINE      CODE     ---       #103
      00FF7600H   LINE      CODE     ---       #105
      00FF7613H   LINE      CODE     ---       #106
      00FF7626H   LINE      CODE     ---       #108
      00FF7628H   LINE      CODE     ---       #109
      00FF7628H   LINE      CODE     ---       #112
      00FF7628H   LINE      CODE     ---       #113
      00FF7628H   LINE      CODE     ---       #114
      00FF7628H   LINE      CODE     ---       #117
      00FF7638H   LINE      CODE     ---       #119
      00FF7638H   LINE      CODE     ---       #120
      ---         BLOCKEND  ---      ---       LVL=0

      00FF6F25H   BLOCK     CODE     ---       LVL=0
      WR14        REGSYM    ---      INT       pin
      WR12        REGSYM    ---      INT       speed
      00FF6F25H   LINE      CODE     ---       #123
      00FF6F2BH   LINE      CODE     ---       #125
      00FF6F65H   LINE      CODE     ---       #127
      00FF6F65H   LINE      CODE     ---       #129
L251 LINKER/LOCATER V4.66.93.0                                                        09/26/2025  18:18:13  PAGE 60


      00FF6F69H   LINE      CODE     ---       #131
      00FF6F8CH   LINE      CODE     ---       #132
      00FF6F8FH   LINE      CODE     ---       #133
      00FF6F95H   LINE      CODE     ---       #135
      00FF6FB6H   LINE      CODE     ---       #136
      00FF6FB9H   LINE      CODE     ---       #139
      00FF6FC9H   LINE      CODE     ---       #141
      00FF6FC9H   LINE      CODE     ---       #143
      00FF6FCCH   LINE      CODE     ---       #145
      00FF6FCCH   LINE      CODE     ---       #147
      00FF6FD0H   LINE      CODE     ---       #149
      00FF6FF3H   LINE      CODE     ---       #150
      00FF6FF6H   LINE      CODE     ---       #151
      00FF6FFCH   LINE      CODE     ---       #153
      00FF701DH   LINE      CODE     ---       #154
      00FF7020H   LINE      CODE     ---       #157
      00FF7030H   LINE      CODE     ---       #159
      00FF7030H   LINE      CODE     ---       #161
      00FF7033H   LINE      CODE     ---       #163
      00FF7033H   LINE      CODE     ---       #165
      00FF7037H   LINE      CODE     ---       #167
      00FF705AH   LINE      CODE     ---       #168
      00FF705DH   LINE      CODE     ---       #169
      00FF7063H   LINE      CODE     ---       #171
      00FF7084H   LINE      CODE     ---       #172
      00FF7087H   LINE      CODE     ---       #175
      00FF7097H   LINE      CODE     ---       #177
      00FF7097H   LINE      CODE     ---       #179
      00FF709AH   LINE      CODE     ---       #181
      00FF709AH   LINE      CODE     ---       #183
      00FF709EH   LINE      CODE     ---       #185
      00FF70C1H   LINE      CODE     ---       #186
      00FF70C4H   LINE      CODE     ---       #187
      00FF70CAH   LINE      CODE     ---       #189
      00FF70EBH   LINE      CODE     ---       #190
      00FF70EEH   LINE      CODE     ---       #193
      00FF70FEH   LINE      CODE     ---       #195
      00FF70FEH   LINE      CODE     ---       #197
      00FF7101H   LINE      CODE     ---       #199
      00FF7101H   LINE      CODE     ---       #201
      00FF7105H   LINE      CODE     ---       #203
      00FF7128H   LINE      CODE     ---       #204
      00FF712BH   LINE      CODE     ---       #205
      00FF7131H   LINE      CODE     ---       #207
      00FF7152H   LINE      CODE     ---       #208
      00FF7155H   LINE      CODE     ---       #211
      00FF7165H   LINE      CODE     ---       #213
      00FF7165H   LINE      CODE     ---       #215
      00FF7167H   LINE      CODE     ---       #217
      00FF7167H   LINE      CODE     ---       #219
      00FF716BH   LINE      CODE     ---       #221
      00FF718EH   LINE      CODE     ---       #222
      00FF7190H   LINE      CODE     ---       #223
      00FF7196H   LINE      CODE     ---       #225
      00FF71B7H   LINE      CODE     ---       #226
      00FF71B9H   LINE      CODE     ---       #229
      00FF71C9H   LINE      CODE     ---       #231
      00FF71C9H   LINE      CODE     ---       #233
      00FF71CBH   LINE      CODE     ---       #235
      00FF71CBH   LINE      CODE     ---       #237
      00FF71DBH   LINE      CODE     ---       #239
      00FF71DBH   LINE      CODE     ---       #240
      00FF71DBH   LINE      CODE     ---       #241
      ---         BLOCKEND  ---      ---       LVL=0

L251 LINKER/LOCATER V4.66.93.0                                                        09/26/2025  18:18:13  PAGE 61


      00FF687CH   BLOCK     CODE     ---       LVL=0
      WR4         REGSYM    ---      INT       pin
      WR2         REGSYM    ---      INT       dir
      00FF687CH   LINE      CODE     ---       #245
      00FF6880H   LINE      CODE     ---       #247
      00FF68BAH   LINE      CODE     ---       #249
      00FF68BAH   LINE      CODE     ---       #251
      00FF68C0H   LINE      CODE     ---       #253
      00FF68D5H   LINE      CODE     ---       #254
      00FF68EAH   LINE      CODE     ---       #255
      00FF68EDH   LINE      CODE     ---       #261
      00FF68F3H   LINE      CODE     ---       #263
      00FF6908H   LINE      CODE     ---       #264
      00FF691BH   LINE      CODE     ---       #265
      00FF691EH   LINE      CODE     ---       #266
      00FF6925H   LINE      CODE     ---       #268
      00FF6938H   LINE      CODE     ---       #269
      00FF694DH   LINE      CODE     ---       #270
      00FF694DH   LINE      CODE     ---       #272
      00FF6950H   LINE      CODE     ---       #274
      00FF6950H   LINE      CODE     ---       #276
      00FF6956H   LINE      CODE     ---       #278
      00FF696BH   LINE      CODE     ---       #279
      00FF6980H   LINE      CODE     ---       #280
      00FF6983H   LINE      CODE     ---       #286
      00FF6989H   LINE      CODE     ---       #288
      00FF699EH   LINE      CODE     ---       #289
      00FF69B1H   LINE      CODE     ---       #290
      00FF69B4H   LINE      CODE     ---       #291
      00FF69BBH   LINE      CODE     ---       #293
      00FF69CEH   LINE      CODE     ---       #294
      00FF69E3H   LINE      CODE     ---       #295
      00FF69E3H   LINE      CODE     ---       #297
      00FF69E6H   LINE      CODE     ---       #299
      00FF69E6H   LINE      CODE     ---       #301
      00FF69ECH   LINE      CODE     ---       #303
      00FF6A01H   LINE      CODE     ---       #304
      00FF6A16H   LINE      CODE     ---       #305
      00FF6A19H   LINE      CODE     ---       #311
      00FF6A1FH   LINE      CODE     ---       #313
      00FF6A34H   LINE      CODE     ---       #314
      00FF6A47H   LINE      CODE     ---       #315
      00FF6A4AH   LINE      CODE     ---       #316
      00FF6A51H   LINE      CODE     ---       #318
      00FF6A64H   LINE      CODE     ---       #319
      00FF6A79H   LINE      CODE     ---       #320
      00FF6A79H   LINE      CODE     ---       #322
      00FF6A7CH   LINE      CODE     ---       #324
      00FF6A7CH   LINE      CODE     ---       #326
      00FF6A82H   LINE      CODE     ---       #328
      00FF6A97H   LINE      CODE     ---       #329
      00FF6AACH   LINE      CODE     ---       #330
      00FF6AAFH   LINE      CODE     ---       #336
      00FF6AB5H   LINE      CODE     ---       #338
      00FF6ACAH   LINE      CODE     ---       #339
      00FF6ADDH   LINE      CODE     ---       #340
      00FF6AE0H   LINE      CODE     ---       #341
      00FF6AE7H   LINE      CODE     ---       #343
      00FF6AFAH   LINE      CODE     ---       #344
      00FF6B0FH   LINE      CODE     ---       #345
      00FF6B0FH   LINE      CODE     ---       #347
      00FF6B12H   LINE      CODE     ---       #349
      00FF6B12H   LINE      CODE     ---       #351
      00FF6B18H   LINE      CODE     ---       #353
      00FF6B2DH   LINE      CODE     ---       #354
L251 LINKER/LOCATER V4.66.93.0                                                        09/26/2025  18:18:13  PAGE 62


      00FF6B42H   LINE      CODE     ---       #355
      00FF6B45H   LINE      CODE     ---       #361
      00FF6B4BH   LINE      CODE     ---       #363
      00FF6B60H   LINE      CODE     ---       #364
      00FF6B73H   LINE      CODE     ---       #365
      00FF6B76H   LINE      CODE     ---       #366
      00FF6B7DH   LINE      CODE     ---       #368
      00FF6B90H   LINE      CODE     ---       #369
      00FF6BA5H   LINE      CODE     ---       #370
      00FF6BA5H   LINE      CODE     ---       #372
      00FF6BA8H   LINE      CODE     ---       #374
      00FF6BA8H   LINE      CODE     ---       #376
      00FF6BAEH   LINE      CODE     ---       #378
      00FF6BC3H   LINE      CODE     ---       #379
      00FF6BD8H   LINE      CODE     ---       #380
      00FF6BDAH   LINE      CODE     ---       #386
      00FF6BE0H   LINE      CODE     ---       #388
      00FF6BF5H   LINE      CODE     ---       #389
      00FF6C08H   LINE      CODE     ---       #390
      00FF6C0AH   LINE      CODE     ---       #391
      00FF6C0EH   LINE      CODE     ---       #393
      00FF6C21H   LINE      CODE     ---       #394
      00FF6C36H   LINE      CODE     ---       #395
      00FF6C36H   LINE      CODE     ---       #397
      00FF6C38H   LINE      CODE     ---       #399
      00FF6C38H   LINE      CODE     ---       #401
      00FF6C48H   LINE      CODE     ---       #403
      00FF6C48H   LINE      CODE     ---       #404
      00FF6C48H   LINE      CODE     ---       #405
      ---         BLOCKEND  ---      ---       LVL=0

      00FF00C6H   BLOCK     CODE     ---       LVL=0
      WR4         REGSYM    ---      INT       pin
      00FF00CAH   BLOCK     CODE     NEAR LAB  LVL=1
      R15         REGSYM    ---      BYTE      status
      ---         BLOCKEND  ---      ---       LVL=1
      00FF00C6H   LINE      CODE     ---       #413
      00FF00CAH   LINE      CODE     ---       #414
      00FF00CAH   LINE      CODE     ---       #415
      00FF00CCH   LINE      CODE     ---       #417
      00FF00F9H   LINE      CODE     ---       #419
      00FF00F9H   LINE      CODE     ---       #421
      00FF010DH   LINE      CODE     ---       #423
      00FF010FH   LINE      CODE     ---       #425
      00FF010FH   LINE      CODE     ---       #427
      00FF0123H   LINE      CODE     ---       #429
      00FF0125H   LINE      CODE     ---       #431
      00FF0125H   LINE      CODE     ---       #433
      00FF0139H   LINE      CODE     ---       #435
      00FF013BH   LINE      CODE     ---       #437
      00FF013BH   LINE      CODE     ---       #439
      00FF014FH   LINE      CODE     ---       #441
      00FF0151H   LINE      CODE     ---       #443
      00FF0151H   LINE      CODE     ---       #445
      00FF0165H   LINE      CODE     ---       #447
      00FF0167H   LINE      CODE     ---       #449
      00FF0167H   LINE      CODE     ---       #451
      00FF017BH   LINE      CODE     ---       #453
      00FF017DH   LINE      CODE     ---       #455
      00FF017DH   LINE      CODE     ---       #457
      00FF018DH   LINE      CODE     ---       #459
      00FF018DH   LINE      CODE     ---       #460
      00FF018DH   LINE      CODE     ---       #462
      00FF0196H   LINE      CODE     ---       #463
      ---         BLOCKEND  ---      ---       LVL=0
L251 LINKER/LOCATER V4.66.93.0                                                        09/26/2025  18:18:13  PAGE 63



      00FF8024H   BLOCK     CODE     ---       LVL=0
      WR4         REGSYM    ---      INT       pin
      R10         REGSYM    ---      BYTE      dat
      00FF8024H   LINE      CODE     ---       #472
      00FF8028H   LINE      CODE     ---       #474
      00FF805FH   LINE      CODE     ---       #476
      00FF805FH   LINE      CODE     ---       #478
      00FF8063H   LINE      CODE     ---       #480
      00FF8076H   LINE      CODE     ---       #481
      00FF8079H   LINE      CODE     ---       #484
      00FF808EH   LINE      CODE     ---       #485
      00FF808EH   LINE      CODE     ---       #487
      00FF8091H   LINE      CODE     ---       #489
      00FF8091H   LINE      CODE     ---       #491
      00FF8095H   LINE      CODE     ---       #493
      00FF80A8H   LINE      CODE     ---       #494
      00FF80ABH   LINE      CODE     ---       #497
      00FF80C0H   LINE      CODE     ---       #498
      00FF80C0H   LINE      CODE     ---       #500
      00FF80C3H   LINE      CODE     ---       #502
      00FF80C3H   LINE      CODE     ---       #504
      00FF80C7H   LINE      CODE     ---       #506
      00FF80DAH   LINE      CODE     ---       #507
      00FF80DDH   LINE      CODE     ---       #510
      00FF80F2H   LINE      CODE     ---       #511
      00FF80F2H   LINE      CODE     ---       #513
      00FF80F5H   LINE      CODE     ---       #515
      00FF80F5H   LINE      CODE     ---       #517
      00FF80F9H   LINE      CODE     ---       #519
      00FF810CH   LINE      CODE     ---       #520
      00FF810FH   LINE      CODE     ---       #523
      00FF8124H   LINE      CODE     ---       #524
      00FF8124H   LINE      CODE     ---       #526
      00FF8126H   LINE      CODE     ---       #528
      00FF8126H   LINE      CODE     ---       #530
      00FF812AH   LINE      CODE     ---       #532
      00FF813DH   LINE      CODE     ---       #533
      00FF813FH   LINE      CODE     ---       #536
      00FF8154H   LINE      CODE     ---       #537
      00FF8154H   LINE      CODE     ---       #539
      00FF8156H   LINE      CODE     ---       #541
      00FF8156H   LINE      CODE     ---       #543
      00FF815AH   LINE      CODE     ---       #545
      00FF816DH   LINE      CODE     ---       #546
      00FF816FH   LINE      CODE     ---       #549
      00FF8184H   LINE      CODE     ---       #550
      00FF8184H   LINE      CODE     ---       #552
      00FF8186H   LINE      CODE     ---       #554
      00FF8186H   LINE      CODE     ---       #556
      00FF8196H   LINE      CODE     ---       #558
      00FF8196H   LINE      CODE     ---       #559
      00FF8196H   LINE      CODE     ---       #560
      ---         BLOCKEND  ---      ---       LVL=0
      WR14        REGSYM    ---      INT       pin

      00FF82DEH   BLOCK     CODE     ---       LVL=0
      WR4         REGSYM    ---      INT       pin
      00FF82DEH   LINE      CODE     ---       #587
      00FF82E0H   LINE      CODE     ---       #589
      00FF8314H   LINE      CODE     ---       #591
      00FF8314H   LINE      CODE     ---       #593
      00FF8327H   LINE      CODE     ---       #594
      00FF833CH   LINE      CODE     ---       #596
      00FF833FH   LINE      CODE     ---       #598
L251 LINKER/LOCATER V4.66.93.0                                                        09/26/2025  18:18:13  PAGE 64


      00FF833FH   LINE      CODE     ---       #600
      00FF8352H   LINE      CODE     ---       #601
      00FF8367H   LINE      CODE     ---       #603
      00FF836AH   LINE      CODE     ---       #605
      00FF836AH   LINE      CODE     ---       #607
      00FF837DH   LINE      CODE     ---       #608
      00FF8392H   LINE      CODE     ---       #610
      00FF8395H   LINE      CODE     ---       #612
      00FF8395H   LINE      CODE     ---       #614
      00FF83A8H   LINE      CODE     ---       #615
      00FF83BDH   LINE      CODE     ---       #617
      00FF83BFH   LINE      CODE     ---       #619
      00FF83BFH   LINE      CODE     ---       #621
      00FF83D2H   LINE      CODE     ---       #622
      00FF83E7H   LINE      CODE     ---       #624
      00FF83E9H   LINE      CODE     ---       #626
      00FF83E9H   LINE      CODE     ---       #628
      00FF83FCH   LINE      CODE     ---       #629
      00FF8411H   LINE      CODE     ---       #631
      00FF8413H   LINE      CODE     ---       #633
      00FF8413H   LINE      CODE     ---       #635
      00FF8423H   LINE      CODE     ---       #637
      00FF8423H   LINE      CODE     ---       #638
      00FF8423H   LINE      CODE     ---       #639
      ---         BLOCKEND  ---      ---       LVL=0

      00FF9234H   BLOCK     CODE     ---       LVL=0
      WR14        REGSYM    ---      INT       pin
      0001056EH   SYMBOL    XDATA    INT       dir
      00010570H   SYMBOL    XDATA    BYTE      dat
      WR12        REGSYM    ---      INT       mode
      00FF9234H   LINE      CODE     ---       #650
      00FF9244H   LINE      CODE     ---       #652
      00FF926CH   LINE      CODE     ---       #654
      00FF9278H   LINE      CODE     ---       #656
      00FF9281H   LINE      CODE     ---       #657
      00FF9288H   LINE      CODE     ---       #658
      00FF928AH   LINE      CODE     ---       #659
      00FF9294H   LINE      CODE     ---       #661
      00FF9298H   LINE      CODE     ---       #663
      00FF929DH   LINE      CODE     ---       #664
      00FF929FH   LINE      CODE     ---       #667
      00FF92A6H   LINE      CODE     ---       #668
      00FF92ADH   LINE      CODE     ---       #669
      00FF92ADH   LINE      CODE     ---       #670
      00FF92AFH   LINE      CODE     ---       #671
      00FF92BBH   LINE      CODE     ---       #673
      00FF92C1H   LINE      CODE     ---       #675
      00FF92CAH   LINE      CODE     ---       #676
      00FF92D3H   LINE      CODE     ---       #677
      00FF92D5H   LINE      CODE     ---       #678
      00FF92DBH   LINE      CODE     ---       #680
      00FF92E4H   LINE      CODE     ---       #681
      00FF92E4H   LINE      CODE     ---       #683
      00FF92EDH   LINE      CODE     ---       #684
      ---         BLOCKEND  ---      ---       LVL=0

      ---         MODULE    ---      ---       zf_driver_pit
      00FF7639H   PUBLIC    CODE     ---       pit_init
      000000D0H   SFRSYM    DATA     BYTE      PSW
      0000009DH   SFRSYM    DATA     BYTE      IRCBAND
      00000097H   SFRSYM    DATA     BYTE      AUXR2
      000000EFH   SFRSYM    DATA     BYTE      AUXINTIF
      000000FDH   SFRSYM    DATA     BYTE      S4CON
      000000ACH   SFRSYM    DATA     BYTE      S3CON
L251 LINKER/LOCATER V4.66.93.0                                                        09/26/2025  18:18:13  PAGE 65


      0000009AH   SFRSYM    DATA     BYTE      S2CON
      000000B7H   SFRSYM    DATA     BYTE      IPH
      000000CDH   SFRSYM    DATA     BYTE      SPSTAT
      000000DDH   SFRSYM    DATA     BYTE      T4T3M
      000000C1H   SFRSYM    DATA     BYTE      WDT_CONTR
      00000088H.6 SFRSYM    DATA     BIT       TR1
      00000088H.4 SFRSYM    DATA     BIT       TR0
      000000D3H   SFRSYM    DATA     BYTE      T4L
      000000D5H   SFRSYM    DATA     BYTE      T3L
      000000D7H   SFRSYM    DATA     BYTE      T2L
      0000008BH   SFRSYM    DATA     BYTE      TL1
      0000008AH   SFRSYM    DATA     BYTE      TL0
      000000D2H   SFRSYM    DATA     BYTE      T4H
      000000D4H   SFRSYM    DATA     BYTE      T3H
      000000D6H   SFRSYM    DATA     BYTE      T2H
      0000008DH   SFRSYM    DATA     BYTE      TH1
      0000008CH   SFRSYM    DATA     BYTE      TH0
      000000DFH   SFRSYM    DATA     BYTE      IP3
      000000F4H   SFRSYM    DATA     BYTE      USBCON
      000000B5H   SFRSYM    DATA     BYTE      IP2
      000000FFH   SFRSYM    DATA     BYTE      RSTCFG
      000000A8H.3 SFRSYM    DATA     BIT       ET1
      000000A8H.1 SFRSYM    DATA     BIT       ET0
      000000C7H   SFRSYM    DATA     BYTE      IAP_CONTR
      0000008EH   SFRSYM    DATA     BYTE      AUXR
      000000AFH   SFRSYM    DATA     BYTE      IE2
      00000088H   SFRSYM    DATA     BYTE      TCON
      00000089H   SFRSYM    DATA     BYTE      TMOD
      00000098H   SFRSYM    DATA     BYTE      SCON
      00000087H   SFRSYM    DATA     BYTE      PCON
      000000BCH   SFRSYM    DATA     BYTE      ADC_CONTR
      000000D1H   SFRSYM    DATA     BYTE      PSW1
      000000E7H   SFRSYM    DATA     BYTE      CMPCR2
      000000E6H   SFRSYM    DATA     BYTE      CMPCR1
      000000DEH   SFRSYM    DATA     BYTE      ADCCFG
      000000B8H   SFRSYM    DATA     BYTE      IP
      0000008FH   SFRSYM    DATA     BYTE      INTCLKO
      000000EEH   SFRSYM    DATA     BYTE      IP3H
      000000B6H   SFRSYM    DATA     BYTE      IP2H
      000000BFH   SFRSYM    DATA     BYTE      P_SW4
      000000A8H   SFRSYM    DATA     BYTE      IE
      000000BBH   SFRSYM    DATA     BYTE      P_SW3
      000000BAH   SFRSYM    DATA     BYTE      P_SW2
      000000A2H   SFRSYM    DATA     BYTE      P_SW1
      000000CEH   SFRSYM    DATA     BYTE      SPCTL
      000000F8H   SFRSYM    DATA     BYTE      P7
      000000E8H   SFRSYM    DATA     BYTE      P6
      000000C8H   SFRSYM    DATA     BYTE      P5
      000000C0H   SFRSYM    DATA     BYTE      P4
      000000ABH   SFRSYM    DATA     BYTE      WKTCH
      000000B0H   SFRSYM    DATA     BYTE      P3
      000000A0H   SFRSYM    DATA     BYTE      P2
      00000090H   SFRSYM    DATA     BYTE      P1
      00000080H   SFRSYM    DATA     BYTE      P0

      00FF7639H   BLOCK     CODE     ---       LVL=0
      WR30        REGSYM    ---      INT       pit_n
      DR24        REGSYM    ---      DWORD     period
      00FF763FH   BLOCK     CODE     NEAR LAB  LVL=1
      R15         REGSYM    ---      BYTE      freq_div
      WR22        REGSYM    ---      WORD      period_temp
      WR28        REGSYM    ---      WORD      temp
      ---         BLOCKEND  ---      ---       LVL=1
      00FF7639H   LINE      CODE     ---       #50
      00FF763FH   LINE      CODE     ---       #51
L251 LINKER/LOCATER V4.66.93.0                                                        09/26/2025  18:18:13  PAGE 66


      00FF763FH   LINE      CODE     ---       #52
      00FF7641H   LINE      CODE     ---       #53
      00FF7643H   LINE      CODE     ---       #54
      00FF7645H   LINE      CODE     ---       #57
      00FF7651H   LINE      CODE     ---       #60
      00FF765CH   LINE      CODE     ---       #62
      00FF7660H   LINE      CODE     ---       #64
      00FF7663H   LINE      CODE     ---       #65
      00FF7666H   LINE      CODE     ---       #66
      00FF766CH   LINE      CODE     ---       #68
      00FF766FH   LINE      CODE     ---       #69
      00FF7672H   LINE      CODE     ---       #70
      00FF7678H   LINE      CODE     ---       #72
      00FF767BH   LINE      CODE     ---       #73
      00FF767DH   LINE      CODE     ---       #74
      00FF7683H   LINE      CODE     ---       #76
      00FF7686H   LINE      CODE     ---       #77
      00FF7688H   LINE      CODE     ---       #78
      00FF768EH   LINE      CODE     ---       #80
      00FF7691H   LINE      CODE     ---       #81
      00FF7693H   LINE      CODE     ---       #82
      00FF7699H   LINE      CODE     ---       #84
      00FF76A9H   LINE      CODE     ---       #85
      00FF76ABH   LINE      CODE     ---       #91
      00FF76AFH   LINE      CODE     ---       #93
      00FF76B2H   LINE      CODE     ---       #94
      00FF76B4H   LINE      CODE     ---       #95
      00FF76BAH   LINE      CODE     ---       #97
      00FF76BDH   LINE      CODE     ---       #98
      00FF76BFH   LINE      CODE     ---       #99
      00FF76C5H   LINE      CODE     ---       #101
      00FF76C8H   LINE      CODE     ---       #102
      00FF76CAH   LINE      CODE     ---       #103
      00FF76D0H   LINE      CODE     ---       #105
      00FF76D3H   LINE      CODE     ---       #106
      00FF76D5H   LINE      CODE     ---       #107
      00FF76DBH   LINE      CODE     ---       #109
      00FF76DEH   LINE      CODE     ---       #110
      00FF76E0H   LINE      CODE     ---       #111
      00FF76E6H   LINE      CODE     ---       #113
      00FF76F6H   LINE      CODE     ---       #114
      00FF76F6H   LINE      CODE     ---       #118
      00FF7706H   LINE      CODE     ---       #119
      00FF7713H   LINE      CODE     ---       #121
      00FF7717H   LINE      CODE     ---       #123
      00FF771BH   LINE      CODE     ---       #125
      00FF7726H   LINE      CODE     ---       #126
      00FF772AH   LINE      CODE     ---       #127
      00FF7730H   LINE      CODE     ---       #128
      00FF7736H   LINE      CODE     ---       #129
      00FF7738H   LINE      CODE     ---       #130
      00FF773AH   LINE      CODE     ---       #131
      00FF773DH   LINE      CODE     ---       #132
      00FF7743H   LINE      CODE     ---       #134
      00FF774EH   LINE      CODE     ---       #135
      00FF7752H   LINE      CODE     ---       #136
      00FF7758H   LINE      CODE     ---       #137
      00FF775EH   LINE      CODE     ---       #138
      00FF7760H   LINE      CODE     ---       #139
      00FF7762H   LINE      CODE     ---       #140
      00FF7765H   LINE      CODE     ---       #141
      00FF776BH   LINE      CODE     ---       #143
      00FF7776H   LINE      CODE     ---       #144
      00FF777CH   LINE      CODE     ---       #145
      00FF7782H   LINE      CODE     ---       #146
L251 LINKER/LOCATER V4.66.93.0                                                        09/26/2025  18:18:13  PAGE 67


      00FF7785H   LINE      CODE     ---       #147
      00FF7788H   LINE      CODE     ---       #148
      00FF778BH   LINE      CODE     ---       #149
      00FF7791H   LINE      CODE     ---       #151
      00FF779CH   LINE      CODE     ---       #152
      00FF77A2H   LINE      CODE     ---       #153
      00FF77A8H   LINE      CODE     ---       #154
      00FF77ABH   LINE      CODE     ---       #155
      00FF77AEH   LINE      CODE     ---       #156
      00FF77B0H   LINE      CODE     ---       #157
      00FF77B6H   LINE      CODE     ---       #159
      00FF77C1H   LINE      CODE     ---       #160
      00FF77C7H   LINE      CODE     ---       #161
      00FF77CDH   LINE      CODE     ---       #162
      00FF77D0H   LINE      CODE     ---       #163
      00FF77D3H   LINE      CODE     ---       #164
      00FF77D5H   LINE      CODE     ---       #165
      00FF77DBH   LINE      CODE     ---       #167
      00FF77E6H   LINE      CODE     ---       #168
      00FF77F5H   LINE      CODE     ---       #169
      00FF7804H   LINE      CODE     ---       #170
      00FF7811H   LINE      CODE     ---       #172
      ---         BLOCKEND  ---      ---       LVL=0

      ---         MODULE    ---      ---       zf_driver_pwm
      00FFC219H   PUBLIC    HCONST   ---       PWM_PSCR_ADDR
      00FFC221H   PUBLIC    HCONST   ---       PWM_CCR_ADDR
      00FFC241H   PUBLIC    HCONST   ---       PWM_ARR_ADDR
      00FFC249H   PUBLIC    HCONST   ---       PWM_CCER_ADDR
      00FFC259H   PUBLIC    HCONST   ---       PWM_CCMR_ADDR
      00FF7B7AH   PUBLIC    CODE     ---       pwm_set_duty
      00FF5ACAH   PUBLIC    CODE     ---       pwm_init
      0001055CH   PUBLIC    XDATA    BYTE      ?pwm_init?BYTE
      000000D0H   SFRSYM    DATA     BYTE      PSW
      0000009DH   SFRSYM    DATA     BYTE      IRCBAND
      00000097H   SFRSYM    DATA     BYTE      AUXR2
      000000EFH   SFRSYM    DATA     BYTE      AUXINTIF
      000000FDH   SFRSYM    DATA     BYTE      S4CON
      000000ACH   SFRSYM    DATA     BYTE      S3CON
      0000009AH   SFRSYM    DATA     BYTE      S2CON
      000000B7H   SFRSYM    DATA     BYTE      IPH
      000000CDH   SFRSYM    DATA     BYTE      SPSTAT
      000000DDH   SFRSYM    DATA     BYTE      T4T3M
      000000C1H   SFRSYM    DATA     BYTE      WDT_CONTR
      000000DFH   SFRSYM    DATA     BYTE      IP3
      000000F4H   SFRSYM    DATA     BYTE      USBCON
      000000B5H   SFRSYM    DATA     BYTE      IP2
      000000FFH   SFRSYM    DATA     BYTE      RSTCFG
      000000C7H   SFRSYM    DATA     BYTE      IAP_CONTR
      0000008EH   SFRSYM    DATA     BYTE      AUXR
      000000AFH   SFRSYM    DATA     BYTE      IE2
      00000088H   SFRSYM    DATA     BYTE      TCON
      00000089H   SFRSYM    DATA     BYTE      TMOD
      00000098H   SFRSYM    DATA     BYTE      SCON
      00000087H   SFRSYM    DATA     BYTE      PCON
      000000BCH   SFRSYM    DATA     BYTE      ADC_CONTR
      000000D1H   SFRSYM    DATA     BYTE      PSW1
      000000E7H   SFRSYM    DATA     BYTE      CMPCR2
      000000E6H   SFRSYM    DATA     BYTE      CMPCR1
      000000DEH   SFRSYM    DATA     BYTE      ADCCFG
      000000B8H   SFRSYM    DATA     BYTE      IP
      0000008FH   SFRSYM    DATA     BYTE      INTCLKO
      000000EEH   SFRSYM    DATA     BYTE      IP3H
      000000B6H   SFRSYM    DATA     BYTE      IP2H
      000000BFH   SFRSYM    DATA     BYTE      P_SW4
L251 LINKER/LOCATER V4.66.93.0                                                        09/26/2025  18:18:13  PAGE 68


      000000A8H   SFRSYM    DATA     BYTE      IE
      000000BBH   SFRSYM    DATA     BYTE      P_SW3
      000000BAH   SFRSYM    DATA     BYTE      P_SW2
      000000A2H   SFRSYM    DATA     BYTE      P_SW1
      000000CEH   SFRSYM    DATA     BYTE      SPCTL
      000000F8H   SFRSYM    DATA     BYTE      P7
      000000E8H   SFRSYM    DATA     BYTE      P6
      000000C8H   SFRSYM    DATA     BYTE      P5
      000000C0H   SFRSYM    DATA     BYTE      P4
      000000ABH   SFRSYM    DATA     BYTE      WKTCH
      000000B0H   SFRSYM    DATA     BYTE      P3
      000000A0H   SFRSYM    DATA     BYTE      P2
      00000090H   SFRSYM    DATA     BYTE      P1
      00000080H   SFRSYM    DATA     BYTE      P0
      WR14        REGSYM    ---      INT       pin
      WR12        REGSYM    ---      WORD      freq_div

      00FF7B7AH   BLOCK     CODE     ---       LVL=0
      WR14        REGSYM    ---      INT       pin
      0001055EH   SYMBOL    XDATA    DWORD     duty
      00FF7B88H   BLOCK     CODE     NEAR LAB  LVL=1
      00010562H   SYMBOL    XDATA    DWORD     match_temp
      00010566H   SYMBOL    XDATA    DWORD     arr
      ---         BLOCKEND  ---      ---       LVL=1
      00FF7B7AH   LINE      CODE     ---       #132
      00FF7B88H   LINE      CODE     ---       #133
      00FF7B88H   LINE      CODE     ---       #135
      00FF7BE6H   LINE      CODE     ---       #138
      00FF7C0AH   LINE      CODE     ---       #140
      00FF7C1AH   LINE      CODE     ---       #142
      00FF7C53H   LINE      CODE     ---       #143
      00FF7C55H   LINE      CODE     ---       #146
      00FF7C6BH   LINE      CODE     ---       #147
      00FF7C6BH   LINE      CODE     ---       #150
      00FF7CB9H   LINE      CODE     ---       #151
      00FF7D07H   LINE      CODE     ---       #153
      ---         BLOCKEND  ---      ---       LVL=0

      00FF5ACAH   BLOCK     CODE     ---       LVL=0
      WR14        REGSYM    ---      INT       pin
      0001055EH   SYMBOL    XDATA    DWORD     freq
      00010562H   SYMBOL    XDATA    DWORD     duty
      00FF5AD8H   BLOCK     CODE     NEAR LAB  LVL=1
      00010566H   SYMBOL    XDATA    WORD      match_temp
      00010568H   SYMBOL    XDATA    DWORD     period_temp
      WR12        REGSYM    ---      WORD      freq_div
      ---         BLOCKEND  ---      ---       LVL=1
      00FF5ACAH   LINE      CODE     ---       #164
      00FF5AD8H   LINE      CODE     ---       #165
      00FF5AD8H   LINE      CODE     ---       #167
      00FF5AE0H   LINE      CODE     ---       #168
      00FF5AECH   LINE      CODE     ---       #169
      00FF5AEEH   LINE      CODE     ---       #172
      00FF5B12H   LINE      CODE     ---       #174
      00FF5B24H   LINE      CODE     ---       #178
      00FF5B41H   LINE      CODE     ---       #179
      00FF5B62H   LINE      CODE     ---       #180
      00FF5B7FH   LINE      CODE     ---       #182
      00FF5B8FH   LINE      CODE     ---       #184
      00FF5BC4H   LINE      CODE     ---       #185
      00FF5BC6H   LINE      CODE     ---       #188
      00FF5BD8H   LINE      CODE     ---       #189
      00FF5BD8H   LINE      CODE     ---       #191
      00FF5C02H   LINE      CODE     ---       #192
      00FF5C2CH   LINE      CODE     ---       #194
L251 LINKER/LOCATER V4.66.93.0                                                        09/26/2025  18:18:13  PAGE 69


      00FF5C5EH   LINE      CODE     ---       #195
      00FF5C90H   LINE      CODE     ---       #197
      00FF5CDCH   LINE      CODE     ---       #198
      00FF5D26H   LINE      CODE     ---       #200
      00FF5D35H   LINE      CODE     ---       #202
      00FF5D74H   LINE      CODE     ---       #203
      00FF5DA9H   LINE      CODE     ---       #204
      00FF5E23H   LINE      CODE     ---       #206
      00FF5E30H   LINE      CODE     ---       #207
      00FF5E3DH   LINE      CODE     ---       #208
      00FF5E40H   LINE      CODE     ---       #209
      00FF5E53H   LINE      CODE     ---       #211
      00FF5E92H   LINE      CODE     ---       #212
      00FF5EC7H   LINE      CODE     ---       #213
      00FF5F2FH   LINE      CODE     ---       #215
      00FF5F3CH   LINE      CODE     ---       #216
      00FF5F49H   LINE      CODE     ---       #217
      00FF5F49H   LINE      CODE     ---       #219
      00FF5F90H   LINE      CODE     ---       #220
      00FF5FD7H   LINE      CODE     ---       #221
      ---         BLOCKEND  ---      ---       LVL=0

      ---         MODULE    ---      ---       zf_driver_soft_iic
      00FF9D84H   PUBLIC    CODE     ---       soft_iic_wait_ack
      00FFA16BH   PUBLIC    CODE     ---       soft_iic_stop
      00FFA8A9H   PUBLIC    CODE     ---       soft_iic_delay
      00FF93ACH   PUBLIC    CODE     ---       soft_iic_read_data
      00FF9832H   PUBLIC    CODE     ---       soft_iic_send_data
      00FFA340H   PUBLIC    CODE     ---       soft_iic_start
      00FF9E73H   PUBLIC    CODE     ---       soft_iic_send_ack
      000000D0H   SFRSYM    DATA     BYTE      PSW
      0000009DH   SFRSYM    DATA     BYTE      IRCBAND
      00000097H   SFRSYM    DATA     BYTE      AUXR2
      000000EFH   SFRSYM    DATA     BYTE      AUXINTIF
      000000FDH   SFRSYM    DATA     BYTE      S4CON
      000000ACH   SFRSYM    DATA     BYTE      S3CON
      0000009AH   SFRSYM    DATA     BYTE      S2CON
      000000B7H   SFRSYM    DATA     BYTE      IPH
      000000CDH   SFRSYM    DATA     BYTE      SPSTAT
      000000DDH   SFRSYM    DATA     BYTE      T4T3M
      000000C1H   SFRSYM    DATA     BYTE      WDT_CONTR
      000000DFH   SFRSYM    DATA     BYTE      IP3
      000000F4H   SFRSYM    DATA     BYTE      USBCON
      000000B5H   SFRSYM    DATA     BYTE      IP2
      000000FFH   SFRSYM    DATA     BYTE      RSTCFG
      000000C7H   SFRSYM    DATA     BYTE      IAP_CONTR
      0000008EH   SFRSYM    DATA     BYTE      AUXR
      000000AFH   SFRSYM    DATA     BYTE      IE2
      00000088H   SFRSYM    DATA     BYTE      TCON
      00000089H   SFRSYM    DATA     BYTE      TMOD
      00000098H   SFRSYM    DATA     BYTE      SCON
      00000087H   SFRSYM    DATA     BYTE      PCON
      000000BCH   SFRSYM    DATA     BYTE      ADC_CONTR
      000000D1H   SFRSYM    DATA     BYTE      PSW1
      000000E7H   SFRSYM    DATA     BYTE      CMPCR2
      000000E6H   SFRSYM    DATA     BYTE      CMPCR1
      000000DEH   SFRSYM    DATA     BYTE      ADCCFG
      000000B8H   SFRSYM    DATA     BYTE      IP
      0000008FH   SFRSYM    DATA     BYTE      INTCLKO
      000000EEH   SFRSYM    DATA     BYTE      IP3H
      000000B6H   SFRSYM    DATA     BYTE      IP2H
      000000BFH   SFRSYM    DATA     BYTE      P_SW4
      000000A8H   SFRSYM    DATA     BYTE      IE
      000000BBH   SFRSYM    DATA     BYTE      P_SW3
      000000BAH   SFRSYM    DATA     BYTE      P_SW2
L251 LINKER/LOCATER V4.66.93.0                                                        09/26/2025  18:18:13  PAGE 70


      000000A2H   SFRSYM    DATA     BYTE      P_SW1
      000000CEH   SFRSYM    DATA     BYTE      SPCTL
      000000F8H   SFRSYM    DATA     BYTE      P7
      000000E8H   SFRSYM    DATA     BYTE      P6
      000000C8H   SFRSYM    DATA     BYTE      P5
      000000C0H   SFRSYM    DATA     BYTE      P4
      000000ABH   SFRSYM    DATA     BYTE      WKTCH
      000000B0H   SFRSYM    DATA     BYTE      P3
      000000A0H   SFRSYM    DATA     BYTE      P2
      00000090H   SFRSYM    DATA     BYTE      P1
      00000080H   SFRSYM    DATA     BYTE      P0

      00FFA8A9H   BLOCK     CODE     ---       LVL=0
      00010EA8H   SYMBOL    XDATA    DWORD     delay
      00FFA8B3H   BLOCK     CODE     NEAR LAB  LVL=1
      00010EACH   SYMBOL    XDATA    DWORD     count
      ---         BLOCKEND  ---      ---       LVL=1
      00FFA8A9H   LINE      CODE     ---       #53
      00FFA8B3H   LINE      CODE     ---       #54
      00FFA8B3H   LINE      CODE     ---       #55
      00FFA8C7H   LINE      CODE     ---       #56
      00FFA8E0H   LINE      CODE     ---       #57
      ---         BLOCKEND  ---      ---       LVL=0

      00FFA340H   BLOCK     CODE     ---       LVL=0
      REG=3       REGSYM    ---      ---       soft_iic_obj
      00FFA340H   LINE      CODE     ---       #67
      00FFA344H   LINE      CODE     ---       #69
      00FFA35EH   LINE      CODE     ---       #70
      00FFA366H   LINE      CODE     ---       #71
      00FFA36FH   LINE      CODE     ---       #73
      00FFA37AH   LINE      CODE     ---       #74
      00FFA382H   LINE      CODE     ---       #75
      00FFA38DH   LINE      CODE     ---       #76
      00FFA394H   LINE      CODE     ---       #77
      ---         BLOCKEND  ---      ---       LVL=0

      00FFA16BH   BLOCK     CODE     ---       LVL=0
      REG=3       REGSYM    ---      ---       soft_iic_obj
      00FFA16BH   LINE      CODE     ---       #86
      00FFA16FH   LINE      CODE     ---       #88
      00FFA189H   LINE      CODE     ---       #89
      00FFA191H   LINE      CODE     ---       #90
      00FFA198H   LINE      CODE     ---       #92
      00FFA1A3H   LINE      CODE     ---       #93
      00FFA1ABH   LINE      CODE     ---       #94
      00FFA1B6H   LINE      CODE     ---       #95
      00FFA1BFH   LINE      CODE     ---       #96
      00FFA1CAH   LINE      CODE     ---       #97
      ---         BLOCKEND  ---      ---       LVL=0

      00FF9E73H   BLOCK     CODE     ---       LVL=0
      REG=3       REGSYM    ---      ---       soft_iic_obj
      00010EE7H   SYMBOL    XDATA    BYTE      ack
      00FF9E73H   LINE      CODE     ---       #107
      00FF9E7BH   LINE      CODE     ---       #109
      00FF9E95H   LINE      CODE     ---       #110
      00FF9E9CH   LINE      CODE     ---       #112
      00FF9EA2H   LINE      CODE     ---       #114
      00FF9EABH   LINE      CODE     ---       #115
      00FF9EADH   LINE      CODE     ---       #118
      00FF9EB5H   LINE      CODE     ---       #119
      00FF9EB5H   LINE      CODE     ---       #121
      00FF9EC0H   LINE      CODE     ---       #122
      00FF9EC8H   LINE      CODE     ---       #123
L251 LINKER/LOCATER V4.66.93.0                                                        09/26/2025  18:18:13  PAGE 71


      00FF9ED3H   LINE      CODE     ---       #124
      00FF9EDAH   LINE      CODE     ---       #125
      00FF9EE3H   LINE      CODE     ---       #126
      ---         BLOCKEND  ---      ---       LVL=0

      00FF9D84H   BLOCK     CODE     ---       LVL=0
      REG=3       REGSYM    ---      ---       soft_iic_obj
      00FF9D88H   BLOCK     CODE     NEAR LAB  LVL=1
      00010EE8H   SYMBOL    XDATA    BYTE      temp
      ---         BLOCKEND  ---      ---       LVL=1
      00FF9D84H   LINE      CODE     ---       #135
      00FF9D88H   LINE      CODE     ---       #136
      00FF9D88H   LINE      CODE     ---       #137
      00FF9D8DH   LINE      CODE     ---       #138
      00FF9DA7H   LINE      CODE     ---       #140
      00FF9DAEH   LINE      CODE     ---       #141
      00FF9DB7H   LINE      CODE     ---       #145
      00FF9DC2H   LINE      CODE     ---       #147
      00FF9DCAH   LINE      CODE     ---       #148
      00FF9DD5H   LINE      CODE     ---       #150
      00FF9DDEH   LINE      CODE     ---       #152
      00FF9DE4H   LINE      CODE     ---       #153
      00FF9DE4H   LINE      CODE     ---       #154
      00FF9DEBH   LINE      CODE     ---       #158
      00FF9DF6H   LINE      CODE     ---       #160
      00FF9DFAH   LINE      CODE     ---       #161
      ---         BLOCKEND  ---      ---       LVL=0

      00FF9832H   BLOCK     CODE     ---       LVL=0
      REG=3       REGSYM    ---      ---       soft_iic_obj
      00010EE4H   SYMBOL    XDATA    BYTE      dat
      00FF983AH   BLOCK     CODE     NEAR LAB  LVL=1
      00010EE5H   SYMBOL    XDATA    BYTE      temp
      ---         BLOCKEND  ---      ---       LVL=1
      00FF9832H   LINE      CODE     ---       #170
      00FF983AH   LINE      CODE     ---       #171
      00FF983AH   LINE      CODE     ---       #172
      00FF9840H   LINE      CODE     ---       #174
      00FF985AH   LINE      CODE     ---       #176
      00FF985CH   LINE      CODE     ---       #179
      00FF9881H   LINE      CODE     ---       #180
      00FF9888H   LINE      CODE     ---       #182
      00FF9893H   LINE      CODE     ---       #183
      00FF989BH   LINE      CODE     ---       #184
      00FF98A6H   LINE      CODE     ---       #185
      00FF98ADH   LINE      CODE     ---       #186
      00FF98B3H   LINE      CODE     ---       #187
      00FF98C0H   LINE      CODE     ---       #188
      ---         BLOCKEND  ---      ---       LVL=0

      00FF93ACH   BLOCK     CODE     ---       LVL=0
      REG=3       REGSYM    ---      ---       soft_iic_obj
      00010EE1H   SYMBOL    XDATA    BYTE      ack
      00FF93B4H   BLOCK     CODE     NEAR LAB  LVL=1
      00010EE2H   SYMBOL    XDATA    BYTE      dat
      00010EE3H   SYMBOL    XDATA    BYTE      temp
      ---         BLOCKEND  ---      ---       LVL=1
      00FF93ACH   LINE      CODE     ---       #197
      00FF93B4H   LINE      CODE     ---       #198
      00FF93B4H   LINE      CODE     ---       #199
      00FF93B9H   LINE      CODE     ---       #200
      00FF93BFH   LINE      CODE     ---       #201
      00FF93D9H   LINE      CODE     ---       #202
      00FF93E0H   LINE      CODE     ---       #203
      00FF93EBH   LINE      CODE     ---       #204
L251 LINKER/LOCATER V4.66.93.0                                                        09/26/2025  18:18:13  PAGE 72


      00FF93F4H   LINE      CODE     ---       #209
      00FF93F6H   LINE      CODE     ---       #211
      00FF93FDH   LINE      CODE     ---       #212
      00FF9408H   LINE      CODE     ---       #213
      00FF9410H   LINE      CODE     ---       #214
      00FF941BH   LINE      CODE     ---       #215
      00FF9430H   LINE      CODE     ---       #216
      00FF943EH   LINE      CODE     ---       #217
      00FF9445H   LINE      CODE     ---       #221
      00FF9450H   LINE      CODE     ---       #222
      00FF9459H   LINE      CODE     ---       #223
      00FF945DH   LINE      CODE     ---       #224
      ---         BLOCKEND  ---      ---       LVL=0
      REG=3       REGSYM    ---      ---       soft_iic_obj
      REG=3       REGSYM    ---      ---       soft_iic_obj
      REG=3       REGSYM    ---      ---       soft_iic_obj
      REG=3       REGSYM    ---      ---       soft_iic_obj
      REG=3       REGSYM    ---      ---       soft_iic_obj
      REG=3       REGSYM    ---      ---       soft_iic_obj
      REG=3       REGSYM    ---      ---       soft_iic_obj
      REG=3       REGSYM    ---      ---       soft_iic_obj
      REG=3       REGSYM    ---      ---       soft_iic_obj
      REG=3       REGSYM    ---      ---       soft_iic_obj
      REG=3       REGSYM    ---      ---       soft_iic_obj
      REG=3       REGSYM    ---      ---       soft_iic_obj
      REG=3       REGSYM    ---      ---       soft_iic_obj
      REG=3       REGSYM    ---      ---       soft_iic_obj
      REG=3       REGSYM    ---      ---       soft_iic_obj
      REG=3       REGSYM    ---      ---       soft_iic_obj
      REG=3       REGSYM    ---      ---       soft_iic_obj
      REG=3       REGSYM    ---      ---       soft_iic_obj
      REG=3       REGSYM    ---      ---       soft_iic_obj
      REG=3       REGSYM    ---      ---       soft_iic_obj
      REG=3       REGSYM    ---      ---       soft_iic_obj

      ---         MODULE    ---      ---       zf_driver_soft_spi
      000000D0H   SFRSYM    DATA     BYTE      PSW
      0000009DH   SFRSYM    DATA     BYTE      IRCBAND
      00000097H   SFRSYM    DATA     BYTE      AUXR2
      000000EFH   SFRSYM    DATA     BYTE      AUXINTIF
      000000FDH   SFRSYM    DATA     BYTE      S4CON
      000000ACH   SFRSYM    DATA     BYTE      S3CON
      0000009AH   SFRSYM    DATA     BYTE      S2CON
      000000B7H   SFRSYM    DATA     BYTE      IPH
      000000CDH   SFRSYM    DATA     BYTE      SPSTAT
      000000DDH   SFRSYM    DATA     BYTE      T4T3M
      000000C1H   SFRSYM    DATA     BYTE      WDT_CONTR
      000000DFH   SFRSYM    DATA     BYTE      IP3
      000000F4H   SFRSYM    DATA     BYTE      USBCON
      000000B5H   SFRSYM    DATA     BYTE      IP2
      000000FFH   SFRSYM    DATA     BYTE      RSTCFG
      000000C7H   SFRSYM    DATA     BYTE      IAP_CONTR
      0000008EH   SFRSYM    DATA     BYTE      AUXR
      000000AFH   SFRSYM    DATA     BYTE      IE2
      00000088H   SFRSYM    DATA     BYTE      TCON
      00000089H   SFRSYM    DATA     BYTE      TMOD
      00000098H   SFRSYM    DATA     BYTE      SCON
      00000087H   SFRSYM    DATA     BYTE      PCON
      000000BCH   SFRSYM    DATA     BYTE      ADC_CONTR
      000000D1H   SFRSYM    DATA     BYTE      PSW1
      000000E7H   SFRSYM    DATA     BYTE      CMPCR2
      000000E6H   SFRSYM    DATA     BYTE      CMPCR1
      000000DEH   SFRSYM    DATA     BYTE      ADCCFG
      000000B8H   SFRSYM    DATA     BYTE      IP
      0000008FH   SFRSYM    DATA     BYTE      INTCLKO
L251 LINKER/LOCATER V4.66.93.0                                                        09/26/2025  18:18:13  PAGE 73


      000000EEH   SFRSYM    DATA     BYTE      IP3H
      000000B6H   SFRSYM    DATA     BYTE      IP2H
      000000BFH   SFRSYM    DATA     BYTE      P_SW4
      000000A8H   SFRSYM    DATA     BYTE      IE
      000000BBH   SFRSYM    DATA     BYTE      P_SW3
      000000BAH   SFRSYM    DATA     BYTE      P_SW2
      000000A2H   SFRSYM    DATA     BYTE      P_SW1
      000000CEH   SFRSYM    DATA     BYTE      SPCTL
      000000F8H   SFRSYM    DATA     BYTE      P7
      000000E8H   SFRSYM    DATA     BYTE      P6
      000000C8H   SFRSYM    DATA     BYTE      P5
      000000C0H   SFRSYM    DATA     BYTE      P4
      000000ABH   SFRSYM    DATA     BYTE      WKTCH
      000000B0H   SFRSYM    DATA     BYTE      P3
      000000A0H   SFRSYM    DATA     BYTE      P2
      00000090H   SFRSYM    DATA     BYTE      P1
      00000080H   SFRSYM    DATA     BYTE      P0
      DR0         REGSYM    ---      DWORD     x
      REG=3       REGSYM    ---      ---       soft_spi_obj
      R10         REGSYM    ---      BYTE      dat
      REG=3       REGSYM    ---      ---       soft_spi_obj
      WR6         REGSYM    ---      WORD      dat
      REG=3       REGSYM    ---      ---       soft_spi_obj
      REG=3       REGSYM    ---      ---       soft_spi_obj
      REG=3       REGSYM    ---      ---       soft_spi_obj
      REG=3       REGSYM    ---      ---       soft_spi_obj
      REG=3       REGSYM    ---      ---       soft_spi_obj
      REG=3       REGSYM    ---      ---       soft_spi_obj
      REG=3       REGSYM    ---      ---       soft_spi_obj
      REG=3       REGSYM    ---      ---       soft_spi_obj
      REG=3       REGSYM    ---      ---       soft_spi_obj
      REG=3       REGSYM    ---      ---       soft_spi_obj
      REG=3       REGSYM    ---      ---       soft_spi_obj
      REG=3       REGSYM    ---      ---       soft_spi_obj
      REG=3       REGSYM    ---      ---       soft_spi_obj
      REG=3       REGSYM    ---      ---       soft_spi_obj
      REG=3       REGSYM    ---      ---       soft_spi_obj
      REG=3       REGSYM    ---      ---       soft_spi_obj
      REG=3       REGSYM    ---      ---       soft_spi_obj
      REG=3       REGSYM    ---      ---       soft_spi_obj
      REG=3       REGSYM    ---      ---       soft_spi_obj

      ---         MODULE    ---      ---       zf_driver_spi
      00FF01C5H   PUBLIC    CODE     ---       spi_write_8bit
      00FF5FDAH   PUBLIC    CODE     ---       spi_init
      00FFAAAEH   PUBLIC    CODE     ---       spi_write_16bit
      00FFA645H   PUBLIC    CODE     ---       spi_write_dat
      0001055AH   PUBLIC    XDATA    BYTE      ?spi_init?BYTE
      000000CFH   SFRSYM    DATA     BYTE      SPDAT
      000000D0H   SFRSYM    DATA     BYTE      PSW
      0000009DH   SFRSYM    DATA     BYTE      IRCBAND
      00000097H   SFRSYM    DATA     BYTE      AUXR2
      000000EFH   SFRSYM    DATA     BYTE      AUXINTIF
      000000FDH   SFRSYM    DATA     BYTE      S4CON
      000000ACH   SFRSYM    DATA     BYTE      S3CON
      0000009AH   SFRSYM    DATA     BYTE      S2CON
      0000009BH   SFRSYM    DATA     BYTE      S2BUF
      000000B7H   SFRSYM    DATA     BYTE      IPH
      000000CDH   SFRSYM    DATA     BYTE      SPSTAT
      000000DDH   SFRSYM    DATA     BYTE      T4T3M
      000000C1H   SFRSYM    DATA     BYTE      WDT_CONTR
      000000DFH   SFRSYM    DATA     BYTE      IP3
      000000F4H   SFRSYM    DATA     BYTE      USBCON
      000000B5H   SFRSYM    DATA     BYTE      IP2
      000000FFH   SFRSYM    DATA     BYTE      RSTCFG
L251 LINKER/LOCATER V4.66.93.0                                                        09/26/2025  18:18:13  PAGE 74


      000000C7H   SFRSYM    DATA     BYTE      IAP_CONTR
      0000008EH   SFRSYM    DATA     BYTE      AUXR
      000000AFH   SFRSYM    DATA     BYTE      IE2
      00000088H   SFRSYM    DATA     BYTE      TCON
      00000089H   SFRSYM    DATA     BYTE      TMOD
      00000098H   SFRSYM    DATA     BYTE      SCON
      00000087H   SFRSYM    DATA     BYTE      PCON
      00000099H   SFRSYM    DATA     BYTE      SBUF
      000000BCH   SFRSYM    DATA     BYTE      ADC_CONTR
      000000D1H   SFRSYM    DATA     BYTE      PSW1
      000000E7H   SFRSYM    DATA     BYTE      CMPCR2
      000000E6H   SFRSYM    DATA     BYTE      CMPCR1
      0000009AH.1 SFRSYM    DATA     BIT       S2TI
      00000098H.1 SFRSYM    DATA     BIT       TI
      000000DEH   SFRSYM    DATA     BYTE      ADCCFG
      000000B8H   SFRSYM    DATA     BYTE      IP
      0000008FH   SFRSYM    DATA     BYTE      INTCLKO
      000000EEH   SFRSYM    DATA     BYTE      IP3H
      000000B6H   SFRSYM    DATA     BYTE      IP2H
      000000BFH   SFRSYM    DATA     BYTE      P_SW4
      000000A8H   SFRSYM    DATA     BYTE      IE
      000000BBH   SFRSYM    DATA     BYTE      P_SW3
      000000BAH   SFRSYM    DATA     BYTE      P_SW2
      000000A2H   SFRSYM    DATA     BYTE      P_SW1
      000000CEH   SFRSYM    DATA     BYTE      SPCTL
      000000F8H   SFRSYM    DATA     BYTE      P7
      000000E8H   SFRSYM    DATA     BYTE      P6
      000000C8H   SFRSYM    DATA     BYTE      P5
      000000C0H   SFRSYM    DATA     BYTE      P4
      000000ABH   SFRSYM    DATA     BYTE      WKTCH
      000000B0H   SFRSYM    DATA     BYTE      P3
      000000A0H   SFRSYM    DATA     BYTE      P2
      00000090H   SFRSYM    DATA     BYTE      P1
      00000080H   SFRSYM    DATA     BYTE      P0

      00FFA645H   BLOCK     CODE     ---       LVL=0
      WR6         REGSYM    ---      INT       spi_n
      R10         REGSYM    ---      BYTE      dat
      00FFA645H   LINE      CODE     ---       #81
      00FFA647H   LINE      CODE     ---       #83
      00FFA653H   LINE      CODE     ---       #85
      00FFA653H   LINE      CODE     ---       #86
      00FFA656H   LINE      CODE     ---       #87
      00FFA659H   LINE      CODE     ---       #88
      00FFA65EH   LINE      CODE     ---       #89
      00FFA660H   LINE      CODE     ---       #90
      00FFA660H   LINE      CODE     ---       #91
      00FFA662H   LINE      CODE     ---       #92
      00FFA665H   LINE      CODE     ---       #93
      00FFA668H   LINE      CODE     ---       #94
      00FFA66AH   LINE      CODE     ---       #95
      00FFA66AH   LINE      CODE     ---       #96
      00FFA66DH   LINE      CODE     ---       #97
      00FFA670H   LINE      CODE     ---       #98
      00FFA674H   LINE      CODE     ---       #99
      00FFA676H   LINE      CODE     ---       #100
      00FFA676H   LINE      CODE     ---       #101
      00FFA686H   LINE      CODE     ---       #102
      00FFA686H   LINE      CODE     ---       #103
      00FFA686H   LINE      CODE     ---       #104
      ---         BLOCKEND  ---      ---       LVL=0
      WR8         REGSYM    ---      INT       spi_n
      R10         REGSYM    ---      BYTE      dat
      R15         REGSYM    ---      BYTE      ret

L251 LINKER/LOCATER V4.66.93.0                                                        09/26/2025  18:18:13  PAGE 75


      00FF01C5H   BLOCK     CODE     ---       LVL=0
      WR6         REGSYM    ---      INT       spi_n
      R5          REGSYM    ---      BYTE      dat
      00FF01C5H   LINE      CODE     ---       #147
      00FF01C7H   LINE      CODE     ---       #149
      00FF01CAH   LINE      CODE     ---       #150
      ---         BLOCKEND  ---      ---       LVL=0
      REG=3       REGSYM    ---      ---       dat

      00FFAAAEH   BLOCK     CODE     ---       LVL=0
      WR12        REGSYM    ---      INT       spi_n
      WR14        REGSYM    ---      WORD      dat
      00FFAAAEH   LINE      CODE     ---       #175
      00FFAAB4H   LINE      CODE     ---       #177
      00FFAAC0H   LINE      CODE     ---       #178
      00FFAACAH   LINE      CODE     ---       #179
      ---         BLOCKEND  ---      ---       LVL=0
      REG=3       REGSYM    ---      ---       dat
      WR14        REGSYM    ---      INT       spi_n
      R5          REGSYM    ---      BYTE      register_name
      R13         REGSYM    ---      BYTE      dat
      R5          REGSYM    ---      BYTE      register_name
      REG=3       REGSYM    ---      ---       dat
      WR14        REGSYM    ---      INT       spi_n
      WR12        REGSYM    ---      WORD      dat
      WR14        REGSYM    ---      INT       spi_n
      WR12        REGSYM    ---      WORD      register_name
      WR6         REGSYM    ---      INT       spi_n
      REG=3       REGSYM    ---      ---       dat
      WR14        REGSYM    ---      INT       spi_n
      WR12        REGSYM    ---      WORD      dat
      REG=3       REGSYM    ---      ---       dat
      WR14        REGSYM    ---      INT       spi_n
      R5          REGSYM    ---      BYTE      register_name
      R5          REGSYM    ---      BYTE      register_name
      REG=3       REGSYM    ---      ---       dat
      WR14        REGSYM    ---      INT       spi_n
      WR12        REGSYM    ---      WORD      register_name
      REG=3       REGSYM    ---      ---       dat
      REG=3       REGSYM    ---      ---       write_buffer
      REG=3       REGSYM    ---      ---       write_buffer

      00FF5FDAH   BLOCK     CODE     ---       LVL=0
      0001055EH   SYMBOL    XDATA    INT       spi_n
      00010560H   SYMBOL    XDATA    INT       mode
      DR12        REGSYM    ---      DWORD     baud
      00010562H   SYMBOL    XDATA    INT       sck_pin
      00010564H   SYMBOL    XDATA    INT       mosi_pin
      00010566H   SYMBOL    XDATA    INT       miso_pin
      00010568H   SYMBOL    XDATA    INT       cs_pin
      00FF5FEAH   BLOCK     CODE     NEAR LAB  LVL=1
      0001056AH   SYMBOL    XDATA    DWORD     spi_psc
      ---         BLOCKEND  ---      ---       LVL=1
      00FF5FDAH   LINE      CODE     ---       #465
      00FF5FEAH   LINE      CODE     ---       #466
      00FF5FEAH   LINE      CODE     ---       #467
      00FF5FF6H   LINE      CODE     ---       #469
      00FF600CH   LINE      CODE     ---       #471
      00FF601CH   LINE      CODE     ---       #473
      00FF601CH   LINE      CODE     ---       #475
      00FF6032H   LINE      CODE     ---       #476
      00FF6048H   LINE      CODE     ---       #478
      00FF6054H   LINE      CODE     ---       #480
      00FF606AH   LINE      CODE     ---       #481
      00FF606AH   LINE      CODE     ---       #483
L251 LINKER/LOCATER V4.66.93.0                                                        09/26/2025  18:18:13  PAGE 76


      00FF6076H   LINE      CODE     ---       #485
      00FF608BH   LINE      CODE     ---       #486
      00FF608BH   LINE      CODE     ---       #489
      00FF6091H   LINE      CODE     ---       #491
      00FF609FH   LINE      CODE     ---       #492
      00FF60ADH   LINE      CODE     ---       #493
      00FF60B9H   LINE      CODE     ---       #495
      00FF60C7H   LINE      CODE     ---       #496
      00FF60C7H   LINE      CODE     ---       #497
      00FF60D3H   LINE      CODE     ---       #499
      00FF60E1H   LINE      CODE     ---       #500
      00FF60E1H   LINE      CODE     ---       #503
      00FF60EEH   LINE      CODE     ---       #505
      00FF60F1H   LINE      CODE     ---       #507
      00FF610FH   LINE      CODE     ---       #509
      00FF610FH   LINE      CODE     ---       #510
      00FF6113H   LINE      CODE     ---       #511
      00FF6115H   LINE      CODE     ---       #513
      00FF6115H   LINE      CODE     ---       #514
      00FF6118H   LINE      CODE     ---       #515
      00FF611AH   LINE      CODE     ---       #517
      00FF611AH   LINE      CODE     ---       #518
      00FF611DH   LINE      CODE     ---       #519
      00FF611FH   LINE      CODE     ---       #521
      00FF611FH   LINE      CODE     ---       #522
      00FF6122H   LINE      CODE     ---       #523
      00FF6122H   LINE      CODE     ---       #524
      00FF6122H   LINE      CODE     ---       #526
      00FF6125H   LINE      CODE     ---       #527
      00FF6128H   LINE      CODE     ---       #528
      00FF612BH   LINE      CODE     ---       #531
      00FF6144H   LINE      CODE     ---       #533
      00FF6147H   LINE      CODE     ---       #535
      00FF6157H   LINE      CODE     ---       #537
      00FF615AH   LINE      CODE     ---       #538
      00FF615CH   LINE      CODE     ---       #539
      00FF616CH   LINE      CODE     ---       #541
      00FF616FH   LINE      CODE     ---       #542
      00FF6171H   LINE      CODE     ---       #543
      00FF6181H   LINE      CODE     ---       #545
      00FF6185H   LINE      CODE     ---       #546
      00FF6187H   LINE      CODE     ---       #549
      00FF618AH   LINE      CODE     ---       #550
      00FF618AH   LINE      CODE     ---       #553
      00FF619CH   LINE      CODE     ---       #555
      00FF619CH   LINE      CODE     ---       #556
      00FF619CH   LINE      CODE     ---       #558
      00FF619CH   LINE      CODE     ---       #559
      00FF619FH   LINE      CODE     ---       #560
      00FF61A1H   LINE      CODE     ---       #562
      00FF61A1H   LINE      CODE     ---       #563
      00FF61A4H   LINE      CODE     ---       #564
      00FF61A6H   LINE      CODE     ---       #566
      00FF61A6H   LINE      CODE     ---       #567
      00FF61A9H   LINE      CODE     ---       #568
      00FF61A9H   LINE      CODE     ---       #569
      00FF61A9H   LINE      CODE     ---       #571
      00FF61ACH   LINE      CODE     ---       #572
      00FF61AFH   LINE      CODE     ---       #573
      00FF61BEH   LINE      CODE     ---       #582
      00FF61D6H   LINE      CODE     ---       #585
      00FF61D9H   LINE      CODE     ---       #587
      00FF61F7H   LINE      CODE     ---       #589
      00FF61F7H   LINE      CODE     ---       #590
      00FF61FBH   LINE      CODE     ---       #591
L251 LINKER/LOCATER V4.66.93.0                                                        09/26/2025  18:18:13  PAGE 77


      00FF61FDH   LINE      CODE     ---       #593
      00FF61FDH   LINE      CODE     ---       #594
      00FF6200H   LINE      CODE     ---       #595
      00FF6202H   LINE      CODE     ---       #597
      00FF6202H   LINE      CODE     ---       #598
      00FF6205H   LINE      CODE     ---       #599
      00FF6207H   LINE      CODE     ---       #601
      00FF6207H   LINE      CODE     ---       #602
      00FF620AH   LINE      CODE     ---       #603
      00FF620AH   LINE      CODE     ---       #604
      00FF620AH   LINE      CODE     ---       #606
      00FF620DH   LINE      CODE     ---       #607
      00FF621AH   LINE      CODE     ---       #611
      00FF6233H   LINE      CODE     ---       #615
      00FF6243H   LINE      CODE     ---       #617
      00FF6253H   LINE      CODE     ---       #618
      00FF6255H   LINE      CODE     ---       #619
      00FF6265H   LINE      CODE     ---       #621
      00FF6275H   LINE      CODE     ---       #622
      00FF6277H   LINE      CODE     ---       #623
      00FF6287H   LINE      CODE     ---       #625
      00FF6295H   LINE      CODE     ---       #626
      00FF6297H   LINE      CODE     ---       #629
      00FF62A7H   LINE      CODE     ---       #630
      00FF62A7H   LINE      CODE     ---       #634
      00FF62BFH   LINE      CODE     ---       #636
      00FF62BFH   LINE      CODE     ---       #637
      00FF62CDH   LINE      CODE     ---       #638
      00FF62CFH   LINE      CODE     ---       #640
      00FF62CFH   LINE      CODE     ---       #641
      00FF62DFH   LINE      CODE     ---       #642
      00FF62E1H   LINE      CODE     ---       #644
      00FF62E1H   LINE      CODE     ---       #645
      00FF62F1H   LINE      CODE     ---       #646
      00FF62F3H   LINE      CODE     ---       #648
      00FF62F3H   LINE      CODE     ---       #649
      00FF6303H   LINE      CODE     ---       #650
      00FF6303H   LINE      CODE     ---       #651
      00FF6303H   LINE      CODE     ---       #653
      00FF6313H   LINE      CODE     ---       #654
      00FF6316H   LINE      CODE     ---       #655
      00FF6325H   LINE      CODE     ---       #664
      00FF633FH   LINE      CODE     ---       #666
      00FF6342H   LINE      CODE     ---       #668
      00FF6360H   LINE      CODE     ---       #670
      00FF6360H   LINE      CODE     ---       #671
      00FF6364H   LINE      CODE     ---       #672
      00FF6366H   LINE      CODE     ---       #674
      00FF6366H   LINE      CODE     ---       #675
      00FF6369H   LINE      CODE     ---       #676
      00FF636BH   LINE      CODE     ---       #678
      00FF636BH   LINE      CODE     ---       #679
      00FF636EH   LINE      CODE     ---       #680
      00FF6370H   LINE      CODE     ---       #682
      00FF6370H   LINE      CODE     ---       #683
      00FF6373H   LINE      CODE     ---       #684
      00FF6373H   LINE      CODE     ---       #685
      00FF6373H   LINE      CODE     ---       #687
      00FF6376H   LINE      CODE     ---       #688
      00FF6383H   LINE      CODE     ---       #692
      00FF639CH   LINE      CODE     ---       #694
      00FF63ACH   LINE      CODE     ---       #696
      00FF63BCH   LINE      CODE     ---       #697
      00FF63BEH   LINE      CODE     ---       #698
      00FF63CEH   LINE      CODE     ---       #700
L251 LINKER/LOCATER V4.66.93.0                                                        09/26/2025  18:18:13  PAGE 78


      00FF63DEH   LINE      CODE     ---       #701
      00FF63E0H   LINE      CODE     ---       #702
      00FF63F0H   LINE      CODE     ---       #704
      00FF63FEH   LINE      CODE     ---       #705
      00FF6400H   LINE      CODE     ---       #708
      00FF6410H   LINE      CODE     ---       #709
      00FF6410H   LINE      CODE     ---       #713
      00FF6428H   LINE      CODE     ---       #715
      00FF6428H   LINE      CODE     ---       #716
      00FF6436H   LINE      CODE     ---       #717
      00FF6438H   LINE      CODE     ---       #719
      00FF6438H   LINE      CODE     ---       #720
      00FF6448H   LINE      CODE     ---       #721
      00FF644AH   LINE      CODE     ---       #723
      00FF644AH   LINE      CODE     ---       #724
      00FF645AH   LINE      CODE     ---       #725
      00FF645CH   LINE      CODE     ---       #727
      00FF645CH   LINE      CODE     ---       #728
      00FF646CH   LINE      CODE     ---       #729
      00FF646CH   LINE      CODE     ---       #730
      00FF646CH   LINE      CODE     ---       #732
      00FF647CH   LINE      CODE     ---       #733
      ---         BLOCKEND  ---      ---       LVL=0

      ---         MODULE    ---      ---       zf_driver_timer
      00FFA443H   PUBLIC    CODE     ---       timer_funciton_check
      000000D0H   SFRSYM    DATA     BYTE      PSW
      0000009DH   SFRSYM    DATA     BYTE      IRCBAND
      00000097H   SFRSYM    DATA     BYTE      AUXR2
      000000EFH   SFRSYM    DATA     BYTE      AUXINTIF
      000000FDH   SFRSYM    DATA     BYTE      S4CON
      000000ACH   SFRSYM    DATA     BYTE      S3CON
      0000009AH   SFRSYM    DATA     BYTE      S2CON
      000000B7H   SFRSYM    DATA     BYTE      IPH
      000000CDH   SFRSYM    DATA     BYTE      SPSTAT
      000000DDH   SFRSYM    DATA     BYTE      T4T3M
      000000C1H   SFRSYM    DATA     BYTE      WDT_CONTR
      000000DFH   SFRSYM    DATA     BYTE      IP3
      000000F4H   SFRSYM    DATA     BYTE      USBCON
      000000B5H   SFRSYM    DATA     BYTE      IP2
      000000FFH   SFRSYM    DATA     BYTE      RSTCFG
      000000C7H   SFRSYM    DATA     BYTE      IAP_CONTR
      0000008EH   SFRSYM    DATA     BYTE      AUXR
      000000AFH   SFRSYM    DATA     BYTE      IE2
      00000088H   SFRSYM    DATA     BYTE      TCON
      00000089H   SFRSYM    DATA     BYTE      TMOD
      00000098H   SFRSYM    DATA     BYTE      SCON
      00000087H   SFRSYM    DATA     BYTE      PCON
      000000BCH   SFRSYM    DATA     BYTE      ADC_CONTR
      000000D1H   SFRSYM    DATA     BYTE      PSW1
      000000E7H   SFRSYM    DATA     BYTE      CMPCR2
      000000E6H   SFRSYM    DATA     BYTE      CMPCR1
      000000DEH   SFRSYM    DATA     BYTE      ADCCFG
      000000B8H   SFRSYM    DATA     BYTE      IP
      0000008FH   SFRSYM    DATA     BYTE      INTCLKO
      000000EEH   SFRSYM    DATA     BYTE      IP3H
      000000B6H   SFRSYM    DATA     BYTE      IP2H
      000000BFH   SFRSYM    DATA     BYTE      P_SW4
      000000A8H   SFRSYM    DATA     BYTE      IE
      000000BBH   SFRSYM    DATA     BYTE      P_SW3
      000000BAH   SFRSYM    DATA     BYTE      P_SW2
      000000A2H   SFRSYM    DATA     BYTE      P_SW1
      000000CEH   SFRSYM    DATA     BYTE      SPCTL
      000000F8H   SFRSYM    DATA     BYTE      P7
      000000E8H   SFRSYM    DATA     BYTE      P6
L251 LINKER/LOCATER V4.66.93.0                                                        09/26/2025  18:18:13  PAGE 79


      000000C8H   SFRSYM    DATA     BYTE      P5
      000000C0H   SFRSYM    DATA     BYTE      P4
      000000ABH   SFRSYM    DATA     BYTE      WKTCH
      000000B0H   SFRSYM    DATA     BYTE      P3
      000000A0H   SFRSYM    DATA     BYTE      P2
      00000090H   SFRSYM    DATA     BYTE      P1
      00000080H   SFRSYM    DATA     BYTE      P0
      00010E66H   SYMBOL    XDATA    ---       timer_function_state

      00FFA443H   BLOCK     CODE     ---       LVL=0
      WR2         REGSYM    ---      INT       index
      WR0         REGSYM    ---      INT       mode
      00FFA447H   BLOCK     CODE     NEAR LAB  LVL=1
      R10         REGSYM    ---      BYTE      return_state
      ---         BLOCKEND  ---      ---       LVL=1
      00FFA443H   LINE      CODE     ---       #58
      00FFA447H   LINE      CODE     ---       #59
      00FFA447H   LINE      CODE     ---       #60
      00FFA44AH   LINE      CODE     ---       #61
      00FFA45FH   LINE      CODE     ---       #63
      00FFA470H   LINE      CODE     ---       #64
      00FFA472H   LINE      CODE     ---       #65
      00FFA485H   LINE      CODE     ---       #67
      00FFA488H   LINE      CODE     ---       #68
      00FFA48AH   LINE      CODE     ---       #71
      00FFA48CH   LINE      CODE     ---       #72
      00FFA48CH   LINE      CODE     ---       #73
      00FFA48EH   LINE      CODE     ---       #74
      ---         BLOCKEND  ---      ---       LVL=0

      ---         MODULE    ---      ---       zf_driver_uart
      00FF98C3H   PUBLIC    CODE     ---       uart_rx_start_buff
      00FF8B9BH   PUBLIC    CODE     ---       uart_write_buffer
      00FF71DEH   PUBLIC    CODE     ---       uart_init
      00FFA600H   PUBLIC    CODE     ---       uart_rx_interrupt
      00FFAAE3H   PUBLIC    CODE     ---       uart_write_byte
      00FF8197H   PUBLIC    CODE     ---       uart_dma_init
      00FFA48FH   PUBLIC    CODE     ---       uart_funciton_check
      00FFA1CDH   PUBLIC    CODE     ---       uart_query_byte
      00010E7AH   PUBLIC    XDATA    ---       uart_rx_buff
      0001055AH   PUBLIC    XDATA    BYTE      ?uart_init?BYTE
      000000D0H   SFRSYM    DATA     BYTE      PSW
      0000009DH   SFRSYM    DATA     BYTE      IRCBAND
      00000097H   SFRSYM    DATA     BYTE      AUXR2
      000000EFH   SFRSYM    DATA     BYTE      AUXINTIF
      000000FDH   SFRSYM    DATA     BYTE      S4CON
      000000ACH   SFRSYM    DATA     BYTE      S3CON
      0000009AH   SFRSYM    DATA     BYTE      S2CON
      000000B7H   SFRSYM    DATA     BYTE      IPH
      000000CDH   SFRSYM    DATA     BYTE      SPSTAT
      000000DDH   SFRSYM    DATA     BYTE      T4T3M
      000000C1H   SFRSYM    DATA     BYTE      WDT_CONTR
      00000088H.6 SFRSYM    DATA     BIT       TR1
      000000D7H   SFRSYM    DATA     BYTE      T2L
      000000D6H   SFRSYM    DATA     BYTE      T2H
      000000DFH   SFRSYM    DATA     BYTE      IP3
      000000F4H   SFRSYM    DATA     BYTE      USBCON
      000000B5H   SFRSYM    DATA     BYTE      IP2
      000000FFH   SFRSYM    DATA     BYTE      RSTCFG
      000000C7H   SFRSYM    DATA     BYTE      IAP_CONTR
      0000008EH   SFRSYM    DATA     BYTE      AUXR
      000000AFH   SFRSYM    DATA     BYTE      IE2
      00000088H   SFRSYM    DATA     BYTE      TCON
      00000089H   SFRSYM    DATA     BYTE      TMOD
      00000098H   SFRSYM    DATA     BYTE      SCON
L251 LINKER/LOCATER V4.66.93.0                                                        09/26/2025  18:18:13  PAGE 80


      00000087H   SFRSYM    DATA     BYTE      PCON
      000000BCH   SFRSYM    DATA     BYTE      ADC_CONTR
      000000D1H   SFRSYM    DATA     BYTE      PSW1
      000000E7H   SFRSYM    DATA     BYTE      CMPCR2
      000000E6H   SFRSYM    DATA     BYTE      CMPCR1
      000000DEH   SFRSYM    DATA     BYTE      ADCCFG
      000000B8H   SFRSYM    DATA     BYTE      IP
      0000008FH   SFRSYM    DATA     BYTE      INTCLKO
      000000EEH   SFRSYM    DATA     BYTE      IP3H
      000000B6H   SFRSYM    DATA     BYTE      IP2H
      000000BFH   SFRSYM    DATA     BYTE      P_SW4
      000000A8H   SFRSYM    DATA     BYTE      IE
      000000BBH   SFRSYM    DATA     BYTE      P_SW3
      000000BAH   SFRSYM    DATA     BYTE      P_SW2
      000000A2H   SFRSYM    DATA     BYTE      P_SW1
      000000CEH   SFRSYM    DATA     BYTE      SPCTL
      000000F8H   SFRSYM    DATA     BYTE      P7
      000000E8H   SFRSYM    DATA     BYTE      P6
      000000C8H   SFRSYM    DATA     BYTE      P5
      000000C0H   SFRSYM    DATA     BYTE      P4
      000000ABH   SFRSYM    DATA     BYTE      WKTCH
      000000B0H   SFRSYM    DATA     BYTE      P3
      000000A0H   SFRSYM    DATA     BYTE      P2
      00000090H   SFRSYM    DATA     BYTE      P1
      00000080H   SFRSYM    DATA     BYTE      P0
      00010E72H   SYMBOL    XDATA    ---       uart_function_state

      00FFA48FH   BLOCK     CODE     ---       LVL=0
      WR2         REGSYM    ---      INT       index
      WR0         REGSYM    ---      INT       mode
      00FFA493H   BLOCK     CODE     NEAR LAB  LVL=1
      R10         REGSYM    ---      BYTE      return_state
      ---         BLOCKEND  ---      ---       LVL=1
      00FFA48FH   LINE      CODE     ---       #83
      00FFA493H   LINE      CODE     ---       #84
      00FFA493H   LINE      CODE     ---       #85
      00FFA496H   LINE      CODE     ---       #86
      00FFA4ABH   LINE      CODE     ---       #88
      00FFA4BCH   LINE      CODE     ---       #89
      00FFA4BEH   LINE      CODE     ---       #90
      00FFA4D1H   LINE      CODE     ---       #92
      00FFA4D4H   LINE      CODE     ---       #93
      00FFA4D6H   LINE      CODE     ---       #96
      00FFA4D8H   LINE      CODE     ---       #97
      00FFA4D8H   LINE      CODE     ---       #98
      00FFA4DAH   LINE      CODE     ---       #99
      ---         BLOCKEND  ---      ---       LVL=0

      00FF8B9BH   BLOCK     CODE     ---       LVL=0
      WR0         REGSYM    ---      INT       uart_n
      REG=7       REGSYM    ---      ---       buff
      WR8         REGSYM    ---      WORD      len
      00FF8B9BH   LINE      CODE     ---       #108
      00FF8BA1H   LINE      CODE     ---       #112
      00FF8BBBH   LINE      CODE     ---       #113
      00FF8BBDH   LINE      CODE     ---       #114
      00FF8BD7H   LINE      CODE     ---       #115
      00FF8BF0H   LINE      CODE     ---       #116
      00FF8C10H   LINE      CODE     ---       #117
      00FF8C2CH   LINE      CODE     ---       #118
      00FF8C47H   LINE      CODE     ---       #120
      00FF8C62H   LINE      CODE     ---       #122
      00FF8C7CH   LINE      CODE     ---       #124
      ---         BLOCKEND  ---      ---       LVL=0
      REG=3       REGSYM    ---      ---       str
L251 LINKER/LOCATER V4.66.93.0                                                        09/26/2025  18:18:13  PAGE 81



      00FFAAE3H   BLOCK     CODE     ---       LVL=0
      WR6         REGSYM    ---      INT       uart_n
      000105D5H   SYMBOL    XDATA    BYTE      dat
      00FFAAE3H   LINE      CODE     ---       #154
      00FFAAE7H   LINE      CODE     ---       #156
      00FFAAF6H   LINE      CODE     ---       #157
      ---         BLOCKEND  ---      ---       LVL=0

      00FF98C3H   BLOCK     CODE     ---       LVL=0
      WR8         REGSYM    ---      INT       uart_n
      00FF98C3H   LINE      CODE     ---       #165
      00FF98C5H   LINE      CODE     ---       #167
      00FF98DFH   LINE      CODE     ---       #168
      00FF98F5H   LINE      CODE     ---       #169
      00FF9915H   LINE      CODE     ---       #170
      00FF9937H   LINE      CODE     ---       #171
      00FF9952H   LINE      CODE     ---       #172
      ---         BLOCKEND  ---      ---       LVL=0

      00FFA600H   BLOCK     CODE     ---       LVL=0
      WR2         REGSYM    ---      INT       uart_n
      R5          REGSYM    ---      BYTE      status
      00FFA600H   LINE      CODE     ---       #183
      00FFA604H   LINE      CODE     ---       #185
      00FFA608H   LINE      CODE     ---       #187
      00FFA625H   LINE      CODE     ---       #188
      00FFA627H   LINE      CODE     ---       #191
      00FFA644H   LINE      CODE     ---       #192
      00FFA644H   LINE      CODE     ---       #193
      ---         BLOCKEND  ---      ---       LVL=0
      WR8         REGSYM    ---      INT       uart_n
      R15         REGSYM    ---      BYTE      dat

      00FFA1CDH   BLOCK     CODE     ---       LVL=0
      WR2         REGSYM    ---      INT       uart_n
      REG=7       REGSYM    ---      ---       dat
      00FFA1D3H   BLOCK     CODE     NEAR LAB  LVL=1
      R15         REGSYM    ---      BYTE      ret
      ---         BLOCKEND  ---      ---       LVL=1
      00FFA1CDH   LINE      CODE     ---       #227
      00FFA1D3H   LINE      CODE     ---       #228
      00FFA1D3H   LINE      CODE     ---       #229
      00FFA1D5H   LINE      CODE     ---       #232
      00FFA1E5H   LINE      CODE     ---       #234
      00FFA201H   LINE      CODE     ---       #236
      00FFA204H   LINE      CODE     ---       #238
      00FFA221H   LINE      CODE     ---       #239
      00FFA223H   LINE      CODE     ---       #242
      00FFA225H   LINE      CODE     ---       #243
      00FFA225H   LINE      CODE     ---       #246
      00FFA22AH   LINE      CODE     ---       #248
      00FFA22CH   LINE      CODE     ---       #249
      ---         BLOCKEND  ---      ---       LVL=0

      00FF8197H   BLOCK     CODE     ---       LVL=0
      WR8         REGSYM    ---      INT       uart_n
      00FF8197H   LINE      CODE     ---       #257
      00FF8199H   LINE      CODE     ---       #259
      00FF81B3H   LINE      CODE     ---       #260
      00FF81CDH   LINE      CODE     ---       #261
      00FF81E7H   LINE      CODE     ---       #263
      00FF8201H   LINE      CODE     ---       #264
      00FF821BH   LINE      CODE     ---       #265
      00FF8235H   LINE      CODE     ---       #267
L251 LINKER/LOCATER V4.66.93.0                                                        09/26/2025  18:18:13  PAGE 82


      00FF824FH   LINE      CODE     ---       #268
      00FF8265H   LINE      CODE     ---       #269
      00FF8285H   LINE      CODE     ---       #270
      00FF82A7H   LINE      CODE     ---       #271
      00FF82C2H   LINE      CODE     ---       #272
      00FF82DDH   LINE      CODE     ---       #274
      ---         BLOCKEND  ---      ---       LVL=0

      00FF71DEH   BLOCK     CODE     ---       LVL=0
      WR12        REGSYM    ---      INT       uart_n
      0001055EH   SYMBOL    XDATA    DWORD     baud
      WR14        REGSYM    ---      INT       tx_pin
      00010562H   SYMBOL    XDATA    INT       rx_pin
      00FF71EEH   BLOCK     CODE     NEAR LAB  LVL=1
      WR6         REGSYM    ---      WORD      brt
      ---         BLOCKEND  ---      ---       LVL=1
      00FF71DEH   LINE      CODE     ---       #286
      00FF71EEH   LINE      CODE     ---       #287
      00FF71EEH   LINE      CODE     ---       #296
      00FF7204H   LINE      CODE     ---       #303
      00FF721EH   LINE      CODE     ---       #308
      00FF724CH   LINE      CODE     ---       #311
      00FF725EH   LINE      CODE     ---       #312
      00FF7272H   LINE      CODE     ---       #314
      00FF72A3H   LINE      CODE     ---       #316
      00FF72C3H   LINE      CODE     ---       #318
      00FF72C3H   LINE      CODE     ---       #332
      00FF72C6H   LINE      CODE     ---       #333
      00FF72CAH   LINE      CODE     ---       #334
      00FF72D0H   LINE      CODE     ---       #335
      00FF72D3H   LINE      CODE     ---       #336
      00FF72D5H   LINE      CODE     ---       #339
      00FF72D8H   LINE      CODE     ---       #341
      00FF72EAH   LINE      CODE     ---       #343
      00FF72EEH   LINE      CODE     ---       #344
      00FF72F1H   LINE      CODE     ---       #345
      00FF7303H   LINE      CODE     ---       #347
      00FF7306H   LINE      CODE     ---       #348
      00FF7309H   LINE      CODE     ---       #349
      00FF731BH   LINE      CODE     ---       #351
      00FF731EH   LINE      CODE     ---       #352
      00FF7321H   LINE      CODE     ---       #353
      00FF7339H   LINE      CODE     ---       #355
      00FF733CH   LINE      CODE     ---       #356
      00FF733CH   LINE      CODE     ---       #359
      00FF733FH   LINE      CODE     ---       #362
      00FF733FH   LINE      CODE     ---       #366
      00FF7342H   LINE      CODE     ---       #367
      00FF7346H   LINE      CODE     ---       #368
      00FF734CH   LINE      CODE     ---       #369
      00FF734FH   LINE      CODE     ---       #372
      00FF7352H   LINE      CODE     ---       #374
      00FF7364H   LINE      CODE     ---       #376
      00FF7368H   LINE      CODE     ---       #377
      00FF736BH   LINE      CODE     ---       #378
      00FF7383H   LINE      CODE     ---       #380
      00FF7386H   LINE      CODE     ---       #381
      00FF7386H   LINE      CODE     ---       #385
      00FF7389H   LINE      CODE     ---       #388
      00FF7389H   LINE      CODE     ---       #392
      00FF738CH   LINE      CODE     ---       #393
      00FF7390H   LINE      CODE     ---       #394
      00FF7396H   LINE      CODE     ---       #395
      00FF7399H   LINE      CODE     ---       #405
      00FF739CH   LINE      CODE     ---       #407
L251 LINKER/LOCATER V4.66.93.0                                                        09/26/2025  18:18:13  PAGE 83


      00FF73AEH   LINE      CODE     ---       #409
      00FF73B2H   LINE      CODE     ---       #410
      00FF73B4H   LINE      CODE     ---       #411
      00FF73C6H   LINE      CODE     ---       #413
      00FF73C9H   LINE      CODE     ---       #414
      00FF73C9H   LINE      CODE     ---       #418
      00FF73CBH   LINE      CODE     ---       #421
      00FF73CBH   LINE      CODE     ---       #425
      00FF73CEH   LINE      CODE     ---       #426
      00FF73D2H   LINE      CODE     ---       #427
      00FF73D8H   LINE      CODE     ---       #428
      00FF73DBH   LINE      CODE     ---       #438
      00FF73DEH   LINE      CODE     ---       #440
      00FF73F0H   LINE      CODE     ---       #442
      00FF73F4H   LINE      CODE     ---       #443
      00FF73F6H   LINE      CODE     ---       #444
      00FF7408H   LINE      CODE     ---       #448
      00FF740BH   LINE      CODE     ---       #449
      00FF740BH   LINE      CODE     ---       #453
      00FF740BH   LINE      CODE     ---       #456
      00FF740BH   LINE      CODE     ---       #459
      00FF7410H   LINE      CODE     ---       #461
      ---         BLOCKEND  ---      ---       LVL=0

      ---         MODULE    ---      ---       zf_device_config
      00FF021EH   PUBLIC    CODE     ---       imu660ra_config_file

      ---         MODULE    ---      ---       zf_device_type
      00010EB0H   PUBLIC    XDATA    ---       tof_module_exti_handler
      00010EB2H   PUBLIC    XDATA    INT       wireless_type
      00010EB4H   PUBLIC    XDATA    INT       tof_type
      00010EB6H   PUBLIC    XDATA    INT       gps_type
      000000D0H   SFRSYM    DATA     BYTE      PSW
      0000009DH   SFRSYM    DATA     BYTE      IRCBAND
      00000097H   SFRSYM    DATA     BYTE      AUXR2
      000000EFH   SFRSYM    DATA     BYTE      AUXINTIF
      000000FDH   SFRSYM    DATA     BYTE      S4CON
      000000ACH   SFRSYM    DATA     BYTE      S3CON
      0000009AH   SFRSYM    DATA     BYTE      S2CON
      000000B7H   SFRSYM    DATA     BYTE      IPH
      000000CDH   SFRSYM    DATA     BYTE      SPSTAT
      000000DDH   SFRSYM    DATA     BYTE      T4T3M
      000000C1H   SFRSYM    DATA     BYTE      WDT_CONTR
      000000DFH   SFRSYM    DATA     BYTE      IP3
      000000F4H   SFRSYM    DATA     BYTE      USBCON
      000000B5H   SFRSYM    DATA     BYTE      IP2
      000000FFH   SFRSYM    DATA     BYTE      RSTCFG
      000000C7H   SFRSYM    DATA     BYTE      IAP_CONTR
      0000008EH   SFRSYM    DATA     BYTE      AUXR
      000000AFH   SFRSYM    DATA     BYTE      IE2
      00000088H   SFRSYM    DATA     BYTE      TCON
      00000089H   SFRSYM    DATA     BYTE      TMOD
      00000098H   SFRSYM    DATA     BYTE      SCON
      00000087H   SFRSYM    DATA     BYTE      PCON
      000000BCH   SFRSYM    DATA     BYTE      ADC_CONTR
      000000D1H   SFRSYM    DATA     BYTE      PSW1
      000000E7H   SFRSYM    DATA     BYTE      CMPCR2
      000000E6H   SFRSYM    DATA     BYTE      CMPCR1
      000000DEH   SFRSYM    DATA     BYTE      ADCCFG
      000000B8H   SFRSYM    DATA     BYTE      IP
      0000008FH   SFRSYM    DATA     BYTE      INTCLKO
      000000EEH   SFRSYM    DATA     BYTE      IP3H
      000000B6H   SFRSYM    DATA     BYTE      IP2H
      000000BFH   SFRSYM    DATA     BYTE      P_SW4
      000000A8H   SFRSYM    DATA     BYTE      IE
L251 LINKER/LOCATER V4.66.93.0                                                        09/26/2025  18:18:13  PAGE 84


      000000BBH   SFRSYM    DATA     BYTE      P_SW3
      000000BAH   SFRSYM    DATA     BYTE      P_SW2
      000000A2H   SFRSYM    DATA     BYTE      P_SW1
      000000CEH   SFRSYM    DATA     BYTE      SPCTL
      000000F8H   SFRSYM    DATA     BYTE      P7
      000000E8H   SFRSYM    DATA     BYTE      P6
      000000C8H   SFRSYM    DATA     BYTE      P5
      000000C0H   SFRSYM    DATA     BYTE      P4
      000000ABH   SFRSYM    DATA     BYTE      WKTCH
      000000B0H   SFRSYM    DATA     BYTE      P3
      000000A0H   SFRSYM    DATA     BYTE      P2
      00000090H   SFRSYM    DATA     BYTE      P1
      00000080H   SFRSYM    DATA     BYTE      P0
      WR6         REGSYM    ---      INT       type_set
      WR4         REGSYM    ---      INT       uartx
      REG=0       REGSYM    ---      ---       uart_callback
      WR6         REGSYM    ---      INT       type_set
      REG=0       REGSYM    ---      ---       exti_callback
      WR6         REGSYM    ---      INT       type_set
      WR4         REGSYM    ---      INT       uartx
      REG=0       REGSYM    ---      ---       uart_callback

      ---         MODULE    ---      ---       zf_device_tft180
      00FF6C49H   PUBLIC    CODE     ---       tft180_init
      00FF7814H   PUBLIC    CODE     ---       tft180_show_float
      00FF9513H   PUBLIC    CODE     ---       tft180_show_string
      00FF8C7DH   PUBLIC    CODE     ---       tft180_show_char
      00FF000EH   PUBLIC    CODE     ---       tft180_set_color
      00FF8559H   PUBLIC    CODE     ---       tft180_show_int16
      00FFAA19H   PUBLIC    CODE     ---       tft180_set_dir
      00FFA104H   PUBLIC    CODE     ---       tft180_clear
      00010EB8H   PUBLIC    XDATA    WORD      tft180_pencolor
      00010EBAH   PUBLIC    XDATA    WORD      tft180_bgcolor
      00010EBCH   PUBLIC    XDATA    INT       tft180_display_dir
      00010EBEH   PUBLIC    XDATA    BYTE      tft180_x_max
      00010EBFH   PUBLIC    XDATA    BYTE      tft180_y_max
      0001055CH   PUBLIC    XDATA    BYTE      ?tft180_show_float?BYTE
      000000D0H   SFRSYM    DATA     BYTE      PSW
      0000009DH   SFRSYM    DATA     BYTE      IRCBAND
      00000097H   SFRSYM    DATA     BYTE      AUXR2
      000000EFH   SFRSYM    DATA     BYTE      AUXINTIF
      000000FDH   SFRSYM    DATA     BYTE      S4CON
      000000ACH   SFRSYM    DATA     BYTE      S3CON
      0000009AH   SFRSYM    DATA     BYTE      S2CON
      000000B7H   SFRSYM    DATA     BYTE      IPH
      000000CDH   SFRSYM    DATA     BYTE      SPSTAT
      000000DDH   SFRSYM    DATA     BYTE      T4T3M
      000000C1H   SFRSYM    DATA     BYTE      WDT_CONTR
      000000DFH   SFRSYM    DATA     BYTE      IP3
      000000F4H   SFRSYM    DATA     BYTE      USBCON
      000000B5H   SFRSYM    DATA     BYTE      IP2
      000000FFH   SFRSYM    DATA     BYTE      RSTCFG
      000000C7H   SFRSYM    DATA     BYTE      IAP_CONTR
      0000008EH   SFRSYM    DATA     BYTE      AUXR
      000000AFH   SFRSYM    DATA     BYTE      IE2
      00000088H   SFRSYM    DATA     BYTE      TCON
      00000089H   SFRSYM    DATA     BYTE      TMOD
      00000098H   SFRSYM    DATA     BYTE      SCON
      000000A0H.2 SFRSYM    DATA     BIT       P22
      000000A0H.1 SFRSYM    DATA     BIT       P21
      000000A0H.0 SFRSYM    DATA     BIT       P20
      00000087H   SFRSYM    DATA     BYTE      PCON
      000000BCH   SFRSYM    DATA     BYTE      ADC_CONTR
      000000D1H   SFRSYM    DATA     BYTE      PSW1
      000000E7H   SFRSYM    DATA     BYTE      CMPCR2
L251 LINKER/LOCATER V4.66.93.0                                                        09/26/2025  18:18:13  PAGE 85


      000000E6H   SFRSYM    DATA     BYTE      CMPCR1
      000000DEH   SFRSYM    DATA     BYTE      ADCCFG
      000000B8H   SFRSYM    DATA     BYTE      IP
      0000008FH   SFRSYM    DATA     BYTE      INTCLKO
      000000EEH   SFRSYM    DATA     BYTE      IP3H
      000000B6H   SFRSYM    DATA     BYTE      IP2H
      000000BFH   SFRSYM    DATA     BYTE      P_SW4
      000000A8H   SFRSYM    DATA     BYTE      IE
      000000BBH   SFRSYM    DATA     BYTE      P_SW3
      000000BAH   SFRSYM    DATA     BYTE      P_SW2
      000000A2H   SFRSYM    DATA     BYTE      P_SW1
      000000CEH   SFRSYM    DATA     BYTE      SPCTL
      000000F8H   SFRSYM    DATA     BYTE      P7
      000000E8H   SFRSYM    DATA     BYTE      P6
      000000C8H   SFRSYM    DATA     BYTE      P5
      000000C0H   SFRSYM    DATA     BYTE      P4
      000000ABH   SFRSYM    DATA     BYTE      WKTCH
      000000B0H   SFRSYM    DATA     BYTE      P3
      000000A0H   SFRSYM    DATA     BYTE      P2
      00000090H   SFRSYM    DATA     BYTE      P1
      00000080H   SFRSYM    DATA     BYTE      P0
      00FF868CH   SYMBOL    CODE     ---       tft180_set_region
      00FFAACDH   SYMBOL    CODE     ---       tft180_write_index

      00FFAACDH   BLOCK     CODE     ---       LVL=0
      R5          REGSYM    ---      BYTE      dat
      00FFAACDH   LINE      CODE     ---       #80
      00FFAACFH   LINE      CODE     ---       #82
      00FFAAD1H   LINE      CODE     ---       #83
      00FFAAD3H   LINE      CODE     ---       #84
      00FFAAD5H   LINE      CODE     ---       #85
      00FFAADCH   LINE      CODE     ---       #86
      00FFAADEH   LINE      CODE     ---       #87
      00FFAAE0H   LINE      CODE     ---       #88
      00FFAAE2H   LINE      CODE     ---       #89
      ---         BLOCKEND  ---      ---       LVL=0

      00FF868CH   BLOCK     CODE     ---       LVL=0
      00010599H   SYMBOL    XDATA    WORD      x1
      0001059BH   SYMBOL    XDATA    WORD      y1
      WR12        REGSYM    ---      WORD      x2
      WR14        REGSYM    ---      WORD      y2
      00FF868CH   LINE      CODE     ---       #100
      00FF869EH   LINE      CODE     ---       #102
      00FF86C2H   LINE      CODE     ---       #103
      00FF86E6H   LINE      CODE     ---       #104
      00FF8704H   LINE      CODE     ---       #105
      00FF8722H   LINE      CODE     ---       #107
      00FF8738H   LINE      CODE     ---       #109
      00FF873DH   LINE      CODE     ---       #110
      00FF874AH   LINE      CODE     ---       #111
      00FF8753H   LINE      CODE     ---       #113
      00FF8758H   LINE      CODE     ---       #114
      00FF8765H   LINE      CODE     ---       #115
      00FF876EH   LINE      CODE     ---       #116
      00FF8770H   LINE      CODE     ---       #119
      00FF8775H   LINE      CODE     ---       #120
      00FF8782H   LINE      CODE     ---       #121
      00FF878BH   LINE      CODE     ---       #123
      00FF8790H   LINE      CODE     ---       #124
      00FF879DH   LINE      CODE     ---       #125
      00FF87A6H   LINE      CODE     ---       #126
      00FF87A6H   LINE      CODE     ---       #127
      00FF87ABH   LINE      CODE     ---       #128
      ---         BLOCKEND  ---      ---       LVL=0
L251 LINKER/LOCATER V4.66.93.0                                                        09/26/2025  18:18:13  PAGE 86



      00FFA104H   BLOCK     CODE     ---       LVL=0
      WR14        REGSYM    ---      WORD      color
      00FFA108H   BLOCK     CODE     NEAR LAB  LVL=1
      0001055EH   SYMBOL    XDATA    DWORD     i
      ---         BLOCKEND  ---      ---       LVL=1
      00FFA104H   LINE      CODE     ---       #138
      00FFA108H   LINE      CODE     ---       #139
      00FFA108H   LINE      CODE     ---       #140
      00FFA125H   LINE      CODE     ---       #142
      00FFA13CH   LINE      CODE     ---       #143
      00FFA13EH   LINE      CODE     ---       #145
      00FFA145H   LINE      CODE     ---       #146
      00FFA168H   LINE      CODE     ---       #147
      ---         BLOCKEND  ---      ---       LVL=0

      00FFAA19H   BLOCK     CODE     ---       LVL=0
      WR6         REGSYM    ---      INT       dir
      00FFAA19H   LINE      CODE     ---       #155
      00FFAA19H   LINE      CODE     ---       #157
      00FFAA1FH   LINE      CODE     ---       #158
      00FFAA25H   LINE      CODE     ---       #160
      00FFAA2BH   LINE      CODE     ---       #161
      00FFAA31H   LINE      CODE     ---       #162
      00FFAA33H   LINE      CODE     ---       #165
      00FFAA39H   LINE      CODE     ---       #166
      00FFAA3FH   LINE      CODE     ---       #167
      00FFAA3FH   LINE      CODE     ---       #168
      ---         BLOCKEND  ---      ---       LVL=0

      00FF000EH   BLOCK     CODE     ---       LVL=0
      WR6         REGSYM    ---      WORD      pen
      WR4         REGSYM    ---      WORD      bgcolor
      00FF000EH   LINE      CODE     ---       #177
      00FF000EH   LINE      CODE     ---       #179
      00FF0014H   LINE      CODE     ---       #180
      00FF001AH   LINE      CODE     ---       #181
      ---         BLOCKEND  ---      ---       LVL=0
      WR12        REGSYM    ---      WORD      x
      WR14        REGSYM    ---      WORD      y

      00FF8C7DH   BLOCK     CODE     ---       LVL=0
      WR12        REGSYM    ---      WORD      x
      WR14        REGSYM    ---      WORD      y
      00010595H   SYMBOL    XDATA    CHAR      dat
      00FF8C87H   BLOCK     CODE     NEAR LAB  LVL=1
      00010596H   SYMBOL    XDATA    BYTE      i
      00010597H   SYMBOL    XDATA    BYTE      j
      00010598H   SYMBOL    XDATA    BYTE      temp
      ---         BLOCKEND  ---      ---       LVL=1
      00FF8C7DH   LINE      CODE     ---       #208
      00FF8C87H   LINE      CODE     ---       #209
      00FF8C87H   LINE      CODE     ---       #213
      00FF8CA5H   LINE      CODE     ---       #214
      00FF8CC3H   LINE      CODE     ---       #216
      00FF8CCBH   LINE      CODE     ---       #218
      00FF8CE6H   LINE      CODE     ---       #219
      00FF8D0CH   LINE      CODE     ---       #220
      00FF8D13H   LINE      CODE     ---       #222
      00FF8D1AH   LINE      CODE     ---       #223
      00FF8D27H   LINE      CODE     ---       #225
      00FF8D32H   LINE      CODE     ---       #226
      00FF8D39H   LINE      CODE     ---       #227
      00FF8D48H   LINE      CODE     ---       #228
      00FF8D5AH   LINE      CODE     ---       #229
L251 LINKER/LOCATER V4.66.93.0                                                        09/26/2025  18:18:13  PAGE 87


      ---         BLOCKEND  ---      ---       LVL=0

      00FF9513H   BLOCK     CODE     ---       LVL=0
      0001058FH   SYMBOL    XDATA    WORD      x
      00010591H   SYMBOL    XDATA    WORD      y
      REG=3       REGSYM    ---      ---       dat
      00FF9523H   BLOCK     CODE     NEAR LAB  LVL=1
      00010593H   SYMBOL    XDATA    WORD      j
      ---         BLOCKEND  ---      ---       LVL=1
      00FF9513H   LINE      CODE     ---       #239
      00FF9523H   LINE      CODE     ---       #240
      00FF9523H   LINE      CODE     ---       #241
      00FF952BH   LINE      CODE     ---       #243
      00FF954FH   LINE      CODE     ---       #244
      00FF9573H   LINE      CODE     ---       #247
      00FF9575H   LINE      CODE     ---       #249
      00FF959FH   LINE      CODE     ---       #250
      00FF95AAH   LINE      CODE     ---       #251
      00FF95B9H   LINE      CODE     ---       #252
      ---         BLOCKEND  ---      ---       LVL=0
      WR12        REGSYM    ---      WORD      x
      WR14        REGSYM    ---      WORD      y
      WR12        REGSYM    ---      WORD      x
      WR14        REGSYM    ---      WORD      y

      00FF8559H   BLOCK     CODE     ---       LVL=0
      WR12        REGSYM    ---      WORD      x
      WR14        REGSYM    ---      WORD      y
      0001055EH   SYMBOL    XDATA    INT       dat
      00FF8565H   BLOCK     CODE     NEAR LAB  LVL=1
      00010560H   SYMBOL    XDATA    ---       a
      00010565H   SYMBOL    XDATA    BYTE      i
      ---         BLOCKEND  ---      ---       LVL=1
      00FF8559H   LINE      CODE     ---       #326
      00FF8565H   LINE      CODE     ---       #327
      00FF8565H   LINE      CODE     ---       #331
      00FF8583H   LINE      CODE     ---       #332
      00FF85A1H   LINE      CODE     ---       #334
      00FF85ADH   LINE      CODE     ---       #336
      00FF85B6H   LINE      CODE     ---       #337
      00FF85C8H   LINE      CODE     ---       #338
      00FF85CAH   LINE      CODE     ---       #339
      00FF85D3H   LINE      CODE     ---       #341
      00FF85E6H   LINE      CODE     ---       #342
      00FF8600H   LINE      CODE     ---       #343
      00FF861AH   LINE      CODE     ---       #344
      00FF8634H   LINE      CODE     ---       #345
      00FF8647H   LINE      CODE     ---       #347
      00FF864CH   LINE      CODE     ---       #348
      00FF864EH   LINE      CODE     ---       #350
      00FF867AH   LINE      CODE     ---       #351
      00FF8680H   LINE      CODE     ---       #352
      00FF8689H   LINE      CODE     ---       #353
      ---         BLOCKEND  ---      ---       LVL=0
      WR12        REGSYM    ---      WORD      x
      WR14        REGSYM    ---      WORD      y
      WR12        REGSYM    ---      WORD      y
      R15         REGSYM    ---      BYTE      num
      R14         REGSYM    ---      BYTE      length

      00FF7814H   BLOCK     CODE     ---       LVL=0
      0001055EH   SYMBOL    XDATA    WORD      x
      WR12        REGSYM    ---      WORD      y
      00010560H   SYMBOL    XDATA    DOUBLE    dat
      R14         REGSYM    ---      BYTE      num
L251 LINKER/LOCATER V4.66.93.0                                                        09/26/2025  18:18:13  PAGE 88


      R15         REGSYM    ---      BYTE      pointnum
      00FF7822H   BLOCK     CODE     NEAR LAB  LVL=1
      0001056AH   SYMBOL    XDATA    BYTE      length
      0001056BH   SYMBOL    XDATA    ---       buff
      0001058DH   SYMBOL    XDATA    CHAR      start
      0001058EH   SYMBOL    XDATA    CHAR      end
      R10         REGSYM    ---      CHAR      point
      ---         BLOCKEND  ---      ---       LVL=1
      00FF7814H   LINE      CODE     ---       #437
      00FF7822H   LINE      CODE     ---       #438
      00FF7822H   LINE      CODE     ---       #443
      00FF7846H   LINE      CODE     ---       #444
      00FF7864H   LINE      CODE     ---       #446
      00FF786CH   LINE      CODE     ---       #447
      00FF7874H   LINE      CODE     ---       #449
      00FF78CEH   LINE      CODE     ---       #452
      00FF790BH   LINE      CODE     ---       #453
      00FF7911H   LINE      CODE     ---       #454
      00FF7911H   LINE      CODE     ---       #455
      00FF791DH   LINE      CODE     ---       #456
      00FF792BH   LINE      CODE     ---       #457
      00FF7937H   LINE      CODE     ---       #458
      00FF7939H   LINE      CODE     ---       #460
      00FF794FH   LINE      CODE     ---       #461
      00FF7955H   LINE      CODE     ---       #462
      00FF795BH   LINE      CODE     ---       #463
      00FF7964H   LINE      CODE     ---       #465
      00FF7997H   LINE      CODE     ---       #466
      00FF79ADH   LINE      CODE     ---       #468
      00FF79C2H   LINE      CODE     ---       #470
      00FF79D5H   LINE      CODE     ---       #471
      ---         BLOCKEND  ---      ---       LVL=0
      REG=3       REGSYM    ---      ---       p

      00FF6C49H   BLOCK     CODE     ---       LVL=0
      00FF6C49H   LINE      CODE     ---       #515
      00FF6C49H   LINE      CODE     ---       #520
      00FF6C80H   LINE      CODE     ---       #528
      00FF6C89H   LINE      CODE     ---       #529
      00FF6C98H   LINE      CODE     ---       #531
      00FF6C9AH   LINE      CODE     ---       #532
      00FF6CA1H   LINE      CODE     ---       #534
      00FF6CA3H   LINE      CODE     ---       #535
      00FF6CAAH   LINE      CODE     ---       #537
      00FF6CAFH   LINE      CODE     ---       #538
      00FF6CB6H   LINE      CODE     ---       #540
      00FF6CBBH   LINE      CODE     ---       #541
      00FF6CC2H   LINE      CODE     ---       #542
      00FF6CC9H   LINE      CODE     ---       #543
      00FF6CD0H   LINE      CODE     ---       #545
      00FF6CD5H   LINE      CODE     ---       #546
      00FF6CDCH   LINE      CODE     ---       #547
      00FF6CE3H   LINE      CODE     ---       #548
      00FF6CEAH   LINE      CODE     ---       #550
      00FF6CEFH   LINE      CODE     ---       #551
      00FF6CF6H   LINE      CODE     ---       #552
      00FF6CFDH   LINE      CODE     ---       #553
      00FF6D04H   LINE      CODE     ---       #554
      00FF6D0BH   LINE      CODE     ---       #555
      00FF6D12H   LINE      CODE     ---       #556
      00FF6D19H   LINE      CODE     ---       #558
      00FF6D1EH   LINE      CODE     ---       #559
      00FF6D25H   LINE      CODE     ---       #561
      00FF6D2AH   LINE      CODE     ---       #562
      00FF6D31H   LINE      CODE     ---       #563
L251 LINKER/LOCATER V4.66.93.0                                                        09/26/2025  18:18:13  PAGE 89


      00FF6D38H   LINE      CODE     ---       #564
      00FF6D3FH   LINE      CODE     ---       #565
      00FF6D44H   LINE      CODE     ---       #566
      00FF6D4BH   LINE      CODE     ---       #568
      00FF6D50H   LINE      CODE     ---       #569
      00FF6D57H   LINE      CODE     ---       #570
      00FF6D5DH   LINE      CODE     ---       #572
      00FF6D62H   LINE      CODE     ---       #573
      00FF6D69H   LINE      CODE     ---       #574
      00FF6D70H   LINE      CODE     ---       #575
      00FF6D75H   LINE      CODE     ---       #576
      00FF6D7CH   LINE      CODE     ---       #577
      00FF6D83H   LINE      CODE     ---       #579
      00FF6D88H   LINE      CODE     ---       #580
      00FF6D8FH   LINE      CODE     ---       #582
      00FF6D94H   LINE      CODE     ---       #583
      00FF6DACH   LINE      CODE     ---       #585
      00FF6DB5H   LINE      CODE     ---       #586
      00FF6DBDH   LINE      CODE     ---       #587
      00FF6DC6H   LINE      CODE     ---       #588
      00FF6DCDH   LINE      CODE     ---       #589
      00FF6DCDH   LINE      CODE     ---       #591
      00FF6DD2H   LINE      CODE     ---       #592
      00FF6DD9H   LINE      CODE     ---       #593
      00FF6DE0H   LINE      CODE     ---       #594
      00FF6DE7H   LINE      CODE     ---       #595
      00FF6DEEH   LINE      CODE     ---       #596
      00FF6DF5H   LINE      CODE     ---       #597
      00FF6DFCH   LINE      CODE     ---       #598
      00FF6E03H   LINE      CODE     ---       #599
      00FF6E0AH   LINE      CODE     ---       #600
      00FF6E11H   LINE      CODE     ---       #601
      00FF6E18H   LINE      CODE     ---       #602
      00FF6E1FH   LINE      CODE     ---       #603
      00FF6E26H   LINE      CODE     ---       #604
      00FF6E2CH   LINE      CODE     ---       #605
      00FF6E33H   LINE      CODE     ---       #606
      00FF6E3AH   LINE      CODE     ---       #607
      00FF6E41H   LINE      CODE     ---       #609
      00FF6E46H   LINE      CODE     ---       #610
      00FF6E4DH   LINE      CODE     ---       #611
      00FF6E54H   LINE      CODE     ---       #612
      00FF6E5BH   LINE      CODE     ---       #613
      00FF6E62H   LINE      CODE     ---       #614
      00FF6E69H   LINE      CODE     ---       #615
      00FF6E70H   LINE      CODE     ---       #616
      00FF6E77H   LINE      CODE     ---       #617
      00FF6E7EH   LINE      CODE     ---       #618
      00FF6E85H   LINE      CODE     ---       #619
      00FF6E8CH   LINE      CODE     ---       #620
      00FF6E93H   LINE      CODE     ---       #621
      00FF6E9AH   LINE      CODE     ---       #622
      00FF6EA0H   LINE      CODE     ---       #623
      00FF6EA7H   LINE      CODE     ---       #624
      00FF6EAEH   LINE      CODE     ---       #625
      00FF6EB5H   LINE      CODE     ---       #627
      00FF6EBAH   LINE      CODE     ---       #628
      00FF6EC0H   LINE      CODE     ---       #629
      00FF6EC7H   LINE      CODE     ---       #630
      00FF6ECDH   LINE      CODE     ---       #631
      00FF6ED4H   LINE      CODE     ---       #633
      00FF6ED9H   LINE      CODE     ---       #634
      00FF6EDFH   LINE      CODE     ---       #635
      00FF6EE6H   LINE      CODE     ---       #636
      00FF6EECH   LINE      CODE     ---       #637
L251 LINKER/LOCATER V4.66.93.0                                                        09/26/2025  18:18:13  PAGE 90


      00FF6EF3H   LINE      CODE     ---       #639
      00FF6EF8H   LINE      CODE     ---       #640
      00FF6EFFH   LINE      CODE     ---       #641
      00FF6F04H   LINE      CODE     ---       #642
      00FF6F0AH   LINE      CODE     ---       #644
      00FF6F0FH   LINE      CODE     ---       #645
      00FF6F16H   LINE      CODE     ---       #646
      00FF6F1BH   LINE      CODE     ---       #648
      00FF6F24H   LINE      CODE     ---       #649
      ---         BLOCKEND  ---      ---       LVL=0

      ---         MODULE    ---      ---       zf_device_ips114
      00010EC0H   PUBLIC    XDATA    WORD      ips114_pencolor
      00010EC2H   PUBLIC    XDATA    WORD      ips114_bgcolor
      00010EC4H   PUBLIC    XDATA    INT       ips114_display_dir
      00010EC6H   PUBLIC    XDATA    BYTE      ips114_x_max
      00010EC7H   PUBLIC    XDATA    BYTE      ips114_y_max
      000000D0H   SFRSYM    DATA     BYTE      PSW
      0000009DH   SFRSYM    DATA     BYTE      IRCBAND
      00000097H   SFRSYM    DATA     BYTE      AUXR2
      000000EFH   SFRSYM    DATA     BYTE      AUXINTIF
      000000FDH   SFRSYM    DATA     BYTE      S4CON
      000000ACH   SFRSYM    DATA     BYTE      S3CON
      0000009AH   SFRSYM    DATA     BYTE      S2CON
      000000B7H   SFRSYM    DATA     BYTE      IPH
      000000CDH   SFRSYM    DATA     BYTE      SPSTAT
      000000DDH   SFRSYM    DATA     BYTE      T4T3M
      000000C1H   SFRSYM    DATA     BYTE      WDT_CONTR
      000000DFH   SFRSYM    DATA     BYTE      IP3
      000000F4H   SFRSYM    DATA     BYTE      USBCON
      000000B5H   SFRSYM    DATA     BYTE      IP2
      000000FFH   SFRSYM    DATA     BYTE      RSTCFG
      000000C7H   SFRSYM    DATA     BYTE      IAP_CONTR
      0000008EH   SFRSYM    DATA     BYTE      AUXR
      000000AFH   SFRSYM    DATA     BYTE      IE2
      00000088H   SFRSYM    DATA     BYTE      TCON
      00000089H   SFRSYM    DATA     BYTE      TMOD
      00000098H   SFRSYM    DATA     BYTE      SCON
      000000A0H.2 SFRSYM    DATA     BIT       P22
      000000A0H.1 SFRSYM    DATA     BIT       P21
      000000A0H.0 SFRSYM    DATA     BIT       P20
      00000087H   SFRSYM    DATA     BYTE      PCON
      000000BCH   SFRSYM    DATA     BYTE      ADC_CONTR
      000000D1H   SFRSYM    DATA     BYTE      PSW1
      000000E7H   SFRSYM    DATA     BYTE      CMPCR2
      000000E6H   SFRSYM    DATA     BYTE      CMPCR1
      000000DEH   SFRSYM    DATA     BYTE      ADCCFG
      000000B8H   SFRSYM    DATA     BYTE      IP
      0000008FH   SFRSYM    DATA     BYTE      INTCLKO
      000000EEH   SFRSYM    DATA     BYTE      IP3H
      000000B6H   SFRSYM    DATA     BYTE      IP2H
      000000BFH   SFRSYM    DATA     BYTE      P_SW4
      000000A8H   SFRSYM    DATA     BYTE      IE
      000000BBH   SFRSYM    DATA     BYTE      P_SW3
      000000BAH   SFRSYM    DATA     BYTE      P_SW2
      000000A2H   SFRSYM    DATA     BYTE      P_SW1
      000000CEH   SFRSYM    DATA     BYTE      SPCTL
      000000F8H   SFRSYM    DATA     BYTE      P7
      000000E8H   SFRSYM    DATA     BYTE      P6
      000000C8H   SFRSYM    DATA     BYTE      P5
      000000C0H   SFRSYM    DATA     BYTE      P4
      000000ABH   SFRSYM    DATA     BYTE      WKTCH
      000000B0H   SFRSYM    DATA     BYTE      P3
      000000A0H   SFRSYM    DATA     BYTE      P2
      00000090H   SFRSYM    DATA     BYTE      P1
L251 LINKER/LOCATER V4.66.93.0                                                        09/26/2025  18:18:13  PAGE 91


      00000080H   SFRSYM    DATA     BYTE      P0
      R5          REGSYM    ---      BYTE      dat
      WR12        REGSYM    ---      WORD      x2
      WR14        REGSYM    ---      WORD      y2
      WR14        REGSYM    ---      WORD      color
      WR12        REGSYM    ---      WORD      i
      WR6         REGSYM    ---      INT       dir
      WR6         REGSYM    ---      WORD      pen
      WR4         REGSYM    ---      WORD      bgcolor
      WR12        REGSYM    ---      WORD      x
      WR14        REGSYM    ---      WORD      y
      WR12        REGSYM    ---      WORD      x
      WR14        REGSYM    ---      WORD      y
      REG=3       REGSYM    ---      ---       dat
      WR12        REGSYM    ---      WORD      x
      WR14        REGSYM    ---      WORD      y
      WR12        REGSYM    ---      WORD      x
      WR14        REGSYM    ---      WORD      y
      WR12        REGSYM    ---      WORD      x
      WR14        REGSYM    ---      WORD      y
      WR12        REGSYM    ---      WORD      x
      WR14        REGSYM    ---      WORD      y
      WR12        REGSYM    ---      WORD      y
      R15         REGSYM    ---      BYTE      num
      R14         REGSYM    ---      BYTE      length
      WR12        REGSYM    ---      WORD      y
      R14         REGSYM    ---      BYTE      num
      R15         REGSYM    ---      BYTE      pointnum
      R10         REGSYM    ---      CHAR      point
      REG=3       REGSYM    ---      ---       p
      REG=3       REGSYM    ---      ---       p

      ---         MODULE    ---      ---       zf_device_ips200
      00010E8AH   PUBLIC    XDATA    WORD      ips200_pencolor
      00010E8CH   PUBLIC    XDATA    WORD      ips200_bgcolor
      00010E8EH   PUBLIC    XDATA    INT       ips200_display_dir
      00010E90H   PUBLIC    XDATA    WORD      ips200_x_max
      00010E92H   PUBLIC    XDATA    WORD      ips200_y_max
      000000D0H   SFRSYM    DATA     BYTE      PSW
      0000009DH   SFRSYM    DATA     BYTE      IRCBAND
      00000097H   SFRSYM    DATA     BYTE      AUXR2
      000000EFH   SFRSYM    DATA     BYTE      AUXINTIF
      000000FDH   SFRSYM    DATA     BYTE      S4CON
      000000ACH   SFRSYM    DATA     BYTE      S3CON
      0000009AH   SFRSYM    DATA     BYTE      S2CON
      000000B7H   SFRSYM    DATA     BYTE      IPH
      000000CDH   SFRSYM    DATA     BYTE      SPSTAT
      000000DDH   SFRSYM    DATA     BYTE      T4T3M
      000000C1H   SFRSYM    DATA     BYTE      WDT_CONTR
      000000DFH   SFRSYM    DATA     BYTE      IP3
      000000F4H   SFRSYM    DATA     BYTE      USBCON
      000000B5H   SFRSYM    DATA     BYTE      IP2
      000000FFH   SFRSYM    DATA     BYTE      RSTCFG
      000000C7H   SFRSYM    DATA     BYTE      IAP_CONTR
      0000008EH   SFRSYM    DATA     BYTE      AUXR
      000000AFH   SFRSYM    DATA     BYTE      IE2
      00000088H   SFRSYM    DATA     BYTE      TCON
      00000089H   SFRSYM    DATA     BYTE      TMOD
      00000098H   SFRSYM    DATA     BYTE      SCON
      000000A0H.2 SFRSYM    DATA     BIT       P22
      000000A0H.1 SFRSYM    DATA     BIT       P21
      000000A0H.0 SFRSYM    DATA     BIT       P20
      00000087H   SFRSYM    DATA     BYTE      PCON
      000000BCH   SFRSYM    DATA     BYTE      ADC_CONTR
      000000D1H   SFRSYM    DATA     BYTE      PSW1
L251 LINKER/LOCATER V4.66.93.0                                                        09/26/2025  18:18:13  PAGE 92


      000000E7H   SFRSYM    DATA     BYTE      CMPCR2
      000000E6H   SFRSYM    DATA     BYTE      CMPCR1
      000000DEH   SFRSYM    DATA     BYTE      ADCCFG
      000000B8H   SFRSYM    DATA     BYTE      IP
      0000008FH   SFRSYM    DATA     BYTE      INTCLKO
      000000EEH   SFRSYM    DATA     BYTE      IP3H
      000000B6H   SFRSYM    DATA     BYTE      IP2H
      000000BFH   SFRSYM    DATA     BYTE      P_SW4
      000000A8H   SFRSYM    DATA     BYTE      IE
      000000BBH   SFRSYM    DATA     BYTE      P_SW3
      000000BAH   SFRSYM    DATA     BYTE      P_SW2
      000000A2H   SFRSYM    DATA     BYTE      P_SW1
      000000CEH   SFRSYM    DATA     BYTE      SPCTL
      000000F8H   SFRSYM    DATA     BYTE      P7
      000000E8H   SFRSYM    DATA     BYTE      P6
      000000C8H   SFRSYM    DATA     BYTE      P5
      000000C0H   SFRSYM    DATA     BYTE      P4
      000000ABH   SFRSYM    DATA     BYTE      WKTCH
      000000B0H   SFRSYM    DATA     BYTE      P3
      000000A0H   SFRSYM    DATA     BYTE      P2
      00000090H   SFRSYM    DATA     BYTE      P1
      00000080H   SFRSYM    DATA     BYTE      P0
      R5          REGSYM    ---      BYTE      dat
      WR12        REGSYM    ---      WORD      x2
      WR14        REGSYM    ---      WORD      y2
      WR14        REGSYM    ---      WORD      color
      WR12        REGSYM    ---      WORD      i
      WR6         REGSYM    ---      INT       dir
      WR6         REGSYM    ---      WORD      pen
      WR4         REGSYM    ---      WORD      bgcolor
      WR12        REGSYM    ---      WORD      x
      WR14        REGSYM    ---      WORD      y
      WR12        REGSYM    ---      WORD      x
      WR14        REGSYM    ---      WORD      y
      REG=3       REGSYM    ---      ---       dat
      WR12        REGSYM    ---      WORD      x
      WR14        REGSYM    ---      WORD      y
      WR12        REGSYM    ---      WORD      x
      WR14        REGSYM    ---      WORD      y
      WR12        REGSYM    ---      WORD      x
      WR14        REGSYM    ---      WORD      y
      WR12        REGSYM    ---      WORD      x
      WR14        REGSYM    ---      WORD      y
      WR12        REGSYM    ---      WORD      y
      R15         REGSYM    ---      BYTE      num
      R14         REGSYM    ---      BYTE      length
      WR12        REGSYM    ---      WORD      y
      R14         REGSYM    ---      BYTE      num
      R15         REGSYM    ---      BYTE      pointnum
      R10         REGSYM    ---      CHAR      point
      REG=3       REGSYM    ---      ---       p
      REG=3       REGSYM    ---      ---       p

      ---         MODULE    ---      ---       zf_device_dl1a
      00010E55H   PUBLIC    XDATA    WORD      dl1a_distance_mm
      00010E57H   PUBLIC    XDATA    BYTE      dl1a_finsh_flag
      000000D0H   SFRSYM    DATA     BYTE      PSW
      0000009DH   SFRSYM    DATA     BYTE      IRCBAND
      00000097H   SFRSYM    DATA     BYTE      AUXR2
      000000EFH   SFRSYM    DATA     BYTE      AUXINTIF
      000000FDH   SFRSYM    DATA     BYTE      S4CON
      000000ACH   SFRSYM    DATA     BYTE      S3CON
      0000009AH   SFRSYM    DATA     BYTE      S2CON
      000000B7H   SFRSYM    DATA     BYTE      IPH
      000000CDH   SFRSYM    DATA     BYTE      SPSTAT
L251 LINKER/LOCATER V4.66.93.0                                                        09/26/2025  18:18:13  PAGE 93


      000000DDH   SFRSYM    DATA     BYTE      T4T3M
      000000C1H   SFRSYM    DATA     BYTE      WDT_CONTR
      000000DFH   SFRSYM    DATA     BYTE      IP3
      000000F4H   SFRSYM    DATA     BYTE      USBCON
      000000B5H   SFRSYM    DATA     BYTE      IP2
      000000FFH   SFRSYM    DATA     BYTE      RSTCFG
      000000C7H   SFRSYM    DATA     BYTE      IAP_CONTR
      0000008EH   SFRSYM    DATA     BYTE      AUXR
      000000AFH   SFRSYM    DATA     BYTE      IE2
      00000088H   SFRSYM    DATA     BYTE      TCON
      00000089H   SFRSYM    DATA     BYTE      TMOD
      00000098H   SFRSYM    DATA     BYTE      SCON
      00000087H   SFRSYM    DATA     BYTE      PCON
      000000BCH   SFRSYM    DATA     BYTE      ADC_CONTR
      000000D1H   SFRSYM    DATA     BYTE      PSW1
      000000E7H   SFRSYM    DATA     BYTE      CMPCR2
      000000E6H   SFRSYM    DATA     BYTE      CMPCR1
      000000DEH   SFRSYM    DATA     BYTE      ADCCFG
      000000B8H   SFRSYM    DATA     BYTE      IP
      0000008FH   SFRSYM    DATA     BYTE      INTCLKO
      000000EEH   SFRSYM    DATA     BYTE      IP3H
      000000B6H   SFRSYM    DATA     BYTE      IP2H
      000000BFH   SFRSYM    DATA     BYTE      P_SW4
      000000A8H   SFRSYM    DATA     BYTE      IE
      000000BBH   SFRSYM    DATA     BYTE      P_SW3
      000000BAH   SFRSYM    DATA     BYTE      P_SW2
      000000A2H   SFRSYM    DATA     BYTE      P_SW1
      000000CEH   SFRSYM    DATA     BYTE      SPCTL
      000000F8H   SFRSYM    DATA     BYTE      P7
      000000E8H   SFRSYM    DATA     BYTE      P6
      000000C8H   SFRSYM    DATA     BYTE      P5
      000000C0H   SFRSYM    DATA     BYTE      P4
      000000ABH   SFRSYM    DATA     BYTE      WKTCH
      000000B0H   SFRSYM    DATA     BYTE      P3
      000000A0H   SFRSYM    DATA     BYTE      P2
      00000090H   SFRSYM    DATA     BYTE      P1
      00000080H   SFRSYM    DATA     BYTE      P0
      00FFBD99H   SYMBOL    HCONST   ---       ?tpl?0001
      00FFBDA1H   SYMBOL    HCONST   ---       ?tpl?0002
      00FFBDA7H   SYMBOL    HCONST   ---       ?tpl?0003
      00FFBDB1H   SYMBOL    HCONST   ---       ?tpl?0004
      00010E4CH   SYMBOL    XDATA    ---       dl1a_iic_struct
      00010E58H   SYMBOL    XDATA    BYTE      dl1a_init_flag
      REG=3       REGSYM    ---      ---       type_is_aperture
      WR30        REGSYM    ---      WORD      timeout_period_mclks
      R5          REGSYM    ---      BYTE      vcsel_period_pclks
      DR24        REGSYM    ---      DWORD     macro_period_ns
      DR28        REGSYM    ---      DWORD     timeout_period_us
      R3          REGSYM    ---      BYTE      vcsel_period_pclks
      DR8         REGSYM    ---      DWORD     macro_period_ns
      WR4         REGSYM    ---      WORD      reg_val
      WR2         REGSYM    ---      WORD      timeout_mclks
      DR8         REGSYM    ---      DWORD     ls_byte
      WR4         REGSYM    ---      WORD      ms_byte
      WR6         REGSYM    ---      WORD      return_data
      REG=3       REGSYM    ---      ---       enables
      WR14        REGSYM    ---      INT       type
      REG=3       REGSYM    ---      ---       timeouts
      R10         REGSYM    ---      BYTE      vhv_init_byte
      R15         REGSYM    ---      BYTE      return_state
      DR12        REGSYM    ---      DWORD     budget_us
      DR12        REGSYM    ---      DWORD     budget_us
      DR28        REGSYM    ---      FLOAT     limit_mcps
      WR14        REGSYM    ---      WORD      limit_mcps_16bit
      R15         REGSYM    ---      BYTE      return_state
L251 LINKER/LOCATER V4.66.93.0                                                        09/26/2025  18:18:13  PAGE 94


      R14         REGSYM    ---      BYTE      reg_data_buffer
      WR12        REGSYM    ---      WORD      i

      ---         MODULE    ---      ---       zf_device_ble6a20
      000000D0H   SFRSYM    DATA     BYTE      PSW
      0000009DH   SFRSYM    DATA     BYTE      IRCBAND
      00000097H   SFRSYM    DATA     BYTE      AUXR2
      000000EFH   SFRSYM    DATA     BYTE      AUXINTIF
      000000FDH   SFRSYM    DATA     BYTE      S4CON
      000000ACH   SFRSYM    DATA     BYTE      S3CON
      0000009AH   SFRSYM    DATA     BYTE      S2CON
      000000B7H   SFRSYM    DATA     BYTE      IPH
      000000CDH   SFRSYM    DATA     BYTE      SPSTAT
      000000DDH   SFRSYM    DATA     BYTE      T4T3M
      000000C1H   SFRSYM    DATA     BYTE      WDT_CONTR
      000000DFH   SFRSYM    DATA     BYTE      IP3
      000000F4H   SFRSYM    DATA     BYTE      USBCON
      000000B5H   SFRSYM    DATA     BYTE      IP2
      000000FFH   SFRSYM    DATA     BYTE      RSTCFG
      000000C7H   SFRSYM    DATA     BYTE      IAP_CONTR
      0000008EH   SFRSYM    DATA     BYTE      AUXR
      000000AFH   SFRSYM    DATA     BYTE      IE2
      00000088H   SFRSYM    DATA     BYTE      TCON
      00000089H   SFRSYM    DATA     BYTE      TMOD
      00000098H   SFRSYM    DATA     BYTE      SCON
      00000087H   SFRSYM    DATA     BYTE      PCON
      000000BCH   SFRSYM    DATA     BYTE      ADC_CONTR
      000000D1H   SFRSYM    DATA     BYTE      PSW1
      000000E7H   SFRSYM    DATA     BYTE      CMPCR2
      000000E6H   SFRSYM    DATA     BYTE      CMPCR1
      000000DEH   SFRSYM    DATA     BYTE      ADCCFG
      000000B8H   SFRSYM    DATA     BYTE      IP
      0000008FH   SFRSYM    DATA     BYTE      INTCLKO
      000000EEH   SFRSYM    DATA     BYTE      IP3H
      000000B6H   SFRSYM    DATA     BYTE      IP2H
      000000BFH   SFRSYM    DATA     BYTE      P_SW4
      000000A8H   SFRSYM    DATA     BYTE      IE
      000000BBH   SFRSYM    DATA     BYTE      P_SW3
      000000BAH   SFRSYM    DATA     BYTE      P_SW2
      000000A2H   SFRSYM    DATA     BYTE      P_SW1
      000000CEH   SFRSYM    DATA     BYTE      SPCTL
      000000F8H   SFRSYM    DATA     BYTE      P7
      000000E8H   SFRSYM    DATA     BYTE      P6
      000000C8H   SFRSYM    DATA     BYTE      P5
      000000C0H   SFRSYM    DATA     BYTE      P4
      000000ABH   SFRSYM    DATA     BYTE      WKTCH
      000000B0H   SFRSYM    DATA     BYTE      P3
      000000A0H   SFRSYM    DATA     BYTE      P2
      00000090H   SFRSYM    DATA     BYTE      P1
      00000080H   SFRSYM    DATA     BYTE      P0
      00010CCCH   SYMBOL    XDATA    ---       ble6a20_buffer
      00010D0CH   SYMBOL    XDATA    ---       ble6a20_fifo
      R15         REGSYM    ---      BYTE      dat
      WR12        REGSYM    ---      WORD      time_cnt
      DR12        REGSYM    ---      DWORD     len
      REG=3       REGSYM    ---      ---       str
      REG=3       REGSYM    ---      ---       buff
      DR8         REGSYM    ---      DWORD     len
      R15         REGSYM    ---      BYTE      return_state

      ---         MODULE    ---      ---       zf_device_wireless_uart
      000000D0H   SFRSYM    DATA     BYTE      PSW
      0000009DH   SFRSYM    DATA     BYTE      IRCBAND
      00000097H   SFRSYM    DATA     BYTE      AUXR2
      000000EFH   SFRSYM    DATA     BYTE      AUXINTIF
L251 LINKER/LOCATER V4.66.93.0                                                        09/26/2025  18:18:13  PAGE 95


      000000FDH   SFRSYM    DATA     BYTE      S4CON
      000000ACH   SFRSYM    DATA     BYTE      S3CON
      0000009AH   SFRSYM    DATA     BYTE      S2CON
      000000B7H   SFRSYM    DATA     BYTE      IPH
      000000CDH   SFRSYM    DATA     BYTE      SPSTAT
      000000DDH   SFRSYM    DATA     BYTE      T4T3M
      000000C1H   SFRSYM    DATA     BYTE      WDT_CONTR
      000000DFH   SFRSYM    DATA     BYTE      IP3
      000000F4H   SFRSYM    DATA     BYTE      USBCON
      000000B5H   SFRSYM    DATA     BYTE      IP2
      000000FFH   SFRSYM    DATA     BYTE      RSTCFG
      000000C7H   SFRSYM    DATA     BYTE      IAP_CONTR
      0000008EH   SFRSYM    DATA     BYTE      AUXR
      000000AFH   SFRSYM    DATA     BYTE      IE2
      00000088H   SFRSYM    DATA     BYTE      TCON
      00000089H   SFRSYM    DATA     BYTE      TMOD
      00000098H   SFRSYM    DATA     BYTE      SCON
      00000087H   SFRSYM    DATA     BYTE      PCON
      000000BCH   SFRSYM    DATA     BYTE      ADC_CONTR
      000000D1H   SFRSYM    DATA     BYTE      PSW1
      000000E7H   SFRSYM    DATA     BYTE      CMPCR2
      000000E6H   SFRSYM    DATA     BYTE      CMPCR1
      000000DEH   SFRSYM    DATA     BYTE      ADCCFG
      000000B8H   SFRSYM    DATA     BYTE      IP
      0000008FH   SFRSYM    DATA     BYTE      INTCLKO
      000000EEH   SFRSYM    DATA     BYTE      IP3H
      000000B6H   SFRSYM    DATA     BYTE      IP2H
      000000BFH   SFRSYM    DATA     BYTE      P_SW4
      000000A8H   SFRSYM    DATA     BYTE      IE
      000000BBH   SFRSYM    DATA     BYTE      P_SW3
      000000BAH   SFRSYM    DATA     BYTE      P_SW2
      000000A2H   SFRSYM    DATA     BYTE      P_SW1
      000000CEH   SFRSYM    DATA     BYTE      SPCTL
      000000F8H   SFRSYM    DATA     BYTE      P7
      000000E8H   SFRSYM    DATA     BYTE      P6
      000000C8H   SFRSYM    DATA     BYTE      P5
      000000C0H   SFRSYM    DATA     BYTE      P4
      000000ABH   SFRSYM    DATA     BYTE      WKTCH
      000000B0H   SFRSYM    DATA     BYTE      P3
      000000A0H   SFRSYM    DATA     BYTE      P2
      00000090H   SFRSYM    DATA     BYTE      P1
      00000080H   SFRSYM    DATA     BYTE      P0
      00010D23H   SYMBOL    XDATA    ---       wireless_uart_fifo
      00010D3AH   SYMBOL    XDATA    ---       wireless_uart_buffer
      R15         REGSYM    ---      BYTE      dat
      WR12        REGSYM    ---      WORD      time_cnt
      DR12        REGSYM    ---      DWORD     len
      REG=3       REGSYM    ---      ---       str
      REG=3       REGSYM    ---      ---       buff
      DR8         REGSYM    ---      DWORD     len
      R15         REGSYM    ---      BYTE      return_state

      ---         MODULE    ---      ---       zf_device_icm20602
      00010E24H   PUBLIC    XDATA    INT       icm20602_acc_x
      00010E26H   PUBLIC    XDATA    INT       icm20602_acc_y
      00010E28H   PUBLIC    XDATA    INT       icm20602_acc_z
      00010E2AH   PUBLIC    XDATA    INT       icm20602_gyro_x
      00010E2CH   PUBLIC    XDATA    INT       icm20602_gyro_y
      00010E2EH   PUBLIC    XDATA    INT       icm20602_gyro_z
      00010E30H   PUBLIC    XDATA    ---       icm20602_transition_factor
      000000D0H   SFRSYM    DATA     BYTE      PSW
      0000009DH   SFRSYM    DATA     BYTE      IRCBAND
      00000097H   SFRSYM    DATA     BYTE      AUXR2
      000000EFH   SFRSYM    DATA     BYTE      AUXINTIF
      000000FDH   SFRSYM    DATA     BYTE      S4CON
L251 LINKER/LOCATER V4.66.93.0                                                        09/26/2025  18:18:13  PAGE 96


      000000ACH   SFRSYM    DATA     BYTE      S3CON
      0000009AH   SFRSYM    DATA     BYTE      S2CON
      000000B7H   SFRSYM    DATA     BYTE      IPH
      000000CDH   SFRSYM    DATA     BYTE      SPSTAT
      000000DDH   SFRSYM    DATA     BYTE      T4T3M
      000000C1H   SFRSYM    DATA     BYTE      WDT_CONTR
      000000DFH   SFRSYM    DATA     BYTE      IP3
      000000F4H   SFRSYM    DATA     BYTE      USBCON
      000000B5H   SFRSYM    DATA     BYTE      IP2
      000000FFH   SFRSYM    DATA     BYTE      RSTCFG
      000000C7H   SFRSYM    DATA     BYTE      IAP_CONTR
      0000008EH   SFRSYM    DATA     BYTE      AUXR
      000000AFH   SFRSYM    DATA     BYTE      IE2
      000000C0H.3 SFRSYM    DATA     BIT       P43
      000000C0H.2 SFRSYM    DATA     BIT       P42
      00000088H   SFRSYM    DATA     BYTE      TCON
      00000089H   SFRSYM    DATA     BYTE      TMOD
      000000C0H.1 SFRSYM    DATA     BIT       P41
      00000098H   SFRSYM    DATA     BYTE      SCON
      000000C0H.0 SFRSYM    DATA     BIT       P40
      00000087H   SFRSYM    DATA     BYTE      PCON
      000000BCH   SFRSYM    DATA     BYTE      ADC_CONTR
      000000D1H   SFRSYM    DATA     BYTE      PSW1
      000000E7H   SFRSYM    DATA     BYTE      CMPCR2
      000000E6H   SFRSYM    DATA     BYTE      CMPCR1
      000000DEH   SFRSYM    DATA     BYTE      ADCCFG
      000000B8H   SFRSYM    DATA     BYTE      IP
      0000008FH   SFRSYM    DATA     BYTE      INTCLKO
      000000EEH   SFRSYM    DATA     BYTE      IP3H
      000000B6H   SFRSYM    DATA     BYTE      IP2H
      000000BFH   SFRSYM    DATA     BYTE      P_SW4
      000000A8H   SFRSYM    DATA     BYTE      IE
      000000BBH   SFRSYM    DATA     BYTE      P_SW3
      000000BAH   SFRSYM    DATA     BYTE      P_SW2
      000000A2H   SFRSYM    DATA     BYTE      P_SW1
      000000CEH   SFRSYM    DATA     BYTE      SPCTL
      000000F8H   SFRSYM    DATA     BYTE      P7
      000000E8H   SFRSYM    DATA     BYTE      P6
      000000C8H   SFRSYM    DATA     BYTE      P5
      000000C0H   SFRSYM    DATA     BYTE      P4
      000000ABH   SFRSYM    DATA     BYTE      WKTCH
      000000B0H   SFRSYM    DATA     BYTE      P3
      000000A0H   SFRSYM    DATA     BYTE      P2
      00000090H   SFRSYM    DATA     BYTE      P1
      00000080H   SFRSYM    DATA     BYTE      P0
      R7          REGSYM    ---      BYTE      byte
      R6          REGSYM    ---      BYTE      i
      R7          REGSYM    ---      BYTE      cmd
      R15         REGSYM    ---      BYTE      val
      R10         REGSYM    ---      BYTE      cmd
      REG=3       REGSYM    ---      ---       val
      R10         REGSYM    ---      BYTE      cmd
      REG=3       REGSYM    ---      ---       val
      R11         REGSYM    ---      BYTE      reg
      R10         REGSYM    ---      BYTE      dat
      R7          REGSYM    ---      BYTE      reg
      R3          REGSYM    ---      BYTE      reg
      REG=1       REGSYM    ---      ---       dat
      DR28        REGSYM    ---      DWORD     len
      R14         REGSYM    ---      BYTE      dat
      R15         REGSYM    ---      BYTE      return_state
      WR12        REGSYM    ---      WORD      timeout_count
      R14         REGSYM    ---      BYTE      val
      R15         REGSYM    ---      BYTE      return_state
      WR12        REGSYM    ---      WORD      timeout_count
L251 LINKER/LOCATER V4.66.93.0                                                        09/26/2025  18:18:13  PAGE 97



      ---         MODULE    ---      ---       zf_device_imu660ra
      00010E38H   PUBLIC    XDATA    INT       imu660ra_acc_x
      00010E3AH   PUBLIC    XDATA    INT       imu660ra_acc_y
      00010E3CH   PUBLIC    XDATA    INT       imu660ra_acc_z
      00010E3EH   PUBLIC    XDATA    INT       imu660ra_gyro_x
      00010E40H   PUBLIC    XDATA    INT       imu660ra_gyro_y
      00010E42H   PUBLIC    XDATA    INT       imu660ra_gyro_z
      00010E44H   PUBLIC    XDATA    ---       imu660ra_transition_factor
      000000D0H   SFRSYM    DATA     BYTE      PSW
      0000009DH   SFRSYM    DATA     BYTE      IRCBAND
      00000097H   SFRSYM    DATA     BYTE      AUXR2
      000000EFH   SFRSYM    DATA     BYTE      AUXINTIF
      000000FDH   SFRSYM    DATA     BYTE      S4CON
      000000ACH   SFRSYM    DATA     BYTE      S3CON
      0000009AH   SFRSYM    DATA     BYTE      S2CON
      000000B7H   SFRSYM    DATA     BYTE      IPH
      000000CDH   SFRSYM    DATA     BYTE      SPSTAT
      000000DDH   SFRSYM    DATA     BYTE      T4T3M
      000000C1H   SFRSYM    DATA     BYTE      WDT_CONTR
      000000DFH   SFRSYM    DATA     BYTE      IP3
      000000F4H   SFRSYM    DATA     BYTE      USBCON
      000000B5H   SFRSYM    DATA     BYTE      IP2
      000000FFH   SFRSYM    DATA     BYTE      RSTCFG
      000000C7H   SFRSYM    DATA     BYTE      IAP_CONTR
      0000008EH   SFRSYM    DATA     BYTE      AUXR
      000000AFH   SFRSYM    DATA     BYTE      IE2
      000000C0H.3 SFRSYM    DATA     BIT       P43
      000000C0H.2 SFRSYM    DATA     BIT       P42
      00000088H   SFRSYM    DATA     BYTE      TCON
      00000089H   SFRSYM    DATA     BYTE      TMOD
      000000C0H.1 SFRSYM    DATA     BIT       P41
      00000098H   SFRSYM    DATA     BYTE      SCON
      000000C0H.0 SFRSYM    DATA     BIT       P40
      00000087H   SFRSYM    DATA     BYTE      PCON
      000000BCH   SFRSYM    DATA     BYTE      ADC_CONTR
      000000D1H   SFRSYM    DATA     BYTE      PSW1
      000000E7H   SFRSYM    DATA     BYTE      CMPCR2
      000000E6H   SFRSYM    DATA     BYTE      CMPCR1
      000000DEH   SFRSYM    DATA     BYTE      ADCCFG
      000000B8H   SFRSYM    DATA     BYTE      IP
      0000008FH   SFRSYM    DATA     BYTE      INTCLKO
      000000EEH   SFRSYM    DATA     BYTE      IP3H
      000000B6H   SFRSYM    DATA     BYTE      IP2H
      000000BFH   SFRSYM    DATA     BYTE      P_SW4
      000000A8H   SFRSYM    DATA     BYTE      IE
      000000BBH   SFRSYM    DATA     BYTE      P_SW3
      000000BAH   SFRSYM    DATA     BYTE      P_SW2
      000000A2H   SFRSYM    DATA     BYTE      P_SW1
      000000CEH   SFRSYM    DATA     BYTE      SPCTL
      000000F8H   SFRSYM    DATA     BYTE      P7
      000000E8H   SFRSYM    DATA     BYTE      P6
      000000C8H   SFRSYM    DATA     BYTE      P5
      000000C0H   SFRSYM    DATA     BYTE      P4
      000000ABH   SFRSYM    DATA     BYTE      WKTCH
      000000B0H   SFRSYM    DATA     BYTE      P3
      000000A0H   SFRSYM    DATA     BYTE      P2
      00000090H   SFRSYM    DATA     BYTE      P1
      00000080H   SFRSYM    DATA     BYTE      P0
      R7          REGSYM    ---      BYTE      byte
      R6          REGSYM    ---      BYTE      i
      R7          REGSYM    ---      BYTE      cmd
      R15         REGSYM    ---      BYTE      val
      R7          REGSYM    ---      BYTE      cmd
      DR12        REGSYM    ---      DWORD     len
L251 LINKER/LOCATER V4.66.93.0                                                        09/26/2025  18:18:13  PAGE 98


      R10         REGSYM    ---      BYTE      cmd
      REG=3       REGSYM    ---      ---       val
      R11         REGSYM    ---      BYTE      reg
      R10         REGSYM    ---      BYTE      dat
      R3          REGSYM    ---      BYTE      reg
      REG=1       REGSYM    ---      ---       dat
      DR28        REGSYM    ---      DWORD     len
      R7          REGSYM    ---      BYTE      reg
      R5          REGSYM    ---      BYTE      reg
      REG=3       REGSYM    ---      ---       dat
      R14         REGSYM    ---      BYTE      dat
      R15         REGSYM    ---      BYTE      return_state
      WR12        REGSYM    ---      WORD      timeout_count
      R15         REGSYM    ---      BYTE      return_state

      ---         MODULE    ---      ---       zf_device_imu660rb
      00010E7EH   PUBLIC    XDATA    INT       imu660rb_acc_x
      00010E80H   PUBLIC    XDATA    INT       imu660rb_acc_y
      00010E82H   PUBLIC    XDATA    INT       imu660rb_acc_z
      00010E84H   PUBLIC    XDATA    INT       imu660rb_gyro_x
      00010E86H   PUBLIC    XDATA    INT       imu660rb_gyro_y
      00010E88H   PUBLIC    XDATA    INT       imu660rb_gyro_z
      000000D0H   SFRSYM    DATA     BYTE      PSW
      0000009DH   SFRSYM    DATA     BYTE      IRCBAND
      00000097H   SFRSYM    DATA     BYTE      AUXR2
      000000EFH   SFRSYM    DATA     BYTE      AUXINTIF
      000000FDH   SFRSYM    DATA     BYTE      S4CON
      000000ACH   SFRSYM    DATA     BYTE      S3CON
      0000009AH   SFRSYM    DATA     BYTE      S2CON
      000000B7H   SFRSYM    DATA     BYTE      IPH
      000000CDH   SFRSYM    DATA     BYTE      SPSTAT
      000000DDH   SFRSYM    DATA     BYTE      T4T3M
      000000C1H   SFRSYM    DATA     BYTE      WDT_CONTR
      000000DFH   SFRSYM    DATA     BYTE      IP3
      000000F4H   SFRSYM    DATA     BYTE      USBCON
      000000B5H   SFRSYM    DATA     BYTE      IP2
      000000FFH   SFRSYM    DATA     BYTE      RSTCFG
      000000C7H   SFRSYM    DATA     BYTE      IAP_CONTR
      0000008EH   SFRSYM    DATA     BYTE      AUXR
      000000AFH   SFRSYM    DATA     BYTE      IE2
      000000C0H.3 SFRSYM    DATA     BIT       P43
      000000C0H.2 SFRSYM    DATA     BIT       P42
      00000088H   SFRSYM    DATA     BYTE      TCON
      00000089H   SFRSYM    DATA     BYTE      TMOD
      000000C0H.1 SFRSYM    DATA     BIT       P41
      00000098H   SFRSYM    DATA     BYTE      SCON
      000000C0H.0 SFRSYM    DATA     BIT       P40
      00000087H   SFRSYM    DATA     BYTE      PCON
      000000BCH   SFRSYM    DATA     BYTE      ADC_CONTR
      000000D1H   SFRSYM    DATA     BYTE      PSW1
      000000E7H   SFRSYM    DATA     BYTE      CMPCR2
      000000E6H   SFRSYM    DATA     BYTE      CMPCR1
      000000DEH   SFRSYM    DATA     BYTE      ADCCFG
      000000B8H   SFRSYM    DATA     BYTE      IP
      0000008FH   SFRSYM    DATA     BYTE      INTCLKO
      000000EEH   SFRSYM    DATA     BYTE      IP3H
      000000B6H   SFRSYM    DATA     BYTE      IP2H
      000000BFH   SFRSYM    DATA     BYTE      P_SW4
      000000A8H   SFRSYM    DATA     BYTE      IE
      000000BBH   SFRSYM    DATA     BYTE      P_SW3
      000000BAH   SFRSYM    DATA     BYTE      P_SW2
      000000A2H   SFRSYM    DATA     BYTE      P_SW1
      000000CEH   SFRSYM    DATA     BYTE      SPCTL
      000000F8H   SFRSYM    DATA     BYTE      P7
      000000E8H   SFRSYM    DATA     BYTE      P6
L251 LINKER/LOCATER V4.66.93.0                                                        09/26/2025  18:18:13  PAGE 99


      000000C8H   SFRSYM    DATA     BYTE      P5
      000000C0H   SFRSYM    DATA     BYTE      P4
      000000ABH   SFRSYM    DATA     BYTE      WKTCH
      000000B0H   SFRSYM    DATA     BYTE      P3
      000000A0H   SFRSYM    DATA     BYTE      P2
      00000090H   SFRSYM    DATA     BYTE      P1
      00000080H   SFRSYM    DATA     BYTE      P0
      R7          REGSYM    ---      BYTE      byte
      R6          REGSYM    ---      BYTE      i
      R7          REGSYM    ---      BYTE      cmd
      R15         REGSYM    ---      BYTE      val
      R10         REGSYM    ---      BYTE      cmd
      REG=3       REGSYM    ---      ---       val
      R10         REGSYM    ---      BYTE      cmd
      REG=3       REGSYM    ---      ---       val
      R11         REGSYM    ---      BYTE      reg
      R10         REGSYM    ---      BYTE      dat
      R7          REGSYM    ---      BYTE      reg
      R3          REGSYM    ---      BYTE      reg
      REG=1       REGSYM    ---      ---       dat
      DR28        REGSYM    ---      DWORD     len
      R14         REGSYM    ---      BYTE      dat
      R15         REGSYM    ---      BYTE      return_state
      WR12        REGSYM    ---      WORD      timeout_count
      WR30        REGSYM    ---      INT       acc_value
      DR24        REGSYM    ---      FLOAT     acc_data
      WR30        REGSYM    ---      INT       gyro_value
      DR24        REGSYM    ---      FLOAT     gyro_data
      R15         REGSYM    ---      BYTE      return_state

      ---         MODULE    ---      ---       zf_device_imu963ra
      00010E06H   PUBLIC    XDATA    INT       imu963ra_acc_x
      00010E08H   PUBLIC    XDATA    INT       imu963ra_acc_y
      00010E0AH   PUBLIC    XDATA    INT       imu963ra_acc_z
      00010E0CH   PUBLIC    XDATA    INT       imu963ra_mag_x
      00010E0EH   PUBLIC    XDATA    INT       imu963ra_mag_y
      00010E10H   PUBLIC    XDATA    INT       imu963ra_mag_z
      00010E12H   PUBLIC    XDATA    INT       imu963ra_gyro_x
      00010E14H   PUBLIC    XDATA    INT       imu963ra_gyro_y
      00010E16H   PUBLIC    XDATA    INT       imu963ra_gyro_z
      00010E18H   PUBLIC    XDATA    ---       imu963ra_transition_factor
      000000D0H   SFRSYM    DATA     BYTE      PSW
      0000009DH   SFRSYM    DATA     BYTE      IRCBAND
      00000097H   SFRSYM    DATA     BYTE      AUXR2
      000000EFH   SFRSYM    DATA     BYTE      AUXINTIF
      000000FDH   SFRSYM    DATA     BYTE      S4CON
      000000ACH   SFRSYM    DATA     BYTE      S3CON
      0000009AH   SFRSYM    DATA     BYTE      S2CON
      000000B7H   SFRSYM    DATA     BYTE      IPH
      000000CDH   SFRSYM    DATA     BYTE      SPSTAT
      000000DDH   SFRSYM    DATA     BYTE      T4T3M
      000000C1H   SFRSYM    DATA     BYTE      WDT_CONTR
      000000DFH   SFRSYM    DATA     BYTE      IP3
      000000F4H   SFRSYM    DATA     BYTE      USBCON
      000000B5H   SFRSYM    DATA     BYTE      IP2
      000000FFH   SFRSYM    DATA     BYTE      RSTCFG
      000000C7H   SFRSYM    DATA     BYTE      IAP_CONTR
      0000008EH   SFRSYM    DATA     BYTE      AUXR
      000000AFH   SFRSYM    DATA     BYTE      IE2
      000000C0H.3 SFRSYM    DATA     BIT       P43
      000000C0H.2 SFRSYM    DATA     BIT       P42
      00000088H   SFRSYM    DATA     BYTE      TCON
      00000089H   SFRSYM    DATA     BYTE      TMOD
      000000C0H.1 SFRSYM    DATA     BIT       P41
      00000098H   SFRSYM    DATA     BYTE      SCON
L251 LINKER/LOCATER V4.66.93.0                                                        09/26/2025  18:18:13  PAGE 100


      000000C0H.0 SFRSYM    DATA     BIT       P40
      00000087H   SFRSYM    DATA     BYTE      PCON
      000000BCH   SFRSYM    DATA     BYTE      ADC_CONTR
      000000D1H   SFRSYM    DATA     BYTE      PSW1
      000000E7H   SFRSYM    DATA     BYTE      CMPCR2
      000000E6H   SFRSYM    DATA     BYTE      CMPCR1
      000000DEH   SFRSYM    DATA     BYTE      ADCCFG
      000000B8H   SFRSYM    DATA     BYTE      IP
      0000008FH   SFRSYM    DATA     BYTE      INTCLKO
      000000EEH   SFRSYM    DATA     BYTE      IP3H
      000000B6H   SFRSYM    DATA     BYTE      IP2H
      000000BFH   SFRSYM    DATA     BYTE      P_SW4
      000000A8H   SFRSYM    DATA     BYTE      IE
      000000BBH   SFRSYM    DATA     BYTE      P_SW3
      000000BAH   SFRSYM    DATA     BYTE      P_SW2
      000000A2H   SFRSYM    DATA     BYTE      P_SW1
      000000CEH   SFRSYM    DATA     BYTE      SPCTL
      000000F8H   SFRSYM    DATA     BYTE      P7
      000000E8H   SFRSYM    DATA     BYTE      P6
      000000C8H   SFRSYM    DATA     BYTE      P5
      000000C0H   SFRSYM    DATA     BYTE      P4
      000000ABH   SFRSYM    DATA     BYTE      WKTCH
      000000B0H   SFRSYM    DATA     BYTE      P3
      000000A0H   SFRSYM    DATA     BYTE      P2
      00000090H   SFRSYM    DATA     BYTE      P1
      00000080H   SFRSYM    DATA     BYTE      P0
      R7          REGSYM    ---      BYTE      byte
      R6          REGSYM    ---      BYTE      i
      R7          REGSYM    ---      BYTE      cmd
      R15         REGSYM    ---      BYTE      val
      R10         REGSYM    ---      BYTE      cmd
      REG=3       REGSYM    ---      ---       val
      R10         REGSYM    ---      BYTE      cmd
      REG=3       REGSYM    ---      ---       val
      R11         REGSYM    ---      BYTE      reg
      R10         REGSYM    ---      BYTE      dat
      R10         REGSYM    ---      BYTE      reg
      R3          REGSYM    ---      BYTE      reg
      REG=1       REGSYM    ---      ---       dat
      DR28        REGSYM    ---      DWORD     len
      R15         REGSYM    ---      BYTE      addr
      R13         REGSYM    ---      BYTE      reg
      R14         REGSYM    ---      BYTE      dat
      R12         REGSYM    ---      BYTE      return_state
      R10         REGSYM    ---      BYTE      addr
      R15         REGSYM    ---      BYTE      reg
      WR12        REGSYM    ---      WORD      timeout_count
      R10         REGSYM    ---      BYTE      addr
      R15         REGSYM    ---      BYTE      reg
      R15         REGSYM    ---      BYTE      return_state
      R14         REGSYM    ---      BYTE      dat
      WR12        REGSYM    ---      WORD      timeout_count
      R15         REGSYM    ---      BYTE      return_state
      R14         REGSYM    ---      BYTE      dat
      WR12        REGSYM    ---      WORD      timeout_count
      R11         REGSYM    ---      BYTE      temp_status
      R15         REGSYM    ---      BYTE      return_state

      ---         MODULE    ---      ---       zf_device_gps_tau1201
      0001097DH   PUBLIC    XDATA    BYTE      gps_tau1201_flag
      000109FEH   PUBLIC    XDATA    ---       gps_tau1201
      00010B32H   PUBLIC    XDATA    INT       gps_gga_state
      00010B34H   PUBLIC    XDATA    INT       gps_rmc_state
      000000D0H   SFRSYM    DATA     BYTE      PSW
      0000009DH   SFRSYM    DATA     BYTE      IRCBAND
L251 LINKER/LOCATER V4.66.93.0                                                        09/26/2025  18:18:13  PAGE 101


      00000097H   SFRSYM    DATA     BYTE      AUXR2
      000000EFH   SFRSYM    DATA     BYTE      AUXINTIF
      000000FDH   SFRSYM    DATA     BYTE      S4CON
      000000ACH   SFRSYM    DATA     BYTE      S3CON
      0000009AH   SFRSYM    DATA     BYTE      S2CON
      000000B7H   SFRSYM    DATA     BYTE      IPH
      000000CDH   SFRSYM    DATA     BYTE      SPSTAT
      000000DDH   SFRSYM    DATA     BYTE      T4T3M
      000000C1H   SFRSYM    DATA     BYTE      WDT_CONTR
      000000DFH   SFRSYM    DATA     BYTE      IP3
      000000F4H   SFRSYM    DATA     BYTE      USBCON
      000000B5H   SFRSYM    DATA     BYTE      IP2
      000000FFH   SFRSYM    DATA     BYTE      RSTCFG
      000000C7H   SFRSYM    DATA     BYTE      IAP_CONTR
      0000008EH   SFRSYM    DATA     BYTE      AUXR
      000000AFH   SFRSYM    DATA     BYTE      IE2
      00000088H   SFRSYM    DATA     BYTE      TCON
      00000089H   SFRSYM    DATA     BYTE      TMOD
      00000098H   SFRSYM    DATA     BYTE      SCON
      00000087H   SFRSYM    DATA     BYTE      PCON
      000000BCH   SFRSYM    DATA     BYTE      ADC_CONTR
      000000D1H   SFRSYM    DATA     BYTE      PSW1
      000000E7H   SFRSYM    DATA     BYTE      CMPCR2
      000000E6H   SFRSYM    DATA     BYTE      CMPCR1
      000000DEH   SFRSYM    DATA     BYTE      ADCCFG
      000000B8H   SFRSYM    DATA     BYTE      IP
      0000008FH   SFRSYM    DATA     BYTE      INTCLKO
      000000EEH   SFRSYM    DATA     BYTE      IP3H
      000000B6H   SFRSYM    DATA     BYTE      IP2H
      000000BFH   SFRSYM    DATA     BYTE      P_SW4
      000000A8H   SFRSYM    DATA     BYTE      IE
      000000BBH   SFRSYM    DATA     BYTE      P_SW3
      000000BAH   SFRSYM    DATA     BYTE      P_SW2
      000000A2H   SFRSYM    DATA     BYTE      P_SW1
      000000CEH   SFRSYM    DATA     BYTE      SPCTL
      000000F8H   SFRSYM    DATA     BYTE      P7
      000000E8H   SFRSYM    DATA     BYTE      P6
      000000C8H   SFRSYM    DATA     BYTE      P5
      000000C0H   SFRSYM    DATA     BYTE      P4
      000000ABH   SFRSYM    DATA     BYTE      WKTCH
      000000B0H   SFRSYM    DATA     BYTE      P3
      000000A0H   SFRSYM    DATA     BYTE      P2
      00000090H   SFRSYM    DATA     BYTE      P1
      00000080H   SFRSYM    DATA     BYTE      P0
      00FFC155H   SYMBOL    HCONST   ---       ?tpl?0001
      00FFC15AH   SYMBOL    HCONST   ---       ?tpl?0002
      00FFC176H   SYMBOL    HCONST   ---       ?tpl?0003
      00FFC181H   SYMBOL    HCONST   ---       ?tpl?0004
      00FFC18CH   SYMBOL    HCONST   ---       ?tpl?0005
      00FFC197H   SYMBOL    HCONST   ---       ?tpl?0006
      00FFC1A2H   SYMBOL    HCONST   ---       ?tpl?0007
      00FFC1ADH   SYMBOL    HCONST   ---       ?tpl?0008
      00FFC1B8H   SYMBOL    HCONST   ---       ?tpl?0009
      00FFC1C3H   SYMBOL    HCONST   ---       ?tpl?000A
      00FFC1CEH   SYMBOL    HCONST   ---       ?tpl?000B
      00FFC1D9H   SYMBOL    HCONST   ---       ?tpl?000C
      00FFC1E4H   SYMBOL    HCONST   ---       ?tpl?000D
      00010966H   SYMBOL    XDATA    ---       gps_tau1201_receiver_fifo
      0001097EH   SYMBOL    XDATA    ---       gps_gga_buffer
      00010A31H   SYMBOL    XDATA    BYTE      gps_tau1201_state
      00010A32H   SYMBOL    XDATA    ---       gps_rmc_buffer
      00010AB2H   SYMBOL    XDATA    ---       gps_tau1201_receiver_buffer
      REG=3       REGSYM    ---      ---       str
      REG=7       REGSYM    ---      ---       temp
      R7          REGSYM    ---      BYTE      len
L251 LINKER/LOCATER V4.66.93.0                                                        09/26/2025  18:18:13  PAGE 102


      R10         REGSYM    ---      BYTE      len1
      REG=3       REGSYM    ---      ---       s
      REG=3       REGSYM    ---      ---       s
      REG=3       REGSYM    ---      ---       s
      REG=7       REGSYM    ---      ---       time
      R6          REGSYM    ---      BYTE      day_num
      REG=7       REGSYM    ---      ---       line
      REG=3       REGSYM    ---      ---       gps
      REG=0       REGSYM    ---      ---       line
      R15         REGSYM    ---      BYTE      state
      DR12        REGSYM    ---      DWORD     data_len

      ---         MODULE    ---      ---       zf_device_tsl1401
      00010764H   PUBLIC    XDATA    BYTE      tsl1401_finish_flag
      00010765H   PUBLIC    XDATA    ---       tsl1401_data
      000000D0H   SFRSYM    DATA     BYTE      PSW
      0000009DH   SFRSYM    DATA     BYTE      IRCBAND
      00000097H   SFRSYM    DATA     BYTE      AUXR2
      000000EFH   SFRSYM    DATA     BYTE      AUXINTIF
      000000FDH   SFRSYM    DATA     BYTE      S4CON
      000000ACH   SFRSYM    DATA     BYTE      S3CON
      0000009AH   SFRSYM    DATA     BYTE      S2CON
      000000B7H   SFRSYM    DATA     BYTE      IPH
      000000CDH   SFRSYM    DATA     BYTE      SPSTAT
      000000DDH   SFRSYM    DATA     BYTE      T4T3M
      000000C1H   SFRSYM    DATA     BYTE      WDT_CONTR
      000000DFH   SFRSYM    DATA     BYTE      IP3
      000000F4H   SFRSYM    DATA     BYTE      USBCON
      000000B5H   SFRSYM    DATA     BYTE      IP2
      000000FFH   SFRSYM    DATA     BYTE      RSTCFG
      000000C7H   SFRSYM    DATA     BYTE      IAP_CONTR
      0000008EH   SFRSYM    DATA     BYTE      AUXR
      000000AFH   SFRSYM    DATA     BYTE      IE2
      00000088H   SFRSYM    DATA     BYTE      TCON
      00000089H   SFRSYM    DATA     BYTE      TMOD
      00000098H   SFRSYM    DATA     BYTE      SCON
      00000087H   SFRSYM    DATA     BYTE      PCON
      000000BCH   SFRSYM    DATA     BYTE      ADC_CONTR
      000000D1H   SFRSYM    DATA     BYTE      PSW1
      000000E7H   SFRSYM    DATA     BYTE      CMPCR2
      000000E6H   SFRSYM    DATA     BYTE      CMPCR1
      000000DEH   SFRSYM    DATA     BYTE      ADCCFG
      000000B8H   SFRSYM    DATA     BYTE      IP
      0000008FH   SFRSYM    DATA     BYTE      INTCLKO
      000000EEH   SFRSYM    DATA     BYTE      IP3H
      000000B6H   SFRSYM    DATA     BYTE      IP2H
      000000BFH   SFRSYM    DATA     BYTE      P_SW4
      000000A8H   SFRSYM    DATA     BYTE      IE
      000000BBH   SFRSYM    DATA     BYTE      P_SW3
      000000BAH   SFRSYM    DATA     BYTE      P_SW2
      000000A2H   SFRSYM    DATA     BYTE      P_SW1
      000000CEH   SFRSYM    DATA     BYTE      SPCTL
      000000F8H   SFRSYM    DATA     BYTE      P7
      000000E8H   SFRSYM    DATA     BYTE      P6
      000000C8H   SFRSYM    DATA     BYTE      P5
      000000C0H   SFRSYM    DATA     BYTE      P4
      000000ABH   SFRSYM    DATA     BYTE      WKTCH
      000000B0H   SFRSYM    DATA     BYTE      P3
      000000A0H   SFRSYM    DATA     BYTE      P2
      00000090H   SFRSYM    DATA     BYTE      P1
      00000080H   SFRSYM    DATA     BYTE      P0
      00010965H   SYMBOL    XDATA    BYTE      tsl1401_init_state
      R15         REGSYM    ---      BYTE      i
      WR14        REGSYM    ---      INT       uart_n
      R13         REGSYM    ---      BYTE      index
L251 LINKER/LOCATER V4.66.93.0                                                        09/26/2025  18:18:13  PAGE 103


      R12         REGSYM    ---      BYTE      i

      ---         MODULE    ---      ---       seekfree_assistant
      00010B3EH   PUBLIC    XDATA    ---       seekfree_assistant_oscilloscope_data
      00010B79H   PUBLIC    XDATA    ---       seekfree_assistant_parameter_update_flag
      00010B81H   PUBLIC    XDATA    ---       seekfree_assistant_parameter
      000000D0H   SFRSYM    DATA     BYTE      PSW
      0000009DH   SFRSYM    DATA     BYTE      IRCBAND
      00000097H   SFRSYM    DATA     BYTE      AUXR2
      000000EFH   SFRSYM    DATA     BYTE      AUXINTIF
      000000FDH   SFRSYM    DATA     BYTE      S4CON
      000000ACH   SFRSYM    DATA     BYTE      S3CON
      0000009AH   SFRSYM    DATA     BYTE      S2CON
      000000B7H   SFRSYM    DATA     BYTE      IPH
      000000CDH   SFRSYM    DATA     BYTE      SPSTAT
      000000DDH   SFRSYM    DATA     BYTE      T4T3M
      000000C1H   SFRSYM    DATA     BYTE      WDT_CONTR
      000000DFH   SFRSYM    DATA     BYTE      IP3
      000000F4H   SFRSYM    DATA     BYTE      USBCON
      000000B5H   SFRSYM    DATA     BYTE      IP2
      000000FFH   SFRSYM    DATA     BYTE      RSTCFG
      000000C7H   SFRSYM    DATA     BYTE      IAP_CONTR
      0000008EH   SFRSYM    DATA     BYTE      AUXR
      000000AFH   SFRSYM    DATA     BYTE      IE2
      00000088H   SFRSYM    DATA     BYTE      TCON
      00000089H   SFRSYM    DATA     BYTE      TMOD
      00000098H   SFRSYM    DATA     BYTE      SCON
      00000087H   SFRSYM    DATA     BYTE      PCON
      000000BCH   SFRSYM    DATA     BYTE      ADC_CONTR
      000000D1H   SFRSYM    DATA     BYTE      PSW1
      000000E7H   SFRSYM    DATA     BYTE      CMPCR2
      000000E6H   SFRSYM    DATA     BYTE      CMPCR1
      000000DEH   SFRSYM    DATA     BYTE      ADCCFG
      000000B8H   SFRSYM    DATA     BYTE      IP
      0000008FH   SFRSYM    DATA     BYTE      INTCLKO
      000000EEH   SFRSYM    DATA     BYTE      IP3H
      000000B6H   SFRSYM    DATA     BYTE      IP2H
      000000BFH   SFRSYM    DATA     BYTE      P_SW4
      000000A8H   SFRSYM    DATA     BYTE      IE
      000000BBH   SFRSYM    DATA     BYTE      P_SW3
      000000BAH   SFRSYM    DATA     BYTE      P_SW2
      000000A2H   SFRSYM    DATA     BYTE      P_SW1
      000000CEH   SFRSYM    DATA     BYTE      SPCTL
      000000F8H   SFRSYM    DATA     BYTE      P7
      000000A8H.7 SFRSYM    DATA     BIT       EA
      000000E8H   SFRSYM    DATA     BYTE      P6
      000000C8H   SFRSYM    DATA     BYTE      P5
      000000C0H   SFRSYM    DATA     BYTE      P4
      000000ABH   SFRSYM    DATA     BYTE      WKTCH
      000000B0H   SFRSYM    DATA     BYTE      P3
      000000A0H   SFRSYM    DATA     BYTE      P2
      00000090H   SFRSYM    DATA     BYTE      P1
      00000080H   SFRSYM    DATA     BYTE      P0
      00010B36H   SYMBOL    XDATA    ---       seekfree_assistant_camera_dot_data
      00010B62H   SYMBOL    XDATA    ---       seekfree_assistant_fifo
      00010BA1H   SYMBOL    XDATA    ---       seekfree_assistant_camera_buffer
      00010BEBH   SYMBOL    XDATA    ---       seekfree_assistant_camera_data
      00010BF3H   SYMBOL    XDATA    ---       seekfree_assistant_buffer
      00FFC0A9H   SYMBOL    HCONST   ---       ?tpl?0001
      00FFC0CDH   SYMBOL    HCONST   ---       ?tpl?0002
      REG=6       REGSYM    ---      ---       buffer
      DR28        REGSYM    ---      DWORD     length
      R11         REGSYM    ---      BYTE      temp_sum
      WR12        REGSYM    ---      INT       camera_type
      R9          REGSYM    ---      BYTE      boundary_num
L251 LINKER/LOCATER V4.66.93.0                                                        09/26/2025  18:18:13  PAGE 104


      WR14        REGSYM    ---      WORD      width
      WR6         REGSYM    ---      INT       camera_type
      REG=0       REGSYM    ---      ---       image_addr
      WR8         REGSYM    ---      WORD      width
      REG=7       REGSYM    ---      ---       seekfree_assistant_oscilloscope
      R15         REGSYM    ---      BYTE      packet_size
      R14         REGSYM    ---      BYTE      i
      REG=3       REGSYM    ---      ---       buffer
      WR8         REGSYM    ---      INT       boundary_type
      WR2         REGSYM    ---      WORD      dot_num
      REG=7       REGSYM    ---      ---       dot_x1
      R6          REGSYM    ---      BYTE      i
      R7          REGSYM    ---      BYTE      boundary_num
      R5          REGSYM    ---      BYTE      boundary_data_type
      R15         REGSYM    ---      BYTE      temp_sum
      WR12        REGSYM    ---      WORD      struct_len

      ---         MODULE    ---      ---       seekfree_assistant_interface
      00010EDDH   PUBLIC    XDATA    ---       seekfree_assistant_receive_callback
      00010EDFH   PUBLIC    XDATA    ---       seekfree_assistant_transfer_callback
      000000D0H   SFRSYM    DATA     BYTE      PSW
      0000009DH   SFRSYM    DATA     BYTE      IRCBAND
      00000097H   SFRSYM    DATA     BYTE      AUXR2
      000000EFH   SFRSYM    DATA     BYTE      AUXINTIF
      000000FDH   SFRSYM    DATA     BYTE      S4CON
      000000ACH   SFRSYM    DATA     BYTE      S3CON
      0000009AH   SFRSYM    DATA     BYTE      S2CON
      000000B7H   SFRSYM    DATA     BYTE      IPH
      000000CDH   SFRSYM    DATA     BYTE      SPSTAT
      000000DDH   SFRSYM    DATA     BYTE      T4T3M
      000000C1H   SFRSYM    DATA     BYTE      WDT_CONTR
      000000DFH   SFRSYM    DATA     BYTE      IP3
      000000F4H   SFRSYM    DATA     BYTE      USBCON
      000000B5H   SFRSYM    DATA     BYTE      IP2
      000000FFH   SFRSYM    DATA     BYTE      RSTCFG
      000000C7H   SFRSYM    DATA     BYTE      IAP_CONTR
      0000008EH   SFRSYM    DATA     BYTE      AUXR
      000000AFH   SFRSYM    DATA     BYTE      IE2
      00000088H   SFRSYM    DATA     BYTE      TCON
      00000089H   SFRSYM    DATA     BYTE      TMOD
      00000098H   SFRSYM    DATA     BYTE      SCON
      00000087H   SFRSYM    DATA     BYTE      PCON
      000000BCH   SFRSYM    DATA     BYTE      ADC_CONTR
      000000D1H   SFRSYM    DATA     BYTE      PSW1
      000000E7H   SFRSYM    DATA     BYTE      CMPCR2
      000000E6H   SFRSYM    DATA     BYTE      CMPCR1
      000000DEH   SFRSYM    DATA     BYTE      ADCCFG
      000000B8H   SFRSYM    DATA     BYTE      IP
      0000008FH   SFRSYM    DATA     BYTE      INTCLKO
      000000EEH   SFRSYM    DATA     BYTE      IP3H
      000000B6H   SFRSYM    DATA     BYTE      IP2H
      000000BFH   SFRSYM    DATA     BYTE      P_SW4
      000000A8H   SFRSYM    DATA     BYTE      IE
      000000BBH   SFRSYM    DATA     BYTE      P_SW3
      000000BAH   SFRSYM    DATA     BYTE      P_SW2
      000000A2H   SFRSYM    DATA     BYTE      P_SW1
      000000CEH   SFRSYM    DATA     BYTE      SPCTL
      000000F8H   SFRSYM    DATA     BYTE      P7
      000000E8H   SFRSYM    DATA     BYTE      P6
      000000C8H   SFRSYM    DATA     BYTE      P5
      000000C0H   SFRSYM    DATA     BYTE      P4
      000000ABH   SFRSYM    DATA     BYTE      WKTCH
      000000B0H   SFRSYM    DATA     BYTE      P3
      000000A0H   SFRSYM    DATA     BYTE      P2
      00000090H   SFRSYM    DATA     BYTE      P1
L251 LINKER/LOCATER V4.66.93.0                                                        09/26/2025  18:18:13  PAGE 105


      00000080H   SFRSYM    DATA     BYTE      P0
      WR6         REGSYM    ---      INT       transfer_device

      ---         MODULE    ---      ---       isr
      00FFA4DBH   PUBLIC    CODE     ---       TM11_IRQHandler
      00FF9662H   PUBLIC    CODE     ---       DMA_UART1_IRQHandler
      00FF9953H   PUBLIC    CODE     ---       DMA_UART2_IRQHandler
      00FF99DCH   PUBLIC    CODE     ---       DMA_UART3_IRQHandler
      00FF9A65H   PUBLIC    CODE     ---       DMA_UART4_IRQHandler
      00FFA687H   PUBLIC    CODE     ---       TM0_IRQHandler
      00FFA6C5H   PUBLIC    CODE     ---       TM1_IRQHandler
      00FFA703H   PUBLIC    CODE     ---       TM2_IRQHandler
      00FFA741H   PUBLIC    CODE     ---       TM3_IRQHandler
      00FFA77FH   PUBLIC    CODE     ---       TM4_IRQHandler
      000000D0H   SFRSYM    DATA     BYTE      PSW
      0000009DH   SFRSYM    DATA     BYTE      IRCBAND
      00000097H   SFRSYM    DATA     BYTE      AUXR2
      000000EFH   SFRSYM    DATA     BYTE      AUXINTIF
      000000FDH   SFRSYM    DATA     BYTE      S4CON
      000000ACH   SFRSYM    DATA     BYTE      S3CON
      0000009AH   SFRSYM    DATA     BYTE      S2CON
      000000B7H   SFRSYM    DATA     BYTE      IPH
      000000CDH   SFRSYM    DATA     BYTE      SPSTAT
      000000DDH   SFRSYM    DATA     BYTE      T4T3M
      000000C1H   SFRSYM    DATA     BYTE      WDT_CONTR
      000000DFH   SFRSYM    DATA     BYTE      IP3
      000000F4H   SFRSYM    DATA     BYTE      USBCON
      000000B5H   SFRSYM    DATA     BYTE      IP2
      000000FFH   SFRSYM    DATA     BYTE      RSTCFG
      000000C7H   SFRSYM    DATA     BYTE      IAP_CONTR
      0000008EH   SFRSYM    DATA     BYTE      AUXR
      000000AFH   SFRSYM    DATA     BYTE      IE2
      00000088H   SFRSYM    DATA     BYTE      TCON
      00000089H   SFRSYM    DATA     BYTE      TMOD
      00000098H   SFRSYM    DATA     BYTE      SCON
      00000087H   SFRSYM    DATA     BYTE      PCON
      000000BCH   SFRSYM    DATA     BYTE      ADC_CONTR
      000000D1H   SFRSYM    DATA     BYTE      PSW1
      000000E7H   SFRSYM    DATA     BYTE      CMPCR2
      000000E6H   SFRSYM    DATA     BYTE      CMPCR1
      000000DEH   SFRSYM    DATA     BYTE      ADCCFG
      000000B8H   SFRSYM    DATA     BYTE      IP
      0000008FH   SFRSYM    DATA     BYTE      INTCLKO
      000000EEH   SFRSYM    DATA     BYTE      IP3H
      000000B6H   SFRSYM    DATA     BYTE      IP2H
      000000BFH   SFRSYM    DATA     BYTE      P_SW4
      000000A8H   SFRSYM    DATA     BYTE      IE
      000000BBH   SFRSYM    DATA     BYTE      P_SW3
      000000BAH   SFRSYM    DATA     BYTE      P_SW2
      000000A2H   SFRSYM    DATA     BYTE      P_SW1
      000000CEH   SFRSYM    DATA     BYTE      SPCTL
      000000F8H   SFRSYM    DATA     BYTE      P7
      000000E8H   SFRSYM    DATA     BYTE      P6
      000000C8H   SFRSYM    DATA     BYTE      P5
      000000C0H   SFRSYM    DATA     BYTE      P4
      000000ABH   SFRSYM    DATA     BYTE      WKTCH
      000000B0H   SFRSYM    DATA     BYTE      P3
      000000A0H   SFRSYM    DATA     BYTE      P2
      00000090H   SFRSYM    DATA     BYTE      P1
      00000080H   SFRSYM    DATA     BYTE      P0

      00FF9662H   BLOCK     CODE     ---       LVL=0
      00FF9676H   BLOCK     CODE     NEAR LAB  LVL=1
      00010EE9H   SYMBOL    XDATA    BYTE      dwon_count
      ---         BLOCKEND  ---      ---       LVL=1
L251 LINKER/LOCATER V4.66.93.0                                                        09/26/2025  18:18:13  PAGE 106


      00FF9662H   LINE      CODE     ---       #40
      00FF9676H   LINE      CODE     ---       #41
      00FF9676H   LINE      CODE     ---       #43
      00FF9684H   LINE      CODE     ---       #45
      00FF9694H   LINE      CODE     ---       #46
      00FF9699H   LINE      CODE     ---       #49
      00FF96A0H   LINE      CODE     ---       #51
      00FF96AFH   LINE      CODE     ---       #53
      00FF96B2H   LINE      CODE     ---       #54
      00FF96B4H   LINE      CODE     ---       #58
      00FF96B9H   LINE      CODE     ---       #59
      00FF96B9H   LINE      CODE     ---       #61
      00FF96C3H   LINE      CODE     ---       #63
      00FF96CFH   LINE      CODE     ---       #64
      00FF96CFH   LINE      CODE     ---       #67
      00FF96DDH   LINE      CODE     ---       #69
      00FF96EDH   LINE      CODE     ---       #70
      00FF96F2H   LINE      CODE     ---       #74
      ---         BLOCKEND  ---      ---       LVL=0

      00FF9953H   BLOCK     CODE     ---       LVL=0
      00FF9953H   LINE      CODE     ---       #79
      00FF9967H   LINE      CODE     ---       #82
      00FF9975H   LINE      CODE     ---       #84
      00FF9985H   LINE      CODE     ---       #85
      00FF998CH   LINE      CODE     ---       #87
      00FF9996H   LINE      CODE     ---       #89
      00FF99A2H   LINE      CODE     ---       #90
      00FF99A2H   LINE      CODE     ---       #93
      00FF99B0H   LINE      CODE     ---       #95
      00FF99C0H   LINE      CODE     ---       #96
      00FF99C7H   LINE      CODE     ---       #101
      ---         BLOCKEND  ---      ---       LVL=0

      00FF99DCH   BLOCK     CODE     ---       LVL=0
      00FF99DCH   LINE      CODE     ---       #104
      00FF99F0H   LINE      CODE     ---       #107
      00FF99FEH   LINE      CODE     ---       #109
      00FF9A0EH   LINE      CODE     ---       #110
      00FF9A15H   LINE      CODE     ---       #112
      00FF9A1FH   LINE      CODE     ---       #115
      00FF9A2BH   LINE      CODE     ---       #117
      00FF9A2BH   LINE      CODE     ---       #120
      00FF9A39H   LINE      CODE     ---       #122
      00FF9A49H   LINE      CODE     ---       #123
      00FF9A50H   LINE      CODE     ---       #128
      ---         BLOCKEND  ---      ---       LVL=0

      00FF9A65H   BLOCK     CODE     ---       LVL=0
      00FF9A65H   LINE      CODE     ---       #131
      00FF9A79H   LINE      CODE     ---       #134
      00FF9A87H   LINE      CODE     ---       #136
      00FF9A97H   LINE      CODE     ---       #137
      00FF9A9EH   LINE      CODE     ---       #139
      00FF9AA8H   LINE      CODE     ---       #141
      00FF9AB4H   LINE      CODE     ---       #143
      00FF9AB4H   LINE      CODE     ---       #146
      00FF9AC2H   LINE      CODE     ---       #148
      00FF9AD2H   LINE      CODE     ---       #149
      00FF9AD9H   LINE      CODE     ---       #154
      ---         BLOCKEND  ---      ---       LVL=0

      00FFA687H   BLOCK     CODE     ---       LVL=0
      00FFA687H   LINE      CODE     ---       #158
      00FFA69BH   LINE      CODE     ---       #160
L251 LINKER/LOCATER V4.66.93.0                                                        09/26/2025  18:18:13  PAGE 107


      00FFA69EH   LINE      CODE     ---       #162
      00FFA6A8H   LINE      CODE     ---       #164
      00FFA6B0H   LINE      CODE     ---       #165
      ---         BLOCKEND  ---      ---       LVL=0

      00FFA6C5H   BLOCK     CODE     ---       LVL=0
      00FFA6C5H   LINE      CODE     ---       #167
      00FFA6D9H   LINE      CODE     ---       #169
      00FFA6DCH   LINE      CODE     ---       #171
      00FFA6E6H   LINE      CODE     ---       #173
      00FFA6EEH   LINE      CODE     ---       #174
      ---         BLOCKEND  ---      ---       LVL=0

      00FFA703H   BLOCK     CODE     ---       LVL=0
      00FFA703H   LINE      CODE     ---       #176
      00FFA717H   LINE      CODE     ---       #178
      00FFA71AH   LINE      CODE     ---       #180
      00FFA724H   LINE      CODE     ---       #182
      00FFA72CH   LINE      CODE     ---       #183
      ---         BLOCKEND  ---      ---       LVL=0

      00FFA741H   BLOCK     CODE     ---       LVL=0
      00FFA741H   LINE      CODE     ---       #185
      00FFA755H   LINE      CODE     ---       #187
      00FFA758H   LINE      CODE     ---       #189
      00FFA762H   LINE      CODE     ---       #191
      00FFA76AH   LINE      CODE     ---       #192
      ---         BLOCKEND  ---      ---       LVL=0

      00FFA77FH   BLOCK     CODE     ---       LVL=0
      00FFA77FH   LINE      CODE     ---       #195
      00FFA793H   LINE      CODE     ---       #197
      00FFA796H   LINE      CODE     ---       #199
      00FFA7A0H   LINE      CODE     ---       #201
      00FFA7A8H   LINE      CODE     ---       #202
      ---         BLOCKEND  ---      ---       LVL=0

      00FFA4DBH   BLOCK     CODE     ---       LVL=0
      00FFA4DBH   LINE      CODE     ---       #205
      00FFA4EFH   LINE      CODE     ---       #207
      00FFA4FFH   LINE      CODE     ---       #209
      00FFA509H   LINE      CODE     ---       #211
      00FFA511H   LINE      CODE     ---       #212
      ---         BLOCKEND  ---      ---       LVL=0

      ---         MODULE    ---      ---       main
      00FF0066H   PUBLIC    CODE     ---       main
      00FF01BEH   PUBLIC    CODE     ---       pit_handler0
      00FFA28CH   PUBLIC    CODE     ---       pit_handler1
      00FF90AEH   PUBLIC    CODE     ---       _m
      00010EC8H   PUBLIC    XDATA    INT       T3
      00010ECAH   PUBLIC    XDATA    INT       T4
      00010ECCH   PUBLIC    XDATA    BYTE      pit_Flag
      00010ECDH   PUBLIC    XDATA    INT       T
      000000D0H   SFRSYM    DATA     BYTE      PSW
      0000009DH   SFRSYM    DATA     BYTE      IRCBAND
      00000097H   SFRSYM    DATA     BYTE      AUXR2
      000000EFH   SFRSYM    DATA     BYTE      AUXINTIF
      000000FDH   SFRSYM    DATA     BYTE      S4CON
      000000ACH   SFRSYM    DATA     BYTE      S3CON
      0000009AH   SFRSYM    DATA     BYTE      S2CON
      000000B7H   SFRSYM    DATA     BYTE      IPH
      000000CDH   SFRSYM    DATA     BYTE      SPSTAT
      000000DDH   SFRSYM    DATA     BYTE      T4T3M
      000000C1H   SFRSYM    DATA     BYTE      WDT_CONTR
L251 LINKER/LOCATER V4.66.93.0                                                        09/26/2025  18:18:13  PAGE 108


      000000DFH   SFRSYM    DATA     BYTE      IP3
      000000F4H   SFRSYM    DATA     BYTE      USBCON
      000000B5H   SFRSYM    DATA     BYTE      IP2
      000000FFH   SFRSYM    DATA     BYTE      RSTCFG
      000000C7H   SFRSYM    DATA     BYTE      IAP_CONTR
      0000008EH   SFRSYM    DATA     BYTE      AUXR
      000000AFH   SFRSYM    DATA     BYTE      IE2
      00000088H   SFRSYM    DATA     BYTE      TCON
      00000089H   SFRSYM    DATA     BYTE      TMOD
      00000098H   SFRSYM    DATA     BYTE      SCON
      00000087H   SFRSYM    DATA     BYTE      PCON
      000000BCH   SFRSYM    DATA     BYTE      ADC_CONTR
      000000D1H   SFRSYM    DATA     BYTE      PSW1
      000000E7H   SFRSYM    DATA     BYTE      CMPCR2
      000000E6H   SFRSYM    DATA     BYTE      CMPCR1
      000000DEH   SFRSYM    DATA     BYTE      ADCCFG
      000000B8H   SFRSYM    DATA     BYTE      IP
      0000008FH   SFRSYM    DATA     BYTE      INTCLKO
      000000EEH   SFRSYM    DATA     BYTE      IP3H
      000000B6H   SFRSYM    DATA     BYTE      IP2H
      000000BFH   SFRSYM    DATA     BYTE      P_SW4
      000000A8H   SFRSYM    DATA     BYTE      IE
      000000BBH   SFRSYM    DATA     BYTE      P_SW3
      000000BAH   SFRSYM    DATA     BYTE      P_SW2
      000000A2H   SFRSYM    DATA     BYTE      P_SW1
      000000CEH   SFRSYM    DATA     BYTE      SPCTL
      000000F8H   SFRSYM    DATA     BYTE      P7
      000000A8H.7 SFRSYM    DATA     BIT       EA
      000000E8H   SFRSYM    DATA     BYTE      P6
      000000C8H   SFRSYM    DATA     BYTE      P5
      000000C0H   SFRSYM    DATA     BYTE      P4
      000000ABH   SFRSYM    DATA     BYTE      WKTCH
      000000B0H   SFRSYM    DATA     BYTE      P3
      000000A0H   SFRSYM    DATA     BYTE      P2
      00000090H   SFRSYM    DATA     BYTE      P1
      00000080H   SFRSYM    DATA     BYTE      P0

      00FF0066H   BLOCK     CODE     ---       LVL=0
      00FF0066H   LINE      CODE     ---       #8
      ---         BLOCKEND  ---      ---       LVL=0

      00FF90AEH   BLOCK     CODE     ---       LVL=0
      00FF90AEH   LINE      CODE     ---       #8
      00FF90AEH   LINE      CODE     ---       #10
      00FF90B9H   LINE      CODE     ---       #11
      00FF90BCH   LINE      CODE     ---       #13
      00FF90C6H   LINE      CODE     ---       #14
      00FF90D0H   LINE      CODE     ---       #15
      00FF90D3H   LINE      CODE     ---       #17
      00FF90D3H   LINE      CODE     ---       #19
      00FF90DAH   LINE      CODE     ---       #21
      00FF9105H   LINE      CODE     ---       #23
      00FF9108H   LINE      CODE     ---       #24
      00FF910EH   LINE      CODE     ---       #25
      00FF910EH   LINE      CODE     ---       #26
      00FF9113H   LINE      CODE     ---       #27
      00FF9113H   LINE      CODE     ---       #28
      00FF912DH   LINE      CODE     ---       #30
      00FF912DH   LINE      CODE     ---       #32
      00FF912FH   LINE      CODE     ---       #33
      00FF9135H   LINE      CODE     ---       #35
      00FF913CH   LINE      CODE     ---       #36
      00FF9141H   LINE      CODE     ---       #37
      00FF9141H   LINE      CODE     ---       #38
      00FF9143H   LINE      CODE     ---       #39
L251 LINKER/LOCATER V4.66.93.0                                                        09/26/2025  18:18:13  PAGE 109


      00FF9145H   LINE      CODE     ---       #40
      00FF9145H   LINE      CODE     ---       #42
      00FF9148H   LINE      CODE     ---       #43
      00FF914BH   LINE      CODE     ---       #45
      00FF914DH   LINE      CODE     ---       #46
      00FF9152H   LINE      CODE     ---       #47
      00FF9158H   LINE      CODE     ---       #48
      00FF9158H   LINE      CODE     ---       #50
      00FF915BH   LINE      CODE     ---       #51
      00FF915EH   LINE      CODE     ---       #53
      00FF9161H   LINE      CODE     ---       #54
      00FF9161H   LINE      CODE     ---       #56
      00FF9164H   LINE      CODE     ---       #57
      00FF9167H   LINE      CODE     ---       #59
      00FF916AH   LINE      CODE     ---       #60
      00FF916AH   LINE      CODE     ---       #62
      00FF916DH   LINE      CODE     ---       #63
      00FF9170H   LINE      CODE     ---       #65
      ---         BLOCKEND  ---      ---       LVL=0

      00FF01BEH   BLOCK     CODE     ---       LVL=0
      00FF01BEH   LINE      CODE     ---       #70
      00FF01BEH   LINE      CODE     ---       #72
      00FF01C4H   LINE      CODE     ---       #73
      ---         BLOCKEND  ---      ---       LVL=0

      00FFA28CH   BLOCK     CODE     ---       LVL=0
      00FFA28CH   LINE      CODE     ---       #75
      00FFA28CH   LINE      CODE     ---       #77
      00FFA297H   LINE      CODE     ---       #78
      00FFA2A2H   LINE      CODE     ---       #79
      00FFA2AFH   LINE      CODE     ---       #81
      00FFA2B2H   LINE      CODE     ---       #82
      00FFA2B2H   LINE      CODE     ---       #83
      00FFA2BEH   LINE      CODE     ---       #85
      00FFA2C6H   LINE      CODE     ---       #86
      00FFA2C9H   LINE      CODE     ---       #87
      00FFA2C9H   LINE      CODE     ---       #88
      00FFA2D5H   LINE      CODE     ---       #90
      00FFA2DDH   LINE      CODE     ---       #91
      00FFA2E8H   LINE      CODE     ---       #92
      ---         BLOCKEND  ---      ---       LVL=0

      ---         MODULE    ---      ---       ADC_Get
      00FF88C2H   PUBLIC    CODE     ---       ADC_SampleAndFilter
      00FF95BCH   PUBLIC    CODE     ---       adc_filter
      00FFA944H   PUBLIC    CODE     ---       ADC_GetInit
      00010D7AH   PUBLIC    XDATA    ---       raw_adc_data
      00010DA2H   PUBLIC    XDATA    ---       ADC_Num
      00010DB0H   PUBLIC    XDATA    ---       filtered_adc
      00000020H.2 PUBLIC    BIT      BIT       Battery_Init
      000000D0H   SFRSYM    DATA     BYTE      PSW
      0000009DH   SFRSYM    DATA     BYTE      IRCBAND
      00000097H   SFRSYM    DATA     BYTE      AUXR2
      000000EFH   SFRSYM    DATA     BYTE      AUXINTIF
      000000FDH   SFRSYM    DATA     BYTE      S4CON
      000000ACH   SFRSYM    DATA     BYTE      S3CON
      0000009AH   SFRSYM    DATA     BYTE      S2CON
      000000B7H   SFRSYM    DATA     BYTE      IPH
      000000CDH   SFRSYM    DATA     BYTE      SPSTAT
      000000DDH   SFRSYM    DATA     BYTE      T4T3M
      000000C1H   SFRSYM    DATA     BYTE      WDT_CONTR
      000000DFH   SFRSYM    DATA     BYTE      IP3
      000000F4H   SFRSYM    DATA     BYTE      USBCON
      000000B5H   SFRSYM    DATA     BYTE      IP2
L251 LINKER/LOCATER V4.66.93.0                                                        09/26/2025  18:18:13  PAGE 110


      000000FFH   SFRSYM    DATA     BYTE      RSTCFG
      000000C7H   SFRSYM    DATA     BYTE      IAP_CONTR
      0000008EH   SFRSYM    DATA     BYTE      AUXR
      000000AFH   SFRSYM    DATA     BYTE      IE2
      00000088H   SFRSYM    DATA     BYTE      TCON
      00000089H   SFRSYM    DATA     BYTE      TMOD
      00000098H   SFRSYM    DATA     BYTE      SCON
      00000087H   SFRSYM    DATA     BYTE      PCON
      000000BCH   SFRSYM    DATA     BYTE      ADC_CONTR
      000000D1H   SFRSYM    DATA     BYTE      PSW1
      000000E7H   SFRSYM    DATA     BYTE      CMPCR2
      000000E6H   SFRSYM    DATA     BYTE      CMPCR1
      000000DEH   SFRSYM    DATA     BYTE      ADCCFG
      000000B8H   SFRSYM    DATA     BYTE      IP
      0000008FH   SFRSYM    DATA     BYTE      INTCLKO
      000000EEH   SFRSYM    DATA     BYTE      IP3H
      000000B6H   SFRSYM    DATA     BYTE      IP2H
      000000BFH   SFRSYM    DATA     BYTE      P_SW4
      000000A8H   SFRSYM    DATA     BYTE      IE
      000000BBH   SFRSYM    DATA     BYTE      P_SW3
      000000BAH   SFRSYM    DATA     BYTE      P_SW2
      000000A2H   SFRSYM    DATA     BYTE      P_SW1
      000000CEH   SFRSYM    DATA     BYTE      SPCTL
      000000F8H   SFRSYM    DATA     BYTE      P7
      000000E8H   SFRSYM    DATA     BYTE      P6
      000000C8H   SFRSYM    DATA     BYTE      P5
      000000C0H   SFRSYM    DATA     BYTE      P4
      000000ABH   SFRSYM    DATA     BYTE      WKTCH
      000000B0H   SFRSYM    DATA     BYTE      P3
      000000A0H   SFRSYM    DATA     BYTE      P2
      00000090H   SFRSYM    DATA     BYTE      P1
      00000080H   SFRSYM    DATA     BYTE      P0

      00FFA944H   BLOCK     CODE     ---       LVL=0
      00FFA944H   LINE      CODE     ---       #7
      00FFA944H   LINE      CODE     ---       #9
      00FFA94FH   LINE      CODE     ---       #10
      00FFA95AH   LINE      CODE     ---       #11
      00FFA965H   LINE      CODE     ---       #12
      00FFA970H   LINE      CODE     ---       #17
      ---         BLOCKEND  ---      ---       LVL=0

      00FF95BCH   BLOCK     CODE     ---       LVL=0
      REG=7       REGSYM    ---      ---       samples
      R15         REGSYM    ---      BYTE      count
      00FF95C2H   BLOCK     CODE     NEAR LAB  LVL=1
      R14         REGSYM    ---      BYTE      i
      DR20        REGSYM    ---      DWORD     sum
      WR24        REGSYM    ---      WORD      max
      WR26        REGSYM    ---      WORD      min
      ---         BLOCKEND  ---      ---       LVL=1
      00FF95BCH   LINE      CODE     ---       #20
      00FF95C2H   LINE      CODE     ---       #21
      00FF95C2H   LINE      CODE     ---       #23
      00FF95C4H   LINE      CODE     ---       #24
      00FF95C7H   LINE      CODE     ---       #25
      00FF95CAH   LINE      CODE     ---       #27
      00FF95CFH   LINE      CODE     ---       #29
      00FF95D3H   LINE      CODE     ---       #31
      00FF95E2H   LINE      CODE     ---       #32
      00FF95E8H   LINE      CODE     ---       #33
      00FF95F3H   LINE      CODE     ---       #34
      00FF95F3H   LINE      CODE     ---       #35
      00FF95F7H   LINE      CODE     ---       #37
      00FF9615H   LINE      CODE     ---       #38
L251 LINKER/LOCATER V4.66.93.0                                                        09/26/2025  18:18:13  PAGE 111


      00FF9633H   LINE      CODE     ---       #39
      00FF9642H   LINE      CODE     ---       #40
      00FF9648H   LINE      CODE     ---       #41
      00FF965FH   LINE      CODE     ---       #42
      ---         BLOCKEND  ---      ---       LVL=0

      00FF88C2H   BLOCK     CODE     ---       LVL=0
      00FF88C4H   BLOCK     CODE     NEAR LAB  LVL=1
      R14         REGSYM    ---      BYTE      sample_index
      R15         REGSYM    ---      BYTE      channel_index
      ---         BLOCKEND  ---      ---       LVL=1
      00FF88C2H   LINE      CODE     ---       #45
      00FF88C4H   LINE      CODE     ---       #46
      00FF88C4H   LINE      CODE     ---       #47
      00FF88C6H   LINE      CODE     ---       #48
      00FF88C8H   LINE      CODE     ---       #51
      00FF88CCH   LINE      CODE     ---       #53
      00FF88E7H   LINE      CODE     ---       #54
      00FF8902H   LINE      CODE     ---       #55
      00FF891DH   LINE      CODE     ---       #56
      00FF8938H   LINE      CODE     ---       #57
      00FF893FH   LINE      CODE     ---       #60
      00FF8943H   LINE      CODE     ---       #62
      00FF8969H   LINE      CODE     ---       #63
      00FF8970H   LINE      CODE     ---       #65
      00FF8984H   LINE      CODE     ---       #66
      00FF8998H   LINE      CODE     ---       #67
      00FF89ACH   LINE      CODE     ---       #68
      00FF89C0H   LINE      CODE     ---       #69
      ---         BLOCKEND  ---      ---       LVL=0
      WR14        REGSYM    ---      WORD      battery_adc
      WR2         REGSYM    ---      WORD      ref_adc
      WR6         REGSYM    ---      WORD      battery_v
      R13         REGSYM    ---      BYTE      i

      ---         MODULE    ---      ---       control
      00FF89C3H   PUBLIC    CODE     ---       PID_Update
      00FFAB19H   PUBLIC    CODE     ---       Ser_Servo_Duty
      00FF8AB3H   PUBLIC    CODE     ---       Motor_Update
      00FF9F58H   PUBLIC    CODE     ---       Servo_turn_pid
      00FFA7BDH   PUBLIC    CODE     ---       MotorL_SetSpeed
      00FFA7FAH   PUBLIC    CODE     ---       MotorR_SetSpeed
      00010EEAH   PUBLIC    XDATA    BYTE      CAR_Mode
      000000D0H   SFRSYM    DATA     BYTE      PSW
      0000009DH   SFRSYM    DATA     BYTE      IRCBAND
      00000097H   SFRSYM    DATA     BYTE      AUXR2
      000000EFH   SFRSYM    DATA     BYTE      AUXINTIF
      000000FDH   SFRSYM    DATA     BYTE      S4CON
      000000ACH   SFRSYM    DATA     BYTE      S3CON
      0000009AH   SFRSYM    DATA     BYTE      S2CON
      000000B7H   SFRSYM    DATA     BYTE      IPH
      000000CDH   SFRSYM    DATA     BYTE      SPSTAT
      000000DDH   SFRSYM    DATA     BYTE      T4T3M
      000000C1H   SFRSYM    DATA     BYTE      WDT_CONTR
      000000DFH   SFRSYM    DATA     BYTE      IP3
      000000F4H   SFRSYM    DATA     BYTE      USBCON
      000000B5H   SFRSYM    DATA     BYTE      IP2
      000000FFH   SFRSYM    DATA     BYTE      RSTCFG
      000000C7H   SFRSYM    DATA     BYTE      IAP_CONTR
      0000008EH   SFRSYM    DATA     BYTE      AUXR
      000000AFH   SFRSYM    DATA     BYTE      IE2
      00000088H   SFRSYM    DATA     BYTE      TCON
      00000089H   SFRSYM    DATA     BYTE      TMOD
      00000098H   SFRSYM    DATA     BYTE      SCON
      00000087H   SFRSYM    DATA     BYTE      PCON
L251 LINKER/LOCATER V4.66.93.0                                                        09/26/2025  18:18:13  PAGE 112


      000000BCH   SFRSYM    DATA     BYTE      ADC_CONTR
      000000D1H   SFRSYM    DATA     BYTE      PSW1
      000000E7H   SFRSYM    DATA     BYTE      CMPCR2
      000000E6H   SFRSYM    DATA     BYTE      CMPCR1
      000000DEH   SFRSYM    DATA     BYTE      ADCCFG
      000000B8H   SFRSYM    DATA     BYTE      IP
      0000008FH   SFRSYM    DATA     BYTE      INTCLKO
      000000EEH   SFRSYM    DATA     BYTE      IP3H
      000000B6H   SFRSYM    DATA     BYTE      IP2H
      000000BFH   SFRSYM    DATA     BYTE      P_SW4
      000000A8H   SFRSYM    DATA     BYTE      IE
      000000BBH   SFRSYM    DATA     BYTE      P_SW3
      000000BAH   SFRSYM    DATA     BYTE      P_SW2
      000000A2H   SFRSYM    DATA     BYTE      P_SW1
      000000CEH   SFRSYM    DATA     BYTE      SPCTL
      000000F8H   SFRSYM    DATA     BYTE      P7
      000000E8H   SFRSYM    DATA     BYTE      P6
      000000C8H   SFRSYM    DATA     BYTE      P5
      000000C0H   SFRSYM    DATA     BYTE      P4
      000000ABH   SFRSYM    DATA     BYTE      WKTCH
      000000B0H   SFRSYM    DATA     BYTE      P3
      000000A0H   SFRSYM    DATA     BYTE      P2
      00000090H   SFRSYM    DATA     BYTE      P1
      00000080H   SFRSYM    DATA     BYTE      P0

      00FFAB19H   BLOCK     CODE     ---       LVL=0
      WR4         REGSYM    ---      INT       value
      00FFAB19H   LINE      CODE     ---       #4
      00FFAB1BH   LINE      CODE     ---       #6
      00FFAB28H   LINE      CODE     ---       #7
      ---         BLOCKEND  ---      ---       LVL=0

      00FF9F58H   BLOCK     CODE     ---       LVL=0
      DR28        REGSYM    ---      FLOAT     Current
      00FF9F5AH   BLOCK     CODE     NEAR LAB  LVL=1
      DR28        REGSYM    ---      FLOAT     servo_value
      DR0         REGSYM    ---      FLOAT     temp
      ---         BLOCKEND  ---      ---       LVL=1
      00FF9F58H   LINE      CODE     ---       #16
      00FF9F5AH   LINE      CODE     ---       #17
      00FF9F5AH   LINE      CODE     ---       #20
      00FF9F82H   LINE      CODE     ---       #21
      00FF9FAEH   LINE      CODE     ---       #22
      00FF9FC7H   LINE      CODE     ---       #23
      ---         BLOCKEND  ---      ---       LVL=0

      00FFA7BDH   BLOCK     CODE     ---       LVL=0
      WR14        REGSYM    ---      INT       pwm
      00FFA7BDH   LINE      CODE     ---       #30
      00FFA7C1H   LINE      CODE     ---       #32
      00FFA7C7H   LINE      CODE     ---       #34
      00FFA7D4H   LINE      CODE     ---       #35
      00FFA7DDH   LINE      CODE     ---       #36
      00FFA7DFH   LINE      CODE     ---       #39
      00FFA7EEH   LINE      CODE     ---       #40
      00FFA7F7H   LINE      CODE     ---       #41
      00FFA7F7H   LINE      CODE     ---       #42
      ---         BLOCKEND  ---      ---       LVL=0

      00FFA7FAH   BLOCK     CODE     ---       LVL=0
      WR14        REGSYM    ---      INT       pwm
      00FFA7FAH   LINE      CODE     ---       #49
      00FFA7FEH   LINE      CODE     ---       #51
      00FFA804H   LINE      CODE     ---       #53
      00FFA811H   LINE      CODE     ---       #54
L251 LINKER/LOCATER V4.66.93.0                                                        09/26/2025  18:18:13  PAGE 113


      00FFA81AH   LINE      CODE     ---       #55
      00FFA81CH   LINE      CODE     ---       #58
      00FFA82BH   LINE      CODE     ---       #59
      00FFA834H   LINE      CODE     ---       #60
      00FFA834H   LINE      CODE     ---       #61
      ---         BLOCKEND  ---      ---       LVL=0

      00FF8AB3H   BLOCK     CODE     ---       LVL=0
      00FF8AB3H   LINE      CODE     ---       #69
      00FF8AB3H   LINE      CODE     ---       #71
      00FF8ACBH   LINE      CODE     ---       #73
      00FF8ACBH   LINE      CODE     ---       #75
      00FF8AE4H   LINE      CODE     ---       #76
      00FF8AFDH   LINE      CODE     ---       #77
      00FF8B00H   LINE      CODE     ---       #78
      00FF8B00H   LINE      CODE     ---       #80
      00FF8B19H   LINE      CODE     ---       #81
      00FF8B32H   LINE      CODE     ---       #82
      00FF8B34H   LINE      CODE     ---       #83
      00FF8B34H   LINE      CODE     ---       #85
      00FF8B4DH   LINE      CODE     ---       #86
      00FF8B66H   LINE      CODE     ---       #87
      00FF8B68H   LINE      CODE     ---       #88
      00FF8B68H   LINE      CODE     ---       #90
      00FF8B81H   LINE      CODE     ---       #91
      00FF8B9AH   LINE      CODE     ---       #92
      00FF8B9AH   LINE      CODE     ---       #93
      00FF8B9AH   LINE      CODE     ---       #95
      ---         BLOCKEND  ---      ---       LVL=0

      00FF89C3H   BLOCK     CODE     ---       LVL=0
      00FF89C3H   LINE      CODE     ---       #96
      00FF89C3H   LINE      CODE     ---       #98
      00FF89DBH   LINE      CODE     ---       #100
      00FF89DBH   LINE      CODE     ---       #102
      00FF89EFH   LINE      CODE     ---       #103
      00FF89FBH   LINE      CODE     ---       #104
      00FF8A0FH   LINE      CODE     ---       #105
      00FF8A12H   LINE      CODE     ---       #106
      00FF8A12H   LINE      CODE     ---       #108
      00FF8A26H   LINE      CODE     ---       #109
      00FF8A32H   LINE      CODE     ---       #110
      00FF8A46H   LINE      CODE     ---       #111
      00FF8A48H   LINE      CODE     ---       #112
      00FF8A48H   LINE      CODE     ---       #114
      00FF8A5CH   LINE      CODE     ---       #115
      00FF8A68H   LINE      CODE     ---       #116
      00FF8A7CH   LINE      CODE     ---       #117
      00FF8A7EH   LINE      CODE     ---       #118
      00FF8A7EH   LINE      CODE     ---       #120
      00FF8A92H   LINE      CODE     ---       #121
      00FF8A9EH   LINE      CODE     ---       #122
      00FF8AB2H   LINE      CODE     ---       #123
      00FF8AB2H   LINE      CODE     ---       #124
      00FF8AB2H   LINE      CODE     ---       #126
      ---         BLOCKEND  ---      ---       LVL=0

      ---         MODULE    ---      ---       eeprom
      00FFA397H   PUBLIC    CODE     ---       eeprom_read_Num
      00FF9AEEH   PUBLIC    CODE     ---       eeprom_save_Num
      000000D0H   SFRSYM    DATA     BYTE      PSW
      0000009DH   SFRSYM    DATA     BYTE      IRCBAND
      00000097H   SFRSYM    DATA     BYTE      AUXR2
      000000EFH   SFRSYM    DATA     BYTE      AUXINTIF
      000000FDH   SFRSYM    DATA     BYTE      S4CON
L251 LINKER/LOCATER V4.66.93.0                                                        09/26/2025  18:18:13  PAGE 114


      000000ACH   SFRSYM    DATA     BYTE      S3CON
      0000009AH   SFRSYM    DATA     BYTE      S2CON
      000000B7H   SFRSYM    DATA     BYTE      IPH
      000000CDH   SFRSYM    DATA     BYTE      SPSTAT
      000000DDH   SFRSYM    DATA     BYTE      T4T3M
      000000C1H   SFRSYM    DATA     BYTE      WDT_CONTR
      000000DFH   SFRSYM    DATA     BYTE      IP3
      000000F4H   SFRSYM    DATA     BYTE      USBCON
      000000B5H   SFRSYM    DATA     BYTE      IP2
      000000FFH   SFRSYM    DATA     BYTE      RSTCFG
      000000C7H   SFRSYM    DATA     BYTE      IAP_CONTR
      0000008EH   SFRSYM    DATA     BYTE      AUXR
      000000AFH   SFRSYM    DATA     BYTE      IE2
      00000088H   SFRSYM    DATA     BYTE      TCON
      00000089H   SFRSYM    DATA     BYTE      TMOD
      00000098H   SFRSYM    DATA     BYTE      SCON
      00000087H   SFRSYM    DATA     BYTE      PCON
      000000BCH   SFRSYM    DATA     BYTE      ADC_CONTR
      000000D1H   SFRSYM    DATA     BYTE      PSW1
      000000E7H   SFRSYM    DATA     BYTE      CMPCR2
      000000E6H   SFRSYM    DATA     BYTE      CMPCR1
      000000DEH   SFRSYM    DATA     BYTE      ADCCFG
      000000B8H   SFRSYM    DATA     BYTE      IP
      0000008FH   SFRSYM    DATA     BYTE      INTCLKO
      000000EEH   SFRSYM    DATA     BYTE      IP3H
      000000B6H   SFRSYM    DATA     BYTE      IP2H
      000000BFH   SFRSYM    DATA     BYTE      P_SW4
      000000A8H   SFRSYM    DATA     BYTE      IE
      000000BBH   SFRSYM    DATA     BYTE      P_SW3
      000000BAH   SFRSYM    DATA     BYTE      P_SW2
      000000A2H   SFRSYM    DATA     BYTE      P_SW1
      000000CEH   SFRSYM    DATA     BYTE      SPCTL
      000000F8H   SFRSYM    DATA     BYTE      P7
      000000A8H.7 SFRSYM    DATA     BIT       EA
      000000E8H   SFRSYM    DATA     BYTE      P6
      000000C8H   SFRSYM    DATA     BYTE      P5
      000000C0H   SFRSYM    DATA     BYTE      P4
      000000ABH   SFRSYM    DATA     BYTE      WKTCH
      000000B0H   SFRSYM    DATA     BYTE      P3
      000000A0H   SFRSYM    DATA     BYTE      P2
      00000090H   SFRSYM    DATA     BYTE      P1
      00000080H   SFRSYM    DATA     BYTE      P0
      00FFB522H   SYMBOL    HCONST   ---       ?tpl?0001
      00FFB722H   SYMBOL    HCONST   ---       ?tpl?0002
      00FFB922H   SYMBOL    HCONST   ---       ?tpl?0003

      00FF9AEEH   BLOCK     CODE     ---       LVL=0
      00FF9AF0H   BLOCK     CODE     NEAR LAB  LVL=1
      0001055EH   SYMBOL    XDATA    ---       temp
      DR12        REGSYM    ---      DWORD     sector_start
      00000020H.0 SYMBOL    BIT      BIT       flag
      DR4         REGSYM    ---      DWORD     array_size
      ---         BLOCKEND  ---      ---       LVL=1
      00FF9AEEH   LINE      CODE     ---       #8
      00FF9AF0H   LINE      CODE     ---       #9
      00FF9AF0H   LINE      CODE     ---       #10
      00FF9B07H   LINE      CODE     ---       #11
      00FF9B0BH   LINE      CODE     ---       #15
      00FF9B0FH   LINE      CODE     ---       #16
      00FF9B15H   LINE      CODE     ---       #17
      00FF9B15H   LINE      CODE     ---       #18
      00FF9B15H   LINE      CODE     ---       #21
      00FF9B19H   LINE      CODE     ---       #22
      00FF9B1BH   LINE      CODE     ---       #25
      00FF9B32H   LINE      CODE     ---       #28
L251 LINKER/LOCATER V4.66.93.0                                                        09/26/2025  18:18:13  PAGE 115


      00FF9B4DH   LINE      CODE     ---       #31
      00FF9B52H   LINE      CODE     ---       #32
      00FF9B59H   LINE      CODE     ---       #35
      00FF9B70H   LINE      CODE     ---       #38
      00FF9B74H   LINE      CODE     ---       #39
      ---         BLOCKEND  ---      ---       LVL=0

      00FFA397H   BLOCK     CODE     ---       LVL=0
      0001055EH   SYMBOL    XDATA    ---       temp
      DR4         REGSYM    ---      DWORD     sector_start
      00000020H.0 SYMBOL    BIT      BIT       flag
      00FFA397H   LINE      CODE     ---       #46
      00FFA397H   LINE      CODE     ---       #47
      00FFA397H   LINE      CODE     ---       #48
      00FFA3AEH   LINE      CODE     ---       #49
      00FFA3B2H   LINE      CODE     ---       #53
      00FFA3B6H   LINE      CODE     ---       #54
      00FFA3B8H   LINE      CODE     ---       #57
      00FFA3CDH   LINE      CODE     ---       #60
      00FFA3E8H   LINE      CODE     ---       #63
      00FFA3ECH   LINE      CODE     ---       #64
      ---         BLOCKEND  ---      ---       LVL=0
      DR28        REGSYM    ---      DWORD     addr
      REG=3       REGSYM    ---      ---       float_ptr
      R10         REGSYM    ---      BYTE      i
      DR0         REGSYM    ---      DWORD     addr
      REG=2       REGSYM    ---      ---       float_ptr

      ---         MODULE    ---      ---       function
      00FFAAF7H   PUBLIC    CODE     ---       CAR_STOP
      00FF0026H   PUBLIC    CODE     ---       Servo_Init
      00FF9DFDH   PUBLIC    CODE     ---       Motor_Init
      00FF4E35H   PUBLIC    CODE     ---       Show_pararm
      00FF9C81H   PUBLIC    CODE     ---       unification
      00FF7D0AH   PUBLIC    CODE     ---       Turn_mode_Init
      00FF92F0H   PUBLIC    CODE     ---       Normal_PID
      00FFA033H   PUBLIC    CODE     ---       init_all
      00FF9460H   PUBLIC    CODE     ---       fast_sqrt
      00FFA9C8H   PUBLIC    CODE     ---       SET_Time
      00FF9EE6H   PUBLIC    CODE     ---       Protect
      00010DB8H   PUBLIC    XDATA    ---       servo_pid
      00010DE4H   PUBLIC    XDATA    INT       Set_T
      00010DE6H   PUBLIC    XDATA    INT       PRO_Set_Time
      00010556H   PUBLIC    XDATA    BYTE      ?Normal_PID?BYTE
      000000D0H   SFRSYM    DATA     BYTE      PSW
      0000009DH   SFRSYM    DATA     BYTE      IRCBAND
      00000097H   SFRSYM    DATA     BYTE      AUXR2
      000000EFH   SFRSYM    DATA     BYTE      AUXINTIF
      000000FDH   SFRSYM    DATA     BYTE      S4CON
      000000ACH   SFRSYM    DATA     BYTE      S3CON
      0000009AH   SFRSYM    DATA     BYTE      S2CON
      000000B7H   SFRSYM    DATA     BYTE      IPH
      000000CDH   SFRSYM    DATA     BYTE      SPSTAT
      000000DDH   SFRSYM    DATA     BYTE      T4T3M
      000000C1H   SFRSYM    DATA     BYTE      WDT_CONTR
      000000DFH   SFRSYM    DATA     BYTE      IP3
      000000F4H   SFRSYM    DATA     BYTE      USBCON
      000000B5H   SFRSYM    DATA     BYTE      IP2
      000000FFH   SFRSYM    DATA     BYTE      RSTCFG
      000000C7H   SFRSYM    DATA     BYTE      IAP_CONTR
      0000008EH   SFRSYM    DATA     BYTE      AUXR
      000000AFH   SFRSYM    DATA     BYTE      IE2
      00000088H   SFRSYM    DATA     BYTE      TCON
      00000089H   SFRSYM    DATA     BYTE      TMOD
      00000098H   SFRSYM    DATA     BYTE      SCON
L251 LINKER/LOCATER V4.66.93.0                                                        09/26/2025  18:18:13  PAGE 116


      00000087H   SFRSYM    DATA     BYTE      PCON
      000000BCH   SFRSYM    DATA     BYTE      ADC_CONTR
      000000D1H   SFRSYM    DATA     BYTE      PSW1
      000000E7H   SFRSYM    DATA     BYTE      CMPCR2
      000000E6H   SFRSYM    DATA     BYTE      CMPCR1
      000000DEH   SFRSYM    DATA     BYTE      ADCCFG
      000000B8H   SFRSYM    DATA     BYTE      IP
      0000008FH   SFRSYM    DATA     BYTE      INTCLKO
      000000EEH   SFRSYM    DATA     BYTE      IP3H
      000000B6H   SFRSYM    DATA     BYTE      IP2H
      000000BFH   SFRSYM    DATA     BYTE      P_SW4
      000000A8H   SFRSYM    DATA     BYTE      IE
      000000BBH   SFRSYM    DATA     BYTE      P_SW3
      000000BAH   SFRSYM    DATA     BYTE      P_SW2
      000000A2H   SFRSYM    DATA     BYTE      P_SW1
      000000CEH   SFRSYM    DATA     BYTE      SPCTL
      000000F8H   SFRSYM    DATA     BYTE      P7
      000000E8H   SFRSYM    DATA     BYTE      P6
      000000C8H   SFRSYM    DATA     BYTE      P5
      000000C0H   SFRSYM    DATA     BYTE      P4
      000000ABH   SFRSYM    DATA     BYTE      WKTCH
      000000B0H   SFRSYM    DATA     BYTE      P3
      000000A0H   SFRSYM    DATA     BYTE      P2
      00000090H   SFRSYM    DATA     BYTE      P1
      00000080H   SFRSYM    DATA     BYTE      P0

      00FF92F0H   BLOCK     CODE     ---       LVL=0
      REG=6       REGSYM    ---      ---       PID
      DR28        REGSYM    ---      FLOAT     NowData
      0001055EH   SYMBOL    XDATA    FLOAT     Point
      00FF92F0H   LINE      CODE     ---       #11
      00FF92F4H   LINE      CODE     ---       #14
      00FF9304H   LINE      CODE     ---       #15
      00FF931BH   LINE      CODE     ---       #16
      00FF9336H   LINE      CODE     ---       #17
      00FF9355H   LINE      CODE     ---       #18
      00FF9365H   LINE      CODE     ---       #19
      00FF93ABH   LINE      CODE     ---       #20
      ---         BLOCKEND  ---      ---       LVL=0

      00FF9C81H   BLOCK     CODE     ---       LVL=0
      00FF9C83H   BLOCK     CODE     NEAR LAB  LVL=1
      DR4         REGSYM    ---      FLOAT     error_val
      0001055EH   SYMBOL    XDATA    FLOAT     left_1
      00010562H   SYMBOL    XDATA    FLOAT     left_2
      00010566H   SYMBOL    XDATA    FLOAT     right_2
      DR4         REGSYM    ---      FLOAT     right_1
      ---         BLOCKEND  ---      ---       LVL=1
      00FF9C81H   LINE      CODE     ---       #26
      00FF9C83H   LINE      CODE     ---       #27
      00FF9C83H   LINE      CODE     ---       #34
      00FF9C97H   LINE      CODE     ---       #35
      00FF9CABH   LINE      CODE     ---       #36
      00FF9CBFH   LINE      CODE     ---       #37
      00FF9CC9H   LINE      CODE     ---       #39
      00FF9D00H   LINE      CODE     ---       #41
      00FF9D00H   LINE      CODE     ---       #42
      ---         BLOCKEND  ---      ---       LVL=0

      00FF9460H   BLOCK     CODE     ---       LVL=0
      DR12        REGSYM    ---      FLOAT     number
      00FF9464H   BLOCK     CODE     NEAR LAB  LVL=1
      0001056AH   SYMBOL    XDATA    DWORD     i
      0001056EH   SYMBOL    XDATA    FLOAT     x
      ---         BLOCKEND  ---      ---       LVL=1
L251 LINKER/LOCATER V4.66.93.0                                                        09/26/2025  18:18:13  PAGE 117


      00FF9460H   LINE      CODE     ---       #44
      00FF9464H   LINE      CODE     ---       #45
      00FF9464H   LINE      CODE     ---       #47
      00FF946EH   LINE      CODE     ---       #49
      00FF947CH   LINE      CODE     ---       #51
      00FF9497H   LINE      CODE     ---       #53
      00FF94BCH   LINE      CODE     ---       #55
      00FF94D7H   LINE      CODE     ---       #57
      00FF9506H   LINE      CODE     ---       #58
      00FF9510H   LINE      CODE     ---       #59
      ---         BLOCKEND  ---      ---       LVL=0

      00FF9DFDH   BLOCK     CODE     ---       LVL=0
      00FF9DFDH   LINE      CODE     ---       #61
      00FF9DFDH   LINE      CODE     ---       #63
      00FF9E16H   LINE      CODE     ---       #64
      00FF9E2DH   LINE      CODE     ---       #65
      00FF9E44H   LINE      CODE     ---       #66
      00FF9E5BH   LINE      CODE     ---       #67
      00FF9E72H   LINE      CODE     ---       #68
      ---         BLOCKEND  ---      ---       LVL=0

      00FF0026H   BLOCK     CODE     ---       LVL=0
      00FF0026H   LINE      CODE     ---       #71
      00FF0026H   LINE      CODE     ---       #73
      00FF0029H   LINE      CODE     ---       #74
      00FF0042H   LINE      CODE     ---       #75
      ---         BLOCKEND  ---      ---       LVL=0

      00FFAAF7H   BLOCK     CODE     ---       LVL=0
      00FFAAF7H   LINE      CODE     ---       #76
      00FFAAF7H   LINE      CODE     ---       #78
      00FFAAFCH   LINE      CODE     ---       #79
      00FFAB01H   LINE      CODE     ---       #80
      00FFAB08H   LINE      CODE     ---       #81
      ---         BLOCKEND  ---      ---       LVL=0

      00FF9EE6H   BLOCK     CODE     ---       LVL=0
      00FF9EE6H   LINE      CODE     ---       #84
      00FF9EE6H   LINE      CODE     ---       #86
      00FF9F26H   LINE      CODE     ---       #88
      00FF9F31H   LINE      CODE     ---       #89
      00FF9F3DH   LINE      CODE     ---       #91
      00FF9F45H   LINE      CODE     ---       #92
      00FF9F4AH   LINE      CODE     ---       #93
      00FF9F4DH   LINE      CODE     ---       #94
      00FF9F4FH   LINE      CODE     ---       #98
      00FF9F57H   LINE      CODE     ---       #99
      00FF9F57H   LINE      CODE     ---       #100
      ---         BLOCKEND  ---      ---       LVL=0

      00FFA033H   BLOCK     CODE     ---       LVL=0
      00FFA033H   LINE      CODE     ---       #102
      00FFA033H   LINE      CODE     ---       #104
      00FFA036H   LINE      CODE     ---       #105
      00FFA039H   LINE      CODE     ---       #106
      00FFA03CH   LINE      CODE     ---       #107
      00FFA03FH   LINE      CODE     ---       #108
      00FFA042H   LINE      CODE     ---       #109
      00FFA04DH   LINE      CODE     ---       #110
      00FFA050H   LINE      CODE     ---       #111
      00FFA053H   LINE      CODE     ---       #112
      00FFA076H   LINE      CODE     ---       #113
      00FFA09BH   LINE      CODE     ---       #114
      ---         BLOCKEND  ---      ---       LVL=0
L251 LINKER/LOCATER V4.66.93.0                                                        09/26/2025  18:18:13  PAGE 118



      00FF7D0AH   BLOCK     CODE     ---       LVL=0
      00FF7D0AH   LINE      CODE     ---       #117
      00FF7D0AH   LINE      CODE     ---       #119
      00FF7D0DH   LINE      CODE     ---       #120
      00FF7D15H   LINE      CODE     ---       #121
      00FF7D41H   LINE      CODE     ---       #123
      00FF7D41H   LINE      CODE     ---       #125
      00FF7D44H   LINE      CODE     ---       #126
      00FF7D4BH   LINE      CODE     ---       #127
      00FF7D5CH   LINE      CODE     ---       #128
      00FF7D63H   LINE      CODE     ---       #129
      00FF7D6AH   LINE      CODE     ---       #130
      00FF7D6DH   LINE      CODE     ---       #131
      00FF7D70H   LINE      CODE     ---       #132
      00FF7D73H   LINE      CODE     ---       #133
      00FF7D73H   LINE      CODE     ---       #135
      00FF7D7AH   LINE      CODE     ---       #136
      00FF7D8BH   LINE      CODE     ---       #137
      00FF7D92H   LINE      CODE     ---       #138
      00FF7D99H   LINE      CODE     ---       #140
      00FF7D9CH   LINE      CODE     ---       #141
      00FF7D9FH   LINE      CODE     ---       #143
      00FF7DA2H   LINE      CODE     ---       #144
      00FF7DA2H   LINE      CODE     ---       #146
      00FF7DA9H   LINE      CODE     ---       #147
      00FF7DBAH   LINE      CODE     ---       #148
      00FF7DC1H   LINE      CODE     ---       #149
      00FF7DC8H   LINE      CODE     ---       #151
      00FF7DCBH   LINE      CODE     ---       #152
      00FF7DCEH   LINE      CODE     ---       #154
      00FF7DD1H   LINE      CODE     ---       #155
      00FF7DD1H   LINE      CODE     ---       #157
      00FF7DD8H   LINE      CODE     ---       #158
      00FF7DE9H   LINE      CODE     ---       #159
      00FF7DF0H   LINE      CODE     ---       #160
      00FF7DF7H   LINE      CODE     ---       #162
      00FF7DFAH   LINE      CODE     ---       #163
      00FF7DFDH   LINE      CODE     ---       #165
      00FF7E00H   LINE      CODE     ---       #166
      00FF7E00H   LINE      CODE     ---       #168
      00FF7E07H   LINE      CODE     ---       #169
      00FF7E18H   LINE      CODE     ---       #170
      00FF7E1FH   LINE      CODE     ---       #171
      00FF7E26H   LINE      CODE     ---       #173
      00FF7E29H   LINE      CODE     ---       #174
      00FF7E2CH   LINE      CODE     ---       #176
      00FF7E2EH   LINE      CODE     ---       #177
      00FF7E2EH   LINE      CODE     ---       #179
      00FF7E35H   LINE      CODE     ---       #180
      00FF7E46H   LINE      CODE     ---       #181
      00FF7E4DH   LINE      CODE     ---       #182
      00FF7E4FH   LINE      CODE     ---       #183
      00FF7E4FH   LINE      CODE     ---       #185
      00FF7E56H   LINE      CODE     ---       #186
      00FF7E67H   LINE      CODE     ---       #187
      00FF7E6EH   LINE      CODE     ---       #188
      00FF7E70H   LINE      CODE     ---       #189
      00FF7E70H   LINE      CODE     ---       #191
      00FF7E77H   LINE      CODE     ---       #192
      00FF7E88H   LINE      CODE     ---       #193
      00FF7E8FH   LINE      CODE     ---       #194
      00FF7E96H   LINE      CODE     ---       #195
      00FF7E96H   LINE      CODE     ---       #196
      00FF7E96H   LINE      CODE     ---       #198
L251 LINKER/LOCATER V4.66.93.0                                                        09/26/2025  18:18:13  PAGE 119


      ---         BLOCKEND  ---      ---       LVL=0

      00FF4E35H   BLOCK     CODE     ---       LVL=0
      00FF4E35H   LINE      CODE     ---       #200
      00FF4E35H   LINE      CODE     ---       #202
      00FF4E5FH   LINE      CODE     ---       #204
      00FF4E5FH   LINE      CODE     ---       #205
      00FF4E5FH   LINE      CODE     ---       #207
      00FF4E9FH   LINE      CODE     ---       #208
      00FF4EDFH   LINE      CODE     ---       #209
      00FF4EE2H   LINE      CODE     ---       #210
      00FF4EE2H   LINE      CODE     ---       #212
      00FF4F78H   LINE      CODE     ---       #213
      00FF4FB8H   LINE      CODE     ---       #214
      00FF4FF8H   LINE      CODE     ---       #215
      00FF5038H   LINE      CODE     ---       #216
      00FF5075H   LINE      CODE     ---       #217
      00FF5078H   LINE      CODE     ---       #218
      00FF5078H   LINE      CODE     ---       #219
      00FF5078H   LINE      CODE     ---       #221
      00FF50B8H   LINE      CODE     ---       #222
      00FF50F8H   LINE      CODE     ---       #223
      00FF5138H   LINE      CODE     ---       #224
      00FF5175H   LINE      CODE     ---       #225
      00FF5178H   LINE      CODE     ---       #226
      00FF5178H   LINE      CODE     ---       #228
      00FF51B8H   LINE      CODE     ---       #229
      00FF51F8H   LINE      CODE     ---       #230
      00FF5238H   LINE      CODE     ---       #231
      00FF5275H   LINE      CODE     ---       #232
      00FF5278H   LINE      CODE     ---       #233
      00FF5278H   LINE      CODE     ---       #235
      00FF52B8H   LINE      CODE     ---       #236
      00FF52F8H   LINE      CODE     ---       #237
      00FF5338H   LINE      CODE     ---       #238
      00FF5375H   LINE      CODE     ---       #239
      00FF5378H   LINE      CODE     ---       #240
      00FF5378H   LINE      CODE     ---       #242
      00FF53A7H   LINE      CODE     ---       #243
      00FF53DAH   LINE      CODE     ---       #244
      00FF540DH   LINE      CODE     ---       #245
      00FF5440H   LINE      CODE     ---       #246
      00FF5473H   LINE      CODE     ---       #247
      00FF54A6H   LINE      CODE     ---       #248
      00FF54D9H   LINE      CODE     ---       #249
      00FF54D9H   LINE      CODE     ---       #250
      00FF54D9H   LINE      CODE     ---       #252
      ---         BLOCKEND  ---      ---       LVL=0

      00FFA9C8H   BLOCK     CODE     ---       LVL=0
      00FFA9C8H   LINE      CODE     ---       #253
      00FFA9C8H   LINE      CODE     ---       #255
      00FFA9E8H   LINE      CODE     ---       #257
      00FFA9EDH   LINE      CODE     ---       #258
      00FFA9F0H   LINE      CODE     ---       #259
      ---         BLOCKEND  ---      ---       LVL=0

      ---         MODULE    ---      ---       Key
      00FF87AEH   PUBLIC    CODE     ---       Key_scaner
      00FF7E97H   PUBLIC    CODE     ---       Turn_mode
      00FFA870H   PUBLIC    CODE     ---       Key_Number
      00010E94H   PUBLIC    XDATA    BYTE      State
      00010E95H   PUBLIC    XDATA    INT       Trigg_time
      00010E97H   PUBLIC    XDATA    INT       Press_time
      00010E99H   PUBLIC    XDATA    BYTE      Key_count
L251 LINKER/LOCATER V4.66.93.0                                                        09/26/2025  18:18:13  PAGE 120


      00010E9AH   PUBLIC    XDATA    WORD      Time_dou
      00010E9CH   PUBLIC    XDATA    BYTE      keynumber
      00010E9DH   PUBLIC    XDATA    BYTE      last_keynumber
      000000D0H   SFRSYM    DATA     BYTE      PSW
      0000009DH   SFRSYM    DATA     BYTE      IRCBAND
      00000097H   SFRSYM    DATA     BYTE      AUXR2
      000000EFH   SFRSYM    DATA     BYTE      AUXINTIF
      000000FDH   SFRSYM    DATA     BYTE      S4CON
      000000ACH   SFRSYM    DATA     BYTE      S3CON
      0000009AH   SFRSYM    DATA     BYTE      S2CON
      000000B7H   SFRSYM    DATA     BYTE      IPH
      000000CDH   SFRSYM    DATA     BYTE      SPSTAT
      000000DDH   SFRSYM    DATA     BYTE      T4T3M
      000000C1H   SFRSYM    DATA     BYTE      WDT_CONTR
      000000DFH   SFRSYM    DATA     BYTE      IP3
      000000F4H   SFRSYM    DATA     BYTE      USBCON
      000000B5H   SFRSYM    DATA     BYTE      IP2
      000000FFH   SFRSYM    DATA     BYTE      RSTCFG
      000000C7H   SFRSYM    DATA     BYTE      IAP_CONTR
      0000008EH   SFRSYM    DATA     BYTE      AUXR
      000000AFH   SFRSYM    DATA     BYTE      IE2
      00000088H   SFRSYM    DATA     BYTE      TCON
      00000089H   SFRSYM    DATA     BYTE      TMOD
      00000098H   SFRSYM    DATA     BYTE      SCON
      00000087H   SFRSYM    DATA     BYTE      PCON
      000000BCH   SFRSYM    DATA     BYTE      ADC_CONTR
      000000D1H   SFRSYM    DATA     BYTE      PSW1
      000000E7H   SFRSYM    DATA     BYTE      CMPCR2
      000000E6H   SFRSYM    DATA     BYTE      CMPCR1
      000000DEH   SFRSYM    DATA     BYTE      ADCCFG
      000000B8H   SFRSYM    DATA     BYTE      IP
      0000008FH   SFRSYM    DATA     BYTE      INTCLKO
      000000EEH   SFRSYM    DATA     BYTE      IP3H
      000000B6H   SFRSYM    DATA     BYTE      IP2H
      000000BFH   SFRSYM    DATA     BYTE      P_SW4
      000000A8H   SFRSYM    DATA     BYTE      IE
      000000BBH   SFRSYM    DATA     BYTE      P_SW3
      000000BAH   SFRSYM    DATA     BYTE      P_SW2
      000000A2H   SFRSYM    DATA     BYTE      P_SW1
      000000CEH   SFRSYM    DATA     BYTE      SPCTL
      000000F8H   SFRSYM    DATA     BYTE      P7
      000000E8H   SFRSYM    DATA     BYTE      P6
      000000C8H   SFRSYM    DATA     BYTE      P5
      000000C0H   SFRSYM    DATA     BYTE      P4
      000000ABH   SFRSYM    DATA     BYTE      WKTCH
      000000B0H   SFRSYM    DATA     BYTE      P3
      000000A0H   SFRSYM    DATA     BYTE      P2
      00000090H   SFRSYM    DATA     BYTE      P1
      00000080H   SFRSYM    DATA     BYTE      P0

      00FFA870H   BLOCK     CODE     ---       LVL=0
      00FFA872H   BLOCK     CODE     NEAR LAB  LVL=1
      R15         REGSYM    ---      BYTE      KeyNumber
      ---         BLOCKEND  ---      ---       LVL=1
      00FFA870H   LINE      CODE     ---       #13
      00FFA872H   LINE      CODE     ---       #14
      00FFA872H   LINE      CODE     ---       #15
      00FFA874H   LINE      CODE     ---       #22
      00FFA880H   LINE      CODE     ---       #23
      00FFA88CH   LINE      CODE     ---       #24
      00FFA898H   LINE      CODE     ---       #25
      00FFA8A4H   LINE      CODE     ---       #26
      00FFA8A6H   LINE      CODE     ---       #27
      ---         BLOCKEND  ---      ---       LVL=0

L251 LINKER/LOCATER V4.66.93.0                                                        09/26/2025  18:18:13  PAGE 121


      00FF7E97H   BLOCK     CODE     ---       LVL=0
      00FF7E97H   LINE      CODE     ---       #28
      00FF7E97H   LINE      CODE     ---       #30
      00FF7EADH   LINE      CODE     ---       #32
      00FF7EC6H   LINE      CODE     ---       #34
      00FF7ED9H   LINE      CODE     ---       #35
      00FF7EECH   LINE      CODE     ---       #36
      00FF7EFFH   LINE      CODE     ---       #37
      00FF7F12H   LINE      CODE     ---       #38
      00FF7F25H   LINE      CODE     ---       #39
      00FF7F25H   LINE      CODE     ---       #40
      00FF7F25H   LINE      CODE     ---       #41
      00FF7F25H   LINE      CODE     ---       #42
      00FF7F3BH   LINE      CODE     ---       #44
      00FF7F46H   LINE      CODE     ---       #46
      00FF7F59H   LINE      CODE     ---       #47
      00FF7F59H   LINE      CODE     ---       #48
      00FF7F59H   LINE      CODE     ---       #49
      00FF7F59H   LINE      CODE     ---       #50
      00FF7F6FH   LINE      CODE     ---       #52
      00FF7F7FH   LINE      CODE     ---       #53
      00FF7F82H   LINE      CODE     ---       #54
      00FF7F98H   LINE      CODE     ---       #56
      00FF7FA8H   LINE      CODE     ---       #57
      00FF7FAAH   LINE      CODE     ---       #58
      00FF7FC0H   LINE      CODE     ---       #60
      00FF7FD0H   LINE      CODE     ---       #61
      00FF7FD2H   LINE      CODE     ---       #62
      00FF7FE8H   LINE      CODE     ---       #64
      00FF7FF8H   LINE      CODE     ---       #65
      00FF7FFAH   LINE      CODE     ---       #66
      00FF8010H   LINE      CODE     ---       #68
      00FF8020H   LINE      CODE     ---       #69
      00FF8020H   LINE      CODE     ---       #70
      00FF8023H   LINE      CODE     ---       #71
      ---         BLOCKEND  ---      ---       LVL=0

      00FF87AEH   BLOCK     CODE     ---       LVL=0
      00FF87AEH   LINE      CODE     ---       #72
      00FF87AEH   LINE      CODE     ---       #74
      00FF87B5H   LINE      CODE     ---       #75
      00FF87CCH   LINE      CODE     ---       #77
      00FF87CCH   LINE      CODE     ---       #79
      00FF87D5H   LINE      CODE     ---       #81
      00FF87DBH   LINE      CODE     ---       #82
      00FF87E0H   LINE      CODE     ---       #83
      00FF87E0H   LINE      CODE     ---       #84
      00FF87E3H   LINE      CODE     ---       #86
      00FF87E3H   LINE      CODE     ---       #88
      00FF87E9H   LINE      CODE     ---       #90
      00FF87EEH   LINE      CODE     ---       #91
      00FF87F1H   LINE      CODE     ---       #94
      00FF87F7H   LINE      CODE     ---       #95
      00FF880AH   LINE      CODE     ---       #97
      00FF8810H   LINE      CODE     ---       #98
      00FF8818H   LINE      CODE     ---       #100
      00FF8818H   LINE      CODE     ---       #102
      00FF881BH   LINE      CODE     ---       #104
      00FF881BH   LINE      CODE     ---       #106
      00FF8821H   LINE      CODE     ---       #109
      00FF8827H   LINE      CODE     ---       #110
      00FF882CH   LINE      CODE     ---       #111
      00FF8834H   LINE      CODE     ---       #112
      00FF8837H   LINE      CODE     ---       #115
      00FF8842H   LINE      CODE     ---       #116
L251 LINKER/LOCATER V4.66.93.0                                                        09/26/2025  18:18:13  PAGE 122


      00FF884EH   LINE      CODE     ---       #118
      00FF8859H   LINE      CODE     ---       #119
      00FF8860H   LINE      CODE     ---       #121
      00FF8863H   LINE      CODE     ---       #122
      00FF886BH   LINE      CODE     ---       #123
      00FF8870H   LINE      CODE     ---       #124
      00FF8872H   LINE      CODE     ---       #125
      00FF887EH   LINE      CODE     ---       #127
      00FF8886H   LINE      CODE     ---       #128
      00FF888EH   LINE      CODE     ---       #130
      00FF888EH   LINE      CODE     ---       #132
      00FF888EH   LINE      CODE     ---       #133
      00FF8890H   LINE      CODE     ---       #135
      00FF8890H   LINE      CODE     ---       #137
      00FF8896H   LINE      CODE     ---       #139
      00FF889CH   LINE      CODE     ---       #140
      00FF88ACH   LINE      CODE     ---       #142
      00FF88B1H   LINE      CODE     ---       #143
      00FF88B9H   LINE      CODE     ---       #144
      00FF88BBH   LINE      CODE     ---       #148
      00FF88C1H   LINE      CODE     ---       #149
      00FF88C1H   LINE      CODE     ---       #150
      00FF88C1H   LINE      CODE     ---       #152
      00FF88C1H   LINE      CODE     ---       #153
      ---         BLOCKEND  ---      ---       LVL=0

      ---         MODULE    ---      ---       menu
      00FFA971H   PUBLIC    CODE     ---       menu_Init
      00FFAA40H   PUBLIC    CODE     ---       menu_handle_key
      00FF8E3BH   PUBLIC    CODE     ---       handle_key1
      00FF79D8H   PUBLIC    CODE     ---       handle_key2
      00FF00A6H   PUBLIC    CODE     ---       handle_key3
      00FF8FE7H   PUBLIC    CODE     ---       handle_key4
      00FF8F17H   PUBLIC    CODE     ---       Menu_SetChildren
      00FF01AEH   PUBLIC    CODE     ---       Key3_handle1
      00FF9173H   PUBLIC    CODE     ---       Key3_handle2
      00FF9BFEH   PUBLIC    CODE     ---       Refesh_arrow
      00FF8424H   PUBLIC    CODE     ---       menu_display_content
      00010E59H   PUBLIC    XDATA    BYTE      Show_image_mode
      00010E5AH   PUBLIC    XDATA    FLOAT     bujin
      00010E5EH   PUBLIC    XDATA    CHAR      mode
      00010E5FH   PUBLIC    XDATA    BYTE      Key
      00010E60H   PUBLIC    XDATA    CHAR      Start_Show_Row
      00010E61H   PUBLIC    XDATA    CHAR      i
      00010E62H   PUBLIC    XDATA    CHAR      j
      00010E63H   PUBLIC    XDATA    CHAR      Key3_count
      00010E64H   PUBLIC    XDATA    BYTE      Save_Flag
      00010E65H   PUBLIC    XDATA    CHAR      Flag
      000000D0H   SFRSYM    DATA     BYTE      PSW
      0000009DH   SFRSYM    DATA     BYTE      IRCBAND
      00000097H   SFRSYM    DATA     BYTE      AUXR2
      000000EFH   SFRSYM    DATA     BYTE      AUXINTIF
      000000FDH   SFRSYM    DATA     BYTE      S4CON
      000000ACH   SFRSYM    DATA     BYTE      S3CON
      0000009AH   SFRSYM    DATA     BYTE      S2CON
      000000B7H   SFRSYM    DATA     BYTE      IPH
      000000CDH   SFRSYM    DATA     BYTE      SPSTAT
      000000DDH   SFRSYM    DATA     BYTE      T4T3M
      000000C1H   SFRSYM    DATA     BYTE      WDT_CONTR
      000000DFH   SFRSYM    DATA     BYTE      IP3
      000000F4H   SFRSYM    DATA     BYTE      USBCON
      000000B5H   SFRSYM    DATA     BYTE      IP2
      000000FFH   SFRSYM    DATA     BYTE      RSTCFG
      000000C7H   SFRSYM    DATA     BYTE      IAP_CONTR
      0000008EH   SFRSYM    DATA     BYTE      AUXR
L251 LINKER/LOCATER V4.66.93.0                                                        09/26/2025  18:18:13  PAGE 123


      000000AFH   SFRSYM    DATA     BYTE      IE2
      00000088H   SFRSYM    DATA     BYTE      TCON
      00000089H   SFRSYM    DATA     BYTE      TMOD
      00000098H   SFRSYM    DATA     BYTE      SCON
      00000087H   SFRSYM    DATA     BYTE      PCON
      000000BCH   SFRSYM    DATA     BYTE      ADC_CONTR
      000000D1H   SFRSYM    DATA     BYTE      PSW1
      000000E7H   SFRSYM    DATA     BYTE      CMPCR2
      000000E6H   SFRSYM    DATA     BYTE      CMPCR1
      000000DEH   SFRSYM    DATA     BYTE      ADCCFG
      000000B8H   SFRSYM    DATA     BYTE      IP
      0000008FH   SFRSYM    DATA     BYTE      INTCLKO
      000000EEH   SFRSYM    DATA     BYTE      IP3H
      000000B6H   SFRSYM    DATA     BYTE      IP2H
      000000BFH   SFRSYM    DATA     BYTE      P_SW4
      000000A8H   SFRSYM    DATA     BYTE      IE
      000000BBH   SFRSYM    DATA     BYTE      P_SW3
      000000BAH   SFRSYM    DATA     BYTE      P_SW2
      000000A2H   SFRSYM    DATA     BYTE      P_SW1
      000000CEH   SFRSYM    DATA     BYTE      SPCTL
      000000F8H   SFRSYM    DATA     BYTE      P7
      000000E8H   SFRSYM    DATA     BYTE      P6
      000000C8H   SFRSYM    DATA     BYTE      P5
      000000C0H   SFRSYM    DATA     BYTE      P4
      000000ABH   SFRSYM    DATA     BYTE      WKTCH
      000000B0H   SFRSYM    DATA     BYTE      P3
      000000A0H   SFRSYM    DATA     BYTE      P2
      00000090H   SFRSYM    DATA     BYTE      P1
      00000080H   SFRSYM    DATA     BYTE      P0

      00FF8F17H   BLOCK     CODE     ---       LVL=0
      REG=6       REGSYM    ---      ---       parent
      REG=7       REGSYM    ---      ---       child_indices
      00FF8F17H   LINE      CODE     ---       #19
      00FF8F1BH   LINE      CODE     ---       #22
      00FF8F22H   LINE      CODE     ---       #23
      00FF8F3AH   LINE      CODE     ---       #24
      00FF8F49H   LINE      CODE     ---       #27
      00FF8F50H   LINE      CODE     ---       #29
      00FF8F74H   LINE      CODE     ---       #31
      00FF8FA4H   LINE      CODE     ---       #32
      00FF8FC2H   LINE      CODE     ---       #33
      00FF8FE6H   LINE      CODE     ---       #36
      ---         BLOCKEND  ---      ---       LVL=0

      00FF9BFEH   BLOCK     CODE     ---       LVL=0
      00FF9BFEH   LINE      CODE     ---       #38
      00FF9BFEH   LINE      CODE     ---       #40
      00FF9C04H   LINE      CODE     ---       #42
      00FF9C0DH   LINE      CODE     ---       #44
      00FF9C2CH   LINE      CODE     ---       #45
      00FF9C2EH   LINE      CODE     ---       #48
      00FF9C41H   LINE      CODE     ---       #49
      00FF9C41H   LINE      CODE     ---       #50
      00FF9C43H   LINE      CODE     ---       #53
      00FF9C4CH   LINE      CODE     ---       #55
      00FF9C6BH   LINE      CODE     ---       #56
      00FF9C6DH   LINE      CODE     ---       #59
      00FF9C80H   LINE      CODE     ---       #60
      00FF9C80H   LINE      CODE     ---       #61
      00FF9C80H   LINE      CODE     ---       #62
      ---         BLOCKEND  ---      ---       LVL=0

      00FF8424H   BLOCK     CODE     ---       LVL=0
      00FF8424H   LINE      CODE     ---       #64
L251 LINKER/LOCATER V4.66.93.0                                                        09/26/2025  18:18:13  PAGE 124


      00FF8424H   LINE      CODE     ---       #66
      00FF842CH   LINE      CODE     ---       #68
      00FF8461H   LINE      CODE     ---       #69
      00FF84E0H   LINE      CODE     ---       #71
      00FF8546H   LINE      CODE     ---       #72
      00FF8558H   LINE      CODE     ---       #74
      ---         BLOCKEND  ---      ---       LVL=0

      00FF8E3BH   BLOCK     CODE     ---       LVL=0
      00FF8E3BH   LINE      CODE     ---       #76
      00FF8E3DH   LINE      CODE     ---       #78
      00FF8E43H   LINE      CODE     ---       #80
      00FF8E4CH   LINE      CODE     ---       #82
      00FF8E52H   LINE      CODE     ---       #83
      00FF8E52H   LINE      CODE     ---       #84
      00FF8E5BH   LINE      CODE     ---       #86
      00FF8E7AH   LINE      CODE     ---       #87
      00FF8E7CH   LINE      CODE     ---       #90
      00FF8E8BH   LINE      CODE     ---       #91
      00FF8E9AH   LINE      CODE     ---       #92
      00FF8EA9H   LINE      CODE     ---       #93
      00FF8EB0H   LINE      CODE     ---       #94
      00FF8EB3H   LINE      CODE     ---       #95
      00FF8EB3H   LINE      CODE     ---       #96
      00FF8EB6H   LINE      CODE     ---       #97
      00FF8EB8H   LINE      CODE     ---       #98
      00FF8EBFH   LINE      CODE     ---       #100
      00FF8F08H   LINE      CODE     ---       #101
      00FF8F0EH   LINE      CODE     ---       #102
      00FF8F11H   LINE      CODE     ---       #103
      00FF8F14H   LINE      CODE     ---       #104
      ---         BLOCKEND  ---      ---       LVL=0

      00FF79D8H   BLOCK     CODE     ---       LVL=0
      00FF79D8H   LINE      CODE     ---       #107
      00FF79D8H   LINE      CODE     ---       #109
      00FF79E1H   LINE      CODE     ---       #112
      00FF79E1H   LINE      CODE     ---       #113
      00FF79EDH   LINE      CODE     ---       #115
      00FF7A0FH   LINE      CODE     ---       #117
      00FF7A1FH   LINE      CODE     ---       #118
      00FF7A1FH   LINE      CODE     ---       #119
      00FF7A39H   LINE      CODE     ---       #120
      00FF7A45H   LINE      CODE     ---       #122
      00FF7A74H   LINE      CODE     ---       #124
      00FF7A96H   LINE      CODE     ---       #125
      00FF7AB8H   LINE      CODE     ---       #126
      00FF7ADAH   LINE      CODE     ---       #127
      00FF7AF9H   LINE      CODE     ---       #128
      00FF7AF9H   LINE      CODE     ---       #129
      00FF7AFBH   LINE      CODE     ---       #132
      00FF7B27H   LINE      CODE     ---       #134
      00FF7B3CH   LINE      CODE     ---       #135
      00FF7B51H   LINE      CODE     ---       #136
      00FF7B66H   LINE      CODE     ---       #137
      00FF7B79H   LINE      CODE     ---       #138
      00FF7B79H   LINE      CODE     ---       #139
      00FF7B79H   LINE      CODE     ---       #140
      ---         BLOCKEND  ---      ---       LVL=0

      00FF00A6H   BLOCK     CODE     ---       LVL=0
      00FF00A6H   LINE      CODE     ---       #143
      00FF00A6H   LINE      CODE     ---       #145
      00FF00ACH   LINE      CODE     ---       #148
      00FF00B7H   LINE      CODE     ---       #150
L251 LINKER/LOCATER V4.66.93.0                                                        09/26/2025  18:18:13  PAGE 125


      00FF00BCH   LINE      CODE     ---       #151
      00FF00BFH   LINE      CODE     ---       #152
      00FF00BFH   LINE      CODE     ---       #153
      00FF00BFH   LINE      CODE     ---       #154
      ---         BLOCKEND  ---      ---       LVL=0

      00FF8FE7H   BLOCK     CODE     ---       LVL=0
      00FF8FE7H   LINE      CODE     ---       #155
      00FF8FE9H   LINE      CODE     ---       #157
      00FF8FF0H   LINE      CODE     ---       #159
      00FF9039H   LINE      CODE     ---       #160
      00FF903FH   LINE      CODE     ---       #161
      00FF9042H   LINE      CODE     ---       #162
      00FF9044H   LINE      CODE     ---       #163
      00FF904AH   LINE      CODE     ---       #165
      00FF9053H   LINE      CODE     ---       #167
      00FF9059H   LINE      CODE     ---       #168
      00FF9059H   LINE      CODE     ---       #169
      00FF9062H   LINE      CODE     ---       #171
      00FF906BH   LINE      CODE     ---       #172
      00FF9070H   LINE      CODE     ---       #173
      00FF908DH   LINE      CODE     ---       #174
      00FF908FH   LINE      CODE     ---       #177
      00FF909EH   LINE      CODE     ---       #178
      00FF90A5H   LINE      CODE     ---       #179
      00FF90A8H   LINE      CODE     ---       #180
      00FF90A8H   LINE      CODE     ---       #181
      00FF90ABH   LINE      CODE     ---       #182
      ---         BLOCKEND  ---      ---       LVL=0

      00FF01AEH   BLOCK     CODE     ---       LVL=0
      00FF01AEH   LINE      CODE     ---       #184
      00FF01AEH   LINE      CODE     ---       #186
      00FF01B4H   LINE      CODE     ---       #187
      00FF01B7H   LINE      CODE     ---       #188
      ---         BLOCKEND  ---      ---       LVL=0

      00FF9173H   BLOCK     CODE     ---       LVL=0
      00FF9173H   LINE      CODE     ---       #189
      00FF9173H   LINE      CODE     ---       #191
      00FF9179H   LINE      CODE     ---       #193
      00FF917CH   LINE      CODE     ---       #194
      00FF9181H   LINE      CODE     ---       #195
      00FF9181H   LINE      CODE     ---       #196
      00FF91A3H   LINE      CODE     ---       #198
      00FF91CBH   LINE      CODE     ---       #199
      00FF91D1H   LINE      CODE     ---       #200
      00FF91D6H   LINE      CODE     ---       #201
      00FF91D8H   LINE      CODE     ---       #202
      00FF91F5H   LINE      CODE     ---       #204
      00FF9211H   LINE      CODE     ---       #205
      00FF9217H   LINE      CODE     ---       #206
      00FF921CH   LINE      CODE     ---       #207
      00FF921CH   LINE      CODE     ---       #208
      00FF922DH   LINE      CODE     ---       #209
      00FF9230H   LINE      CODE     ---       #210
      00FF9233H   LINE      CODE     ---       #211
      ---         BLOCKEND  ---      ---       LVL=0

      00FFAA40H   BLOCK     CODE     ---       LVL=0
      R7          REGSYM    ---      BYTE      Flag_Key
      00FFAA40H   LINE      CODE     ---       #217
      00FFAA42H   LINE      CODE     ---       #220
      00FFAA53H   LINE      CODE     ---       #222
      00FFAA58H   LINE      CODE     ---       #223
L251 LINKER/LOCATER V4.66.93.0                                                        09/26/2025  18:18:13  PAGE 126


      00FFAA5DH   LINE      CODE     ---       #224
      00FFAA62H   LINE      CODE     ---       #225
      00FFAA65H   LINE      CODE     ---       #226
      00FFAA65H   LINE      CODE     ---       #227
      ---         BLOCKEND  ---      ---       LVL=0

      00FFA971H   BLOCK     CODE     ---       LVL=0
      00FFA971H   LINE      CODE     ---       #232
      00FFA971H   LINE      CODE     ---       #234
      00FFA984H   LINE      CODE     ---       #235
      00FFA997H   LINE      CODE     ---       #236
      00FFA99AH   LINE      CODE     ---       #237
      00FFA99DH   LINE      CODE     ---       #240
      ---         BLOCKEND  ---      ---       LVL=0

      ---         MODULE    ---      ---       menu_font
      00010000H   PUBLIC    XDATA    ---       Page
      000103E8H   PUBLIC    XDATA    ---       Pin
      000103ECH   PUBLIC    XDATA    ---       Num
      0001052CH   PUBLIC    XDATA    FLOAT     ADC_1
      00010530H   PUBLIC    XDATA    FLOAT     ADC_2
      00010534H   PUBLIC    XDATA    FLOAT     ADC_3
      00010538H   PUBLIC    XDATA    FLOAT     ADC_4
      0001053CH   PUBLIC    XDATA    FLOAT     ADC_5
      00010540H   PUBLIC    XDATA    FLOAT     ADC_6
      00010544H   PUBLIC    XDATA    ---       Page0_children
      0001054FH   PUBLIC    XDATA    FLOAT     ADC_8
      00010553H   PUBLIC    XDATA    ---       Page5_children
      000000D0H   SFRSYM    DATA     BYTE      PSW
      0000009DH   SFRSYM    DATA     BYTE      IRCBAND
      00000097H   SFRSYM    DATA     BYTE      AUXR2
      000000EFH   SFRSYM    DATA     BYTE      AUXINTIF
      000000FDH   SFRSYM    DATA     BYTE      S4CON
      000000ACH   SFRSYM    DATA     BYTE      S3CON
      0000009AH   SFRSYM    DATA     BYTE      S2CON
      000000B7H   SFRSYM    DATA     BYTE      IPH
      000000CDH   SFRSYM    DATA     BYTE      SPSTAT
      000000DDH   SFRSYM    DATA     BYTE      T4T3M
      000000C1H   SFRSYM    DATA     BYTE      WDT_CONTR
      000000DFH   SFRSYM    DATA     BYTE      IP3
      000000F4H   SFRSYM    DATA     BYTE      USBCON
      000000B5H   SFRSYM    DATA     BYTE      IP2
      000000FFH   SFRSYM    DATA     BYTE      RSTCFG
      000000C7H   SFRSYM    DATA     BYTE      IAP_CONTR
      0000008EH   SFRSYM    DATA     BYTE      AUXR
      000000AFH   SFRSYM    DATA     BYTE      IE2
      00000088H   SFRSYM    DATA     BYTE      TCON
      00000089H   SFRSYM    DATA     BYTE      TMOD
      00000098H   SFRSYM    DATA     BYTE      SCON
      00000087H   SFRSYM    DATA     BYTE      PCON
      000000BCH   SFRSYM    DATA     BYTE      ADC_CONTR
      000000D1H   SFRSYM    DATA     BYTE      PSW1
      000000E7H   SFRSYM    DATA     BYTE      CMPCR2
      000000E6H   SFRSYM    DATA     BYTE      CMPCR1
      000000DEH   SFRSYM    DATA     BYTE      ADCCFG
      000000B8H   SFRSYM    DATA     BYTE      IP
      0000008FH   SFRSYM    DATA     BYTE      INTCLKO
      000000EEH   SFRSYM    DATA     BYTE      IP3H
      000000B6H   SFRSYM    DATA     BYTE      IP2H
      000000BFH   SFRSYM    DATA     BYTE      P_SW4
      000000A8H   SFRSYM    DATA     BYTE      IE
      000000BBH   SFRSYM    DATA     BYTE      P_SW3
      000000BAH   SFRSYM    DATA     BYTE      P_SW2
      000000A2H   SFRSYM    DATA     BYTE      P_SW1
      000000CEH   SFRSYM    DATA     BYTE      SPCTL
L251 LINKER/LOCATER V4.66.93.0                                                        09/26/2025  18:18:13  PAGE 127


      000000F8H   SFRSYM    DATA     BYTE      P7
      000000E8H   SFRSYM    DATA     BYTE      P6
      000000C8H   SFRSYM    DATA     BYTE      P5
      000000C0H   SFRSYM    DATA     BYTE      P4
      000000ABH   SFRSYM    DATA     BYTE      WKTCH
      000000B0H   SFRSYM    DATA     BYTE      P3
      000000A0H   SFRSYM    DATA     BYTE      P2
      00000090H   SFRSYM    DATA     BYTE      P1
      00000080H   SFRSYM    DATA     BYTE      P0

      ---         MODULE    ---      ---       Device_Test
      00FFA3EDH   PUBLIC    CODE     ---       Serve_Test
      00FFA8E1H   PUBLIC    CODE     ---       PWM_Test
      000000D0H   SFRSYM    DATA     BYTE      PSW
      0000009DH   SFRSYM    DATA     BYTE      IRCBAND
      00000097H   SFRSYM    DATA     BYTE      AUXR2
      000000EFH   SFRSYM    DATA     BYTE      AUXINTIF
      000000FDH   SFRSYM    DATA     BYTE      S4CON
      000000ACH   SFRSYM    DATA     BYTE      S3CON
      0000009AH   SFRSYM    DATA     BYTE      S2CON
      000000B7H   SFRSYM    DATA     BYTE      IPH
      000000CDH   SFRSYM    DATA     BYTE      SPSTAT
      000000DDH   SFRSYM    DATA     BYTE      T4T3M
      000000C1H   SFRSYM    DATA     BYTE      WDT_CONTR
      000000DFH   SFRSYM    DATA     BYTE      IP3
      000000F4H   SFRSYM    DATA     BYTE      USBCON
      000000B5H   SFRSYM    DATA     BYTE      IP2
      000000FFH   SFRSYM    DATA     BYTE      RSTCFG
      000000C7H   SFRSYM    DATA     BYTE      IAP_CONTR
      0000008EH   SFRSYM    DATA     BYTE      AUXR
      000000AFH   SFRSYM    DATA     BYTE      IE2
      00000088H   SFRSYM    DATA     BYTE      TCON
      00000089H   SFRSYM    DATA     BYTE      TMOD
      00000098H   SFRSYM    DATA     BYTE      SCON
      00000087H   SFRSYM    DATA     BYTE      PCON
      000000BCH   SFRSYM    DATA     BYTE      ADC_CONTR
      000000D1H   SFRSYM    DATA     BYTE      PSW1
      000000E7H   SFRSYM    DATA     BYTE      CMPCR2
      000000E6H   SFRSYM    DATA     BYTE      CMPCR1
      000000DEH   SFRSYM    DATA     BYTE      ADCCFG
      000000B8H   SFRSYM    DATA     BYTE      IP
      0000008FH   SFRSYM    DATA     BYTE      INTCLKO
      000000EEH   SFRSYM    DATA     BYTE      IP3H
      000000B6H   SFRSYM    DATA     BYTE      IP2H
      000000BFH   SFRSYM    DATA     BYTE      P_SW4
      000000A8H   SFRSYM    DATA     BYTE      IE
      000000BBH   SFRSYM    DATA     BYTE      P_SW3
      000000BAH   SFRSYM    DATA     BYTE      P_SW2
      000000A2H   SFRSYM    DATA     BYTE      P_SW1
      000000CEH   SFRSYM    DATA     BYTE      SPCTL
      000000F8H   SFRSYM    DATA     BYTE      P7
      000000E8H   SFRSYM    DATA     BYTE      P6
      000000C8H   SFRSYM    DATA     BYTE      P5
      000000C0H   SFRSYM    DATA     BYTE      P4
      000000ABH   SFRSYM    DATA     BYTE      WKTCH
      000000B0H   SFRSYM    DATA     BYTE      P3
      000000A0H   SFRSYM    DATA     BYTE      P2
      00000090H   SFRSYM    DATA     BYTE      P1
      00000080H   SFRSYM    DATA     BYTE      P0

      00FFA3EDH   BLOCK     CODE     ---       LVL=0
      00FFA3EFH   BLOCK     CODE     NEAR LAB  LVL=1
      R14         REGSYM    ---      BYTE      a
      R15         REGSYM    ---      BYTE      j
      ---         BLOCKEND  ---      ---       LVL=1
L251 LINKER/LOCATER V4.66.93.0                                                        09/26/2025  18:18:13  PAGE 128


      00FFA3EDH   LINE      CODE     ---       #3
      00FFA3EFH   LINE      CODE     ---       #4
      00FFA3EFH   LINE      CODE     ---       #8
      00FFA3F3H   LINE      CODE     ---       #10
      00FFA3F7H   LINE      CODE     ---       #12
      00FFA400H   LINE      CODE     ---       #13
      00FFA407H   LINE      CODE     ---       #14
      00FFA415H   LINE      CODE     ---       #16
      00FFA419H   LINE      CODE     ---       #18
      00FFA424H   LINE      CODE     ---       #19
      00FFA42BH   LINE      CODE     ---       #20
      00FFA439H   LINE      CODE     ---       #22
      00FFA440H   LINE      CODE     ---       #23
      ---         BLOCKEND  ---      ---       LVL=0

      00FFA8E1H   BLOCK     CODE     ---       LVL=0
      00FFA8E1H   LINE      CODE     ---       #25
      00FFA8E1H   LINE      CODE     ---       #27
      00FFA8FAH   LINE      CODE     ---       #28
      00FFA913H   LINE      CODE     ---       #29
      ---         BLOCKEND  ---      ---       LVL=0

      ---         MODULE    ---      ---       oled
      00FF3940H   PUBLIC    CODE     ---       asc2_0806
      00FF3B68H   PUBLIC    CODE     ---       asc2_1608
      00FF4158H   PUBLIC    CODE     ---       Hzk
      000000D0H   SFRSYM    DATA     BYTE      PSW
      0000009DH   SFRSYM    DATA     BYTE      IRCBAND
      00000097H   SFRSYM    DATA     BYTE      AUXR2
      000000EFH   SFRSYM    DATA     BYTE      AUXINTIF
      000000FDH   SFRSYM    DATA     BYTE      S4CON
      000000ACH   SFRSYM    DATA     BYTE      S3CON
      0000009AH   SFRSYM    DATA     BYTE      S2CON
      000000B7H   SFRSYM    DATA     BYTE      IPH
      000000CDH   SFRSYM    DATA     BYTE      SPSTAT
      000000DDH   SFRSYM    DATA     BYTE      T4T3M
      000000C1H   SFRSYM    DATA     BYTE      WDT_CONTR
      000000DFH   SFRSYM    DATA     BYTE      IP3
      000000F4H   SFRSYM    DATA     BYTE      USBCON
      000000B5H   SFRSYM    DATA     BYTE      IP2
      000000FFH   SFRSYM    DATA     BYTE      RSTCFG
      000000C7H   SFRSYM    DATA     BYTE      IAP_CONTR
      0000008EH   SFRSYM    DATA     BYTE      AUXR
      000000AFH   SFRSYM    DATA     BYTE      IE2
      00000088H   SFRSYM    DATA     BYTE      TCON
      00000089H   SFRSYM    DATA     BYTE      TMOD
      00000098H   SFRSYM    DATA     BYTE      SCON
      00000087H   SFRSYM    DATA     BYTE      PCON
      000000BCH   SFRSYM    DATA     BYTE      ADC_CONTR
      000000D1H   SFRSYM    DATA     BYTE      PSW1
      000000E7H   SFRSYM    DATA     BYTE      CMPCR2
      000000E6H   SFRSYM    DATA     BYTE      CMPCR1
      000000DEH   SFRSYM    DATA     BYTE      ADCCFG
      000000B8H   SFRSYM    DATA     BYTE      IP
      0000008FH   SFRSYM    DATA     BYTE      INTCLKO
      000000EEH   SFRSYM    DATA     BYTE      IP3H
      000000B6H   SFRSYM    DATA     BYTE      IP2H
      000000BFH   SFRSYM    DATA     BYTE      P_SW4
      000000A8H   SFRSYM    DATA     BYTE      IE
      000000BBH   SFRSYM    DATA     BYTE      P_SW3
      000000BAH   SFRSYM    DATA     BYTE      P_SW2
      000000A2H   SFRSYM    DATA     BYTE      P_SW1
      000000CEH   SFRSYM    DATA     BYTE      SPCTL
      000000F8H   SFRSYM    DATA     BYTE      P7
      000000E8H   SFRSYM    DATA     BYTE      P6
L251 LINKER/LOCATER V4.66.93.0                                                        09/26/2025  18:18:13  PAGE 129


      000000C8H   SFRSYM    DATA     BYTE      P5
      000000C0H   SFRSYM    DATA     BYTE      P4
      000000ABH   SFRSYM    DATA     BYTE      WKTCH
      000000B0H   SFRSYM    DATA     BYTE      P3
      000000A0H   SFRSYM    DATA     BYTE      P2
      00000090H   SFRSYM    DATA     BYTE      P1
      00000080H   SFRSYM    DATA     BYTE      P0
      WR2         REGSYM    ---      WORD      ms
      WR0         REGSYM    ---      WORD      a
      R15         REGSYM    ---      BYTE      i
      R15         REGSYM    ---      BYTE      i
      R15         REGSYM    ---      BYTE      dat
      R10         REGSYM    ---      BYTE      cmd
      R14         REGSYM    ---      BYTE      i
      R15         REGSYM    ---      BYTE      x
      R10         REGSYM    ---      BYTE      y
      R15         REGSYM    ---      BYTE      i
      R14         REGSYM    ---      BYTE      n
      R13         REGSYM    ---      BYTE      x
      R14         REGSYM    ---      BYTE      y
      R3          REGSYM    ---      BYTE      chr
      R15         REGSYM    ---      BYTE      sizey
      R12         REGSYM    ---      BYTE      facial
      R3          REGSYM    ---      BYTE      m
      R10         REGSYM    ---      BYTE      n
      WR6         REGSYM    ---      WORD      result
      WR14        REGSYM    ---      WORD      num
      R12         REGSYM    ---      BYTE      len
      R13         REGSYM    ---      BYTE      sizey
      REG=3       REGSYM    ---      ---       chr
      R12         REGSYM    ---      BYTE      x
      R13         REGSYM    ---      BYTE      y
      R14         REGSYM    ---      BYTE      no
      R15         REGSYM    ---      BYTE      sizey

      ---         MODULE    ---      ---       Strategy
      00010E9EH   PUBLIC    XDATA    INT       loss_Time
      00010EA0H   PUBLIC    XDATA    FLOAT     uni
      00010EA4H   PUBLIC    XDATA    FLOAT     last_uni
      000000D0H   SFRSYM    DATA     BYTE      PSW
      0000009DH   SFRSYM    DATA     BYTE      IRCBAND
      00000097H   SFRSYM    DATA     BYTE      AUXR2
      000000EFH   SFRSYM    DATA     BYTE      AUXINTIF
      000000FDH   SFRSYM    DATA     BYTE      S4CON
      000000ACH   SFRSYM    DATA     BYTE      S3CON
      0000009AH   SFRSYM    DATA     BYTE      S2CON
      000000B7H   SFRSYM    DATA     BYTE      IPH
      000000CDH   SFRSYM    DATA     BYTE      SPSTAT
      000000DDH   SFRSYM    DATA     BYTE      T4T3M
      000000C1H   SFRSYM    DATA     BYTE      WDT_CONTR
      000000DFH   SFRSYM    DATA     BYTE      IP3
      000000F4H   SFRSYM    DATA     BYTE      USBCON
      000000B5H   SFRSYM    DATA     BYTE      IP2
      000000FFH   SFRSYM    DATA     BYTE      RSTCFG
      000000C7H   SFRSYM    DATA     BYTE      IAP_CONTR
      0000008EH   SFRSYM    DATA     BYTE      AUXR
      000000AFH   SFRSYM    DATA     BYTE      IE2
      00000088H   SFRSYM    DATA     BYTE      TCON
      00000089H   SFRSYM    DATA     BYTE      TMOD
      00000098H   SFRSYM    DATA     BYTE      SCON
      00000087H   SFRSYM    DATA     BYTE      PCON
      000000BCH   SFRSYM    DATA     BYTE      ADC_CONTR
      000000D1H   SFRSYM    DATA     BYTE      PSW1
      000000E7H   SFRSYM    DATA     BYTE      CMPCR2
      000000E6H   SFRSYM    DATA     BYTE      CMPCR1
L251 LINKER/LOCATER V4.66.93.0                                                        09/26/2025  18:18:13  PAGE 130


      000000DEH   SFRSYM    DATA     BYTE      ADCCFG
      000000B8H   SFRSYM    DATA     BYTE      IP
      0000008FH   SFRSYM    DATA     BYTE      INTCLKO
      000000EEH   SFRSYM    DATA     BYTE      IP3H
      000000B6H   SFRSYM    DATA     BYTE      IP2H
      000000BFH   SFRSYM    DATA     BYTE      P_SW4
      000000A8H   SFRSYM    DATA     BYTE      IE
      000000BBH   SFRSYM    DATA     BYTE      P_SW3
      000000BAH   SFRSYM    DATA     BYTE      P_SW2
      000000A2H   SFRSYM    DATA     BYTE      P_SW1
      000000CEH   SFRSYM    DATA     BYTE      SPCTL
      000000F8H   SFRSYM    DATA     BYTE      P7
      000000E8H   SFRSYM    DATA     BYTE      P6
      000000C8H   SFRSYM    DATA     BYTE      P5
      000000C0H   SFRSYM    DATA     BYTE      P4
      000000ABH   SFRSYM    DATA     BYTE      WKTCH
      000000B0H   SFRSYM    DATA     BYTE      P3
      000000A0H   SFRSYM    DATA     BYTE      P2
      00000090H   SFRSYM    DATA     BYTE      P1
      00000080H   SFRSYM    DATA     BYTE      P0

      ---         MODULE    ---      ---       ?C?DPADD
      00FF2225H   PUBLIC    CODE     ---       ?C?DPADD
      00FF2221H   PUBLIC    CODE     ---       ?C?DPSUB

      ---         MODULE    ---      ---       ?C?DPMUL
      00FF2334H   PUBLIC    CODE     ---       ?C?DPMUL

      ---         MODULE    ---      ---       ?C?DPDIV
      00FF2444H   PUBLIC    CODE     ---       ?C?DPDIV

      ---         MODULE    ---      ---       ?C?DPCMP
      00FF24E5H   PUBLIC    CODE     ---       ?C?DPCMP
      00FF24E3H   PUBLIC    CODE     ---       ?C?DPCMP3

      ---         MODULE    ---      ---       ?C?DPNEG
      00FF2544H   PUBLIC    CODE     ---       ?C?DPNEG

      ---         MODULE    ---      ---       ?C?DCAST
      00FF255CH   PUBLIC    CODE     NEAR LAB  ?C?DCASTC
      00FF2557H   PUBLIC    CODE     NEAR LAB  ?C?DCASTI
      00FF2552H   PUBLIC    CODE     NEAR LAB  ?C?DCASTL

      ---         MODULE    ---      ---       ?C?CASTD
      00FF259FH   PUBLIC    CODE     NEAR LAB  ?C?CASTD

      ---         MODULE    ---      ---       ?C?DCASTF
      00FF25FFH   PUBLIC    CODE     NEAR LAB  ?C?DCASTF

      ---         MODULE    ---      ---       ?C?FCASTD
      00FF2641H   PUBLIC    CODE     NEAR LAB  ?C?FCASTD

      ---         MODULE    ---      ---       PRINTF
      000105D5H   PUBLIC    XDATA    ---       ?PRINTF?BYTE
      00FF2678H   PUBLIC    CODE     NEAR LAB  PRINTF

      ---         MODULE    ---      ---       SPRINTF
      00010586H   PUBLIC    XDATA    ---       ?SPRINTF?BYTE
      00FF26A4H   PUBLIC    CODE     NEAR LAB  SPRINTF

      ---         MODULE    ---      ---       SQRT?_
      00FF26CAH   PUBLIC    CODE     ---       SQRT?_

      ---         MODULE    ---      ---       pow

L251 LINKER/LOCATER V4.66.93.0                                                        09/26/2025  18:18:13  PAGE 131


      ---         MODULE    ---      ---       SIN?_
      00FF2818H   PUBLIC    CODE     ---       COS?_
      00FF2839H   PUBLIC    CODE     ---       SIN?_
      00FF286EH   PUBLIC    CODE     ---       TAN?_

      ---         MODULE    ---      ---       ATAN?_
      00FF29B0H   PUBLIC    CODE     ---       ATAN?_

      ---         MODULE    ---      ---       ASIN?_
      00FF2ACBH   PUBLIC    CODE     ---       ASIN?_

      ---         MODULE    ---      ---       ?C?DPGETOPN
      00FF2AF5H   PUBLIC    CODE     ---       ?C?DPGETOPN2
      00FF2B40H   PUBLIC    CODE     ---       ?C?DPNANRESULT
      00FF2B4CH   PUBLIC    CODE     ---       ?C?DPOVERFLOW
      00FF2B18H   PUBLIC    CODE     ---       ?C?DPRESULT
      00FF2B31H   PUBLIC    CODE     ---       ?C?DPRESULT2
      00FF2B47H   PUBLIC    CODE     ---       ?C?DPUNDERFLOW

      ---         MODULE    ---      ---       _CHKDOUBLE_?_
      00FF2B5AH   PUBLIC    CODE     ---       _CHKDOUBLE_?_

      ---         MODULE    ---      ---       ?C?PRNFMT
      00FF2BA5H   PUBLIC    CODE     ---       ?C?PRNFMT

      ---         MODULE    ---      ---       ?C?DPSERIES
      00FF2FD3H   PUBLIC    CODE     ---       ?C?DP2SERIES
      00FF2FDEH   PUBLIC    CODE     ---       ?C?DPSERIES

      ---         MODULE    ---      ---       EXP?_
      00FF30BAH   PUBLIC    CODE     ---       EXP?_

      ---         MODULE    ---      ---       LOG?_
      00FF31A3H   PUBLIC    CODE     NEAR LAB  LOG?_

      ---         MODULE    ---      ---       ?C?DPCONVERT
      00FF32BEH   PUBLIC    CODE     ---       ?C?DPCONVERT
      00FF33E5H   PUBLIC    CODE     ---       ?C?DPROUND

      ---         MODULE    ---      ---       ?C?DTNPWR
      00FF34C0H   PUBLIC    CODE     ---       ?C?DTNPWR

      ---         MODULE    ---      ---       ?C?FPGETOPN
      00FF3546H   PUBLIC    CODE     ---       ?C?FPGETOPN2
      00FF3583H   PUBLIC    CODE     ---       ?C?FPNANRESULT
      00FF358BH   PUBLIC    CODE     ---       ?C?FPOVERFLOW
      00FF355FH   PUBLIC    CODE     ---       ?C?FPRESULT
      00FF3575H   PUBLIC    CODE     ---       ?C?FPRESULT2
      00FF3588H   PUBLIC    CODE     ---       ?C?FPUNDERFLOW

      ---         MODULE    ---      ---       ?C?FPADD
      00FF359DH   PUBLIC    CODE     ---       ?C?FPADD
      00FF359AH   PUBLIC    CODE     ---       ?C?FPSUB

      ---         MODULE    ---      ---       ?C?FPMUL
      00FF3655H   PUBLIC    CODE     ---       ?C?FPMUL

      ---         MODULE    ---      ---       ?C?FPDIV
      00FF36F5H   PUBLIC    CODE     ---       ?C?FPDIV

      ---         MODULE    ---      ---       ?C?FPCMP
      00FF3778H   PUBLIC    CODE     ---       ?C?FPCMP
      00FF3776H   PUBLIC    CODE     ---       ?C?FPCMP3

      ---         MODULE    ---      ---       ?C?FPNEG
L251 LINKER/LOCATER V4.66.93.0                                                        09/26/2025  18:18:13  PAGE 132


      00FF37BCH   PUBLIC    CODE     ---       ?C?FPNEG

      ---         MODULE    ---      ---       ?C?FCAST
      00FF37D4H   PUBLIC    CODE     NEAR LAB  ?C?FCASTC
      00FF37CFH   PUBLIC    CODE     NEAR LAB  ?C?FCASTI
      00FF37CAH   PUBLIC    CODE     NEAR LAB  ?C?FCASTL

      ---         MODULE    ---      ---       ?C?CASTF
      00FF3807H   PUBLIC    CODE     NEAR LAB  ?C?CASTF

      ---         MODULE    ---      ---       ?C?INITHDATA
      00FFA30CH   PUBLIC    CODE     ---       ?C?INITHDATA

      ---         MODULE    ---      ---       ?C?SIDIV
      00FF3844H   PUBLIC    CODE     ---       ?C?SIDIV

      ---         MODULE    ---      ---       ?C?LMUL
      00FF3876H   PUBLIC    CODE     ---       ?C?LMUL

      ---         MODULE    ---      ---       ?C?LIMUL
      00FF3887H   PUBLIC    CODE     ---       ?C?LIMUL

      ---         MODULE    ---      ---       ?C?ULDIV
      00FF3892H   PUBLIC    CODE     NEAR LAB  ?C?ULDIV
      00FF3890H   PUBLIC    CODE     NEAR LAB  ?C?ULIDIV

      ---         MODULE    ---      ---       ?C?SLDIV
      00FF38E3H   PUBLIC    CODE     NEAR LAB  ?C?SLDIV

      ---         MODULE    ---      ---       ?C?BMOVEPP
      00FF3919H   PUBLIC    CODE     ---       ?C?BMOVEPP
      00FF3917H   PUBLIC    CODE     ---       ?C?BMOVEPP8

      ---         MODULE    ---      ---       STRNCMP

      ---         MODULE    ---      ---       STRNCPY

      ---         MODULE    ---      ---       STRLEN

      ---         MODULE    ---      ---       STRCHR

      ---         MODULE    ---      ---       memcpy
      00FFAA66H   PUBLIC    CODE     ---       memcpy?_

      ---         MODULE    ---      ---       memset

      ---         MODULE    ---      ---       ?C?INITHDATA_END
      00FFB520H   PUBLIC    HCONST   WORD      ?C?INITHDATA_END

Program Size: data=8.3 edata+hdata=1792 xdata=3819 const=6867 code=43788
L251 RUN COMPLETE.  0 WARNING(S),  0 ERROR(S)
