L251 LINKER/LOCATER V4.66.93.0                                                          10/01/2025  18:14:56  PAGE 1


L251 LINKER/LOCATER V4.66.93.0, INVOKED BY:
D:\KEIL\C251\BIN\L251.EXE .\out_file\ai8051u_isr.obj, .\out_file\zf_common_clock.obj, .\out_file\zf_common_debug.obj, .\
>> out_file\zf_common_fifo.obj, .\out_file\zf_common_font.obj, .\out_file\zf_common_function.obj, .\out_file\zf_common_t
>> ypedef.obj, .\out_file\zf_common_interrupt.obj, .\out_file\START251.obj, .\out_file\zf_driver_adc.obj, .\out_file\zf_
>> driver_delay.obj, .\out_file\zf_driver_eeprom.obj, .\out_file\zf_driver_encoder.obj, .\out_file\zf_driver_exti.obj, .
>> \out_file\zf_driver_gpio.obj, .\out_file\zf_driver_pit.obj, .\out_file\zf_driver_pwm.obj, .\out_file\zf_driver_soft_i
>> ic.obj, .\out_file\zf_driver_soft_spi.obj, .\out_file\zf_driver_spi.obj, .\out_file\zf_driver_timer.obj, .\out_file\z
>> f_driver_uart.obj, .\out_file\zf_device_config.obj, .\out_file\zf_device_type.obj, .\out_file\zf_device_tft180.obj, .
>> \out_file\zf_device_ips114.obj, .\out_file\zf_device_ips200.obj, .\out_file\zf_device_dl1a.obj, .\out_file\zf_device_
>> ble6a20.obj, .\out_file\zf_device_wireless_uart.obj, .\out_file\zf_device_icm20602.obj, .\out_file\zf_device_imu660ra
>> .obj, .\out_file\zf_device_imu660rb.obj, .\out_file\zf_device_imu963ra.obj, .\out_file\zf_device_gps_tau1201.obj, .\o
>> ut_file\zf_device_tsl1401.obj, .\out_file\seekfree_assistant.obj, .\out_file\seekfree_assistant_interface.obj, .\out_
>> file\isr.obj, .\out_file\main.obj, .\out_file\ADC_Get.obj, .\out_file\control.obj, .\out_file\eeprom.obj, .\out_file\
>> function.obj, .\out_file\Key.obj, .\out_file\menu.obj, .\out_file\menu_font.obj, .\out_file\Device_Test.obj, .\out_fi
>> le\oled.obj, .\out_file\Strategy.obj TO .\out_file\SEEKFREE PRINT (.\out_file\SEEKFREE.map) CASE DISABLEWARNING (57, 
>> 16) REMOVEUNUSED CLASSES (EDATA (0X0-0X7FF), HDATA (0X0-0X7FF))


CPU MODE:     251 SOURCE MODE
INTR FRAME:   4 BYTES SAVED ON INTERRUPT
MEMORY MODEL: LARGE WITH DOUBLE PRECISION FLOATING POINT ARITHMETIC


INPUT MODULES INCLUDED:
  .\out_file\ai8051u_isr.obj (ai8051u_isr)
         COMMENT TYPE 0: A251 V4.69.13.0
  .\out_file\zf_common_clock.obj (zf_common_clock)
         COMMENT TYPE 0: C251 V5.60.0
  .\out_file\zf_common_debug.obj (zf_common_debug)
         COMMENT TYPE 0: C251 V5.60.0
  .\out_file\zf_common_fifo.obj (zf_common_fifo)
         COMMENT TYPE 0: C251 V5.60.0
  .\out_file\zf_common_font.obj (zf_common_font)
         COMMENT TYPE 0: C251 V5.60.0
  .\out_file\zf_common_function.obj (zf_common_function)
         COMMENT TYPE 0: C251 V5.60.0
  .\out_file\zf_common_typedef.obj (zf_common_typedef)
         COMMENT TYPE 0: C251 V5.60.0
  .\out_file\zf_common_interrupt.obj (zf_common_interrupt)
         COMMENT TYPE 0: C251 V5.60.0
  .\out_file\START251.obj (?C_START)
         COMMENT TYPE 0: A251 V4.69.13.0
  .\out_file\zf_driver_adc.obj (zf_driver_adc)
         COMMENT TYPE 0: C251 V5.60.0
  .\out_file\zf_driver_delay.obj (zf_driver_delay)
         COMMENT TYPE 0: C251 V5.60.0
  .\out_file\zf_driver_eeprom.obj (zf_driver_eeprom)
         COMMENT TYPE 0: C251 V5.60.0
  .\out_file\zf_driver_encoder.obj (zf_driver_encoder)
         COMMENT TYPE 0: C251 V5.60.0
  .\out_file\zf_driver_exti.obj (zf_driver_exti)
         COMMENT TYPE 0: C251 V5.60.0
  .\out_file\zf_driver_gpio.obj (zf_driver_gpio)
         COMMENT TYPE 0: C251 V5.60.0
  .\out_file\zf_driver_pit.obj (zf_driver_pit)
         COMMENT TYPE 0: C251 V5.60.0
  .\out_file\zf_driver_pwm.obj (zf_driver_pwm)
         COMMENT TYPE 0: C251 V5.60.0
  .\out_file\zf_driver_soft_iic.obj (zf_driver_soft_iic)
         COMMENT TYPE 0: C251 V5.60.0
  .\out_file\zf_driver_soft_spi.obj (zf_driver_soft_spi)
         COMMENT TYPE 0: C251 V5.60.0
  .\out_file\zf_driver_spi.obj (zf_driver_spi)
         COMMENT TYPE 0: C251 V5.60.0
  .\out_file\zf_driver_timer.obj (zf_driver_timer)
         COMMENT TYPE 0: C251 V5.60.0
L251 LINKER/LOCATER V4.66.93.0                                                        10/01/2025  18:14:56  PAGE 2


  .\out_file\zf_driver_uart.obj (zf_driver_uart)
         COMMENT TYPE 0: C251 V5.60.0
  .\out_file\zf_device_config.obj (zf_device_config)
         COMMENT TYPE 0: C251 V5.60.0
  .\out_file\zf_device_type.obj (zf_device_type)
         COMMENT TYPE 0: C251 V5.60.0
  .\out_file\zf_device_tft180.obj (zf_device_tft180)
         COMMENT TYPE 0: C251 V5.60.0
  .\out_file\zf_device_ips114.obj (zf_device_ips114)
         COMMENT TYPE 0: C251 V5.60.0
  .\out_file\zf_device_ips200.obj (zf_device_ips200)
         COMMENT TYPE 0: C251 V5.60.0
  .\out_file\zf_device_dl1a.obj (zf_device_dl1a)
         COMMENT TYPE 0: C251 V5.60.0
  .\out_file\zf_device_ble6a20.obj (zf_device_ble6a20)
         COMMENT TYPE 0: C251 V5.60.0
  .\out_file\zf_device_wireless_uart.obj (zf_device_wireless_uart)
         COMMENT TYPE 0: C251 V5.60.0
  .\out_file\zf_device_icm20602.obj (zf_device_icm20602)
         COMMENT TYPE 0: C251 V5.60.0
  .\out_file\zf_device_imu660ra.obj (zf_device_imu660ra)
         COMMENT TYPE 0: C251 V5.60.0
  .\out_file\zf_device_imu660rb.obj (zf_device_imu660rb)
         COMMENT TYPE 0: C251 V5.60.0
  .\out_file\zf_device_imu963ra.obj (zf_device_imu963ra)
         COMMENT TYPE 0: C251 V5.60.0
  .\out_file\zf_device_gps_tau1201.obj (zf_device_gps_tau1201)
         COMMENT TYPE 0: C251 V5.60.0
  .\out_file\zf_device_tsl1401.obj (zf_device_tsl1401)
         COMMENT TYPE 0: C251 V5.60.0
  .\out_file\seekfree_assistant.obj (seekfree_assistant)
         COMMENT TYPE 0: C251 V5.60.0
  .\out_file\seekfree_assistant_interface.obj (seekfree_assistant_interface)
         COMMENT TYPE 0: C251 V5.60.0
  .\out_file\isr.obj (isr)
         COMMENT TYPE 0: C251 V5.60.0
  .\out_file\main.obj (main)
         COMMENT TYPE 0: C251 V5.60.0
  .\out_file\ADC_Get.obj (ADC_Get)
         COMMENT TYPE 0: C251 V5.60.0
  .\out_file\control.obj (control)
         COMMENT TYPE 0: C251 V5.60.0
  .\out_file\eeprom.obj (eeprom)
         COMMENT TYPE 0: C251 V5.60.0
  .\out_file\function.obj (function)
         COMMENT TYPE 0: C251 V5.60.0
  .\out_file\Key.obj (Key)
         COMMENT TYPE 0: C251 V5.60.0
  .\out_file\menu.obj (menu)
         COMMENT TYPE 0: C251 V5.60.0
  .\out_file\menu_font.obj (menu_font)
         COMMENT TYPE 0: C251 V5.60.0
  .\out_file\Device_Test.obj (Device_Test)
         COMMENT TYPE 0: C251 V5.60.0
  .\out_file\oled.obj (oled)
         COMMENT TYPE 0: C251 V5.60.0
  .\out_file\Strategy.obj (Strategy)
         COMMENT TYPE 0: C251 V5.60.0
  D:\KEIL\C251\LIB\C2SDPL.LIB (?C?DPADD)
         COMMENT TYPE 0: A251 V4.69.6.0
  D:\KEIL\C251\LIB\C2SDPL.LIB (?C?DPMUL)
         COMMENT TYPE 0: A251 V4.69.6.0
  D:\KEIL\C251\LIB\C2SDPL.LIB (?C?DPDIV)
         COMMENT TYPE 0: A251 V4.69.6.0
  D:\KEIL\C251\LIB\C2SDPL.LIB (?C?DPCMP)
L251 LINKER/LOCATER V4.66.93.0                                                        10/01/2025  18:14:56  PAGE 3


         COMMENT TYPE 0: A251 V4.69.6.0
  D:\KEIL\C251\LIB\C2SDPL.LIB (?C?DPNEG)
         COMMENT TYPE 0: A251 V4.69.6.0
  D:\KEIL\C251\LIB\C2SDPL.LIB (?C?DCAST)
         COMMENT TYPE 0: A251 V4.69.6.0
  D:\KEIL\C251\LIB\C2SDPL.LIB (?C?CASTD)
         COMMENT TYPE 0: A251 V4.69.6.0
  D:\KEIL\C251\LIB\C2SDPL.LIB (?C?DCASTF)
         COMMENT TYPE 0: A251 V4.69.6.0
  D:\KEIL\C251\LIB\C2SDPL.LIB (?C?FCASTD)
         COMMENT TYPE 0: A251 V4.69.6.0
  D:\KEIL\C251\LIB\C2SDPL.LIB (PRINTF)
         COMMENT TYPE 0: A251 V4.69.6.0
  D:\KEIL\C251\LIB\C2SDPL.LIB (SPRINTF)
         COMMENT TYPE 0: A251 V4.69.6.0
  D:\KEIL\C251\LIB\C2SDPL.LIB (SQRT?_)
         COMMENT TYPE 0: A251 V4.69.6.0
  D:\KEIL\C251\LIB\C2SDPL.LIB (pow)
         COMMENT TYPE 0: C251 V5.58.7
  D:\KEIL\C251\LIB\C2SDPL.LIB (SIN?_)
         COMMENT TYPE 0: A251 V4.69.6.0
  D:\KEIL\C251\LIB\C2SDPL.LIB (ATAN?_)
         COMMENT TYPE 0: A251 V4.69.6.0
  D:\KEIL\C251\LIB\C2SDPL.LIB (ASIN?_)
         COMMENT TYPE 0: A251 V4.69.6.0
  D:\KEIL\C251\LIB\C2SDPL.LIB (?C?DPGETOPN)
         COMMENT TYPE 0: A251 V4.69.6.0
  D:\KEIL\C251\LIB\C2SDPL.LIB (_CHKDOUBLE_?_)
         COMMENT TYPE 0: A251 V4.69.6.0
  D:\KEIL\C251\LIB\C2SDPL.LIB (?C?PRNFMT)
         COMMENT TYPE 0: A251 V4.69.6.0
  D:\KEIL\C251\LIB\C2SDPL.LIB (?C?DPSERIES)
         COMMENT TYPE 0: A251 V4.69.6.0
  D:\KEIL\C251\LIB\C2SDPL.LIB (EXP?_)
         COMMENT TYPE 0: A251 V4.69.6.0
  D:\KEIL\C251\LIB\C2SDPL.LIB (LOG?_)
         COMMENT TYPE 0: A251 V4.69.6.0
  D:\KEIL\C251\LIB\C2SDPL.LIB (?C?DPCONVERT)
         COMMENT TYPE 0: A251 V4.69.6.0
  D:\KEIL\C251\LIB\C2SDPL.LIB (?C?DTNPWR)
         COMMENT TYPE 0: A251 V4.69.6.0
  D:\KEIL\C251\LIB\C2SFPL.LIB (?C?FPGETOPN)
         COMMENT TYPE 0: A251 V4.69.6.0
  D:\KEIL\C251\LIB\C2SFPL.LIB (?C?FPADD)
         COMMENT TYPE 0: A251 V4.69.6.0
  D:\KEIL\C251\LIB\C2SFPL.LIB (?C?FPMUL)
         COMMENT TYPE 0: A251 V4.69.6.0
  D:\KEIL\C251\LIB\C2SFPL.LIB (?C?FPDIV)
         COMMENT TYPE 0: A251 V4.69.6.0
  D:\KEIL\C251\LIB\C2SFPL.LIB (?C?FPCMP)
         COMMENT TYPE 0: A251 V4.69.6.0
  D:\KEIL\C251\LIB\C2SFPL.LIB (?C?FPNEG)
         COMMENT TYPE 0: A251 V4.69.6.0
  D:\KEIL\C251\LIB\C2SFPL.LIB (?C?FCAST)
         COMMENT TYPE 0: A251 V4.69.6.0
  D:\KEIL\C251\LIB\C2SFPL.LIB (?C?CASTF)
         COMMENT TYPE 0: A251 V4.69.6.0
  D:\KEIL\C251\LIB\C2SL.LIB (?C?INITHDATA)
         COMMENT TYPE 0: A251 V4.69.6.0
  D:\KEIL\C251\LIB\C2SL.LIB (?C?SIDIV)
         COMMENT TYPE 0: A251 V4.69.6.0
  D:\KEIL\C251\LIB\C2SL.LIB (?C?LMUL)
         COMMENT TYPE 0: A251 V4.69.6.0
  D:\KEIL\C251\LIB\C2SL.LIB (?C?LIMUL)
         COMMENT TYPE 0: A251 V4.69.6.0
L251 LINKER/LOCATER V4.66.93.0                                                        10/01/2025  18:14:56  PAGE 4


  D:\KEIL\C251\LIB\C2SL.LIB (?C?ULDIV)
         COMMENT TYPE 0: A251 V4.69.6.0
  D:\KEIL\C251\LIB\C2SL.LIB (?C?SLDIV)
         COMMENT TYPE 0: A251 V4.69.6.0
  D:\KEIL\C251\LIB\C2SL.LIB (?C?BMOVEPP)
         COMMENT TYPE 0: A251 V4.69.6.0
  D:\KEIL\C251\LIB\C2SL.LIB (STRNCMP)
         COMMENT TYPE 0: C251 V5.58.7
  D:\KEIL\C251\LIB\C2SL.LIB (STRNCPY)
         COMMENT TYPE 0: C251 V5.58.7
  D:\KEIL\C251\LIB\C2SL.LIB (STRLEN)
         COMMENT TYPE 0: C251 V5.58.7
  D:\KEIL\C251\LIB\C2SL.LIB (STRCHR)
         COMMENT TYPE 0: C251 V5.58.7
  D:\KEIL\C251\LIB\C2SL.LIB (memcpy)
         COMMENT TYPE 0: C251 V5.58.7
  D:\KEIL\C251\LIB\C2SL.LIB (memset)
         COMMENT TYPE 0: C251 V5.58.7
  D:\KEIL\C251\LIB\C2SL.LIB (?C?INITHDATA_END)
         COMMENT TYPE 0: A251 V4.69.6.0


ACTIVE MEMORY CLASSES OF MODULE:  .\out_file\SEEKFREE (ai8051u_isr)

BASE        START       END         USED      MEMORY CLASS
==========================================================
000000H     000000H     0007FFH     000700H   EDATA
000000H     000000H     0007FFH               HDATA
FF0000H     FF0000H     FFFFFFH     00AA2FH   CODE
010000H     010000H     01FFFFH     000EF7H   XDATA
000000H     FF0000H     FFFFFFH     001BA7H   HCONST
000020H.0   000020H.0   00002FH.7   000000H.3 BIT
FF0000H     FF0000H     FFFFFFH     000004H   CONST
000000H     000000H     00007FH     000008H   DATA


MEMORY MAP OF MODULE:  .\out_file\SEEKFREE (ai8051u_isr)


START     STOP      LENGTH    ALIGN  RELOC    MEMORY CLASS   SEGMENT NAME
=========================================================================
000000H   000007H   000008H   ---    AT..     DATA           "REG BANK 0"
000008H.0 00001FH.7 000018H.0 ---    ---      **GAP**
000020H.0 000020H.1 000000H.2 BIT    UNIT     BIT            _BIT_GROUP_
000020H.2 000020H.2 000000H.1 BIT    UNIT     BIT            ?BI?ADC_GET
000020H.3 000020H   000000H.5 ---    ---      **GAP**
000021H   000720H   000700H   BYTE   UNIT     EDATA          ?STACK
000721H   00FFFFH   00F8DFH   ---    ---      **GAP**
010000H   01055DH   00055EH   BYTE   INSEG    XDATA          ?XD?MENU_FONT
01055EH   010763H   000206H   BYTE   UNIT     XDATA          _XDATA_GROUP_
010764H   010965H   000202H   BYTE   INSEG    XDATA          ?XD?ZF_DEVICE_TSL1401
010966H   010B35H   0001D0H   BYTE   INSEG    XDATA          ?XD?ZF_DEVICE_GPS_TAU1201
010B36H   010C72H   00013DH   BYTE   INSEG    XDATA          ?XD?SEEKFREE_ASSISTANT
010C73H   010CCBH   000059H   BYTE   INSEG    XDATA          ?XD?ZF_COMMON_DEBUG
010CCCH   010D22H   000057H   BYTE   INSEG    XDATA          ?XD?ZF_DEVICE_BLE6A20
010D23H   010D79H   000057H   BYTE   INSEG    XDATA          ?XD?ZF_DEVICE_WIRELESS_UART
010D7AH   010DB7H   00003EH   BYTE   INSEG    XDATA          ?XD?ADC_GET
010DB8H   010DF1H   00003AH   BYTE   INSEG    XDATA          ?XD?FUNCTION
010DF2H   010E0FH   00001EH   BYTE   INSEG    XDATA          ?XD?ZF_COMMON_TYPEDEF
010E10H   010E2DH   00001EH   BYTE   INSEG    XDATA          ?XD?ZF_DEVICE_IMU963RA
010E2EH   010E41H   000014H   BYTE   INSEG    XDATA          ?XD?ZF_DEVICE_ICM20602
010E42H   010E55H   000014H   BYTE   INSEG    XDATA          ?XD?ZF_DEVICE_IMU660RA
010E56H   010E62H   00000DH   BYTE   INSEG    XDATA          ?XD?ZF_DEVICE_DL1A
010E63H   010E6FH   00000DH   BYTE   INSEG    XDATA          ?XD?MENU
010E70H   010E7BH   00000CH   BYTE   INSEG    XDATA          ?XD?ZF_DRIVER_TIMER
L251 LINKER/LOCATER V4.66.93.0                                                        10/01/2025  18:14:56  PAGE 5


010E7CH   010E87H   00000CH   BYTE   INSEG    XDATA          ?XD?ZF_DRIVER_UART
010E88H   010E93H   00000CH   BYTE   INSEG    XDATA          ?XD?ZF_DEVICE_IMU660RB
010E94H   010E9EH   00000BH   BYTE   INSEG    XDATA          ?XD?KEY
010E9FH   010EA8H   00000AH   BYTE   INSEG    XDATA          ?XD?ZF_DEVICE_IPS200
010EA9H   010EB2H   00000AH   BYTE   INSEG    XDATA          ?XD?STRATEGY
010EB3H   010EBAH   000008H   BYTE   UNIT     XDATA          ?XD?SOFT_IIC_DELAY?ZF_DRIVER_SOFT_IIC
010EBBH   010EC2H   000008H   BYTE   INSEG    XDATA          ?XD?ZF_DEVICE_TYPE
010EC3H   010ECAH   000008H   BYTE   INSEG    XDATA          ?XD?ZF_DEVICE_TFT180
010ECBH   010ED2H   000008H   BYTE   INSEG    XDATA          ?XD?ZF_DEVICE_IPS114
010ED3H   010EDAH   000008H   BYTE   INSEG    XDATA          ?XD?MAIN
010EDBH   010EE0H   000006H   BYTE   INSEG    XDATA          ?XD?ZF_DRIVER_ENCODER
010EE1H   010EE4H   000004H   BYTE   INSEG    XDATA          ?XD?ZF_COMMON_CLOCK
010EE5H   010EE8H   000004H   BYTE   INSEG    XDATA          ?XD?ZF_DRIVER_DELAY
010EE9H   010EECH   000004H   BYTE   INSEG    XDATA          ?XD?SEEKFREE_ASSISTANT_INTERFACE
010EEDH   010EEFH   000003H   BYTE   UNIT     XDATA          ?XD?SOFT_IIC_READ_DATA?ZF_DRIVER_SOFT_IIC
010EF0H   010EF1H   000002H   BYTE   UNIT     XDATA          ?XD?SOFT_IIC_SEND_DATA?ZF_DRIVER_SOFT_IIC
010EF2H   010EF2H   000001H   BYTE   INSEG    XDATA          ?XD?ZF_DRIVER_ADC
010EF3H   010EF3H   000001H   BYTE   UNIT     XDATA          ?XD?SOFT_IIC_SEND_ACK?ZF_DRIVER_SOFT_IIC
010EF4H   010EF4H   000001H   BYTE   UNIT     XDATA          ?XD?SOFT_IIC_WAIT_ACK?ZF_DRIVER_SOFT_IIC
010EF5H   010EF5H   000001H   BYTE   INSEG    XDATA          ?XD?ISR
010EF6H   010EF6H   000001H   BYTE   INSEG    XDATA          ?XD?CONTROL
010EF7H   FEFFFFH   FDF109H   ---    ---      **GAP**
FF0000H   FF0002H   000003H   ---    OFFS..   CODE           ?CO?START251?4
FF0003H   FF0009H   000007H   BYTE   INSEG    CODE           ?PR?IAP_INIT?ZF_DRIVER_EEPROM
FF000AH   FF000AH   000001H   ---    ---      **GAP**
FF000BH   FF000DH   000003H   ---    OFFS..   CODE           ?PR?IV?1
FF000EH   FF001AH   00000DH   BYTE   INSEG    CODE           ?PR?TFT180_SET_COLOR?ZF_DEVICE_TFT180
FF001BH   FF001DH   000003H   ---    OFFS..   CODE           ?PR?IV?3
FF001EH   FF0020H   000003H   BYTE   INSEG    CODE           ?PR?INTERRUPT_GLOBAL_ENABLE?ZF_COMMON_INTERRUPT
FF0021H   FF0022H   000002H   BYTE   UNIT     HCONST         ?HC?MAIN
FF0023H   FF0025H   000003H   ---    OFFS..   CODE           ?PR?IV?4
FF0026H   FF0041H   00001CH   BYTE   INSEG    CODE           ?PR?IAP_SET_TPS?ZF_DRIVER_EEPROM
FF0042H   FF0042H   000001H   ---    ---      **GAP**
FF0043H   FF0045H   000003H   ---    OFFS..   CODE           ?PR?IV?8
FF0046H   FF005FH   00001AH   BYTE   INSEG    CODE           ?PR?SERVO_INIT?FUNCTION
FF0060H   FF0062H   000003H   ---    ---      **GAP**
FF0063H   FF0065H   000003H   ---    OFFS..   CODE           ?PR?IV?12
FF0066H   FF008AH   000025H   BYTE   INSEG    CODE           ?PR?MAIN?MAIN
FF008BH   FF008DH   000003H   ---    OFFS..   CODE           ?PR?IV?17
FF008EH   FF0091H   000004H   BYTE   UNIT     CONST          ?CO?PRINTF
FF0092H   FF0092H   000001H   ---    ---      **GAP**
FF0093H   FF0095H   000003H   ---    OFFS..   CODE           ?PR?IV?18
FF0096H   FF009AH   000005H   ---    ---      **GAP**
FF009BH   FF009DH   000003H   ---    OFFS..   CODE           ?PR?IV?19
FF009EH   FF00A2H   000005H   ---    ---      **GAP**
FF00A3H   FF00A5H   000003H   ---    OFFS..   CODE           ?PR?IV?20
FF00A6H   FF00BFH   00001AH   BYTE   INSEG    CODE           ?PR?HANDLE_KEY5?MENU
FF00C0H   FF00C2H   000003H   ---    ---      **GAP**
FF00C3H   FF00C5H   000003H   ---    OFFS..   CODE           ?PR?IV?24
FF00C6H   FF0198H   0000D3H   BYTE   INSEG    CODE           ?PR?GPIO_GET_LEVEL?ZF_DRIVER_GPIO
FF0199H   FF019AH   000002H   ---    ---      **GAP**
FF019BH   FF019DH   000003H   ---    OFFS..   CODE           ?CO?ai8051u_isr?1
FF019EH   FF01A8H   00000BH   BYTE   INSEG    CODE           ?PR?EEPROM_TRIG?ZF_DRIVER_EEPROM
FF01A9H   FF01AAH   000002H   ---    ---      **GAP**
FF01ABH   FF01ADH   000003H   ---    OFFS..   CODE           ?CO?ai8051u_isr?2
FF01AEH   FF01B7H   00000AH   BYTE   INSEG    CODE           ?PR?KEY3_HANDLE1?MENU
FF01B8H   FF01BAH   000003H   ---    ---      **GAP**
FF01BBH   FF01BDH   000003H   ---    OFFS..   CODE           ?CO?ai8051u_isr?3
FF01BEH   FF01C4H   000007H   BYTE   INSEG    CODE           ?PR?PIT_HANDLER0?MAIN
FF01C5H   FF01CAH   000006H   BYTE   INSEG    CODE           ?PR?SPI_WRITE_8BIT?ZF_DRIVER_SPI
FF01CBH   FF01CDH   000003H   ---    OFFS..   CODE           ?CO?ai8051u_isr?4
FF01CEH   FF021AH   00004DH   BYTE   INSEG    CODE           ?PR?FIFO_HEAD_OFFSET?ZF_COMMON_FIFO
FF021BH   FF021DH   000003H   ---    OFFS..   CODE           ?CO?ai8051u_isr?5
FF021EH   FF221DH   002000H   BYTE   UNIT     CODE           ?CO?ZF_DEVICE_CONFIG
FF221EH   FF393FH   001722H   BYTE   UNIT     CODE           ?C?LIB_CODE
L251 LINKER/LOCATER V4.66.93.0                                                        10/01/2025  18:14:56  PAGE 6


FF3940H   FF4617H   000CD8H   BYTE   UNIT     CODE           ?CO?OLED
FF4618H   FF4E34H   00081DH   BYTE   INSEG    CODE           ?PR?ZF_SPRINTF?ZF_COMMON_FUNCTION
FF4E35H   FF545DH   000629H   BYTE   INSEG    CODE           ?PR?SHOW_PARARM?FUNCTION
FF545EH   FF5A4DH   0005F0H   BYTE   UNIT     CODE           ?CO?ZF_COMMON_FONT
FF5A4EH   FF5F5DH   000510H   BYTE   INSEG    CODE           ?PR?PWM_INIT?ZF_DRIVER_PWM
FF5F5EH   FF6402H   0004A5H   BYTE   INSEG    CODE           ?PR?SPI_INIT?ZF_DRIVER_SPI
FF6403H   FF67FFH   0003FDH   BYTE   INSEG    CODE           ?PR?FIFO_WRITE_BUFFER?ZF_COMMON_FIFO
FF6800H   FF6BCCH   0003CDH   BYTE   INSEG    CODE           ?PR?GPIO_SET_DIR?ZF_DRIVER_GPIO
FF6BCDH   FF6EA8H   0002DCH   BYTE   INSEG    CODE           ?PR?TFT180_INIT?ZF_DEVICE_TFT180
FF6EA9H   FF7161H   0002B9H   BYTE   INSEG    CODE           ?PR?GPIO_SET_LEVEL_SPEED?ZF_DRIVER_GPIO
FF7162H   FF73E1H   000280H   BYTE   INSEG    CODE           ?PR?TURN_MODE_INIT?FUNCTION
FF73E2H   FF7616H   000235H   BYTE   INSEG    CODE           ?PR?UART_INIT?ZF_DRIVER_UART
FF7617H   FF783CH   000226H   BYTE   INSEG    CODE           ?PR?GPIO_SET_MODE?ZF_DRIVER_GPIO
FF783DH   FF7A17H   0001DBH   BYTE   INSEG    CODE           ?PR?PIT_INIT?ZF_DRIVER_PIT
FF7A18H   FF7BDBH   0001C4H   BYTE   INSEG    CODE           ?PR?TFT180_SHOW_FLOAT?ZF_DEVICE_TFT180
FF7BDCH   FF7D6BH   000190H   BYTE   INSEG    CODE           ?PR?PWM_SET_DUTY?ZF_DRIVER_PWM
FF7D6CH   FF7EDEH   000173H   BYTE   INSEG    CODE           ?PR?GPIO_SET_LEVEL?ZF_DRIVER_GPIO
FF7EDFH   FF8050H   000172H   BYTE   INSEG    CODE           ?PR?_M?MAIN
FF8051H   FF8197H   000147H   BYTE   INSEG    CODE           ?PR?UART_DMA_INIT?ZF_DRIVER_UART
FF8198H   FF82DDH   000146H   BYTE   INSEG    CODE           ?PR?GPIO_SET_IMPEDANCE?ZF_DRIVER_GPIO
FF82DEH   FF8412H   000135H   BYTE   INSEG    CODE           ?PR?MENU_DISPLAY_CONTENT?MENU
FF8413H   FF8545H   000133H   BYTE   INSEG    CODE           ?PR?TFT180_SHOW_INT16?ZF_DEVICE_TFT180
FF8546H   FF8667H   000122H   BYTE   INSEG    CODE           ?PR?TFT180_SET_REGION?ZF_DEVICE_TFT180
FF8668H   FF8781H   00011AH   BYTE   INSEG    CODE           ?PR?KEY_SCANER?KEY
FF8782H   FF8871H   0000F0H   BYTE   INSEG    CODE           ?PR?PID_UPDATE?CONTROL
FF8872H   FF8959H   0000E8H   BYTE   INSEG    CODE           ?PR?MOTOR_UPDATE?CONTROL
FF895AH   FF8A3BH   0000E2H   BYTE   INSEG    CODE           ?PR?UART_WRITE_BUFFER?ZF_DRIVER_UART
FF8A3CH   FF8B1BH   0000E0H   BYTE   INSEG    CODE           ?PR?TFT180_SHOW_CHAR?ZF_DEVICE_TFT180
FF8B1CH   FF8BF9H   0000DEH   BYTE   INSEG    CODE           ?PR?CLOCK_INIT?ZF_COMMON_CLOCK
FF8BFAH   FF8CD5H   0000DCH   BYTE   INSEG    CODE           ?PR?HANDLE_KEY1?MENU
FF8CD6H   FF8DA6H   0000D1H   BYTE   INSEG    CODE           ?PR?KEY3_HANDLE2?MENU
FF8DA7H   FF8E76H   0000D0H   BYTE   INSEG    CODE           ?PR?MENU_SETCHILDREN?MENU
FF8E77H   FF8F3DH   0000C7H   BYTE   INSEG    CODE           ?PR?HANDLE_KEY4?MENU
FF8F3EH   FF8FF9H   0000BCH   BYTE   INSEG    CODE           ?PR?GPIO_INIT?ZF_DRIVER_GPIO
FF8FFAH   FF90B5H   0000BCH   BYTE   INSEG    CODE           ?PR?NORMAL_PID?FUNCTION
FF90B6H   FF9170H   0000BBH   BYTE   INSEG    CODE           ?PR?TURN_MODE?KEY
FF9171H   FF9224H   0000B4H   BYTE   INSEG    CODE           ?PR?SOFT_IIC_READ_DATA?ZF_DRIVER_SOFT_IIC
FF9225H   FF92D7H   0000B3H   BYTE   INSEG    CODE           ?PR?FAST_SQRT?FUNCTION
FF92D8H   FF9388H   0000B1H   BYTE   INSEG    CODE           ?PR?ADC_SAMPLEANDFILTER?ADC_GET
FF9389H   FF9431H   0000A9H   BYTE   INSEG    CODE           ?PR?TFT180_SHOW_STRING?ZF_DEVICE_TFT180
FF9432H   FF94D7H   0000A6H   BYTE   INSEG    CODE           ?PR?ADC_FILTER?ADC_GET
FF94D8H   FF957CH   0000A5H   BYTE   INSEG    CODE           ?PR?DMA_UART1_IRQHANDLER?ISR
FF957DH   FF9613H   000097H   BYTE   INSEG    CODE           ?PR?DEBUG_INIT?ZF_COMMON_DEBUG
FF9614H   FF96A9H   000096H   BYTE   INSEG    CODE           ?PR?INIT_ALL?FUNCTION
FF96AAH   FF973DH   000094H   BYTE   INSEG    CODE           ?PR?NUMBER_CONVERSION_ASCII?ZF_COMMON_FUNCTION
FF973EH   FF97CEH   000091H   BYTE   INSEG    CODE           ?PR?SOFT_IIC_SEND_DATA?ZF_DRIVER_SOFT_IIC
FF97CFH   FF985EH   000090H   BYTE   INSEG    CODE           ?PR?UART_RX_START_BUFF?ZF_DRIVER_UART
FF985FH   FF98E7H   000089H   BYTE   INSEG    CODE           ?PR?DMA_UART2_IRQHANDLER?ISR
FF98E8H   FF9970H   000089H   BYTE   INSEG    CODE           ?PR?DMA_UART3_IRQHANDLER?ISR
FF9971H   FF99F9H   000089H   BYTE   INSEG    CODE           ?PR?DMA_UART4_IRQHANDLER?ISR
FF99FAH   FF9A82H   000089H   BYTE   INSEG    CODE           ?PR?EEPROM_SAVE_NUM?EEPROM
FF9A83H   FF9B0AH   000088H   BYTE   INSEG    CODE           ?PR?ADC_INIT?ZF_DRIVER_ADC
FF9B0BH   FF9B91H   000087H   BYTE   INSEG    CODE           ?PR?UNIFICATION?FUNCTION
FF9B92H   FF9C14H   000083H   BYTE   INSEG    CODE           ?PR?REFESH_ARROW?MENU
FF9C15H   FF9C95H   000081H   BYTE   INSEG    CODE           ?PR?FIFO_INIT?ZF_COMMON_FIFO
FF9C96H   FF9D0EH   000079H   BYTE   INSEG    CODE           ?PR?SOFT_IIC_WAIT_ACK?ZF_DRIVER_SOFT_IIC
FF9D0FH   FF9D85H   000077H   BYTE   INSEG    CODE           ?PR?SHOW_BUJIN?MENU
FF9D86H   FF9DFBH   000076H   BYTE   INSEG    CODE           ?PR?MOTOR_INIT?FUNCTION
FF9DFCH   FF9E6EH   000073H   BYTE   INSEG    CODE           ?PR?SOFT_IIC_SEND_ACK?ZF_DRIVER_SOFT_IIC
FF9E6FH   FF9ED9H   00006BH   BYTE   INSEG    CODE           ?PR?SYSTEM_DELAY_MS?ZF_DRIVER_DELAY
FF9EDAH   FF9F41H   000068H   BYTE   INSEG    CODE           ?PR?DEBUG_ASSERT_HANDLER?ZF_COMMON_DEBUG
FF9F42H   FF9FA8H   000067H   BYTE   INSEG    CODE           ?PR?TFT180_CLEAR?ZF_DEVICE_TFT180
FF9FA9H   FFA00AH   000062H   BYTE   INSEG    CODE           ?PR?SOFT_IIC_STOP?ZF_DRIVER_SOFT_IIC
FFA00BH   FFA06CH   000062H   BYTE   INSEG    CODE           ?PR?UART_QUERY_BYTE?ZF_DRIVER_UART
FFA06DH   FFA0C9H   00005DH   BYTE   INSEG    CODE           ?PR?SYSTEM_DELAY_INIT?ZF_DRIVER_DELAY
L251 LINKER/LOCATER V4.66.93.0                                                        10/01/2025  18:14:56  PAGE 7


FFA0CAH   FFA0EAH   000021H   BYTE   UNIT     CODE           ?C_C51STARTUP
FFA0EBH   FFA0ECH   000002H   BYTE   UNIT     CODE           ?C_C51STARTUP?1
FFA0EDH   FFA11DH   000031H   BYTE   UNIT     CODE           ?C_C51STARTUP?2
FFA11EH   FFA120H   000003H   BYTE   UNIT     CODE           ?C_C51STARTUP?3
FFA121H   FFA177H   000057H   BYTE   INSEG    CODE           ?PR?SOFT_IIC_START?ZF_DRIVER_SOFT_IIC
FFA178H   FFA1CDH   000056H   BYTE   INSEG    CODE           ?PR?SERVO_TURN_PID?CONTROL
FFA1CEH   FFA223H   000056H   BYTE   INSEG    CODE           ?PR?EEPROM_READ_NUM?EEPROM
FFA224H   FFA279H   000056H   BYTE   INSEG    CODE           ?PR?SERVE_TEST?DEVICE_TEST
FFA27AH   FFA2CBH   000052H   BYTE   INSEG    CODE           ?PR?HANDLE_KEY3?MENU
FFA2CCH   FFA317H   00004CH   BYTE   INSEG    CODE           ?PR?TIMER_FUNCITON_CHECK?ZF_DRIVER_TIMER
FFA318H   FFA363H   00004CH   BYTE   INSEG    CODE           ?PR?UART_FUNCITON_CHECK?ZF_DRIVER_UART
FFA364H   FFA3AEH   00004BH   BYTE   INSEG    CODE           ?PR?TM11_IRQHANDLER?ISR
FFA3AFH   FFA3F7H   000049H   BYTE   INSEG    CODE           ?PR?IAP_READ_BUFF?ZF_DRIVER_EEPROM
FFA3F8H   FFA440H   000049H   BYTE   INSEG    CODE           ?PR?IAP_WRITE_BUFF?ZF_DRIVER_EEPROM
FFA441H   FFA488H   000048H   BYTE   INSEG    CODE           ?PR?PRINTF_REVERSE_ORDER?ZF_COMMON_FUNCTION
FFA489H   FFA4CDH   000045H   BYTE   INSEG    CODE           ?PR?UART_RX_INTERRUPT?ZF_DRIVER_UART
FFA4CEH   FFA512H   000045H   BYTE   INSEG    CODE           ?PR?KEY_NUMBER?KEY
FFA513H   FFA555H   000043H   BYTE   INSEG    CODE           ?PR?HANDLE_KEY2?MENU
FFA556H   FFA597H   000042H   BYTE   INSEG    CODE           ?PR?SPI_WRITE_DAT?ZF_DRIVER_SPI
FFA598H   FFA5D5H   00003EH   BYTE   INSEG    CODE           ?PR?TM0_IRQHANDLER?ISR
FFA5D6H   FFA613H   00003EH   BYTE   INSEG    CODE           ?PR?TM1_IRQHANDLER?ISR
FFA614H   FFA651H   00003EH   BYTE   INSEG    CODE           ?PR?TM2_IRQHANDLER?ISR
FFA652H   FFA68FH   00003EH   BYTE   INSEG    CODE           ?PR?TM3_IRQHANDLER?ISR
FFA690H   FFA6CDH   00003EH   BYTE   INSEG    CODE           ?PR?TM4_IRQHANDLER?ISR
FFA6CEH   FFA70AH   00003DH   BYTE   INSEG    CODE           ?PR?MOTORL_SETSPEED?CONTROL
FFA70BH   FFA747H   00003DH   BYTE   INSEG    CODE           ?PR?MOTORR_SETSPEED?CONTROL
FFA748H   FFA780H   000039H   BYTE   INSEG    CODE           ?PR?DEBUG_INTERRUPR_HANDLER?ZF_COMMON_DEBUG
FFA781H   FFA7B8H   000038H   BYTE   INSEG    CODE           ?PR?SOFT_IIC_DELAY?ZF_DRIVER_SOFT_IIC
FFA7B9H   FFA7EBH   000033H   BYTE   INSEG    CODE           ?PR?PROTECT?FUNCTION
FFA7ECH   FFA81EH   000033H   BYTE   INSEG    CODE           ?PR?PWM_TEST?DEVICE_TEST
FFA81FH   FFA84EH   000030H   BYTE   INSEG    CODE           ?PR?ADC_CONVERT?ZF_DRIVER_ADC
FFA84FH   FFA87EH   000030H   BYTE   INSEG    CODE           ?PR?MENU_INIT?MENU
FFA87FH   FFA8ACH   00002EH   BYTE   INSEG    CODE           ?PR?MENU_HANDLE_KEY?MENU
FFA8ADH   FFA8D9H   00002DH   BYTE   INSEG    CODE           ?PR?ADC_GETINIT?ADC_GET
FFA8DAH   FFA903H   00002AH   BYTE   INSEG    CODE           ?PR?IAP_WRITE_BYTE?ZF_DRIVER_EEPROM
FFA904H   FFA92BH   000028H   BYTE   INSEG    CODE           ?PR?IAP_ERASE_PAGE?ZF_DRIVER_EEPROM
FFA92CH   FFA952H   000027H   BYTE   INSEG    CODE           ?PR?TFT180_SET_DIR?ZF_DEVICE_TFT180
FFA953H   FFA977H   000025H   BYTE   INSEG    CODE           ?PR?MEMCPY?_?MEMCPY
FFA978H   FFA99AH   000023H   BYTE   INSEG    CODE           ?PR?IAP_READ_BYTE?ZF_DRIVER_EEPROM
FFA99BH   FFA9B9H   00001FH   BYTE   INSEG    CODE           ?PR?SPI_WRITE_16BIT?ZF_DRIVER_SPI
FFA9BAH   FFA9CFH   000016H   BYTE   INSEG    CODE           ?PR?TFT180_WRITE_INDEX?ZF_DEVICE_TFT180
FFA9D0H   FFA9E3H   000014H   BYTE   INSEG    CODE           ?PR?UART_WRITE_BYTE?ZF_DRIVER_UART
FFA9E4H   FFA9F5H   000012H   BYTE   INSEG    CODE           ?PR?CAR_STOP?FUNCTION
FFA9F6H   FFAA06H   000011H   BYTE   INSEG    CODE           ?PR?SHOW_ALL_MENU?MENU
FFAA07H   FFAA17H   000011H   BYTE   INSEG    CODE           ?PR?SET_SEVO?DEVICE_TEST
FFAA18H   FFAA27H   000010H   BYTE   INSEG    CODE           ?PR?PUTCHAR?ZF_COMMON_DEBUG
FFAA28H   FFAA37H   000010H   BYTE   INSEG    CODE           ?PR?SER_SERVO_DUTY?CONTROL
FFAA38H   FFAA47H   000010H   BYTE   INSEG    CODE           ?PR?GO_FUNCTION?FUNCTION
FFAA48H   FFAA4EH   000007H   BYTE   INSEG    CODE           ?PR?PIT_HANDLER1?MAIN
FFAA4FH   FFB4D8H   000A8AH   BYTE   UNIT     HCONST         ?C_INITHDATA
FFB4D9H   FFBAD8H   000600H   BYTE   UNIT     HCONST         ?HC?EEPROM
FFBAD9H   FFBCD8H   000200H   BYTE   UNIT     HCONST         ?HC?ZF_DRIVER_EEPROM
FFBCD9H   FFBE07H   00012FH   BYTE   UNIT     HCONST         ?HC?ZF_DEVICE_DL1A
FFBE08H   FFBEF1H   0000EAH   BYTE   UNIT     HCONST         ?HC?FUNCTION
FFBEF2H   FFBFC1H   0000D0H   BYTE   UNIT     HCONST         ?HC?ZF_DEVICE_IMU963RA
FFBFC2H   FFC068H   0000A7H   BYTE   UNIT     HCONST         ?HC?ZF_DEVICE_IMU660RA
FFC069H   FFC10CH   0000A4H   BYTE   UNIT     HCONST         ?HC?SEEKFREE_ASSISTANT
FFC10DH   FFC1AEH   0000A2H   BYTE   UNIT     HCONST         ?HC?ZF_DEVICE_GPS_TAU1201
FFC1AFH   FFC238H   00008AH   BYTE   UNIT     HCONST         ?HC?ZF_DRIVER_PWM
FFC239H   FFC2C0H   000088H   BYTE   UNIT     HCONST         ?HC?ZF_DEVICE_ICM20602
FFC2C1H   FFC2FFH   00003FH   BYTE   UNIT     HCONST         ?HC?ZF_COMMON_FUNCTION
FFC300H   FFC333H   000034H   BYTE   UNIT     HCONST         ?HC?ZF_DEVICE_WIRELESS_UART
FFC334H   FFC366H   000033H   BYTE   UNIT     HCONST         ?HC?ZF_DEVICE_TFT180
FFC367H   FFC399H   000033H   BYTE   UNIT     HCONST         ?HC?ZF_DEVICE_IPS114
FFC39AH   FFC3CCH   000033H   BYTE   UNIT     HCONST         ?HC?ZF_DEVICE_IPS200
L251 LINKER/LOCATER V4.66.93.0                                                        10/01/2025  18:14:56  PAGE 8


FFC3CDH   FFC3FCH   000030H   BYTE   UNIT     HCONST         ?HC?KEY
FFC3FDH   FFC42BH   00002FH   BYTE   UNIT     HCONST         ?HC?ZF_DRIVER_SOFT_IIC
FFC42CH   FFC45AH   00002FH   BYTE   UNIT     HCONST         ?HC?ZF_DRIVER_SOFT_SPI
FFC45BH   FFC488H   00002EH   BYTE   UNIT     HCONST         ?HC?ZF_DRIVER_ENCODER
FFC489H   FFC4B6H   00002EH   BYTE   UNIT     HCONST         ?HC?ZF_DEVICE_BLE6A20
FFC4B7H   FFC4E1H   00002BH   BYTE   UNIT     HCONST         ?HC?ZF_COMMON_FIFO
FFC4E2H   FFC50CH   00002BH   BYTE   UNIT     HCONST         ?HC?ZF_DRIVER_GPIO
FFC50DH   FFC537H   00002BH   BYTE   UNIT     HCONST         ?HC?ZF_DRIVER_UART
FFC538H   FFC561H   00002AH   BYTE   UNIT     HCONST         ?HC?ZF_DRIVER_ADC
FFC562H   FFC58BH   00002AH   BYTE   UNIT     HCONST         ?HC?ZF_DRIVER_SPI
FFC58CH   FFC5B3H   000028H   BYTE   UNIT     HCONST         ?HC?MENU
FFC5B4H   FFC5D8H   000025H   BYTE   UNIT     HCONST         ?HC?ZF_COMMON_DEBUG
FFC5D9H   FFC5F3H   00001BH   BYTE   UNIT     HCONST         ?HC?ZF_DEVICE_IMU660RB

* * * * * * * * *   R E M O V E D     S E G M E N T S   * * * * * * * *
   *DEL*:           00003EH   BYTE   INSEG    CODE           ?PR?DEBUG_READ_BUFFER?ZF_COMMON_DEBUG
   *DEL*:           000045H   BYTE   INSEG    CODE           ?PR?DEBUG_SEND_BUFFER?ZF_COMMON_DEBUG
   *DEL*:           000004H   BYTE   UNIT     XDATA          ?XD?DEBUG_SEND_BUFFER?ZF_COMMON_DEBUG
   *DEL*:           000004H   BYTE   UNIT     XDATA          ?XD?DEBUG_READ_BUFFER?ZF_COMMON_DEBUG
   *DEL*:           00043DH   BYTE   INSEG    CODE           ?PR?FIFO_READ_BUFFER?ZF_COMMON_FIFO
   *DEL*:           0000C7H   BYTE   INSEG    CODE           ?PR?FIFO_CLEAR?ZF_COMMON_FIFO
   *DEL*:           00004DH   BYTE   INSEG    CODE           ?PR?FIFO_END_OFFSET?ZF_COMMON_FIFO
   *DEL*:           000033H   BYTE   INSEG    CODE           ?PR?FIFO_USED?ZF_COMMON_FIFO
   *DEL*:           000002H   BYTE   UNIT     XDATA          ?XD?FIFO_CLEAR?ZF_COMMON_FIFO
   *DEL*:           000014H   BYTE   UNIT     XDATA          ?XD?FIFO_READ_BUFFER?ZF_COMMON_FIFO
   *DEL*:           0002D1H   BYTE   INSEG    CODE           ?PR?FUNC_DOUBLE_TO_STR?ZF_COMMON_FUNCTION
   *DEL*:           000245H   BYTE   INSEG    CODE           ?PR?FUNC_STR_TO_DOUBLE?ZF_COMMON_FUNCTION
   *DEL*:           000298H   BYTE   INSEG    CODE           ?PR?FUNC_FLOAT_TO_STR?ZF_COMMON_FUNCTION
   *DEL*:           00019DH   BYTE   INSEG    CODE           ?PR?FUNC_STR_TO_FLOAT?ZF_COMMON_FUNCTION
   *DEL*:           000024H   BYTE   INSEG    CODE           ?PR?FUNC_SOFT_DELAY?ZF_COMMON_FUNCTION
   *DEL*:           0000CCH   BYTE   INSEG    CODE           ?PR?FUNC_UINT_TO_STR?ZF_COMMON_FUNCTION
   *DEL*:           000079H   BYTE   INSEG    CODE           ?PR?FUNC_STR_TO_UINT?ZF_COMMON_FUNCTION
   *DEL*:           0000FAH   BYTE   INSEG    CODE           ?PR?FUNC_HEX_TO_STR?ZF_COMMON_FUNCTION
   *DEL*:           00011BH   BYTE   INSEG    CODE           ?PR?FUNC_STR_TO_HEX?ZF_COMMON_FUNCTION
   *DEL*:           000149H   BYTE   INSEG    CODE           ?PR?FUNC_INT_TO_STR?ZF_COMMON_FUNCTION
   *DEL*:           0000BAH   BYTE   INSEG    CODE           ?PR?FUNC_STR_TO_INT?ZF_COMMON_FUNCTION
   *DEL*:           000019H   BYTE   INSEG    CODE           ?PR?FUNC_GET_GREATEST_COMMON_DIVISOR?ZF_COMMON_FUNCTION
   *DEL*:           000004H   BYTE   UNIT     XDATA          ?XD?FUNC_SOFT_DELAY?ZF_COMMON_FUNCTION
   *DEL*:           000005H   BYTE   UNIT     XDATA          ?XD?FUNC_STR_TO_INT?ZF_COMMON_FUNCTION
   *DEL*:           000019H   BYTE   UNIT     XDATA          ?XD?FUNC_INT_TO_STR?ZF_COMMON_FUNCTION
   *DEL*:           000004H   BYTE   UNIT     XDATA          ?XD?FUNC_STR_TO_UINT?ZF_COMMON_FUNCTION
   *DEL*:           000015H   BYTE   UNIT     XDATA          ?XD?FUNC_UINT_TO_STR?ZF_COMMON_FUNCTION
   *DEL*:           00000DH   BYTE   UNIT     XDATA          ?XD?FUNC_STR_TO_FLOAT?ZF_COMMON_FUNCTION
   *DEL*:           000026H   BYTE   UNIT     XDATA          ?XD?FUNC_FLOAT_TO_STR?ZF_COMMON_FUNCTION
   *DEL*:           000019H   BYTE   UNIT     XDATA          ?XD?FUNC_STR_TO_DOUBLE?ZF_COMMON_FUNCTION
   *DEL*:           000038H   BYTE   UNIT     XDATA          ?XD?FUNC_DOUBLE_TO_STR?ZF_COMMON_FUNCTION
   *DEL*:           00000AH   BYTE   UNIT     XDATA          ?XD?FUNC_STR_TO_HEX?ZF_COMMON_FUNCTION
   *DEL*:           000021H   BYTE   UNIT     XDATA          ?XD?FUNC_HEX_TO_STR?ZF_COMMON_FUNCTION
   *DEL*:           000003H   BYTE   INSEG    CODE           ?PR?INTERRUPT_GLOBAL_DISABLE?ZF_COMMON_INTERRUPT
   *DEL*:           0000BAH   BYTE   INSEG    CODE           ?PR?INTERRUPT_SET_PRIORITY?ZF_COMMON_INTERRUPT
   *DEL*:           00006EH   BYTE   INSEG    CODE           ?PR?ADC_MEAN_FILTER_CONVERT?ZF_DRIVER_ADC
   *DEL*:           000004H   BYTE   UNIT     XDATA          ?XD?ADC_MEAN_FILTER_CONVERT?ZF_DRIVER_ADC
   *DEL*:           00006BH   BYTE   INSEG    CODE           ?PR?SYSTEM_DELAY_US?ZF_DRIVER_DELAY
   *DEL*:           000004H   BYTE   INSEG    CODE           ?PR?IAP_IDLE?ZF_DRIVER_EEPROM
   *DEL*:           0000F8H   BYTE   INSEG    CODE           ?PR?EXTERN_IAP_WRITE_BUFF?ZF_DRIVER_EEPROM
   *DEL*:           00000DH   BYTE   INSEG    CODE           ?PR?IAP_GET_CMD_STATE?ZF_DRIVER_EEPROM
   *DEL*:           000206H   BYTE   UNIT     XDATA          ?XD?EXTERN_IAP_WRITE_BUFF?ZF_DRIVER_EEPROM
   *DEL*:           0000A5H   BYTE   INSEG    CODE           ?PR?ENCODER_GET_COUNT?ZF_DRIVER_ENCODER
   *DEL*:           00010CH   BYTE   INSEG    CODE           ?PR?ENCODER_DIR_INIT?ZF_DRIVER_ENCODER
   *DEL*:           000095H   BYTE   INSEG    CODE           ?PR?ENCODER_CLEAR_COUNT?ZF_DRIVER_ENCODER
   *DEL*:           000002H   BYTE   UNIT     XDATA          ?XD?ENCODER_DIR_INIT?ZF_DRIVER_ENCODER
   *DEL*:           00001BH   BYTE   INSEG    CODE           ?PR?GPIO_TOGGLE_LEVEL?ZF_DRIVER_GPIO
   *DEL*:           00025FH   BYTE   INSEG    CODE           ?PR?PWM_SET_FREQ?ZF_DRIVER_PWM
   *DEL*:           000010H   BYTE   UNIT     XDATA          ?XD?PWM_SET_FREQ?ZF_DRIVER_PWM
   *DEL*:           000052H   BYTE   INSEG    CODE           ?PR?SOFT_IIC_WRITE_8BIT_REGISTER?ZF_DRIVER_SOFT_IIC
L251 LINKER/LOCATER V4.66.93.0                                                        10/01/2025  18:14:56  PAGE 9


   *DEL*:           00010DH   BYTE   INSEG    CODE           ?PR?SOFT_IIC_READ_16BIT_REGISTERS?ZF_DRIVER_SOFT_IIC
   *DEL*:           00006EH   BYTE   INSEG    CODE           ?PR?SOFT_IIC_SCCB_READ_REGISTER?ZF_DRIVER_SOFT_IIC
   *DEL*:           0000A5H   BYTE   INSEG    CODE           ?PR?SOFT_IIC_READ_16BIT_REGISTER?ZF_DRIVER_SOFT_IIC
   *DEL*:           000176H   BYTE   INSEG    CODE           ?PR?SOFT_IIC_TRANSFER_16BIT_ARRAY?ZF_DRIVER_SOFT_IIC
   *DEL*:           0000D0H   BYTE   INSEG    CODE           ?PR?SOFT_IIC_WRITE_16BIT_REGISTERS?ZF_DRIVER_SOFT_IIC
   *DEL*:           000052H   BYTE   INSEG    CODE           ?PR?SOFT_IIC_SCCB_WRITE_REGISTER?ZF_DRIVER_SOFT_IIC
   *DEL*:           00004CH   BYTE   INSEG    CODE           ?PR?SOFT_IIC_READ_8BIT?ZF_DRIVER_SOFT_IIC
   *DEL*:           0000BAH   BYTE   INSEG    CODE           ?PR?SOFT_IIC_READ_8BIT_ARRAY?ZF_DRIVER_SOFT_IIC
   *DEL*:           000082H   BYTE   INSEG    CODE           ?PR?SOFT_IIC_WRITE_16BIT_REGISTER?ZF_DRIVER_SOFT_IIC
   *DEL*:           000043H   BYTE   INSEG    CODE           ?PR?SOFT_IIC_WRITE_8BIT?ZF_DRIVER_SOFT_IIC
   *DEL*:           000098H   BYTE   INSEG    CODE           ?PR?SOFT_IIC_WRITE_8BIT_ARRAY?ZF_DRIVER_SOFT_IIC
   *DEL*:           00006FH   BYTE   INSEG    CODE           ?PR?SOFT_IIC_READ_16BIT?ZF_DRIVER_SOFT_IIC
   *DEL*:           0000E1H   BYTE   INSEG    CODE           ?PR?SOFT_IIC_READ_16BIT_ARRAY?ZF_DRIVER_SOFT_IIC
   *DEL*:           0000A6H   BYTE   INSEG    CODE           ?PR?SOFT_IIC_INIT?ZF_DRIVER_SOFT_IIC
   *DEL*:           0000D7H   BYTE   INSEG    CODE           ?PR?SOFT_IIC_READ_8BIT_REGISTERS?ZF_DRIVER_SOFT_IIC
   *DEL*:           00005CH   BYTE   INSEG    CODE           ?PR?SOFT_IIC_WRITE_16BIT?ZF_DRIVER_SOFT_IIC
   *DEL*:           0000B4H   BYTE   INSEG    CODE           ?PR?SOFT_IIC_WRITE_16BIT_ARRAY?ZF_DRIVER_SOFT_IIC
   *DEL*:           000069H   BYTE   INSEG    CODE           ?PR?SOFT_IIC_READ_8BIT_REGISTER?ZF_DRIVER_SOFT_IIC
   *DEL*:           000130H   BYTE   INSEG    CODE           ?PR?SOFT_IIC_TRANSFER_8BIT_ARRAY?ZF_DRIVER_SOFT_IIC
   *DEL*:           0000A5H   BYTE   INSEG    CODE           ?PR?SOFT_IIC_WRITE_8BIT_REGISTERS?ZF_DRIVER_SOFT_IIC
   *DEL*:           000001H   BYTE   UNIT     XDATA          ?XD?SOFT_IIC_WRITE_8BIT?ZF_DRIVER_SOFT_IIC
   *DEL*:           000008H   BYTE   UNIT     XDATA          ?XD?SOFT_IIC_WRITE_8BIT_ARRAY?ZF_DRIVER_SOFT_IIC
   *DEL*:           000002H   BYTE   UNIT     XDATA          ?XD?SOFT_IIC_WRITE_16BIT?ZF_DRIVER_SOFT_IIC
   *DEL*:           000008H   BYTE   UNIT     XDATA          ?XD?SOFT_IIC_WRITE_16BIT_ARRAY?ZF_DRIVER_SOFT_IIC
   *DEL*:           000002H   BYTE   UNIT     XDATA          ?XD?SOFT_IIC_WRITE_8BIT_REGISTER?ZF_DRIVER_SOFT_IIC
   *DEL*:           000009H   BYTE   UNIT     XDATA          ?XD?SOFT_IIC_WRITE_8BIT_REGISTERS?ZF_DRIVER_SOFT_IIC
   *DEL*:           000004H   BYTE   UNIT     XDATA          ?XD?SOFT_IIC_WRITE_16BIT_REGISTER?ZF_DRIVER_SOFT_IIC
   *DEL*:           00000AH   BYTE   UNIT     XDATA          ?XD?SOFT_IIC_WRITE_16BIT_REGISTERS?ZF_DRIVER_SOFT_IIC
   *DEL*:           000001H   BYTE   UNIT     XDATA          ?XD?SOFT_IIC_READ_8BIT?ZF_DRIVER_SOFT_IIC
   *DEL*:           000008H   BYTE   UNIT     XDATA          ?XD?SOFT_IIC_READ_8BIT_ARRAY?ZF_DRIVER_SOFT_IIC
   *DEL*:           000002H   BYTE   UNIT     XDATA          ?XD?SOFT_IIC_READ_16BIT?ZF_DRIVER_SOFT_IIC
   *DEL*:           000008H   BYTE   UNIT     XDATA          ?XD?SOFT_IIC_READ_16BIT_ARRAY?ZF_DRIVER_SOFT_IIC
   *DEL*:           000002H   BYTE   UNIT     XDATA          ?XD?SOFT_IIC_READ_8BIT_REGISTER?ZF_DRIVER_SOFT_IIC
   *DEL*:           000009H   BYTE   UNIT     XDATA          ?XD?SOFT_IIC_READ_8BIT_REGISTERS?ZF_DRIVER_SOFT_IIC
   *DEL*:           000004H   BYTE   UNIT     XDATA          ?XD?SOFT_IIC_READ_16BIT_REGISTER?ZF_DRIVER_SOFT_IIC
   *DEL*:           00000AH   BYTE   UNIT     XDATA          ?XD?SOFT_IIC_READ_16BIT_REGISTERS?ZF_DRIVER_SOFT_IIC
   *DEL*:           000010H   BYTE   UNIT     XDATA          ?XD?SOFT_IIC_TRANSFER_8BIT_ARRAY?ZF_DRIVER_SOFT_IIC
   *DEL*:           000010H   BYTE   UNIT     XDATA          ?XD?SOFT_IIC_TRANSFER_16BIT_ARRAY?ZF_DRIVER_SOFT_IIC
   *DEL*:           000002H   BYTE   UNIT     XDATA          ?XD?SOFT_IIC_SCCB_WRITE_REGISTER?ZF_DRIVER_SOFT_IIC
   *DEL*:           000002H   BYTE   UNIT     XDATA          ?XD?SOFT_IIC_SCCB_READ_REGISTER?ZF_DRIVER_SOFT_IIC
   *DEL*:           000009H   BYTE   UNIT     XDATA          ?XD?SOFT_IIC_INIT?ZF_DRIVER_SOFT_IIC
   *DEL*:           00023EH   BYTE   INSEG    CODE           ?PR?SOFT_SPI_INIT?ZF_DRIVER_SOFT_SPI
   *DEL*:           0000BBH   BYTE   INSEG    CODE           ?PR?SOFT_SPI_READ_8BIT_REGISTERS?ZF_DRIVER_SOFT_SPI
   *DEL*:           00004FH   BYTE   INSEG    CODE           ?PR?SOFT_SPI_WRITE_16BIT?ZF_DRIVER_SOFT_SPI
   *DEL*:           00010EH   BYTE   INSEG    CODE           ?PR?SOFT_SPI_8BIT_DATA_HANDLER?ZF_DRIVER_SOFT_SPI
   *DEL*:           0000A0H   BYTE   INSEG    CODE           ?PR?SOFT_SPI_WRITE_16BIT_ARRAY?ZF_DRIVER_SOFT_SPI
   *DEL*:           00005EH   BYTE   INSEG    CODE           ?PR?SOFT_SPI_READ_8BIT_REGISTER?ZF_DRIVER_SOFT_SPI
   *DEL*:           000102H   BYTE   INSEG    CODE           ?PR?SOFT_SPI_TRANSFER_8BIT?ZF_DRIVER_SOFT_SPI
   *DEL*:           0000ADH   BYTE   INSEG    CODE           ?PR?SOFT_SPI_WRITE_8BIT_REGISTERS?ZF_DRIVER_SOFT_SPI
   *DEL*:           00005AH   BYTE   INSEG    CODE           ?PR?SOFT_SPI_WRITE_8BIT_REGISTER?ZF_DRIVER_SOFT_SPI
   *DEL*:           0000B8H   BYTE   INSEG    CODE           ?PR?SOFT_SPI_READ_16BIT_REGISTERS?ZF_DRIVER_SOFT_SPI
   *DEL*:           000133H   BYTE   INSEG    CODE           ?PR?SOFT_SPI_16BIT_DATA_HANDLER?ZF_DRIVER_SOFT_SPI
   *DEL*:           00006AH   BYTE   INSEG    CODE           ?PR?SOFT_SPI_READ_16BIT_REGISTER?ZF_DRIVER_SOFT_SPI
   *DEL*:           000104H   BYTE   INSEG    CODE           ?PR?SOFT_SPI_TRANSFER_16BIT?ZF_DRIVER_SOFT_SPI
   *DEL*:           0000A7H   BYTE   INSEG    CODE           ?PR?SOFT_SPI_WRITE_16BIT_REGISTERS?ZF_DRIVER_SOFT_SPI
   *DEL*:           000051H   BYTE   INSEG    CODE           ?PR?SOFT_SPI_READ_8BIT?ZF_DRIVER_SOFT_SPI
   *DEL*:           0000AEH   BYTE   INSEG    CODE           ?PR?SOFT_SPI_READ_8BIT_ARRAY?ZF_DRIVER_SOFT_SPI
   *DEL*:           000060H   BYTE   INSEG    CODE           ?PR?SOFT_SPI_WRITE_16BIT_REGISTER?ZF_DRIVER_SOFT_SPI
   *DEL*:           00004BH   BYTE   INSEG    CODE           ?PR?SOFT_SPI_WRITE_8BIT?ZF_DRIVER_SOFT_SPI
   *DEL*:           0000A0H   BYTE   INSEG    CODE           ?PR?SOFT_SPI_WRITE_8BIT_ARRAY?ZF_DRIVER_SOFT_SPI
   *DEL*:           000026H   BYTE   INSEG    CODE           ?PR?SOFT_SPI_DELAY?ZF_DRIVER_SOFT_SPI
   *DEL*:           000056H   BYTE   INSEG    CODE           ?PR?SOFT_SPI_READ_16BIT?ZF_DRIVER_SOFT_SPI
   *DEL*:           0000B1H   BYTE   INSEG    CODE           ?PR?SOFT_SPI_READ_16BIT_ARRAY?ZF_DRIVER_SOFT_SPI
   *DEL*:           000004H   BYTE   UNIT     XDATA          ?XD?SOFT_SPI_DELAY?ZF_DRIVER_SOFT_SPI
   *DEL*:           000003H   BYTE   UNIT     XDATA          ?XD?SOFT_SPI_8BIT_DATA_HANDLER?ZF_DRIVER_SOFT_SPI
L251 LINKER/LOCATER V4.66.93.0                                                        10/01/2025  18:14:56  PAGE 10


   *DEL*:           000005H   BYTE   UNIT     XDATA          ?XD?SOFT_SPI_16BIT_DATA_HANDLER?ZF_DRIVER_SOFT_SPI
   *DEL*:           000001H   BYTE   UNIT     XDATA          ?XD?SOFT_SPI_WRITE_8BIT?ZF_DRIVER_SOFT_SPI
   *DEL*:           000008H   BYTE   UNIT     XDATA          ?XD?SOFT_SPI_WRITE_8BIT_ARRAY?ZF_DRIVER_SOFT_SPI
   *DEL*:           000002H   BYTE   UNIT     XDATA          ?XD?SOFT_SPI_WRITE_16BIT?ZF_DRIVER_SOFT_SPI
   *DEL*:           000008H   BYTE   UNIT     XDATA          ?XD?SOFT_SPI_WRITE_16BIT_ARRAY?ZF_DRIVER_SOFT_SPI
   *DEL*:           000002H   BYTE   UNIT     XDATA          ?XD?SOFT_SPI_WRITE_8BIT_REGISTER?ZF_DRIVER_SOFT_SPI
   *DEL*:           000009H   BYTE   UNIT     XDATA          ?XD?SOFT_SPI_WRITE_8BIT_REGISTERS?ZF_DRIVER_SOFT_SPI
   *DEL*:           000004H   BYTE   UNIT     XDATA          ?XD?SOFT_SPI_WRITE_16BIT_REGISTER?ZF_DRIVER_SOFT_SPI
   *DEL*:           00000AH   BYTE   UNIT     XDATA          ?XD?SOFT_SPI_WRITE_16BIT_REGISTERS?ZF_DRIVER_SOFT_SPI
   *DEL*:           000001H   BYTE   UNIT     XDATA          ?XD?SOFT_SPI_READ_8BIT?ZF_DRIVER_SOFT_SPI
   *DEL*:           000008H   BYTE   UNIT     XDATA          ?XD?SOFT_SPI_READ_8BIT_ARRAY?ZF_DRIVER_SOFT_SPI
   *DEL*:           000001H   BYTE   UNIT     XDATA          ?XD?SOFT_SPI_READ_16BIT?ZF_DRIVER_SOFT_SPI
   *DEL*:           000008H   BYTE   UNIT     XDATA          ?XD?SOFT_SPI_READ_16BIT_ARRAY?ZF_DRIVER_SOFT_SPI
   *DEL*:           000002H   BYTE   UNIT     XDATA          ?XD?SOFT_SPI_READ_8BIT_REGISTER?ZF_DRIVER_SOFT_SPI
   *DEL*:           000009H   BYTE   UNIT     XDATA          ?XD?SOFT_SPI_READ_8BIT_REGISTERS?ZF_DRIVER_SOFT_SPI
   *DEL*:           000004H   BYTE   UNIT     XDATA          ?XD?SOFT_SPI_READ_16BIT_REGISTER?ZF_DRIVER_SOFT_SPI
   *DEL*:           00000AH   BYTE   UNIT     XDATA          ?XD?SOFT_SPI_READ_16BIT_REGISTERS?ZF_DRIVER_SOFT_SPI
   *DEL*:           00000CH   BYTE   UNIT     XDATA          ?XD?SOFT_SPI_TRANSFER_8BIT?ZF_DRIVER_SOFT_SPI
   *DEL*:           00000CH   BYTE   UNIT     XDATA          ?XD?SOFT_SPI_TRANSFER_16BIT?ZF_DRIVER_SOFT_SPI
   *DEL*:           000011H   BYTE   UNIT     XDATA          ?XD?SOFT_SPI_INIT?ZF_DRIVER_SOFT_SPI
   *DEL*:           00001BH   BYTE   INSEG    CODE           ?PR?SPI_WRITE_8BIT_REGISTER?ZF_DRIVER_SPI
   *DEL*:           00007FH   BYTE   INSEG    CODE           ?PR?SPI_READ_16BIT_REGISTERS?ZF_DRIVER_SPI
   *DEL*:           000057H   BYTE   INSEG    CODE           ?PR?SPI_READ_16BIT_REGISTER?ZF_DRIVER_SPI
   *DEL*:           0000C3H   BYTE   INSEG    CODE           ?PR?SPI_TRANSFER_16BIT?ZF_DRIVER_SPI
   *DEL*:           000060H   BYTE   INSEG    CODE           ?PR?SPI_WRITE_16BIT_REGISTERS?ZF_DRIVER_SPI
   *DEL*:           000005H   BYTE   INSEG    CODE           ?PR?SPI_READ_8BIT?ZF_DRIVER_SPI
   *DEL*:           000037H   BYTE   INSEG    CODE           ?PR?SPI_READ_8BIT_ARRAY?ZF_DRIVER_SPI
   *DEL*:           000045H   BYTE   INSEG    CODE           ?PR?SPI_WRITE_16BIT_REGISTER?ZF_DRIVER_SPI
   *DEL*:           000036H   BYTE   INSEG    CODE           ?PR?SPI_WRITE_8BIT_ARRAY?ZF_DRIVER_SPI
   *DEL*:           000021H   BYTE   INSEG    CODE           ?PR?SPI_READ_16BIT?ZF_DRIVER_SPI
   *DEL*:           000051H   BYTE   INSEG    CODE           ?PR?SPI_READ_16BIT_ARRAY?ZF_DRIVER_SPI
   *DEL*:           000044H   BYTE   INSEG    CODE           ?PR?SPI_READ_8BIT_REGISTERS?ZF_DRIVER_SPI
   *DEL*:           000056H   BYTE   INSEG    CODE           ?PR?SPI_READ_DAT?ZF_DRIVER_SPI
   *DEL*:           00004CH   BYTE   INSEG    CODE           ?PR?SPI_WRITE_16BIT_ARRAY?ZF_DRIVER_SPI
   *DEL*:           000014H   BYTE   INSEG    CODE           ?PR?SPI_READ_8BIT_REGISTER?ZF_DRIVER_SPI
   *DEL*:           000077H   BYTE   INSEG    CODE           ?PR?SPI_TRANSFER_8BIT?ZF_DRIVER_SPI
   *DEL*:           000043H   BYTE   INSEG    CODE           ?PR?SPI_WRITE_8BIT_REGISTERS?ZF_DRIVER_SPI
   *DEL*:           000006H   BYTE   UNIT     XDATA          ?XD?SPI_WRITE_8BIT_ARRAY?ZF_DRIVER_SPI
   *DEL*:           000006H   BYTE   UNIT     XDATA          ?XD?SPI_WRITE_16BIT_ARRAY?ZF_DRIVER_SPI
   *DEL*:           000006H   BYTE   UNIT     XDATA          ?XD?SPI_WRITE_8BIT_REGISTERS?ZF_DRIVER_SPI
   *DEL*:           000002H   BYTE   UNIT     XDATA          ?XD?SPI_WRITE_16BIT_REGISTER?ZF_DRIVER_SPI
   *DEL*:           000008H   BYTE   UNIT     XDATA          ?XD?SPI_WRITE_16BIT_REGISTERS?ZF_DRIVER_SPI
   *DEL*:           000006H   BYTE   UNIT     XDATA          ?XD?SPI_READ_8BIT_ARRAY?ZF_DRIVER_SPI
   *DEL*:           000006H   BYTE   UNIT     XDATA          ?XD?SPI_READ_16BIT_ARRAY?ZF_DRIVER_SPI
   *DEL*:           000006H   BYTE   UNIT     XDATA          ?XD?SPI_READ_8BIT_REGISTERS?ZF_DRIVER_SPI
   *DEL*:           000002H   BYTE   UNIT     XDATA          ?XD?SPI_READ_16BIT_REGISTER?ZF_DRIVER_SPI
   *DEL*:           000008H   BYTE   UNIT     XDATA          ?XD?SPI_READ_16BIT_REGISTERS?ZF_DRIVER_SPI
   *DEL*:           00000AH   BYTE   UNIT     XDATA          ?XD?SPI_TRANSFER_8BIT?ZF_DRIVER_SPI
   *DEL*:           00000AH   BYTE   UNIT     XDATA          ?XD?SPI_TRANSFER_16BIT?ZF_DRIVER_SPI
   *DEL*:           000052H   BYTE   INSEG    CODE           ?PR?UART_WRITE_STRING?ZF_DRIVER_UART
   *DEL*:           000053H   BYTE   INSEG    CODE           ?PR?UART_READ_BYTE?ZF_DRIVER_UART
   *DEL*:           000104H   BYTE   UNIT     XDATA          ?XD?UART_WRITE_STRING?ZF_DRIVER_UART
   *DEL*:           00000FH   BYTE   INSEG    CODE           ?PR?SET_TOF_TYPE?ZF_DEVICE_TYPE
   *DEL*:           000043H   BYTE   INSEG    CODE           ?PR?SET_GPS_TYPE?ZF_DEVICE_TYPE
   *DEL*:           000043H   BYTE   INSEG    CODE           ?PR?SET_WIRELESS_TYPE?ZF_DEVICE_TYPE
   *DEL*:           000061H   BYTE   INSEG    CODE           ?PR?TFT180_DRAW_POINT?ZF_DEVICE_TFT180
   *DEL*:           0000F3H   BYTE   INSEG    CODE           ?PR?TFT180_SHOW_UINT16?ZF_DEVICE_TFT180
   *DEL*:           000109H   BYTE   INSEG    CODE           ?PR?TFT180_SHOW_INT32?ZF_DEVICE_TFT180
   *DEL*:           0001E8H   BYTE   INSEG    CODE           ?PR?TFT180_SHOW_WAVE?ZF_DEVICE_TFT180
   *DEL*:           0000C3H   BYTE   INSEG    CODE           ?PR?TFT180_SHOW_UINT8?ZF_DEVICE_TFT180
   *DEL*:           0000F3H   BYTE   INSEG    CODE           ?PR?TFT180_SHOW_INT8?ZF_DEVICE_TFT180
   *DEL*:           000002H   BYTE   UNIT     XDATA          ?XD?TFT180_DRAW_POINT?ZF_DEVICE_TFT180
   *DEL*:           000005H   BYTE   UNIT     XDATA          ?XD?TFT180_SHOW_INT8?ZF_DEVICE_TFT180
   *DEL*:           000005H   BYTE   UNIT     XDATA          ?XD?TFT180_SHOW_UINT8?ZF_DEVICE_TFT180
   *DEL*:           000008H   BYTE   UNIT     XDATA          ?XD?TFT180_SHOW_UINT16?ZF_DEVICE_TFT180
L251 LINKER/LOCATER V4.66.93.0                                                        10/01/2025  18:14:56  PAGE 11


   *DEL*:           000028H   BYTE   UNIT     XDATA          ?XD?TFT180_SHOW_INT32?ZF_DEVICE_TFT180
   *DEL*:           00001CH   BYTE   UNIT     XDATA          ?XD?TFT180_SHOW_WAVE?ZF_DEVICE_TFT180
   *DEL*:           0001C4H   BYTE   INSEG    CODE           ?PR?IPS114_SHOW_FLOAT?ZF_DEVICE_IPS114
   *DEL*:           000061H   BYTE   INSEG    CODE           ?PR?IPS114_DRAW_POINT?ZF_DEVICE_IPS114
   *DEL*:           0000A9H   BYTE   INSEG    CODE           ?PR?IPS114_SHOW_STRING?ZF_DEVICE_IPS114
   *DEL*:           0000E0H   BYTE   INSEG    CODE           ?PR?IPS114_SHOW_CHAR?ZF_DEVICE_IPS114
   *DEL*:           0000F3H   BYTE   INSEG    CODE           ?PR?IPS114_SHOW_UINT16?ZF_DEVICE_IPS114
   *DEL*:           00000DH   BYTE   INSEG    CODE           ?PR?IPS114_SET_COLOR?ZF_DEVICE_IPS114
   *DEL*:           000109H   BYTE   INSEG    CODE           ?PR?IPS114_SHOW_INT32?ZF_DEVICE_IPS114
   *DEL*:           000133H   BYTE   INSEG    CODE           ?PR?IPS114_SHOW_INT16?ZF_DEVICE_IPS114
   *DEL*:           0001E8H   BYTE   INSEG    CODE           ?PR?IPS114_SHOW_WAVE?ZF_DEVICE_IPS114
   *DEL*:           000027H   BYTE   INSEG    CODE           ?PR?IPS114_SET_DIR?ZF_DEVICE_IPS114
   *DEL*:           0001D0H   BYTE   INSEG    CODE           ?PR?IPS114_SHOW_CHINESE?ZF_DEVICE_IPS114
   *DEL*:           00005AH   BYTE   INSEG    CODE           ?PR?IPS114_CLEAR?ZF_DEVICE_IPS114
   *DEL*:           0000C3H   BYTE   INSEG    CODE           ?PR?IPS114_SHOW_UINT8?ZF_DEVICE_IPS114
   *DEL*:           0000F3H   BYTE   INSEG    CODE           ?PR?IPS114_SHOW_INT8?ZF_DEVICE_IPS114
   *DEL*:           000016H   BYTE   INSEG    CODE           ?PR?IPS114_WRITE_INDEX?ZF_DEVICE_IPS114
   *DEL*:           0001CFH   BYTE   INSEG    CODE           ?PR?IPS114_SET_REGION?ZF_DEVICE_IPS114
   *DEL*:           00025AH   BYTE   INSEG    CODE           ?PR?IPS114_INIT?ZF_DEVICE_IPS114
   *DEL*:           000004H   BYTE   UNIT     XDATA          ?XD?IPS114_SET_REGION?ZF_DEVICE_IPS114
   *DEL*:           000002H   BYTE   UNIT     XDATA          ?XD?IPS114_CLEAR?ZF_DEVICE_IPS114
   *DEL*:           000002H   BYTE   UNIT     XDATA          ?XD?IPS114_DRAW_POINT?ZF_DEVICE_IPS114
   *DEL*:           000004H   BYTE   UNIT     XDATA          ?XD?IPS114_SHOW_CHAR?ZF_DEVICE_IPS114
   *DEL*:           000006H   BYTE   UNIT     XDATA          ?XD?IPS114_SHOW_STRING?ZF_DEVICE_IPS114
   *DEL*:           000005H   BYTE   UNIT     XDATA          ?XD?IPS114_SHOW_INT8?ZF_DEVICE_IPS114
   *DEL*:           000005H   BYTE   UNIT     XDATA          ?XD?IPS114_SHOW_UINT8?ZF_DEVICE_IPS114
   *DEL*:           000008H   BYTE   UNIT     XDATA          ?XD?IPS114_SHOW_INT16?ZF_DEVICE_IPS114
   *DEL*:           000008H   BYTE   UNIT     XDATA          ?XD?IPS114_SHOW_UINT16?ZF_DEVICE_IPS114
   *DEL*:           000028H   BYTE   UNIT     XDATA          ?XD?IPS114_SHOW_INT32?ZF_DEVICE_IPS114
   *DEL*:           000031H   BYTE   UNIT     XDATA          ?XD?IPS114_SHOW_FLOAT?ZF_DEVICE_IPS114
   *DEL*:           00001CH   BYTE   UNIT     XDATA          ?XD?IPS114_SHOW_WAVE?ZF_DEVICE_IPS114
   *DEL*:           000015H   BYTE   UNIT     XDATA          ?XD?IPS114_SHOW_CHINESE?ZF_DEVICE_IPS114
   *DEL*:           0001C4H   BYTE   INSEG    CODE           ?PR?IPS200_SHOW_FLOAT?ZF_DEVICE_IPS200
   *DEL*:           000061H   BYTE   INSEG    CODE           ?PR?IPS200_DRAW_POINT?ZF_DEVICE_IPS200
   *DEL*:           0000A9H   BYTE   INSEG    CODE           ?PR?IPS200_SHOW_STRING?ZF_DEVICE_IPS200
   *DEL*:           0000E0H   BYTE   INSEG    CODE           ?PR?IPS200_SHOW_CHAR?ZF_DEVICE_IPS200
   *DEL*:           0000F3H   BYTE   INSEG    CODE           ?PR?IPS200_SHOW_UINT16?ZF_DEVICE_IPS200
   *DEL*:           00000DH   BYTE   INSEG    CODE           ?PR?IPS200_SET_COLOR?ZF_DEVICE_IPS200
   *DEL*:           000109H   BYTE   INSEG    CODE           ?PR?IPS200_SHOW_INT32?ZF_DEVICE_IPS200
   *DEL*:           000133H   BYTE   INSEG    CODE           ?PR?IPS200_SHOW_INT16?ZF_DEVICE_IPS200
   *DEL*:           0001E8H   BYTE   INSEG    CODE           ?PR?IPS200_SHOW_WAVE?ZF_DEVICE_IPS200
   *DEL*:           000007H   BYTE   INSEG    CODE           ?PR?IPS200_SET_DIR?ZF_DEVICE_IPS200
   *DEL*:           0001D0H   BYTE   INSEG    CODE           ?PR?IPS200_SHOW_CHINESE?ZF_DEVICE_IPS200
   *DEL*:           00005AH   BYTE   INSEG    CODE           ?PR?IPS200_CLEAR?ZF_DEVICE_IPS200
   *DEL*:           0000C3H   BYTE   INSEG    CODE           ?PR?IPS200_SHOW_UINT8?ZF_DEVICE_IPS200
   *DEL*:           0000F3H   BYTE   INSEG    CODE           ?PR?IPS200_SHOW_INT8?ZF_DEVICE_IPS200
   *DEL*:           000016H   BYTE   INSEG    CODE           ?PR?IPS200_WRITE_INDEX?ZF_DEVICE_IPS200
   *DEL*:           0000CCH   BYTE   INSEG    CODE           ?PR?IPS200_SET_REGION?ZF_DEVICE_IPS200
   *DEL*:           00025AH   BYTE   INSEG    CODE           ?PR?IPS200_INIT?ZF_DEVICE_IPS200
   *DEL*:           000004H   BYTE   UNIT     XDATA          ?XD?IPS200_SET_REGION?ZF_DEVICE_IPS200
   *DEL*:           000002H   BYTE   UNIT     XDATA          ?XD?IPS200_CLEAR?ZF_DEVICE_IPS200
   *DEL*:           000002H   BYTE   UNIT     XDATA          ?XD?IPS200_DRAW_POINT?ZF_DEVICE_IPS200
   *DEL*:           000004H   BYTE   UNIT     XDATA          ?XD?IPS200_SHOW_CHAR?ZF_DEVICE_IPS200
   *DEL*:           000006H   BYTE   UNIT     XDATA          ?XD?IPS200_SHOW_STRING?ZF_DEVICE_IPS200
   *DEL*:           000005H   BYTE   UNIT     XDATA          ?XD?IPS200_SHOW_INT8?ZF_DEVICE_IPS200
   *DEL*:           000005H   BYTE   UNIT     XDATA          ?XD?IPS200_SHOW_UINT8?ZF_DEVICE_IPS200
   *DEL*:           000008H   BYTE   UNIT     XDATA          ?XD?IPS200_SHOW_INT16?ZF_DEVICE_IPS200
   *DEL*:           000008H   BYTE   UNIT     XDATA          ?XD?IPS200_SHOW_UINT16?ZF_DEVICE_IPS200
   *DEL*:           000028H   BYTE   UNIT     XDATA          ?XD?IPS200_SHOW_INT32?ZF_DEVICE_IPS200
   *DEL*:           000031H   BYTE   UNIT     XDATA          ?XD?IPS200_SHOW_FLOAT?ZF_DEVICE_IPS200
   *DEL*:           00001CH   BYTE   UNIT     XDATA          ?XD?IPS200_SHOW_WAVE?ZF_DEVICE_IPS200
   *DEL*:           000015H   BYTE   UNIT     XDATA          ?XD?IPS200_SHOW_CHINESE?ZF_DEVICE_IPS200
   *DEL*:           00003FH   BYTE   INSEG    CODE           ?PR?DL1A_TIMEOUT_MICROSECONDS_TO_MCLKS?ZF_DEVICE_DL1A
   *DEL*:           000041H   BYTE   INSEG    CODE           ?PR?DL1A_TIMEOUT_MCLKS_TO_MICROSECONDS?ZF_DEVICE_DL1A
   *DEL*:           000083H   BYTE   INSEG    CODE           ?PR?DL1A_SET_SIGNAL_RATE_LIMIT?ZF_DEVICE_DL1A
L251 LINKER/LOCATER V4.66.93.0                                                        10/01/2025  18:14:56  PAGE 12


   *DEL*:           000018H   BYTE   INSEG    CODE           ?PR?DL1A_DECODE_TIMEOUT?ZF_DEVICE_DL1A
   *DEL*:           000233H   BYTE   INSEG    CODE           ?PR?DL1A_GET_SPAD_INFO?ZF_DEVICE_DL1A
   *DEL*:           000038H   BYTE   INSEG    CODE           ?PR?DL1A_ENCODE_TIMEOUT?ZF_DEVICE_DL1A
   *DEL*:           00006AH   BYTE   INSEG    CODE           ?PR?DL1A_GET_SEQUENCE_STEP_ENABLES?ZF_DEVICE_DL1A
   *DEL*:           0000C7H   BYTE   INSEG    CODE           ?PR?DL1A_GET_DISTANCE?ZF_DEVICE_DL1A
   *DEL*:           0000BAH   BYTE   INSEG    CODE           ?PR?DL1A_PERFORM_SINGLE_REF_CALIBRATION?ZF_DEVICE_DL1A
   *DEL*:           00013CH   BYTE   INSEG    CODE           ?PR?DL1A_GET_SEQUENCE_STEP_TIMEOUTS?ZF_DEVICE_DL1A
   *DEL*:           000001H   BYTE   INSEG    CODE           ?PR?DL1A_INT_HANDLER?ZF_DEVICE_DL1A
   *DEL*:           00009BH   BYTE   INSEG    CODE           ?PR?DL1A_GET_MEASUREMENT_TIMING_BUDGET?ZF_DEVICE_DL1A
   *DEL*:           0001D4H   BYTE   INSEG    CODE           ?PR?DL1A_SET_MEASUREMENT_TIMING_BUDGET?ZF_DEVICE_DL1A
   *DEL*:           0004C9H   BYTE   INSEG    CODE           ?PR?DL1A_INIT?ZF_DEVICE_DL1A
   *DEL*:           000086H   BYTE   INSEG    CODE           ?PR?DL1A_GET_VCSEL_PULSE_PERIOD?ZF_DEVICE_DL1A
   *DEL*:           000008H   BYTE   UNIT     XDATA          ?XD?DL1A_GET_SPAD_INFO?ZF_DEVICE_DL1A
   *DEL*:           000001H   BYTE   UNIT     XDATA          ?XD?DL1A_GET_SEQUENCE_STEP_ENABLES?ZF_DEVICE_DL1A
   *DEL*:           000001H   BYTE   UNIT     XDATA          ?XD?DL1A_GET_VCSEL_PULSE_PERIOD?ZF_DEVICE_DL1A
   *DEL*:           000008H   BYTE   UNIT     XDATA          ?XD?DL1A_GET_SEQUENCE_STEP_TIMEOUTS?ZF_DEVICE_DL1A
   *DEL*:           000003H   BYTE   UNIT     XDATA          ?XD?DL1A_PERFORM_SINGLE_REF_CALIBRATION?ZF_DEVICE_DL1A
   *DEL*:           00002BH   BYTE   UNIT     XDATA          ?XD?DL1A_SET_MEASUREMENT_TIMING_BUDGET?ZF_DEVICE_DL1A
   *DEL*:           00001BH   BYTE   UNIT     XDATA          ?XD?DL1A_GET_MEASUREMENT_TIMING_BUDGET?ZF_DEVICE_DL1A
   *DEL*:           000003H   BYTE   UNIT     XDATA          ?XD?DL1A_SET_SIGNAL_RATE_LIMIT?ZF_DEVICE_DL1A
   *DEL*:           000003H   BYTE   UNIT     XDATA          ?XD?DL1A_GET_DISTANCE?ZF_DEVICE_DL1A
   *DEL*:           0000CAH   BYTE   UNIT     XDATA          ?XD?DL1A_INIT?ZF_DEVICE_DL1A
   *DEL*:           00005EH   BYTE   INSEG    CODE           ?PR?BLE6A20_READ_BUFFER?ZF_DEVICE_BLE6A20
   *DEL*:           0000CFH   BYTE   INSEG    CODE           ?PR?BLE6A20_SEND_BUFFER?ZF_DEVICE_BLE6A20
   *DEL*:           00003FH   BYTE   INSEG    CODE           ?PR?BLE6A20_SEND_STRING?ZF_DEVICE_BLE6A20
   *DEL*:           000026H   BYTE   INSEG    CODE           ?PR?BLE6A20_CALLBACK?ZF_DEVICE_BLE6A20
   *DEL*:           000087H   BYTE   INSEG    CODE           ?PR?BLE6A20_INIT?ZF_DEVICE_BLE6A20
   *DEL*:           000044H   BYTE   INSEG    CODE           ?PR?BLE6A20_SEND_BYTE?ZF_DEVICE_BLE6A20
   *DEL*:           000008H   BYTE   UNIT     XDATA          ?XD?BLE6A20_SEND_BUFFER?ZF_DEVICE_BLE6A20
   *DEL*:           000004H   BYTE   UNIT     XDATA          ?XD?BLE6A20_SEND_STRING?ZF_DEVICE_BLE6A20
   *DEL*:           000004H   BYTE   UNIT     XDATA          ?XD?BLE6A20_READ_BUFFER?ZF_DEVICE_BLE6A20
   *DEL*:           000001H   BYTE   UNIT     XDATA          ?XD?BLE6A20_CALLBACK?ZF_DEVICE_BLE6A20
   *DEL*:           0000CFH   BYTE   INSEG    CODE           ?PR?WIRELESS_UART_SEND_BUFFER?ZF_DEVICE_WIRELESS_UART
   *DEL*:           00003FH   BYTE   INSEG    CODE           ?PR?WIRELESS_UART_SEND_STRING?ZF_DEVICE_WIRELESS_UART
   *DEL*:           000026H   BYTE   INSEG    CODE           ?PR?WIRELESS_UART_CALLBACK?ZF_DEVICE_WIRELESS_UART
   *DEL*:           000080H   BYTE   INSEG    CODE           ?PR?WIRELESS_UART_INIT?ZF_DEVICE_WIRELESS_UART
   *DEL*:           000044H   BYTE   INSEG    CODE           ?PR?WIRELESS_UART_SEND_BYTE?ZF_DEVICE_WIRELESS_UART
   *DEL*:           00005EH   BYTE   INSEG    CODE           ?PR?WIRELESS_UART_READ_BUFFER?ZF_DEVICE_WIRELESS_UART
   *DEL*:           000008H   BYTE   UNIT     XDATA          ?XD?WIRELESS_UART_SEND_BUFFER?ZF_DEVICE_WIRELESS_UART
   *DEL*:           000004H   BYTE   UNIT     XDATA          ?XD?WIRELESS_UART_SEND_STRING?ZF_DEVICE_WIRELESS_UART
   *DEL*:           000004H   BYTE   UNIT     XDATA          ?XD?WIRELESS_UART_READ_BUFFER?ZF_DEVICE_WIRELESS_UART
   *DEL*:           000001H   BYTE   UNIT     XDATA          ?XD?WIRELESS_UART_CALLBACK?ZF_DEVICE_WIRELESS_UART
   *DEL*:           00001AH   BYTE   INSEG    CODE           ?PR?ICM20602_READ_REGISTER?ZF_DEVICE_ICM20602
   *DEL*:           00000CH   BYTE   INSEG    CODE           ?PR?ICM20602_WRITE_REGISTER?ZF_DEVICE_ICM20602
   *DEL*:           000021H   BYTE   INSEG    CODE           ?PR?ICM20602_SIMSPI_WR_BYTE?ZF_DEVICE_ICM20602
   *DEL*:           000031H   BYTE   INSEG    CODE           ?PR?ICM20602_SELF_CHECK?ZF_DEVICE_ICM20602
   *DEL*:           00003FH   BYTE   INSEG    CODE           ?PR?ICM20602_SIMSPI_R_REG_BYTES?ZF_DEVICE_ICM20602
   *DEL*:           000018H   BYTE   INSEG    CODE           ?PR?ICM20602_SIMSPI_R_REG_BYTE?ZF_DEVICE_ICM20602
   *DEL*:           000011H   BYTE   INSEG    CODE           ?PR?ICM20602_SIMSPI_W_REG_BYTE?ZF_DEVICE_ICM20602
   *DEL*:           0001B9H   BYTE   INSEG    CODE           ?PR?ICM20602_INIT?ZF_DEVICE_ICM20602
   *DEL*:           000054H   BYTE   INSEG    CODE           ?PR?ICM20602_GET_ACC?ZF_DEVICE_ICM20602
   *DEL*:           000016H   BYTE   INSEG    CODE           ?PR?ICM20602_READ_REGISTERS?ZF_DEVICE_ICM20602
   *DEL*:           000054H   BYTE   INSEG    CODE           ?PR?ICM20602_GET_GYRO?ZF_DEVICE_ICM20602
   *DEL*:           000004H   BYTE   UNIT     XDATA          ?XD?ICM20602_SIMSPI_R_REG_BYTES?ZF_DEVICE_ICM20602
   *DEL*:           000001H   BYTE   UNIT     XDATA          ?XD?ICM20602_READ_REGISTER?ZF_DEVICE_ICM20602
   *DEL*:           000006H   BYTE   UNIT     XDATA          ?XD?ICM20602_GET_ACC?ZF_DEVICE_ICM20602
   *DEL*:           000006H   BYTE   UNIT     XDATA          ?XD?ICM20602_GET_GYRO?ZF_DEVICE_ICM20602
   *DEL*:           000054H   BYTE   INSEG    CODE           ?PR?IMU660RA_GET_GYRO?ZF_DEVICE_IMU660RA
   *DEL*:           00001EH   BYTE   INSEG    CODE           ?PR?IMU660RA_READ_REGISTER?ZF_DEVICE_IMU660RA
   *DEL*:           000014H   BYTE   INSEG    CODE           ?PR?IMU660RA_WRITE_REGISTERS?ZF_DEVICE_IMU660RA
   *DEL*:           00000CH   BYTE   INSEG    CODE           ?PR?IMU660RA_WRITE_REGISTER?ZF_DEVICE_IMU660RA
   *DEL*:           000023H   BYTE   INSEG    CODE           ?PR?IMU660RA_SIMSPI_WR_BYTE?ZF_DEVICE_IMU660RA
   *DEL*:           000041H   BYTE   INSEG    CODE           ?PR?IMU660RA_SELF_CHECK?ZF_DEVICE_IMU660RA
   *DEL*:           00003FH   BYTE   INSEG    CODE           ?PR?IMU660RA_SIMSPI_R_REG_BYTES?ZF_DEVICE_IMU660RA
   *DEL*:           000039H   BYTE   INSEG    CODE           ?PR?IMU660RA_SIMSPI_W_REG_BYTES?ZF_DEVICE_IMU660RA
L251 LINKER/LOCATER V4.66.93.0                                                        10/01/2025  18:14:56  PAGE 13


   *DEL*:           000011H   BYTE   INSEG    CODE           ?PR?IMU660RA_SIMSPI_W_REG_BYTE?ZF_DEVICE_IMU660RA
   *DEL*:           0001E0H   BYTE   INSEG    CODE           ?PR?IMU660RA_INIT?ZF_DEVICE_IMU660RA
   *DEL*:           000054H   BYTE   INSEG    CODE           ?PR?IMU660RA_GET_ACC?ZF_DEVICE_IMU660RA
   *DEL*:           000079H   BYTE   INSEG    CODE           ?PR?IMU660RA_READ_REGISTERS?ZF_DEVICE_IMU660RA
   *DEL*:           000004H   BYTE   UNIT     XDATA          ?XD?IMU660RA_SIMSPI_W_REG_BYTES?ZF_DEVICE_IMU660RA
   *DEL*:           000004H   BYTE   UNIT     XDATA          ?XD?IMU660RA_SIMSPI_R_REG_BYTES?ZF_DEVICE_IMU660RA
   *DEL*:           000002H   BYTE   UNIT     XDATA          ?XD?IMU660RA_READ_REGISTER?ZF_DEVICE_IMU660RA
   *DEL*:           00000EH   BYTE   UNIT     XDATA          ?XD?IMU660RA_READ_REGISTERS?ZF_DEVICE_IMU660RA
   *DEL*:           000006H   BYTE   UNIT     XDATA          ?XD?IMU660RA_GET_ACC?ZF_DEVICE_IMU660RA
   *DEL*:           000006H   BYTE   UNIT     XDATA          ?XD?IMU660RA_GET_GYRO?ZF_DEVICE_IMU660RA
   *DEL*:           000054H   BYTE   INSEG    CODE           ?PR?IMU660RB_GET_GYRO?ZF_DEVICE_IMU660RB
   *DEL*:           00001AH   BYTE   INSEG    CODE           ?PR?IMU660RB_READ_REGISTER?ZF_DEVICE_IMU660RB
   *DEL*:           0000B1H   BYTE   INSEG    CODE           ?PR?IMU660RB_GYRO_TRANSITION?ZF_DEVICE_IMU660RB
   *DEL*:           00000CH   BYTE   INSEG    CODE           ?PR?IMU660RB_WRITE_REGISTER?ZF_DEVICE_IMU660RB
   *DEL*:           000023H   BYTE   INSEG    CODE           ?PR?IMU660RB_SIMSPI_WR_BYTE?ZF_DEVICE_IMU660RB
   *DEL*:           00002FH   BYTE   INSEG    CODE           ?PR?IMU660RB_SELF_CHECK?ZF_DEVICE_IMU660RB
   *DEL*:           00003FH   BYTE   INSEG    CODE           ?PR?IMU660RB_SIMSPI_R_REG_BYTES?ZF_DEVICE_IMU660RB
   *DEL*:           00001CH   BYTE   INSEG    CODE           ?PR?IMU660RB_SIMSPI_R_REG_BYTE?ZF_DEVICE_IMU660RB
   *DEL*:           000011H   BYTE   INSEG    CODE           ?PR?IMU660RB_SIMSPI_W_REG_BYTE?ZF_DEVICE_IMU660RB
   *DEL*:           00006AH   BYTE   INSEG    CODE           ?PR?IMU660RB_INIT?ZF_DEVICE_IMU660RB
   *DEL*:           000054H   BYTE   INSEG    CODE           ?PR?IMU660RB_GET_ACC?ZF_DEVICE_IMU660RB
   *DEL*:           000075H   BYTE   INSEG    CODE           ?PR?IMU660RB_ACC_TRANSITION?ZF_DEVICE_IMU660RB
   *DEL*:           000016H   BYTE   INSEG    CODE           ?PR?IMU660RB_READ_REGISTERS?ZF_DEVICE_IMU660RB
   *DEL*:           000004H   BYTE   UNIT     XDATA          ?XD?IMU660RB_SIMSPI_R_REG_BYTES?ZF_DEVICE_IMU660RB
   *DEL*:           000001H   BYTE   UNIT     XDATA          ?XD?IMU660RB_READ_REGISTER?ZF_DEVICE_IMU660RB
   *DEL*:           000006H   BYTE   UNIT     XDATA          ?XD?IMU660RB_GET_ACC?ZF_DEVICE_IMU660RB
   *DEL*:           000006H   BYTE   UNIT     XDATA          ?XD?IMU660RB_GET_GYRO?ZF_DEVICE_IMU660RB
   *DEL*:           000054H   BYTE   INSEG    CODE           ?PR?IMU963RA_GET_GYRO?ZF_DEVICE_IMU963RA
   *DEL*:           000023H   BYTE   INSEG    CODE           ?PR?IMU963RA_SIMSPI_WR_BYTE?ZF_DEVICE_IMU963RA
   *DEL*:           000052H   BYTE   INSEG    CODE           ?PR?IMU963RA_READ_MAG_REGISTER?ZF_DEVICE_IMU963RA
   *DEL*:           00002CH   BYTE   INSEG    CODE           ?PR?IMU963RA_CONNECT_MAG?ZF_DEVICE_IMU963RA
   *DEL*:           000016H   BYTE   INSEG    CODE           ?PR?IMU963RA_READ_ACC_GYRO_REGISTERS?ZF_DEVICE_IMU963RA
   *DEL*:           000066H   BYTE   INSEG    CODE           ?PR?IMU963RA_WRITE_MAG_REGISTER?ZF_DEVICE_IMU963RA
   *DEL*:           00001FH   BYTE   INSEG    CODE           ?PR?IMU963RA_READ_ACC_GYRO_REGISTER?ZF_DEVICE_IMU963RA
   *DEL*:           00003FH   BYTE   INSEG    CODE           ?PR?IMU963RA_SIMSPI_R_REG_BYTES?ZF_DEVICE_IMU963RA
   *DEL*:           00001CH   BYTE   INSEG    CODE           ?PR?IMU963RA_SIMSPI_R_REG_BYTE?ZF_DEVICE_IMU963RA
   *DEL*:           000034H   BYTE   INSEG    CODE           ?PR?IMU963RA_MAG_SELF_CHECK?ZF_DEVICE_IMU963RA
   *DEL*:           00000CH   BYTE   INSEG    CODE           ?PR?IMU963RA_WRITE_ACC_GYRO_REGISTER?ZF_DEVICE_IMU963RA
   *DEL*:           000017H   BYTE   INSEG    CODE           ?PR?IMU963RA_SIMSPI_W_REG_BYTE?ZF_DEVICE_IMU963RA
   *DEL*:           0002DBH   BYTE   INSEG    CODE           ?PR?IMU963RA_INIT?ZF_DEVICE_IMU963RA
   *DEL*:           000044H   BYTE   INSEG    CODE           ?PR?IMU963RA_ACC_GYRO_SELF_CHECK?ZF_DEVICE_IMU963RA
   *DEL*:           000054H   BYTE   INSEG    CODE           ?PR?IMU963RA_GET_ACC?ZF_DEVICE_IMU963RA
   *DEL*:           00006BH   BYTE   INSEG    CODE           ?PR?IMU963RA_GET_MAG?ZF_DEVICE_IMU963RA
   *DEL*:           000004H   BYTE   UNIT     XDATA          ?XD?IMU963RA_SIMSPI_R_REG_BYTES?ZF_DEVICE_IMU963RA
   *DEL*:           000001H   BYTE   UNIT     XDATA          ?XD?IMU963RA_READ_ACC_GYRO_REGISTER?ZF_DEVICE_IMU963RA
   *DEL*:           000002H   BYTE   UNIT     XDATA          ?XD?IMU963RA_WRITE_MAG_REGISTER?ZF_DEVICE_IMU963RA
   *DEL*:           000006H   BYTE   UNIT     XDATA          ?XD?IMU963RA_GET_ACC?ZF_DEVICE_IMU963RA
   *DEL*:           000006H   BYTE   UNIT     XDATA          ?XD?IMU963RA_GET_GYRO?ZF_DEVICE_IMU963RA
   *DEL*:           000006H   BYTE   UNIT     XDATA          ?XD?IMU963RA_GET_MAG?ZF_DEVICE_IMU963RA
   *DEL*:           000094H   BYTE   INSEG    CODE           ?PR?GET_DOUBLE_NUMBER?ZF_DEVICE_GPS_TAU1201
   *DEL*:           00007DH   BYTE   INSEG    CODE           ?PR?GET_FLOAT_NUMBER?ZF_DEVICE_GPS_TAU1201
   *DEL*:           0000C5H   BYTE   INSEG    CODE           ?PR?UTC_TO_BTC?ZF_DEVICE_GPS_TAU1201
   *DEL*:           000372H   BYTE   INSEG    CODE           ?PR?GET_TWO_POINTS_DISTANCE?ZF_DEVICE_GPS_TAU1201
   *DEL*:           0000D9H   BYTE   INSEG    CODE           ?PR?GPS_GNGGA_PARSE?ZF_DEVICE_GPS_TAU1201
   *DEL*:           0005A6H   BYTE   INSEG    CODE           ?PR?GPS_GNRMC_PARSE?ZF_DEVICE_GPS_TAU1201
   *DEL*:           000196H   BYTE   INSEG    CODE           ?PR?GPS_DATA_PARSE?ZF_DEVICE_GPS_TAU1201
   *DEL*:           00006EH   BYTE   INSEG    CODE           ?PR?GET_INT_NUMBER?ZF_DEVICE_GPS_TAU1201
   *DEL*:           000290H   BYTE   INSEG    CODE           ?PR?GPS_INIT?ZF_DEVICE_GPS_TAU1201
   *DEL*:           000077H   BYTE   INSEG    CODE           ?PR?GET_PARAMETER_INDEX?ZF_DEVICE_GPS_TAU1201
   *DEL*:           00055CH   BYTE   INSEG    CODE           ?PR?GET_TWO_POINTS_AZIMUTH?ZF_DEVICE_GPS_TAU1201
   *DEL*:           000184H   BYTE   INSEG    CODE           ?PR?GPS_UART_CALLBACK?ZF_DEVICE_GPS_TAU1201
   *DEL*:           000003H   BYTE   UNIT     XDATA          ?XD?GET_PARAMETER_INDEX?ZF_DEVICE_GPS_TAU1201
   *DEL*:           00000DH   BYTE   UNIT     XDATA          ?XD?GET_INT_NUMBER?ZF_DEVICE_GPS_TAU1201
   *DEL*:           000014H   BYTE   UNIT     XDATA          ?XD?GET_FLOAT_NUMBER?ZF_DEVICE_GPS_TAU1201
   *DEL*:           000018H   BYTE   UNIT     XDATA          ?XD?GET_DOUBLE_NUMBER?ZF_DEVICE_GPS_TAU1201
L251 LINKER/LOCATER V4.66.93.0                                                        10/01/2025  18:14:56  PAGE 14


   *DEL*:           00003BH   BYTE   UNIT     XDATA          ?XD?GPS_GNRMC_PARSE?ZF_DEVICE_GPS_TAU1201
   *DEL*:           000009H   BYTE   UNIT     XDATA          ?XD?GPS_GNGGA_PARSE?ZF_DEVICE_GPS_TAU1201
   *DEL*:           000060H   BYTE   UNIT     XDATA          ?XD?GET_TWO_POINTS_DISTANCE?ZF_DEVICE_GPS_TAU1201
   *DEL*:           000038H   BYTE   UNIT     XDATA          ?XD?GET_TWO_POINTS_AZIMUTH?ZF_DEVICE_GPS_TAU1201
   *DEL*:           000008H   BYTE   UNIT     XDATA          ?XD?GPS_DATA_PARSE?ZF_DEVICE_GPS_TAU1201
   *DEL*:           00000BH   BYTE   UNIT     XDATA          ?XD?GPS_UART_CALLBACK?ZF_DEVICE_GPS_TAU1201
   *DEL*:           000095H   BYTE   UNIT     XDATA          ?XD?GPS_INIT?ZF_DEVICE_GPS_TAU1201
   *DEL*:           000075H   BYTE   INSEG    CODE           ?PR?TSL1401_SEND_DATA?ZF_DEVICE_TSL1401
   *DEL*:           00003DH   BYTE   INSEG    CODE           ?PR?TSL1401_INIT?ZF_DEVICE_TSL1401
   *DEL*:           00009BH   BYTE   INSEG    CODE           ?PR?TSL1401_COLLECT_PIT_HANDLER?ZF_DEVICE_TSL1401
   *DEL*:           00034DH   BYTE   INSEG    CODE           ?PR?SEEKFREE_ASSISTANT_CAMERA_BOUNDARY_CONFIG?SEEKFREE_ASS
                                                             -ISTANT
   *DEL*:           000101H   BYTE   INSEG    CODE           ?PR?SEEKFREE_ASSISTANT_CAMERA_DOT_SEND?SEEKFREE_ASSISTANT
   *DEL*:           000102H   BYTE   INSEG    CODE           ?PR?SEEKFREE_ASSISTANT_OSCILLOSCOPE_SEND?SEEKFREE_ASSISTAN
                                                             -T
   *DEL*:           00002EH   BYTE   INSEG    CODE           ?PR?SEEKFREE_ASSISTANT_INIT?SEEKFREE_ASSISTANT
   *DEL*:           000017H   BYTE   INSEG    CODE           ?PR?SEEKFREE_ASSISTANT_SUM?SEEKFREE_ASSISTANT
   *DEL*:           000037H   BYTE   INSEG    CODE           ?PR?SEEKFREE_ASSISTANT_CAMERA_INFORMATION_CONFIG?SEEKFREE_
                                                             -ASSISTANT
   *DEL*:           000265H   BYTE   INSEG    CODE           ?PR?SEEKFREE_ASSISTANT_DATA_ANALYSIS?SEEKFREE_ASSISTANT
   *DEL*:           00012AH   BYTE   INSEG    CODE           ?PR?SEEKFREE_ASSISTANT_CAMERA_DATA_SEND?SEEKFREE_ASSISTANT
   *DEL*:           00003FH   BYTE   INSEG    CODE           ?PR?SEEKFREE_ASSISTANT_CAMERA_SEND?SEEKFREE_ASSISTANT
   *DEL*:           00000AH   BYTE   UNIT     XDATA          ?XD?SEEKFREE_ASSISTANT_CAMERA_DATA_SEND?SEEKFREE_ASSISTANT
   *DEL*:           000002H   BYTE   UNIT     XDATA          ?XD?SEEKFREE_ASSISTANT_CAMERA_INFORMATION_CONFIG?SEEKFREE_
                                                             -ASSISTANT
   *DEL*:           000024H   BYTE   UNIT     XDATA          ?XD?SEEKFREE_ASSISTANT_OSCILLOSCOPE_SEND?SEEKFREE_ASSISTAN
                                                             -T
   *DEL*:           000003H   BYTE   UNIT     XDATA          ?XD?SEEKFREE_ASSISTANT_CAMERA_DOT_SEND?SEEKFREE_ASSISTANT
   *DEL*:           000014H   BYTE   UNIT     XDATA          ?XD?SEEKFREE_ASSISTANT_CAMERA_BOUNDARY_CONFIG?SEEKFREE_ASS
                                                             -ISTANT
   *DEL*:           000088H   BYTE   UNIT     XDATA          ?XD?SEEKFREE_ASSISTANT_DATA_ANALYSIS?SEEKFREE_ASSISTANT
   *DEL*:           000000H.1 BIT    UNIT     BIT            ?BI?SEEKFREE_ASSISTANT_DATA_ANALYSIS?SEEKFREE_ASSISTANT
   *DEL*:           00004DH   BYTE   INSEG    CODE           ?PR?SEEKFREE_ASSISTANT_INTERFACE_INIT?SEEKFREE_ASSISTANT_I
                                                             -NTERFACE
   *DEL*:           00007BH   BYTE   INSEG    CODE           ?PR?BATTERY_GET?ADC_GET
   *DEL*:           000002H   BYTE   UNIT     XDATA          ?XD?BATTERY_GET?ADC_GET
   *DEL*:           000030H   BYTE   INSEG    CODE           ?PR?EEPROM_READ_FLOAT?EEPROM
   *DEL*:           0000D0H   BYTE   INSEG    CODE           ?PR?EEPROM_SAVE_FLOAT?EEPROM
   *DEL*:           00020AH   BYTE   UNIT     XDATA          ?XD?EEPROM_SAVE_FLOAT?EEPROM
   *DEL*:           000000H.1 BIT    UNIT     BIT            ?BI?EEPROM_SAVE_FLOAT?EEPROM
   *DEL*:           000004H   BYTE   UNIT     XDATA          ?XD?EEPROM_READ_FLOAT?EEPROM
   *DEL*:           000000H.1 BIT    UNIT     BIT            ?BI?EEPROM_READ_FLOAT?EEPROM
   *DEL*:           000029H   BYTE   INSEG    CODE           ?PR?SET_TIME?FUNCTION
   *DEL*:           00002CH   BYTE   INSEG    CODE           ?PR?OLED_DISPLAYTURN?OLED
   *DEL*:           0000DEH   BYTE   INSEG    CODE           ?PR?OLED_INIT?OLED
   *DEL*:           0000F5H   BYTE   INSEG    CODE           ?PR?OLED_SHOWSTRING?OLED
   *DEL*:           000070H   BYTE   INSEG    CODE           ?PR?OLED_WR_BYTE?OLED
   *DEL*:           0001BEH   BYTE   INSEG    CODE           ?PR?OLED_SHOWCHAR?OLED
   *DEL*:           00001EH   BYTE   INSEG    CODE           ?PR?OLED_COLORTURN?OLED
   *DEL*:           00002BH   BYTE   INSEG    CODE           ?PR?OLED_SET_POS?OLED
   *DEL*:           000017H   BYTE   INSEG    CODE           ?PR?DELAY_MS?OLED
   *DEL*:           0001C9H   BYTE   INSEG    CODE           ?PR?OLED_SHOWNUM?OLED
   *DEL*:           000017H   BYTE   INSEG    CODE           ?PR?OLED_POW?OLED
   *DEL*:           00010AH   BYTE   INSEG    CODE           ?PR?OLED_SHOWCHINESE?OLED
   *DEL*:           00003AH   BYTE   INSEG    CODE           ?PR?OLED_CLEAR?OLED
   *DEL*:           000006H   BYTE   UNIT     XDATA          ?XD?OLED_SHOWCHAR?OLED
   *DEL*:           000007H   BYTE   UNIT     XDATA          ?XD?OLED_SHOWNUM?OLED
   *DEL*:           000005H   BYTE   UNIT     XDATA          ?XD?OLED_SHOWSTRING?OLED
   *DEL*:           000005H   BYTE   UNIT     XDATA          ?XD?OLED_SHOWCHINESE?OLED
   *DEL*:           00001BH   BYTE   INSEG    CODE           ?PR?LINELOSSPROTECTION?STRATEGY
   *DEL*:           00019BH   BYTE   INSEG    CODE           ?PR?POW?_?POW
   *DEL*:           000037H   BYTE   INSEG    CODE           ?PR?STRNCMP?_?STRNCMP
   *DEL*:           000030H   BYTE   INSEG    CODE           ?PR?STRNCPY?_?STRNCPY
   *DEL*:           00000EH   BYTE   INSEG    CODE           ?PR?STRLEN?_?STRLEN
   *DEL*:           00001FH   BYTE   INSEG    CODE           ?PR?STRCHR?_?STRCHR
L251 LINKER/LOCATER V4.66.93.0                                                        10/01/2025  18:14:56  PAGE 15


   *DEL*:           00001AH   BYTE   INSEG    CODE           ?PR?MEMSET?_?MEMSET



OVERLAY MAP OF MODULE:   .\out_file\SEEKFREE (ai8051u_isr)


FUNCTION/MODULE                                BIT_GROUP   XDATA_GROUP
--> CALLED FUNCTION/MODULE                    START  STOP  START  STOP
======================================================================
?C_C51STARTUP                                 ----- -----  ----- -----

*** NEW ROOT ********************************

?C_C51STARTUP?3                               ----- -----  ----- -----
  +--> main/main

main/main                                     ----- -----  ----- -----
  +--> _m/main
  +--> SPRINTF/SPRINTF

_m/main                                       ----- -----  ----- -----
  +--> clock_init/zf_common_clock
  +--> debug_init/zf_common_debug
  +--> init_all/function
  +--> pit_handler0/main
  +--> pit_handler1/main
  +--> Turn_mode_Init/function
  +--> menu_handle_key/menu
  +--> GO_Function/function
  +--> PWM_Test/Device_Test
  +--> Serve_Test/Device_Test
  +--> Set_Sevo/Device_Test
  +--> ADC_SampleAndFilter/ADC_Get
  +--> unification/function
  +--> Servo_turn_pid/control
  +--> Show_pararm/function
  +--> Protect/function
  +--> pwm_set_duty/zf_driver_pwm
  +--> Key_scaner/Key

clock_init/zf_common_clock                    ----- -----  ----- -----
  +--> system_delay_init/zf_driver_delay
  +--> interrupt_global_enable/zf_common_interrupt

system_delay_init/zf_driver_delay             ----- -----  ----- -----
  +--> ?C?SLDIV/?C?SLDIV

?C?SLDIV/?C?SLDIV                             ----- -----  ----- -----
  +--> ?C?ULIDIV/?C?ULDIV

?C?ULIDIV/?C?ULDIV                            ----- -----  ----- -----

interrupt_global_enable/zf_common_interr+     ----- -----  ----- -----
... upt

debug_init/zf_common_debug                    ----- -----  ----- -----
  +--> uart_init/zf_driver_uart
  +--> fifo_init/zf_common_fifo
  +--> uart_rx_interrupt/zf_driver_uart
  +--> debug_interrupr_handler/zf_common_debug

uart_init/zf_driver_uart                      ----- -----  055EH 0563H
  +--> uart_funciton_check/zf_driver_uart
  +--> debug_assert_handler/zf_common_debug
L251 LINKER/LOCATER V4.66.93.0                                                        10/01/2025  18:14:56  PAGE 16


  +--> timer_funciton_check/zf_driver_timer
  +--> gpio_init/zf_driver_gpio
  +--> ?C?ULIDIV/?C?ULDIV
  +--> uart_dma_init/zf_driver_uart

uart_funciton_check/zf_driver_uart            ----- -----  ----- -----

debug_assert_handler/zf_common_debug          ----- -----  059DH 05ACH
  +--> PRINTF/PRINTF
  +--> system_delay_ms/zf_driver_delay

PRINTF/PRINTF                                 ----- -----  05ADH 05D4H
  +--> OUT/PRINTF

OUT/PRINTF                                    ----- -----  ----- -----
  +--> PUTCH/PRINTF

PUTCH/PRINTF                                  ----- -----  ----- -----
  +--> putchar/zf_common_debug
  +--> OUT/PRINTF

putchar/zf_common_debug                       ----- -----  ----- -----
  +--> uart_write_byte/zf_driver_uart

uart_write_byte/zf_driver_uart                ----- -----  05D5H 05D5H
  +--> uart_write_buffer/zf_driver_uart

uart_write_buffer/zf_driver_uart              ----- -----  ----- -----

system_delay_ms/zf_driver_delay               ----- -----  ----- -----

timer_funciton_check/zf_driver_timer          ----- -----  ----- -----

gpio_init/zf_driver_gpio                      ----- -----  056EH 0570H
  +--> debug_assert_handler/zf_common_debug
  +--> gpio_set_dir/zf_driver_gpio
  +--> gpio_set_mode/zf_driver_gpio
  +--> gpio_set_impedance/zf_driver_gpio
  +--> gpio_set_level/zf_driver_gpio

gpio_set_dir/zf_driver_gpio                   ----- -----  ----- -----
  +--> debug_assert_handler/zf_common_debug

gpio_set_mode/zf_driver_gpio                  ----- -----  ----- -----
  +--> debug_assert_handler/zf_common_debug

gpio_set_impedance/zf_driver_gpio             ----- -----  ----- -----
  +--> debug_assert_handler/zf_common_debug

gpio_set_level/zf_driver_gpio                 ----- -----  ----- -----
  +--> debug_assert_handler/zf_common_debug

uart_dma_init/zf_driver_uart                  ----- -----  ----- -----

fifo_init/zf_common_fifo                      ----- -----  055EH 0567H
  +--> debug_assert_handler/zf_common_debug

uart_rx_interrupt/zf_driver_uart              ----- -----  ----- -----

debug_interrupr_handler/zf_common_debug       ----- -----  055EH 055EH
  +--> uart_query_byte/zf_driver_uart
  +--> fifo_write_buffer/zf_common_fifo

uart_query_byte/zf_driver_uart                ----- -----  ----- -----
  +--> uart_rx_start_buff/zf_driver_uart
L251 LINKER/LOCATER V4.66.93.0                                                        10/01/2025  18:14:56  PAGE 17



uart_rx_start_buff/zf_driver_uart             ----- -----  ----- -----

fifo_write_buffer/zf_common_fifo              ----- -----  055FH 056CH
  +--> debug_assert_handler/zf_common_debug
  +--> memcpy?_/memcpy
  +--> fifo_head_offset/zf_common_fifo

memcpy?_/memcpy                               ----- -----  ----- -----

fifo_head_offset/zf_common_fifo               ----- -----  ----- -----

init_all/function                             ----- -----  ----- -----
  +--> iap_init/zf_driver_eeprom
  +--> system_delay_ms/zf_driver_delay
  +--> Motor_Init/function
  +--> Servo_Init/function
  +--> ADC_GetInit/ADC_Get
  +--> tft180_init/zf_device_tft180
  +--> tft180_set_color/zf_device_tft180
  +--> eeprom_read_Num/eeprom
  +--> menu_Init/menu
  +--> ?C?SLDIV/?C?SLDIV
  +--> pit_init/zf_driver_pit

iap_init/zf_driver_eeprom                     ----- -----  ----- -----
  +--> iap_set_tps/zf_driver_eeprom

iap_set_tps/zf_driver_eeprom                  ----- -----  ----- -----
  +--> ?C?SLDIV/?C?SLDIV

Motor_Init/function                           ----- -----  ----- -----
  +--> pwm_init/zf_driver_pwm

pwm_init/zf_driver_pwm                        ----- -----  055EH 056BH
  +--> debug_assert_handler/zf_common_debug
  +--> gpio_init/zf_driver_gpio
  +--> ?C?ULIDIV/?C?ULDIV

Servo_Init/function                           ----- -----  ----- -----
  +--> pwm_init/zf_driver_pwm

ADC_GetInit/ADC_Get                           ----- -----  ----- -----
  +--> adc_init/zf_driver_adc

adc_init/zf_driver_adc                        ----- -----  ----- -----

tft180_init/zf_device_tft180                  ----- -----  ----- -----
  +--> spi_init/zf_driver_spi
  +--> tft180_set_dir/zf_device_tft180
  +--> tft180_set_color/zf_device_tft180
  +--> system_delay_ms/zf_driver_delay
  +--> tft180_write_index/zf_device_tft180
  +--> spi_write_8bit/zf_driver_spi
  +--> tft180_clear/zf_device_tft180

spi_init/zf_driver_spi                        ----- -----  055EH 056DH
  +--> debug_assert_handler/zf_common_debug
  +--> gpio_init/zf_driver_gpio
  +--> gpio_set_level_speed/zf_driver_gpio
  +--> ?C?ULIDIV/?C?ULDIV
  +--> uart_funciton_check/zf_driver_uart

gpio_set_level_speed/zf_driver_gpio           ----- -----  ----- -----
  +--> debug_assert_handler/zf_common_debug
L251 LINKER/LOCATER V4.66.93.0                                                        10/01/2025  18:14:56  PAGE 18



tft180_set_dir/zf_device_tft180               ----- -----  ----- -----

tft180_set_color/zf_device_tft180             ----- -----  ----- -----

tft180_write_index/zf_device_tft180           ----- -----  ----- -----
  +--> spi_write_8bit/zf_driver_spi

spi_write_8bit/zf_driver_spi                  ----- -----  ----- -----
  +--> spi_write_dat/zf_driver_spi

spi_write_dat/zf_driver_spi                   ----- -----  ----- -----
  +--> debug_assert_handler/zf_common_debug

tft180_clear/zf_device_tft180                 ----- -----  055EH 0561H
  +--> tft180_set_region/zf_device_tft180
  +--> spi_write_16bit/zf_driver_spi

tft180_set_region/zf_device_tft180            ----- -----  0599H 059CH
  +--> debug_assert_handler/zf_common_debug
  +--> tft180_write_index/zf_device_tft180
  +--> spi_write_16bit/zf_driver_spi

spi_write_16bit/zf_driver_spi                 ----- -----  ----- -----
  +--> spi_write_dat/zf_driver_spi

eeprom_read_Num/eeprom                        20H.0 20H.0  055EH 075DH
  +--> iap_read_buff/zf_driver_eeprom
  +--> memcpy?_/memcpy

iap_read_buff/zf_driver_eeprom                ----- -----  075EH 0763H
  +--> iap_read_byte/zf_driver_eeprom

iap_read_byte/zf_driver_eeprom                20H.1 20H.1  ----- -----
  +--> eeprom_trig/zf_driver_eeprom

eeprom_trig/zf_driver_eeprom                  ----- -----  ----- -----

menu_Init/menu                                ----- -----  ----- -----
  +--> Menu_SetChildren/menu
  +--> Refesh_arrow/menu
  +--> menu_display_content/menu
  +--> Show_bujin/menu

Menu_SetChildren/menu                         ----- -----  ----- -----

Refesh_arrow/menu                             ----- -----  ----- -----
  +--> tft180_show_string/zf_device_tft180

tft180_show_string/zf_device_tft180           ----- -----  058FH 0594H
  +--> debug_assert_handler/zf_common_debug
  +--> tft180_show_char/zf_device_tft180

tft180_show_char/zf_device_tft180             ----- -----  0595H 0598H
  +--> debug_assert_handler/zf_common_debug
  +--> tft180_set_region/zf_device_tft180
  +--> spi_write_16bit/zf_driver_spi

menu_display_content/menu                     ----- -----  ----- -----
  +--> tft180_show_string/zf_device_tft180
  +--> tft180_show_float/zf_device_tft180

tft180_show_float/zf_device_tft180            ----- -----  055EH 058EH
  +--> debug_assert_handler/zf_common_debug
  +--> zf_sprintf/zf_common_function
L251 LINKER/LOCATER V4.66.93.0                                                        10/01/2025  18:14:56  PAGE 19


  +--> tft180_show_string/zf_device_tft180

zf_sprintf/zf_common_function                 ----- -----  058FH 05F1H
  +--> number_conversion_ascii/zf_common_function
  +--> printf_reverse_order/zf_common_function
  +--> memcpy?_/memcpy

number_conversion_ascii/zf_common_functi+     ----- -----  05F2H 05F2H
... on
  +--> ?C?SLDIV/?C?SLDIV
  +--> ?C?ULIDIV/?C?ULDIV

printf_reverse_order/zf_common_function       ----- -----  ----- -----

Show_bujin/menu                               ----- -----  ----- -----
  +--> tft180_show_string/zf_device_tft180

pit_init/zf_driver_pit                        ----- -----  ----- -----
  +--> ?C?ULIDIV/?C?ULDIV

pit_handler0/main                             ----- -----  ----- -----

pit_handler1/main                             ----- -----  ----- -----

Turn_mode_Init/function                       ----- -----  ----- -----
  +--> CAR_STOP/function
  +--> tft180_clear/zf_device_tft180
  +--> system_delay_ms/zf_driver_delay
  +--> tft180_show_string/zf_device_tft180
  +--> Refesh_arrow/menu
  +--> menu_display_content/menu
  +--> Show_bujin/menu
  +--> Motor_Update/control
  +--> PID_Update/control

CAR_STOP/function                             ----- -----  ----- -----
  +--> MotorL_SetSpeed/control
  +--> MotorR_SetSpeed/control
  +--> Ser_Servo_Duty/control

MotorL_SetSpeed/control                       ----- -----  ----- -----
  +--> pwm_set_duty/zf_driver_pwm

pwm_set_duty/zf_driver_pwm                    ----- -----  055EH 0569H
  +--> debug_assert_handler/zf_common_debug

MotorR_SetSpeed/control                       ----- -----  ----- -----
  +--> pwm_set_duty/zf_driver_pwm

Ser_Servo_Duty/control                        ----- -----  ----- -----
  +--> pwm_set_duty/zf_driver_pwm

Motor_Update/control                          ----- -----  ----- -----
  +--> MotorR_SetSpeed/control
  +--> MotorL_SetSpeed/control

PID_Update/control                            ----- -----  ----- -----

menu_handle_key/menu                          ----- -----  ----- -----
  +--> handle_key1/menu
  +--> handle_key2/menu
  +--> handle_key3/menu
  +--> handle_key4/menu
  +--> handle_key5/menu

L251 LINKER/LOCATER V4.66.93.0                                                        10/01/2025  18:14:56  PAGE 20


handle_key1/menu                              ----- -----  ----- -----
  +--> tft180_show_string/zf_device_tft180
  +--> tft180_clear/zf_device_tft180
  +--> menu_display_content/menu
  +--> Refesh_arrow/menu

handle_key2/menu                              ----- -----  ----- -----
  +--> Show_bujin/menu

handle_key3/menu                              ----- -----  ----- -----
  +--> Show_bujin/menu

handle_key4/menu                              ----- -----  ----- -----
  +--> menu_display_content/menu
  +--> tft180_show_string/zf_device_tft180
  +--> tft180_clear/zf_device_tft180
  +--> Refesh_arrow/menu

handle_key5/menu                              ----- -----  ----- -----
  +--> Key3_handle1/menu
  +--> Key3_handle2/menu

Key3_handle1/menu                             ----- -----  ----- -----
  +--> Refesh_arrow/menu

Key3_handle2/menu                             ----- -----  ----- -----
  +--> eeprom_save_Num/eeprom
  +--> show_all_menu/menu
  +--> Refesh_arrow/menu

eeprom_save_Num/eeprom                        20H.0 20H.0  055EH 075DH
  +--> iap_read_buff/zf_driver_eeprom
  +--> memcpy?_/memcpy
  +--> iap_erase_page/zf_driver_eeprom
  +--> system_delay_ms/zf_driver_delay
  +--> iap_write_buff/zf_driver_eeprom

iap_erase_page/zf_driver_eeprom               20H.1 20H.1  ----- -----
  +--> eeprom_trig/zf_driver_eeprom
  +--> system_delay_ms/zf_driver_delay

iap_write_buff/zf_driver_eeprom               ----- -----  075EH 0763H
  +--> iap_write_byte/zf_driver_eeprom

iap_write_byte/zf_driver_eeprom               20H.1 20H.1  ----- -----
  +--> eeprom_trig/zf_driver_eeprom

show_all_menu/menu                            ----- -----  ----- -----
  +--> tft180_clear/zf_device_tft180
  +--> Refesh_arrow/menu
  +--> menu_display_content/menu
  +--> Show_bujin/menu

GO_Function/function                          ----- -----  ----- -----
  +--> Turn_mode_Init/function

PWM_Test/Device_Test                          ----- -----  ----- -----
  +--> MotorL_SetSpeed/control
  +--> MotorR_SetSpeed/control

Serve_Test/Device_Test                        ----- -----  ----- -----
  +--> Ser_Servo_Duty/control
  +--> system_delay_ms/zf_driver_delay

Set_Sevo/Device_Test                          ----- -----  ----- -----
L251 LINKER/LOCATER V4.66.93.0                                                        10/01/2025  18:14:56  PAGE 21


  +--> Ser_Servo_Duty/control

ADC_SampleAndFilter/ADC_Get                   ----- -----  ----- -----
  +--> adc_convert/zf_driver_adc
  +--> adc_filter/ADC_Get

adc_convert/zf_driver_adc                     ----- -----  ----- -----

adc_filter/ADC_Get                            ----- -----  ----- -----
  +--> ?C?ULIDIV/?C?ULDIV

unification/function                          ----- -----  055EH 0563H
  +--> fast_sqrt/function

fast_sqrt/function                            ----- -----  0564H 056BH
  +--> memcpy?_/memcpy

Servo_turn_pid/control                        ----- -----  ----- -----
  +--> Normal_PID/function

Normal_PID/function                           ----- -----  055EH 0561H

Show_pararm/function                          ----- -----  ----- -----
  +--> tft180_show_string/zf_device_tft180
  +--> tft180_show_float/zf_device_tft180
  +--> tft180_show_int16/zf_device_tft180

tft180_show_int16/zf_device_tft180            ----- -----  055EH 0565H
  +--> debug_assert_handler/zf_common_debug
  +--> tft180_show_char/zf_device_tft180

Protect/function                              ----- -----  ----- -----
  +--> Turn_mode_Init/function

Key_scaner/Key                                ----- -----  ----- -----
  +--> Key_Number/Key
  +--> Turn_mode/Key

Key_Number/Key                                ----- -----  ----- -----
  +--> gpio_get_level/zf_driver_gpio

gpio_get_level/zf_driver_gpio                 ----- -----  ----- -----
  +--> debug_assert_handler/zf_common_debug

Turn_mode/Key                                 ----- -----  ----- -----

SPRINTF/SPRINTF                               ----- -----  055EH 0585H
  +--> OUT/SPRINTF

OUT/SPRINTF                                   ----- -----  ----- -----
  +--> PUTCH/SPRINTF

PUTCH/SPRINTF                                 ----- -----  ----- -----

*** NEW ROOT ********************************

TM11_IRQHandler/isr                           ----- -----  ----- -----

*** NEW ROOT ********************************

DMA_UART1_IRQHandler/isr                      ----- -----  ----- -----
  +--> uart_rx_start_buff/zf_driver_uart

*** NEW ROOT ********************************

L251 LINKER/LOCATER V4.66.93.0                                                        10/01/2025  18:14:56  PAGE 22


DMA_UART2_IRQHandler/isr                      ----- -----  ----- -----
  +--> uart_rx_start_buff/zf_driver_uart

*** NEW ROOT ********************************

DMA_UART3_IRQHandler/isr                      ----- -----  ----- -----
  +--> uart_rx_start_buff/zf_driver_uart

*** NEW ROOT ********************************

DMA_UART4_IRQHandler/isr                      ----- -----  ----- -----
  +--> uart_rx_start_buff/zf_driver_uart

*** NEW ROOT ********************************

TM0_IRQHandler/isr                            ----- -----  ----- -----

*** NEW ROOT ********************************

TM1_IRQHandler/isr                            ----- -----  ----- -----

*** NEW ROOT ********************************

TM2_IRQHandler/isr                            ----- -----  ----- -----

*** NEW ROOT ********************************

TM3_IRQHandler/isr                            ----- -----  ----- -----

*** NEW ROOT ********************************

TM4_IRQHandler/isr                            ----- -----  ----- -----

*** NEW ROOT ********************************

?C_C51STARTUP?1                               ----- -----  ----- -----

*** NEW ROOT ********************************

?C_C51STARTUP?2                               ----- -----  ----- -----



PUBLIC SYMBOLS OF MODULE:  .\out_file\SEEKFREE (ai8051u_isr)


      VALUE       CLASS    TYPE      PUBLIC SYMBOL NAME
      =================================================
      00FF3919H   CODE     ---       ?C?BMOVEPP
      00FF3917H   CODE     ---       ?C?BMOVEPP8
      00FF259FH   CODE     NEAR LAB  ?C?CASTD
      00FF3807H   CODE     NEAR LAB  ?C?CASTF
      000000FFH   NUMBER   ---       ?C?CODESEG
      00FF255CH   CODE     NEAR LAB  ?C?DCASTC
      00FF25FFH   CODE     NEAR LAB  ?C?DCASTF
      00FF2557H   CODE     NEAR LAB  ?C?DCASTI
      00FF2552H   CODE     NEAR LAB  ?C?DCASTL
      00FF2FD3H   CODE     ---       ?C?DP2SERIES
      00FF2225H   CODE     ---       ?C?DPADD
      00FF24E5H   CODE     ---       ?C?DPCMP
      00FF24E3H   CODE     ---       ?C?DPCMP3
      00FF32BEH   CODE     ---       ?C?DPCONVERT
      00FF2444H   CODE     ---       ?C?DPDIV
      00FF2AF5H   CODE     ---       ?C?DPGETOPN2
      00FF2334H   CODE     ---       ?C?DPMUL
L251 LINKER/LOCATER V4.66.93.0                                                        10/01/2025  18:14:56  PAGE 23


      00FF2B40H   CODE     ---       ?C?DPNANRESULT
      00FF2544H   CODE     ---       ?C?DPNEG
      00FF2B4CH   CODE     ---       ?C?DPOVERFLOW
      00FF2B18H   CODE     ---       ?C?DPRESULT
      00FF2B31H   CODE     ---       ?C?DPRESULT2
      00FF33E5H   CODE     ---       ?C?DPROUND
      00FF2FDEH   CODE     ---       ?C?DPSERIES
      00FF2221H   CODE     ---       ?C?DPSUB
      00FF2B47H   CODE     ---       ?C?DPUNDERFLOW
      00FF34C0H   CODE     ---       ?C?DTNPWR
      00FF37D4H   CODE     NEAR LAB  ?C?FCASTC
      00FF2641H   CODE     NEAR LAB  ?C?FCASTD
      00FF37CFH   CODE     NEAR LAB  ?C?FCASTI
      00FF37CAH   CODE     NEAR LAB  ?C?FCASTL
      00FF359DH   CODE     ---       ?C?FPADD
      00FF3778H   CODE     ---       ?C?FPCMP
      00FF3776H   CODE     ---       ?C?FPCMP3
      00FF36F5H   CODE     ---       ?C?FPDIV
      00FF3546H   CODE     ---       ?C?FPGETOPN2
      00FF3655H   CODE     ---       ?C?FPMUL
      00FF3583H   CODE     ---       ?C?FPNANRESULT
      00FF37BCH   CODE     ---       ?C?FPNEG
      00FF358BH   CODE     ---       ?C?FPOVERFLOW
      00FF355FH   CODE     ---       ?C?FPRESULT
      00FF3575H   CODE     ---       ?C?FPRESULT2
      00FF359AH   CODE     ---       ?C?FPSUB
      00FF3588H   CODE     ---       ?C?FPUNDERFLOW
      00FFA0EDH   CODE     ---       ?C?INITHDATA
      00FFB4D7H   HCONST   WORD      ?C?INITHDATA_END
      00FF3887H   CODE     ---       ?C?LIMUL
      00FF3876H   CODE     ---       ?C?LMUL
      00FF2BA5H   CODE     ---       ?C?PRNFMT
      00FF3844H   CODE     ---       ?C?SIDIV
      00FF38E3H   CODE     NEAR LAB  ?C?SLDIV
      00FF0000H   CODE     ---       ?C?STARTUP
      00FF3892H   CODE     NEAR LAB  ?C?ULDIV
      00FF3890H   CODE     NEAR LAB  ?C?ULIDIV
      00000001H   NUMBER   ---       ?C?XDATASEG
      00FF0000H   CODE     ---       ?C_STARTUP
      0001055AH   XDATA    BYTE      ?fifo_init?BYTE
*DEL*:1FFFFFFCH   XDATA    BYTE      ?fifo_read_buffer?BYTE
      0001055BH   XDATA    BYTE      ?fifo_write_buffer?BYTE
*DEL*:1FFFFFFCH   XDATA    BYTE      ?func_double_to_str?BYTE
*DEL*:00000000H   XDATA    BYTE      ?get_two_points_azimuth?BYTE
*DEL*:00000000H   XDATA    BYTE      ?get_two_points_distance?BYTE
      0001075AH   XDATA    BYTE      ?iap_read_buff?BYTE
      0001075AH   XDATA    BYTE      ?iap_write_buff?BYTE
*DEL*:1FFFFFFCH   XDATA    BYTE      ?ips114_show_chinese?BYTE
*DEL*:1FFFFFFEH   XDATA    BYTE      ?ips114_show_float?BYTE
*DEL*:1FFFFFFCH   XDATA    BYTE      ?ips114_show_wave?BYTE
*DEL*:1FFFFFFCH   XDATA    BYTE      ?ips200_show_chinese?BYTE
*DEL*:1FFFFFFEH   XDATA    BYTE      ?ips200_show_float?BYTE
*DEL*:1FFFFFFCH   XDATA    BYTE      ?ips200_show_wave?BYTE
      00010556H   XDATA    BYTE      ?Normal_PID?BYTE
      000105D5H   XDATA    ---       ?printf?BYTE
      0001055CH   XDATA    BYTE      ?pwm_init?BYTE
*DEL*:1FFFFFFEH   XDATA    BYTE      ?pwm_set_freq?BYTE
*DEL*:1FFFFFF8H   XDATA    BYTE      ?seekfree_assistant_camera_boundary_config?BYTE
*DEL*:1FFFFFFBH   XDATA    BYTE      ?seekfree_assistant_camera_data_send?BYTE
*DEL*:1FFFFFF8H   XDATA    BYTE      ?seekfree_assistant_camera_information_config?BYTE
*DEL*:1FFFFFFCH   XDATA    BYTE      ?soft_iic_init?BYTE
*DEL*:1FFFFFFCH   XDATA    BYTE      ?soft_iic_read_16bit_array?BYTE
*DEL*:1FFFFFFCH   XDATA    BYTE      ?soft_iic_read_16bit_registers?BYTE
*DEL*:1FFFFFFCH   XDATA    BYTE      ?soft_iic_read_8bit_array?BYTE
*DEL*:1FFFFFFCH   XDATA    BYTE      ?soft_iic_read_8bit_registers?BYTE
L251 LINKER/LOCATER V4.66.93.0                                                        10/01/2025  18:14:56  PAGE 24


*DEL*:1FFFFFFCH   XDATA    BYTE      ?soft_iic_transfer_16bit_array?BYTE
*DEL*:1FFFFFFCH   XDATA    BYTE      ?soft_iic_transfer_8bit_array?BYTE
*DEL*:1FFFFFFCH   XDATA    BYTE      ?soft_iic_write_16bit_array?BYTE
*DEL*:1FFFFFFCH   XDATA    BYTE      ?soft_iic_write_16bit_registers?BYTE
*DEL*:1FFFFFFCH   XDATA    BYTE      ?soft_iic_write_8bit_array?BYTE
*DEL*:1FFFFFFCH   XDATA    BYTE      ?soft_iic_write_8bit_registers?BYTE
*DEL*:1FFFFFFCH   XDATA    BYTE      ?soft_spi_init?BYTE
*DEL*:1FFFFFFCH   XDATA    BYTE      ?soft_spi_read_16bit_array?BYTE
*DEL*:1FFFFFFCH   XDATA    BYTE      ?soft_spi_read_16bit_registers?BYTE
*DEL*:1FFFFFFCH   XDATA    BYTE      ?soft_spi_read_8bit_array?BYTE
*DEL*:1FFFFFFCH   XDATA    BYTE      ?soft_spi_read_8bit_registers?BYTE
*DEL*:1FFFFFFCH   XDATA    BYTE      ?soft_spi_transfer_16bit?BYTE
*DEL*:1FFFFFFCH   XDATA    BYTE      ?soft_spi_transfer_8bit?BYTE
*DEL*:1FFFFFFCH   XDATA    BYTE      ?soft_spi_write_16bit_array?BYTE
*DEL*:1FFFFFFCH   XDATA    BYTE      ?soft_spi_write_16bit_registers?BYTE
*DEL*:1FFFFFFCH   XDATA    BYTE      ?soft_spi_write_8bit_array?BYTE
*DEL*:1FFFFFFCH   XDATA    BYTE      ?soft_spi_write_8bit_registers?BYTE
      0001055AH   XDATA    BYTE      ?spi_init?BYTE
*DEL*:1FFFFFFCH   XDATA    BYTE      ?spi_read_16bit_array?BYTE
*DEL*:1FFFFFFCH   XDATA    BYTE      ?spi_read_16bit_registers?BYTE
*DEL*:1FFFFFFCH   XDATA    BYTE      ?spi_read_8bit_array?BYTE
*DEL*:1FFFFFFBH   XDATA    BYTE      ?spi_read_8bit_registers?BYTE
*DEL*:1FFFFFFCH   XDATA    BYTE      ?spi_transfer_16bit?BYTE
*DEL*:1FFFFFFCH   XDATA    BYTE      ?spi_transfer_8bit?BYTE
*DEL*:1FFFFFFCH   XDATA    BYTE      ?spi_write_16bit_array?BYTE
*DEL*:1FFFFFFCH   XDATA    BYTE      ?spi_write_16bit_registers?BYTE
*DEL*:1FFFFFFCH   XDATA    BYTE      ?spi_write_8bit_array?BYTE
*DEL*:1FFFFFFBH   XDATA    BYTE      ?spi_write_8bit_registers?BYTE
      00010586H   XDATA    ---       ?sprintf?BYTE
      0001055CH   XDATA    BYTE      ?tft180_show_float?BYTE
*DEL*:1FFFFFFCH   XDATA    BYTE      ?tft180_show_wave?BYTE
      0001055AH   XDATA    BYTE      ?uart_init?BYTE
      000105B7H   XDATA    BYTE      ?zf_sprintf?BYTE
      00FF2B5AH   CODE     ---       _chkdouble_?_
      00FF7EDFH   CODE     ---       _m
*SFR* 000000D0H.6 DATA     BIT       AC
*SFR* 000000E0H   DATA     BYTE      ACC
      0001052CH   XDATA    FLOAT     ADC_1
      00010530H   XDATA    FLOAT     ADC_2
      00010534H   XDATA    FLOAT     ADC_3
      00010538H   XDATA    FLOAT     ADC_4
      0001053CH   XDATA    FLOAT     ADC_5
      00010540H   XDATA    FLOAT     ADC_6
      0001054FH   XDATA    FLOAT     ADC_8
*SFR* 000000BCH   DATA     BYTE      ADC_CONTR
      00FFA81FH   CODE     ---       adc_convert
      00FF9432H   CODE     ---       adc_filter
      00FFA8ADH   CODE     ---       ADC_GetInit
      00FF9A83H   CODE     ---       adc_init
*DEL*:00000000H   CODE     ---       adc_mean_filter_convert
      00010DA2H   XDATA    ---       ADC_Num
*SFR* 000000BDH   DATA     BYTE      ADC_RES
*SFR* 000000BEH   DATA     BYTE      ADC_RESL
      00FF92D8H   CODE     ---       ADC_SampleAndFilter
      00010DBCH   XDATA    BYTE      ADC_Show_Flag
*SFR* 000000DEH   DATA     BYTE      ADCCFG
      00FF3940H   CODE     ---       asc2_0806
      00FF3B68H   CODE     ---       asc2_1608
      00FF545EH   CODE     ---       ascii_font_8x16
      00FF2ACBH   CODE     ---       asin?_
      00FF29B0H   CODE     ---       atan?_
*SFR* 000000EFH   DATA     BYTE      AUXINTIF
*SFR* 0000008EH   DATA     BYTE      AUXR
*SFR* 00000097H   DATA     BYTE      AUXR2
*SFR* 000000F0H   DATA     BYTE      B
L251 LINKER/LOCATER V4.66.93.0                                                        10/01/2025  18:14:56  PAGE 25


*DEL*:00000000H   CODE     ---       battery_get
      00000020H.2 BIT      BIT       Battery_Init
*DEL*:00000000H   CODE     ---       ble6a20_callback
*DEL*:00000000H   CODE     ---       ble6a20_init
*DEL*:00000000H   CODE     ---       ble6a20_read_buffer
*DEL*:00000000H   CODE     ---       ble6a20_send_buffer
*DEL*:00000000H   CODE     ---       ble6a20_send_byte
*DEL*:00000000H   CODE     ---       ble6a20_send_string
      00010E64H   XDATA    FLOAT     bujin
*SFR* 000000C8H.1 DATA     BIT       C_T2
      00010EF6H   XDATA    BYTE      CAR_Mode
      00FFA9E4H   CODE     ---       CAR_STOP
*SFR* 000000FAH   DATA     BYTE      CCAP0H
*SFR* 000000EAH   DATA     BYTE      CCAP0L
*SFR* 000000FBH   DATA     BYTE      CCAP1H
*SFR* 000000EBH   DATA     BYTE      CCAP1L
*SFR* 000000FCH   DATA     BYTE      CCAP2H
*SFR* 000000ECH   DATA     BYTE      CCAP2L
*SFR* 000000FDH   DATA     BYTE      CCAP3H
*SFR* 000000EDH   DATA     BYTE      CCAP3L
*SFR* 000000FEH   DATA     BYTE      CCAP4H
*SFR* 000000EEH   DATA     BYTE      CCAP4L
*SFR* 000000DAH   DATA     BYTE      CCAPM0
*SFR* 000000DBH   DATA     BYTE      CCAPM1
*SFR* 000000DCH   DATA     BYTE      CCAPM2
*SFR* 000000DDH   DATA     BYTE      CCAPM3
*SFR* 000000DEH   DATA     BYTE      CCAPM4
*SFR* 000000D8H.0 DATA     BIT       CCF0
*SFR* 000000D8H.1 DATA     BIT       CCF1
*SFR* 000000D8H.2 DATA     BIT       CCF2
*SFR* 000000D8H.3 DATA     BIT       CCF3
*SFR* 000000D8H.4 DATA     BIT       CCF4
*SFR* 000000D8H   DATA     BYTE      CCON
*SFR* 00000090H.3 DATA     BIT       CEX0
*SFR* 00000090H.4 DATA     BIT       CEX1
*SFR* 00000090H.5 DATA     BIT       CEX2
*SFR* 00000090H.6 DATA     BIT       CEX3
*SFR* 00000090H.7 DATA     BIT       CEX4
*SFR* 000000D8H.7 DATA     BIT       CF
*SFR* 000000F9H   DATA     BYTE      CH
*SFR* 000000EAH   DATA     BYTE      CKCON
*SFR* 000000E9H   DATA     BYTE      CL
      00FF8B1CH   CODE     ---       clock_init
*SFR* 000000D9H   DATA     BYTE      CMOD
*SFR* 000000E6H   DATA     BYTE      CMPCR1
*SFR* 000000E7H   DATA     BYTE      CMPCR2
      00FF2818H   CODE     ---       cos?_
*SFR* 000000C8H.0 DATA     BIT       CP_RL2
*SFR* 000000D8H.6 DATA     BIT       CR
*SFR* 000000D0H.7 DATA     BIT       CY
      00010DEBH   XDATA    FLOAT     dajiao
      00FF9EDAH   CODE     ---       debug_assert_handler
      00FF957DH   CODE     ---       debug_init
      00FFA748H   CODE     ---       debug_interrupr_handler
*DEL*:00000000H   CODE     ---       debug_read_buffer
*DEL*:00000000H   CODE     ---       debug_send_buffer
      00010C73H   XDATA    ---       debug_uart_buffer
      00010CB4H   XDATA    ---       debug_uart_fifo
*DEL*:00000000H   CODE     ---       delay_ms
      00010E5FH   XDATA    WORD      dl1a_distance_mm
      00010E61H   XDATA    BYTE      dl1a_finsh_flag
*DEL*:00000000H   CODE     ---       dl1a_get_distance
*DEL*:00000000H   CODE     ---       dl1a_init
*DEL*:00000000H   CODE     ---       dl1a_int_handler
      00FF94D8H   CODE     ---       DMA_UART1_IRQHandler
L251 LINKER/LOCATER V4.66.93.0                                                        10/01/2025  18:14:56  PAGE 26


      00FF985FH   CODE     ---       DMA_UART2_IRQHandler
      00FF98E8H   CODE     ---       DMA_UART3_IRQHandler
      00FF9971H   CODE     ---       DMA_UART4_IRQHandler
*SFR* 00000083H   DATA     BYTE      DPH
*SFR* 00000082H   DATA     BYTE      DPL
*SFR* 00000084H   DATA     BYTE      DPXL
*SFR* 000000A8H.7 DATA     BIT       EA
*SFR* 000000A8H.6 DATA     BIT       EC
*SFR* 00000090H.2 DATA     BIT       ECI
*DEL*:00000000H   CODE     ---       eeprom_read_float
      00FFA1CEH   CODE     ---       eeprom_read_Num
*DEL*:00000000H   CODE     ---       eeprom_save_float
      00FF99FAH   CODE     ---       eeprom_save_Num
      00FF019EH   CODE     ---       eeprom_trig
*DEL*:00000000H   CODE     ---       encoder_clear_count
*DEL*:00000000H   CODE     ---       encoder_dir_init
*DEL*:00000000H   CODE     ---       encoder_get_count
*SFR* 000000A8H.4 DATA     BIT       ES
*SFR* 000000A8H.1 DATA     BIT       ET0
*SFR* 000000A8H.3 DATA     BIT       ET1
*SFR* 000000A8H.5 DATA     BIT       ET2
*SFR* 000000A8H.0 DATA     BIT       EX0
*SFR* 000000A8H.2 DATA     BIT       EX1
*SFR* 000000C8H.3 DATA     BIT       EXEN2
*SFR* 000000C8H.6 DATA     BIT       EXF2
      00FF30BAH   CODE     ---       exp?_
*DEL*:00000000H   CODE     ---       extern_iap_write_buff
*SFR* 000000D0H.5 DATA     BIT       F0
      00FF9225H   CODE     ---       fast_sqrt
*SFR* 00000098H.7 DATA     BIT       FE
*DEL*:00000000H   CODE     ---       fifo_clear
      00FF9C15H   CODE     ---       fifo_init
*DEL*:00000000H   CODE     ---       fifo_read_buffer
*DEL*:00000000H   CODE     ---       fifo_used
      00FF6403H   CODE     ---       fifo_write_buffer
      00010DB0H   XDATA    ---       filtered_adc
      00010E6FH   XDATA    CHAR      Flag
*DEL*:00000000H   CODE     ---       func_double_to_str
*DEL*:00000000H   CODE     ---       func_float_to_str
*DEL*:00000000H   CODE     ---       func_get_greatest_common_divisor
*DEL*:00000000H   CODE     ---       func_hex_to_str
*DEL*:00000000H   CODE     ---       func_int_to_str
*DEL*:00000000H   CODE     ---       func_soft_delay
*DEL*:00000000H   CODE     ---       func_str_to_double
*DEL*:00000000H   CODE     ---       func_str_to_float
*DEL*:00000000H   CODE     ---       func_str_to_hex
*DEL*:00000000H   CODE     ---       func_str_to_int
*DEL*:00000000H   CODE     ---       func_str_to_uint
*DEL*:00000000H   CODE     ---       func_uint_to_str
*DEL*:00000000H   CODE     ---       get_two_points_azimuth
*DEL*:00000000H   CODE     ---       get_two_points_distance
      00FFAA38H   CODE     ---       GO_Function
      00FF00C6H   CODE     ---       gpio_get_level
      00FF8F3EH   CODE     ---       gpio_init
      00FF8198H   CODE     ---       gpio_set_impedance
      00FF7D6CH   CODE     ---       gpio_set_level
      00FF6EA9H   CODE     ---       gpio_set_level_speed
*DEL*:00000000H   CODE     ---       gpio_toggle_level
*DEL*:00000000H   CODE     ---       gps_data_parse
      00010B32H   XDATA    INT       gps_gga_state
*DEL*:00000000H   CODE     ---       gps_init
      00010B34H   XDATA    INT       gps_rmc_state
      000109FEH   XDATA    ---       gps_tau1201
      0001097DH   XDATA    BYTE      gps_tau1201_flag
      00010EC1H   XDATA    INT       gps_type
L251 LINKER/LOCATER V4.66.93.0                                                        10/01/2025  18:14:56  PAGE 27


*DEL*:00000000H   CODE     ---       gps_uart_callback
      00FF8BFAH   CODE     ---       handle_key1
      00FFA513H   CODE     ---       handle_key2
      00FFA27AH   CODE     ---       handle_key3
      00FF8E77H   CODE     ---       handle_key4
      00FF00A6H   CODE     ---       handle_key5
      00FF4158H   CODE     ---       Hzk
      00010E6BH   XDATA    CHAR      i
*SFR* 000000F6H   DATA     BYTE      IAP_ADDRE
*SFR* 000000C3H   DATA     BYTE      IAP_ADDRH
*SFR* 000000C4H   DATA     BYTE      IAP_ADDRL
*SFR* 000000C5H   DATA     BYTE      IAP_CMD
*SFR* 000000C7H   DATA     BYTE      IAP_CONTR
*SFR* 000000C2H   DATA     BYTE      IAP_DATA
      00FFA904H   CODE     ---       iap_erase_page
*DEL*:00000000H   CODE     ---       iap_get_cmd_state
*DEL*:00000000H   CODE     ---       iap_idle
      00FF0003H   CODE     ---       iap_init
      00FFA3AFH   CODE     ---       iap_read_buff
      00FFA978H   CODE     ---       iap_read_byte
      00FF0026H   CODE     ---       iap_set_tps
*SFR* 000000F5H   DATA     BYTE      IAP_TPS
*SFR* 000000C6H   DATA     BYTE      IAP_TRIG
      00FFA3F8H   CODE     ---       iap_write_buff
      00FFA8DAH   CODE     ---       iap_write_byte
      00010E2EH   XDATA    INT       icm20602_acc_x
      00010E30H   XDATA    INT       icm20602_acc_y
      00010E32H   XDATA    INT       icm20602_acc_z
*DEL*:00000000H   CODE     ---       icm20602_get_acc
*DEL*:00000000H   CODE     ---       icm20602_get_gyro
      00010E34H   XDATA    INT       icm20602_gyro_x
      00010E36H   XDATA    INT       icm20602_gyro_y
      00010E38H   XDATA    INT       icm20602_gyro_z
*DEL*:00000000H   CODE     ---       icm20602_init
      00010E3AH   XDATA    ---       icm20602_transition_factor
*SFR* 000000A8H   DATA     BYTE      IE
*SFR* 000000A8H   DATA     BYTE      IE0
*SFR* 00000088H.1 DATA     BIT       IE0_
*SFR* 000000B1H   DATA     BYTE      IE1
*SFR* 00000088H.3 DATA     BIT       IE1_
*SFR* 000000AFH   DATA     BYTE      IE2
      00010E42H   XDATA    INT       imu660ra_acc_x
      00010E44H   XDATA    INT       imu660ra_acc_y
      00010E46H   XDATA    INT       imu660ra_acc_z
      00FF021EH   CODE     ---       imu660ra_config_file
*DEL*:00000000H   CODE     ---       imu660ra_get_acc
*DEL*:00000000H   CODE     ---       imu660ra_get_gyro
      00010E48H   XDATA    INT       imu660ra_gyro_x
      00010E4AH   XDATA    INT       imu660ra_gyro_y
      00010E4CH   XDATA    INT       imu660ra_gyro_z
*DEL*:00000000H   CODE     ---       imu660ra_init
      00010E4EH   XDATA    ---       imu660ra_transition_factor
*DEL*:00000000H   CODE     ---       imu660rb_acc_transition
      00010E88H   XDATA    INT       imu660rb_acc_x
      00010E8AH   XDATA    INT       imu660rb_acc_y
      00010E8CH   XDATA    INT       imu660rb_acc_z
*DEL*:00000000H   CODE     ---       imu660rb_get_acc
*DEL*:00000000H   CODE     ---       imu660rb_get_gyro
*DEL*:00000000H   CODE     ---       imu660rb_gyro_transition
      00010E8EH   XDATA    INT       imu660rb_gyro_x
      00010E90H   XDATA    INT       imu660rb_gyro_y
      00010E92H   XDATA    INT       imu660rb_gyro_z
*DEL*:00000000H   CODE     ---       imu660rb_init
      00010E10H   XDATA    INT       imu963ra_acc_x
      00010E12H   XDATA    INT       imu963ra_acc_y
L251 LINKER/LOCATER V4.66.93.0                                                        10/01/2025  18:14:56  PAGE 28


      00010E14H   XDATA    INT       imu963ra_acc_z
*DEL*:00000000H   CODE     ---       imu963ra_get_acc
*DEL*:00000000H   CODE     ---       imu963ra_get_gyro
*DEL*:00000000H   CODE     ---       imu963ra_get_mag
      00010E1CH   XDATA    INT       imu963ra_gyro_x
      00010E1EH   XDATA    INT       imu963ra_gyro_y
      00010E20H   XDATA    INT       imu963ra_gyro_z
*DEL*:00000000H   CODE     ---       imu963ra_init
      00010E16H   XDATA    INT       imu963ra_mag_x
      00010E18H   XDATA    INT       imu963ra_mag_y
      00010E1AH   XDATA    INT       imu963ra_mag_z
      00010E22H   XDATA    ---       imu963ra_transition_factor
      00FF9614H   CODE     ---       init_all
      00010DBBH   XDATA    BYTE      Init_Fg
      00010E9EH   XDATA    BYTE      Init_Flag
      00010ED3H   XDATA    INT       Init_Time
*SFR* 000000B0H.2 DATA     BIT       INT0
      00010DFEH   XDATA    ---       int0_irq_handler
*SFR* 000000B0H.3 DATA     BIT       INT1
      00010E02H   XDATA    ---       int1_irq_handler
      00010E06H   XDATA    ---       int2_irq_handler
      00010E0AH   XDATA    ---       int3_irq_handler
      00010E0EH   XDATA    ---       int4_irq_handler
*SFR* 0000008FH   DATA     BYTE      INTCLKO
*DEL*:00000000H   CODE     ---       interrupt_global_disable
      00FF001EH   CODE     ---       interrupt_global_enable
*DEL*:00000000H   CODE     ---       interrupt_set_priority
*SFR* 000000B8H   DATA     BYTE      IP
*SFR* 000000B5H   DATA     BYTE      IP2
*SFR* 000000B6H   DATA     BYTE      IP2H
*SFR* 000000DFH   DATA     BYTE      IP3
*SFR* 000000EEH   DATA     BYTE      IP3H
*SFR* 000000B7H   DATA     BYTE      IPH
*SFR* 000000B7H   DATA     BYTE      IPH0
*SFR* 000000B8H   DATA     BYTE      IPL0
      00010ECDH   XDATA    WORD      ips114_bgcolor
*DEL*:00000000H   CODE     ---       ips114_clear
      00010ECFH   XDATA    INT       ips114_display_dir
*DEL*:00000000H   CODE     ---       ips114_draw_point
*DEL*:00000000H   CODE     ---       ips114_init
      00010ECBH   XDATA    WORD      ips114_pencolor
*DEL*:00000000H   CODE     ---       ips114_set_color
*DEL*:00000000H   CODE     ---       ips114_set_dir
*DEL*:00000000H   CODE     ---       ips114_show_char
*DEL*:00000000H   CODE     ---       ips114_show_chinese
*DEL*:00000000H   CODE     ---       ips114_show_float
*DEL*:00000000H   CODE     ---       ips114_show_int16
*DEL*:00000000H   CODE     ---       ips114_show_int32
*DEL*:00000000H   CODE     ---       ips114_show_int8
*DEL*:00000000H   CODE     ---       ips114_show_string
*DEL*:00000000H   CODE     ---       ips114_show_uint16
*DEL*:00000000H   CODE     ---       ips114_show_uint8
*DEL*:00000000H   CODE     ---       ips114_show_wave
      00010ED1H   XDATA    BYTE      ips114_x_max
      00010ED2H   XDATA    BYTE      ips114_y_max
      00010EA1H   XDATA    WORD      ips200_bgcolor
*DEL*:00000000H   CODE     ---       ips200_clear
      00010EA3H   XDATA    INT       ips200_display_dir
*DEL*:00000000H   CODE     ---       ips200_draw_point
*DEL*:00000000H   CODE     ---       ips200_init
      00010E9FH   XDATA    WORD      ips200_pencolor
*DEL*:00000000H   CODE     ---       ips200_set_color
*DEL*:00000000H   CODE     ---       ips200_set_dir
*DEL*:00000000H   CODE     ---       ips200_show_char
*DEL*:00000000H   CODE     ---       ips200_show_chinese
L251 LINKER/LOCATER V4.66.93.0                                                        10/01/2025  18:14:56  PAGE 29


*DEL*:00000000H   CODE     ---       ips200_show_float
*DEL*:00000000H   CODE     ---       ips200_show_int16
*DEL*:00000000H   CODE     ---       ips200_show_int32
*DEL*:00000000H   CODE     ---       ips200_show_int8
*DEL*:00000000H   CODE     ---       ips200_show_string
*DEL*:00000000H   CODE     ---       ips200_show_uint16
*DEL*:00000000H   CODE     ---       ips200_show_uint8
*DEL*:00000000H   CODE     ---       ips200_show_wave
      00010EA5H   XDATA    WORD      ips200_x_max
      00010EA7H   XDATA    WORD      ips200_y_max
*SFR* 0000009DH   DATA     BYTE      IRCBAND
*SFR* 00000088H.0 DATA     BIT       IT0
*SFR* 00000088H.2 DATA     BIT       IT1
      00010E6CH   XDATA    CHAR      j
      00010E69H   XDATA    BYTE      Key
      00010E6DH   XDATA    CHAR      Key3_count
      00FF01AEH   CODE     ---       Key3_handle1
      00FF8CD6H   CODE     ---       Key3_handle2
      00010E99H   XDATA    BYTE      Key_count
      00010DB8H   XDATA    BYTE      Key_Flag
      00FFA4CEH   CODE     ---       Key_Number
      00FF8668H   CODE     ---       Key_scaner
      00010E9CH   XDATA    BYTE      keynumber
      00010E9DH   XDATA    BYTE      last_keynumber
      00010EAFH   XDATA    FLOAT     last_uni
*DEL*:00000000H   CODE     ---       LineLossProtection
      00FF31A3H   CODE     NEAR LAB  log?_
      00010EA9H   XDATA    INT       loss_Time
      00FF0066H   CODE     ---       MAIN
      00FFA953H   CODE     ---       memcpy?_
*DEL*:00000000H   CODE     ---       memset?_
      00FF82DEH   CODE     ---       menu_display_content
      00FFA87FH   CODE     ---       menu_handle_key
      00FFA84FH   CODE     ---       menu_Init
      00FF8DA7H   CODE     ---       Menu_SetChildren
      00010E68H   XDATA    CHAR      mode
      00FFC3CDH   HCONST   ---       mode_map
      00FF9D86H   CODE     ---       Motor_Init
      00FF8872H   CODE     ---       Motor_Update
      00FFA6CEH   CODE     ---       MotorL_SetSpeed
      00FFA70BH   CODE     ---       MotorR_SetSpeed
      00FF8FFAH   CODE     ---       Normal_PID
      000103ECH   XDATA    ---       Num
*DEL*:00000000H   CODE     ---       OLED_Clear
*DEL*:00000000H   CODE     ---       OLED_ColorTurn
*DEL*:00000000H   CODE     ---       OLED_DisplayTurn
*DEL*:00000000H   CODE     ---       OLED_Init
*DEL*:00000000H   CODE     ---       oled_pow
*DEL*:00000000H   CODE     ---       OLED_Set_Pos
*DEL*:00000000H   CODE     ---       OLED_ShowChar
*DEL*:00000000H   CODE     ---       OLED_ShowChinese
*DEL*:00000000H   CODE     ---       OLED_ShowNum
*DEL*:00000000H   CODE     ---       OLED_ShowString
*DEL*:00000000H   CODE     ---       OLED_WR_Byte
*SFR* 000000D0H.2 DATA     BIT       OV
*SFR* 000000D0H.0 DATA     BIT       P
*SFR* 00000080H   DATA     BYTE      P0
*SFR* 00000094H   DATA     BYTE      P0M0
*SFR* 00000093H   DATA     BYTE      P0M1
*SFR* 00000090H   DATA     BYTE      P1
*SFR* 00000092H   DATA     BYTE      P1M0
*SFR* 00000091H   DATA     BYTE      P1M1
*SFR* 000000A0H   DATA     BYTE      P2
*SFR* 000000A0H.0 DATA     BIT       P20
*SFR* 000000A0H.1 DATA     BIT       P21
L251 LINKER/LOCATER V4.66.93.0                                                        10/01/2025  18:14:56  PAGE 30


*SFR* 000000A0H.2 DATA     BIT       P22
*SFR* 00000096H   DATA     BYTE      P2M0
*SFR* 00000095H   DATA     BYTE      P2M1
*SFR* 000000B0H   DATA     BYTE      P3
*SFR* 000000B2H   DATA     BYTE      P3M0
*SFR* 000000B1H   DATA     BYTE      P3M1
*SFR* 000000C0H   DATA     BYTE      P4
*SFR* 000000C0H.0 DATA     BIT       P40
*SFR* 000000C0H.1 DATA     BIT       P41
*SFR* 000000C0H.2 DATA     BIT       P42
*SFR* 000000C0H.3 DATA     BIT       P43
*SFR* 000000B4H   DATA     BYTE      P4M0
*SFR* 000000B3H   DATA     BYTE      P4M1
*SFR* 000000C8H   DATA     BYTE      P5
*SFR* 000000CAH   DATA     BYTE      P5M0
*SFR* 000000C9H   DATA     BYTE      P5M1
*SFR* 000000E8H   DATA     BYTE      P6
*SFR* 000000CCH   DATA     BYTE      P6M0
*SFR* 000000CBH   DATA     BYTE      P6M1
*SFR* 000000F8H   DATA     BYTE      P7
*SFR* 000000E2H   DATA     BYTE      P7M0
*SFR* 000000E1H   DATA     BYTE      P7M1
*SFR* 000000A2H   DATA     BYTE      P_SW1
*SFR* 000000BAH   DATA     BYTE      P_SW2
*SFR* 000000BBH   DATA     BYTE      P_SW3
*SFR* 000000BFH   DATA     BYTE      P_SW4
      00010000H   XDATA    ---       Page
      00010544H   XDATA    ---       Page0_children
      00010553H   XDATA    ---       Page5_children
*SFR* 00000087H   DATA     BYTE      PCON
      00FF8782H   CODE     ---       PID_Update
      000103E8H   XDATA    ---       Pin
      00010ED9H   XDATA    BYTE      PIT0_Flag
      00010EDAH   XDATA    BYTE      PIT1_Flag
      00FF01BEH   CODE     ---       pit_handler0
      00FFAA48H   CODE     ---       pit_handler1
      00FF783DH   CODE     ---       pit_init
*DEL*:00000000H   CODE     ---       pow?_
*SFR* 000000B8H.6 DATA     BIT       PPC
      00010E97H   XDATA    INT       Press_time
      00FF2678H   CODE     NEAR LAB  printf
      00010DF0H   XDATA    INT       PRO_Set_Time
      00FFA7B9H   CODE     ---       Protect
*SFR* 000000B8H.4 DATA     BIT       PS
*SFR* 000000D0H   DATA     BYTE      PSW
*SFR* 000000D1H   DATA     BYTE      PSW1
*SFR* 000000B8H.1 DATA     BIT       PT0
*SFR* 000000B7H.1 DATA     BIT       PT0H
*SFR* 000000B8H.3 DATA     BIT       PT1
*SFR* 000000B7H.3 DATA     BIT       PT1H
*SFR* 000000B8H.5 DATA     BIT       PT2
      00FFAA18H   CODE     ---       putchar
      00FFC201H   HCONST   ---       PWM_ARR_ADDR
      00FFC209H   HCONST   ---       PWM_CCER_ADDR
      00FFC219H   HCONST   ---       PWM_CCMR_ADDR
      00FFC1E1H   HCONST   ---       PWM_CCR_ADDR
      00FF5A4EH   CODE     ---       pwm_init
      00FFC1D9H   HCONST   ---       PWM_PSCR_ADDR
      00FF7BDCH   CODE     ---       pwm_set_duty
*DEL*:00000000H   CODE     ---       pwm_set_freq
      00FFA7ECH   CODE     ---       PWM_Test
*SFR* 000000B8H.0 DATA     BIT       PX0
*SFR* 000000B8H.2 DATA     BIT       PX1
      00010D7AH   XDATA    ---       raw_adc_data
*SFR* 00000098H.2 DATA     BIT       RB8
L251 LINKER/LOCATER V4.66.93.0                                                        10/01/2025  18:14:56  PAGE 31


*SFR* 000000CBH   DATA     BYTE      RCAP2H
*SFR* 000000CAH   DATA     BYTE      RCAP2L
*SFR* 000000C8H.5 DATA     BIT       RCLK
*SFR* 000000B0H.7 DATA     BIT       RD
      00FF9B92H   CODE     ---       Refesh_arrow
*SFR* 00000098H.4 DATA     BIT       REN
*SFR* 00000098H.0 DATA     BIT       RI
*SFR* 000000D0H.3 DATA     BIT       RS0
*SFR* 000000D0H.4 DATA     BIT       RS1
*SFR* 000000FFH   DATA     BYTE      RSTCFG
*SFR* 000000B0H.0 DATA     BIT       RXD
*SFR* 0000009BH   DATA     BYTE      S2BUF
*SFR* 0000009AH   DATA     BYTE      S2CON
*SFR* 0000009AH.1 DATA     BIT       S2TI
*SFR* 000000ACH   DATA     BYTE      S3CON
*SFR* 000000FDH   DATA     BYTE      S4CON
*SFR* 000000A9H   DATA     BYTE      SADDR
*SFR* 000000B9H   DATA     BYTE      SADEN
      00010E6EH   XDATA    BYTE      Save_Flag
*SFR* 00000099H   DATA     BYTE      SBUF
*SFR* 00000098H   DATA     BYTE      SCON
*DEL*:00000000H   CODE     ---       seekfree_assistant_camera_boundary_config
*DEL*:00000000H   CODE     ---       seekfree_assistant_camera_data_send
*DEL*:00000000H   CODE     ---       seekfree_assistant_camera_dot_send
*DEL*:00000000H   CODE     ---       seekfree_assistant_camera_information_config
*DEL*:00000000H   CODE     ---       seekfree_assistant_camera_send
*DEL*:00000000H   CODE     ---       seekfree_assistant_data_analysis
*DEL*:00000000H   CODE     ---       seekfree_assistant_init
*DEL*:00000000H   CODE     ---       seekfree_assistant_interface_init
      00010B3EH   XDATA    ---       seekfree_assistant_oscilloscope_data
*DEL*:00000000H   CODE     ---       seekfree_assistant_oscilloscope_send
      00010B81H   XDATA    ---       seekfree_assistant_parameter
      00010B79H   XDATA    ---       seekfree_assistant_parameter_update_flag
      00010EE9H   XDATA    ---       seekfree_assistant_receive_callback
      00010EEBH   XDATA    ---       seekfree_assistant_transfer_callback
      00FFAA28H   CODE     ---       Ser_Servo_Duty
      00FFA224H   CODE     ---       Serve_Test
      00010DEFH   XDATA    BYTE      Servo_Flag
      00FF0046H   CODE     ---       Servo_Init
      00010DBDH   XDATA    ---       servo_pid
      00FFA178H   CODE     ---       Servo_turn_pid
*DEL*:00000000H   CODE     ---       set_gps_type
      00FFAA07H   CODE     ---       Set_Sevo
      00010DE9H   XDATA    INT       Set_T
*DEL*:00000000H   CODE     ---       SET_Time
*DEL*:00000000H   CODE     ---       set_tof_type
*DEL*:00000000H   CODE     ---       set_wireless_type
      00FFA9F6H   CODE     ---       show_all_menu
      00FF9D0FH   CODE     ---       Show_bujin
      00010E63H   XDATA    BYTE      Show_image_mode
      00FF4E35H   CODE     ---       Show_pararm
      00FF2839H   CODE     ---       sin?_
*SFR* 00000098H.7 DATA     BIT       SM0
*SFR* 00000098H.6 DATA     BIT       SM1
*SFR* 00000098H.5 DATA     BIT       SM2
      00FFA781H   CODE     ---       soft_iic_delay
*DEL*:00000000H   CODE     ---       soft_iic_init
*DEL*:00000000H   CODE     ---       soft_iic_read_16bit
*DEL*:00000000H   CODE     ---       soft_iic_read_16bit_array
*DEL*:00000000H   CODE     ---       soft_iic_read_16bit_register
*DEL*:00000000H   CODE     ---       soft_iic_read_16bit_registers
*DEL*:00000000H   CODE     ---       soft_iic_read_8bit
*DEL*:00000000H   CODE     ---       soft_iic_read_8bit_array
*DEL*:00000000H   CODE     ---       soft_iic_read_8bit_register
*DEL*:00000000H   CODE     ---       soft_iic_read_8bit_registers
L251 LINKER/LOCATER V4.66.93.0                                                        10/01/2025  18:14:56  PAGE 32


      00FF9171H   CODE     ---       soft_iic_read_data
*DEL*:00000000H   CODE     ---       soft_iic_sccb_read_register
*DEL*:00000000H   CODE     ---       soft_iic_sccb_write_register
      00FF9DFCH   CODE     ---       soft_iic_send_ack
      00FF973EH   CODE     ---       soft_iic_send_data
      00FFA121H   CODE     ---       soft_iic_start
      00FF9FA9H   CODE     ---       soft_iic_stop
*DEL*:00000000H   CODE     ---       soft_iic_transfer_16bit_array
*DEL*:00000000H   CODE     ---       soft_iic_transfer_8bit_array
      00FF9C96H   CODE     ---       soft_iic_wait_ack
*DEL*:00000000H   CODE     ---       soft_iic_write_16bit
*DEL*:00000000H   CODE     ---       soft_iic_write_16bit_array
*DEL*:00000000H   CODE     ---       soft_iic_write_16bit_register
*DEL*:00000000H   CODE     ---       soft_iic_write_16bit_registers
*DEL*:00000000H   CODE     ---       soft_iic_write_8bit
*DEL*:00000000H   CODE     ---       soft_iic_write_8bit_array
*DEL*:00000000H   CODE     ---       soft_iic_write_8bit_register
*DEL*:00000000H   CODE     ---       soft_iic_write_8bit_registers
*DEL*:00000000H   CODE     ---       soft_spi_delay
*DEL*:00000000H   CODE     ---       soft_spi_init
*DEL*:00000000H   CODE     ---       soft_spi_read_16bit
*DEL*:00000000H   CODE     ---       soft_spi_read_16bit_array
*DEL*:00000000H   CODE     ---       soft_spi_read_16bit_register
*DEL*:00000000H   CODE     ---       soft_spi_read_16bit_registers
*DEL*:00000000H   CODE     ---       soft_spi_read_8bit
*DEL*:00000000H   CODE     ---       soft_spi_read_8bit_array
*DEL*:00000000H   CODE     ---       soft_spi_read_8bit_register
*DEL*:00000000H   CODE     ---       soft_spi_read_8bit_registers
*DEL*:00000000H   CODE     ---       soft_spi_transfer_16bit
*DEL*:00000000H   CODE     ---       soft_spi_transfer_8bit
*DEL*:00000000H   CODE     ---       soft_spi_write_16bit
*DEL*:00000000H   CODE     ---       soft_spi_write_16bit_array
*DEL*:00000000H   CODE     ---       soft_spi_write_16bit_register
*DEL*:00000000H   CODE     ---       soft_spi_write_16bit_registers
*DEL*:00000000H   CODE     ---       soft_spi_write_8bit
*DEL*:00000000H   CODE     ---       soft_spi_write_8bit_array
*DEL*:00000000H   CODE     ---       soft_spi_write_8bit_register
*DEL*:00000000H   CODE     ---       soft_spi_write_8bit_registers
*SFR* 00000081H   DATA     BYTE      SP
*SFR* 000000CEH   DATA     BYTE      SPCTL
*SFR* 000000CFH   DATA     BYTE      SPDAT
*SFR* 000000BEH   DATA     BYTE      SPH
      00FF5F5EH   CODE     ---       spi_init
*DEL*:00000000H   CODE     ---       spi_read_16bit
*DEL*:00000000H   CODE     ---       spi_read_16bit_array
*DEL*:00000000H   CODE     ---       spi_read_16bit_register
*DEL*:00000000H   CODE     ---       spi_read_16bit_registers
*DEL*:00000000H   CODE     ---       spi_read_8bit
*DEL*:00000000H   CODE     ---       spi_read_8bit_array
*DEL*:00000000H   CODE     ---       spi_read_8bit_register
*DEL*:00000000H   CODE     ---       spi_read_8bit_registers
*DEL*:00000000H   CODE     ---       spi_read_dat
*DEL*:00000000H   CODE     ---       spi_transfer_16bit
*DEL*:00000000H   CODE     ---       spi_transfer_8bit
      00FFA99BH   CODE     ---       spi_write_16bit
*DEL*:00000000H   CODE     ---       spi_write_16bit_array
*DEL*:00000000H   CODE     ---       spi_write_16bit_register
*DEL*:00000000H   CODE     ---       spi_write_16bit_registers
      00FF01C5H   CODE     ---       spi_write_8bit
*DEL*:00000000H   CODE     ---       spi_write_8bit_array
*DEL*:00000000H   CODE     ---       spi_write_8bit_register
*DEL*:00000000H   CODE     ---       spi_write_8bit_registers
      00FFA556H   CODE     ---       spi_write_dat
      00FF26A4H   CODE     NEAR LAB  sprintf
*SFR* 000000CDH   DATA     BYTE      SPSTAT
L251 LINKER/LOCATER V4.66.93.0                                                        10/01/2025  18:14:56  PAGE 33


      00FF26CAH   CODE     ---       sqrt?_
      00010E6AH   XDATA    CHAR      Start_Show_Row
      00010E94H   XDATA    BYTE      State
*DEL*:00000000H   CODE     ---       strchr?_
*DEL*:00000000H   CODE     ---       strlen?_
*DEL*:00000000H   CODE     ---       strncmp?_
*DEL*:00000000H   CODE     ---       strncpy?_
      00010EE1H   XDATA    LONG      system_clock
      00FFA06DH   CODE     ---       system_delay_init
      00FF9E6FH   CODE     ---       system_delay_ms
*DEL*:00000000H   CODE     ---       system_delay_us
      00010ED7H   XDATA    INT       T
*SFR* 000000B0H.4 DATA     BIT       T0
*SFR* 000000B0H.5 DATA     BIT       T1
*SFR* 00000090H.0 DATA     BIT       T2
*SFR* 000000C8H   DATA     BYTE      T2CON
*SFR* 00000090H.1 DATA     BIT       T2EX
*SFR* 000000D6H   DATA     BYTE      T2H
*SFR* 000000D7H   DATA     BYTE      T2L
*SFR* 000000C9H   DATA     BYTE      T2MOD
      00010DB9H   XDATA    INT       T3
*SFR* 000000D4H   DATA     BYTE      T3H
*SFR* 000000D5H   DATA     BYTE      T3L
      00010ED5H   XDATA    INT       T4
*SFR* 000000D2H   DATA     BYTE      T4H
*SFR* 000000D3H   DATA     BYTE      T4L
*SFR* 000000DDH   DATA     BYTE      T4T3M
      00FF286EH   CODE     ---       TAN?_
*SFR* 00000098H.3 DATA     BIT       TB8
*SFR* 000000C8H.4 DATA     BIT       TCLK
*SFR* 00000088H   DATA     BYTE      TCON
*SFR* 00000088H.5 DATA     BIT       TF0
*SFR* 00000088H.7 DATA     BIT       TF1
*SFR* 000000C8H.7 DATA     BIT       TF2
      00010EC5H   XDATA    WORD      tft180_bgcolor
      00FF9F42H   CODE     ---       tft180_clear
      00010EC7H   XDATA    INT       tft180_display_dir
*DEL*:00000000H   CODE     ---       tft180_draw_point
      00FF6BCDH   CODE     ---       tft180_init
      00010EC3H   XDATA    WORD      tft180_pencolor
      00FF000EH   CODE     ---       tft180_set_color
      00FFA92CH   CODE     ---       tft180_set_dir
      00FF8A3CH   CODE     ---       tft180_show_char
      00FF7A18H   CODE     ---       tft180_show_float
      00FF8413H   CODE     ---       tft180_show_int16
*DEL*:00000000H   CODE     ---       tft180_show_int32
*DEL*:00000000H   CODE     ---       tft180_show_int8
      00FF9389H   CODE     ---       tft180_show_string
*DEL*:00000000H   CODE     ---       tft180_show_uint16
*DEL*:00000000H   CODE     ---       tft180_show_uint8
*DEL*:00000000H   CODE     ---       tft180_show_wave
      00010EC9H   XDATA    BYTE      tft180_x_max
      00010ECAH   XDATA    BYTE      tft180_y_max
*SFR* 0000008CH   DATA     BYTE      TH0
*SFR* 0000008DH   DATA     BYTE      TH1
*SFR* 000000CDH   DATA     BYTE      TH2
*SFR* 00000098H.1 DATA     BIT       TI
      00010DFCH   XDATA    ---       tim0_irq_handler
      00010DF2H   XDATA    ---       tim11_irq_handler
      00010E00H   XDATA    ---       tim1_irq_handler
      00010E04H   XDATA    ---       tim2_irq_handler
      00010E08H   XDATA    ---       tim3_irq_handler
      00010E0CH   XDATA    ---       tim4_irq_handler
      00010E9AH   XDATA    WORD      Time_dou
      00FFA2CCH   CODE     ---       timer_funciton_check
L251 LINKER/LOCATER V4.66.93.0                                                        10/01/2025  18:14:56  PAGE 34


*SFR* 0000008AH   DATA     BYTE      TL0
*SFR* 0000008BH   DATA     BYTE      TL1
*SFR* 000000CCH   DATA     BYTE      TL2
      00FFA598H   CODE     ---       TM0_IRQHandler
      00FFA364H   CODE     ---       TM11_IRQHandler
      00FFA5D6H   CODE     ---       TM1_IRQHandler
      00FFA614H   CODE     ---       TM2_IRQHandler
      00FFA652H   CODE     ---       TM3_IRQHandler
      00FFA690H   CODE     ---       TM4_IRQHandler
*SFR* 00000089H   DATA     BYTE      TMOD
      00010EBBH   XDATA    ---       tof_module_exti_handler
      00010EBFH   XDATA    INT       tof_type
*SFR* 00000088H.4 DATA     BIT       TR0
*SFR* 00000088H.6 DATA     BIT       TR1
*SFR* 000000C8H.2 DATA     BIT       TR2
      00010E95H   XDATA    INT       Trigg_time
*DEL*:00000000H   CODE     ---       tsl1401_collect_pit_handler
      00010765H   XDATA    ---       tsl1401_data
      00010764H   XDATA    BYTE      tsl1401_finish_flag
*DEL*:00000000H   CODE     ---       tsl1401_init
*DEL*:00000000H   CODE     ---       tsl1401_send_data
      00FF90B6H   CODE     ---       Turn_mode
      00FF7162H   CODE     ---       Turn_mode_Init
*SFR* 000000B0H.1 DATA     BIT       TXD
      00010DF4H   XDATA    ---       uart1_irq_handler
      00010DF6H   XDATA    ---       uart2_irq_handler
      00010DF8H   XDATA    ---       uart3_irq_handler
      00010DFAH   XDATA    ---       uart4_irq_handler
      00FF8051H   CODE     ---       uart_dma_init
      00FFA318H   CODE     ---       uart_funciton_check
      00FF73E2H   CODE     ---       uart_init
      00FFA00BH   CODE     ---       uart_query_byte
*DEL*:00000000H   CODE     ---       uart_read_byte
      00010E84H   XDATA    ---       uart_rx_buff
      00FFA489H   CODE     ---       uart_rx_interrupt
      00FF97CFH   CODE     ---       uart_rx_start_buff
      00FF895AH   CODE     ---       uart_write_buffer
      00FFA9D0H   CODE     ---       uart_write_byte
*DEL*:00000000H   CODE     ---       uart_write_string
      00010EABH   XDATA    FLOAT     uni
      00FF9B0BH   CODE     ---       unification
*SFR* 000000F4H   DATA     BYTE      USBCON
*SFR* 000000C1H   DATA     BYTE      WDT_CONTR
*SFR* 000000A6H   DATA     BYTE      WDTRST
      00010EBDH   XDATA    INT       wireless_type
*DEL*:00000000H   CODE     ---       wireless_uart_callback
*DEL*:00000000H   CODE     ---       wireless_uart_init
*DEL*:00000000H   CODE     ---       wireless_uart_read_buffer
*DEL*:00000000H   CODE     ---       wireless_uart_send_buffer
*DEL*:00000000H   CODE     ---       wireless_uart_send_byte
*DEL*:00000000H   CODE     ---       wireless_uart_send_string
*SFR* 000000ABH   DATA     BYTE      WKTCH
*SFR* 000000B0H.6 DATA     BIT       WR
*SFR* 000000E9H   DATA     BYTE      WTST
      00FF4618H   CODE     ---       zf_sprintf



SYMBOL TABLE OF MODULE:  .\out_file\SEEKFREE (ai8051u_isr)

      VALUE       REP       CLASS    TYPE      SYMBOL NAME
      ====================================================
      ---         MODULE    ---      ---       ai8051u_isr

      00FF019BH   BLOCK     CODE     NEAR LAB  LVL=0
L251 LINKER/LOCATER V4.66.93.0                                                        10/01/2025  18:14:56  PAGE 35


      00FF019BH   LINE      CODE     ---       #3
      ---         BLOCKEND  ---      ---       LVL=0

      00FF01ABH   BLOCK     CODE     NEAR LAB  LVL=0
      00FF01ABH   LINE      CODE     ---       #6
      ---         BLOCKEND  ---      ---       LVL=0

      00FF01BBH   BLOCK     CODE     NEAR LAB  LVL=0
      00FF01BBH   LINE      CODE     ---       #9
      ---         BLOCKEND  ---      ---       LVL=0

      00FF01CBH   BLOCK     CODE     NEAR LAB  LVL=0
      00FF01CBH   LINE      CODE     ---       #12
      ---         BLOCKEND  ---      ---       LVL=0

      00FF021BH   BLOCK     CODE     NEAR LAB  LVL=0
      00FF021BH   LINE      CODE     ---       #15
      ---         BLOCKEND  ---      ---       LVL=0

      ---         MODULE    ---      ---       zf_common_clock
      00FF8B1CH   PUBLIC    CODE     ---       clock_init
      00010EE1H   PUBLIC    XDATA    LONG      system_clock
      00000094H   SFRSYM    DATA     BYTE      P0M0
      000000D0H   SFRSYM    DATA     BYTE      PSW
      0000009DH   SFRSYM    DATA     BYTE      IRCBAND
      00000097H   SFRSYM    DATA     BYTE      AUXR2
      000000EAH   SFRSYM    DATA     BYTE      CKCON
      000000EFH   SFRSYM    DATA     BYTE      AUXINTIF
      000000FDH   SFRSYM    DATA     BYTE      S4CON
      000000ACH   SFRSYM    DATA     BYTE      S3CON
      0000009AH   SFRSYM    DATA     BYTE      S2CON
      000000B7H   SFRSYM    DATA     BYTE      IPH
      000000CDH   SFRSYM    DATA     BYTE      SPSTAT
      000000DDH   SFRSYM    DATA     BYTE      T4T3M
      000000C1H   SFRSYM    DATA     BYTE      WDT_CONTR
      000000E9H   SFRSYM    DATA     BYTE      WTST
      000000DFH   SFRSYM    DATA     BYTE      IP3
      000000F4H   SFRSYM    DATA     BYTE      USBCON
      000000B5H   SFRSYM    DATA     BYTE      IP2
      000000FFH   SFRSYM    DATA     BYTE      RSTCFG
      000000C7H   SFRSYM    DATA     BYTE      IAP_CONTR
      0000008EH   SFRSYM    DATA     BYTE      AUXR
      000000AFH   SFRSYM    DATA     BYTE      IE2
      00000088H   SFRSYM    DATA     BYTE      TCON
      00000089H   SFRSYM    DATA     BYTE      TMOD
      00000098H   SFRSYM    DATA     BYTE      SCON
      00000087H   SFRSYM    DATA     BYTE      PCON
      000000BCH   SFRSYM    DATA     BYTE      ADC_CONTR
      000000D1H   SFRSYM    DATA     BYTE      PSW1
      000000E7H   SFRSYM    DATA     BYTE      CMPCR2
      000000E6H   SFRSYM    DATA     BYTE      CMPCR1
      000000DEH   SFRSYM    DATA     BYTE      ADCCFG
      000000B8H   SFRSYM    DATA     BYTE      IP
      0000008FH   SFRSYM    DATA     BYTE      INTCLKO
      000000EEH   SFRSYM    DATA     BYTE      IP3H
      000000B6H   SFRSYM    DATA     BYTE      IP2H
      000000BFH   SFRSYM    DATA     BYTE      P_SW4
      000000A8H   SFRSYM    DATA     BYTE      IE
      000000BBH   SFRSYM    DATA     BYTE      P_SW3
      000000BAH   SFRSYM    DATA     BYTE      P_SW2
      000000A2H   SFRSYM    DATA     BYTE      P_SW1
      000000CEH   SFRSYM    DATA     BYTE      SPCTL
      000000F8H   SFRSYM    DATA     BYTE      P7
      000000E1H   SFRSYM    DATA     BYTE      P7M1
      000000E8H   SFRSYM    DATA     BYTE      P6
L251 LINKER/LOCATER V4.66.93.0                                                        10/01/2025  18:14:56  PAGE 36


      000000C8H   SFRSYM    DATA     BYTE      P5
      000000CBH   SFRSYM    DATA     BYTE      P6M1
      000000E2H   SFRSYM    DATA     BYTE      P7M0
      000000C0H   SFRSYM    DATA     BYTE      P4
      000000C9H   SFRSYM    DATA     BYTE      P5M1
      000000CCH   SFRSYM    DATA     BYTE      P6M0
      000000ABH   SFRSYM    DATA     BYTE      WKTCH
      000000B0H   SFRSYM    DATA     BYTE      P3
      000000B3H   SFRSYM    DATA     BYTE      P4M1
      000000CAH   SFRSYM    DATA     BYTE      P5M0
      000000A0H   SFRSYM    DATA     BYTE      P2
      000000B1H   SFRSYM    DATA     BYTE      P3M1
      000000B4H   SFRSYM    DATA     BYTE      P4M0
      00000090H   SFRSYM    DATA     BYTE      P1
      00000095H   SFRSYM    DATA     BYTE      P2M1
      000000B2H   SFRSYM    DATA     BYTE      P3M0
      00000080H   SFRSYM    DATA     BYTE      P0
      00000091H   SFRSYM    DATA     BYTE      P1M1
      00000096H   SFRSYM    DATA     BYTE      P2M0
      00000092H   SFRSYM    DATA     BYTE      P1M0
      00000093H   SFRSYM    DATA     BYTE      P0M1

      00FF8B1CH   BLOCK     CODE     ---       LVL=0
      DR12        REGSYM    ---      DWORD     clock
      00FF8B1CH   LINE      CODE     ---       #47
      00FF8B20H   LINE      CODE     ---       #49
      00FF8B23H   LINE      CODE     ---       #50
      00FF8B26H   LINE      CODE     ---       #51
      00FF8B29H   LINE      CODE     ---       #54
      00FF8B36H   LINE      CODE     ---       #55
      00FF8B44H   LINE      CODE     ---       #56
      00FF8B50H   LINE      CODE     ---       #57
      00FF8B5DH   LINE      CODE     ---       #58
      00FF8B69H   LINE      CODE     ---       #60
      00FF8B6CH   LINE      CODE     ---       #63
      00FF8B76H   LINE      CODE     ---       #65
      00FF8B79H   LINE      CODE     ---       #66
      00FF8B7CH   LINE      CODE     ---       #67
      00FF8B7FH   LINE      CODE     ---       #68
      00FF8B82H   LINE      CODE     ---       #69
      00FF8B85H   LINE      CODE     ---       #70
      00FF8B88H   LINE      CODE     ---       #71
      00FF8B8BH   LINE      CODE     ---       #72
      00FF8B8EH   LINE      CODE     ---       #73
      00FF8B91H   LINE      CODE     ---       #74
      00FF8B94H   LINE      CODE     ---       #75
      00FF8B97H   LINE      CODE     ---       #76
      00FF8B9AH   LINE      CODE     ---       #77
      00FF8B9DH   LINE      CODE     ---       #78
      00FF8BA0H   LINE      CODE     ---       #79
      00FF8BA3H   LINE      CODE     ---       #80
      00FF8BA6H   LINE      CODE     ---       #83
      00FF8BA9H   LINE      CODE     ---       #84
      00FF8BACH   LINE      CODE     ---       #85
      00FF8BAFH   LINE      CODE     ---       #86
      00FF8BB2H   LINE      CODE     ---       #87
      00FF8BB5H   LINE      CODE     ---       #88
      00FF8BB8H   LINE      CODE     ---       #89
      00FF8BBBH   LINE      CODE     ---       #90
      00FF8BBEH   LINE      CODE     ---       #91
      00FF8BC1H   LINE      CODE     ---       #92
      00FF8BC4H   LINE      CODE     ---       #93
      00FF8BD0H   LINE      CODE     ---       #94
      00FF8BDCH   LINE      CODE     ---       #96
      00FF8BE8H   LINE      CODE     ---       #97
L251 LINKER/LOCATER V4.66.93.0                                                        10/01/2025  18:14:56  PAGE 37


      00FF8BF4H   LINE      CODE     ---       #100
      00FF8BF7H   LINE      CODE     ---       #101
      ---         BLOCKEND  ---      ---       LVL=0

      ---         MODULE    ---      ---       zf_common_debug
      00FFA748H   PUBLIC    CODE     ---       debug_interrupr_handler
      00FF957DH   PUBLIC    CODE     ---       debug_init
      00FF9EDAH   PUBLIC    CODE     ---       debug_assert_handler
      00FFAA18H   PUBLIC    CODE     ---       putchar
      00010C73H   PUBLIC    XDATA    ---       debug_uart_buffer
      00010CB4H   PUBLIC    XDATA    ---       debug_uart_fifo
      000000D0H   SFRSYM    DATA     BYTE      PSW
      0000009DH   SFRSYM    DATA     BYTE      IRCBAND
      00000097H   SFRSYM    DATA     BYTE      AUXR2
      000000EFH   SFRSYM    DATA     BYTE      AUXINTIF
      000000FDH   SFRSYM    DATA     BYTE      S4CON
      000000ACH   SFRSYM    DATA     BYTE      S3CON
      0000009AH   SFRSYM    DATA     BYTE      S2CON
      000000B7H   SFRSYM    DATA     BYTE      IPH
      000000CDH   SFRSYM    DATA     BYTE      SPSTAT
      000000DDH   SFRSYM    DATA     BYTE      T4T3M
      000000C1H   SFRSYM    DATA     BYTE      WDT_CONTR
      000000DFH   SFRSYM    DATA     BYTE      IP3
      000000F4H   SFRSYM    DATA     BYTE      USBCON
      000000B5H   SFRSYM    DATA     BYTE      IP2
      000000FFH   SFRSYM    DATA     BYTE      RSTCFG
      000000C7H   SFRSYM    DATA     BYTE      IAP_CONTR
      0000008EH   SFRSYM    DATA     BYTE      AUXR
      000000AFH   SFRSYM    DATA     BYTE      IE2
      00000088H   SFRSYM    DATA     BYTE      TCON
      00000089H   SFRSYM    DATA     BYTE      TMOD
      00000098H   SFRSYM    DATA     BYTE      SCON
      00000087H   SFRSYM    DATA     BYTE      PCON
      000000BCH   SFRSYM    DATA     BYTE      ADC_CONTR
      000000D1H   SFRSYM    DATA     BYTE      PSW1
      000000E7H   SFRSYM    DATA     BYTE      CMPCR2
      000000E6H   SFRSYM    DATA     BYTE      CMPCR1
      000000DEH   SFRSYM    DATA     BYTE      ADCCFG
      000000B8H   SFRSYM    DATA     BYTE      IP
      0000008FH   SFRSYM    DATA     BYTE      INTCLKO
      000000EEH   SFRSYM    DATA     BYTE      IP3H
      000000B6H   SFRSYM    DATA     BYTE      IP2H
      000000BFH   SFRSYM    DATA     BYTE      P_SW4
      000000A8H   SFRSYM    DATA     BYTE      IE
      000000BBH   SFRSYM    DATA     BYTE      P_SW3
      000000BAH   SFRSYM    DATA     BYTE      P_SW2
      000000A2H   SFRSYM    DATA     BYTE      P_SW1
      000000CEH   SFRSYM    DATA     BYTE      SPCTL
      000000F8H   SFRSYM    DATA     BYTE      P7
      000000E8H   SFRSYM    DATA     BYTE      P6
      000000C8H   SFRSYM    DATA     BYTE      P5
      000000C0H   SFRSYM    DATA     BYTE      P4
      000000ABH   SFRSYM    DATA     BYTE      WKTCH
      000000B0H   SFRSYM    DATA     BYTE      P3
      000000A0H   SFRSYM    DATA     BYTE      P2
      00000090H   SFRSYM    DATA     BYTE      P1
      00000080H   SFRSYM    DATA     BYTE      P0
      00FFC5CCH   SYMBOL    HCONST   ---       ?tpl?0001
      00010CB3H   SYMBOL    XDATA    BYTE      zf_debug_assert_enable
      00010CCBH   SYMBOL    XDATA    BYTE      zf_debug_init_flag
      DR12        REGSYM    ---      DWORD     len
      REG=2       REGSYM    ---      ---       buff

      00FFA748H   BLOCK     CODE     ---       LVL=0
      0001055EH   SYMBOL    XDATA    BYTE      dat
L251 LINKER/LOCATER V4.66.93.0                                                        10/01/2025  18:14:56  PAGE 38


      00FFA748H   LINE      CODE     ---       #281
      00FFA74CH   LINE      CODE     ---       #283
      00FFA752H   LINE      CODE     ---       #285
      00FFA75FH   LINE      CODE     ---       #286
      00FFA780H   LINE      CODE     ---       #287
      ---         BLOCKEND  ---      ---       LVL=0

      00FFAA18H   BLOCK     CODE     ---       LVL=0
      R15         REGSYM    ---      CHAR      c
      00FFAA18H   LINE      CODE     ---       #303
      00FFAA1CH   LINE      CODE     ---       #305
      00FFAA23H   LINE      CODE     ---       #307
      00FFAA25H   LINE      CODE     ---       #308
      ---         BLOCKEND  ---      ---       LVL=0

      00FF9EDAH   BLOCK     CODE     ---       LVL=0
      0001059DH   SYMBOL    XDATA    BYTE      pass
      REG=3       REGSYM    ---      ---       file
      0001059EH   SYMBOL    XDATA    INT       line
      00FF9EE8H   BLOCK     CODE     NEAR LAB  LVL=1
      000105A0H   SYMBOL    XDATA    ---       log_str
      ---         BLOCKEND  ---      ---       LVL=1
      00FF9EDAH   LINE      CODE     ---       #346
      00FF9EE8H   LINE      CODE     ---       #347
      00FF9EE8H   LINE      CODE     ---       #348
      00FF9EFDH   LINE      CODE     ---       #350
      00FF9EFFH   LINE      CODE     ---       #366
      00FF9F32H   LINE      CODE     ---       #369
      00FF9F39H   LINE      CODE     ---       #370
      00FF9F3FH   LINE      CODE     ---       #371
      ---         BLOCKEND  ---      ---       LVL=0

      00FF957DH   BLOCK     CODE     ---       LVL=0
      00FF957FH   BLOCK     CODE     NEAR LAB  LVL=1
      R15         REGSYM    ---      BYTE      uartx
      ---         BLOCKEND  ---      ---       LVL=1
      00FF957DH   LINE      CODE     ---       #453
      00FF957FH   LINE      CODE     ---       #454
      00FF957FH   LINE      CODE     ---       #455
      00FF9581H   LINE      CODE     ---       #461
      00FF959CH   LINE      CODE     ---       #468
      00FF95C9H   LINE      CODE     ---       #469
      00FF95D0H   LINE      CODE     ---       #472
      00FF95D4H   LINE      CODE     ---       #474
      00FF95DEH   LINE      CODE     ---       #475
      00FF95E0H   LINE      CODE     ---       #476
      00FF95E5H   LINE      CODE     ---       #478
      00FF95EFH   LINE      CODE     ---       #479
      00FF95F1H   LINE      CODE     ---       #480
      00FF95F6H   LINE      CODE     ---       #482
      00FF9600H   LINE      CODE     ---       #483
      00FF9602H   LINE      CODE     ---       #484
      00FF9607H   LINE      CODE     ---       #486
      00FF9611H   LINE      CODE     ---       #487
      ---         BLOCKEND  ---      ---       LVL=0

      ---         MODULE    ---      ---       zf_common_fifo
      00FF6403H   PUBLIC    CODE     ---       fifo_write_buffer
      00FF9C15H   PUBLIC    CODE     ---       fifo_init
      0001055BH   PUBLIC    XDATA    BYTE      ?fifo_write_buffer?BYTE
      0001055AH   PUBLIC    XDATA    BYTE      ?fifo_init?BYTE
      000000D0H   SFRSYM    DATA     BYTE      PSW
      0000009DH   SFRSYM    DATA     BYTE      IRCBAND
      00000097H   SFRSYM    DATA     BYTE      AUXR2
      000000EFH   SFRSYM    DATA     BYTE      AUXINTIF
L251 LINKER/LOCATER V4.66.93.0                                                        10/01/2025  18:14:56  PAGE 39


      000000FDH   SFRSYM    DATA     BYTE      S4CON
      000000ACH   SFRSYM    DATA     BYTE      S3CON
      0000009AH   SFRSYM    DATA     BYTE      S2CON
      000000B7H   SFRSYM    DATA     BYTE      IPH
      000000CDH   SFRSYM    DATA     BYTE      SPSTAT
      000000DDH   SFRSYM    DATA     BYTE      T4T3M
      000000C1H   SFRSYM    DATA     BYTE      WDT_CONTR
      000000DFH   SFRSYM    DATA     BYTE      IP3
      000000F4H   SFRSYM    DATA     BYTE      USBCON
      000000B5H   SFRSYM    DATA     BYTE      IP2
      000000FFH   SFRSYM    DATA     BYTE      RSTCFG
      000000C7H   SFRSYM    DATA     BYTE      IAP_CONTR
      0000008EH   SFRSYM    DATA     BYTE      AUXR
      000000AFH   SFRSYM    DATA     BYTE      IE2
      00000088H   SFRSYM    DATA     BYTE      TCON
      00000089H   SFRSYM    DATA     BYTE      TMOD
      00000098H   SFRSYM    DATA     BYTE      SCON
      00000087H   SFRSYM    DATA     BYTE      PCON
      000000BCH   SFRSYM    DATA     BYTE      ADC_CONTR
      000000D1H   SFRSYM    DATA     BYTE      PSW1
      000000E7H   SFRSYM    DATA     BYTE      CMPCR2
      000000E6H   SFRSYM    DATA     BYTE      CMPCR1
      000000DEH   SFRSYM    DATA     BYTE      ADCCFG
      000000B8H   SFRSYM    DATA     BYTE      IP
      0000008FH   SFRSYM    DATA     BYTE      INTCLKO
      000000EEH   SFRSYM    DATA     BYTE      IP3H
      000000B6H   SFRSYM    DATA     BYTE      IP2H
      000000BFH   SFRSYM    DATA     BYTE      P_SW4
      000000A8H   SFRSYM    DATA     BYTE      IE
      000000BBH   SFRSYM    DATA     BYTE      P_SW3
      000000BAH   SFRSYM    DATA     BYTE      P_SW2
      000000A2H   SFRSYM    DATA     BYTE      P_SW1
      000000CEH   SFRSYM    DATA     BYTE      SPCTL
      000000F8H   SFRSYM    DATA     BYTE      P7
      000000E8H   SFRSYM    DATA     BYTE      P6
      000000C8H   SFRSYM    DATA     BYTE      P5
      000000C0H   SFRSYM    DATA     BYTE      P4
      000000ABH   SFRSYM    DATA     BYTE      WKTCH
      000000B0H   SFRSYM    DATA     BYTE      P3
      000000A0H   SFRSYM    DATA     BYTE      P2
      00000090H   SFRSYM    DATA     BYTE      P1
      00000080H   SFRSYM    DATA     BYTE      P0
      00FF01CEH   SYMBOL    CODE     ---       fifo_head_offset

      00FF01CEH   BLOCK     CODE     ---       LVL=0
      REG=7       REGSYM    ---      ---       fifo
      DR24        REGSYM    ---      DWORD     offset
      00FF01CEH   LINE      CODE     ---       #51
      00FF01D2H   LINE      CODE     ---       #53
      00FF01E6H   LINE      CODE     ---       #55
      00FF01E8H   LINE      CODE     ---       #57
      00FF0206H   LINE      CODE     ---       #58
      00FF021AH   LINE      CODE     ---       #59
      ---         BLOCKEND  ---      ---       LVL=0
      REG=7       REGSYM    ---      ---       fifo
      DR24        REGSYM    ---      DWORD     offset
      REG=3       REGSYM    ---      ---       fifo
      REG=3       REGSYM    ---      ---       fifo

      00FF6403H   BLOCK     CODE     ---       LVL=0
      REG=3       REGSYM    ---      ---       fifo
      0001055FH   SYMBOL    XDATA    ---       dat
      00010563H   SYMBOL    XDATA    DWORD     length
      00FF6411H   BLOCK     CODE     NEAR LAB  LVL=1
      00010567H   SYMBOL    XDATA    INT       return_state
L251 LINKER/LOCATER V4.66.93.0                                                        10/01/2025  18:14:56  PAGE 40


      00010569H   SYMBOL    XDATA    DWORD     temp_length
      ---         BLOCKEND  ---      ---       LVL=1
      00FF6403H   LINE      CODE     ---       #178
      00FF6411H   LINE      CODE     ---       #179
      00FF6411H   LINE      CODE     ---       #180
      00FF6419H   LINE      CODE     ---       #181
      00FF6425H   LINE      CODE     ---       #182
      00FF643FH   LINE      CODE     ---       #184
      00FF643FH   LINE      CODE     ---       #186
      00FF644DH   LINE      CODE     ---       #188
      00FF6457H   LINE      CODE     ---       #189
      00FF645AH   LINE      CODE     ---       #190
      00FF645AH   LINE      CODE     ---       #191
      00FF6465H   LINE      CODE     ---       #193
      00FF646FH   LINE      CODE     ---       #194
      00FF6472H   LINE      CODE     ---       #195
      00FF6472H   LINE      CODE     ---       #196
      00FF647AH   LINE      CODE     ---       #198
      00FF6493H   LINE      CODE     ---       #200
      00FF64AFH   LINE      CODE     ---       #202
      00FF64CAH   LINE      CODE     ---       #204
      00FF64E3H   LINE      CODE     ---       #206
      00FF64E3H   LINE      CODE     ---       #208
      00FF6510H   LINE      CODE     ---       #211
      00FF651FH   LINE      CODE     ---       #212
      00FF656AH   LINE      CODE     ---       #216
      00FF6585H   LINE      CODE     ---       #217
      00FF6588H   LINE      CODE     ---       #218
      00FF6588H   LINE      CODE     ---       #220
      00FF65B9H   LINE      CODE     ---       #223
      00FF65C8H   LINE      CODE     ---       #224
      00FF6615H   LINE      CODE     ---       #228
      00FF6630H   LINE      CODE     ---       #229
      00FF6633H   LINE      CODE     ---       #230
      00FF6633H   LINE      CODE     ---       #232
      00FF6668H   LINE      CODE     ---       #235
      00FF6677H   LINE      CODE     ---       #236
      00FF66CAH   LINE      CODE     ---       #240
      00FF66E5H   LINE      CODE     ---       #241
      00FF66E5H   LINE      CODE     ---       #242
      00FF66E5H   LINE      CODE     ---       #243
      00FF66E8H   LINE      CODE     ---       #246
      00FF66FEH   LINE      CODE     ---       #248
      00FF66FEH   LINE      CODE     ---       #250
      00FF672BH   LINE      CODE     ---       #253
      00FF673AH   LINE      CODE     ---       #254
      00FF673DH   LINE      CODE     ---       #255
      00FF673DH   LINE      CODE     ---       #257
      00FF676EH   LINE      CODE     ---       #260
      00FF677DH   LINE      CODE     ---       #261
      00FF677FH   LINE      CODE     ---       #262
      00FF677FH   LINE      CODE     ---       #264
      00FF67B4H   LINE      CODE     ---       #267
      00FF67C3H   LINE      CODE     ---       #268
      00FF67C3H   LINE      CODE     ---       #269
      00FF67C3H   LINE      CODE     ---       #270
      00FF67C3H   LINE      CODE     ---       #272
      00FF67E3H   LINE      CODE     ---       #273
      00FF67E5H   LINE      CODE     ---       #276
      00FF67EFH   LINE      CODE     ---       #277
      00FF67EFH   LINE      CODE     ---       #278
      00FF67F7H   LINE      CODE     ---       #279
      00FF67F7H   LINE      CODE     ---       #281
      00FF67FDH   LINE      CODE     ---       #282
      ---         BLOCKEND  ---      ---       LVL=0
L251 LINKER/LOCATER V4.66.93.0                                                        10/01/2025  18:14:56  PAGE 41


      REG=3       REGSYM    ---      ---       fifo

      00FF9C15H   BLOCK     CODE     ---       LVL=0
      REG=3       REGSYM    ---      ---       fifo
      0001055EH   SYMBOL    XDATA    INT       type
      00010560H   SYMBOL    XDATA    ---       buffer_addr
      00010564H   SYMBOL    XDATA    DWORD     siz
      00FF9C15H   LINE      CODE     ---       #549
      00FF9C1FH   LINE      CODE     ---       #551
      00FF9C39H   LINE      CODE     ---       #552
      00FF9C39H   LINE      CODE     ---       #554
      00FF9C4BH   LINE      CODE     ---       #555
      00FF9C4FH   LINE      CODE     ---       #556
      00FF9C59H   LINE      CODE     ---       #557
      00FF9C63H   LINE      CODE     ---       #558
      00FF9C6DH   LINE      CODE     ---       #559
      00FF9C7FH   LINE      CODE     ---       #560
      00FF9C91H   LINE      CODE     ---       #561
      00FF9C91H   LINE      CODE     ---       #562
      00FF9C93H   LINE      CODE     ---       #563
      ---         BLOCKEND  ---      ---       LVL=0

      ---         MODULE    ---      ---       zf_common_font
      00FF545EH   PUBLIC    CODE     ---       ascii_font_8x16
      000000D0H   SFRSYM    DATA     BYTE      PSW
      0000009DH   SFRSYM    DATA     BYTE      IRCBAND
      00000097H   SFRSYM    DATA     BYTE      AUXR2
      000000EFH   SFRSYM    DATA     BYTE      AUXINTIF
      000000FDH   SFRSYM    DATA     BYTE      S4CON
      000000ACH   SFRSYM    DATA     BYTE      S3CON
      0000009AH   SFRSYM    DATA     BYTE      S2CON
      000000B7H   SFRSYM    DATA     BYTE      IPH
      000000CDH   SFRSYM    DATA     BYTE      SPSTAT
      000000DDH   SFRSYM    DATA     BYTE      T4T3M
      000000C1H   SFRSYM    DATA     BYTE      WDT_CONTR
      000000DFH   SFRSYM    DATA     BYTE      IP3
      000000F4H   SFRSYM    DATA     BYTE      USBCON
      000000B5H   SFRSYM    DATA     BYTE      IP2
      000000FFH   SFRSYM    DATA     BYTE      RSTCFG
      000000C7H   SFRSYM    DATA     BYTE      IAP_CONTR
      0000008EH   SFRSYM    DATA     BYTE      AUXR
      000000AFH   SFRSYM    DATA     BYTE      IE2
      00000088H   SFRSYM    DATA     BYTE      TCON
      00000089H   SFRSYM    DATA     BYTE      TMOD
      00000098H   SFRSYM    DATA     BYTE      SCON
      00000087H   SFRSYM    DATA     BYTE      PCON
      000000BCH   SFRSYM    DATA     BYTE      ADC_CONTR
      000000D1H   SFRSYM    DATA     BYTE      PSW1
      000000E7H   SFRSYM    DATA     BYTE      CMPCR2
      000000E6H   SFRSYM    DATA     BYTE      CMPCR1
      000000DEH   SFRSYM    DATA     BYTE      ADCCFG
      000000B8H   SFRSYM    DATA     BYTE      IP
      0000008FH   SFRSYM    DATA     BYTE      INTCLKO
      000000EEH   SFRSYM    DATA     BYTE      IP3H
      000000B6H   SFRSYM    DATA     BYTE      IP2H
      000000BFH   SFRSYM    DATA     BYTE      P_SW4
      000000A8H   SFRSYM    DATA     BYTE      IE
      000000BBH   SFRSYM    DATA     BYTE      P_SW3
      000000BAH   SFRSYM    DATA     BYTE      P_SW2
      000000A2H   SFRSYM    DATA     BYTE      P_SW1
      000000CEH   SFRSYM    DATA     BYTE      SPCTL
      000000F8H   SFRSYM    DATA     BYTE      P7
      000000E8H   SFRSYM    DATA     BYTE      P6
      000000C8H   SFRSYM    DATA     BYTE      P5
      000000C0H   SFRSYM    DATA     BYTE      P4
L251 LINKER/LOCATER V4.66.93.0                                                        10/01/2025  18:14:56  PAGE 42


      000000ABH   SFRSYM    DATA     BYTE      WKTCH
      000000B0H   SFRSYM    DATA     BYTE      P3
      000000A0H   SFRSYM    DATA     BYTE      P2
      00000090H   SFRSYM    DATA     BYTE      P1
      00000080H   SFRSYM    DATA     BYTE      P0

      ---         MODULE    ---      ---       zf_common_function
      00FF4618H   PUBLIC    CODE     ---       zf_sprintf
      000105B7H   PUBLIC    XDATA    BYTE      ?zf_sprintf?BYTE
      000000D0H   SFRSYM    DATA     BYTE      PSW
      0000009DH   SFRSYM    DATA     BYTE      IRCBAND
      00000097H   SFRSYM    DATA     BYTE      AUXR2
      000000EFH   SFRSYM    DATA     BYTE      AUXINTIF
      000000FDH   SFRSYM    DATA     BYTE      S4CON
      000000ACH   SFRSYM    DATA     BYTE      S3CON
      0000009AH   SFRSYM    DATA     BYTE      S2CON
      000000B7H   SFRSYM    DATA     BYTE      IPH
      000000CDH   SFRSYM    DATA     BYTE      SPSTAT
      000000DDH   SFRSYM    DATA     BYTE      T4T3M
      000000C1H   SFRSYM    DATA     BYTE      WDT_CONTR
      000000DFH   SFRSYM    DATA     BYTE      IP3
      000000F4H   SFRSYM    DATA     BYTE      USBCON
      000000B5H   SFRSYM    DATA     BYTE      IP2
      000000FFH   SFRSYM    DATA     BYTE      RSTCFG
      000000C7H   SFRSYM    DATA     BYTE      IAP_CONTR
      0000008EH   SFRSYM    DATA     BYTE      AUXR
      000000AFH   SFRSYM    DATA     BYTE      IE2
      00000088H   SFRSYM    DATA     BYTE      TCON
      00000089H   SFRSYM    DATA     BYTE      TMOD
      00000098H   SFRSYM    DATA     BYTE      SCON
      00000087H   SFRSYM    DATA     BYTE      PCON
      000000BCH   SFRSYM    DATA     BYTE      ADC_CONTR
      000000D1H   SFRSYM    DATA     BYTE      PSW1
      000000E7H   SFRSYM    DATA     BYTE      CMPCR2
      000000E6H   SFRSYM    DATA     BYTE      CMPCR1
      000000DEH   SFRSYM    DATA     BYTE      ADCCFG
      000000B8H   SFRSYM    DATA     BYTE      IP
      0000008FH   SFRSYM    DATA     BYTE      INTCLKO
      000000EEH   SFRSYM    DATA     BYTE      IP3H
      000000B6H   SFRSYM    DATA     BYTE      IP2H
      000000BFH   SFRSYM    DATA     BYTE      P_SW4
      000000A8H   SFRSYM    DATA     BYTE      IE
      000000BBH   SFRSYM    DATA     BYTE      P_SW3
      000000BAH   SFRSYM    DATA     BYTE      P_SW2
      000000A2H   SFRSYM    DATA     BYTE      P_SW1
      000000CEH   SFRSYM    DATA     BYTE      SPCTL
      000000F8H   SFRSYM    DATA     BYTE      P7
      000000E8H   SFRSYM    DATA     BYTE      P6
      000000C8H   SFRSYM    DATA     BYTE      P5
      000000C0H   SFRSYM    DATA     BYTE      P4
      000000ABH   SFRSYM    DATA     BYTE      WKTCH
      000000B0H   SFRSYM    DATA     BYTE      P3
      000000A0H   SFRSYM    DATA     BYTE      P2
      00000090H   SFRSYM    DATA     BYTE      P1
      00000080H   SFRSYM    DATA     BYTE      P0
      00FFC2F0H   SYMBOL    HCONST   ---       ?tpl?0001
      00FF96AAH   SYMBOL    CODE     ---       number_conversion_ascii
      00FFA441H   SYMBOL    CODE     ---       printf_reverse_order
      DR8         REGSYM    ---      DWORD     num1
      DR28        REGSYM    ---      DWORD     num2
      REG=3       REGSYM    ---      ---       str
      REG=3       REGSYM    ---      ---       str
      REG=3       REGSYM    ---      ---       str
      REG=3       REGSYM    ---      ---       str
      REG=3       REGSYM    ---      ---       str
L251 LINKER/LOCATER V4.66.93.0                                                        10/01/2025  18:14:56  PAGE 43


      REG=3       REGSYM    ---      ---       str
      REG=3       REGSYM    ---      ---       str
      REG=3       REGSYM    ---      ---       str
      REG=3       REGSYM    ---      ---       str
      REG=3       REGSYM    ---      ---       str

      00FF96AAH   BLOCK     CODE     ---       LVL=0
      DR24        REGSYM    ---      DWORD     dat
      REG=7       REGSYM    ---      ---       p
      R10         REGSYM    ---      BYTE      neg_type
      000105F2H   SYMBOL    XDATA    BYTE      radix
      00FF96B2H   BLOCK     CODE     NEAR LAB  LVL=1
      DR20        REGSYM    ---      LONG      neg_dat
      DR24        REGSYM    ---      DWORD     pos_dat
      R14         REGSYM    ---      BYTE      temp_data
      R15         REGSYM    ---      BYTE      valid_num
      ---         BLOCKEND  ---      ---       LVL=1
      00FF96AAH   LINE      CODE     ---       #647
      00FF96B2H   LINE      CODE     ---       #648
      00FF96B2H   LINE      CODE     ---       #651
      00FF96B4H   LINE      CODE     ---       #652
      00FF96B6H   LINE      CODE     ---       #654
      00FF96BAH   LINE      CODE     ---       #656
      00FF96BCH   LINE      CODE     ---       #657
      00FF96C2H   LINE      CODE     ---       #659
      00FF96CCH   LINE      CODE     ---       #660
      00FF96CCH   LINE      CODE     ---       #661
      00FF96CCH   LINE      CODE     ---       #663
      00FF96E2H   LINE      CODE     ---       #664
      00FF96F1H   LINE      CODE     ---       #665
      00FF96F3H   LINE      CODE     ---       #667
      00FF96F9H   LINE      CODE     ---       #669
      00FF96F9H   LINE      CODE     ---       #670
      00FF96F9H   LINE      CODE     ---       #671
      00FF96FBH   LINE      CODE     ---       #672
      00FF96FDH   LINE      CODE     ---       #673
      00FF96FFH   LINE      CODE     ---       #676
      00FF96FFH   LINE      CODE     ---       #677
      00FF96FFH   LINE      CODE     ---       #679
      00FF970EH   LINE      CODE     ---       #680
      00FF9713H   LINE      CODE     ---       #682
      00FF9716H   LINE      CODE     ---       #683
      00FF9718H   LINE      CODE     ---       #686
      00FF971BH   LINE      CODE     ---       #687
      00FF971BH   LINE      CODE     ---       #689
      00FF971EH   LINE      CODE     ---       #691
      00FF972DH   LINE      CODE     ---       #692
      00FF972FH   LINE      CODE     ---       #694
      00FF9735H   LINE      CODE     ---       #696
      00FF9735H   LINE      CODE     ---       #697
      00FF9735H   LINE      CODE     ---       #698
      00FF9737H   LINE      CODE     ---       #699
      00FF9739H   LINE      CODE     ---       #700
      00FF9739H   LINE      CODE     ---       #701
      00FF973BH   LINE      CODE     ---       #702
      ---         BLOCKEND  ---      ---       LVL=0

      00FFA441H   BLOCK     CODE     ---       LVL=0
      REG=7       REGSYM    ---      ---       d_buff
      DR24        REGSYM    ---      DWORD     len
      00FFA445H   BLOCK     CODE     NEAR LAB  LVL=1
      DR4         REGSYM    ---      DWORD     i
      R3          REGSYM    ---      CHAR      temp_data
      ---         BLOCKEND  ---      ---       LVL=1
      00FFA441H   LINE      CODE     ---       #712
L251 LINKER/LOCATER V4.66.93.0                                                        10/01/2025  18:14:56  PAGE 44


      00FFA445H   LINE      CODE     ---       #713
      00FFA445H   LINE      CODE     ---       #716
      00FFA449H   LINE      CODE     ---       #718
      00FFA456H   LINE      CODE     ---       #719
      00FFA46EH   LINE      CODE     ---       #720
      00FFA477H   LINE      CODE     ---       #721
      00FFA488H   LINE      CODE     ---       #722
      ---         BLOCKEND  ---      ---       LVL=0

      00FF4618H   BLOCK     CODE     ---       LVL=0
      REG=3       REGSYM    ---      ---       buff
      000105BBH   SYMBOL    XDATA    ---       format
      00FF4626H   BLOCK     CODE     NEAR LAB  LVL=1
      000105BFH   SYMBOL    XDATA    DWORD     buff_len
      000105C3H   SYMBOL    XDATA    ---       arg
      00FF4647H   BLOCK     CODE     NEAR LAB  LVL=2
      000105C7H   SYMBOL    XDATA    CHAR      ret
      00FF4788H   BLOCK     CODE     NEAR LAB  LVL=3
      000105C8H   SYMBOL    XDATA    CHAR      ch
      ---         BLOCKEND  ---      ---       LVL=3
      00FF47CFH   BLOCK     CODE     NEAR LAB  LVL=3
      000105C8H   SYMBOL    XDATA    ---       vstr
      000105E9H   SYMBOL    XDATA    LONG      ival
      000105EDH   SYMBOL    XDATA    BYTE      vlen
      ---         BLOCKEND  ---      ---       LVL=3
      00FF489AH   BLOCK     CODE     NEAR LAB  LVL=3
      000105C8H   SYMBOL    XDATA    ---       vstr
      000105E9H   SYMBOL    XDATA    DOUBLE    ival
      000105F1H   SYMBOL    XDATA    BYTE      vlen
      ---         BLOCKEND  ---      ---       LVL=3
      00FF4AE5H   BLOCK     CODE     NEAR LAB  LVL=3
      000105C8H   SYMBOL    XDATA    ---       vstr
      000105E9H   SYMBOL    XDATA    DWORD     ival
      000105EDH   SYMBOL    XDATA    BYTE      vlen
      ---         BLOCKEND  ---      ---       LVL=3
      00FF4B83H   BLOCK     CODE     NEAR LAB  LVL=3
      000105C8H   SYMBOL    XDATA    ---       vstr
      000105E9H   SYMBOL    XDATA    DWORD     ival
      000105EDH   SYMBOL    XDATA    BYTE      vlen
      ---         BLOCKEND  ---      ---       LVL=3
      00FF4C21H   BLOCK     CODE     NEAR LAB  LVL=3
      000105C8H   SYMBOL    XDATA    ---       vstr
      000105E9H   SYMBOL    XDATA    DWORD     ival
      000105EDH   SYMBOL    XDATA    BYTE      vlen
      ---         BLOCKEND  ---      ---       LVL=3
      00FF4CBFH   BLOCK     CODE     NEAR LAB  LVL=3
      000105C8H   SYMBOL    XDATA    ---       pc
      ---         BLOCKEND  ---      ---       LVL=3
      00FF4D39H   BLOCK     CODE     NEAR LAB  LVL=3
      000105C8H   SYMBOL    XDATA    ---       vstr
      000105E9H   SYMBOL    XDATA    DWORD     ival
      ---         BLOCKEND  ---      ---       LVL=3
      ---         BLOCKEND  ---      ---       LVL=2
      ---         BLOCKEND  ---      ---       LVL=1
      00FF4618H   LINE      CODE     ---       #733
      00FF4626H   LINE      CODE     ---       #734
      00FF4626H   LINE      CODE     ---       #735
      00FF4632H   LINE      CODE     ---       #737
      00FF4644H   LINE      CODE     ---       #739
      00FF4647H   LINE      CODE     ---       #740
      00FF4647H   LINE      CODE     ---       #741
      00FF4658H   LINE      CODE     ---       #742
      00FF4664H   LINE      CODE     ---       #744
      00FF4788H   LINE      CODE     ---       #746
      00FF4788H   LINE      CODE     ---       #749
L251 LINKER/LOCATER V4.66.93.0                                                        10/01/2025  18:14:56  PAGE 45


      00FF4788H   LINE      CODE     ---       #751
      00FF4788H   LINE      CODE     ---       #752
      00FF4788H   LINE      CODE     ---       #753
      00FF47B0H   LINE      CODE     ---       #754
      00FF47B7H   LINE      CODE     ---       #755
      00FF47B9H   LINE      CODE     ---       #756
      00FF47CCH   LINE      CODE     ---       #758
      00FF47CFH   LINE      CODE     ---       #760
      00FF47CFH   LINE      CODE     ---       #761
      00FF47CFH   LINE      CODE     ---       #762
      00FF47CFH   LINE      CODE     ---       #764
      00FF47FDH   LINE      CODE     ---       #765
      00FF481EH   LINE      CODE     ---       #767
      00FF482EH   LINE      CODE     ---       #769
      00FF4844H   LINE      CODE     ---       #770
      00FF484AH   LINE      CODE     ---       #771
      00FF484AH   LINE      CODE     ---       #772
      00FF485DH   LINE      CODE     ---       #773
      00FF4874H   LINE      CODE     ---       #774
      00FF487CH   LINE      CODE     ---       #775
      00FF4897H   LINE      CODE     ---       #777
      00FF489AH   LINE      CODE     ---       #779
      00FF489AH   LINE      CODE     ---       #780
      00FF489AH   LINE      CODE     ---       #781
      00FF489AH   LINE      CODE     ---       #783
      00FF48DAH   LINE      CODE     ---       #784
      00FF4906H   LINE      CODE     ---       #786
      00FF4921H   LINE      CODE     ---       #788
      00FF4937H   LINE      CODE     ---       #789
      00FF493DH   LINE      CODE     ---       #790
      00FF493DH   LINE      CODE     ---       #791
      00FF4950H   LINE      CODE     ---       #792
      00FF4967H   LINE      CODE     ---       #793
      00FF496FH   LINE      CODE     ---       #794
      00FF498AH   LINE      CODE     ---       #796
      00FF49DCH   LINE      CODE     ---       #797
      00FF49FAH   LINE      CODE     ---       #799
      00FF4A26H   LINE      CODE     ---       #800
      00FF4A28H   LINE      CODE     ---       #803
      00FF4A4CH   LINE      CODE     ---       #804
      00FF4A52H   LINE      CODE     ---       #805
      00FF4A52H   LINE      CODE     ---       #807
      00FF4A54H   LINE      CODE     ---       #809
      00FF4A6AH   LINE      CODE     ---       #810
      00FF4A70H   LINE      CODE     ---       #811
      00FF4A79H   LINE      CODE     ---       #813
      00FF4A8FH   LINE      CODE     ---       #814
      00FF4A95H   LINE      CODE     ---       #816
      00FF4AA8H   LINE      CODE     ---       #817
      00FF4ABFH   LINE      CODE     ---       #818
      00FF4AC7H   LINE      CODE     ---       #819
      00FF4AE2H   LINE      CODE     ---       #821
      00FF4AE5H   LINE      CODE     ---       #823
      00FF4AE5H   LINE      CODE     ---       #824
      00FF4AE5H   LINE      CODE     ---       #826
      00FF4B13H   LINE      CODE     ---       #827
      00FF4B33H   LINE      CODE     ---       #829
      00FF4B46H   LINE      CODE     ---       #830
      00FF4B5DH   LINE      CODE     ---       #831
      00FF4B65H   LINE      CODE     ---       #832
      00FF4B80H   LINE      CODE     ---       #834
      00FF4B83H   LINE      CODE     ---       #836
      00FF4B83H   LINE      CODE     ---       #837
      00FF4B83H   LINE      CODE     ---       #839
      00FF4BB1H   LINE      CODE     ---       #840
L251 LINKER/LOCATER V4.66.93.0                                                        10/01/2025  18:14:56  PAGE 46


      00FF4BD1H   LINE      CODE     ---       #842
      00FF4BE4H   LINE      CODE     ---       #843
      00FF4BFBH   LINE      CODE     ---       #844
      00FF4C03H   LINE      CODE     ---       #845
      00FF4C1EH   LINE      CODE     ---       #848
      00FF4C21H   LINE      CODE     ---       #850
      00FF4C21H   LINE      CODE     ---       #851
      00FF4C21H   LINE      CODE     ---       #852
      00FF4C21H   LINE      CODE     ---       #854
      00FF4C4FH   LINE      CODE     ---       #855
      00FF4C6FH   LINE      CODE     ---       #857
      00FF4C82H   LINE      CODE     ---       #858
      00FF4C99H   LINE      CODE     ---       #859
      00FF4CA1H   LINE      CODE     ---       #860
      00FF4CBCH   LINE      CODE     ---       #862
      00FF4CBFH   LINE      CODE     ---       #864
      00FF4CBFH   LINE      CODE     ---       #865
      00FF4CBFH   LINE      CODE     ---       #866
      00FF4CEDH   LINE      CODE     ---       #867
      00FF4CEFH   LINE      CODE     ---       #869
      00FF4CFFH   LINE      CODE     ---       #870
      00FF4D01H   LINE      CODE     ---       #871
      00FF4D14H   LINE      CODE     ---       #872
      00FF4D27H   LINE      CODE     ---       #873
      00FF4D36H   LINE      CODE     ---       #875
      00FF4D39H   LINE      CODE     ---       #877
      00FF4D39H   LINE      CODE     ---       #878
      00FF4D39H   LINE      CODE     ---       #880
      00FF4D67H   LINE      CODE     ---       #882
      00FF4D83H   LINE      CODE     ---       #883
      00FF4D92H   LINE      CODE     ---       #884
      00FF4DA7H   LINE      CODE     ---       #885
      00FF4DABH   LINE      CODE     ---       #886
      00FF4DC0H   LINE      CODE     ---       #888
      00FF4DC2H   LINE      CODE     ---       #890
      00FF4DC2H   LINE      CODE     ---       #892
      00FF4DC7H   LINE      CODE     ---       #893
      00FF4DC9H   LINE      CODE     ---       #894
      00FF4DDCH   LINE      CODE     ---       #896
      00FF4DDEH   LINE      CODE     ---       #898
      00FF4DDEH   LINE      CODE     ---       #899
      00FF4DDEH   LINE      CODE     ---       #900
      00FF4DDEH   LINE      CODE     ---       #901
      00FF4DDEH   LINE      CODE     ---       #904
      00FF4DEEH   LINE      CODE     ---       #905
      00FF4DF0H   LINE      CODE     ---       #906
      00FF4E03H   LINE      CODE     ---       #907
      00FF4E03H   LINE      CODE     ---       #908
      00FF4E16H   LINE      CODE     ---       #909
      00FF4E28H   LINE      CODE     ---       #912
      00FF4E32H   LINE      CODE     ---       #913
      ---         BLOCKEND  ---      ---       LVL=0

      ---         MODULE    ---      ---       zf_common_typedef
      00010DF2H   PUBLIC    XDATA    ---       tim11_irq_handler
      00010DF4H   PUBLIC    XDATA    ---       uart1_irq_handler
      00010DF6H   PUBLIC    XDATA    ---       uart2_irq_handler
      00010DF8H   PUBLIC    XDATA    ---       uart3_irq_handler
      00010DFAH   PUBLIC    XDATA    ---       uart4_irq_handler
      00010DFCH   PUBLIC    XDATA    ---       tim0_irq_handler
      00010DFEH   PUBLIC    XDATA    ---       int0_irq_handler
      00010E00H   PUBLIC    XDATA    ---       tim1_irq_handler
      00010E02H   PUBLIC    XDATA    ---       int1_irq_handler
      00010E04H   PUBLIC    XDATA    ---       tim2_irq_handler
      00010E06H   PUBLIC    XDATA    ---       int2_irq_handler
L251 LINKER/LOCATER V4.66.93.0                                                        10/01/2025  18:14:56  PAGE 47


      00010E08H   PUBLIC    XDATA    ---       tim3_irq_handler
      00010E0AH   PUBLIC    XDATA    ---       int3_irq_handler
      00010E0CH   PUBLIC    XDATA    ---       tim4_irq_handler
      00010E0EH   PUBLIC    XDATA    ---       int4_irq_handler
      000000D0H   SFRSYM    DATA     BYTE      PSW
      0000009DH   SFRSYM    DATA     BYTE      IRCBAND
      00000097H   SFRSYM    DATA     BYTE      AUXR2
      000000EFH   SFRSYM    DATA     BYTE      AUXINTIF
      000000FDH   SFRSYM    DATA     BYTE      S4CON
      000000ACH   SFRSYM    DATA     BYTE      S3CON
      0000009AH   SFRSYM    DATA     BYTE      S2CON
      000000B7H   SFRSYM    DATA     BYTE      IPH
      000000CDH   SFRSYM    DATA     BYTE      SPSTAT
      000000DDH   SFRSYM    DATA     BYTE      T4T3M
      000000C1H   SFRSYM    DATA     BYTE      WDT_CONTR
      000000DFH   SFRSYM    DATA     BYTE      IP3
      000000F4H   SFRSYM    DATA     BYTE      USBCON
      000000B5H   SFRSYM    DATA     BYTE      IP2
      000000FFH   SFRSYM    DATA     BYTE      RSTCFG
      000000C7H   SFRSYM    DATA     BYTE      IAP_CONTR
      0000008EH   SFRSYM    DATA     BYTE      AUXR
      000000AFH   SFRSYM    DATA     BYTE      IE2
      00000088H   SFRSYM    DATA     BYTE      TCON
      00000089H   SFRSYM    DATA     BYTE      TMOD
      00000098H   SFRSYM    DATA     BYTE      SCON
      00000087H   SFRSYM    DATA     BYTE      PCON
      000000BCH   SFRSYM    DATA     BYTE      ADC_CONTR
      000000D1H   SFRSYM    DATA     BYTE      PSW1
      000000E7H   SFRSYM    DATA     BYTE      CMPCR2
      000000E6H   SFRSYM    DATA     BYTE      CMPCR1
      000000DEH   SFRSYM    DATA     BYTE      ADCCFG
      000000B8H   SFRSYM    DATA     BYTE      IP
      0000008FH   SFRSYM    DATA     BYTE      INTCLKO
      000000EEH   SFRSYM    DATA     BYTE      IP3H
      000000B6H   SFRSYM    DATA     BYTE      IP2H
      000000BFH   SFRSYM    DATA     BYTE      P_SW4
      000000A8H   SFRSYM    DATA     BYTE      IE
      000000BBH   SFRSYM    DATA     BYTE      P_SW3
      000000BAH   SFRSYM    DATA     BYTE      P_SW2
      000000A2H   SFRSYM    DATA     BYTE      P_SW1
      000000CEH   SFRSYM    DATA     BYTE      SPCTL
      000000F8H   SFRSYM    DATA     BYTE      P7
      000000E8H   SFRSYM    DATA     BYTE      P6
      000000C8H   SFRSYM    DATA     BYTE      P5
      000000C0H   SFRSYM    DATA     BYTE      P4
      000000ABH   SFRSYM    DATA     BYTE      WKTCH
      000000B0H   SFRSYM    DATA     BYTE      P3
      000000A0H   SFRSYM    DATA     BYTE      P2
      00000090H   SFRSYM    DATA     BYTE      P1
      00000080H   SFRSYM    DATA     BYTE      P0

      ---         MODULE    ---      ---       zf_common_interrupt
      00FF001EH   PUBLIC    CODE     ---       interrupt_global_enable
      000000D0H   SFRSYM    DATA     BYTE      PSW
      0000009DH   SFRSYM    DATA     BYTE      IRCBAND
      00000097H   SFRSYM    DATA     BYTE      AUXR2
      000000EFH   SFRSYM    DATA     BYTE      AUXINTIF
      000000FDH   SFRSYM    DATA     BYTE      S4CON
      000000ACH   SFRSYM    DATA     BYTE      S3CON
      0000009AH   SFRSYM    DATA     BYTE      S2CON
      000000B7H   SFRSYM    DATA     BYTE      IPH
      000000CDH   SFRSYM    DATA     BYTE      SPSTAT
      000000DDH   SFRSYM    DATA     BYTE      T4T3M
      000000C1H   SFRSYM    DATA     BYTE      WDT_CONTR
      000000DFH   SFRSYM    DATA     BYTE      IP3
L251 LINKER/LOCATER V4.66.93.0                                                        10/01/2025  18:14:56  PAGE 48


      000000F4H   SFRSYM    DATA     BYTE      USBCON
      000000B5H   SFRSYM    DATA     BYTE      IP2
      000000FFH   SFRSYM    DATA     BYTE      RSTCFG
      000000C7H   SFRSYM    DATA     BYTE      IAP_CONTR
      0000008EH   SFRSYM    DATA     BYTE      AUXR
      000000AFH   SFRSYM    DATA     BYTE      IE2
      00000088H   SFRSYM    DATA     BYTE      TCON
      00000089H   SFRSYM    DATA     BYTE      TMOD
      00000098H   SFRSYM    DATA     BYTE      SCON
      00000087H   SFRSYM    DATA     BYTE      PCON
      000000BCH   SFRSYM    DATA     BYTE      ADC_CONTR
      000000D1H   SFRSYM    DATA     BYTE      PSW1
      000000E7H   SFRSYM    DATA     BYTE      CMPCR2
      000000E6H   SFRSYM    DATA     BYTE      CMPCR1
      000000DEH   SFRSYM    DATA     BYTE      ADCCFG
      000000B8H   SFRSYM    DATA     BYTE      IP
      0000008FH   SFRSYM    DATA     BYTE      INTCLKO
      000000EEH   SFRSYM    DATA     BYTE      IP3H
      000000B6H   SFRSYM    DATA     BYTE      IP2H
      000000BFH   SFRSYM    DATA     BYTE      P_SW4
      000000A8H   SFRSYM    DATA     BYTE      IE
      000000BBH   SFRSYM    DATA     BYTE      P_SW3
      000000BAH   SFRSYM    DATA     BYTE      P_SW2
      000000A2H   SFRSYM    DATA     BYTE      P_SW1
      000000CEH   SFRSYM    DATA     BYTE      SPCTL
      000000F8H   SFRSYM    DATA     BYTE      P7
      000000A8H.7 SFRSYM    DATA     BIT       EA
      000000E8H   SFRSYM    DATA     BYTE      P6
      000000C8H   SFRSYM    DATA     BYTE      P5
      000000C0H   SFRSYM    DATA     BYTE      P4
      000000ABH   SFRSYM    DATA     BYTE      WKTCH
      000000B0H   SFRSYM    DATA     BYTE      P3
      000000A0H   SFRSYM    DATA     BYTE      P2
      00000090H   SFRSYM    DATA     BYTE      P1
      00000080H   SFRSYM    DATA     BYTE      P0
      WR4         REGSYM    ---      INT       irqn
      R3          REGSYM    ---      BYTE      priority

      00FF001EH   BLOCK     CODE     ---       LVL=0
      00FF001EH   LINE      CODE     ---       #88
      00FF001EH   LINE      CODE     ---       #90
      00FF0020H   LINE      CODE     ---       #91
      ---         BLOCKEND  ---      ---       LVL=0

      ---         MODULE    ---      ---       ?C_START
      00FF0000H   PUBLIC    CODE     ---       ?C?STARTUP
      00FF0000H   PUBLIC    CODE     ---       ?C_STARTUP
      000000D0H.6 SFRSYM    DATA     BIT       AC
      000000E0H   SFRSYM    DATA     BYTE      ACC
      000000F0H   SFRSYM    DATA     BYTE      B
      000000FAH   SFRSYM    DATA     BYTE      CCAP0H
      000000EAH   SFRSYM    DATA     BYTE      CCAP0L
      000000FBH   SFRSYM    DATA     BYTE      CCAP1H
      000000EBH   SFRSYM    DATA     BYTE      CCAP1L
      000000FCH   SFRSYM    DATA     BYTE      CCAP2H
      000000ECH   SFRSYM    DATA     BYTE      CCAP2L
      000000FDH   SFRSYM    DATA     BYTE      CCAP3H
      000000EDH   SFRSYM    DATA     BYTE      CCAP3L
      000000FEH   SFRSYM    DATA     BYTE      CCAP4H
      000000EEH   SFRSYM    DATA     BYTE      CCAP4L
      000000DAH   SFRSYM    DATA     BYTE      CCAPM0
      000000DBH   SFRSYM    DATA     BYTE      CCAPM1
      000000DCH   SFRSYM    DATA     BYTE      CCAPM2
      000000DDH   SFRSYM    DATA     BYTE      CCAPM3
      000000DEH   SFRSYM    DATA     BYTE      CCAPM4
L251 LINKER/LOCATER V4.66.93.0                                                        10/01/2025  18:14:56  PAGE 49


      000000D8H.0 SFRSYM    DATA     BIT       CCF0
      000000D8H.1 SFRSYM    DATA     BIT       CCF1
      000000D8H.2 SFRSYM    DATA     BIT       CCF2
      000000D8H.3 SFRSYM    DATA     BIT       CCF3
      000000D8H.4 SFRSYM    DATA     BIT       CCF4
      000000D8H   SFRSYM    DATA     BYTE      CCON
      00000090H.3 SFRSYM    DATA     BIT       CEX0
      00000090H.4 SFRSYM    DATA     BIT       CEX1
      00000090H.5 SFRSYM    DATA     BIT       CEX2
      00000090H.6 SFRSYM    DATA     BIT       CEX3
      00000090H.7 SFRSYM    DATA     BIT       CEX4
      000000D8H.7 SFRSYM    DATA     BIT       CF
      000000F9H   SFRSYM    DATA     BYTE      CH
      000000E9H   SFRSYM    DATA     BYTE      CL
      000000D9H   SFRSYM    DATA     BYTE      CMOD
      000000C8H.0 SFRSYM    DATA     BIT       CP_RL2
      000000D8H.6 SFRSYM    DATA     BIT       CR
      000000D0H.7 SFRSYM    DATA     BIT       CY
      000000C8H.1 SFRSYM    DATA     BIT       C_T2
      00000083H   SFRSYM    DATA     BYTE      DPH
      00000082H   SFRSYM    DATA     BYTE      DPL
      00000084H   SFRSYM    DATA     BYTE      DPXL
      000000A8H.7 SFRSYM    DATA     BIT       EA
      000000A8H.6 SFRSYM    DATA     BIT       EC
      00000090H.2 SFRSYM    DATA     BIT       ECI
      000000A8H.4 SFRSYM    DATA     BIT       ES
      000000A8H.1 SFRSYM    DATA     BIT       ET0
      000000A8H.3 SFRSYM    DATA     BIT       ET1
      000000A8H.5 SFRSYM    DATA     BIT       ET2
      000000A8H.0 SFRSYM    DATA     BIT       EX0
      000000A8H.2 SFRSYM    DATA     BIT       EX1
      000000C8H.3 SFRSYM    DATA     BIT       EXEN2
      000000C8H.6 SFRSYM    DATA     BIT       EXF2
      000000D0H.5 SFRSYM    DATA     BIT       F0
      00000098H.7 SFRSYM    DATA     BIT       FE
      000000A8H   SFRSYM    DATA     BYTE      IE0
      00000088H.1 SFRSYM    DATA     BIT       IE0_
      000000B1H   SFRSYM    DATA     BYTE      IE1
      00000088H.3 SFRSYM    DATA     BIT       IE1_
      000000B0H.2 SFRSYM    DATA     BIT       INT0
      000000B0H.3 SFRSYM    DATA     BIT       INT1
      000000B7H   SFRSYM    DATA     BYTE      IPH0
      000000B8H   SFRSYM    DATA     BYTE      IPL0
      00000088H.0 SFRSYM    DATA     BIT       IT0
      00000088H.2 SFRSYM    DATA     BIT       IT1
      000000D0H.2 SFRSYM    DATA     BIT       OV
      000000D0H.0 SFRSYM    DATA     BIT       P
      00000080H   SFRSYM    DATA     BYTE      P0
      00000090H   SFRSYM    DATA     BYTE      P1
      000000A0H   SFRSYM    DATA     BYTE      P2
      000000B0H   SFRSYM    DATA     BYTE      P3
      00000087H   SFRSYM    DATA     BYTE      PCON
      000000B8H.6 SFRSYM    DATA     BIT       PPC
      000000B8H.4 SFRSYM    DATA     BIT       PS
      000000D0H   SFRSYM    DATA     BYTE      PSW
      000000D1H   SFRSYM    DATA     BYTE      PSW1
      000000B8H.1 SFRSYM    DATA     BIT       PT0
      000000B8H.3 SFRSYM    DATA     BIT       PT1
      000000B8H.5 SFRSYM    DATA     BIT       PT2
      000000B8H.0 SFRSYM    DATA     BIT       PX0
      000000B8H.2 SFRSYM    DATA     BIT       PX1
      00000098H.2 SFRSYM    DATA     BIT       RB8
      000000CBH   SFRSYM    DATA     BYTE      RCAP2H
      000000CAH   SFRSYM    DATA     BYTE      RCAP2L
      000000C8H.5 SFRSYM    DATA     BIT       RCLK
L251 LINKER/LOCATER V4.66.93.0                                                        10/01/2025  18:14:56  PAGE 50


      000000B0H.7 SFRSYM    DATA     BIT       RD
      00000098H.4 SFRSYM    DATA     BIT       REN
      00000098H.0 SFRSYM    DATA     BIT       RI
      000000D0H.3 SFRSYM    DATA     BIT       RS0
      000000D0H.4 SFRSYM    DATA     BIT       RS1
      000000B0H.0 SFRSYM    DATA     BIT       RXD
      000000A9H   SFRSYM    DATA     BYTE      SADDR
      000000B9H   SFRSYM    DATA     BYTE      SADEN
      00000099H   SFRSYM    DATA     BYTE      SBUF
      00000098H   SFRSYM    DATA     BYTE      SCON
      00000098H.7 SFRSYM    DATA     BIT       SM0
      00000098H.6 SFRSYM    DATA     BIT       SM1
      00000098H.5 SFRSYM    DATA     BIT       SM2
      00000081H   SFRSYM    DATA     BYTE      SP
      000000BEH   SFRSYM    DATA     BYTE      SPH
      000000B0H.4 SFRSYM    DATA     BIT       T0
      000000B0H.5 SFRSYM    DATA     BIT       T1
      00000090H.0 SFRSYM    DATA     BIT       T2
      000000C8H   SFRSYM    DATA     BYTE      T2CON
      00000090H.1 SFRSYM    DATA     BIT       T2EX
      000000C9H   SFRSYM    DATA     BYTE      T2MOD
      00000098H.3 SFRSYM    DATA     BIT       TB8
      000000C8H.4 SFRSYM    DATA     BIT       TCLK
      00000088H   SFRSYM    DATA     BYTE      TCON
      00000088H.5 SFRSYM    DATA     BIT       TF0
      00000088H.7 SFRSYM    DATA     BIT       TF1
      000000C8H.7 SFRSYM    DATA     BIT       TF2
      0000008CH   SFRSYM    DATA     BYTE      TH0
      0000008DH   SFRSYM    DATA     BYTE      TH1
      000000CDH   SFRSYM    DATA     BYTE      TH2
      00000098H.1 SFRSYM    DATA     BIT       TI
      0000008AH   SFRSYM    DATA     BYTE      TL0
      0000008BH   SFRSYM    DATA     BYTE      TL1
      000000CCH   SFRSYM    DATA     BYTE      TL2
      00000089H   SFRSYM    DATA     BYTE      TMOD
      00000088H.4 SFRSYM    DATA     BIT       TR0
      00000088H.6 SFRSYM    DATA     BIT       TR1
      000000C8H.2 SFRSYM    DATA     BIT       TR2
      000000B0H.1 SFRSYM    DATA     BIT       TXD
      000000A6H   SFRSYM    DATA     BYTE      WDTRST
      000000B0H.6 SFRSYM    DATA     BIT       WR
      00000800H   SYMBOL    NUMBER   ---       EDATALEN
      00FFA0D2H   SYMBOL    CODE     ---       EDATALOOP
      00000001H   SYMBOL    NUMBER   ---       EDF
      00000001H   SYMBOL    NUMBER   ---       EMAP
      00000000H   SYMBOL    NUMBER   ---       HDATALEN
      00010000H   SYMBOL    NUMBER   ---       HDATASTART
      00000000H   SYMBOL    NUMBER   ---       IBPSTACK
      00000100H   SYMBOL    NUMBER   ---       IBPSTACKTOP
      00000001H   SYMBOL    NUMBER   ---       INTR
      00000001H   SYMBOL    NUMBER   ---       PAGM
      00000003H   SYMBOL    NUMBER   ---       RDRG
      00000001H   SYMBOL    NUMBER   ---       SRCM
      00000700H   SYMBOL    NUMBER   ---       STACKSIZE
      00FFA0CAH   SYMBOL    CODE     ---       STARTUP1
      00000003H   SYMBOL    NUMBER   ---       WSA
      00000003H   SYMBOL    NUMBER   ---       WSB
      00000001H   SYMBOL    NUMBER   ---       XALE
      00000000H   SYMBOL    NUMBER   ---       XBPSTACK
      00010000H   SYMBOL    NUMBER   ---       XBPSTACKTOP
      00008000H   SYMBOL    NUMBER   ---       XDATALEN
      00FFA0E1H   SYMBOL    CODE     ---       XDATALOOP
      00010000H   SYMBOL    NUMBER   ---       XDATASTART

      00FF0000H   BLOCK     CODE     NEAR LAB  LVL=0
L251 LINKER/LOCATER V4.66.93.0                                                        10/01/2025  18:14:56  PAGE 51


      00FF0000H   LINE      CODE     ---       #183
      ---         BLOCKEND  ---      ---       LVL=0

      00FFA0CAH   BLOCK     CODE     NEAR LAB  LVL=0
      00FFA0CAH   LINE      CODE     ---       #188
      00FFA0CDH   LINE      CODE     ---       #191
      00FFA0D1H   LINE      CODE     ---       #192
      00FFA0D2H   LINE      CODE     ---       #193
      00FFA0D5H   LINE      CODE     ---       #194
      00FFA0D7H   LINE      CODE     ---       #195
      00FFA0D9H   LINE      CODE     ---       #199
      00FFA0DCH   LINE      CODE     ---       #200
      00FFA0E0H   LINE      CODE     ---       #201
      00FFA0E1H   LINE      CODE     ---       #202
      00FFA0E2H   LINE      CODE     ---       #203
      00FFA0E3H   LINE      CODE     ---       #204
      00FFA0E5H   LINE      CODE     ---       #205
      00FFA0E7H   LINE      CODE     ---       #235
      ---         BLOCKEND  ---      ---       LVL=0

      00FFA11EH   BLOCK     CODE     NEAR LAB  LVL=0
      00FFA11EH   LINE      CODE     ---       #238
      ---         BLOCKEND  ---      ---       LVL=0

      ---         MODULE    ---      ---       zf_driver_adc
      00FFA81FH   PUBLIC    CODE     ---       adc_convert
      00FF9A83H   PUBLIC    CODE     ---       adc_init
      00000094H   SFRSYM    DATA     BYTE      P0M0
      000000D0H   SFRSYM    DATA     BYTE      PSW
      0000009DH   SFRSYM    DATA     BYTE      IRCBAND
      00000097H   SFRSYM    DATA     BYTE      AUXR2
      000000EFH   SFRSYM    DATA     BYTE      AUXINTIF
      000000FDH   SFRSYM    DATA     BYTE      S4CON
      000000ACH   SFRSYM    DATA     BYTE      S3CON
      0000009AH   SFRSYM    DATA     BYTE      S2CON
      000000B7H   SFRSYM    DATA     BYTE      IPH
      000000CDH   SFRSYM    DATA     BYTE      SPSTAT
      000000BEH   SFRSYM    DATA     BYTE      ADC_RESL
      000000DDH   SFRSYM    DATA     BYTE      T4T3M
      000000C1H   SFRSYM    DATA     BYTE      WDT_CONTR
      000000DFH   SFRSYM    DATA     BYTE      IP3
      000000F4H   SFRSYM    DATA     BYTE      USBCON
      000000B5H   SFRSYM    DATA     BYTE      IP2
      000000FFH   SFRSYM    DATA     BYTE      RSTCFG
      000000C7H   SFRSYM    DATA     BYTE      IAP_CONTR
      0000008EH   SFRSYM    DATA     BYTE      AUXR
      000000AFH   SFRSYM    DATA     BYTE      IE2
      00000088H   SFRSYM    DATA     BYTE      TCON
      00000089H   SFRSYM    DATA     BYTE      TMOD
      00000098H   SFRSYM    DATA     BYTE      SCON
      00000087H   SFRSYM    DATA     BYTE      PCON
      000000BCH   SFRSYM    DATA     BYTE      ADC_CONTR
      000000D1H   SFRSYM    DATA     BYTE      PSW1
      000000E7H   SFRSYM    DATA     BYTE      CMPCR2
      000000E6H   SFRSYM    DATA     BYTE      CMPCR1
      000000DEH   SFRSYM    DATA     BYTE      ADCCFG
      000000B8H   SFRSYM    DATA     BYTE      IP
      0000008FH   SFRSYM    DATA     BYTE      INTCLKO
      000000EEH   SFRSYM    DATA     BYTE      IP3H
      000000B6H   SFRSYM    DATA     BYTE      IP2H
      000000BDH   SFRSYM    DATA     BYTE      ADC_RES
      000000BFH   SFRSYM    DATA     BYTE      P_SW4
      000000A8H   SFRSYM    DATA     BYTE      IE
      000000BBH   SFRSYM    DATA     BYTE      P_SW3
      000000BAH   SFRSYM    DATA     BYTE      P_SW2
L251 LINKER/LOCATER V4.66.93.0                                                        10/01/2025  18:14:56  PAGE 52


      000000A2H   SFRSYM    DATA     BYTE      P_SW1
      000000CEH   SFRSYM    DATA     BYTE      SPCTL
      000000F8H   SFRSYM    DATA     BYTE      P7
      000000E8H   SFRSYM    DATA     BYTE      P6
      000000C8H   SFRSYM    DATA     BYTE      P5
      000000C0H   SFRSYM    DATA     BYTE      P4
      000000ABH   SFRSYM    DATA     BYTE      WKTCH
      000000B0H   SFRSYM    DATA     BYTE      P3
      000000A0H   SFRSYM    DATA     BYTE      P2
      00000090H   SFRSYM    DATA     BYTE      P1
      00000080H   SFRSYM    DATA     BYTE      P0
      00000091H   SFRSYM    DATA     BYTE      P1M1
      00000092H   SFRSYM    DATA     BYTE      P1M0
      00000093H   SFRSYM    DATA     BYTE      P0M1
      00010EF2H   SYMBOL    XDATA    BYTE      adc_resolution
      WR14        REGSYM    ---      INT       ch
      R13         REGSYM    ---      BYTE      count
      R12         REGSYM    ---      BYTE      i

      00FFA81FH   BLOCK     CODE     ---       LVL=0
      WR6         REGSYM    ---      INT       ch
      WR6         REGSYM    ---      WORD      adc_value
      00FFA81FH   LINE      CODE     ---       #75
      00FFA81FH   LINE      CODE     ---       #76
      00FFA81FH   LINE      CODE     ---       #79
      00FFA822H   LINE      CODE     ---       #80
      00FFA826H   LINE      CODE     ---       #82
      00FFA829H   LINE      CODE     ---       #84
      00FFA82EH   LINE      CODE     ---       #86
      00FFA831H   LINE      CODE     ---       #88
      00FFA833H   LINE      CODE     ---       #89
      00FFA837H   LINE      CODE     ---       #90
      00FFA83DH   LINE      CODE     ---       #92
      00FFA840H   LINE      CODE     ---       #93
      00FFA843H   LINE      CODE     ---       #95
      00FFA84EH   LINE      CODE     ---       #98
      00FFA84EH   LINE      CODE     ---       #99
      ---         BLOCKEND  ---      ---       LVL=0

      00FF9A83H   BLOCK     CODE     ---       LVL=0
      WR4         REGSYM    ---      INT       ch
      WR2         REGSYM    ---      INT       resolution
      00FF9A83H   LINE      CODE     ---       #108
      00FF9A87H   LINE      CODE     ---       #110
      00FF9A8AH   LINE      CODE     ---       #112
      00FF9A8DH   LINE      CODE     ---       #113
      00FF9A93H   LINE      CODE     ---       #115
      00FF9AA1H   LINE      CODE     ---       #118
      00FF9AB6H   LINE      CODE     ---       #119
      00FF9AC9H   LINE      CODE     ---       #120
      00FF9ACBH   LINE      CODE     ---       #121
      00FF9AD5H   LINE      CODE     ---       #124
      00FF9AEAH   LINE      CODE     ---       #125
      00FF9AFDH   LINE      CODE     ---       #126
      00FF9AFDH   LINE      CODE     ---       #128
      00FF9B01H   LINE      CODE     ---       #130
      00FF9B04H   LINE      CODE     ---       #132
      00FF9B0AH   LINE      CODE     ---       #133
      ---         BLOCKEND  ---      ---       LVL=0

      ---         MODULE    ---      ---       zf_driver_delay
      00FFA06DH   PUBLIC    CODE     ---       system_delay_init
      00FF9E6FH   PUBLIC    CODE     ---       system_delay_ms
      000000D0H   SFRSYM    DATA     BYTE      PSW
      0000009DH   SFRSYM    DATA     BYTE      IRCBAND
L251 LINKER/LOCATER V4.66.93.0                                                        10/01/2025  18:14:56  PAGE 53


      00000097H   SFRSYM    DATA     BYTE      AUXR2
      000000EFH   SFRSYM    DATA     BYTE      AUXINTIF
      000000FDH   SFRSYM    DATA     BYTE      S4CON
      000000ACH   SFRSYM    DATA     BYTE      S3CON
      0000009AH   SFRSYM    DATA     BYTE      S2CON
      000000B7H   SFRSYM    DATA     BYTE      IPH
      000000CDH   SFRSYM    DATA     BYTE      SPSTAT
      000000DDH   SFRSYM    DATA     BYTE      T4T3M
      000000C1H   SFRSYM    DATA     BYTE      WDT_CONTR
      000000DFH   SFRSYM    DATA     BYTE      IP3
      000000F4H   SFRSYM    DATA     BYTE      USBCON
      000000B5H   SFRSYM    DATA     BYTE      IP2
      000000FFH   SFRSYM    DATA     BYTE      RSTCFG
      000000C7H   SFRSYM    DATA     BYTE      IAP_CONTR
      0000008EH   SFRSYM    DATA     BYTE      AUXR
      000000AFH   SFRSYM    DATA     BYTE      IE2
      00000088H   SFRSYM    DATA     BYTE      TCON
      00000089H   SFRSYM    DATA     BYTE      TMOD
      00000098H   SFRSYM    DATA     BYTE      SCON
      00000087H   SFRSYM    DATA     BYTE      PCON
      000000BCH   SFRSYM    DATA     BYTE      ADC_CONTR
      000000D1H   SFRSYM    DATA     BYTE      PSW1
      000000E7H   SFRSYM    DATA     BYTE      CMPCR2
      000000E6H   SFRSYM    DATA     BYTE      CMPCR1
      000000DEH   SFRSYM    DATA     BYTE      ADCCFG
      000000B8H   SFRSYM    DATA     BYTE      IP
      0000008FH   SFRSYM    DATA     BYTE      INTCLKO
      000000EEH   SFRSYM    DATA     BYTE      IP3H
      000000B6H   SFRSYM    DATA     BYTE      IP2H
      000000BFH   SFRSYM    DATA     BYTE      P_SW4
      000000A8H   SFRSYM    DATA     BYTE      IE
      000000BBH   SFRSYM    DATA     BYTE      P_SW3
      000000BAH   SFRSYM    DATA     BYTE      P_SW2
      000000A2H   SFRSYM    DATA     BYTE      P_SW1
      000000CEH   SFRSYM    DATA     BYTE      SPCTL
      000000F8H   SFRSYM    DATA     BYTE      P7
      000000E8H   SFRSYM    DATA     BYTE      P6
      000000C8H   SFRSYM    DATA     BYTE      P5
      000000C0H   SFRSYM    DATA     BYTE      P4
      000000ABH   SFRSYM    DATA     BYTE      WKTCH
      000000B0H   SFRSYM    DATA     BYTE      P3
      000000A0H   SFRSYM    DATA     BYTE      P2
      00000090H   SFRSYM    DATA     BYTE      P1
      00000080H   SFRSYM    DATA     BYTE      P0
      00010EE5H   SYMBOL    XDATA    WORD      pca_delay_1ms
      00010EE7H   SYMBOL    XDATA    WORD      pca_delay_1us

      00FFA06DH   BLOCK     CODE     ---       LVL=0
      00FFA06DH   LINE      CODE     ---       #48
      00FFA06DH   LINE      CODE     ---       #50
      00FFA084H   LINE      CODE     ---       #51
      00FFA09FH   LINE      CODE     ---       #53
      00FFA0ACH   LINE      CODE     ---       #54
      00FFA0B9H   LINE      CODE     ---       #55
      00FFA0C9H   LINE      CODE     ---       #57
      ---         BLOCKEND  ---      ---       LVL=0

      00FF9E6FH   BLOCK     CODE     ---       LVL=0
      WR8         REGSYM    ---      WORD      ms
      00FF9E71H   BLOCK     CODE     NEAR LAB  LVL=1
      WR6         REGSYM    ---      WORD      temp
      ---         BLOCKEND  ---      ---       LVL=1
      00FF9E6FH   LINE      CODE     ---       #65
      00FF9E71H   LINE      CODE     ---       #66
      00FF9E71H   LINE      CODE     ---       #69
L251 LINKER/LOCATER V4.66.93.0                                                        10/01/2025  18:14:56  PAGE 54


      00FF9E73H   LINE      CODE     ---       #71
      00FF9E97H   LINE      CODE     ---       #73
      00FF9EA4H   LINE      CODE     ---       #74
      00FF9EB3H   LINE      CODE     ---       #76
      00FF9EC1H   LINE      CODE     ---       #77
      00FF9ED1H   LINE      CODE     ---       #78
      00FF9ED9H   LINE      CODE     ---       #79
      ---         BLOCKEND  ---      ---       LVL=0
      WR8         REGSYM    ---      WORD      ms
      WR6         REGSYM    ---      WORD      temp

      ---         MODULE    ---      ---       zf_driver_eeprom
      00FF0026H   PUBLIC    CODE     ---       iap_set_tps
      00FF019EH   PUBLIC    CODE     ---       eeprom_trig
      00FFA904H   PUBLIC    CODE     ---       iap_erase_page
      00FFA3AFH   PUBLIC    CODE     ---       iap_read_buff
      00FFA3F8H   PUBLIC    CODE     ---       iap_write_buff
      00FFA978H   PUBLIC    CODE     ---       iap_read_byte
      00FF0003H   PUBLIC    CODE     ---       iap_init
      00FFA8DAH   PUBLIC    CODE     ---       iap_write_byte
      0001075AH   PUBLIC    XDATA    BYTE      ?iap_read_buff?BYTE
      0001075AH   PUBLIC    XDATA    BYTE      ?iap_write_buff?BYTE
      000000D0H   SFRSYM    DATA     BYTE      PSW
      0000009DH   SFRSYM    DATA     BYTE      IRCBAND
      00000097H   SFRSYM    DATA     BYTE      AUXR2
      000000C6H   SFRSYM    DATA     BYTE      IAP_TRIG
      000000EFH   SFRSYM    DATA     BYTE      AUXINTIF
      000000FDH   SFRSYM    DATA     BYTE      S4CON
      000000ACH   SFRSYM    DATA     BYTE      S3CON
      0000009AH   SFRSYM    DATA     BYTE      S2CON
      000000B7H   SFRSYM    DATA     BYTE      IPH
      000000CDH   SFRSYM    DATA     BYTE      SPSTAT
      000000DDH   SFRSYM    DATA     BYTE      T4T3M
      000000C1H   SFRSYM    DATA     BYTE      WDT_CONTR
      000000C2H   SFRSYM    DATA     BYTE      IAP_DATA
      000000DFH   SFRSYM    DATA     BYTE      IP3
      000000F4H   SFRSYM    DATA     BYTE      USBCON
      000000B5H   SFRSYM    DATA     BYTE      IP2
      000000FFH   SFRSYM    DATA     BYTE      RSTCFG
      000000C7H   SFRSYM    DATA     BYTE      IAP_CONTR
      0000008EH   SFRSYM    DATA     BYTE      AUXR
      000000AFH   SFRSYM    DATA     BYTE      IE2
      00000088H   SFRSYM    DATA     BYTE      TCON
      00000089H   SFRSYM    DATA     BYTE      TMOD
      00000098H   SFRSYM    DATA     BYTE      SCON
      000000F5H   SFRSYM    DATA     BYTE      IAP_TPS
      00000087H   SFRSYM    DATA     BYTE      PCON
      000000BCH   SFRSYM    DATA     BYTE      ADC_CONTR
      000000D1H   SFRSYM    DATA     BYTE      PSW1
      000000E7H   SFRSYM    DATA     BYTE      CMPCR2
      000000E6H   SFRSYM    DATA     BYTE      CMPCR1
      000000C4H   SFRSYM    DATA     BYTE      IAP_ADDRL
      000000C3H   SFRSYM    DATA     BYTE      IAP_ADDRH
      000000F6H   SFRSYM    DATA     BYTE      IAP_ADDRE
      000000DEH   SFRSYM    DATA     BYTE      ADCCFG
      000000B8H   SFRSYM    DATA     BYTE      IP
      0000008FH   SFRSYM    DATA     BYTE      INTCLKO
      000000EEH   SFRSYM    DATA     BYTE      IP3H
      000000B6H   SFRSYM    DATA     BYTE      IP2H
      000000C5H   SFRSYM    DATA     BYTE      IAP_CMD
      000000BFH   SFRSYM    DATA     BYTE      P_SW4
      000000A8H   SFRSYM    DATA     BYTE      IE
      000000BBH   SFRSYM    DATA     BYTE      P_SW3
      000000BAH   SFRSYM    DATA     BYTE      P_SW2
      000000A2H   SFRSYM    DATA     BYTE      P_SW1
L251 LINKER/LOCATER V4.66.93.0                                                        10/01/2025  18:14:56  PAGE 55


      000000CEH   SFRSYM    DATA     BYTE      SPCTL
      000000F8H   SFRSYM    DATA     BYTE      P7
      000000A8H.7 SFRSYM    DATA     BIT       EA
      000000E8H   SFRSYM    DATA     BYTE      P6
      000000C8H   SFRSYM    DATA     BYTE      P5
      000000C0H   SFRSYM    DATA     BYTE      P4
      000000ABH   SFRSYM    DATA     BYTE      WKTCH
      000000B0H   SFRSYM    DATA     BYTE      P3
      000000A0H   SFRSYM    DATA     BYTE      P2
      00000090H   SFRSYM    DATA     BYTE      P1
      00000080H   SFRSYM    DATA     BYTE      P0
      00FFBAD9H   SYMBOL    HCONST   ---       ?tpl?0001

      00FF019EH   BLOCK     CODE     ---       LVL=0
      00FF019EH   LINE      CODE     ---       #46
      00FF019EH   LINE      CODE     ---       #49
      00FF01A1H   LINE      CODE     ---       #50
      00FF01A4H   LINE      CODE     ---       #53
      00FF01A5H   LINE      CODE     ---       #54
      00FF01A6H   LINE      CODE     ---       #55
      00FF01A7H   LINE      CODE     ---       #56
      00FF01A8H   LINE      CODE     ---       #58
      ---         BLOCKEND  ---      ---       LVL=0

      00FF0003H   BLOCK     CODE     ---       LVL=0
      00FF0003H   LINE      CODE     ---       #67
      00FF0003H   LINE      CODE     ---       #69
      00FF0006H   LINE      CODE     ---       #70
      00FF0009H   LINE      CODE     ---       #71
      ---         BLOCKEND  ---      ---       LVL=0

      00FF0026H   BLOCK     CODE     ---       LVL=0
      R7          REGSYM    ---      BYTE      write_time
      00FF0026H   LINE      CODE     ---       #104
      00FF0026H   LINE      CODE     ---       #105
      00FF0026H   LINE      CODE     ---       #107
      00FF003BH   LINE      CODE     ---       #108
      00FF0041H   LINE      CODE     ---       #109
      ---         BLOCKEND  ---      ---       LVL=0

      00FFA978H   BLOCK     CODE     ---       LVL=0
      DR0         REGSYM    ---      DWORD     addr
      00FFA97AH   BLOCK     CODE     NEAR LAB  LVL=1
      R11         REGSYM    ---      BYTE      temp
      00000020H.1 SYMBOL    BIT      BIT       flag
      ---         BLOCKEND  ---      ---       LVL=1
      00FFA978H   LINE      CODE     ---       #119
      00FFA97AH   LINE      CODE     ---       #120
      00FFA97AH   LINE      CODE     ---       #122
      00FFA97CH   LINE      CODE     ---       #123
      00FFA980H   LINE      CODE     ---       #124
      00FFA982H   LINE      CODE     ---       #126
      00FFA985H   LINE      CODE     ---       #128
      00FFA989H   LINE      CODE     ---       #129
      00FFA98DH   LINE      CODE     ---       #130
      00FFA991H   LINE      CODE     ---       #131
      00FFA994H   LINE      CODE     ---       #132
      00FFA996H   LINE      CODE     ---       #134
      00FFA99AH   LINE      CODE     ---       #135
      00FFA99AH   LINE      CODE     ---       #136
      ---         BLOCKEND  ---      ---       LVL=0

      00FFA8DAH   BLOCK     CODE     ---       LVL=0
      DR0         REGSYM    ---      DWORD     addr
      R15         REGSYM    ---      BYTE      byte
L251 LINKER/LOCATER V4.66.93.0                                                        10/01/2025  18:14:56  PAGE 56


      00FFA8E0H   BLOCK     CODE     NEAR LAB  LVL=1
      00000020H.1 SYMBOL    BIT      BIT       flag
      ---         BLOCKEND  ---      ---       LVL=1
      00FFA8DAH   LINE      CODE     ---       #146
      00FFA8E0H   LINE      CODE     ---       #147
      00FFA8E0H   LINE      CODE     ---       #148
      00FFA8E2H   LINE      CODE     ---       #150
      00FFA8E6H   LINE      CODE     ---       #151
      00FFA8E8H   LINE      CODE     ---       #153
      00FFA8EBH   LINE      CODE     ---       #155
      00FFA8EFH   LINE      CODE     ---       #156
      00FFA8F3H   LINE      CODE     ---       #157
      00FFA8F7H   LINE      CODE     ---       #158
      00FFA8FAH   LINE      CODE     ---       #160
      00FFA8FDH   LINE      CODE     ---       #162
      00FFA901H   LINE      CODE     ---       #163
      ---         BLOCKEND  ---      ---       LVL=0

      00FFA3AFH   BLOCK     CODE     ---       LVL=0
      0001075EH   SYMBOL    XDATA    DWORD     addr
      REG=3       REGSYM    ---      ---       buf
      00010762H   SYMBOL    XDATA    WORD      len
      00FFA3AFH   LINE      CODE     ---       #175
      00FFA3BDH   LINE      CODE     ---       #177
      00FFA3BFH   LINE      CODE     ---       #179
      00FFA3D1H   LINE      CODE     ---       #180
      00FFA3E4H   LINE      CODE     ---       #181
      00FFA3F5H   LINE      CODE     ---       #182
      ---         BLOCKEND  ---      ---       LVL=0

      00FFA3F8H   BLOCK     CODE     ---       LVL=0
      0001075EH   SYMBOL    XDATA    DWORD     addr
      REG=3       REGSYM    ---      ---       buf
      00010762H   SYMBOL    XDATA    WORD      len
      00FFA3F8H   LINE      CODE     ---       #194
      00FFA406H   LINE      CODE     ---       #196
      00FFA408H   LINE      CODE     ---       #198
      00FFA418H   LINE      CODE     ---       #199
      00FFA42BH   LINE      CODE     ---       #200
      00FFA42DH   LINE      CODE     ---       #201
      00FFA43EH   LINE      CODE     ---       #202
      ---         BLOCKEND  ---      ---       LVL=0

      00FFA904H   BLOCK     CODE     ---       LVL=0
      DR0         REGSYM    ---      DWORD     addr
      00FFA906H   BLOCK     CODE     NEAR LAB  LVL=1
      00000020H.1 SYMBOL    BIT      BIT       flag
      ---         BLOCKEND  ---      ---       LVL=1
      00FFA904H   LINE      CODE     ---       #213
      00FFA906H   LINE      CODE     ---       #214
      00FFA906H   LINE      CODE     ---       #215
      00FFA908H   LINE      CODE     ---       #217
      00FFA90CH   LINE      CODE     ---       #218
      00FFA90EH   LINE      CODE     ---       #219
      00FFA911H   LINE      CODE     ---       #220
      00FFA915H   LINE      CODE     ---       #221
      00FFA919H   LINE      CODE     ---       #222
      00FFA91DH   LINE      CODE     ---       #223
      00FFA920H   LINE      CODE     ---       #225
      00FFA924H   LINE      CODE     ---       #226
      00FFA92BH   LINE      CODE     ---       #227
      ---         BLOCKEND  ---      ---       LVL=0
      REG=3       REGSYM    ---      ---       buf

      ---         MODULE    ---      ---       zf_driver_encoder
L251 LINKER/LOCATER V4.66.93.0                                                        10/01/2025  18:14:56  PAGE 57


      000000D0H   SFRSYM    DATA     BYTE      PSW
      0000009DH   SFRSYM    DATA     BYTE      IRCBAND
      00000097H   SFRSYM    DATA     BYTE      AUXR2
      000000EFH   SFRSYM    DATA     BYTE      AUXINTIF
      000000FDH   SFRSYM    DATA     BYTE      S4CON
      000000ACH   SFRSYM    DATA     BYTE      S3CON
      0000009AH   SFRSYM    DATA     BYTE      S2CON
      000000B7H   SFRSYM    DATA     BYTE      IPH
      000000CDH   SFRSYM    DATA     BYTE      SPSTAT
      000000DDH   SFRSYM    DATA     BYTE      T4T3M
      000000C1H   SFRSYM    DATA     BYTE      WDT_CONTR
      00000088H.6 SFRSYM    DATA     BIT       TR1
      00000088H.4 SFRSYM    DATA     BIT       TR0
      000000D3H   SFRSYM    DATA     BYTE      T4L
      000000D5H   SFRSYM    DATA     BYTE      T3L
      000000D7H   SFRSYM    DATA     BYTE      T2L
      0000008BH   SFRSYM    DATA     BYTE      TL1
      0000008AH   SFRSYM    DATA     BYTE      TL0
      000000D2H   SFRSYM    DATA     BYTE      T4H
      000000D4H   SFRSYM    DATA     BYTE      T3H
      000000D6H   SFRSYM    DATA     BYTE      T2H
      0000008DH   SFRSYM    DATA     BYTE      TH1
      0000008CH   SFRSYM    DATA     BYTE      TH0
      000000DFH   SFRSYM    DATA     BYTE      IP3
      000000F4H   SFRSYM    DATA     BYTE      USBCON
      000000B5H   SFRSYM    DATA     BYTE      IP2
      000000FFH   SFRSYM    DATA     BYTE      RSTCFG
      000000C7H   SFRSYM    DATA     BYTE      IAP_CONTR
      0000008EH   SFRSYM    DATA     BYTE      AUXR
      000000AFH   SFRSYM    DATA     BYTE      IE2
      00000088H   SFRSYM    DATA     BYTE      TCON
      00000089H   SFRSYM    DATA     BYTE      TMOD
      00000098H   SFRSYM    DATA     BYTE      SCON
      00000087H   SFRSYM    DATA     BYTE      PCON
      000000BCH   SFRSYM    DATA     BYTE      ADC_CONTR
      000000D1H   SFRSYM    DATA     BYTE      PSW1
      000000E7H   SFRSYM    DATA     BYTE      CMPCR2
      000000E6H   SFRSYM    DATA     BYTE      CMPCR1
      000000DEH   SFRSYM    DATA     BYTE      ADCCFG
      000000B8H   SFRSYM    DATA     BYTE      IP
      0000008FH   SFRSYM    DATA     BYTE      INTCLKO
      000000EEH   SFRSYM    DATA     BYTE      IP3H
      000000B6H   SFRSYM    DATA     BYTE      IP2H
      000000BFH   SFRSYM    DATA     BYTE      P_SW4
      000000A8H   SFRSYM    DATA     BYTE      IE
      000000BBH   SFRSYM    DATA     BYTE      P_SW3
      000000BAH   SFRSYM    DATA     BYTE      P_SW2
      000000A2H   SFRSYM    DATA     BYTE      P_SW1
      000000CEH   SFRSYM    DATA     BYTE      SPCTL
      000000F8H   SFRSYM    DATA     BYTE      P7
      000000E8H   SFRSYM    DATA     BYTE      P6
      000000C8H   SFRSYM    DATA     BYTE      P5
      000000C0H   SFRSYM    DATA     BYTE      P4
      000000ABH   SFRSYM    DATA     BYTE      WKTCH
      000000B0H   SFRSYM    DATA     BYTE      P3
      000000A0H   SFRSYM    DATA     BYTE      P2
      00000090H   SFRSYM    DATA     BYTE      P1
      00000080H   SFRSYM    DATA     BYTE      P0
      00010EDBH   SYMBOL    XDATA    ---       encoder_dir_pin
      WR2         REGSYM    ---      INT       encoder_n
      WR14        REGSYM    ---      INT       dat
      WR6         REGSYM    ---      INT       encoder_n
      WR14        REGSYM    ---      INT       encoder_n
      WR12        REGSYM    ---      INT       dir_pin

L251 LINKER/LOCATER V4.66.93.0                                                        10/01/2025  18:14:56  PAGE 58


      ---         MODULE    ---      ---       zf_driver_exti
      000000D0H   SFRSYM    DATA     BYTE      PSW
      0000009DH   SFRSYM    DATA     BYTE      IRCBAND
      00000097H   SFRSYM    DATA     BYTE      AUXR2
      000000EFH   SFRSYM    DATA     BYTE      AUXINTIF
      000000FDH   SFRSYM    DATA     BYTE      S4CON
      000000ACH   SFRSYM    DATA     BYTE      S3CON
      0000009AH   SFRSYM    DATA     BYTE      S2CON
      000000B7H   SFRSYM    DATA     BYTE      IPH
      000000CDH   SFRSYM    DATA     BYTE      SPSTAT
      000000DDH   SFRSYM    DATA     BYTE      T4T3M
      000000C1H   SFRSYM    DATA     BYTE      WDT_CONTR
      000000DFH   SFRSYM    DATA     BYTE      IP3
      000000F4H   SFRSYM    DATA     BYTE      USBCON
      000000B5H   SFRSYM    DATA     BYTE      IP2
      000000FFH   SFRSYM    DATA     BYTE      RSTCFG
      000000C7H   SFRSYM    DATA     BYTE      IAP_CONTR
      0000008EH   SFRSYM    DATA     BYTE      AUXR
      000000AFH   SFRSYM    DATA     BYTE      IE2
      00000088H   SFRSYM    DATA     BYTE      TCON
      00000089H   SFRSYM    DATA     BYTE      TMOD
      00000098H   SFRSYM    DATA     BYTE      SCON
      00000087H   SFRSYM    DATA     BYTE      PCON
      000000BCH   SFRSYM    DATA     BYTE      ADC_CONTR
      000000D1H   SFRSYM    DATA     BYTE      PSW1
      000000E7H   SFRSYM    DATA     BYTE      CMPCR2
      000000E6H   SFRSYM    DATA     BYTE      CMPCR1
      000000DEH   SFRSYM    DATA     BYTE      ADCCFG
      000000B8H   SFRSYM    DATA     BYTE      IP
      0000008FH   SFRSYM    DATA     BYTE      INTCLKO
      000000EEH   SFRSYM    DATA     BYTE      IP3H
      000000B6H   SFRSYM    DATA     BYTE      IP2H
      000000BFH   SFRSYM    DATA     BYTE      P_SW4
      000000A8H   SFRSYM    DATA     BYTE      IE
      000000BBH   SFRSYM    DATA     BYTE      P_SW3
      000000BAH   SFRSYM    DATA     BYTE      P_SW2
      000000A2H   SFRSYM    DATA     BYTE      P_SW1
      000000CEH   SFRSYM    DATA     BYTE      SPCTL
      000000F8H   SFRSYM    DATA     BYTE      P7
      000000E8H   SFRSYM    DATA     BYTE      P6
      000000C8H   SFRSYM    DATA     BYTE      P5
      000000C0H   SFRSYM    DATA     BYTE      P4
      000000ABH   SFRSYM    DATA     BYTE      WKTCH
      000000B0H   SFRSYM    DATA     BYTE      P3
      000000A0H   SFRSYM    DATA     BYTE      P2
      00000090H   SFRSYM    DATA     BYTE      P1
      00000080H   SFRSYM    DATA     BYTE      P0

      ---         MODULE    ---      ---       zf_driver_gpio
      00FF8F3EH   PUBLIC    CODE     ---       gpio_init
      00FF00C6H   PUBLIC    CODE     ---       gpio_get_level
      00FF6EA9H   PUBLIC    CODE     ---       gpio_set_level_speed
      00FF7D6CH   PUBLIC    CODE     ---       gpio_set_level
      00FF8198H   PUBLIC    CODE     ---       gpio_set_impedance
      00000094H   SFRSYM    DATA     BYTE      P0M0
      000000D0H   SFRSYM    DATA     BYTE      PSW
      0000009DH   SFRSYM    DATA     BYTE      IRCBAND
      00000097H   SFRSYM    DATA     BYTE      AUXR2
      000000EFH   SFRSYM    DATA     BYTE      AUXINTIF
      000000FDH   SFRSYM    DATA     BYTE      S4CON
      000000ACH   SFRSYM    DATA     BYTE      S3CON
      0000009AH   SFRSYM    DATA     BYTE      S2CON
      000000B7H   SFRSYM    DATA     BYTE      IPH
      000000CDH   SFRSYM    DATA     BYTE      SPSTAT
      000000DDH   SFRSYM    DATA     BYTE      T4T3M
L251 LINKER/LOCATER V4.66.93.0                                                        10/01/2025  18:14:56  PAGE 59


      000000C1H   SFRSYM    DATA     BYTE      WDT_CONTR
      000000DFH   SFRSYM    DATA     BYTE      IP3
      000000F4H   SFRSYM    DATA     BYTE      USBCON
      000000B5H   SFRSYM    DATA     BYTE      IP2
      000000FFH   SFRSYM    DATA     BYTE      RSTCFG
      000000C7H   SFRSYM    DATA     BYTE      IAP_CONTR
      0000008EH   SFRSYM    DATA     BYTE      AUXR
      000000AFH   SFRSYM    DATA     BYTE      IE2
      00000088H   SFRSYM    DATA     BYTE      TCON
      00000089H   SFRSYM    DATA     BYTE      TMOD
      00000098H   SFRSYM    DATA     BYTE      SCON
      00000087H   SFRSYM    DATA     BYTE      PCON
      000000BCH   SFRSYM    DATA     BYTE      ADC_CONTR
      000000D1H   SFRSYM    DATA     BYTE      PSW1
      000000E7H   SFRSYM    DATA     BYTE      CMPCR2
      000000E6H   SFRSYM    DATA     BYTE      CMPCR1
      000000DEH   SFRSYM    DATA     BYTE      ADCCFG
      000000B8H   SFRSYM    DATA     BYTE      IP
      0000008FH   SFRSYM    DATA     BYTE      INTCLKO
      000000EEH   SFRSYM    DATA     BYTE      IP3H
      000000B6H   SFRSYM    DATA     BYTE      IP2H
      000000BFH   SFRSYM    DATA     BYTE      P_SW4
      000000A8H   SFRSYM    DATA     BYTE      IE
      000000BBH   SFRSYM    DATA     BYTE      P_SW3
      000000BAH   SFRSYM    DATA     BYTE      P_SW2
      000000A2H   SFRSYM    DATA     BYTE      P_SW1
      000000CEH   SFRSYM    DATA     BYTE      SPCTL
      000000F8H   SFRSYM    DATA     BYTE      P7
      000000E8H   SFRSYM    DATA     BYTE      P6
      000000C8H   SFRSYM    DATA     BYTE      P5
      000000C0H   SFRSYM    DATA     BYTE      P4
      000000C9H   SFRSYM    DATA     BYTE      P5M1
      000000ABH   SFRSYM    DATA     BYTE      WKTCH
      000000B0H   SFRSYM    DATA     BYTE      P3
      000000B3H   SFRSYM    DATA     BYTE      P4M1
      000000CAH   SFRSYM    DATA     BYTE      P5M0
      000000A0H   SFRSYM    DATA     BYTE      P2
      000000B1H   SFRSYM    DATA     BYTE      P3M1
      000000B4H   SFRSYM    DATA     BYTE      P4M0
      00000090H   SFRSYM    DATA     BYTE      P1
      00000095H   SFRSYM    DATA     BYTE      P2M1
      000000B2H   SFRSYM    DATA     BYTE      P3M0
      00000080H   SFRSYM    DATA     BYTE      P0
      00000091H   SFRSYM    DATA     BYTE      P1M1
      00000096H   SFRSYM    DATA     BYTE      P2M0
      00000092H   SFRSYM    DATA     BYTE      P1M0
      00000093H   SFRSYM    DATA     BYTE      P0M1
      00FF6800H   SYMBOL    CODE     ---       gpio_set_dir
      00FF7617H   SYMBOL    CODE     ---       gpio_set_mode

      00FF7617H   BLOCK     CODE     ---       LVL=0
      WR4         REGSYM    ---      INT       pin
      WR8         REGSYM    ---      INT       mode
      00FF7617H   LINE      CODE     ---       #45
      00FF761BH   LINE      CODE     ---       #51
      00FF7627H   LINE      CODE     ---       #53
      00FF7656H   LINE      CODE     ---       #54
      00FF7685H   LINE      CODE     ---       #55
      00FF7688H   LINE      CODE     ---       #56
      00FF768EH   LINE      CODE     ---       #58
      00FF76BBH   LINE      CODE     ---       #59
      00FF76BEH   LINE      CODE     ---       #60
      00FF76CAH   LINE      CODE     ---       #62
      00FF76F7H   LINE      CODE     ---       #63
      00FF76FAH   LINE      CODE     ---       #64
L251 LINKER/LOCATER V4.66.93.0                                                        10/01/2025  18:14:56  PAGE 60


      00FF7703H   LINE      CODE     ---       #66
      00FF7739H   LINE      CODE     ---       #68
      00FF7739H   LINE      CODE     ---       #70
      00FF774CH   LINE      CODE     ---       #71
      00FF775FH   LINE      CODE     ---       #73
      00FF7762H   LINE      CODE     ---       #75
      00FF7762H   LINE      CODE     ---       #77
      00FF7775H   LINE      CODE     ---       #78
      00FF7788H   LINE      CODE     ---       #80
      00FF778BH   LINE      CODE     ---       #82
      00FF778BH   LINE      CODE     ---       #84
      00FF779EH   LINE      CODE     ---       #85
      00FF77B1H   LINE      CODE     ---       #87
      00FF77B4H   LINE      CODE     ---       #89
      00FF77B4H   LINE      CODE     ---       #91
      00FF77C7H   LINE      CODE     ---       #92
      00FF77DAH   LINE      CODE     ---       #94
      00FF77DCH   LINE      CODE     ---       #96
      00FF77DCH   LINE      CODE     ---       #98
      00FF77EFH   LINE      CODE     ---       #99
      00FF7802H   LINE      CODE     ---       #101
      00FF7804H   LINE      CODE     ---       #103
      00FF7804H   LINE      CODE     ---       #105
      00FF7817H   LINE      CODE     ---       #106
      00FF782AH   LINE      CODE     ---       #108
      00FF782CH   LINE      CODE     ---       #109
      00FF782CH   LINE      CODE     ---       #112
      00FF782CH   LINE      CODE     ---       #113
      00FF782CH   LINE      CODE     ---       #114
      00FF782CH   LINE      CODE     ---       #117
      00FF783CH   LINE      CODE     ---       #119
      00FF783CH   LINE      CODE     ---       #120
      ---         BLOCKEND  ---      ---       LVL=0

      00FF6EA9H   BLOCK     CODE     ---       LVL=0
      WR14        REGSYM    ---      INT       pin
      WR12        REGSYM    ---      INT       speed
      00FF6EA9H   LINE      CODE     ---       #123
      00FF6EAFH   LINE      CODE     ---       #125
      00FF6EE9H   LINE      CODE     ---       #127
      00FF6EE9H   LINE      CODE     ---       #129
      00FF6EEDH   LINE      CODE     ---       #131
      00FF6F10H   LINE      CODE     ---       #132
      00FF6F13H   LINE      CODE     ---       #133
      00FF6F19H   LINE      CODE     ---       #135
      00FF6F3AH   LINE      CODE     ---       #136
      00FF6F3DH   LINE      CODE     ---       #139
      00FF6F4DH   LINE      CODE     ---       #141
      00FF6F4DH   LINE      CODE     ---       #143
      00FF6F50H   LINE      CODE     ---       #145
      00FF6F50H   LINE      CODE     ---       #147
      00FF6F54H   LINE      CODE     ---       #149
      00FF6F77H   LINE      CODE     ---       #150
      00FF6F7AH   LINE      CODE     ---       #151
      00FF6F80H   LINE      CODE     ---       #153
      00FF6FA1H   LINE      CODE     ---       #154
      00FF6FA4H   LINE      CODE     ---       #157
      00FF6FB4H   LINE      CODE     ---       #159
      00FF6FB4H   LINE      CODE     ---       #161
      00FF6FB7H   LINE      CODE     ---       #163
      00FF6FB7H   LINE      CODE     ---       #165
      00FF6FBBH   LINE      CODE     ---       #167
      00FF6FDEH   LINE      CODE     ---       #168
      00FF6FE1H   LINE      CODE     ---       #169
      00FF6FE7H   LINE      CODE     ---       #171
L251 LINKER/LOCATER V4.66.93.0                                                        10/01/2025  18:14:56  PAGE 61


      00FF7008H   LINE      CODE     ---       #172
      00FF700BH   LINE      CODE     ---       #175
      00FF701BH   LINE      CODE     ---       #177
      00FF701BH   LINE      CODE     ---       #179
      00FF701EH   LINE      CODE     ---       #181
      00FF701EH   LINE      CODE     ---       #183
      00FF7022H   LINE      CODE     ---       #185
      00FF7045H   LINE      CODE     ---       #186
      00FF7048H   LINE      CODE     ---       #187
      00FF704EH   LINE      CODE     ---       #189
      00FF706FH   LINE      CODE     ---       #190
      00FF7072H   LINE      CODE     ---       #193
      00FF7082H   LINE      CODE     ---       #195
      00FF7082H   LINE      CODE     ---       #197
      00FF7085H   LINE      CODE     ---       #199
      00FF7085H   LINE      CODE     ---       #201
      00FF7089H   LINE      CODE     ---       #203
      00FF70ACH   LINE      CODE     ---       #204
      00FF70AFH   LINE      CODE     ---       #205
      00FF70B5H   LINE      CODE     ---       #207
      00FF70D6H   LINE      CODE     ---       #208
      00FF70D9H   LINE      CODE     ---       #211
      00FF70E9H   LINE      CODE     ---       #213
      00FF70E9H   LINE      CODE     ---       #215
      00FF70EBH   LINE      CODE     ---       #217
      00FF70EBH   LINE      CODE     ---       #219
      00FF70EFH   LINE      CODE     ---       #221
      00FF7112H   LINE      CODE     ---       #222
      00FF7114H   LINE      CODE     ---       #223
      00FF711AH   LINE      CODE     ---       #225
      00FF713BH   LINE      CODE     ---       #226
      00FF713DH   LINE      CODE     ---       #229
      00FF714DH   LINE      CODE     ---       #231
      00FF714DH   LINE      CODE     ---       #233
      00FF714FH   LINE      CODE     ---       #235
      00FF714FH   LINE      CODE     ---       #237
      00FF715FH   LINE      CODE     ---       #239
      00FF715FH   LINE      CODE     ---       #240
      00FF715FH   LINE      CODE     ---       #241
      ---         BLOCKEND  ---      ---       LVL=0

      00FF6800H   BLOCK     CODE     ---       LVL=0
      WR4         REGSYM    ---      INT       pin
      WR2         REGSYM    ---      INT       dir
      00FF6800H   LINE      CODE     ---       #245
      00FF6804H   LINE      CODE     ---       #247
      00FF683EH   LINE      CODE     ---       #249
      00FF683EH   LINE      CODE     ---       #251
      00FF6844H   LINE      CODE     ---       #253
      00FF6859H   LINE      CODE     ---       #254
      00FF686EH   LINE      CODE     ---       #255
      00FF6871H   LINE      CODE     ---       #261
      00FF6877H   LINE      CODE     ---       #263
      00FF688CH   LINE      CODE     ---       #264
      00FF689FH   LINE      CODE     ---       #265
      00FF68A2H   LINE      CODE     ---       #266
      00FF68A9H   LINE      CODE     ---       #268
      00FF68BCH   LINE      CODE     ---       #269
      00FF68D1H   LINE      CODE     ---       #270
      00FF68D1H   LINE      CODE     ---       #272
      00FF68D4H   LINE      CODE     ---       #274
      00FF68D4H   LINE      CODE     ---       #276
      00FF68DAH   LINE      CODE     ---       #278
      00FF68EFH   LINE      CODE     ---       #279
      00FF6904H   LINE      CODE     ---       #280
L251 LINKER/LOCATER V4.66.93.0                                                        10/01/2025  18:14:56  PAGE 62


      00FF6907H   LINE      CODE     ---       #286
      00FF690DH   LINE      CODE     ---       #288
      00FF6922H   LINE      CODE     ---       #289
      00FF6935H   LINE      CODE     ---       #290
      00FF6938H   LINE      CODE     ---       #291
      00FF693FH   LINE      CODE     ---       #293
      00FF6952H   LINE      CODE     ---       #294
      00FF6967H   LINE      CODE     ---       #295
      00FF6967H   LINE      CODE     ---       #297
      00FF696AH   LINE      CODE     ---       #299
      00FF696AH   LINE      CODE     ---       #301
      00FF6970H   LINE      CODE     ---       #303
      00FF6985H   LINE      CODE     ---       #304
      00FF699AH   LINE      CODE     ---       #305
      00FF699DH   LINE      CODE     ---       #311
      00FF69A3H   LINE      CODE     ---       #313
      00FF69B8H   LINE      CODE     ---       #314
      00FF69CBH   LINE      CODE     ---       #315
      00FF69CEH   LINE      CODE     ---       #316
      00FF69D5H   LINE      CODE     ---       #318
      00FF69E8H   LINE      CODE     ---       #319
      00FF69FDH   LINE      CODE     ---       #320
      00FF69FDH   LINE      CODE     ---       #322
      00FF6A00H   LINE      CODE     ---       #324
      00FF6A00H   LINE      CODE     ---       #326
      00FF6A06H   LINE      CODE     ---       #328
      00FF6A1BH   LINE      CODE     ---       #329
      00FF6A30H   LINE      CODE     ---       #330
      00FF6A33H   LINE      CODE     ---       #336
      00FF6A39H   LINE      CODE     ---       #338
      00FF6A4EH   LINE      CODE     ---       #339
      00FF6A61H   LINE      CODE     ---       #340
      00FF6A64H   LINE      CODE     ---       #341
      00FF6A6BH   LINE      CODE     ---       #343
      00FF6A7EH   LINE      CODE     ---       #344
      00FF6A93H   LINE      CODE     ---       #345
      00FF6A93H   LINE      CODE     ---       #347
      00FF6A96H   LINE      CODE     ---       #349
      00FF6A96H   LINE      CODE     ---       #351
      00FF6A9CH   LINE      CODE     ---       #353
      00FF6AB1H   LINE      CODE     ---       #354
      00FF6AC6H   LINE      CODE     ---       #355
      00FF6AC9H   LINE      CODE     ---       #361
      00FF6ACFH   LINE      CODE     ---       #363
      00FF6AE4H   LINE      CODE     ---       #364
      00FF6AF7H   LINE      CODE     ---       #365
      00FF6AFAH   LINE      CODE     ---       #366
      00FF6B01H   LINE      CODE     ---       #368
      00FF6B14H   LINE      CODE     ---       #369
      00FF6B29H   LINE      CODE     ---       #370
      00FF6B29H   LINE      CODE     ---       #372
      00FF6B2CH   LINE      CODE     ---       #374
      00FF6B2CH   LINE      CODE     ---       #376
      00FF6B32H   LINE      CODE     ---       #378
      00FF6B47H   LINE      CODE     ---       #379
      00FF6B5CH   LINE      CODE     ---       #380
      00FF6B5EH   LINE      CODE     ---       #386
      00FF6B64H   LINE      CODE     ---       #388
      00FF6B79H   LINE      CODE     ---       #389
      00FF6B8CH   LINE      CODE     ---       #390
      00FF6B8EH   LINE      CODE     ---       #391
      00FF6B92H   LINE      CODE     ---       #393
      00FF6BA5H   LINE      CODE     ---       #394
      00FF6BBAH   LINE      CODE     ---       #395
      00FF6BBAH   LINE      CODE     ---       #397
L251 LINKER/LOCATER V4.66.93.0                                                        10/01/2025  18:14:56  PAGE 63


      00FF6BBCH   LINE      CODE     ---       #399
      00FF6BBCH   LINE      CODE     ---       #401
      00FF6BCCH   LINE      CODE     ---       #403
      00FF6BCCH   LINE      CODE     ---       #404
      00FF6BCCH   LINE      CODE     ---       #405
      ---         BLOCKEND  ---      ---       LVL=0

      00FF00C6H   BLOCK     CODE     ---       LVL=0
      WR4         REGSYM    ---      INT       pin
      00FF00CAH   BLOCK     CODE     NEAR LAB  LVL=1
      R15         REGSYM    ---      BYTE      status
      ---         BLOCKEND  ---      ---       LVL=1
      00FF00C6H   LINE      CODE     ---       #413
      00FF00CAH   LINE      CODE     ---       #414
      00FF00CAH   LINE      CODE     ---       #415
      00FF00CCH   LINE      CODE     ---       #417
      00FF00F9H   LINE      CODE     ---       #419
      00FF00F9H   LINE      CODE     ---       #421
      00FF010DH   LINE      CODE     ---       #423
      00FF010FH   LINE      CODE     ---       #425
      00FF010FH   LINE      CODE     ---       #427
      00FF0123H   LINE      CODE     ---       #429
      00FF0125H   LINE      CODE     ---       #431
      00FF0125H   LINE      CODE     ---       #433
      00FF0139H   LINE      CODE     ---       #435
      00FF013BH   LINE      CODE     ---       #437
      00FF013BH   LINE      CODE     ---       #439
      00FF014FH   LINE      CODE     ---       #441
      00FF0151H   LINE      CODE     ---       #443
      00FF0151H   LINE      CODE     ---       #445
      00FF0165H   LINE      CODE     ---       #447
      00FF0167H   LINE      CODE     ---       #449
      00FF0167H   LINE      CODE     ---       #451
      00FF017BH   LINE      CODE     ---       #453
      00FF017DH   LINE      CODE     ---       #455
      00FF017DH   LINE      CODE     ---       #457
      00FF018DH   LINE      CODE     ---       #459
      00FF018DH   LINE      CODE     ---       #460
      00FF018DH   LINE      CODE     ---       #462
      00FF0196H   LINE      CODE     ---       #463
      ---         BLOCKEND  ---      ---       LVL=0

      00FF7D6CH   BLOCK     CODE     ---       LVL=0
      WR4         REGSYM    ---      INT       pin
      R10         REGSYM    ---      BYTE      dat
      00FF7D6CH   LINE      CODE     ---       #472
      00FF7D70H   LINE      CODE     ---       #474
      00FF7DA7H   LINE      CODE     ---       #476
      00FF7DA7H   LINE      CODE     ---       #478
      00FF7DABH   LINE      CODE     ---       #480
      00FF7DBEH   LINE      CODE     ---       #481
      00FF7DC1H   LINE      CODE     ---       #484
      00FF7DD6H   LINE      CODE     ---       #485
      00FF7DD6H   LINE      CODE     ---       #487
      00FF7DD9H   LINE      CODE     ---       #489
      00FF7DD9H   LINE      CODE     ---       #491
      00FF7DDDH   LINE      CODE     ---       #493
      00FF7DF0H   LINE      CODE     ---       #494
      00FF7DF3H   LINE      CODE     ---       #497
      00FF7E08H   LINE      CODE     ---       #498
      00FF7E08H   LINE      CODE     ---       #500
      00FF7E0BH   LINE      CODE     ---       #502
      00FF7E0BH   LINE      CODE     ---       #504
      00FF7E0FH   LINE      CODE     ---       #506
      00FF7E22H   LINE      CODE     ---       #507
L251 LINKER/LOCATER V4.66.93.0                                                        10/01/2025  18:14:56  PAGE 64


      00FF7E25H   LINE      CODE     ---       #510
      00FF7E3AH   LINE      CODE     ---       #511
      00FF7E3AH   LINE      CODE     ---       #513
      00FF7E3DH   LINE      CODE     ---       #515
      00FF7E3DH   LINE      CODE     ---       #517
      00FF7E41H   LINE      CODE     ---       #519
      00FF7E54H   LINE      CODE     ---       #520
      00FF7E57H   LINE      CODE     ---       #523
      00FF7E6CH   LINE      CODE     ---       #524
      00FF7E6CH   LINE      CODE     ---       #526
      00FF7E6EH   LINE      CODE     ---       #528
      00FF7E6EH   LINE      CODE     ---       #530
      00FF7E72H   LINE      CODE     ---       #532
      00FF7E85H   LINE      CODE     ---       #533
      00FF7E87H   LINE      CODE     ---       #536
      00FF7E9CH   LINE      CODE     ---       #537
      00FF7E9CH   LINE      CODE     ---       #539
      00FF7E9EH   LINE      CODE     ---       #541
      00FF7E9EH   LINE      CODE     ---       #543
      00FF7EA2H   LINE      CODE     ---       #545
      00FF7EB5H   LINE      CODE     ---       #546
      00FF7EB7H   LINE      CODE     ---       #549
      00FF7ECCH   LINE      CODE     ---       #550
      00FF7ECCH   LINE      CODE     ---       #552
      00FF7ECEH   LINE      CODE     ---       #554
      00FF7ECEH   LINE      CODE     ---       #556
      00FF7EDEH   LINE      CODE     ---       #558
      00FF7EDEH   LINE      CODE     ---       #559
      00FF7EDEH   LINE      CODE     ---       #560
      ---         BLOCKEND  ---      ---       LVL=0
      WR14        REGSYM    ---      INT       pin

      00FF8198H   BLOCK     CODE     ---       LVL=0
      WR4         REGSYM    ---      INT       pin
      00FF8198H   LINE      CODE     ---       #587
      00FF819AH   LINE      CODE     ---       #589
      00FF81CEH   LINE      CODE     ---       #591
      00FF81CEH   LINE      CODE     ---       #593
      00FF81E1H   LINE      CODE     ---       #594
      00FF81F6H   LINE      CODE     ---       #596
      00FF81F9H   LINE      CODE     ---       #598
      00FF81F9H   LINE      CODE     ---       #600
      00FF820CH   LINE      CODE     ---       #601
      00FF8221H   LINE      CODE     ---       #603
      00FF8224H   LINE      CODE     ---       #605
      00FF8224H   LINE      CODE     ---       #607
      00FF8237H   LINE      CODE     ---       #608
      00FF824CH   LINE      CODE     ---       #610
      00FF824FH   LINE      CODE     ---       #612
      00FF824FH   LINE      CODE     ---       #614
      00FF8262H   LINE      CODE     ---       #615
      00FF8277H   LINE      CODE     ---       #617
      00FF8279H   LINE      CODE     ---       #619
      00FF8279H   LINE      CODE     ---       #621
      00FF828CH   LINE      CODE     ---       #622
      00FF82A1H   LINE      CODE     ---       #624
      00FF82A3H   LINE      CODE     ---       #626
      00FF82A3H   LINE      CODE     ---       #628
      00FF82B6H   LINE      CODE     ---       #629
      00FF82CBH   LINE      CODE     ---       #631
      00FF82CDH   LINE      CODE     ---       #633
      00FF82CDH   LINE      CODE     ---       #635
      00FF82DDH   LINE      CODE     ---       #637
      00FF82DDH   LINE      CODE     ---       #638
      00FF82DDH   LINE      CODE     ---       #639
L251 LINKER/LOCATER V4.66.93.0                                                        10/01/2025  18:14:56  PAGE 65


      ---         BLOCKEND  ---      ---       LVL=0

      00FF8F3EH   BLOCK     CODE     ---       LVL=0
      WR14        REGSYM    ---      INT       pin
      0001056EH   SYMBOL    XDATA    INT       dir
      00010570H   SYMBOL    XDATA    BYTE      dat
      WR12        REGSYM    ---      INT       mode
      00FF8F3EH   LINE      CODE     ---       #650
      00FF8F4EH   LINE      CODE     ---       #652
      00FF8F76H   LINE      CODE     ---       #654
      00FF8F82H   LINE      CODE     ---       #656
      00FF8F8BH   LINE      CODE     ---       #657
      00FF8F92H   LINE      CODE     ---       #658
      00FF8F94H   LINE      CODE     ---       #659
      00FF8F9EH   LINE      CODE     ---       #661
      00FF8FA2H   LINE      CODE     ---       #663
      00FF8FA7H   LINE      CODE     ---       #664
      00FF8FA9H   LINE      CODE     ---       #667
      00FF8FB0H   LINE      CODE     ---       #668
      00FF8FB7H   LINE      CODE     ---       #669
      00FF8FB7H   LINE      CODE     ---       #670
      00FF8FB9H   LINE      CODE     ---       #671
      00FF8FC5H   LINE      CODE     ---       #673
      00FF8FCBH   LINE      CODE     ---       #675
      00FF8FD4H   LINE      CODE     ---       #676
      00FF8FDDH   LINE      CODE     ---       #677
      00FF8FDFH   LINE      CODE     ---       #678
      00FF8FE5H   LINE      CODE     ---       #680
      00FF8FEEH   LINE      CODE     ---       #681
      00FF8FEEH   LINE      CODE     ---       #683
      00FF8FF7H   LINE      CODE     ---       #684
      ---         BLOCKEND  ---      ---       LVL=0

      ---         MODULE    ---      ---       zf_driver_pit
      00FF783DH   PUBLIC    CODE     ---       pit_init
      000000D0H   SFRSYM    DATA     BYTE      PSW
      0000009DH   SFRSYM    DATA     BYTE      IRCBAND
      00000097H   SFRSYM    DATA     BYTE      AUXR2
      000000EFH   SFRSYM    DATA     BYTE      AUXINTIF
      000000FDH   SFRSYM    DATA     BYTE      S4CON
      000000ACH   SFRSYM    DATA     BYTE      S3CON
      0000009AH   SFRSYM    DATA     BYTE      S2CON
      000000B7H   SFRSYM    DATA     BYTE      IPH
      000000CDH   SFRSYM    DATA     BYTE      SPSTAT
      000000DDH   SFRSYM    DATA     BYTE      T4T3M
      000000C1H   SFRSYM    DATA     BYTE      WDT_CONTR
      00000088H.6 SFRSYM    DATA     BIT       TR1
      00000088H.4 SFRSYM    DATA     BIT       TR0
      000000D3H   SFRSYM    DATA     BYTE      T4L
      000000D5H   SFRSYM    DATA     BYTE      T3L
      000000D7H   SFRSYM    DATA     BYTE      T2L
      0000008BH   SFRSYM    DATA     BYTE      TL1
      0000008AH   SFRSYM    DATA     BYTE      TL0
      000000D2H   SFRSYM    DATA     BYTE      T4H
      000000D4H   SFRSYM    DATA     BYTE      T3H
      000000D6H   SFRSYM    DATA     BYTE      T2H
      0000008DH   SFRSYM    DATA     BYTE      TH1
      0000008CH   SFRSYM    DATA     BYTE      TH0
      000000DFH   SFRSYM    DATA     BYTE      IP3
      000000F4H   SFRSYM    DATA     BYTE      USBCON
      000000B5H   SFRSYM    DATA     BYTE      IP2
      000000FFH   SFRSYM    DATA     BYTE      RSTCFG
      000000A8H.3 SFRSYM    DATA     BIT       ET1
      000000A8H.1 SFRSYM    DATA     BIT       ET0
      000000C7H   SFRSYM    DATA     BYTE      IAP_CONTR
L251 LINKER/LOCATER V4.66.93.0                                                        10/01/2025  18:14:56  PAGE 66


      0000008EH   SFRSYM    DATA     BYTE      AUXR
      000000AFH   SFRSYM    DATA     BYTE      IE2
      00000088H   SFRSYM    DATA     BYTE      TCON
      00000089H   SFRSYM    DATA     BYTE      TMOD
      00000098H   SFRSYM    DATA     BYTE      SCON
      00000087H   SFRSYM    DATA     BYTE      PCON
      000000BCH   SFRSYM    DATA     BYTE      ADC_CONTR
      000000D1H   SFRSYM    DATA     BYTE      PSW1
      000000E7H   SFRSYM    DATA     BYTE      CMPCR2
      000000E6H   SFRSYM    DATA     BYTE      CMPCR1
      000000DEH   SFRSYM    DATA     BYTE      ADCCFG
      000000B8H   SFRSYM    DATA     BYTE      IP
      0000008FH   SFRSYM    DATA     BYTE      INTCLKO
      000000EEH   SFRSYM    DATA     BYTE      IP3H
      000000B6H   SFRSYM    DATA     BYTE      IP2H
      000000BFH   SFRSYM    DATA     BYTE      P_SW4
      000000A8H   SFRSYM    DATA     BYTE      IE
      000000BBH   SFRSYM    DATA     BYTE      P_SW3
      000000BAH   SFRSYM    DATA     BYTE      P_SW2
      000000A2H   SFRSYM    DATA     BYTE      P_SW1
      000000CEH   SFRSYM    DATA     BYTE      SPCTL
      000000F8H   SFRSYM    DATA     BYTE      P7
      000000E8H   SFRSYM    DATA     BYTE      P6
      000000C8H   SFRSYM    DATA     BYTE      P5
      000000C0H   SFRSYM    DATA     BYTE      P4
      000000ABH   SFRSYM    DATA     BYTE      WKTCH
      000000B0H   SFRSYM    DATA     BYTE      P3
      000000A0H   SFRSYM    DATA     BYTE      P2
      00000090H   SFRSYM    DATA     BYTE      P1
      00000080H   SFRSYM    DATA     BYTE      P0

      00FF783DH   BLOCK     CODE     ---       LVL=0
      WR30        REGSYM    ---      INT       pit_n
      DR24        REGSYM    ---      DWORD     period
      00FF7843H   BLOCK     CODE     NEAR LAB  LVL=1
      R15         REGSYM    ---      BYTE      freq_div
      WR22        REGSYM    ---      WORD      period_temp
      WR28        REGSYM    ---      WORD      temp
      ---         BLOCKEND  ---      ---       LVL=1
      00FF783DH   LINE      CODE     ---       #50
      00FF7843H   LINE      CODE     ---       #51
      00FF7843H   LINE      CODE     ---       #52
      00FF7845H   LINE      CODE     ---       #53
      00FF7847H   LINE      CODE     ---       #54
      00FF7849H   LINE      CODE     ---       #57
      00FF7855H   LINE      CODE     ---       #60
      00FF7860H   LINE      CODE     ---       #62
      00FF7864H   LINE      CODE     ---       #64
      00FF7867H   LINE      CODE     ---       #65
      00FF786AH   LINE      CODE     ---       #66
      00FF7870H   LINE      CODE     ---       #68
      00FF7873H   LINE      CODE     ---       #69
      00FF7876H   LINE      CODE     ---       #70
      00FF787CH   LINE      CODE     ---       #72
      00FF787FH   LINE      CODE     ---       #73
      00FF7881H   LINE      CODE     ---       #74
      00FF7887H   LINE      CODE     ---       #76
      00FF788AH   LINE      CODE     ---       #77
      00FF788CH   LINE      CODE     ---       #78
      00FF7892H   LINE      CODE     ---       #80
      00FF7895H   LINE      CODE     ---       #81
      00FF7897H   LINE      CODE     ---       #82
      00FF789DH   LINE      CODE     ---       #84
      00FF78ADH   LINE      CODE     ---       #85
      00FF78AFH   LINE      CODE     ---       #91
L251 LINKER/LOCATER V4.66.93.0                                                        10/01/2025  18:14:56  PAGE 67


      00FF78B3H   LINE      CODE     ---       #93
      00FF78B6H   LINE      CODE     ---       #94
      00FF78B8H   LINE      CODE     ---       #95
      00FF78BEH   LINE      CODE     ---       #97
      00FF78C1H   LINE      CODE     ---       #98
      00FF78C3H   LINE      CODE     ---       #99
      00FF78C9H   LINE      CODE     ---       #101
      00FF78CCH   LINE      CODE     ---       #102
      00FF78CEH   LINE      CODE     ---       #103
      00FF78D4H   LINE      CODE     ---       #105
      00FF78D7H   LINE      CODE     ---       #106
      00FF78D9H   LINE      CODE     ---       #107
      00FF78DFH   LINE      CODE     ---       #109
      00FF78E2H   LINE      CODE     ---       #110
      00FF78E4H   LINE      CODE     ---       #111
      00FF78EAH   LINE      CODE     ---       #113
      00FF78FAH   LINE      CODE     ---       #114
      00FF78FAH   LINE      CODE     ---       #118
      00FF790AH   LINE      CODE     ---       #119
      00FF7917H   LINE      CODE     ---       #121
      00FF791BH   LINE      CODE     ---       #123
      00FF791FH   LINE      CODE     ---       #125
      00FF792AH   LINE      CODE     ---       #126
      00FF792EH   LINE      CODE     ---       #127
      00FF7934H   LINE      CODE     ---       #128
      00FF793AH   LINE      CODE     ---       #129
      00FF793CH   LINE      CODE     ---       #130
      00FF793EH   LINE      CODE     ---       #131
      00FF7941H   LINE      CODE     ---       #132
      00FF7947H   LINE      CODE     ---       #134
      00FF7952H   LINE      CODE     ---       #135
      00FF7956H   LINE      CODE     ---       #136
      00FF795CH   LINE      CODE     ---       #137
      00FF7962H   LINE      CODE     ---       #138
      00FF7964H   LINE      CODE     ---       #139
      00FF7966H   LINE      CODE     ---       #140
      00FF7969H   LINE      CODE     ---       #141
      00FF796FH   LINE      CODE     ---       #143
      00FF797AH   LINE      CODE     ---       #144
      00FF7980H   LINE      CODE     ---       #145
      00FF7986H   LINE      CODE     ---       #146
      00FF7989H   LINE      CODE     ---       #147
      00FF798CH   LINE      CODE     ---       #148
      00FF798FH   LINE      CODE     ---       #149
      00FF7995H   LINE      CODE     ---       #151
      00FF79A0H   LINE      CODE     ---       #152
      00FF79A6H   LINE      CODE     ---       #153
      00FF79ACH   LINE      CODE     ---       #154
      00FF79AFH   LINE      CODE     ---       #155
      00FF79B2H   LINE      CODE     ---       #156
      00FF79B4H   LINE      CODE     ---       #157
      00FF79BAH   LINE      CODE     ---       #159
      00FF79C5H   LINE      CODE     ---       #160
      00FF79CBH   LINE      CODE     ---       #161
      00FF79D1H   LINE      CODE     ---       #162
      00FF79D4H   LINE      CODE     ---       #163
      00FF79D7H   LINE      CODE     ---       #164
      00FF79D9H   LINE      CODE     ---       #165
      00FF79DFH   LINE      CODE     ---       #167
      00FF79EAH   LINE      CODE     ---       #168
      00FF79F9H   LINE      CODE     ---       #169
      00FF7A08H   LINE      CODE     ---       #170
      00FF7A15H   LINE      CODE     ---       #172
      ---         BLOCKEND  ---      ---       LVL=0

L251 LINKER/LOCATER V4.66.93.0                                                        10/01/2025  18:14:56  PAGE 68


      ---         MODULE    ---      ---       zf_driver_pwm
      00FFC1D9H   PUBLIC    HCONST   ---       PWM_PSCR_ADDR
      00FFC1E1H   PUBLIC    HCONST   ---       PWM_CCR_ADDR
      00FFC201H   PUBLIC    HCONST   ---       PWM_ARR_ADDR
      00FFC209H   PUBLIC    HCONST   ---       PWM_CCER_ADDR
      00FFC219H   PUBLIC    HCONST   ---       PWM_CCMR_ADDR
      00FF7BDCH   PUBLIC    CODE     ---       pwm_set_duty
      00FF5A4EH   PUBLIC    CODE     ---       pwm_init
      0001055CH   PUBLIC    XDATA    BYTE      ?pwm_init?BYTE
      000000D0H   SFRSYM    DATA     BYTE      PSW
      0000009DH   SFRSYM    DATA     BYTE      IRCBAND
      00000097H   SFRSYM    DATA     BYTE      AUXR2
      000000EFH   SFRSYM    DATA     BYTE      AUXINTIF
      000000FDH   SFRSYM    DATA     BYTE      S4CON
      000000ACH   SFRSYM    DATA     BYTE      S3CON
      0000009AH   SFRSYM    DATA     BYTE      S2CON
      000000B7H   SFRSYM    DATA     BYTE      IPH
      000000CDH   SFRSYM    DATA     BYTE      SPSTAT
      000000DDH   SFRSYM    DATA     BYTE      T4T3M
      000000C1H   SFRSYM    DATA     BYTE      WDT_CONTR
      000000DFH   SFRSYM    DATA     BYTE      IP3
      000000F4H   SFRSYM    DATA     BYTE      USBCON
      000000B5H   SFRSYM    DATA     BYTE      IP2
      000000FFH   SFRSYM    DATA     BYTE      RSTCFG
      000000C7H   SFRSYM    DATA     BYTE      IAP_CONTR
      0000008EH   SFRSYM    DATA     BYTE      AUXR
      000000AFH   SFRSYM    DATA     BYTE      IE2
      00000088H   SFRSYM    DATA     BYTE      TCON
      00000089H   SFRSYM    DATA     BYTE      TMOD
      00000098H   SFRSYM    DATA     BYTE      SCON
      00000087H   SFRSYM    DATA     BYTE      PCON
      000000BCH   SFRSYM    DATA     BYTE      ADC_CONTR
      000000D1H   SFRSYM    DATA     BYTE      PSW1
      000000E7H   SFRSYM    DATA     BYTE      CMPCR2
      000000E6H   SFRSYM    DATA     BYTE      CMPCR1
      000000DEH   SFRSYM    DATA     BYTE      ADCCFG
      000000B8H   SFRSYM    DATA     BYTE      IP
      0000008FH   SFRSYM    DATA     BYTE      INTCLKO
      000000EEH   SFRSYM    DATA     BYTE      IP3H
      000000B6H   SFRSYM    DATA     BYTE      IP2H
      000000BFH   SFRSYM    DATA     BYTE      P_SW4
      000000A8H   SFRSYM    DATA     BYTE      IE
      000000BBH   SFRSYM    DATA     BYTE      P_SW3
      000000BAH   SFRSYM    DATA     BYTE      P_SW2
      000000A2H   SFRSYM    DATA     BYTE      P_SW1
      000000CEH   SFRSYM    DATA     BYTE      SPCTL
      000000F8H   SFRSYM    DATA     BYTE      P7
      000000E8H   SFRSYM    DATA     BYTE      P6
      000000C8H   SFRSYM    DATA     BYTE      P5
      000000C0H   SFRSYM    DATA     BYTE      P4
      000000ABH   SFRSYM    DATA     BYTE      WKTCH
      000000B0H   SFRSYM    DATA     BYTE      P3
      000000A0H   SFRSYM    DATA     BYTE      P2
      00000090H   SFRSYM    DATA     BYTE      P1
      00000080H   SFRSYM    DATA     BYTE      P0
      WR14        REGSYM    ---      INT       pin
      WR12        REGSYM    ---      WORD      freq_div

      00FF7BDCH   BLOCK     CODE     ---       LVL=0
      WR14        REGSYM    ---      INT       pin
      0001055EH   SYMBOL    XDATA    DWORD     duty
      00FF7BEAH   BLOCK     CODE     NEAR LAB  LVL=1
      00010562H   SYMBOL    XDATA    DWORD     match_temp
      00010566H   SYMBOL    XDATA    DWORD     arr
      ---         BLOCKEND  ---      ---       LVL=1
L251 LINKER/LOCATER V4.66.93.0                                                        10/01/2025  18:14:56  PAGE 69


      00FF7BDCH   LINE      CODE     ---       #132
      00FF7BEAH   LINE      CODE     ---       #133
      00FF7BEAH   LINE      CODE     ---       #135
      00FF7C48H   LINE      CODE     ---       #138
      00FF7C6CH   LINE      CODE     ---       #140
      00FF7C7CH   LINE      CODE     ---       #142
      00FF7CB5H   LINE      CODE     ---       #143
      00FF7CB7H   LINE      CODE     ---       #146
      00FF7CCDH   LINE      CODE     ---       #147
      00FF7CCDH   LINE      CODE     ---       #150
      00FF7D1BH   LINE      CODE     ---       #151
      00FF7D69H   LINE      CODE     ---       #153
      ---         BLOCKEND  ---      ---       LVL=0

      00FF5A4EH   BLOCK     CODE     ---       LVL=0
      WR14        REGSYM    ---      INT       pin
      0001055EH   SYMBOL    XDATA    DWORD     freq
      00010562H   SYMBOL    XDATA    DWORD     duty
      00FF5A5CH   BLOCK     CODE     NEAR LAB  LVL=1
      00010566H   SYMBOL    XDATA    WORD      match_temp
      00010568H   SYMBOL    XDATA    DWORD     period_temp
      WR12        REGSYM    ---      WORD      freq_div
      ---         BLOCKEND  ---      ---       LVL=1
      00FF5A4EH   LINE      CODE     ---       #164
      00FF5A5CH   LINE      CODE     ---       #165
      00FF5A5CH   LINE      CODE     ---       #167
      00FF5A64H   LINE      CODE     ---       #168
      00FF5A70H   LINE      CODE     ---       #169
      00FF5A72H   LINE      CODE     ---       #172
      00FF5A96H   LINE      CODE     ---       #174
      00FF5AA8H   LINE      CODE     ---       #178
      00FF5AC5H   LINE      CODE     ---       #179
      00FF5AE6H   LINE      CODE     ---       #180
      00FF5B03H   LINE      CODE     ---       #182
      00FF5B13H   LINE      CODE     ---       #184
      00FF5B48H   LINE      CODE     ---       #185
      00FF5B4AH   LINE      CODE     ---       #188
      00FF5B5CH   LINE      CODE     ---       #189
      00FF5B5CH   LINE      CODE     ---       #191
      00FF5B86H   LINE      CODE     ---       #192
      00FF5BB0H   LINE      CODE     ---       #194
      00FF5BE2H   LINE      CODE     ---       #195
      00FF5C14H   LINE      CODE     ---       #197
      00FF5C60H   LINE      CODE     ---       #198
      00FF5CAAH   LINE      CODE     ---       #200
      00FF5CB9H   LINE      CODE     ---       #202
      00FF5CF8H   LINE      CODE     ---       #203
      00FF5D2DH   LINE      CODE     ---       #204
      00FF5DA7H   LINE      CODE     ---       #206
      00FF5DB4H   LINE      CODE     ---       #207
      00FF5DC1H   LINE      CODE     ---       #208
      00FF5DC4H   LINE      CODE     ---       #209
      00FF5DD7H   LINE      CODE     ---       #211
      00FF5E16H   LINE      CODE     ---       #212
      00FF5E4BH   LINE      CODE     ---       #213
      00FF5EB3H   LINE      CODE     ---       #215
      00FF5EC0H   LINE      CODE     ---       #216
      00FF5ECDH   LINE      CODE     ---       #217
      00FF5ECDH   LINE      CODE     ---       #219
      00FF5F14H   LINE      CODE     ---       #220
      00FF5F5BH   LINE      CODE     ---       #221
      ---         BLOCKEND  ---      ---       LVL=0

      ---         MODULE    ---      ---       zf_driver_soft_iic
      00FF9C96H   PUBLIC    CODE     ---       soft_iic_wait_ack
L251 LINKER/LOCATER V4.66.93.0                                                        10/01/2025  18:14:56  PAGE 70


      00FF9FA9H   PUBLIC    CODE     ---       soft_iic_stop
      00FFA781H   PUBLIC    CODE     ---       soft_iic_delay
      00FF9171H   PUBLIC    CODE     ---       soft_iic_read_data
      00FF973EH   PUBLIC    CODE     ---       soft_iic_send_data
      00FFA121H   PUBLIC    CODE     ---       soft_iic_start
      00FF9DFCH   PUBLIC    CODE     ---       soft_iic_send_ack
      000000D0H   SFRSYM    DATA     BYTE      PSW
      0000009DH   SFRSYM    DATA     BYTE      IRCBAND
      00000097H   SFRSYM    DATA     BYTE      AUXR2
      000000EFH   SFRSYM    DATA     BYTE      AUXINTIF
      000000FDH   SFRSYM    DATA     BYTE      S4CON
      000000ACH   SFRSYM    DATA     BYTE      S3CON
      0000009AH   SFRSYM    DATA     BYTE      S2CON
      000000B7H   SFRSYM    DATA     BYTE      IPH
      000000CDH   SFRSYM    DATA     BYTE      SPSTAT
      000000DDH   SFRSYM    DATA     BYTE      T4T3M
      000000C1H   SFRSYM    DATA     BYTE      WDT_CONTR
      000000DFH   SFRSYM    DATA     BYTE      IP3
      000000F4H   SFRSYM    DATA     BYTE      USBCON
      000000B5H   SFRSYM    DATA     BYTE      IP2
      000000FFH   SFRSYM    DATA     BYTE      RSTCFG
      000000C7H   SFRSYM    DATA     BYTE      IAP_CONTR
      0000008EH   SFRSYM    DATA     BYTE      AUXR
      000000AFH   SFRSYM    DATA     BYTE      IE2
      00000088H   SFRSYM    DATA     BYTE      TCON
      00000089H   SFRSYM    DATA     BYTE      TMOD
      00000098H   SFRSYM    DATA     BYTE      SCON
      00000087H   SFRSYM    DATA     BYTE      PCON
      000000BCH   SFRSYM    DATA     BYTE      ADC_CONTR
      000000D1H   SFRSYM    DATA     BYTE      PSW1
      000000E7H   SFRSYM    DATA     BYTE      CMPCR2
      000000E6H   SFRSYM    DATA     BYTE      CMPCR1
      000000DEH   SFRSYM    DATA     BYTE      ADCCFG
      000000B8H   SFRSYM    DATA     BYTE      IP
      0000008FH   SFRSYM    DATA     BYTE      INTCLKO
      000000EEH   SFRSYM    DATA     BYTE      IP3H
      000000B6H   SFRSYM    DATA     BYTE      IP2H
      000000BFH   SFRSYM    DATA     BYTE      P_SW4
      000000A8H   SFRSYM    DATA     BYTE      IE
      000000BBH   SFRSYM    DATA     BYTE      P_SW3
      000000BAH   SFRSYM    DATA     BYTE      P_SW2
      000000A2H   SFRSYM    DATA     BYTE      P_SW1
      000000CEH   SFRSYM    DATA     BYTE      SPCTL
      000000F8H   SFRSYM    DATA     BYTE      P7
      000000E8H   SFRSYM    DATA     BYTE      P6
      000000C8H   SFRSYM    DATA     BYTE      P5
      000000C0H   SFRSYM    DATA     BYTE      P4
      000000ABH   SFRSYM    DATA     BYTE      WKTCH
      000000B0H   SFRSYM    DATA     BYTE      P3
      000000A0H   SFRSYM    DATA     BYTE      P2
      00000090H   SFRSYM    DATA     BYTE      P1
      00000080H   SFRSYM    DATA     BYTE      P0

      00FFA781H   BLOCK     CODE     ---       LVL=0
      00010EB3H   SYMBOL    XDATA    DWORD     delay
      00FFA78BH   BLOCK     CODE     NEAR LAB  LVL=1
      00010EB7H   SYMBOL    XDATA    DWORD     count
      ---         BLOCKEND  ---      ---       LVL=1
      00FFA781H   LINE      CODE     ---       #53
      00FFA78BH   LINE      CODE     ---       #54
      00FFA78BH   LINE      CODE     ---       #55
      00FFA79FH   LINE      CODE     ---       #56
      00FFA7B8H   LINE      CODE     ---       #57
      ---         BLOCKEND  ---      ---       LVL=0

L251 LINKER/LOCATER V4.66.93.0                                                        10/01/2025  18:14:56  PAGE 71


      00FFA121H   BLOCK     CODE     ---       LVL=0
      REG=3       REGSYM    ---      ---       soft_iic_obj
      00FFA121H   LINE      CODE     ---       #67
      00FFA125H   LINE      CODE     ---       #69
      00FFA13FH   LINE      CODE     ---       #70
      00FFA147H   LINE      CODE     ---       #71
      00FFA150H   LINE      CODE     ---       #73
      00FFA15BH   LINE      CODE     ---       #74
      00FFA163H   LINE      CODE     ---       #75
      00FFA16EH   LINE      CODE     ---       #76
      00FFA175H   LINE      CODE     ---       #77
      ---         BLOCKEND  ---      ---       LVL=0

      00FF9FA9H   BLOCK     CODE     ---       LVL=0
      REG=3       REGSYM    ---      ---       soft_iic_obj
      00FF9FA9H   LINE      CODE     ---       #86
      00FF9FADH   LINE      CODE     ---       #88
      00FF9FC7H   LINE      CODE     ---       #89
      00FF9FCFH   LINE      CODE     ---       #90
      00FF9FD6H   LINE      CODE     ---       #92
      00FF9FE1H   LINE      CODE     ---       #93
      00FF9FE9H   LINE      CODE     ---       #94
      00FF9FF4H   LINE      CODE     ---       #95
      00FF9FFDH   LINE      CODE     ---       #96
      00FFA008H   LINE      CODE     ---       #97
      ---         BLOCKEND  ---      ---       LVL=0

      00FF9DFCH   BLOCK     CODE     ---       LVL=0
      REG=3       REGSYM    ---      ---       soft_iic_obj
      00010EF3H   SYMBOL    XDATA    BYTE      ack
      00FF9DFCH   LINE      CODE     ---       #107
      00FF9E04H   LINE      CODE     ---       #109
      00FF9E1EH   LINE      CODE     ---       #110
      00FF9E25H   LINE      CODE     ---       #112
      00FF9E2BH   LINE      CODE     ---       #114
      00FF9E34H   LINE      CODE     ---       #115
      00FF9E36H   LINE      CODE     ---       #118
      00FF9E3EH   LINE      CODE     ---       #119
      00FF9E3EH   LINE      CODE     ---       #121
      00FF9E49H   LINE      CODE     ---       #122
      00FF9E51H   LINE      CODE     ---       #123
      00FF9E5CH   LINE      CODE     ---       #124
      00FF9E63H   LINE      CODE     ---       #125
      00FF9E6CH   LINE      CODE     ---       #126
      ---         BLOCKEND  ---      ---       LVL=0

      00FF9C96H   BLOCK     CODE     ---       LVL=0
      REG=3       REGSYM    ---      ---       soft_iic_obj
      00FF9C9AH   BLOCK     CODE     NEAR LAB  LVL=1
      00010EF4H   SYMBOL    XDATA    BYTE      temp
      ---         BLOCKEND  ---      ---       LVL=1
      00FF9C96H   LINE      CODE     ---       #135
      00FF9C9AH   LINE      CODE     ---       #136
      00FF9C9AH   LINE      CODE     ---       #137
      00FF9C9FH   LINE      CODE     ---       #138
      00FF9CB9H   LINE      CODE     ---       #140
      00FF9CC0H   LINE      CODE     ---       #141
      00FF9CC9H   LINE      CODE     ---       #145
      00FF9CD4H   LINE      CODE     ---       #147
      00FF9CDCH   LINE      CODE     ---       #148
      00FF9CE7H   LINE      CODE     ---       #150
      00FF9CF0H   LINE      CODE     ---       #152
      00FF9CF6H   LINE      CODE     ---       #153
      00FF9CF6H   LINE      CODE     ---       #154
      00FF9CFDH   LINE      CODE     ---       #158
L251 LINKER/LOCATER V4.66.93.0                                                        10/01/2025  18:14:56  PAGE 72


      00FF9D08H   LINE      CODE     ---       #160
      00FF9D0CH   LINE      CODE     ---       #161
      ---         BLOCKEND  ---      ---       LVL=0

      00FF973EH   BLOCK     CODE     ---       LVL=0
      REG=3       REGSYM    ---      ---       soft_iic_obj
      00010EF0H   SYMBOL    XDATA    BYTE      dat
      00FF9746H   BLOCK     CODE     NEAR LAB  LVL=1
      00010EF1H   SYMBOL    XDATA    BYTE      temp
      ---         BLOCKEND  ---      ---       LVL=1
      00FF973EH   LINE      CODE     ---       #170
      00FF9746H   LINE      CODE     ---       #171
      00FF9746H   LINE      CODE     ---       #172
      00FF974CH   LINE      CODE     ---       #174
      00FF9766H   LINE      CODE     ---       #176
      00FF9768H   LINE      CODE     ---       #179
      00FF978DH   LINE      CODE     ---       #180
      00FF9794H   LINE      CODE     ---       #182
      00FF979FH   LINE      CODE     ---       #183
      00FF97A7H   LINE      CODE     ---       #184
      00FF97B2H   LINE      CODE     ---       #185
      00FF97B9H   LINE      CODE     ---       #186
      00FF97BFH   LINE      CODE     ---       #187
      00FF97CCH   LINE      CODE     ---       #188
      ---         BLOCKEND  ---      ---       LVL=0

      00FF9171H   BLOCK     CODE     ---       LVL=0
      REG=3       REGSYM    ---      ---       soft_iic_obj
      00010EEDH   SYMBOL    XDATA    BYTE      ack
      00FF9179H   BLOCK     CODE     NEAR LAB  LVL=1
      00010EEEH   SYMBOL    XDATA    BYTE      dat
      00010EEFH   SYMBOL    XDATA    BYTE      temp
      ---         BLOCKEND  ---      ---       LVL=1
      00FF9171H   LINE      CODE     ---       #197
      00FF9179H   LINE      CODE     ---       #198
      00FF9179H   LINE      CODE     ---       #199
      00FF917EH   LINE      CODE     ---       #200
      00FF9184H   LINE      CODE     ---       #201
      00FF919EH   LINE      CODE     ---       #202
      00FF91A5H   LINE      CODE     ---       #203
      00FF91B0H   LINE      CODE     ---       #204
      00FF91B9H   LINE      CODE     ---       #209
      00FF91BBH   LINE      CODE     ---       #211
      00FF91C2H   LINE      CODE     ---       #212
      00FF91CDH   LINE      CODE     ---       #213
      00FF91D5H   LINE      CODE     ---       #214
      00FF91E0H   LINE      CODE     ---       #215
      00FF91F5H   LINE      CODE     ---       #216
      00FF9203H   LINE      CODE     ---       #217
      00FF920AH   LINE      CODE     ---       #221
      00FF9215H   LINE      CODE     ---       #222
      00FF921EH   LINE      CODE     ---       #223
      00FF9222H   LINE      CODE     ---       #224
      ---         BLOCKEND  ---      ---       LVL=0
      REG=3       REGSYM    ---      ---       soft_iic_obj
      REG=3       REGSYM    ---      ---       soft_iic_obj
      REG=3       REGSYM    ---      ---       soft_iic_obj
      REG=3       REGSYM    ---      ---       soft_iic_obj
      REG=3       REGSYM    ---      ---       soft_iic_obj
      REG=3       REGSYM    ---      ---       soft_iic_obj
      REG=3       REGSYM    ---      ---       soft_iic_obj
      REG=3       REGSYM    ---      ---       soft_iic_obj
      REG=3       REGSYM    ---      ---       soft_iic_obj
      REG=3       REGSYM    ---      ---       soft_iic_obj
      REG=3       REGSYM    ---      ---       soft_iic_obj
L251 LINKER/LOCATER V4.66.93.0                                                        10/01/2025  18:14:56  PAGE 73


      REG=3       REGSYM    ---      ---       soft_iic_obj
      REG=3       REGSYM    ---      ---       soft_iic_obj
      REG=3       REGSYM    ---      ---       soft_iic_obj
      REG=3       REGSYM    ---      ---       soft_iic_obj
      REG=3       REGSYM    ---      ---       soft_iic_obj
      REG=3       REGSYM    ---      ---       soft_iic_obj
      REG=3       REGSYM    ---      ---       soft_iic_obj
      REG=3       REGSYM    ---      ---       soft_iic_obj
      REG=3       REGSYM    ---      ---       soft_iic_obj
      REG=3       REGSYM    ---      ---       soft_iic_obj

      ---         MODULE    ---      ---       zf_driver_soft_spi
      000000D0H   SFRSYM    DATA     BYTE      PSW
      0000009DH   SFRSYM    DATA     BYTE      IRCBAND
      00000097H   SFRSYM    DATA     BYTE      AUXR2
      000000EFH   SFRSYM    DATA     BYTE      AUXINTIF
      000000FDH   SFRSYM    DATA     BYTE      S4CON
      000000ACH   SFRSYM    DATA     BYTE      S3CON
      0000009AH   SFRSYM    DATA     BYTE      S2CON
      000000B7H   SFRSYM    DATA     BYTE      IPH
      000000CDH   SFRSYM    DATA     BYTE      SPSTAT
      000000DDH   SFRSYM    DATA     BYTE      T4T3M
      000000C1H   SFRSYM    DATA     BYTE      WDT_CONTR
      000000DFH   SFRSYM    DATA     BYTE      IP3
      000000F4H   SFRSYM    DATA     BYTE      USBCON
      000000B5H   SFRSYM    DATA     BYTE      IP2
      000000FFH   SFRSYM    DATA     BYTE      RSTCFG
      000000C7H   SFRSYM    DATA     BYTE      IAP_CONTR
      0000008EH   SFRSYM    DATA     BYTE      AUXR
      000000AFH   SFRSYM    DATA     BYTE      IE2
      00000088H   SFRSYM    DATA     BYTE      TCON
      00000089H   SFRSYM    DATA     BYTE      TMOD
      00000098H   SFRSYM    DATA     BYTE      SCON
      00000087H   SFRSYM    DATA     BYTE      PCON
      000000BCH   SFRSYM    DATA     BYTE      ADC_CONTR
      000000D1H   SFRSYM    DATA     BYTE      PSW1
      000000E7H   SFRSYM    DATA     BYTE      CMPCR2
      000000E6H   SFRSYM    DATA     BYTE      CMPCR1
      000000DEH   SFRSYM    DATA     BYTE      ADCCFG
      000000B8H   SFRSYM    DATA     BYTE      IP
      0000008FH   SFRSYM    DATA     BYTE      INTCLKO
      000000EEH   SFRSYM    DATA     BYTE      IP3H
      000000B6H   SFRSYM    DATA     BYTE      IP2H
      000000BFH   SFRSYM    DATA     BYTE      P_SW4
      000000A8H   SFRSYM    DATA     BYTE      IE
      000000BBH   SFRSYM    DATA     BYTE      P_SW3
      000000BAH   SFRSYM    DATA     BYTE      P_SW2
      000000A2H   SFRSYM    DATA     BYTE      P_SW1
      000000CEH   SFRSYM    DATA     BYTE      SPCTL
      000000F8H   SFRSYM    DATA     BYTE      P7
      000000E8H   SFRSYM    DATA     BYTE      P6
      000000C8H   SFRSYM    DATA     BYTE      P5
      000000C0H   SFRSYM    DATA     BYTE      P4
      000000ABH   SFRSYM    DATA     BYTE      WKTCH
      000000B0H   SFRSYM    DATA     BYTE      P3
      000000A0H   SFRSYM    DATA     BYTE      P2
      00000090H   SFRSYM    DATA     BYTE      P1
      00000080H   SFRSYM    DATA     BYTE      P0
      DR0         REGSYM    ---      DWORD     x
      REG=3       REGSYM    ---      ---       soft_spi_obj
      R10         REGSYM    ---      BYTE      dat
      REG=3       REGSYM    ---      ---       soft_spi_obj
      WR6         REGSYM    ---      WORD      dat
      REG=3       REGSYM    ---      ---       soft_spi_obj
      REG=3       REGSYM    ---      ---       soft_spi_obj
L251 LINKER/LOCATER V4.66.93.0                                                        10/01/2025  18:14:56  PAGE 74


      REG=3       REGSYM    ---      ---       soft_spi_obj
      REG=3       REGSYM    ---      ---       soft_spi_obj
      REG=3       REGSYM    ---      ---       soft_spi_obj
      REG=3       REGSYM    ---      ---       soft_spi_obj
      REG=3       REGSYM    ---      ---       soft_spi_obj
      REG=3       REGSYM    ---      ---       soft_spi_obj
      REG=3       REGSYM    ---      ---       soft_spi_obj
      REG=3       REGSYM    ---      ---       soft_spi_obj
      REG=3       REGSYM    ---      ---       soft_spi_obj
      REG=3       REGSYM    ---      ---       soft_spi_obj
      REG=3       REGSYM    ---      ---       soft_spi_obj
      REG=3       REGSYM    ---      ---       soft_spi_obj
      REG=3       REGSYM    ---      ---       soft_spi_obj
      REG=3       REGSYM    ---      ---       soft_spi_obj
      REG=3       REGSYM    ---      ---       soft_spi_obj
      REG=3       REGSYM    ---      ---       soft_spi_obj
      REG=3       REGSYM    ---      ---       soft_spi_obj

      ---         MODULE    ---      ---       zf_driver_spi
      00FF01C5H   PUBLIC    CODE     ---       spi_write_8bit
      00FF5F5EH   PUBLIC    CODE     ---       spi_init
      00FFA99BH   PUBLIC    CODE     ---       spi_write_16bit
      00FFA556H   PUBLIC    CODE     ---       spi_write_dat
      0001055AH   PUBLIC    XDATA    BYTE      ?spi_init?BYTE
      000000CFH   SFRSYM    DATA     BYTE      SPDAT
      000000D0H   SFRSYM    DATA     BYTE      PSW
      0000009DH   SFRSYM    DATA     BYTE      IRCBAND
      00000097H   SFRSYM    DATA     BYTE      AUXR2
      000000EFH   SFRSYM    DATA     BYTE      AUXINTIF
      000000FDH   SFRSYM    DATA     BYTE      S4CON
      000000ACH   SFRSYM    DATA     BYTE      S3CON
      0000009AH   SFRSYM    DATA     BYTE      S2CON
      0000009BH   SFRSYM    DATA     BYTE      S2BUF
      000000B7H   SFRSYM    DATA     BYTE      IPH
      000000CDH   SFRSYM    DATA     BYTE      SPSTAT
      000000DDH   SFRSYM    DATA     BYTE      T4T3M
      000000C1H   SFRSYM    DATA     BYTE      WDT_CONTR
      000000DFH   SFRSYM    DATA     BYTE      IP3
      000000F4H   SFRSYM    DATA     BYTE      USBCON
      000000B5H   SFRSYM    DATA     BYTE      IP2
      000000FFH   SFRSYM    DATA     BYTE      RSTCFG
      000000C7H   SFRSYM    DATA     BYTE      IAP_CONTR
      0000008EH   SFRSYM    DATA     BYTE      AUXR
      000000AFH   SFRSYM    DATA     BYTE      IE2
      00000088H   SFRSYM    DATA     BYTE      TCON
      00000089H   SFRSYM    DATA     BYTE      TMOD
      00000098H   SFRSYM    DATA     BYTE      SCON
      00000087H   SFRSYM    DATA     BYTE      PCON
      00000099H   SFRSYM    DATA     BYTE      SBUF
      000000BCH   SFRSYM    DATA     BYTE      ADC_CONTR
      000000D1H   SFRSYM    DATA     BYTE      PSW1
      000000E7H   SFRSYM    DATA     BYTE      CMPCR2
      000000E6H   SFRSYM    DATA     BYTE      CMPCR1
      0000009AH.1 SFRSYM    DATA     BIT       S2TI
      00000098H.1 SFRSYM    DATA     BIT       TI
      000000DEH   SFRSYM    DATA     BYTE      ADCCFG
      000000B8H   SFRSYM    DATA     BYTE      IP
      0000008FH   SFRSYM    DATA     BYTE      INTCLKO
      000000EEH   SFRSYM    DATA     BYTE      IP3H
      000000B6H   SFRSYM    DATA     BYTE      IP2H
      000000BFH   SFRSYM    DATA     BYTE      P_SW4
      000000A8H   SFRSYM    DATA     BYTE      IE
      000000BBH   SFRSYM    DATA     BYTE      P_SW3
      000000BAH   SFRSYM    DATA     BYTE      P_SW2
      000000A2H   SFRSYM    DATA     BYTE      P_SW1
L251 LINKER/LOCATER V4.66.93.0                                                        10/01/2025  18:14:56  PAGE 75


      000000CEH   SFRSYM    DATA     BYTE      SPCTL
      000000F8H   SFRSYM    DATA     BYTE      P7
      000000E8H   SFRSYM    DATA     BYTE      P6
      000000C8H   SFRSYM    DATA     BYTE      P5
      000000C0H   SFRSYM    DATA     BYTE      P4
      000000ABH   SFRSYM    DATA     BYTE      WKTCH
      000000B0H   SFRSYM    DATA     BYTE      P3
      000000A0H   SFRSYM    DATA     BYTE      P2
      00000090H   SFRSYM    DATA     BYTE      P1
      00000080H   SFRSYM    DATA     BYTE      P0

      00FFA556H   BLOCK     CODE     ---       LVL=0
      WR6         REGSYM    ---      INT       spi_n
      R10         REGSYM    ---      BYTE      dat
      00FFA556H   LINE      CODE     ---       #81
      00FFA558H   LINE      CODE     ---       #83
      00FFA564H   LINE      CODE     ---       #85
      00FFA564H   LINE      CODE     ---       #86
      00FFA567H   LINE      CODE     ---       #87
      00FFA56AH   LINE      CODE     ---       #88
      00FFA56FH   LINE      CODE     ---       #89
      00FFA571H   LINE      CODE     ---       #90
      00FFA571H   LINE      CODE     ---       #91
      00FFA573H   LINE      CODE     ---       #92
      00FFA576H   LINE      CODE     ---       #93
      00FFA579H   LINE      CODE     ---       #94
      00FFA57BH   LINE      CODE     ---       #95
      00FFA57BH   LINE      CODE     ---       #96
      00FFA57EH   LINE      CODE     ---       #97
      00FFA581H   LINE      CODE     ---       #98
      00FFA585H   LINE      CODE     ---       #99
      00FFA587H   LINE      CODE     ---       #100
      00FFA587H   LINE      CODE     ---       #101
      00FFA597H   LINE      CODE     ---       #102
      00FFA597H   LINE      CODE     ---       #103
      00FFA597H   LINE      CODE     ---       #104
      ---         BLOCKEND  ---      ---       LVL=0
      WR8         REGSYM    ---      INT       spi_n
      R10         REGSYM    ---      BYTE      dat
      R15         REGSYM    ---      BYTE      ret

      00FF01C5H   BLOCK     CODE     ---       LVL=0
      WR6         REGSYM    ---      INT       spi_n
      R5          REGSYM    ---      BYTE      dat
      00FF01C5H   LINE      CODE     ---       #147
      00FF01C7H   LINE      CODE     ---       #149
      00FF01CAH   LINE      CODE     ---       #150
      ---         BLOCKEND  ---      ---       LVL=0
      REG=3       REGSYM    ---      ---       dat

      00FFA99BH   BLOCK     CODE     ---       LVL=0
      WR12        REGSYM    ---      INT       spi_n
      WR14        REGSYM    ---      WORD      dat
      00FFA99BH   LINE      CODE     ---       #175
      00FFA9A1H   LINE      CODE     ---       #177
      00FFA9ADH   LINE      CODE     ---       #178
      00FFA9B7H   LINE      CODE     ---       #179
      ---         BLOCKEND  ---      ---       LVL=0
      REG=3       REGSYM    ---      ---       dat
      WR14        REGSYM    ---      INT       spi_n
      R5          REGSYM    ---      BYTE      register_name
      R13         REGSYM    ---      BYTE      dat
      R5          REGSYM    ---      BYTE      register_name
      REG=3       REGSYM    ---      ---       dat
      WR14        REGSYM    ---      INT       spi_n
L251 LINKER/LOCATER V4.66.93.0                                                        10/01/2025  18:14:56  PAGE 76


      WR12        REGSYM    ---      WORD      dat
      WR14        REGSYM    ---      INT       spi_n
      WR12        REGSYM    ---      WORD      register_name
      WR6         REGSYM    ---      INT       spi_n
      REG=3       REGSYM    ---      ---       dat
      WR14        REGSYM    ---      INT       spi_n
      WR12        REGSYM    ---      WORD      dat
      REG=3       REGSYM    ---      ---       dat
      WR14        REGSYM    ---      INT       spi_n
      R5          REGSYM    ---      BYTE      register_name
      R5          REGSYM    ---      BYTE      register_name
      REG=3       REGSYM    ---      ---       dat
      WR14        REGSYM    ---      INT       spi_n
      WR12        REGSYM    ---      WORD      register_name
      REG=3       REGSYM    ---      ---       dat
      REG=3       REGSYM    ---      ---       write_buffer
      REG=3       REGSYM    ---      ---       write_buffer

      00FF5F5EH   BLOCK     CODE     ---       LVL=0
      0001055EH   SYMBOL    XDATA    INT       spi_n
      00010560H   SYMBOL    XDATA    INT       mode
      DR12        REGSYM    ---      DWORD     baud
      00010562H   SYMBOL    XDATA    INT       sck_pin
      00010564H   SYMBOL    XDATA    INT       mosi_pin
      00010566H   SYMBOL    XDATA    INT       miso_pin
      00010568H   SYMBOL    XDATA    INT       cs_pin
      00FF5F6EH   BLOCK     CODE     NEAR LAB  LVL=1
      0001056AH   SYMBOL    XDATA    DWORD     spi_psc
      ---         BLOCKEND  ---      ---       LVL=1
      00FF5F5EH   LINE      CODE     ---       #465
      00FF5F6EH   LINE      CODE     ---       #466
      00FF5F6EH   LINE      CODE     ---       #467
      00FF5F7AH   LINE      CODE     ---       #469
      00FF5F90H   LINE      CODE     ---       #471
      00FF5FA0H   LINE      CODE     ---       #473
      00FF5FA0H   LINE      CODE     ---       #475
      00FF5FB6H   LINE      CODE     ---       #476
      00FF5FCCH   LINE      CODE     ---       #478
      00FF5FD8H   LINE      CODE     ---       #480
      00FF5FEEH   LINE      CODE     ---       #481
      00FF5FEEH   LINE      CODE     ---       #483
      00FF5FFAH   LINE      CODE     ---       #485
      00FF600FH   LINE      CODE     ---       #486
      00FF600FH   LINE      CODE     ---       #489
      00FF6015H   LINE      CODE     ---       #491
      00FF6023H   LINE      CODE     ---       #492
      00FF6031H   LINE      CODE     ---       #493
      00FF603DH   LINE      CODE     ---       #495
      00FF604BH   LINE      CODE     ---       #496
      00FF604BH   LINE      CODE     ---       #497
      00FF6057H   LINE      CODE     ---       #499
      00FF6065H   LINE      CODE     ---       #500
      00FF6065H   LINE      CODE     ---       #503
      00FF6072H   LINE      CODE     ---       #505
      00FF6075H   LINE      CODE     ---       #507
      00FF6093H   LINE      CODE     ---       #509
      00FF6093H   LINE      CODE     ---       #510
      00FF6097H   LINE      CODE     ---       #511
      00FF6099H   LINE      CODE     ---       #513
      00FF6099H   LINE      CODE     ---       #514
      00FF609CH   LINE      CODE     ---       #515
      00FF609EH   LINE      CODE     ---       #517
      00FF609EH   LINE      CODE     ---       #518
      00FF60A1H   LINE      CODE     ---       #519
      00FF60A3H   LINE      CODE     ---       #521
L251 LINKER/LOCATER V4.66.93.0                                                        10/01/2025  18:14:56  PAGE 77


      00FF60A3H   LINE      CODE     ---       #522
      00FF60A6H   LINE      CODE     ---       #523
      00FF60A6H   LINE      CODE     ---       #524
      00FF60A6H   LINE      CODE     ---       #526
      00FF60A9H   LINE      CODE     ---       #527
      00FF60ACH   LINE      CODE     ---       #528
      00FF60AFH   LINE      CODE     ---       #531
      00FF60C8H   LINE      CODE     ---       #533
      00FF60CBH   LINE      CODE     ---       #535
      00FF60DBH   LINE      CODE     ---       #537
      00FF60DEH   LINE      CODE     ---       #538
      00FF60E0H   LINE      CODE     ---       #539
      00FF60F0H   LINE      CODE     ---       #541
      00FF60F3H   LINE      CODE     ---       #542
      00FF60F5H   LINE      CODE     ---       #543
      00FF6105H   LINE      CODE     ---       #545
      00FF6109H   LINE      CODE     ---       #546
      00FF610BH   LINE      CODE     ---       #549
      00FF610EH   LINE      CODE     ---       #550
      00FF610EH   LINE      CODE     ---       #553
      00FF6120H   LINE      CODE     ---       #555
      00FF6120H   LINE      CODE     ---       #556
      00FF6120H   LINE      CODE     ---       #558
      00FF6120H   LINE      CODE     ---       #559
      00FF6123H   LINE      CODE     ---       #560
      00FF6125H   LINE      CODE     ---       #562
      00FF6125H   LINE      CODE     ---       #563
      00FF6128H   LINE      CODE     ---       #564
      00FF612AH   LINE      CODE     ---       #566
      00FF612AH   LINE      CODE     ---       #567
      00FF612DH   LINE      CODE     ---       #568
      00FF612DH   LINE      CODE     ---       #569
      00FF612DH   LINE      CODE     ---       #571
      00FF6130H   LINE      CODE     ---       #572
      00FF6133H   LINE      CODE     ---       #573
      00FF6142H   LINE      CODE     ---       #582
      00FF615AH   LINE      CODE     ---       #585
      00FF615DH   LINE      CODE     ---       #587
      00FF617BH   LINE      CODE     ---       #589
      00FF617BH   LINE      CODE     ---       #590
      00FF617FH   LINE      CODE     ---       #591
      00FF6181H   LINE      CODE     ---       #593
      00FF6181H   LINE      CODE     ---       #594
      00FF6184H   LINE      CODE     ---       #595
      00FF6186H   LINE      CODE     ---       #597
      00FF6186H   LINE      CODE     ---       #598
      00FF6189H   LINE      CODE     ---       #599
      00FF618BH   LINE      CODE     ---       #601
      00FF618BH   LINE      CODE     ---       #602
      00FF618EH   LINE      CODE     ---       #603
      00FF618EH   LINE      CODE     ---       #604
      00FF618EH   LINE      CODE     ---       #606
      00FF6191H   LINE      CODE     ---       #607
      00FF619EH   LINE      CODE     ---       #611
      00FF61B7H   LINE      CODE     ---       #615
      00FF61C7H   LINE      CODE     ---       #617
      00FF61D7H   LINE      CODE     ---       #618
      00FF61D9H   LINE      CODE     ---       #619
      00FF61E9H   LINE      CODE     ---       #621
      00FF61F9H   LINE      CODE     ---       #622
      00FF61FBH   LINE      CODE     ---       #623
      00FF620BH   LINE      CODE     ---       #625
      00FF6219H   LINE      CODE     ---       #626
      00FF621BH   LINE      CODE     ---       #629
      00FF622BH   LINE      CODE     ---       #630
L251 LINKER/LOCATER V4.66.93.0                                                        10/01/2025  18:14:56  PAGE 78


      00FF622BH   LINE      CODE     ---       #634
      00FF6243H   LINE      CODE     ---       #636
      00FF6243H   LINE      CODE     ---       #637
      00FF6251H   LINE      CODE     ---       #638
      00FF6253H   LINE      CODE     ---       #640
      00FF6253H   LINE      CODE     ---       #641
      00FF6263H   LINE      CODE     ---       #642
      00FF6265H   LINE      CODE     ---       #644
      00FF6265H   LINE      CODE     ---       #645
      00FF6275H   LINE      CODE     ---       #646
      00FF6277H   LINE      CODE     ---       #648
      00FF6277H   LINE      CODE     ---       #649
      00FF6287H   LINE      CODE     ---       #650
      00FF6287H   LINE      CODE     ---       #651
      00FF6287H   LINE      CODE     ---       #653
      00FF6297H   LINE      CODE     ---       #654
      00FF629AH   LINE      CODE     ---       #655
      00FF62A9H   LINE      CODE     ---       #664
      00FF62C3H   LINE      CODE     ---       #666
      00FF62C6H   LINE      CODE     ---       #668
      00FF62E4H   LINE      CODE     ---       #670
      00FF62E4H   LINE      CODE     ---       #671
      00FF62E8H   LINE      CODE     ---       #672
      00FF62EAH   LINE      CODE     ---       #674
      00FF62EAH   LINE      CODE     ---       #675
      00FF62EDH   LINE      CODE     ---       #676
      00FF62EFH   LINE      CODE     ---       #678
      00FF62EFH   LINE      CODE     ---       #679
      00FF62F2H   LINE      CODE     ---       #680
      00FF62F4H   LINE      CODE     ---       #682
      00FF62F4H   LINE      CODE     ---       #683
      00FF62F7H   LINE      CODE     ---       #684
      00FF62F7H   LINE      CODE     ---       #685
      00FF62F7H   LINE      CODE     ---       #687
      00FF62FAH   LINE      CODE     ---       #688
      00FF6307H   LINE      CODE     ---       #692
      00FF6320H   LINE      CODE     ---       #694
      00FF6330H   LINE      CODE     ---       #696
      00FF6340H   LINE      CODE     ---       #697
      00FF6342H   LINE      CODE     ---       #698
      00FF6352H   LINE      CODE     ---       #700
      00FF6362H   LINE      CODE     ---       #701
      00FF6364H   LINE      CODE     ---       #702
      00FF6374H   LINE      CODE     ---       #704
      00FF6382H   LINE      CODE     ---       #705
      00FF6384H   LINE      CODE     ---       #708
      00FF6394H   LINE      CODE     ---       #709
      00FF6394H   LINE      CODE     ---       #713
      00FF63ACH   LINE      CODE     ---       #715
      00FF63ACH   LINE      CODE     ---       #716
      00FF63BAH   LINE      CODE     ---       #717
      00FF63BCH   LINE      CODE     ---       #719
      00FF63BCH   LINE      CODE     ---       #720
      00FF63CCH   LINE      CODE     ---       #721
      00FF63CEH   LINE      CODE     ---       #723
      00FF63CEH   LINE      CODE     ---       #724
      00FF63DEH   LINE      CODE     ---       #725
      00FF63E0H   LINE      CODE     ---       #727
      00FF63E0H   LINE      CODE     ---       #728
      00FF63F0H   LINE      CODE     ---       #729
      00FF63F0H   LINE      CODE     ---       #730
      00FF63F0H   LINE      CODE     ---       #732
      00FF6400H   LINE      CODE     ---       #733
      ---         BLOCKEND  ---      ---       LVL=0

L251 LINKER/LOCATER V4.66.93.0                                                        10/01/2025  18:14:56  PAGE 79


      ---         MODULE    ---      ---       zf_driver_timer
      00FFA2CCH   PUBLIC    CODE     ---       timer_funciton_check
      000000D0H   SFRSYM    DATA     BYTE      PSW
      0000009DH   SFRSYM    DATA     BYTE      IRCBAND
      00000097H   SFRSYM    DATA     BYTE      AUXR2
      000000EFH   SFRSYM    DATA     BYTE      AUXINTIF
      000000FDH   SFRSYM    DATA     BYTE      S4CON
      000000ACH   SFRSYM    DATA     BYTE      S3CON
      0000009AH   SFRSYM    DATA     BYTE      S2CON
      000000B7H   SFRSYM    DATA     BYTE      IPH
      000000CDH   SFRSYM    DATA     BYTE      SPSTAT
      000000DDH   SFRSYM    DATA     BYTE      T4T3M
      000000C1H   SFRSYM    DATA     BYTE      WDT_CONTR
      000000DFH   SFRSYM    DATA     BYTE      IP3
      000000F4H   SFRSYM    DATA     BYTE      USBCON
      000000B5H   SFRSYM    DATA     BYTE      IP2
      000000FFH   SFRSYM    DATA     BYTE      RSTCFG
      000000C7H   SFRSYM    DATA     BYTE      IAP_CONTR
      0000008EH   SFRSYM    DATA     BYTE      AUXR
      000000AFH   SFRSYM    DATA     BYTE      IE2
      00000088H   SFRSYM    DATA     BYTE      TCON
      00000089H   SFRSYM    DATA     BYTE      TMOD
      00000098H   SFRSYM    DATA     BYTE      SCON
      00000087H   SFRSYM    DATA     BYTE      PCON
      000000BCH   SFRSYM    DATA     BYTE      ADC_CONTR
      000000D1H   SFRSYM    DATA     BYTE      PSW1
      000000E7H   SFRSYM    DATA     BYTE      CMPCR2
      000000E6H   SFRSYM    DATA     BYTE      CMPCR1
      000000DEH   SFRSYM    DATA     BYTE      ADCCFG
      000000B8H   SFRSYM    DATA     BYTE      IP
      0000008FH   SFRSYM    DATA     BYTE      INTCLKO
      000000EEH   SFRSYM    DATA     BYTE      IP3H
      000000B6H   SFRSYM    DATA     BYTE      IP2H
      000000BFH   SFRSYM    DATA     BYTE      P_SW4
      000000A8H   SFRSYM    DATA     BYTE      IE
      000000BBH   SFRSYM    DATA     BYTE      P_SW3
      000000BAH   SFRSYM    DATA     BYTE      P_SW2
      000000A2H   SFRSYM    DATA     BYTE      P_SW1
      000000CEH   SFRSYM    DATA     BYTE      SPCTL
      000000F8H   SFRSYM    DATA     BYTE      P7
      000000E8H   SFRSYM    DATA     BYTE      P6
      000000C8H   SFRSYM    DATA     BYTE      P5
      000000C0H   SFRSYM    DATA     BYTE      P4
      000000ABH   SFRSYM    DATA     BYTE      WKTCH
      000000B0H   SFRSYM    DATA     BYTE      P3
      000000A0H   SFRSYM    DATA     BYTE      P2
      00000090H   SFRSYM    DATA     BYTE      P1
      00000080H   SFRSYM    DATA     BYTE      P0
      00010E70H   SYMBOL    XDATA    ---       timer_function_state

      00FFA2CCH   BLOCK     CODE     ---       LVL=0
      WR2         REGSYM    ---      INT       index
      WR0         REGSYM    ---      INT       mode
      00FFA2D0H   BLOCK     CODE     NEAR LAB  LVL=1
      R10         REGSYM    ---      BYTE      return_state
      ---         BLOCKEND  ---      ---       LVL=1
      00FFA2CCH   LINE      CODE     ---       #58
      00FFA2D0H   LINE      CODE     ---       #59
      00FFA2D0H   LINE      CODE     ---       #60
      00FFA2D3H   LINE      CODE     ---       #61
      00FFA2E8H   LINE      CODE     ---       #63
      00FFA2F9H   LINE      CODE     ---       #64
      00FFA2FBH   LINE      CODE     ---       #65
      00FFA30EH   LINE      CODE     ---       #67
      00FFA311H   LINE      CODE     ---       #68
L251 LINKER/LOCATER V4.66.93.0                                                        10/01/2025  18:14:56  PAGE 80


      00FFA313H   LINE      CODE     ---       #71
      00FFA315H   LINE      CODE     ---       #72
      00FFA315H   LINE      CODE     ---       #73
      00FFA317H   LINE      CODE     ---       #74
      ---         BLOCKEND  ---      ---       LVL=0

      ---         MODULE    ---      ---       zf_driver_uart
      00FF97CFH   PUBLIC    CODE     ---       uart_rx_start_buff
      00FF895AH   PUBLIC    CODE     ---       uart_write_buffer
      00FF73E2H   PUBLIC    CODE     ---       uart_init
      00FFA489H   PUBLIC    CODE     ---       uart_rx_interrupt
      00FFA9D0H   PUBLIC    CODE     ---       uart_write_byte
      00FF8051H   PUBLIC    CODE     ---       uart_dma_init
      00FFA318H   PUBLIC    CODE     ---       uart_funciton_check
      00FFA00BH   PUBLIC    CODE     ---       uart_query_byte
      00010E84H   PUBLIC    XDATA    ---       uart_rx_buff
      0001055AH   PUBLIC    XDATA    BYTE      ?uart_init?BYTE
      000000D0H   SFRSYM    DATA     BYTE      PSW
      0000009DH   SFRSYM    DATA     BYTE      IRCBAND
      00000097H   SFRSYM    DATA     BYTE      AUXR2
      000000EFH   SFRSYM    DATA     BYTE      AUXINTIF
      000000FDH   SFRSYM    DATA     BYTE      S4CON
      000000ACH   SFRSYM    DATA     BYTE      S3CON
      0000009AH   SFRSYM    DATA     BYTE      S2CON
      000000B7H   SFRSYM    DATA     BYTE      IPH
      000000CDH   SFRSYM    DATA     BYTE      SPSTAT
      000000DDH   SFRSYM    DATA     BYTE      T4T3M
      000000C1H   SFRSYM    DATA     BYTE      WDT_CONTR
      00000088H.6 SFRSYM    DATA     BIT       TR1
      000000D7H   SFRSYM    DATA     BYTE      T2L
      000000D6H   SFRSYM    DATA     BYTE      T2H
      000000DFH   SFRSYM    DATA     BYTE      IP3
      000000F4H   SFRSYM    DATA     BYTE      USBCON
      000000B5H   SFRSYM    DATA     BYTE      IP2
      000000FFH   SFRSYM    DATA     BYTE      RSTCFG
      000000C7H   SFRSYM    DATA     BYTE      IAP_CONTR
      0000008EH   SFRSYM    DATA     BYTE      AUXR
      000000AFH   SFRSYM    DATA     BYTE      IE2
      00000088H   SFRSYM    DATA     BYTE      TCON
      00000089H   SFRSYM    DATA     BYTE      TMOD
      00000098H   SFRSYM    DATA     BYTE      SCON
      00000087H   SFRSYM    DATA     BYTE      PCON
      000000BCH   SFRSYM    DATA     BYTE      ADC_CONTR
      000000D1H   SFRSYM    DATA     BYTE      PSW1
      000000E7H   SFRSYM    DATA     BYTE      CMPCR2
      000000E6H   SFRSYM    DATA     BYTE      CMPCR1
      000000DEH   SFRSYM    DATA     BYTE      ADCCFG
      000000B8H   SFRSYM    DATA     BYTE      IP
      0000008FH   SFRSYM    DATA     BYTE      INTCLKO
      000000EEH   SFRSYM    DATA     BYTE      IP3H
      000000B6H   SFRSYM    DATA     BYTE      IP2H
      000000BFH   SFRSYM    DATA     BYTE      P_SW4
      000000A8H   SFRSYM    DATA     BYTE      IE
      000000BBH   SFRSYM    DATA     BYTE      P_SW3
      000000BAH   SFRSYM    DATA     BYTE      P_SW2
      000000A2H   SFRSYM    DATA     BYTE      P_SW1
      000000CEH   SFRSYM    DATA     BYTE      SPCTL
      000000F8H   SFRSYM    DATA     BYTE      P7
      000000E8H   SFRSYM    DATA     BYTE      P6
      000000C8H   SFRSYM    DATA     BYTE      P5
      000000C0H   SFRSYM    DATA     BYTE      P4
      000000ABH   SFRSYM    DATA     BYTE      WKTCH
      000000B0H   SFRSYM    DATA     BYTE      P3
      000000A0H   SFRSYM    DATA     BYTE      P2
      00000090H   SFRSYM    DATA     BYTE      P1
L251 LINKER/LOCATER V4.66.93.0                                                        10/01/2025  18:14:56  PAGE 81


      00000080H   SFRSYM    DATA     BYTE      P0
      00010E7CH   SYMBOL    XDATA    ---       uart_function_state

      00FFA318H   BLOCK     CODE     ---       LVL=0
      WR2         REGSYM    ---      INT       index
      WR0         REGSYM    ---      INT       mode
      00FFA31CH   BLOCK     CODE     NEAR LAB  LVL=1
      R10         REGSYM    ---      BYTE      return_state
      ---         BLOCKEND  ---      ---       LVL=1
      00FFA318H   LINE      CODE     ---       #83
      00FFA31CH   LINE      CODE     ---       #84
      00FFA31CH   LINE      CODE     ---       #85
      00FFA31FH   LINE      CODE     ---       #86
      00FFA334H   LINE      CODE     ---       #88
      00FFA345H   LINE      CODE     ---       #89
      00FFA347H   LINE      CODE     ---       #90
      00FFA35AH   LINE      CODE     ---       #92
      00FFA35DH   LINE      CODE     ---       #93
      00FFA35FH   LINE      CODE     ---       #96
      00FFA361H   LINE      CODE     ---       #97
      00FFA361H   LINE      CODE     ---       #98
      00FFA363H   LINE      CODE     ---       #99
      ---         BLOCKEND  ---      ---       LVL=0

      00FF895AH   BLOCK     CODE     ---       LVL=0
      WR0         REGSYM    ---      INT       uart_n
      REG=7       REGSYM    ---      ---       buff
      WR8         REGSYM    ---      WORD      len
      00FF895AH   LINE      CODE     ---       #108
      00FF8960H   LINE      CODE     ---       #112
      00FF897AH   LINE      CODE     ---       #113
      00FF897CH   LINE      CODE     ---       #114
      00FF8996H   LINE      CODE     ---       #115
      00FF89AFH   LINE      CODE     ---       #116
      00FF89CFH   LINE      CODE     ---       #117
      00FF89EBH   LINE      CODE     ---       #118
      00FF8A06H   LINE      CODE     ---       #120
      00FF8A21H   LINE      CODE     ---       #122
      00FF8A3BH   LINE      CODE     ---       #124
      ---         BLOCKEND  ---      ---       LVL=0
      REG=3       REGSYM    ---      ---       str

      00FFA9D0H   BLOCK     CODE     ---       LVL=0
      WR6         REGSYM    ---      INT       uart_n
      000105D5H   SYMBOL    XDATA    BYTE      dat
      00FFA9D0H   LINE      CODE     ---       #154
      00FFA9D4H   LINE      CODE     ---       #156
      00FFA9E3H   LINE      CODE     ---       #157
      ---         BLOCKEND  ---      ---       LVL=0

      00FF97CFH   BLOCK     CODE     ---       LVL=0
      WR8         REGSYM    ---      INT       uart_n
      00FF97CFH   LINE      CODE     ---       #165
      00FF97D1H   LINE      CODE     ---       #167
      00FF97EBH   LINE      CODE     ---       #168
      00FF9801H   LINE      CODE     ---       #169
      00FF9821H   LINE      CODE     ---       #170
      00FF9843H   LINE      CODE     ---       #171
      00FF985EH   LINE      CODE     ---       #172
      ---         BLOCKEND  ---      ---       LVL=0

      00FFA489H   BLOCK     CODE     ---       LVL=0
      WR2         REGSYM    ---      INT       uart_n
      R5          REGSYM    ---      BYTE      status
      00FFA489H   LINE      CODE     ---       #183
L251 LINKER/LOCATER V4.66.93.0                                                        10/01/2025  18:14:56  PAGE 82


      00FFA48DH   LINE      CODE     ---       #185
      00FFA491H   LINE      CODE     ---       #187
      00FFA4AEH   LINE      CODE     ---       #188
      00FFA4B0H   LINE      CODE     ---       #191
      00FFA4CDH   LINE      CODE     ---       #192
      00FFA4CDH   LINE      CODE     ---       #193
      ---         BLOCKEND  ---      ---       LVL=0
      WR8         REGSYM    ---      INT       uart_n
      R15         REGSYM    ---      BYTE      dat

      00FFA00BH   BLOCK     CODE     ---       LVL=0
      WR2         REGSYM    ---      INT       uart_n
      REG=7       REGSYM    ---      ---       dat
      00FFA011H   BLOCK     CODE     NEAR LAB  LVL=1
      R15         REGSYM    ---      BYTE      ret
      ---         BLOCKEND  ---      ---       LVL=1
      00FFA00BH   LINE      CODE     ---       #227
      00FFA011H   LINE      CODE     ---       #228
      00FFA011H   LINE      CODE     ---       #229
      00FFA013H   LINE      CODE     ---       #232
      00FFA023H   LINE      CODE     ---       #234
      00FFA03FH   LINE      CODE     ---       #236
      00FFA042H   LINE      CODE     ---       #238
      00FFA05FH   LINE      CODE     ---       #239
      00FFA061H   LINE      CODE     ---       #242
      00FFA063H   LINE      CODE     ---       #243
      00FFA063H   LINE      CODE     ---       #246
      00FFA068H   LINE      CODE     ---       #248
      00FFA06AH   LINE      CODE     ---       #249
      ---         BLOCKEND  ---      ---       LVL=0

      00FF8051H   BLOCK     CODE     ---       LVL=0
      WR8         REGSYM    ---      INT       uart_n
      00FF8051H   LINE      CODE     ---       #257
      00FF8053H   LINE      CODE     ---       #259
      00FF806DH   LINE      CODE     ---       #260
      00FF8087H   LINE      CODE     ---       #261
      00FF80A1H   LINE      CODE     ---       #263
      00FF80BBH   LINE      CODE     ---       #264
      00FF80D5H   LINE      CODE     ---       #265
      00FF80EFH   LINE      CODE     ---       #267
      00FF8109H   LINE      CODE     ---       #268
      00FF811FH   LINE      CODE     ---       #269
      00FF813FH   LINE      CODE     ---       #270
      00FF8161H   LINE      CODE     ---       #271
      00FF817CH   LINE      CODE     ---       #272
      00FF8197H   LINE      CODE     ---       #274
      ---         BLOCKEND  ---      ---       LVL=0

      00FF73E2H   BLOCK     CODE     ---       LVL=0
      WR12        REGSYM    ---      INT       uart_n
      0001055EH   SYMBOL    XDATA    DWORD     baud
      WR14        REGSYM    ---      INT       tx_pin
      00010562H   SYMBOL    XDATA    INT       rx_pin
      00FF73F2H   BLOCK     CODE     NEAR LAB  LVL=1
      WR6         REGSYM    ---      WORD      brt
      ---         BLOCKEND  ---      ---       LVL=1
      00FF73E2H   LINE      CODE     ---       #286
      00FF73F2H   LINE      CODE     ---       #287
      00FF73F2H   LINE      CODE     ---       #296
      00FF7408H   LINE      CODE     ---       #303
      00FF7422H   LINE      CODE     ---       #308
      00FF7450H   LINE      CODE     ---       #311
      00FF7462H   LINE      CODE     ---       #312
      00FF7476H   LINE      CODE     ---       #314
L251 LINKER/LOCATER V4.66.93.0                                                        10/01/2025  18:14:56  PAGE 83


      00FF74A7H   LINE      CODE     ---       #316
      00FF74C7H   LINE      CODE     ---       #318
      00FF74C7H   LINE      CODE     ---       #332
      00FF74CAH   LINE      CODE     ---       #333
      00FF74CEH   LINE      CODE     ---       #334
      00FF74D4H   LINE      CODE     ---       #335
      00FF74D7H   LINE      CODE     ---       #336
      00FF74D9H   LINE      CODE     ---       #339
      00FF74DCH   LINE      CODE     ---       #341
      00FF74EEH   LINE      CODE     ---       #343
      00FF74F2H   LINE      CODE     ---       #344
      00FF74F5H   LINE      CODE     ---       #345
      00FF7507H   LINE      CODE     ---       #347
      00FF750AH   LINE      CODE     ---       #348
      00FF750DH   LINE      CODE     ---       #349
      00FF751FH   LINE      CODE     ---       #351
      00FF7522H   LINE      CODE     ---       #352
      00FF7525H   LINE      CODE     ---       #353
      00FF753DH   LINE      CODE     ---       #355
      00FF7540H   LINE      CODE     ---       #356
      00FF7540H   LINE      CODE     ---       #359
      00FF7543H   LINE      CODE     ---       #362
      00FF7543H   LINE      CODE     ---       #366
      00FF7546H   LINE      CODE     ---       #367
      00FF754AH   LINE      CODE     ---       #368
      00FF7550H   LINE      CODE     ---       #369
      00FF7553H   LINE      CODE     ---       #372
      00FF7556H   LINE      CODE     ---       #374
      00FF7568H   LINE      CODE     ---       #376
      00FF756CH   LINE      CODE     ---       #377
      00FF756FH   LINE      CODE     ---       #378
      00FF7587H   LINE      CODE     ---       #380
      00FF758AH   LINE      CODE     ---       #381
      00FF758AH   LINE      CODE     ---       #385
      00FF758DH   LINE      CODE     ---       #388
      00FF758DH   LINE      CODE     ---       #392
      00FF7590H   LINE      CODE     ---       #393
      00FF7594H   LINE      CODE     ---       #394
      00FF759AH   LINE      CODE     ---       #395
      00FF759DH   LINE      CODE     ---       #405
      00FF75A0H   LINE      CODE     ---       #407
      00FF75B2H   LINE      CODE     ---       #409
      00FF75B6H   LINE      CODE     ---       #410
      00FF75B8H   LINE      CODE     ---       #411
      00FF75CAH   LINE      CODE     ---       #413
      00FF75CDH   LINE      CODE     ---       #414
      00FF75CDH   LINE      CODE     ---       #418
      00FF75CFH   LINE      CODE     ---       #421
      00FF75CFH   LINE      CODE     ---       #425
      00FF75D2H   LINE      CODE     ---       #426
      00FF75D6H   LINE      CODE     ---       #427
      00FF75DCH   LINE      CODE     ---       #428
      00FF75DFH   LINE      CODE     ---       #438
      00FF75E2H   LINE      CODE     ---       #440
      00FF75F4H   LINE      CODE     ---       #442
      00FF75F8H   LINE      CODE     ---       #443
      00FF75FAH   LINE      CODE     ---       #444
      00FF760CH   LINE      CODE     ---       #448
      00FF760FH   LINE      CODE     ---       #449
      00FF760FH   LINE      CODE     ---       #453
      00FF760FH   LINE      CODE     ---       #456
      00FF760FH   LINE      CODE     ---       #459
      00FF7614H   LINE      CODE     ---       #461
      ---         BLOCKEND  ---      ---       LVL=0

L251 LINKER/LOCATER V4.66.93.0                                                        10/01/2025  18:14:56  PAGE 84


      ---         MODULE    ---      ---       zf_device_config
      00FF021EH   PUBLIC    CODE     ---       imu660ra_config_file

      ---         MODULE    ---      ---       zf_device_type
      00010EBBH   PUBLIC    XDATA    ---       tof_module_exti_handler
      00010EBDH   PUBLIC    XDATA    INT       wireless_type
      00010EBFH   PUBLIC    XDATA    INT       tof_type
      00010EC1H   PUBLIC    XDATA    INT       gps_type
      000000D0H   SFRSYM    DATA     BYTE      PSW
      0000009DH   SFRSYM    DATA     BYTE      IRCBAND
      00000097H   SFRSYM    DATA     BYTE      AUXR2
      000000EFH   SFRSYM    DATA     BYTE      AUXINTIF
      000000FDH   SFRSYM    DATA     BYTE      S4CON
      000000ACH   SFRSYM    DATA     BYTE      S3CON
      0000009AH   SFRSYM    DATA     BYTE      S2CON
      000000B7H   SFRSYM    DATA     BYTE      IPH
      000000CDH   SFRSYM    DATA     BYTE      SPSTAT
      000000DDH   SFRSYM    DATA     BYTE      T4T3M
      000000C1H   SFRSYM    DATA     BYTE      WDT_CONTR
      000000DFH   SFRSYM    DATA     BYTE      IP3
      000000F4H   SFRSYM    DATA     BYTE      USBCON
      000000B5H   SFRSYM    DATA     BYTE      IP2
      000000FFH   SFRSYM    DATA     BYTE      RSTCFG
      000000C7H   SFRSYM    DATA     BYTE      IAP_CONTR
      0000008EH   SFRSYM    DATA     BYTE      AUXR
      000000AFH   SFRSYM    DATA     BYTE      IE2
      00000088H   SFRSYM    DATA     BYTE      TCON
      00000089H   SFRSYM    DATA     BYTE      TMOD
      00000098H   SFRSYM    DATA     BYTE      SCON
      00000087H   SFRSYM    DATA     BYTE      PCON
      000000BCH   SFRSYM    DATA     BYTE      ADC_CONTR
      000000D1H   SFRSYM    DATA     BYTE      PSW1
      000000E7H   SFRSYM    DATA     BYTE      CMPCR2
      000000E6H   SFRSYM    DATA     BYTE      CMPCR1
      000000DEH   SFRSYM    DATA     BYTE      ADCCFG
      000000B8H   SFRSYM    DATA     BYTE      IP
      0000008FH   SFRSYM    DATA     BYTE      INTCLKO
      000000EEH   SFRSYM    DATA     BYTE      IP3H
      000000B6H   SFRSYM    DATA     BYTE      IP2H
      000000BFH   SFRSYM    DATA     BYTE      P_SW4
      000000A8H   SFRSYM    DATA     BYTE      IE
      000000BBH   SFRSYM    DATA     BYTE      P_SW3
      000000BAH   SFRSYM    DATA     BYTE      P_SW2
      000000A2H   SFRSYM    DATA     BYTE      P_SW1
      000000CEH   SFRSYM    DATA     BYTE      SPCTL
      000000F8H   SFRSYM    DATA     BYTE      P7
      000000E8H   SFRSYM    DATA     BYTE      P6
      000000C8H   SFRSYM    DATA     BYTE      P5
      000000C0H   SFRSYM    DATA     BYTE      P4
      000000ABH   SFRSYM    DATA     BYTE      WKTCH
      000000B0H   SFRSYM    DATA     BYTE      P3
      000000A0H   SFRSYM    DATA     BYTE      P2
      00000090H   SFRSYM    DATA     BYTE      P1
      00000080H   SFRSYM    DATA     BYTE      P0
      WR6         REGSYM    ---      INT       type_set
      WR4         REGSYM    ---      INT       uartx
      REG=0       REGSYM    ---      ---       uart_callback
      WR6         REGSYM    ---      INT       type_set
      REG=0       REGSYM    ---      ---       exti_callback
      WR6         REGSYM    ---      INT       type_set
      WR4         REGSYM    ---      INT       uartx
      REG=0       REGSYM    ---      ---       uart_callback

      ---         MODULE    ---      ---       zf_device_tft180
      00FF6BCDH   PUBLIC    CODE     ---       tft180_init
L251 LINKER/LOCATER V4.66.93.0                                                        10/01/2025  18:14:56  PAGE 85


      00FF7A18H   PUBLIC    CODE     ---       tft180_show_float
      00FF9389H   PUBLIC    CODE     ---       tft180_show_string
      00FF8A3CH   PUBLIC    CODE     ---       tft180_show_char
      00FF000EH   PUBLIC    CODE     ---       tft180_set_color
      00FF8413H   PUBLIC    CODE     ---       tft180_show_int16
      00FFA92CH   PUBLIC    CODE     ---       tft180_set_dir
      00FF9F42H   PUBLIC    CODE     ---       tft180_clear
      00010EC3H   PUBLIC    XDATA    WORD      tft180_pencolor
      00010EC5H   PUBLIC    XDATA    WORD      tft180_bgcolor
      00010EC7H   PUBLIC    XDATA    INT       tft180_display_dir
      00010EC9H   PUBLIC    XDATA    BYTE      tft180_x_max
      00010ECAH   PUBLIC    XDATA    BYTE      tft180_y_max
      0001055CH   PUBLIC    XDATA    BYTE      ?tft180_show_float?BYTE
      000000D0H   SFRSYM    DATA     BYTE      PSW
      0000009DH   SFRSYM    DATA     BYTE      IRCBAND
      00000097H   SFRSYM    DATA     BYTE      AUXR2
      000000EFH   SFRSYM    DATA     BYTE      AUXINTIF
      000000FDH   SFRSYM    DATA     BYTE      S4CON
      000000ACH   SFRSYM    DATA     BYTE      S3CON
      0000009AH   SFRSYM    DATA     BYTE      S2CON
      000000B7H   SFRSYM    DATA     BYTE      IPH
      000000CDH   SFRSYM    DATA     BYTE      SPSTAT
      000000DDH   SFRSYM    DATA     BYTE      T4T3M
      000000C1H   SFRSYM    DATA     BYTE      WDT_CONTR
      000000DFH   SFRSYM    DATA     BYTE      IP3
      000000F4H   SFRSYM    DATA     BYTE      USBCON
      000000B5H   SFRSYM    DATA     BYTE      IP2
      000000FFH   SFRSYM    DATA     BYTE      RSTCFG
      000000C7H   SFRSYM    DATA     BYTE      IAP_CONTR
      0000008EH   SFRSYM    DATA     BYTE      AUXR
      000000AFH   SFRSYM    DATA     BYTE      IE2
      00000088H   SFRSYM    DATA     BYTE      TCON
      00000089H   SFRSYM    DATA     BYTE      TMOD
      00000098H   SFRSYM    DATA     BYTE      SCON
      000000A0H.2 SFRSYM    DATA     BIT       P22
      000000A0H.1 SFRSYM    DATA     BIT       P21
      000000A0H.0 SFRSYM    DATA     BIT       P20
      00000087H   SFRSYM    DATA     BYTE      PCON
      000000BCH   SFRSYM    DATA     BYTE      ADC_CONTR
      000000D1H   SFRSYM    DATA     BYTE      PSW1
      000000E7H   SFRSYM    DATA     BYTE      CMPCR2
      000000E6H   SFRSYM    DATA     BYTE      CMPCR1
      000000DEH   SFRSYM    DATA     BYTE      ADCCFG
      000000B8H   SFRSYM    DATA     BYTE      IP
      0000008FH   SFRSYM    DATA     BYTE      INTCLKO
      000000EEH   SFRSYM    DATA     BYTE      IP3H
      000000B6H   SFRSYM    DATA     BYTE      IP2H
      000000BFH   SFRSYM    DATA     BYTE      P_SW4
      000000A8H   SFRSYM    DATA     BYTE      IE
      000000BBH   SFRSYM    DATA     BYTE      P_SW3
      000000BAH   SFRSYM    DATA     BYTE      P_SW2
      000000A2H   SFRSYM    DATA     BYTE      P_SW1
      000000CEH   SFRSYM    DATA     BYTE      SPCTL
      000000F8H   SFRSYM    DATA     BYTE      P7
      000000E8H   SFRSYM    DATA     BYTE      P6
      000000C8H   SFRSYM    DATA     BYTE      P5
      000000C0H   SFRSYM    DATA     BYTE      P4
      000000ABH   SFRSYM    DATA     BYTE      WKTCH
      000000B0H   SFRSYM    DATA     BYTE      P3
      000000A0H   SFRSYM    DATA     BYTE      P2
      00000090H   SFRSYM    DATA     BYTE      P1
      00000080H   SFRSYM    DATA     BYTE      P0
      00FF8546H   SYMBOL    CODE     ---       tft180_set_region
      00FFA9BAH   SYMBOL    CODE     ---       tft180_write_index

L251 LINKER/LOCATER V4.66.93.0                                                        10/01/2025  18:14:56  PAGE 86


      00FFA9BAH   BLOCK     CODE     ---       LVL=0
      R5          REGSYM    ---      BYTE      dat
      00FFA9BAH   LINE      CODE     ---       #80
      00FFA9BCH   LINE      CODE     ---       #82
      00FFA9BEH   LINE      CODE     ---       #83
      00FFA9C0H   LINE      CODE     ---       #84
      00FFA9C2H   LINE      CODE     ---       #85
      00FFA9C9H   LINE      CODE     ---       #86
      00FFA9CBH   LINE      CODE     ---       #87
      00FFA9CDH   LINE      CODE     ---       #88
      00FFA9CFH   LINE      CODE     ---       #89
      ---         BLOCKEND  ---      ---       LVL=0

      00FF8546H   BLOCK     CODE     ---       LVL=0
      00010599H   SYMBOL    XDATA    WORD      x1
      0001059BH   SYMBOL    XDATA    WORD      y1
      WR12        REGSYM    ---      WORD      x2
      WR14        REGSYM    ---      WORD      y2
      00FF8546H   LINE      CODE     ---       #100
      00FF8558H   LINE      CODE     ---       #102
      00FF857CH   LINE      CODE     ---       #103
      00FF85A0H   LINE      CODE     ---       #104
      00FF85BEH   LINE      CODE     ---       #105
      00FF85DCH   LINE      CODE     ---       #107
      00FF85F2H   LINE      CODE     ---       #109
      00FF85F7H   LINE      CODE     ---       #110
      00FF8604H   LINE      CODE     ---       #111
      00FF860DH   LINE      CODE     ---       #113
      00FF8612H   LINE      CODE     ---       #114
      00FF861FH   LINE      CODE     ---       #115
      00FF8628H   LINE      CODE     ---       #116
      00FF862AH   LINE      CODE     ---       #119
      00FF862FH   LINE      CODE     ---       #120
      00FF863CH   LINE      CODE     ---       #121
      00FF8645H   LINE      CODE     ---       #123
      00FF864AH   LINE      CODE     ---       #124
      00FF8657H   LINE      CODE     ---       #125
      00FF8660H   LINE      CODE     ---       #126
      00FF8660H   LINE      CODE     ---       #127
      00FF8665H   LINE      CODE     ---       #128
      ---         BLOCKEND  ---      ---       LVL=0

      00FF9F42H   BLOCK     CODE     ---       LVL=0
      WR14        REGSYM    ---      WORD      color
      00FF9F46H   BLOCK     CODE     NEAR LAB  LVL=1
      0001055EH   SYMBOL    XDATA    DWORD     i
      ---         BLOCKEND  ---      ---       LVL=1
      00FF9F42H   LINE      CODE     ---       #138
      00FF9F46H   LINE      CODE     ---       #139
      00FF9F46H   LINE      CODE     ---       #140
      00FF9F63H   LINE      CODE     ---       #142
      00FF9F7AH   LINE      CODE     ---       #143
      00FF9F7CH   LINE      CODE     ---       #145
      00FF9F83H   LINE      CODE     ---       #146
      00FF9FA6H   LINE      CODE     ---       #147
      ---         BLOCKEND  ---      ---       LVL=0

      00FFA92CH   BLOCK     CODE     ---       LVL=0
      WR6         REGSYM    ---      INT       dir
      00FFA92CH   LINE      CODE     ---       #155
      00FFA92CH   LINE      CODE     ---       #157
      00FFA932H   LINE      CODE     ---       #158
      00FFA938H   LINE      CODE     ---       #160
      00FFA93EH   LINE      CODE     ---       #161
      00FFA944H   LINE      CODE     ---       #162
L251 LINKER/LOCATER V4.66.93.0                                                        10/01/2025  18:14:56  PAGE 87


      00FFA946H   LINE      CODE     ---       #165
      00FFA94CH   LINE      CODE     ---       #166
      00FFA952H   LINE      CODE     ---       #167
      00FFA952H   LINE      CODE     ---       #168
      ---         BLOCKEND  ---      ---       LVL=0

      00FF000EH   BLOCK     CODE     ---       LVL=0
      WR6         REGSYM    ---      WORD      pen
      WR4         REGSYM    ---      WORD      bgcolor
      00FF000EH   LINE      CODE     ---       #177
      00FF000EH   LINE      CODE     ---       #179
      00FF0014H   LINE      CODE     ---       #180
      00FF001AH   LINE      CODE     ---       #181
      ---         BLOCKEND  ---      ---       LVL=0
      WR12        REGSYM    ---      WORD      x
      WR14        REGSYM    ---      WORD      y

      00FF8A3CH   BLOCK     CODE     ---       LVL=0
      WR12        REGSYM    ---      WORD      x
      WR14        REGSYM    ---      WORD      y
      00010595H   SYMBOL    XDATA    CHAR      dat
      00FF8A46H   BLOCK     CODE     NEAR LAB  LVL=1
      00010596H   SYMBOL    XDATA    BYTE      i
      00010597H   SYMBOL    XDATA    BYTE      j
      00010598H   SYMBOL    XDATA    BYTE      temp
      ---         BLOCKEND  ---      ---       LVL=1
      00FF8A3CH   LINE      CODE     ---       #208
      00FF8A46H   LINE      CODE     ---       #209
      00FF8A46H   LINE      CODE     ---       #213
      00FF8A64H   LINE      CODE     ---       #214
      00FF8A82H   LINE      CODE     ---       #216
      00FF8A8AH   LINE      CODE     ---       #218
      00FF8AA5H   LINE      CODE     ---       #219
      00FF8ACBH   LINE      CODE     ---       #220
      00FF8AD2H   LINE      CODE     ---       #222
      00FF8AD9H   LINE      CODE     ---       #223
      00FF8AE6H   LINE      CODE     ---       #225
      00FF8AF1H   LINE      CODE     ---       #226
      00FF8AF8H   LINE      CODE     ---       #227
      00FF8B07H   LINE      CODE     ---       #228
      00FF8B19H   LINE      CODE     ---       #229
      ---         BLOCKEND  ---      ---       LVL=0

      00FF9389H   BLOCK     CODE     ---       LVL=0
      0001058FH   SYMBOL    XDATA    WORD      x
      00010591H   SYMBOL    XDATA    WORD      y
      REG=3       REGSYM    ---      ---       dat
      00FF9399H   BLOCK     CODE     NEAR LAB  LVL=1
      00010593H   SYMBOL    XDATA    WORD      j
      ---         BLOCKEND  ---      ---       LVL=1
      00FF9389H   LINE      CODE     ---       #239
      00FF9399H   LINE      CODE     ---       #240
      00FF9399H   LINE      CODE     ---       #241
      00FF93A1H   LINE      CODE     ---       #243
      00FF93C5H   LINE      CODE     ---       #244
      00FF93E9H   LINE      CODE     ---       #247
      00FF93EBH   LINE      CODE     ---       #249
      00FF9415H   LINE      CODE     ---       #250
      00FF9420H   LINE      CODE     ---       #251
      00FF942FH   LINE      CODE     ---       #252
      ---         BLOCKEND  ---      ---       LVL=0
      WR12        REGSYM    ---      WORD      x
      WR14        REGSYM    ---      WORD      y
      WR12        REGSYM    ---      WORD      x
      WR14        REGSYM    ---      WORD      y
L251 LINKER/LOCATER V4.66.93.0                                                        10/01/2025  18:14:56  PAGE 88



      00FF8413H   BLOCK     CODE     ---       LVL=0
      WR12        REGSYM    ---      WORD      x
      WR14        REGSYM    ---      WORD      y
      0001055EH   SYMBOL    XDATA    INT       dat
      00FF841FH   BLOCK     CODE     NEAR LAB  LVL=1
      00010560H   SYMBOL    XDATA    ---       a
      00010565H   SYMBOL    XDATA    BYTE      i
      ---         BLOCKEND  ---      ---       LVL=1
      00FF8413H   LINE      CODE     ---       #326
      00FF841FH   LINE      CODE     ---       #327
      00FF841FH   LINE      CODE     ---       #331
      00FF843DH   LINE      CODE     ---       #332
      00FF845BH   LINE      CODE     ---       #334
      00FF8467H   LINE      CODE     ---       #336
      00FF8470H   LINE      CODE     ---       #337
      00FF8482H   LINE      CODE     ---       #338
      00FF8484H   LINE      CODE     ---       #339
      00FF848DH   LINE      CODE     ---       #341
      00FF84A0H   LINE      CODE     ---       #342
      00FF84BAH   LINE      CODE     ---       #343
      00FF84D4H   LINE      CODE     ---       #344
      00FF84EEH   LINE      CODE     ---       #345
      00FF8501H   LINE      CODE     ---       #347
      00FF8506H   LINE      CODE     ---       #348
      00FF8508H   LINE      CODE     ---       #350
      00FF8534H   LINE      CODE     ---       #351
      00FF853AH   LINE      CODE     ---       #352
      00FF8543H   LINE      CODE     ---       #353
      ---         BLOCKEND  ---      ---       LVL=0
      WR12        REGSYM    ---      WORD      x
      WR14        REGSYM    ---      WORD      y
      WR12        REGSYM    ---      WORD      y
      R15         REGSYM    ---      BYTE      num
      R14         REGSYM    ---      BYTE      length

      00FF7A18H   BLOCK     CODE     ---       LVL=0
      0001055EH   SYMBOL    XDATA    WORD      x
      WR12        REGSYM    ---      WORD      y
      00010560H   SYMBOL    XDATA    DOUBLE    dat
      R14         REGSYM    ---      BYTE      num
      R15         REGSYM    ---      BYTE      pointnum
      00FF7A26H   BLOCK     CODE     NEAR LAB  LVL=1
      0001056AH   SYMBOL    XDATA    BYTE      length
      0001056BH   SYMBOL    XDATA    ---       buff
      0001058DH   SYMBOL    XDATA    CHAR      start
      0001058EH   SYMBOL    XDATA    CHAR      end
      R10         REGSYM    ---      CHAR      point
      ---         BLOCKEND  ---      ---       LVL=1
      00FF7A18H   LINE      CODE     ---       #437
      00FF7A26H   LINE      CODE     ---       #438
      00FF7A26H   LINE      CODE     ---       #443
      00FF7A4AH   LINE      CODE     ---       #444
      00FF7A68H   LINE      CODE     ---       #446
      00FF7A70H   LINE      CODE     ---       #447
      00FF7A78H   LINE      CODE     ---       #449
      00FF7AD2H   LINE      CODE     ---       #452
      00FF7B0FH   LINE      CODE     ---       #453
      00FF7B15H   LINE      CODE     ---       #454
      00FF7B15H   LINE      CODE     ---       #455
      00FF7B21H   LINE      CODE     ---       #456
      00FF7B2FH   LINE      CODE     ---       #457
      00FF7B3BH   LINE      CODE     ---       #458
      00FF7B3DH   LINE      CODE     ---       #460
      00FF7B53H   LINE      CODE     ---       #461
L251 LINKER/LOCATER V4.66.93.0                                                        10/01/2025  18:14:56  PAGE 89


      00FF7B59H   LINE      CODE     ---       #462
      00FF7B5FH   LINE      CODE     ---       #463
      00FF7B68H   LINE      CODE     ---       #465
      00FF7B9BH   LINE      CODE     ---       #466
      00FF7BB1H   LINE      CODE     ---       #468
      00FF7BC6H   LINE      CODE     ---       #470
      00FF7BD9H   LINE      CODE     ---       #471
      ---         BLOCKEND  ---      ---       LVL=0
      REG=3       REGSYM    ---      ---       p

      00FF6BCDH   BLOCK     CODE     ---       LVL=0
      00FF6BCDH   LINE      CODE     ---       #515
      00FF6BCDH   LINE      CODE     ---       #520
      00FF6C04H   LINE      CODE     ---       #528
      00FF6C0DH   LINE      CODE     ---       #529
      00FF6C1CH   LINE      CODE     ---       #531
      00FF6C1EH   LINE      CODE     ---       #532
      00FF6C25H   LINE      CODE     ---       #534
      00FF6C27H   LINE      CODE     ---       #535
      00FF6C2EH   LINE      CODE     ---       #537
      00FF6C33H   LINE      CODE     ---       #538
      00FF6C3AH   LINE      CODE     ---       #540
      00FF6C3FH   LINE      CODE     ---       #541
      00FF6C46H   LINE      CODE     ---       #542
      00FF6C4DH   LINE      CODE     ---       #543
      00FF6C54H   LINE      CODE     ---       #545
      00FF6C59H   LINE      CODE     ---       #546
      00FF6C60H   LINE      CODE     ---       #547
      00FF6C67H   LINE      CODE     ---       #548
      00FF6C6EH   LINE      CODE     ---       #550
      00FF6C73H   LINE      CODE     ---       #551
      00FF6C7AH   LINE      CODE     ---       #552
      00FF6C81H   LINE      CODE     ---       #553
      00FF6C88H   LINE      CODE     ---       #554
      00FF6C8FH   LINE      CODE     ---       #555
      00FF6C96H   LINE      CODE     ---       #556
      00FF6C9DH   LINE      CODE     ---       #558
      00FF6CA2H   LINE      CODE     ---       #559
      00FF6CA9H   LINE      CODE     ---       #561
      00FF6CAEH   LINE      CODE     ---       #562
      00FF6CB5H   LINE      CODE     ---       #563
      00FF6CBCH   LINE      CODE     ---       #564
      00FF6CC3H   LINE      CODE     ---       #565
      00FF6CC8H   LINE      CODE     ---       #566
      00FF6CCFH   LINE      CODE     ---       #568
      00FF6CD4H   LINE      CODE     ---       #569
      00FF6CDBH   LINE      CODE     ---       #570
      00FF6CE1H   LINE      CODE     ---       #572
      00FF6CE6H   LINE      CODE     ---       #573
      00FF6CEDH   LINE      CODE     ---       #574
      00FF6CF4H   LINE      CODE     ---       #575
      00FF6CF9H   LINE      CODE     ---       #576
      00FF6D00H   LINE      CODE     ---       #577
      00FF6D07H   LINE      CODE     ---       #579
      00FF6D0CH   LINE      CODE     ---       #580
      00FF6D13H   LINE      CODE     ---       #582
      00FF6D18H   LINE      CODE     ---       #583
      00FF6D30H   LINE      CODE     ---       #585
      00FF6D39H   LINE      CODE     ---       #586
      00FF6D41H   LINE      CODE     ---       #587
      00FF6D4AH   LINE      CODE     ---       #588
      00FF6D51H   LINE      CODE     ---       #589
      00FF6D51H   LINE      CODE     ---       #591
      00FF6D56H   LINE      CODE     ---       #592
      00FF6D5DH   LINE      CODE     ---       #593
L251 LINKER/LOCATER V4.66.93.0                                                        10/01/2025  18:14:56  PAGE 90


      00FF6D64H   LINE      CODE     ---       #594
      00FF6D6BH   LINE      CODE     ---       #595
      00FF6D72H   LINE      CODE     ---       #596
      00FF6D79H   LINE      CODE     ---       #597
      00FF6D80H   LINE      CODE     ---       #598
      00FF6D87H   LINE      CODE     ---       #599
      00FF6D8EH   LINE      CODE     ---       #600
      00FF6D95H   LINE      CODE     ---       #601
      00FF6D9CH   LINE      CODE     ---       #602
      00FF6DA3H   LINE      CODE     ---       #603
      00FF6DAAH   LINE      CODE     ---       #604
      00FF6DB0H   LINE      CODE     ---       #605
      00FF6DB7H   LINE      CODE     ---       #606
      00FF6DBEH   LINE      CODE     ---       #607
      00FF6DC5H   LINE      CODE     ---       #609
      00FF6DCAH   LINE      CODE     ---       #610
      00FF6DD1H   LINE      CODE     ---       #611
      00FF6DD8H   LINE      CODE     ---       #612
      00FF6DDFH   LINE      CODE     ---       #613
      00FF6DE6H   LINE      CODE     ---       #614
      00FF6DEDH   LINE      CODE     ---       #615
      00FF6DF4H   LINE      CODE     ---       #616
      00FF6DFBH   LINE      CODE     ---       #617
      00FF6E02H   LINE      CODE     ---       #618
      00FF6E09H   LINE      CODE     ---       #619
      00FF6E10H   LINE      CODE     ---       #620
      00FF6E17H   LINE      CODE     ---       #621
      00FF6E1EH   LINE      CODE     ---       #622
      00FF6E24H   LINE      CODE     ---       #623
      00FF6E2BH   LINE      CODE     ---       #624
      00FF6E32H   LINE      CODE     ---       #625
      00FF6E39H   LINE      CODE     ---       #627
      00FF6E3EH   LINE      CODE     ---       #628
      00FF6E44H   LINE      CODE     ---       #629
      00FF6E4BH   LINE      CODE     ---       #630
      00FF6E51H   LINE      CODE     ---       #631
      00FF6E58H   LINE      CODE     ---       #633
      00FF6E5DH   LINE      CODE     ---       #634
      00FF6E63H   LINE      CODE     ---       #635
      00FF6E6AH   LINE      CODE     ---       #636
      00FF6E70H   LINE      CODE     ---       #637
      00FF6E77H   LINE      CODE     ---       #639
      00FF6E7CH   LINE      CODE     ---       #640
      00FF6E83H   LINE      CODE     ---       #641
      00FF6E88H   LINE      CODE     ---       #642
      00FF6E8EH   LINE      CODE     ---       #644
      00FF6E93H   LINE      CODE     ---       #645
      00FF6E9AH   LINE      CODE     ---       #646
      00FF6E9FH   LINE      CODE     ---       #648
      00FF6EA8H   LINE      CODE     ---       #649
      ---         BLOCKEND  ---      ---       LVL=0

      ---         MODULE    ---      ---       zf_device_ips114
      00010ECBH   PUBLIC    XDATA    WORD      ips114_pencolor
      00010ECDH   PUBLIC    XDATA    WORD      ips114_bgcolor
      00010ECFH   PUBLIC    XDATA    INT       ips114_display_dir
      00010ED1H   PUBLIC    XDATA    BYTE      ips114_x_max
      00010ED2H   PUBLIC    XDATA    BYTE      ips114_y_max
      000000D0H   SFRSYM    DATA     BYTE      PSW
      0000009DH   SFRSYM    DATA     BYTE      IRCBAND
      00000097H   SFRSYM    DATA     BYTE      AUXR2
      000000EFH   SFRSYM    DATA     BYTE      AUXINTIF
      000000FDH   SFRSYM    DATA     BYTE      S4CON
      000000ACH   SFRSYM    DATA     BYTE      S3CON
      0000009AH   SFRSYM    DATA     BYTE      S2CON
L251 LINKER/LOCATER V4.66.93.0                                                        10/01/2025  18:14:56  PAGE 91


      000000B7H   SFRSYM    DATA     BYTE      IPH
      000000CDH   SFRSYM    DATA     BYTE      SPSTAT
      000000DDH   SFRSYM    DATA     BYTE      T4T3M
      000000C1H   SFRSYM    DATA     BYTE      WDT_CONTR
      000000DFH   SFRSYM    DATA     BYTE      IP3
      000000F4H   SFRSYM    DATA     BYTE      USBCON
      000000B5H   SFRSYM    DATA     BYTE      IP2
      000000FFH   SFRSYM    DATA     BYTE      RSTCFG
      000000C7H   SFRSYM    DATA     BYTE      IAP_CONTR
      0000008EH   SFRSYM    DATA     BYTE      AUXR
      000000AFH   SFRSYM    DATA     BYTE      IE2
      00000088H   SFRSYM    DATA     BYTE      TCON
      00000089H   SFRSYM    DATA     BYTE      TMOD
      00000098H   SFRSYM    DATA     BYTE      SCON
      000000A0H.2 SFRSYM    DATA     BIT       P22
      000000A0H.1 SFRSYM    DATA     BIT       P21
      000000A0H.0 SFRSYM    DATA     BIT       P20
      00000087H   SFRSYM    DATA     BYTE      PCON
      000000BCH   SFRSYM    DATA     BYTE      ADC_CONTR
      000000D1H   SFRSYM    DATA     BYTE      PSW1
      000000E7H   SFRSYM    DATA     BYTE      CMPCR2
      000000E6H   SFRSYM    DATA     BYTE      CMPCR1
      000000DEH   SFRSYM    DATA     BYTE      ADCCFG
      000000B8H   SFRSYM    DATA     BYTE      IP
      0000008FH   SFRSYM    DATA     BYTE      INTCLKO
      000000EEH   SFRSYM    DATA     BYTE      IP3H
      000000B6H   SFRSYM    DATA     BYTE      IP2H
      000000BFH   SFRSYM    DATA     BYTE      P_SW4
      000000A8H   SFRSYM    DATA     BYTE      IE
      000000BBH   SFRSYM    DATA     BYTE      P_SW3
      000000BAH   SFRSYM    DATA     BYTE      P_SW2
      000000A2H   SFRSYM    DATA     BYTE      P_SW1
      000000CEH   SFRSYM    DATA     BYTE      SPCTL
      000000F8H   SFRSYM    DATA     BYTE      P7
      000000E8H   SFRSYM    DATA     BYTE      P6
      000000C8H   SFRSYM    DATA     BYTE      P5
      000000C0H   SFRSYM    DATA     BYTE      P4
      000000ABH   SFRSYM    DATA     BYTE      WKTCH
      000000B0H   SFRSYM    DATA     BYTE      P3
      000000A0H   SFRSYM    DATA     BYTE      P2
      00000090H   SFRSYM    DATA     BYTE      P1
      00000080H   SFRSYM    DATA     BYTE      P0
      R5          REGSYM    ---      BYTE      dat
      WR12        REGSYM    ---      WORD      x2
      WR14        REGSYM    ---      WORD      y2
      WR14        REGSYM    ---      WORD      color
      WR12        REGSYM    ---      WORD      i
      WR6         REGSYM    ---      INT       dir
      WR6         REGSYM    ---      WORD      pen
      WR4         REGSYM    ---      WORD      bgcolor
      WR12        REGSYM    ---      WORD      x
      WR14        REGSYM    ---      WORD      y
      WR12        REGSYM    ---      WORD      x
      WR14        REGSYM    ---      WORD      y
      REG=3       REGSYM    ---      ---       dat
      WR12        REGSYM    ---      WORD      x
      WR14        REGSYM    ---      WORD      y
      WR12        REGSYM    ---      WORD      x
      WR14        REGSYM    ---      WORD      y
      WR12        REGSYM    ---      WORD      x
      WR14        REGSYM    ---      WORD      y
      WR12        REGSYM    ---      WORD      x
      WR14        REGSYM    ---      WORD      y
      WR12        REGSYM    ---      WORD      y
      R15         REGSYM    ---      BYTE      num
L251 LINKER/LOCATER V4.66.93.0                                                        10/01/2025  18:14:56  PAGE 92


      R14         REGSYM    ---      BYTE      length
      WR12        REGSYM    ---      WORD      y
      R14         REGSYM    ---      BYTE      num
      R15         REGSYM    ---      BYTE      pointnum
      R10         REGSYM    ---      CHAR      point
      REG=3       REGSYM    ---      ---       p
      REG=3       REGSYM    ---      ---       p

      ---         MODULE    ---      ---       zf_device_ips200
      00010E9FH   PUBLIC    XDATA    WORD      ips200_pencolor
      00010EA1H   PUBLIC    XDATA    WORD      ips200_bgcolor
      00010EA3H   PUBLIC    XDATA    INT       ips200_display_dir
      00010EA5H   PUBLIC    XDATA    WORD      ips200_x_max
      00010EA7H   PUBLIC    XDATA    WORD      ips200_y_max
      000000D0H   SFRSYM    DATA     BYTE      PSW
      0000009DH   SFRSYM    DATA     BYTE      IRCBAND
      00000097H   SFRSYM    DATA     BYTE      AUXR2
      000000EFH   SFRSYM    DATA     BYTE      AUXINTIF
      000000FDH   SFRSYM    DATA     BYTE      S4CON
      000000ACH   SFRSYM    DATA     BYTE      S3CON
      0000009AH   SFRSYM    DATA     BYTE      S2CON
      000000B7H   SFRSYM    DATA     BYTE      IPH
      000000CDH   SFRSYM    DATA     BYTE      SPSTAT
      000000DDH   SFRSYM    DATA     BYTE      T4T3M
      000000C1H   SFRSYM    DATA     BYTE      WDT_CONTR
      000000DFH   SFRSYM    DATA     BYTE      IP3
      000000F4H   SFRSYM    DATA     BYTE      USBCON
      000000B5H   SFRSYM    DATA     BYTE      IP2
      000000FFH   SFRSYM    DATA     BYTE      RSTCFG
      000000C7H   SFRSYM    DATA     BYTE      IAP_CONTR
      0000008EH   SFRSYM    DATA     BYTE      AUXR
      000000AFH   SFRSYM    DATA     BYTE      IE2
      00000088H   SFRSYM    DATA     BYTE      TCON
      00000089H   SFRSYM    DATA     BYTE      TMOD
      00000098H   SFRSYM    DATA     BYTE      SCON
      000000A0H.2 SFRSYM    DATA     BIT       P22
      000000A0H.1 SFRSYM    DATA     BIT       P21
      000000A0H.0 SFRSYM    DATA     BIT       P20
      00000087H   SFRSYM    DATA     BYTE      PCON
      000000BCH   SFRSYM    DATA     BYTE      ADC_CONTR
      000000D1H   SFRSYM    DATA     BYTE      PSW1
      000000E7H   SFRSYM    DATA     BYTE      CMPCR2
      000000E6H   SFRSYM    DATA     BYTE      CMPCR1
      000000DEH   SFRSYM    DATA     BYTE      ADCCFG
      000000B8H   SFRSYM    DATA     BYTE      IP
      0000008FH   SFRSYM    DATA     BYTE      INTCLKO
      000000EEH   SFRSYM    DATA     BYTE      IP3H
      000000B6H   SFRSYM    DATA     BYTE      IP2H
      000000BFH   SFRSYM    DATA     BYTE      P_SW4
      000000A8H   SFRSYM    DATA     BYTE      IE
      000000BBH   SFRSYM    DATA     BYTE      P_SW3
      000000BAH   SFRSYM    DATA     BYTE      P_SW2
      000000A2H   SFRSYM    DATA     BYTE      P_SW1
      000000CEH   SFRSYM    DATA     BYTE      SPCTL
      000000F8H   SFRSYM    DATA     BYTE      P7
      000000E8H   SFRSYM    DATA     BYTE      P6
      000000C8H   SFRSYM    DATA     BYTE      P5
      000000C0H   SFRSYM    DATA     BYTE      P4
      000000ABH   SFRSYM    DATA     BYTE      WKTCH
      000000B0H   SFRSYM    DATA     BYTE      P3
      000000A0H   SFRSYM    DATA     BYTE      P2
      00000090H   SFRSYM    DATA     BYTE      P1
      00000080H   SFRSYM    DATA     BYTE      P0
      R5          REGSYM    ---      BYTE      dat
      WR12        REGSYM    ---      WORD      x2
L251 LINKER/LOCATER V4.66.93.0                                                        10/01/2025  18:14:56  PAGE 93


      WR14        REGSYM    ---      WORD      y2
      WR14        REGSYM    ---      WORD      color
      WR12        REGSYM    ---      WORD      i
      WR6         REGSYM    ---      INT       dir
      WR6         REGSYM    ---      WORD      pen
      WR4         REGSYM    ---      WORD      bgcolor
      WR12        REGSYM    ---      WORD      x
      WR14        REGSYM    ---      WORD      y
      WR12        REGSYM    ---      WORD      x
      WR14        REGSYM    ---      WORD      y
      REG=3       REGSYM    ---      ---       dat
      WR12        REGSYM    ---      WORD      x
      WR14        REGSYM    ---      WORD      y
      WR12        REGSYM    ---      WORD      x
      WR14        REGSYM    ---      WORD      y
      WR12        REGSYM    ---      WORD      x
      WR14        REGSYM    ---      WORD      y
      WR12        REGSYM    ---      WORD      x
      WR14        REGSYM    ---      WORD      y
      WR12        REGSYM    ---      WORD      y
      R15         REGSYM    ---      BYTE      num
      R14         REGSYM    ---      BYTE      length
      WR12        REGSYM    ---      WORD      y
      R14         REGSYM    ---      BYTE      num
      R15         REGSYM    ---      BYTE      pointnum
      R10         REGSYM    ---      CHAR      point
      REG=3       REGSYM    ---      ---       p
      REG=3       REGSYM    ---      ---       p

      ---         MODULE    ---      ---       zf_device_dl1a
      00010E5FH   PUBLIC    XDATA    WORD      dl1a_distance_mm
      00010E61H   PUBLIC    XDATA    BYTE      dl1a_finsh_flag
      000000D0H   SFRSYM    DATA     BYTE      PSW
      0000009DH   SFRSYM    DATA     BYTE      IRCBAND
      00000097H   SFRSYM    DATA     BYTE      AUXR2
      000000EFH   SFRSYM    DATA     BYTE      AUXINTIF
      000000FDH   SFRSYM    DATA     BYTE      S4CON
      000000ACH   SFRSYM    DATA     BYTE      S3CON
      0000009AH   SFRSYM    DATA     BYTE      S2CON
      000000B7H   SFRSYM    DATA     BYTE      IPH
      000000CDH   SFRSYM    DATA     BYTE      SPSTAT
      000000DDH   SFRSYM    DATA     BYTE      T4T3M
      000000C1H   SFRSYM    DATA     BYTE      WDT_CONTR
      000000DFH   SFRSYM    DATA     BYTE      IP3
      000000F4H   SFRSYM    DATA     BYTE      USBCON
      000000B5H   SFRSYM    DATA     BYTE      IP2
      000000FFH   SFRSYM    DATA     BYTE      RSTCFG
      000000C7H   SFRSYM    DATA     BYTE      IAP_CONTR
      0000008EH   SFRSYM    DATA     BYTE      AUXR
      000000AFH   SFRSYM    DATA     BYTE      IE2
      00000088H   SFRSYM    DATA     BYTE      TCON
      00000089H   SFRSYM    DATA     BYTE      TMOD
      00000098H   SFRSYM    DATA     BYTE      SCON
      00000087H   SFRSYM    DATA     BYTE      PCON
      000000BCH   SFRSYM    DATA     BYTE      ADC_CONTR
      000000D1H   SFRSYM    DATA     BYTE      PSW1
      000000E7H   SFRSYM    DATA     BYTE      CMPCR2
      000000E6H   SFRSYM    DATA     BYTE      CMPCR1
      000000DEH   SFRSYM    DATA     BYTE      ADCCFG
      000000B8H   SFRSYM    DATA     BYTE      IP
      0000008FH   SFRSYM    DATA     BYTE      INTCLKO
      000000EEH   SFRSYM    DATA     BYTE      IP3H
      000000B6H   SFRSYM    DATA     BYTE      IP2H
      000000BFH   SFRSYM    DATA     BYTE      P_SW4
      000000A8H   SFRSYM    DATA     BYTE      IE
L251 LINKER/LOCATER V4.66.93.0                                                        10/01/2025  18:14:56  PAGE 94


      000000BBH   SFRSYM    DATA     BYTE      P_SW3
      000000BAH   SFRSYM    DATA     BYTE      P_SW2
      000000A2H   SFRSYM    DATA     BYTE      P_SW1
      000000CEH   SFRSYM    DATA     BYTE      SPCTL
      000000F8H   SFRSYM    DATA     BYTE      P7
      000000E8H   SFRSYM    DATA     BYTE      P6
      000000C8H   SFRSYM    DATA     BYTE      P5
      000000C0H   SFRSYM    DATA     BYTE      P4
      000000ABH   SFRSYM    DATA     BYTE      WKTCH
      000000B0H   SFRSYM    DATA     BYTE      P3
      000000A0H   SFRSYM    DATA     BYTE      P2
      00000090H   SFRSYM    DATA     BYTE      P1
      00000080H   SFRSYM    DATA     BYTE      P0
      00FFBD50H   SYMBOL    HCONST   ---       ?tpl?0001
      00FFBD58H   SYMBOL    HCONST   ---       ?tpl?0002
      00FFBD5EH   SYMBOL    HCONST   ---       ?tpl?0003
      00FFBD68H   SYMBOL    HCONST   ---       ?tpl?0004
      00010E56H   SYMBOL    XDATA    ---       dl1a_iic_struct
      00010E62H   SYMBOL    XDATA    BYTE      dl1a_init_flag
      REG=3       REGSYM    ---      ---       type_is_aperture
      WR30        REGSYM    ---      WORD      timeout_period_mclks
      R5          REGSYM    ---      BYTE      vcsel_period_pclks
      DR24        REGSYM    ---      DWORD     macro_period_ns
      DR28        REGSYM    ---      DWORD     timeout_period_us
      R3          REGSYM    ---      BYTE      vcsel_period_pclks
      DR8         REGSYM    ---      DWORD     macro_period_ns
      WR4         REGSYM    ---      WORD      reg_val
      WR2         REGSYM    ---      WORD      timeout_mclks
      DR8         REGSYM    ---      DWORD     ls_byte
      WR4         REGSYM    ---      WORD      ms_byte
      WR6         REGSYM    ---      WORD      return_data
      REG=3       REGSYM    ---      ---       enables
      WR14        REGSYM    ---      INT       type
      REG=3       REGSYM    ---      ---       timeouts
      R10         REGSYM    ---      BYTE      vhv_init_byte
      R15         REGSYM    ---      BYTE      return_state
      DR12        REGSYM    ---      DWORD     budget_us
      DR12        REGSYM    ---      DWORD     budget_us
      DR28        REGSYM    ---      FLOAT     limit_mcps
      WR14        REGSYM    ---      WORD      limit_mcps_16bit
      R15         REGSYM    ---      BYTE      return_state
      R14         REGSYM    ---      BYTE      reg_data_buffer
      WR12        REGSYM    ---      WORD      i

      ---         MODULE    ---      ---       zf_device_ble6a20
      000000D0H   SFRSYM    DATA     BYTE      PSW
      0000009DH   SFRSYM    DATA     BYTE      IRCBAND
      00000097H   SFRSYM    DATA     BYTE      AUXR2
      000000EFH   SFRSYM    DATA     BYTE      AUXINTIF
      000000FDH   SFRSYM    DATA     BYTE      S4CON
      000000ACH   SFRSYM    DATA     BYTE      S3CON
      0000009AH   SFRSYM    DATA     BYTE      S2CON
      000000B7H   SFRSYM    DATA     BYTE      IPH
      000000CDH   SFRSYM    DATA     BYTE      SPSTAT
      000000DDH   SFRSYM    DATA     BYTE      T4T3M
      000000C1H   SFRSYM    DATA     BYTE      WDT_CONTR
      000000DFH   SFRSYM    DATA     BYTE      IP3
      000000F4H   SFRSYM    DATA     BYTE      USBCON
      000000B5H   SFRSYM    DATA     BYTE      IP2
      000000FFH   SFRSYM    DATA     BYTE      RSTCFG
      000000C7H   SFRSYM    DATA     BYTE      IAP_CONTR
      0000008EH   SFRSYM    DATA     BYTE      AUXR
      000000AFH   SFRSYM    DATA     BYTE      IE2
      00000088H   SFRSYM    DATA     BYTE      TCON
      00000089H   SFRSYM    DATA     BYTE      TMOD
L251 LINKER/LOCATER V4.66.93.0                                                        10/01/2025  18:14:56  PAGE 95


      00000098H   SFRSYM    DATA     BYTE      SCON
      00000087H   SFRSYM    DATA     BYTE      PCON
      000000BCH   SFRSYM    DATA     BYTE      ADC_CONTR
      000000D1H   SFRSYM    DATA     BYTE      PSW1
      000000E7H   SFRSYM    DATA     BYTE      CMPCR2
      000000E6H   SFRSYM    DATA     BYTE      CMPCR1
      000000DEH   SFRSYM    DATA     BYTE      ADCCFG
      000000B8H   SFRSYM    DATA     BYTE      IP
      0000008FH   SFRSYM    DATA     BYTE      INTCLKO
      000000EEH   SFRSYM    DATA     BYTE      IP3H
      000000B6H   SFRSYM    DATA     BYTE      IP2H
      000000BFH   SFRSYM    DATA     BYTE      P_SW4
      000000A8H   SFRSYM    DATA     BYTE      IE
      000000BBH   SFRSYM    DATA     BYTE      P_SW3
      000000BAH   SFRSYM    DATA     BYTE      P_SW2
      000000A2H   SFRSYM    DATA     BYTE      P_SW1
      000000CEH   SFRSYM    DATA     BYTE      SPCTL
      000000F8H   SFRSYM    DATA     BYTE      P7
      000000E8H   SFRSYM    DATA     BYTE      P6
      000000C8H   SFRSYM    DATA     BYTE      P5
      000000C0H   SFRSYM    DATA     BYTE      P4
      000000ABH   SFRSYM    DATA     BYTE      WKTCH
      000000B0H   SFRSYM    DATA     BYTE      P3
      000000A0H   SFRSYM    DATA     BYTE      P2
      00000090H   SFRSYM    DATA     BYTE      P1
      00000080H   SFRSYM    DATA     BYTE      P0
      00010CCCH   SYMBOL    XDATA    ---       ble6a20_buffer
      00010D0CH   SYMBOL    XDATA    ---       ble6a20_fifo
      R15         REGSYM    ---      BYTE      dat
      WR12        REGSYM    ---      WORD      time_cnt
      DR12        REGSYM    ---      DWORD     len
      REG=3       REGSYM    ---      ---       str
      REG=3       REGSYM    ---      ---       buff
      DR8         REGSYM    ---      DWORD     len
      R15         REGSYM    ---      BYTE      return_state

      ---         MODULE    ---      ---       zf_device_wireless_uart
      000000D0H   SFRSYM    DATA     BYTE      PSW
      0000009DH   SFRSYM    DATA     BYTE      IRCBAND
      00000097H   SFRSYM    DATA     BYTE      AUXR2
      000000EFH   SFRSYM    DATA     BYTE      AUXINTIF
      000000FDH   SFRSYM    DATA     BYTE      S4CON
      000000ACH   SFRSYM    DATA     BYTE      S3CON
      0000009AH   SFRSYM    DATA     BYTE      S2CON
      000000B7H   SFRSYM    DATA     BYTE      IPH
      000000CDH   SFRSYM    DATA     BYTE      SPSTAT
      000000DDH   SFRSYM    DATA     BYTE      T4T3M
      000000C1H   SFRSYM    DATA     BYTE      WDT_CONTR
      000000DFH   SFRSYM    DATA     BYTE      IP3
      000000F4H   SFRSYM    DATA     BYTE      USBCON
      000000B5H   SFRSYM    DATA     BYTE      IP2
      000000FFH   SFRSYM    DATA     BYTE      RSTCFG
      000000C7H   SFRSYM    DATA     BYTE      IAP_CONTR
      0000008EH   SFRSYM    DATA     BYTE      AUXR
      000000AFH   SFRSYM    DATA     BYTE      IE2
      00000088H   SFRSYM    DATA     BYTE      TCON
      00000089H   SFRSYM    DATA     BYTE      TMOD
      00000098H   SFRSYM    DATA     BYTE      SCON
      00000087H   SFRSYM    DATA     BYTE      PCON
      000000BCH   SFRSYM    DATA     BYTE      ADC_CONTR
      000000D1H   SFRSYM    DATA     BYTE      PSW1
      000000E7H   SFRSYM    DATA     BYTE      CMPCR2
      000000E6H   SFRSYM    DATA     BYTE      CMPCR1
      000000DEH   SFRSYM    DATA     BYTE      ADCCFG
      000000B8H   SFRSYM    DATA     BYTE      IP
L251 LINKER/LOCATER V4.66.93.0                                                        10/01/2025  18:14:56  PAGE 96


      0000008FH   SFRSYM    DATA     BYTE      INTCLKO
      000000EEH   SFRSYM    DATA     BYTE      IP3H
      000000B6H   SFRSYM    DATA     BYTE      IP2H
      000000BFH   SFRSYM    DATA     BYTE      P_SW4
      000000A8H   SFRSYM    DATA     BYTE      IE
      000000BBH   SFRSYM    DATA     BYTE      P_SW3
      000000BAH   SFRSYM    DATA     BYTE      P_SW2
      000000A2H   SFRSYM    DATA     BYTE      P_SW1
      000000CEH   SFRSYM    DATA     BYTE      SPCTL
      000000F8H   SFRSYM    DATA     BYTE      P7
      000000E8H   SFRSYM    DATA     BYTE      P6
      000000C8H   SFRSYM    DATA     BYTE      P5
      000000C0H   SFRSYM    DATA     BYTE      P4
      000000ABH   SFRSYM    DATA     BYTE      WKTCH
      000000B0H   SFRSYM    DATA     BYTE      P3
      000000A0H   SFRSYM    DATA     BYTE      P2
      00000090H   SFRSYM    DATA     BYTE      P1
      00000080H   SFRSYM    DATA     BYTE      P0
      00010D23H   SYMBOL    XDATA    ---       wireless_uart_fifo
      00010D3AH   SYMBOL    XDATA    ---       wireless_uart_buffer
      R15         REGSYM    ---      BYTE      dat
      WR12        REGSYM    ---      WORD      time_cnt
      DR12        REGSYM    ---      DWORD     len
      REG=3       REGSYM    ---      ---       str
      REG=3       REGSYM    ---      ---       buff
      DR8         REGSYM    ---      DWORD     len
      R15         REGSYM    ---      BYTE      return_state

      ---         MODULE    ---      ---       zf_device_icm20602
      00010E2EH   PUBLIC    XDATA    INT       icm20602_acc_x
      00010E30H   PUBLIC    XDATA    INT       icm20602_acc_y
      00010E32H   PUBLIC    XDATA    INT       icm20602_acc_z
      00010E34H   PUBLIC    XDATA    INT       icm20602_gyro_x
      00010E36H   PUBLIC    XDATA    INT       icm20602_gyro_y
      00010E38H   PUBLIC    XDATA    INT       icm20602_gyro_z
      00010E3AH   PUBLIC    XDATA    ---       icm20602_transition_factor
      000000D0H   SFRSYM    DATA     BYTE      PSW
      0000009DH   SFRSYM    DATA     BYTE      IRCBAND
      00000097H   SFRSYM    DATA     BYTE      AUXR2
      000000EFH   SFRSYM    DATA     BYTE      AUXINTIF
      000000FDH   SFRSYM    DATA     BYTE      S4CON
      000000ACH   SFRSYM    DATA     BYTE      S3CON
      0000009AH   SFRSYM    DATA     BYTE      S2CON
      000000B7H   SFRSYM    DATA     BYTE      IPH
      000000CDH   SFRSYM    DATA     BYTE      SPSTAT
      000000DDH   SFRSYM    DATA     BYTE      T4T3M
      000000C1H   SFRSYM    DATA     BYTE      WDT_CONTR
      000000DFH   SFRSYM    DATA     BYTE      IP3
      000000F4H   SFRSYM    DATA     BYTE      USBCON
      000000B5H   SFRSYM    DATA     BYTE      IP2
      000000FFH   SFRSYM    DATA     BYTE      RSTCFG
      000000C7H   SFRSYM    DATA     BYTE      IAP_CONTR
      0000008EH   SFRSYM    DATA     BYTE      AUXR
      000000AFH   SFRSYM    DATA     BYTE      IE2
      000000C0H.3 SFRSYM    DATA     BIT       P43
      000000C0H.2 SFRSYM    DATA     BIT       P42
      00000088H   SFRSYM    DATA     BYTE      TCON
      00000089H   SFRSYM    DATA     BYTE      TMOD
      000000C0H.1 SFRSYM    DATA     BIT       P41
      00000098H   SFRSYM    DATA     BYTE      SCON
      000000C0H.0 SFRSYM    DATA     BIT       P40
      00000087H   SFRSYM    DATA     BYTE      PCON
      000000BCH   SFRSYM    DATA     BYTE      ADC_CONTR
      000000D1H   SFRSYM    DATA     BYTE      PSW1
      000000E7H   SFRSYM    DATA     BYTE      CMPCR2
L251 LINKER/LOCATER V4.66.93.0                                                        10/01/2025  18:14:56  PAGE 97


      000000E6H   SFRSYM    DATA     BYTE      CMPCR1
      000000DEH   SFRSYM    DATA     BYTE      ADCCFG
      000000B8H   SFRSYM    DATA     BYTE      IP
      0000008FH   SFRSYM    DATA     BYTE      INTCLKO
      000000EEH   SFRSYM    DATA     BYTE      IP3H
      000000B6H   SFRSYM    DATA     BYTE      IP2H
      000000BFH   SFRSYM    DATA     BYTE      P_SW4
      000000A8H   SFRSYM    DATA     BYTE      IE
      000000BBH   SFRSYM    DATA     BYTE      P_SW3
      000000BAH   SFRSYM    DATA     BYTE      P_SW2
      000000A2H   SFRSYM    DATA     BYTE      P_SW1
      000000CEH   SFRSYM    DATA     BYTE      SPCTL
      000000F8H   SFRSYM    DATA     BYTE      P7
      000000E8H   SFRSYM    DATA     BYTE      P6
      000000C8H   SFRSYM    DATA     BYTE      P5
      000000C0H   SFRSYM    DATA     BYTE      P4
      000000ABH   SFRSYM    DATA     BYTE      WKTCH
      000000B0H   SFRSYM    DATA     BYTE      P3
      000000A0H   SFRSYM    DATA     BYTE      P2
      00000090H   SFRSYM    DATA     BYTE      P1
      00000080H   SFRSYM    DATA     BYTE      P0
      R7          REGSYM    ---      BYTE      byte
      R6          REGSYM    ---      BYTE      i
      R7          REGSYM    ---      BYTE      cmd
      R15         REGSYM    ---      BYTE      val
      R10         REGSYM    ---      BYTE      cmd
      REG=3       REGSYM    ---      ---       val
      R10         REGSYM    ---      BYTE      cmd
      REG=3       REGSYM    ---      ---       val
      R11         REGSYM    ---      BYTE      reg
      R10         REGSYM    ---      BYTE      dat
      R7          REGSYM    ---      BYTE      reg
      R3          REGSYM    ---      BYTE      reg
      REG=1       REGSYM    ---      ---       dat
      DR28        REGSYM    ---      DWORD     len
      R14         REGSYM    ---      BYTE      dat
      R15         REGSYM    ---      BYTE      return_state
      WR12        REGSYM    ---      WORD      timeout_count
      R14         REGSYM    ---      BYTE      val
      R15         REGSYM    ---      BYTE      return_state
      WR12        REGSYM    ---      WORD      timeout_count

      ---         MODULE    ---      ---       zf_device_imu660ra
      00010E42H   PUBLIC    XDATA    INT       imu660ra_acc_x
      00010E44H   PUBLIC    XDATA    INT       imu660ra_acc_y
      00010E46H   PUBLIC    XDATA    INT       imu660ra_acc_z
      00010E48H   PUBLIC    XDATA    INT       imu660ra_gyro_x
      00010E4AH   PUBLIC    XDATA    INT       imu660ra_gyro_y
      00010E4CH   PUBLIC    XDATA    INT       imu660ra_gyro_z
      00010E4EH   PUBLIC    XDATA    ---       imu660ra_transition_factor
      000000D0H   SFRSYM    DATA     BYTE      PSW
      0000009DH   SFRSYM    DATA     BYTE      IRCBAND
      00000097H   SFRSYM    DATA     BYTE      AUXR2
      000000EFH   SFRSYM    DATA     BYTE      AUXINTIF
      000000FDH   SFRSYM    DATA     BYTE      S4CON
      000000ACH   SFRSYM    DATA     BYTE      S3CON
      0000009AH   SFRSYM    DATA     BYTE      S2CON
      000000B7H   SFRSYM    DATA     BYTE      IPH
      000000CDH   SFRSYM    DATA     BYTE      SPSTAT
      000000DDH   SFRSYM    DATA     BYTE      T4T3M
      000000C1H   SFRSYM    DATA     BYTE      WDT_CONTR
      000000DFH   SFRSYM    DATA     BYTE      IP3
      000000F4H   SFRSYM    DATA     BYTE      USBCON
      000000B5H   SFRSYM    DATA     BYTE      IP2
      000000FFH   SFRSYM    DATA     BYTE      RSTCFG
L251 LINKER/LOCATER V4.66.93.0                                                        10/01/2025  18:14:56  PAGE 98


      000000C7H   SFRSYM    DATA     BYTE      IAP_CONTR
      0000008EH   SFRSYM    DATA     BYTE      AUXR
      000000AFH   SFRSYM    DATA     BYTE      IE2
      000000C0H.3 SFRSYM    DATA     BIT       P43
      000000C0H.2 SFRSYM    DATA     BIT       P42
      00000088H   SFRSYM    DATA     BYTE      TCON
      00000089H   SFRSYM    DATA     BYTE      TMOD
      000000C0H.1 SFRSYM    DATA     BIT       P41
      00000098H   SFRSYM    DATA     BYTE      SCON
      000000C0H.0 SFRSYM    DATA     BIT       P40
      00000087H   SFRSYM    DATA     BYTE      PCON
      000000BCH   SFRSYM    DATA     BYTE      ADC_CONTR
      000000D1H   SFRSYM    DATA     BYTE      PSW1
      000000E7H   SFRSYM    DATA     BYTE      CMPCR2
      000000E6H   SFRSYM    DATA     BYTE      CMPCR1
      000000DEH   SFRSYM    DATA     BYTE      ADCCFG
      000000B8H   SFRSYM    DATA     BYTE      IP
      0000008FH   SFRSYM    DATA     BYTE      INTCLKO
      000000EEH   SFRSYM    DATA     BYTE      IP3H
      000000B6H   SFRSYM    DATA     BYTE      IP2H
      000000BFH   SFRSYM    DATA     BYTE      P_SW4
      000000A8H   SFRSYM    DATA     BYTE      IE
      000000BBH   SFRSYM    DATA     BYTE      P_SW3
      000000BAH   SFRSYM    DATA     BYTE      P_SW2
      000000A2H   SFRSYM    DATA     BYTE      P_SW1
      000000CEH   SFRSYM    DATA     BYTE      SPCTL
      000000F8H   SFRSYM    DATA     BYTE      P7
      000000E8H   SFRSYM    DATA     BYTE      P6
      000000C8H   SFRSYM    DATA     BYTE      P5
      000000C0H   SFRSYM    DATA     BYTE      P4
      000000ABH   SFRSYM    DATA     BYTE      WKTCH
      000000B0H   SFRSYM    DATA     BYTE      P3
      000000A0H   SFRSYM    DATA     BYTE      P2
      00000090H   SFRSYM    DATA     BYTE      P1
      00000080H   SFRSYM    DATA     BYTE      P0
      R7          REGSYM    ---      BYTE      byte
      R6          REGSYM    ---      BYTE      i
      R7          REGSYM    ---      BYTE      cmd
      R15         REGSYM    ---      BYTE      val
      R7          REGSYM    ---      BYTE      cmd
      DR12        REGSYM    ---      DWORD     len
      R10         REGSYM    ---      BYTE      cmd
      REG=3       REGSYM    ---      ---       val
      R11         REGSYM    ---      BYTE      reg
      R10         REGSYM    ---      BYTE      dat
      R3          REGSYM    ---      BYTE      reg
      REG=1       REGSYM    ---      ---       dat
      DR28        REGSYM    ---      DWORD     len
      R7          REGSYM    ---      BYTE      reg
      R5          REGSYM    ---      BYTE      reg
      REG=3       REGSYM    ---      ---       dat
      R14         REGSYM    ---      BYTE      dat
      R15         REGSYM    ---      BYTE      return_state
      WR12        REGSYM    ---      WORD      timeout_count
      R15         REGSYM    ---      BYTE      return_state

      ---         MODULE    ---      ---       zf_device_imu660rb
      00010E88H   PUBLIC    XDATA    INT       imu660rb_acc_x
      00010E8AH   PUBLIC    XDATA    INT       imu660rb_acc_y
      00010E8CH   PUBLIC    XDATA    INT       imu660rb_acc_z
      00010E8EH   PUBLIC    XDATA    INT       imu660rb_gyro_x
      00010E90H   PUBLIC    XDATA    INT       imu660rb_gyro_y
      00010E92H   PUBLIC    XDATA    INT       imu660rb_gyro_z
      000000D0H   SFRSYM    DATA     BYTE      PSW
      0000009DH   SFRSYM    DATA     BYTE      IRCBAND
L251 LINKER/LOCATER V4.66.93.0                                                        10/01/2025  18:14:56  PAGE 99


      00000097H   SFRSYM    DATA     BYTE      AUXR2
      000000EFH   SFRSYM    DATA     BYTE      AUXINTIF
      000000FDH   SFRSYM    DATA     BYTE      S4CON
      000000ACH   SFRSYM    DATA     BYTE      S3CON
      0000009AH   SFRSYM    DATA     BYTE      S2CON
      000000B7H   SFRSYM    DATA     BYTE      IPH
      000000CDH   SFRSYM    DATA     BYTE      SPSTAT
      000000DDH   SFRSYM    DATA     BYTE      T4T3M
      000000C1H   SFRSYM    DATA     BYTE      WDT_CONTR
      000000DFH   SFRSYM    DATA     BYTE      IP3
      000000F4H   SFRSYM    DATA     BYTE      USBCON
      000000B5H   SFRSYM    DATA     BYTE      IP2
      000000FFH   SFRSYM    DATA     BYTE      RSTCFG
      000000C7H   SFRSYM    DATA     BYTE      IAP_CONTR
      0000008EH   SFRSYM    DATA     BYTE      AUXR
      000000AFH   SFRSYM    DATA     BYTE      IE2
      000000C0H.3 SFRSYM    DATA     BIT       P43
      000000C0H.2 SFRSYM    DATA     BIT       P42
      00000088H   SFRSYM    DATA     BYTE      TCON
      00000089H   SFRSYM    DATA     BYTE      TMOD
      000000C0H.1 SFRSYM    DATA     BIT       P41
      00000098H   SFRSYM    DATA     BYTE      SCON
      000000C0H.0 SFRSYM    DATA     BIT       P40
      00000087H   SFRSYM    DATA     BYTE      PCON
      000000BCH   SFRSYM    DATA     BYTE      ADC_CONTR
      000000D1H   SFRSYM    DATA     BYTE      PSW1
      000000E7H   SFRSYM    DATA     BYTE      CMPCR2
      000000E6H   SFRSYM    DATA     BYTE      CMPCR1
      000000DEH   SFRSYM    DATA     BYTE      ADCCFG
      000000B8H   SFRSYM    DATA     BYTE      IP
      0000008FH   SFRSYM    DATA     BYTE      INTCLKO
      000000EEH   SFRSYM    DATA     BYTE      IP3H
      000000B6H   SFRSYM    DATA     BYTE      IP2H
      000000BFH   SFRSYM    DATA     BYTE      P_SW4
      000000A8H   SFRSYM    DATA     BYTE      IE
      000000BBH   SFRSYM    DATA     BYTE      P_SW3
      000000BAH   SFRSYM    DATA     BYTE      P_SW2
      000000A2H   SFRSYM    DATA     BYTE      P_SW1
      000000CEH   SFRSYM    DATA     BYTE      SPCTL
      000000F8H   SFRSYM    DATA     BYTE      P7
      000000E8H   SFRSYM    DATA     BYTE      P6
      000000C8H   SFRSYM    DATA     BYTE      P5
      000000C0H   SFRSYM    DATA     BYTE      P4
      000000ABH   SFRSYM    DATA     BYTE      WKTCH
      000000B0H   SFRSYM    DATA     BYTE      P3
      000000A0H   SFRSYM    DATA     BYTE      P2
      00000090H   SFRSYM    DATA     BYTE      P1
      00000080H   SFRSYM    DATA     BYTE      P0
      R7          REGSYM    ---      BYTE      byte
      R6          REGSYM    ---      BYTE      i
      R7          REGSYM    ---      BYTE      cmd
      R15         REGSYM    ---      BYTE      val
      R10         REGSYM    ---      BYTE      cmd
      REG=3       REGSYM    ---      ---       val
      R10         REGSYM    ---      BYTE      cmd
      REG=3       REGSYM    ---      ---       val
      R11         REGSYM    ---      BYTE      reg
      R10         REGSYM    ---      BYTE      dat
      R7          REGSYM    ---      BYTE      reg
      R3          REGSYM    ---      BYTE      reg
      REG=1       REGSYM    ---      ---       dat
      DR28        REGSYM    ---      DWORD     len
      R14         REGSYM    ---      BYTE      dat
      R15         REGSYM    ---      BYTE      return_state
      WR12        REGSYM    ---      WORD      timeout_count
L251 LINKER/LOCATER V4.66.93.0                                                        10/01/2025  18:14:56  PAGE 100


      WR30        REGSYM    ---      INT       acc_value
      DR24        REGSYM    ---      FLOAT     acc_data
      WR30        REGSYM    ---      INT       gyro_value
      DR24        REGSYM    ---      FLOAT     gyro_data
      R15         REGSYM    ---      BYTE      return_state

      ---         MODULE    ---      ---       zf_device_imu963ra
      00010E10H   PUBLIC    XDATA    INT       imu963ra_acc_x
      00010E12H   PUBLIC    XDATA    INT       imu963ra_acc_y
      00010E14H   PUBLIC    XDATA    INT       imu963ra_acc_z
      00010E16H   PUBLIC    XDATA    INT       imu963ra_mag_x
      00010E18H   PUBLIC    XDATA    INT       imu963ra_mag_y
      00010E1AH   PUBLIC    XDATA    INT       imu963ra_mag_z
      00010E1CH   PUBLIC    XDATA    INT       imu963ra_gyro_x
      00010E1EH   PUBLIC    XDATA    INT       imu963ra_gyro_y
      00010E20H   PUBLIC    XDATA    INT       imu963ra_gyro_z
      00010E22H   PUBLIC    XDATA    ---       imu963ra_transition_factor
      000000D0H   SFRSYM    DATA     BYTE      PSW
      0000009DH   SFRSYM    DATA     BYTE      IRCBAND
      00000097H   SFRSYM    DATA     BYTE      AUXR2
      000000EFH   SFRSYM    DATA     BYTE      AUXINTIF
      000000FDH   SFRSYM    DATA     BYTE      S4CON
      000000ACH   SFRSYM    DATA     BYTE      S3CON
      0000009AH   SFRSYM    DATA     BYTE      S2CON
      000000B7H   SFRSYM    DATA     BYTE      IPH
      000000CDH   SFRSYM    DATA     BYTE      SPSTAT
      000000DDH   SFRSYM    DATA     BYTE      T4T3M
      000000C1H   SFRSYM    DATA     BYTE      WDT_CONTR
      000000DFH   SFRSYM    DATA     BYTE      IP3
      000000F4H   SFRSYM    DATA     BYTE      USBCON
      000000B5H   SFRSYM    DATA     BYTE      IP2
      000000FFH   SFRSYM    DATA     BYTE      RSTCFG
      000000C7H   SFRSYM    DATA     BYTE      IAP_CONTR
      0000008EH   SFRSYM    DATA     BYTE      AUXR
      000000AFH   SFRSYM    DATA     BYTE      IE2
      000000C0H.3 SFRSYM    DATA     BIT       P43
      000000C0H.2 SFRSYM    DATA     BIT       P42
      00000088H   SFRSYM    DATA     BYTE      TCON
      00000089H   SFRSYM    DATA     BYTE      TMOD
      000000C0H.1 SFRSYM    DATA     BIT       P41
      00000098H   SFRSYM    DATA     BYTE      SCON
      000000C0H.0 SFRSYM    DATA     BIT       P40
      00000087H   SFRSYM    DATA     BYTE      PCON
      000000BCH   SFRSYM    DATA     BYTE      ADC_CONTR
      000000D1H   SFRSYM    DATA     BYTE      PSW1
      000000E7H   SFRSYM    DATA     BYTE      CMPCR2
      000000E6H   SFRSYM    DATA     BYTE      CMPCR1
      000000DEH   SFRSYM    DATA     BYTE      ADCCFG
      000000B8H   SFRSYM    DATA     BYTE      IP
      0000008FH   SFRSYM    DATA     BYTE      INTCLKO
      000000EEH   SFRSYM    DATA     BYTE      IP3H
      000000B6H   SFRSYM    DATA     BYTE      IP2H
      000000BFH   SFRSYM    DATA     BYTE      P_SW4
      000000A8H   SFRSYM    DATA     BYTE      IE
      000000BBH   SFRSYM    DATA     BYTE      P_SW3
      000000BAH   SFRSYM    DATA     BYTE      P_SW2
      000000A2H   SFRSYM    DATA     BYTE      P_SW1
      000000CEH   SFRSYM    DATA     BYTE      SPCTL
      000000F8H   SFRSYM    DATA     BYTE      P7
      000000E8H   SFRSYM    DATA     BYTE      P6
      000000C8H   SFRSYM    DATA     BYTE      P5
      000000C0H   SFRSYM    DATA     BYTE      P4
      000000ABH   SFRSYM    DATA     BYTE      WKTCH
      000000B0H   SFRSYM    DATA     BYTE      P3
      000000A0H   SFRSYM    DATA     BYTE      P2
L251 LINKER/LOCATER V4.66.93.0                                                        10/01/2025  18:14:56  PAGE 101


      00000090H   SFRSYM    DATA     BYTE      P1
      00000080H   SFRSYM    DATA     BYTE      P0
      R7          REGSYM    ---      BYTE      byte
      R6          REGSYM    ---      BYTE      i
      R7          REGSYM    ---      BYTE      cmd
      R15         REGSYM    ---      BYTE      val
      R10         REGSYM    ---      BYTE      cmd
      REG=3       REGSYM    ---      ---       val
      R10         REGSYM    ---      BYTE      cmd
      REG=3       REGSYM    ---      ---       val
      R11         REGSYM    ---      BYTE      reg
      R10         REGSYM    ---      BYTE      dat
      R10         REGSYM    ---      BYTE      reg
      R3          REGSYM    ---      BYTE      reg
      REG=1       REGSYM    ---      ---       dat
      DR28        REGSYM    ---      DWORD     len
      R15         REGSYM    ---      BYTE      addr
      R13         REGSYM    ---      BYTE      reg
      R14         REGSYM    ---      BYTE      dat
      R12         REGSYM    ---      BYTE      return_state
      R10         REGSYM    ---      BYTE      addr
      R15         REGSYM    ---      BYTE      reg
      WR12        REGSYM    ---      WORD      timeout_count
      R10         REGSYM    ---      BYTE      addr
      R15         REGSYM    ---      BYTE      reg
      R15         REGSYM    ---      BYTE      return_state
      R14         REGSYM    ---      BYTE      dat
      WR12        REGSYM    ---      WORD      timeout_count
      R15         REGSYM    ---      BYTE      return_state
      R14         REGSYM    ---      BYTE      dat
      WR12        REGSYM    ---      WORD      timeout_count
      R11         REGSYM    ---      BYTE      temp_status
      R15         REGSYM    ---      BYTE      return_state

      ---         MODULE    ---      ---       zf_device_gps_tau1201
      0001097DH   PUBLIC    XDATA    BYTE      gps_tau1201_flag
      000109FEH   PUBLIC    XDATA    ---       gps_tau1201
      00010B32H   PUBLIC    XDATA    INT       gps_gga_state
      00010B34H   PUBLIC    XDATA    INT       gps_rmc_state
      000000D0H   SFRSYM    DATA     BYTE      PSW
      0000009DH   SFRSYM    DATA     BYTE      IRCBAND
      00000097H   SFRSYM    DATA     BYTE      AUXR2
      000000EFH   SFRSYM    DATA     BYTE      AUXINTIF
      000000FDH   SFRSYM    DATA     BYTE      S4CON
      000000ACH   SFRSYM    DATA     BYTE      S3CON
      0000009AH   SFRSYM    DATA     BYTE      S2CON
      000000B7H   SFRSYM    DATA     BYTE      IPH
      000000CDH   SFRSYM    DATA     BYTE      SPSTAT
      000000DDH   SFRSYM    DATA     BYTE      T4T3M
      000000C1H   SFRSYM    DATA     BYTE      WDT_CONTR
      000000DFH   SFRSYM    DATA     BYTE      IP3
      000000F4H   SFRSYM    DATA     BYTE      USBCON
      000000B5H   SFRSYM    DATA     BYTE      IP2
      000000FFH   SFRSYM    DATA     BYTE      RSTCFG
      000000C7H   SFRSYM    DATA     BYTE      IAP_CONTR
      0000008EH   SFRSYM    DATA     BYTE      AUXR
      000000AFH   SFRSYM    DATA     BYTE      IE2
      00000088H   SFRSYM    DATA     BYTE      TCON
      00000089H   SFRSYM    DATA     BYTE      TMOD
      00000098H   SFRSYM    DATA     BYTE      SCON
      00000087H   SFRSYM    DATA     BYTE      PCON
      000000BCH   SFRSYM    DATA     BYTE      ADC_CONTR
      000000D1H   SFRSYM    DATA     BYTE      PSW1
      000000E7H   SFRSYM    DATA     BYTE      CMPCR2
      000000E6H   SFRSYM    DATA     BYTE      CMPCR1
L251 LINKER/LOCATER V4.66.93.0                                                        10/01/2025  18:14:56  PAGE 102


      000000DEH   SFRSYM    DATA     BYTE      ADCCFG
      000000B8H   SFRSYM    DATA     BYTE      IP
      0000008FH   SFRSYM    DATA     BYTE      INTCLKO
      000000EEH   SFRSYM    DATA     BYTE      IP3H
      000000B6H   SFRSYM    DATA     BYTE      IP2H
      000000BFH   SFRSYM    DATA     BYTE      P_SW4
      000000A8H   SFRSYM    DATA     BYTE      IE
      000000BBH   SFRSYM    DATA     BYTE      P_SW3
      000000BAH   SFRSYM    DATA     BYTE      P_SW2
      000000A2H   SFRSYM    DATA     BYTE      P_SW1
      000000CEH   SFRSYM    DATA     BYTE      SPCTL
      000000F8H   SFRSYM    DATA     BYTE      P7
      000000E8H   SFRSYM    DATA     BYTE      P6
      000000C8H   SFRSYM    DATA     BYTE      P5
      000000C0H   SFRSYM    DATA     BYTE      P4
      000000ABH   SFRSYM    DATA     BYTE      WKTCH
      000000B0H   SFRSYM    DATA     BYTE      P3
      000000A0H   SFRSYM    DATA     BYTE      P2
      00000090H   SFRSYM    DATA     BYTE      P1
      00000080H   SFRSYM    DATA     BYTE      P0
      00FFC115H   SYMBOL    HCONST   ---       ?tpl?0001
      00FFC11AH   SYMBOL    HCONST   ---       ?tpl?0002
      00FFC136H   SYMBOL    HCONST   ---       ?tpl?0003
      00FFC141H   SYMBOL    HCONST   ---       ?tpl?0004
      00FFC14CH   SYMBOL    HCONST   ---       ?tpl?0005
      00FFC157H   SYMBOL    HCONST   ---       ?tpl?0006
      00FFC162H   SYMBOL    HCONST   ---       ?tpl?0007
      00FFC16DH   SYMBOL    HCONST   ---       ?tpl?0008
      00FFC178H   SYMBOL    HCONST   ---       ?tpl?0009
      00FFC183H   SYMBOL    HCONST   ---       ?tpl?000A
      00FFC18EH   SYMBOL    HCONST   ---       ?tpl?000B
      00FFC199H   SYMBOL    HCONST   ---       ?tpl?000C
      00FFC1A4H   SYMBOL    HCONST   ---       ?tpl?000D
      00010966H   SYMBOL    XDATA    ---       gps_tau1201_receiver_fifo
      0001097EH   SYMBOL    XDATA    ---       gps_gga_buffer
      00010A31H   SYMBOL    XDATA    BYTE      gps_tau1201_state
      00010A32H   SYMBOL    XDATA    ---       gps_rmc_buffer
      00010AB2H   SYMBOL    XDATA    ---       gps_tau1201_receiver_buffer
      REG=3       REGSYM    ---      ---       str
      REG=7       REGSYM    ---      ---       temp
      R7          REGSYM    ---      BYTE      len
      R10         REGSYM    ---      BYTE      len1
      REG=3       REGSYM    ---      ---       s
      REG=3       REGSYM    ---      ---       s
      REG=3       REGSYM    ---      ---       s
      REG=7       REGSYM    ---      ---       time
      R6          REGSYM    ---      BYTE      day_num
      REG=7       REGSYM    ---      ---       line
      REG=3       REGSYM    ---      ---       gps
      REG=0       REGSYM    ---      ---       line
      R15         REGSYM    ---      BYTE      state
      DR12        REGSYM    ---      DWORD     data_len

      ---         MODULE    ---      ---       zf_device_tsl1401
      00010764H   PUBLIC    XDATA    BYTE      tsl1401_finish_flag
      00010765H   PUBLIC    XDATA    ---       tsl1401_data
      000000D0H   SFRSYM    DATA     BYTE      PSW
      0000009DH   SFRSYM    DATA     BYTE      IRCBAND
      00000097H   SFRSYM    DATA     BYTE      AUXR2
      000000EFH   SFRSYM    DATA     BYTE      AUXINTIF
      000000FDH   SFRSYM    DATA     BYTE      S4CON
      000000ACH   SFRSYM    DATA     BYTE      S3CON
      0000009AH   SFRSYM    DATA     BYTE      S2CON
      000000B7H   SFRSYM    DATA     BYTE      IPH
      000000CDH   SFRSYM    DATA     BYTE      SPSTAT
L251 LINKER/LOCATER V4.66.93.0                                                        10/01/2025  18:14:56  PAGE 103


      000000DDH   SFRSYM    DATA     BYTE      T4T3M
      000000C1H   SFRSYM    DATA     BYTE      WDT_CONTR
      000000DFH   SFRSYM    DATA     BYTE      IP3
      000000F4H   SFRSYM    DATA     BYTE      USBCON
      000000B5H   SFRSYM    DATA     BYTE      IP2
      000000FFH   SFRSYM    DATA     BYTE      RSTCFG
      000000C7H   SFRSYM    DATA     BYTE      IAP_CONTR
      0000008EH   SFRSYM    DATA     BYTE      AUXR
      000000AFH   SFRSYM    DATA     BYTE      IE2
      00000088H   SFRSYM    DATA     BYTE      TCON
      00000089H   SFRSYM    DATA     BYTE      TMOD
      00000098H   SFRSYM    DATA     BYTE      SCON
      00000087H   SFRSYM    DATA     BYTE      PCON
      000000BCH   SFRSYM    DATA     BYTE      ADC_CONTR
      000000D1H   SFRSYM    DATA     BYTE      PSW1
      000000E7H   SFRSYM    DATA     BYTE      CMPCR2
      000000E6H   SFRSYM    DATA     BYTE      CMPCR1
      000000DEH   SFRSYM    DATA     BYTE      ADCCFG
      000000B8H   SFRSYM    DATA     BYTE      IP
      0000008FH   SFRSYM    DATA     BYTE      INTCLKO
      000000EEH   SFRSYM    DATA     BYTE      IP3H
      000000B6H   SFRSYM    DATA     BYTE      IP2H
      000000BFH   SFRSYM    DATA     BYTE      P_SW4
      000000A8H   SFRSYM    DATA     BYTE      IE
      000000BBH   SFRSYM    DATA     BYTE      P_SW3
      000000BAH   SFRSYM    DATA     BYTE      P_SW2
      000000A2H   SFRSYM    DATA     BYTE      P_SW1
      000000CEH   SFRSYM    DATA     BYTE      SPCTL
      000000F8H   SFRSYM    DATA     BYTE      P7
      000000E8H   SFRSYM    DATA     BYTE      P6
      000000C8H   SFRSYM    DATA     BYTE      P5
      000000C0H   SFRSYM    DATA     BYTE      P4
      000000ABH   SFRSYM    DATA     BYTE      WKTCH
      000000B0H   SFRSYM    DATA     BYTE      P3
      000000A0H   SFRSYM    DATA     BYTE      P2
      00000090H   SFRSYM    DATA     BYTE      P1
      00000080H   SFRSYM    DATA     BYTE      P0
      00010965H   SYMBOL    XDATA    BYTE      tsl1401_init_state
      R15         REGSYM    ---      BYTE      i
      WR14        REGSYM    ---      INT       uart_n
      R13         REGSYM    ---      BYTE      index
      R12         REGSYM    ---      BYTE      i

      ---         MODULE    ---      ---       seekfree_assistant
      00010B3EH   PUBLIC    XDATA    ---       seekfree_assistant_oscilloscope_data
      00010B79H   PUBLIC    XDATA    ---       seekfree_assistant_parameter_update_flag
      00010B81H   PUBLIC    XDATA    ---       seekfree_assistant_parameter
      000000D0H   SFRSYM    DATA     BYTE      PSW
      0000009DH   SFRSYM    DATA     BYTE      IRCBAND
      00000097H   SFRSYM    DATA     BYTE      AUXR2
      000000EFH   SFRSYM    DATA     BYTE      AUXINTIF
      000000FDH   SFRSYM    DATA     BYTE      S4CON
      000000ACH   SFRSYM    DATA     BYTE      S3CON
      0000009AH   SFRSYM    DATA     BYTE      S2CON
      000000B7H   SFRSYM    DATA     BYTE      IPH
      000000CDH   SFRSYM    DATA     BYTE      SPSTAT
      000000DDH   SFRSYM    DATA     BYTE      T4T3M
      000000C1H   SFRSYM    DATA     BYTE      WDT_CONTR
      000000DFH   SFRSYM    DATA     BYTE      IP3
      000000F4H   SFRSYM    DATA     BYTE      USBCON
      000000B5H   SFRSYM    DATA     BYTE      IP2
      000000FFH   SFRSYM    DATA     BYTE      RSTCFG
      000000C7H   SFRSYM    DATA     BYTE      IAP_CONTR
      0000008EH   SFRSYM    DATA     BYTE      AUXR
      000000AFH   SFRSYM    DATA     BYTE      IE2
L251 LINKER/LOCATER V4.66.93.0                                                        10/01/2025  18:14:56  PAGE 104


      00000088H   SFRSYM    DATA     BYTE      TCON
      00000089H   SFRSYM    DATA     BYTE      TMOD
      00000098H   SFRSYM    DATA     BYTE      SCON
      00000087H   SFRSYM    DATA     BYTE      PCON
      000000BCH   SFRSYM    DATA     BYTE      ADC_CONTR
      000000D1H   SFRSYM    DATA     BYTE      PSW1
      000000E7H   SFRSYM    DATA     BYTE      CMPCR2
      000000E6H   SFRSYM    DATA     BYTE      CMPCR1
      000000DEH   SFRSYM    DATA     BYTE      ADCCFG
      000000B8H   SFRSYM    DATA     BYTE      IP
      0000008FH   SFRSYM    DATA     BYTE      INTCLKO
      000000EEH   SFRSYM    DATA     BYTE      IP3H
      000000B6H   SFRSYM    DATA     BYTE      IP2H
      000000BFH   SFRSYM    DATA     BYTE      P_SW4
      000000A8H   SFRSYM    DATA     BYTE      IE
      000000BBH   SFRSYM    DATA     BYTE      P_SW3
      000000BAH   SFRSYM    DATA     BYTE      P_SW2
      000000A2H   SFRSYM    DATA     BYTE      P_SW1
      000000CEH   SFRSYM    DATA     BYTE      SPCTL
      000000F8H   SFRSYM    DATA     BYTE      P7
      000000A8H.7 SFRSYM    DATA     BIT       EA
      000000E8H   SFRSYM    DATA     BYTE      P6
      000000C8H   SFRSYM    DATA     BYTE      P5
      000000C0H   SFRSYM    DATA     BYTE      P4
      000000ABH   SFRSYM    DATA     BYTE      WKTCH
      000000B0H   SFRSYM    DATA     BYTE      P3
      000000A0H   SFRSYM    DATA     BYTE      P2
      00000090H   SFRSYM    DATA     BYTE      P1
      00000080H   SFRSYM    DATA     BYTE      P0
      00010B36H   SYMBOL    XDATA    ---       seekfree_assistant_camera_dot_data
      00010B62H   SYMBOL    XDATA    ---       seekfree_assistant_fifo
      00010BA1H   SYMBOL    XDATA    ---       seekfree_assistant_camera_buffer
      00010BEBH   SYMBOL    XDATA    ---       seekfree_assistant_camera_data
      00010BF3H   SYMBOL    XDATA    ---       seekfree_assistant_buffer
      00FFC069H   SYMBOL    HCONST   ---       ?tpl?0001
      00FFC08DH   SYMBOL    HCONST   ---       ?tpl?0002
      REG=6       REGSYM    ---      ---       buffer
      DR28        REGSYM    ---      DWORD     length
      R11         REGSYM    ---      BYTE      temp_sum
      WR12        REGSYM    ---      INT       camera_type
      R9          REGSYM    ---      BYTE      boundary_num
      WR14        REGSYM    ---      WORD      width
      WR6         REGSYM    ---      INT       camera_type
      REG=0       REGSYM    ---      ---       image_addr
      WR8         REGSYM    ---      WORD      width
      REG=7       REGSYM    ---      ---       seekfree_assistant_oscilloscope
      R15         REGSYM    ---      BYTE      packet_size
      R14         REGSYM    ---      BYTE      i
      REG=3       REGSYM    ---      ---       buffer
      WR8         REGSYM    ---      INT       boundary_type
      WR2         REGSYM    ---      WORD      dot_num
      REG=7       REGSYM    ---      ---       dot_x1
      R6          REGSYM    ---      BYTE      i
      R7          REGSYM    ---      BYTE      boundary_num
      R5          REGSYM    ---      BYTE      boundary_data_type
      R15         REGSYM    ---      BYTE      temp_sum
      WR12        REGSYM    ---      WORD      struct_len

      ---         MODULE    ---      ---       seekfree_assistant_interface
      00010EE9H   PUBLIC    XDATA    ---       seekfree_assistant_receive_callback
      00010EEBH   PUBLIC    XDATA    ---       seekfree_assistant_transfer_callback
      000000D0H   SFRSYM    DATA     BYTE      PSW
      0000009DH   SFRSYM    DATA     BYTE      IRCBAND
      00000097H   SFRSYM    DATA     BYTE      AUXR2
      000000EFH   SFRSYM    DATA     BYTE      AUXINTIF
L251 LINKER/LOCATER V4.66.93.0                                                        10/01/2025  18:14:56  PAGE 105


      000000FDH   SFRSYM    DATA     BYTE      S4CON
      000000ACH   SFRSYM    DATA     BYTE      S3CON
      0000009AH   SFRSYM    DATA     BYTE      S2CON
      000000B7H   SFRSYM    DATA     BYTE      IPH
      000000CDH   SFRSYM    DATA     BYTE      SPSTAT
      000000DDH   SFRSYM    DATA     BYTE      T4T3M
      000000C1H   SFRSYM    DATA     BYTE      WDT_CONTR
      000000DFH   SFRSYM    DATA     BYTE      IP3
      000000F4H   SFRSYM    DATA     BYTE      USBCON
      000000B5H   SFRSYM    DATA     BYTE      IP2
      000000FFH   SFRSYM    DATA     BYTE      RSTCFG
      000000C7H   SFRSYM    DATA     BYTE      IAP_CONTR
      0000008EH   SFRSYM    DATA     BYTE      AUXR
      000000AFH   SFRSYM    DATA     BYTE      IE2
      00000088H   SFRSYM    DATA     BYTE      TCON
      00000089H   SFRSYM    DATA     BYTE      TMOD
      00000098H   SFRSYM    DATA     BYTE      SCON
      00000087H   SFRSYM    DATA     BYTE      PCON
      000000BCH   SFRSYM    DATA     BYTE      ADC_CONTR
      000000D1H   SFRSYM    DATA     BYTE      PSW1
      000000E7H   SFRSYM    DATA     BYTE      CMPCR2
      000000E6H   SFRSYM    DATA     BYTE      CMPCR1
      000000DEH   SFRSYM    DATA     BYTE      ADCCFG
      000000B8H   SFRSYM    DATA     BYTE      IP
      0000008FH   SFRSYM    DATA     BYTE      INTCLKO
      000000EEH   SFRSYM    DATA     BYTE      IP3H
      000000B6H   SFRSYM    DATA     BYTE      IP2H
      000000BFH   SFRSYM    DATA     BYTE      P_SW4
      000000A8H   SFRSYM    DATA     BYTE      IE
      000000BBH   SFRSYM    DATA     BYTE      P_SW3
      000000BAH   SFRSYM    DATA     BYTE      P_SW2
      000000A2H   SFRSYM    DATA     BYTE      P_SW1
      000000CEH   SFRSYM    DATA     BYTE      SPCTL
      000000F8H   SFRSYM    DATA     BYTE      P7
      000000E8H   SFRSYM    DATA     BYTE      P6
      000000C8H   SFRSYM    DATA     BYTE      P5
      000000C0H   SFRSYM    DATA     BYTE      P4
      000000ABH   SFRSYM    DATA     BYTE      WKTCH
      000000B0H   SFRSYM    DATA     BYTE      P3
      000000A0H   SFRSYM    DATA     BYTE      P2
      00000090H   SFRSYM    DATA     BYTE      P1
      00000080H   SFRSYM    DATA     BYTE      P0
      WR6         REGSYM    ---      INT       transfer_device

      ---         MODULE    ---      ---       isr
      00FFA364H   PUBLIC    CODE     ---       TM11_IRQHandler
      00FF94D8H   PUBLIC    CODE     ---       DMA_UART1_IRQHandler
      00FF985FH   PUBLIC    CODE     ---       DMA_UART2_IRQHandler
      00FF98E8H   PUBLIC    CODE     ---       DMA_UART3_IRQHandler
      00FF9971H   PUBLIC    CODE     ---       DMA_UART4_IRQHandler
      00FFA598H   PUBLIC    CODE     ---       TM0_IRQHandler
      00FFA5D6H   PUBLIC    CODE     ---       TM1_IRQHandler
      00FFA614H   PUBLIC    CODE     ---       TM2_IRQHandler
      00FFA652H   PUBLIC    CODE     ---       TM3_IRQHandler
      00FFA690H   PUBLIC    CODE     ---       TM4_IRQHandler
      000000D0H   SFRSYM    DATA     BYTE      PSW
      0000009DH   SFRSYM    DATA     BYTE      IRCBAND
      00000097H   SFRSYM    DATA     BYTE      AUXR2
      000000EFH   SFRSYM    DATA     BYTE      AUXINTIF
      000000FDH   SFRSYM    DATA     BYTE      S4CON
      000000ACH   SFRSYM    DATA     BYTE      S3CON
      0000009AH   SFRSYM    DATA     BYTE      S2CON
      000000B7H   SFRSYM    DATA     BYTE      IPH
      000000CDH   SFRSYM    DATA     BYTE      SPSTAT
      000000DDH   SFRSYM    DATA     BYTE      T4T3M
L251 LINKER/LOCATER V4.66.93.0                                                        10/01/2025  18:14:56  PAGE 106


      000000C1H   SFRSYM    DATA     BYTE      WDT_CONTR
      000000DFH   SFRSYM    DATA     BYTE      IP3
      000000F4H   SFRSYM    DATA     BYTE      USBCON
      000000B5H   SFRSYM    DATA     BYTE      IP2
      000000FFH   SFRSYM    DATA     BYTE      RSTCFG
      000000C7H   SFRSYM    DATA     BYTE      IAP_CONTR
      0000008EH   SFRSYM    DATA     BYTE      AUXR
      000000AFH   SFRSYM    DATA     BYTE      IE2
      00000088H   SFRSYM    DATA     BYTE      TCON
      00000089H   SFRSYM    DATA     BYTE      TMOD
      00000098H   SFRSYM    DATA     BYTE      SCON
      00000087H   SFRSYM    DATA     BYTE      PCON
      000000BCH   SFRSYM    DATA     BYTE      ADC_CONTR
      000000D1H   SFRSYM    DATA     BYTE      PSW1
      000000E7H   SFRSYM    DATA     BYTE      CMPCR2
      000000E6H   SFRSYM    DATA     BYTE      CMPCR1
      000000DEH   SFRSYM    DATA     BYTE      ADCCFG
      000000B8H   SFRSYM    DATA     BYTE      IP
      0000008FH   SFRSYM    DATA     BYTE      INTCLKO
      000000EEH   SFRSYM    DATA     BYTE      IP3H
      000000B6H   SFRSYM    DATA     BYTE      IP2H
      000000BFH   SFRSYM    DATA     BYTE      P_SW4
      000000A8H   SFRSYM    DATA     BYTE      IE
      000000BBH   SFRSYM    DATA     BYTE      P_SW3
      000000BAH   SFRSYM    DATA     BYTE      P_SW2
      000000A2H   SFRSYM    DATA     BYTE      P_SW1
      000000CEH   SFRSYM    DATA     BYTE      SPCTL
      000000F8H   SFRSYM    DATA     BYTE      P7
      000000E8H   SFRSYM    DATA     BYTE      P6
      000000C8H   SFRSYM    DATA     BYTE      P5
      000000C0H   SFRSYM    DATA     BYTE      P4
      000000ABH   SFRSYM    DATA     BYTE      WKTCH
      000000B0H   SFRSYM    DATA     BYTE      P3
      000000A0H   SFRSYM    DATA     BYTE      P2
      00000090H   SFRSYM    DATA     BYTE      P1
      00000080H   SFRSYM    DATA     BYTE      P0

      00FF94D8H   BLOCK     CODE     ---       LVL=0
      00FF94ECH   BLOCK     CODE     NEAR LAB  LVL=1
      00010EF5H   SYMBOL    XDATA    BYTE      dwon_count
      ---         BLOCKEND  ---      ---       LVL=1
      00FF94D8H   LINE      CODE     ---       #40
      00FF94ECH   LINE      CODE     ---       #41
      00FF94ECH   LINE      CODE     ---       #43
      00FF94FAH   LINE      CODE     ---       #45
      00FF950AH   LINE      CODE     ---       #46
      00FF950FH   LINE      CODE     ---       #49
      00FF9516H   LINE      CODE     ---       #51
      00FF9525H   LINE      CODE     ---       #53
      00FF9528H   LINE      CODE     ---       #54
      00FF952AH   LINE      CODE     ---       #58
      00FF952FH   LINE      CODE     ---       #59
      00FF952FH   LINE      CODE     ---       #61
      00FF9539H   LINE      CODE     ---       #63
      00FF9545H   LINE      CODE     ---       #64
      00FF9545H   LINE      CODE     ---       #67
      00FF9553H   LINE      CODE     ---       #69
      00FF9563H   LINE      CODE     ---       #70
      00FF9568H   LINE      CODE     ---       #74
      ---         BLOCKEND  ---      ---       LVL=0

      00FF985FH   BLOCK     CODE     ---       LVL=0
      00FF985FH   LINE      CODE     ---       #79
      00FF9873H   LINE      CODE     ---       #82
      00FF9881H   LINE      CODE     ---       #84
L251 LINKER/LOCATER V4.66.93.0                                                        10/01/2025  18:14:56  PAGE 107


      00FF9891H   LINE      CODE     ---       #85
      00FF9898H   LINE      CODE     ---       #87
      00FF98A2H   LINE      CODE     ---       #89
      00FF98AEH   LINE      CODE     ---       #90
      00FF98AEH   LINE      CODE     ---       #93
      00FF98BCH   LINE      CODE     ---       #95
      00FF98CCH   LINE      CODE     ---       #96
      00FF98D3H   LINE      CODE     ---       #101
      ---         BLOCKEND  ---      ---       LVL=0

      00FF98E8H   BLOCK     CODE     ---       LVL=0
      00FF98E8H   LINE      CODE     ---       #104
      00FF98FCH   LINE      CODE     ---       #107
      00FF990AH   LINE      CODE     ---       #109
      00FF991AH   LINE      CODE     ---       #110
      00FF9921H   LINE      CODE     ---       #112
      00FF992BH   LINE      CODE     ---       #115
      00FF9937H   LINE      CODE     ---       #117
      00FF9937H   LINE      CODE     ---       #120
      00FF9945H   LINE      CODE     ---       #122
      00FF9955H   LINE      CODE     ---       #123
      00FF995CH   LINE      CODE     ---       #128
      ---         BLOCKEND  ---      ---       LVL=0

      00FF9971H   BLOCK     CODE     ---       LVL=0
      00FF9971H   LINE      CODE     ---       #131
      00FF9985H   LINE      CODE     ---       #134
      00FF9993H   LINE      CODE     ---       #136
      00FF99A3H   LINE      CODE     ---       #137
      00FF99AAH   LINE      CODE     ---       #139
      00FF99B4H   LINE      CODE     ---       #141
      00FF99C0H   LINE      CODE     ---       #143
      00FF99C0H   LINE      CODE     ---       #146
      00FF99CEH   LINE      CODE     ---       #148
      00FF99DEH   LINE      CODE     ---       #149
      00FF99E5H   LINE      CODE     ---       #154
      ---         BLOCKEND  ---      ---       LVL=0

      00FFA598H   BLOCK     CODE     ---       LVL=0
      00FFA598H   LINE      CODE     ---       #158
      00FFA5ACH   LINE      CODE     ---       #160
      00FFA5AFH   LINE      CODE     ---       #162
      00FFA5B9H   LINE      CODE     ---       #164
      00FFA5C1H   LINE      CODE     ---       #165
      ---         BLOCKEND  ---      ---       LVL=0

      00FFA5D6H   BLOCK     CODE     ---       LVL=0
      00FFA5D6H   LINE      CODE     ---       #167
      00FFA5EAH   LINE      CODE     ---       #169
      00FFA5EDH   LINE      CODE     ---       #171
      00FFA5F7H   LINE      CODE     ---       #173
      00FFA5FFH   LINE      CODE     ---       #174
      ---         BLOCKEND  ---      ---       LVL=0

      00FFA614H   BLOCK     CODE     ---       LVL=0
      00FFA614H   LINE      CODE     ---       #176
      00FFA628H   LINE      CODE     ---       #178
      00FFA62BH   LINE      CODE     ---       #180
      00FFA635H   LINE      CODE     ---       #182
      00FFA63DH   LINE      CODE     ---       #183
      ---         BLOCKEND  ---      ---       LVL=0

      00FFA652H   BLOCK     CODE     ---       LVL=0
      00FFA652H   LINE      CODE     ---       #185
      00FFA666H   LINE      CODE     ---       #187
L251 LINKER/LOCATER V4.66.93.0                                                        10/01/2025  18:14:56  PAGE 108


      00FFA669H   LINE      CODE     ---       #189
      00FFA673H   LINE      CODE     ---       #191
      00FFA67BH   LINE      CODE     ---       #192
      ---         BLOCKEND  ---      ---       LVL=0

      00FFA690H   BLOCK     CODE     ---       LVL=0
      00FFA690H   LINE      CODE     ---       #195
      00FFA6A4H   LINE      CODE     ---       #197
      00FFA6A7H   LINE      CODE     ---       #199
      00FFA6B1H   LINE      CODE     ---       #201
      00FFA6B9H   LINE      CODE     ---       #202
      ---         BLOCKEND  ---      ---       LVL=0

      00FFA364H   BLOCK     CODE     ---       LVL=0
      00FFA364H   LINE      CODE     ---       #205
      00FFA378H   LINE      CODE     ---       #207
      00FFA388H   LINE      CODE     ---       #209
      00FFA392H   LINE      CODE     ---       #211
      00FFA39AH   LINE      CODE     ---       #212
      ---         BLOCKEND  ---      ---       LVL=0

      ---         MODULE    ---      ---       main
      00FF0066H   PUBLIC    CODE     ---       main
      00FF01BEH   PUBLIC    CODE     ---       pit_handler0
      00FFAA48H   PUBLIC    CODE     ---       pit_handler1
      00FF7EDFH   PUBLIC    CODE     ---       _m
      00010ED3H   PUBLIC    XDATA    INT       Init_Time
      00010ED5H   PUBLIC    XDATA    INT       T4
      00010ED7H   PUBLIC    XDATA    INT       T
      00010ED9H   PUBLIC    XDATA    BYTE      PIT0_Flag
      00010EDAH   PUBLIC    XDATA    BYTE      PIT1_Flag
      000000D0H   SFRSYM    DATA     BYTE      PSW
      0000009DH   SFRSYM    DATA     BYTE      IRCBAND
      00000097H   SFRSYM    DATA     BYTE      AUXR2
      000000EFH   SFRSYM    DATA     BYTE      AUXINTIF
      000000FDH   SFRSYM    DATA     BYTE      S4CON
      000000ACH   SFRSYM    DATA     BYTE      S3CON
      0000009AH   SFRSYM    DATA     BYTE      S2CON
      000000B7H   SFRSYM    DATA     BYTE      IPH
      000000CDH   SFRSYM    DATA     BYTE      SPSTAT
      000000DDH   SFRSYM    DATA     BYTE      T4T3M
      000000C1H   SFRSYM    DATA     BYTE      WDT_CONTR
      000000DFH   SFRSYM    DATA     BYTE      IP3
      000000F4H   SFRSYM    DATA     BYTE      USBCON
      000000B5H   SFRSYM    DATA     BYTE      IP2
      000000FFH   SFRSYM    DATA     BYTE      RSTCFG
      000000C7H   SFRSYM    DATA     BYTE      IAP_CONTR
      0000008EH   SFRSYM    DATA     BYTE      AUXR
      000000AFH   SFRSYM    DATA     BYTE      IE2
      00000088H   SFRSYM    DATA     BYTE      TCON
      00000089H   SFRSYM    DATA     BYTE      TMOD
      00000098H   SFRSYM    DATA     BYTE      SCON
      00000087H   SFRSYM    DATA     BYTE      PCON
      000000BCH   SFRSYM    DATA     BYTE      ADC_CONTR
      000000D1H   SFRSYM    DATA     BYTE      PSW1
      000000E7H   SFRSYM    DATA     BYTE      CMPCR2
      000000E6H   SFRSYM    DATA     BYTE      CMPCR1
      000000DEH   SFRSYM    DATA     BYTE      ADCCFG
      000000B8H   SFRSYM    DATA     BYTE      IP
      0000008FH   SFRSYM    DATA     BYTE      INTCLKO
      000000EEH   SFRSYM    DATA     BYTE      IP3H
      000000B6H   SFRSYM    DATA     BYTE      IP2H
      000000BFH   SFRSYM    DATA     BYTE      P_SW4
      000000A8H   SFRSYM    DATA     BYTE      IE
      000000BBH   SFRSYM    DATA     BYTE      P_SW3
L251 LINKER/LOCATER V4.66.93.0                                                        10/01/2025  18:14:56  PAGE 109


      000000BAH   SFRSYM    DATA     BYTE      P_SW2
      000000A2H   SFRSYM    DATA     BYTE      P_SW1
      000000CEH   SFRSYM    DATA     BYTE      SPCTL
      000000F8H   SFRSYM    DATA     BYTE      P7
      000000A8H.7 SFRSYM    DATA     BIT       EA
      000000E8H   SFRSYM    DATA     BYTE      P6
      000000C8H   SFRSYM    DATA     BYTE      P5
      000000C0H   SFRSYM    DATA     BYTE      P4
      000000ABH   SFRSYM    DATA     BYTE      WKTCH
      000000B0H   SFRSYM    DATA     BYTE      P3
      000000A0H   SFRSYM    DATA     BYTE      P2
      00000090H   SFRSYM    DATA     BYTE      P1
      00000080H   SFRSYM    DATA     BYTE      P0

      00FF0066H   BLOCK     CODE     ---       LVL=0
      00FF0066H   LINE      CODE     ---       #11
      ---         BLOCKEND  ---      ---       LVL=0

      00FF7EDFH   BLOCK     CODE     ---       LVL=0
      00FF7EDFH   LINE      CODE     ---       #11
      00FF7EDFH   LINE      CODE     ---       #13
      00FF7EEAH   LINE      CODE     ---       #14
      00FF7EEDH   LINE      CODE     ---       #16
      00FF7EF0H   LINE      CODE     ---       #17
      00FF7EFAH   LINE      CODE     ---       #18
      00FF7F04H   LINE      CODE     ---       #20
      00FF7F04H   LINE      CODE     ---       #22
      00FF7F33H   LINE      CODE     ---       #24
      00FF7F33H   LINE      CODE     ---       #27
      00FF7F3AH   LINE      CODE     ---       #29
      00FF7F3DH   LINE      CODE     ---       #30
      00FF7F42H   LINE      CODE     ---       #31
      00FF7F42H   LINE      CODE     ---       #32
      00FF7F4BH   LINE      CODE     ---       #34
      00FF7F4DH   LINE      CODE     ---       #35
      00FF7F54H   LINE      CODE     ---       #36
      00FF7F59H   LINE      CODE     ---       #37
      00FF7F5BH   LINE      CODE     ---       #38
      00FF7F5BH   LINE      CODE     ---       #39
      00FF7F5DH   LINE      CODE     ---       #41
      00FF7F5DH   LINE      CODE     ---       #43
      00FF7F60H   LINE      CODE     ---       #44
      00FF7F62H   LINE      CODE     ---       #46
      00FF7F62H   LINE      CODE     ---       #48
      00FF7F65H   LINE      CODE     ---       #49
      00FF7F67H   LINE      CODE     ---       #51
      00FF7F67H   LINE      CODE     ---       #53
      00FF7F6AH   LINE      CODE     ---       #54
      00FF7F6CH   LINE      CODE     ---       #56
      00FF7F6CH   LINE      CODE     ---       #58
      00FF7F6FH   LINE      CODE     ---       #59
      00FF7F71H   LINE      CODE     ---       #61
      00FF7F71H   LINE      CODE     ---       #63
      00FF7F78H   LINE      CODE     ---       #65
      00FF7F7AH   LINE      CODE     ---       #66
      00FF7F7DH   LINE      CODE     ---       #67
      00FF7F82H   LINE      CODE     ---       #68
      00FF7F84H   LINE      CODE     ---       #69
      00FF7F84H   LINE      CODE     ---       #70
      00FF7F87H   LINE      CODE     ---       #71
      00FF7F89H   LINE      CODE     ---       #73
      00FF7F89H   LINE      CODE     ---       #75
      00FF7F90H   LINE      CODE     ---       #77
      00FF7F92H   LINE      CODE     ---       #78
      00FF7F95H   LINE      CODE     ---       #79
L251 LINKER/LOCATER V4.66.93.0                                                        10/01/2025  18:14:56  PAGE 110


      00FF7F9AH   LINE      CODE     ---       #80
      00FF7F9CH   LINE      CODE     ---       #81
      00FF7F9CH   LINE      CODE     ---       #82
      00FF7F9FH   LINE      CODE     ---       #83
      00FF7FA1H   LINE      CODE     ---       #85
      00FF7FA1H   LINE      CODE     ---       #87
      00FF7FA8H   LINE      CODE     ---       #89
      00FF7FABH   LINE      CODE     ---       #90
      00FF7FB0H   LINE      CODE     ---       #91
      00FF7FB0H   LINE      CODE     ---       #92
      00FF7FB2H   LINE      CODE     ---       #94
      00FF7FB2H   LINE      CODE     ---       #96
      00FF7FB9H   LINE      CODE     ---       #98
      00FF7FBCH   LINE      CODE     ---       #99
      00FF7FC1H   LINE      CODE     ---       #100
      00FF7FC3H   LINE      CODE     ---       #103
      00FF7FC6H   LINE      CODE     ---       #104
      00FF7FC6H   LINE      CODE     ---       #105
      00FF7FC6H   LINE      CODE     ---       #107
      00FF7FC6H   LINE      CODE     ---       #109
      00FF7FCCH   LINE      CODE     ---       #111
      00FF7FD1H   LINE      CODE     ---       #112
      00FF7FD4H   LINE      CODE     ---       #113
      00FF7FE4H   LINE      CODE     ---       #114
      00FF7FEAH   LINE      CODE     ---       #116
      00FF7FFBH   LINE      CODE     ---       #118
      00FF8003H   LINE      CODE     ---       #119
      00FF8006H   LINE      CODE     ---       #120
      00FF8006H   LINE      CODE     ---       #122
      00FF8006H   LINE      CODE     ---       #123
      00FF800FH   LINE      CODE     ---       #125
      00FF8014H   LINE      CODE     ---       #126
      00FF8017H   LINE      CODE     ---       #127
      00FF801DH   LINE      CODE     ---       #129
      00FF8042H   LINE      CODE     ---       #130
      00FF8042H   LINE      CODE     ---       #131
      00FF804BH   LINE      CODE     ---       #133
      00FF804EH   LINE      CODE     ---       #134
      00FF804EH   LINE      CODE     ---       #137
      ---         BLOCKEND  ---      ---       LVL=0

      00FF01BEH   BLOCK     CODE     ---       LVL=0
      00FF01BEH   LINE      CODE     ---       #139
      00FF01BEH   LINE      CODE     ---       #141
      00FF01C4H   LINE      CODE     ---       #149
      ---         BLOCKEND  ---      ---       LVL=0

      00FFAA48H   BLOCK     CODE     ---       LVL=0
      00FFAA48H   LINE      CODE     ---       #151
      00FFAA48H   LINE      CODE     ---       #153
      00FFAA4EH   LINE      CODE     ---       #154
      ---         BLOCKEND  ---      ---       LVL=0

      ---         MODULE    ---      ---       ADC_Get
      00FF92D8H   PUBLIC    CODE     ---       ADC_SampleAndFilter
      00FF9432H   PUBLIC    CODE     ---       adc_filter
      00FFA8ADH   PUBLIC    CODE     ---       ADC_GetInit
      00010D7AH   PUBLIC    XDATA    ---       raw_adc_data
      00010DA2H   PUBLIC    XDATA    ---       ADC_Num
      00010DB0H   PUBLIC    XDATA    ---       filtered_adc
      00000020H.2 PUBLIC    BIT      BIT       Battery_Init
      000000D0H   SFRSYM    DATA     BYTE      PSW
      0000009DH   SFRSYM    DATA     BYTE      IRCBAND
      00000097H   SFRSYM    DATA     BYTE      AUXR2
      000000EFH   SFRSYM    DATA     BYTE      AUXINTIF
L251 LINKER/LOCATER V4.66.93.0                                                        10/01/2025  18:14:56  PAGE 111


      000000FDH   SFRSYM    DATA     BYTE      S4CON
      000000ACH   SFRSYM    DATA     BYTE      S3CON
      0000009AH   SFRSYM    DATA     BYTE      S2CON
      000000B7H   SFRSYM    DATA     BYTE      IPH
      000000CDH   SFRSYM    DATA     BYTE      SPSTAT
      000000DDH   SFRSYM    DATA     BYTE      T4T3M
      000000C1H   SFRSYM    DATA     BYTE      WDT_CONTR
      000000DFH   SFRSYM    DATA     BYTE      IP3
      000000F4H   SFRSYM    DATA     BYTE      USBCON
      000000B5H   SFRSYM    DATA     BYTE      IP2
      000000FFH   SFRSYM    DATA     BYTE      RSTCFG
      000000C7H   SFRSYM    DATA     BYTE      IAP_CONTR
      0000008EH   SFRSYM    DATA     BYTE      AUXR
      000000AFH   SFRSYM    DATA     BYTE      IE2
      00000088H   SFRSYM    DATA     BYTE      TCON
      00000089H   SFRSYM    DATA     BYTE      TMOD
      00000098H   SFRSYM    DATA     BYTE      SCON
      00000087H   SFRSYM    DATA     BYTE      PCON
      000000BCH   SFRSYM    DATA     BYTE      ADC_CONTR
      000000D1H   SFRSYM    DATA     BYTE      PSW1
      000000E7H   SFRSYM    DATA     BYTE      CMPCR2
      000000E6H   SFRSYM    DATA     BYTE      CMPCR1
      000000DEH   SFRSYM    DATA     BYTE      ADCCFG
      000000B8H   SFRSYM    DATA     BYTE      IP
      0000008FH   SFRSYM    DATA     BYTE      INTCLKO
      000000EEH   SFRSYM    DATA     BYTE      IP3H
      000000B6H   SFRSYM    DATA     BYTE      IP2H
      000000BFH   SFRSYM    DATA     BYTE      P_SW4
      000000A8H   SFRSYM    DATA     BYTE      IE
      000000BBH   SFRSYM    DATA     BYTE      P_SW3
      000000BAH   SFRSYM    DATA     BYTE      P_SW2
      000000A2H   SFRSYM    DATA     BYTE      P_SW1
      000000CEH   SFRSYM    DATA     BYTE      SPCTL
      000000F8H   SFRSYM    DATA     BYTE      P7
      000000E8H   SFRSYM    DATA     BYTE      P6
      000000C8H   SFRSYM    DATA     BYTE      P5
      000000C0H   SFRSYM    DATA     BYTE      P4
      000000ABH   SFRSYM    DATA     BYTE      WKTCH
      000000B0H   SFRSYM    DATA     BYTE      P3
      000000A0H   SFRSYM    DATA     BYTE      P2
      00000090H   SFRSYM    DATA     BYTE      P1
      00000080H   SFRSYM    DATA     BYTE      P0

      00FFA8ADH   BLOCK     CODE     ---       LVL=0
      00FFA8ADH   LINE      CODE     ---       #7
      00FFA8ADH   LINE      CODE     ---       #9
      00FFA8B8H   LINE      CODE     ---       #10
      00FFA8C3H   LINE      CODE     ---       #11
      00FFA8CEH   LINE      CODE     ---       #12
      00FFA8D9H   LINE      CODE     ---       #17
      ---         BLOCKEND  ---      ---       LVL=0

      00FF9432H   BLOCK     CODE     ---       LVL=0
      REG=7       REGSYM    ---      ---       samples
      R15         REGSYM    ---      BYTE      count
      00FF9438H   BLOCK     CODE     NEAR LAB  LVL=1
      R14         REGSYM    ---      BYTE      i
      DR20        REGSYM    ---      DWORD     sum
      WR24        REGSYM    ---      WORD      max
      WR26        REGSYM    ---      WORD      min
      ---         BLOCKEND  ---      ---       LVL=1
      00FF9432H   LINE      CODE     ---       #20
      00FF9438H   LINE      CODE     ---       #21
      00FF9438H   LINE      CODE     ---       #23
      00FF943AH   LINE      CODE     ---       #24
L251 LINKER/LOCATER V4.66.93.0                                                        10/01/2025  18:14:56  PAGE 112


      00FF943DH   LINE      CODE     ---       #25
      00FF9440H   LINE      CODE     ---       #27
      00FF9445H   LINE      CODE     ---       #29
      00FF9449H   LINE      CODE     ---       #31
      00FF9458H   LINE      CODE     ---       #32
      00FF945EH   LINE      CODE     ---       #33
      00FF9469H   LINE      CODE     ---       #34
      00FF9469H   LINE      CODE     ---       #35
      00FF946DH   LINE      CODE     ---       #37
      00FF948BH   LINE      CODE     ---       #38
      00FF94A9H   LINE      CODE     ---       #39
      00FF94B8H   LINE      CODE     ---       #40
      00FF94BEH   LINE      CODE     ---       #41
      00FF94D5H   LINE      CODE     ---       #42
      ---         BLOCKEND  ---      ---       LVL=0

      00FF92D8H   BLOCK     CODE     ---       LVL=0
      00FF92DAH   BLOCK     CODE     NEAR LAB  LVL=1
      R14         REGSYM    ---      BYTE      sample_index
      R15         REGSYM    ---      BYTE      channel_index
      ---         BLOCKEND  ---      ---       LVL=1
      00FF92D8H   LINE      CODE     ---       #45
      00FF92DAH   LINE      CODE     ---       #46
      00FF92DAH   LINE      CODE     ---       #47
      00FF92DCH   LINE      CODE     ---       #48
      00FF92DEH   LINE      CODE     ---       #51
      00FF92E2H   LINE      CODE     ---       #53
      00FF92FDH   LINE      CODE     ---       #54
      00FF9318H   LINE      CODE     ---       #55
      00FF9333H   LINE      CODE     ---       #56
      00FF934EH   LINE      CODE     ---       #57
      00FF9355H   LINE      CODE     ---       #60
      00FF9359H   LINE      CODE     ---       #62
      00FF937FH   LINE      CODE     ---       #63
      00FF9386H   LINE      CODE     ---       #64
      ---         BLOCKEND  ---      ---       LVL=0
      WR14        REGSYM    ---      WORD      battery_adc
      WR2         REGSYM    ---      WORD      ref_adc
      WR6         REGSYM    ---      WORD      battery_v
      R13         REGSYM    ---      BYTE      i

      ---         MODULE    ---      ---       control
      00FF8782H   PUBLIC    CODE     ---       PID_Update
      00FFAA28H   PUBLIC    CODE     ---       Ser_Servo_Duty
      00FF8872H   PUBLIC    CODE     ---       Motor_Update
      00FFA178H   PUBLIC    CODE     ---       Servo_turn_pid
      00FFA6CEH   PUBLIC    CODE     ---       MotorL_SetSpeed
      00FFA70BH   PUBLIC    CODE     ---       MotorR_SetSpeed
      00010EF6H   PUBLIC    XDATA    BYTE      CAR_Mode
      000000D0H   SFRSYM    DATA     BYTE      PSW
      0000009DH   SFRSYM    DATA     BYTE      IRCBAND
      00000097H   SFRSYM    DATA     BYTE      AUXR2
      000000EFH   SFRSYM    DATA     BYTE      AUXINTIF
      000000FDH   SFRSYM    DATA     BYTE      S4CON
      000000ACH   SFRSYM    DATA     BYTE      S3CON
      0000009AH   SFRSYM    DATA     BYTE      S2CON
      000000B7H   SFRSYM    DATA     BYTE      IPH
      000000CDH   SFRSYM    DATA     BYTE      SPSTAT
      000000DDH   SFRSYM    DATA     BYTE      T4T3M
      000000C1H   SFRSYM    DATA     BYTE      WDT_CONTR
      000000DFH   SFRSYM    DATA     BYTE      IP3
      000000F4H   SFRSYM    DATA     BYTE      USBCON
      000000B5H   SFRSYM    DATA     BYTE      IP2
      000000FFH   SFRSYM    DATA     BYTE      RSTCFG
      000000C7H   SFRSYM    DATA     BYTE      IAP_CONTR
L251 LINKER/LOCATER V4.66.93.0                                                        10/01/2025  18:14:56  PAGE 113


      0000008EH   SFRSYM    DATA     BYTE      AUXR
      000000AFH   SFRSYM    DATA     BYTE      IE2
      00000088H   SFRSYM    DATA     BYTE      TCON
      00000089H   SFRSYM    DATA     BYTE      TMOD
      00000098H   SFRSYM    DATA     BYTE      SCON
      00000087H   SFRSYM    DATA     BYTE      PCON
      000000BCH   SFRSYM    DATA     BYTE      ADC_CONTR
      000000D1H   SFRSYM    DATA     BYTE      PSW1
      000000E7H   SFRSYM    DATA     BYTE      CMPCR2
      000000E6H   SFRSYM    DATA     BYTE      CMPCR1
      000000DEH   SFRSYM    DATA     BYTE      ADCCFG
      000000B8H   SFRSYM    DATA     BYTE      IP
      0000008FH   SFRSYM    DATA     BYTE      INTCLKO
      000000EEH   SFRSYM    DATA     BYTE      IP3H
      000000B6H   SFRSYM    DATA     BYTE      IP2H
      000000BFH   SFRSYM    DATA     BYTE      P_SW4
      000000A8H   SFRSYM    DATA     BYTE      IE
      000000BBH   SFRSYM    DATA     BYTE      P_SW3
      000000BAH   SFRSYM    DATA     BYTE      P_SW2
      000000A2H   SFRSYM    DATA     BYTE      P_SW1
      000000CEH   SFRSYM    DATA     BYTE      SPCTL
      000000F8H   SFRSYM    DATA     BYTE      P7
      000000E8H   SFRSYM    DATA     BYTE      P6
      000000C8H   SFRSYM    DATA     BYTE      P5
      000000C0H   SFRSYM    DATA     BYTE      P4
      000000ABH   SFRSYM    DATA     BYTE      WKTCH
      000000B0H   SFRSYM    DATA     BYTE      P3
      000000A0H   SFRSYM    DATA     BYTE      P2
      00000090H   SFRSYM    DATA     BYTE      P1
      00000080H   SFRSYM    DATA     BYTE      P0

      00FFAA28H   BLOCK     CODE     ---       LVL=0
      WR4         REGSYM    ---      INT       value
      00FFAA28H   LINE      CODE     ---       #4
      00FFAA2AH   LINE      CODE     ---       #6
      00FFAA37H   LINE      CODE     ---       #7
      ---         BLOCKEND  ---      ---       LVL=0

      00FFA178H   BLOCK     CODE     ---       LVL=0
      DR8         REGSYM    ---      FLOAT     Current
      00FFA17CH   BLOCK     CODE     NEAR LAB  LVL=1
      DR28        REGSYM    ---      FLOAT     servo_value
      DR12        REGSYM    ---      FLOAT     temp
      ---         BLOCKEND  ---      ---       LVL=1
      00FFA178H   LINE      CODE     ---       #16
      00FFA17CH   LINE      CODE     ---       #17
      00FFA17CH   LINE      CODE     ---       #19
      00FFA17EH   LINE      CODE     ---       #20
      00FFA199H   LINE      CODE     ---       #21
      00FFA1C9H   LINE      CODE     ---       #24
      00FFA1CBH   LINE      CODE     ---       #26
      ---         BLOCKEND  ---      ---       LVL=0

      00FFA6CEH   BLOCK     CODE     ---       LVL=0
      WR14        REGSYM    ---      INT       pwm
      00FFA6CEH   LINE      CODE     ---       #35
      00FFA6D2H   LINE      CODE     ---       #37
      00FFA6D8H   LINE      CODE     ---       #39
      00FFA6E5H   LINE      CODE     ---       #40
      00FFA6EEH   LINE      CODE     ---       #41
      00FFA6F0H   LINE      CODE     ---       #44
      00FFA6FFH   LINE      CODE     ---       #45
      00FFA708H   LINE      CODE     ---       #46
      00FFA708H   LINE      CODE     ---       #47
      ---         BLOCKEND  ---      ---       LVL=0
L251 LINKER/LOCATER V4.66.93.0                                                        10/01/2025  18:14:56  PAGE 114



      00FFA70BH   BLOCK     CODE     ---       LVL=0
      WR14        REGSYM    ---      INT       pwm
      00FFA70BH   LINE      CODE     ---       #54
      00FFA70FH   LINE      CODE     ---       #56
      00FFA715H   LINE      CODE     ---       #58
      00FFA722H   LINE      CODE     ---       #59
      00FFA72BH   LINE      CODE     ---       #60
      00FFA72DH   LINE      CODE     ---       #63
      00FFA73CH   LINE      CODE     ---       #64
      00FFA745H   LINE      CODE     ---       #65
      00FFA745H   LINE      CODE     ---       #66
      ---         BLOCKEND  ---      ---       LVL=0

      00FF8872H   BLOCK     CODE     ---       LVL=0
      00FF8872H   LINE      CODE     ---       #74
      00FF8872H   LINE      CODE     ---       #76
      00FF888AH   LINE      CODE     ---       #78
      00FF888AH   LINE      CODE     ---       #80
      00FF88A3H   LINE      CODE     ---       #81
      00FF88BCH   LINE      CODE     ---       #82
      00FF88BFH   LINE      CODE     ---       #83
      00FF88BFH   LINE      CODE     ---       #85
      00FF88D8H   LINE      CODE     ---       #86
      00FF88F1H   LINE      CODE     ---       #87
      00FF88F3H   LINE      CODE     ---       #88
      00FF88F3H   LINE      CODE     ---       #90
      00FF890CH   LINE      CODE     ---       #91
      00FF8925H   LINE      CODE     ---       #92
      00FF8927H   LINE      CODE     ---       #93
      00FF8927H   LINE      CODE     ---       #95
      00FF8940H   LINE      CODE     ---       #96
      00FF8959H   LINE      CODE     ---       #97
      00FF8959H   LINE      CODE     ---       #98
      00FF8959H   LINE      CODE     ---       #100
      ---         BLOCKEND  ---      ---       LVL=0

      00FF8782H   BLOCK     CODE     ---       LVL=0
      00FF8782H   LINE      CODE     ---       #101
      00FF8782H   LINE      CODE     ---       #103
      00FF879AH   LINE      CODE     ---       #105
      00FF879AH   LINE      CODE     ---       #107
      00FF87AEH   LINE      CODE     ---       #108
      00FF87BAH   LINE      CODE     ---       #109
      00FF87CEH   LINE      CODE     ---       #110
      00FF87D1H   LINE      CODE     ---       #111
      00FF87D1H   LINE      CODE     ---       #113
      00FF87E5H   LINE      CODE     ---       #114
      00FF87F1H   LINE      CODE     ---       #115
      00FF8805H   LINE      CODE     ---       #116
      00FF8807H   LINE      CODE     ---       #117
      00FF8807H   LINE      CODE     ---       #119
      00FF881BH   LINE      CODE     ---       #120
      00FF8827H   LINE      CODE     ---       #121
      00FF883BH   LINE      CODE     ---       #122
      00FF883DH   LINE      CODE     ---       #123
      00FF883DH   LINE      CODE     ---       #125
      00FF8851H   LINE      CODE     ---       #126
      00FF885DH   LINE      CODE     ---       #127
      00FF8871H   LINE      CODE     ---       #128
      00FF8871H   LINE      CODE     ---       #129
      00FF8871H   LINE      CODE     ---       #131
      ---         BLOCKEND  ---      ---       LVL=0

      ---         MODULE    ---      ---       eeprom
L251 LINKER/LOCATER V4.66.93.0                                                        10/01/2025  18:14:56  PAGE 115


      00FFA1CEH   PUBLIC    CODE     ---       eeprom_read_Num
      00FF99FAH   PUBLIC    CODE     ---       eeprom_save_Num
      000000D0H   SFRSYM    DATA     BYTE      PSW
      0000009DH   SFRSYM    DATA     BYTE      IRCBAND
      00000097H   SFRSYM    DATA     BYTE      AUXR2
      000000EFH   SFRSYM    DATA     BYTE      AUXINTIF
      000000FDH   SFRSYM    DATA     BYTE      S4CON
      000000ACH   SFRSYM    DATA     BYTE      S3CON
      0000009AH   SFRSYM    DATA     BYTE      S2CON
      000000B7H   SFRSYM    DATA     BYTE      IPH
      000000CDH   SFRSYM    DATA     BYTE      SPSTAT
      000000DDH   SFRSYM    DATA     BYTE      T4T3M
      000000C1H   SFRSYM    DATA     BYTE      WDT_CONTR
      000000DFH   SFRSYM    DATA     BYTE      IP3
      000000F4H   SFRSYM    DATA     BYTE      USBCON
      000000B5H   SFRSYM    DATA     BYTE      IP2
      000000FFH   SFRSYM    DATA     BYTE      RSTCFG
      000000C7H   SFRSYM    DATA     BYTE      IAP_CONTR
      0000008EH   SFRSYM    DATA     BYTE      AUXR
      000000AFH   SFRSYM    DATA     BYTE      IE2
      00000088H   SFRSYM    DATA     BYTE      TCON
      00000089H   SFRSYM    DATA     BYTE      TMOD
      00000098H   SFRSYM    DATA     BYTE      SCON
      00000087H   SFRSYM    DATA     BYTE      PCON
      000000BCH   SFRSYM    DATA     BYTE      ADC_CONTR
      000000D1H   SFRSYM    DATA     BYTE      PSW1
      000000E7H   SFRSYM    DATA     BYTE      CMPCR2
      000000E6H   SFRSYM    DATA     BYTE      CMPCR1
      000000DEH   SFRSYM    DATA     BYTE      ADCCFG
      000000B8H   SFRSYM    DATA     BYTE      IP
      0000008FH   SFRSYM    DATA     BYTE      INTCLKO
      000000EEH   SFRSYM    DATA     BYTE      IP3H
      000000B6H   SFRSYM    DATA     BYTE      IP2H
      000000BFH   SFRSYM    DATA     BYTE      P_SW4
      000000A8H   SFRSYM    DATA     BYTE      IE
      000000BBH   SFRSYM    DATA     BYTE      P_SW3
      000000BAH   SFRSYM    DATA     BYTE      P_SW2
      000000A2H   SFRSYM    DATA     BYTE      P_SW1
      000000CEH   SFRSYM    DATA     BYTE      SPCTL
      000000F8H   SFRSYM    DATA     BYTE      P7
      000000A8H.7 SFRSYM    DATA     BIT       EA
      000000E8H   SFRSYM    DATA     BYTE      P6
      000000C8H   SFRSYM    DATA     BYTE      P5
      000000C0H   SFRSYM    DATA     BYTE      P4
      000000ABH   SFRSYM    DATA     BYTE      WKTCH
      000000B0H   SFRSYM    DATA     BYTE      P3
      000000A0H   SFRSYM    DATA     BYTE      P2
      00000090H   SFRSYM    DATA     BYTE      P1
      00000080H   SFRSYM    DATA     BYTE      P0
      00FFB4D9H   SYMBOL    HCONST   ---       ?tpl?0001
      00FFB6D9H   SYMBOL    HCONST   ---       ?tpl?0002
      00FFB8D9H   SYMBOL    HCONST   ---       ?tpl?0003

      00FF99FAH   BLOCK     CODE     ---       LVL=0
      00FF99FCH   BLOCK     CODE     NEAR LAB  LVL=1
      0001055EH   SYMBOL    XDATA    ---       temp
      DR12        REGSYM    ---      DWORD     sector_start
      00000020H.0 SYMBOL    BIT      BIT       flag
      DR4         REGSYM    ---      DWORD     array_size
      ---         BLOCKEND  ---      ---       LVL=1
      00FF99FAH   LINE      CODE     ---       #8
      00FF99FCH   LINE      CODE     ---       #9
      00FF99FCH   LINE      CODE     ---       #10
      00FF9A13H   LINE      CODE     ---       #11
      00FF9A17H   LINE      CODE     ---       #15
L251 LINKER/LOCATER V4.66.93.0                                                        10/01/2025  18:14:56  PAGE 116


      00FF9A1BH   LINE      CODE     ---       #16
      00FF9A21H   LINE      CODE     ---       #17
      00FF9A21H   LINE      CODE     ---       #18
      00FF9A21H   LINE      CODE     ---       #21
      00FF9A25H   LINE      CODE     ---       #22
      00FF9A27H   LINE      CODE     ---       #25
      00FF9A3EH   LINE      CODE     ---       #28
      00FF9A59H   LINE      CODE     ---       #31
      00FF9A5EH   LINE      CODE     ---       #32
      00FF9A65H   LINE      CODE     ---       #35
      00FF9A7CH   LINE      CODE     ---       #38
      00FF9A80H   LINE      CODE     ---       #39
      ---         BLOCKEND  ---      ---       LVL=0

      00FFA1CEH   BLOCK     CODE     ---       LVL=0
      0001055EH   SYMBOL    XDATA    ---       temp
      DR4         REGSYM    ---      DWORD     sector_start
      00000020H.0 SYMBOL    BIT      BIT       flag
      00FFA1CEH   LINE      CODE     ---       #46
      00FFA1CEH   LINE      CODE     ---       #47
      00FFA1CEH   LINE      CODE     ---       #48
      00FFA1E5H   LINE      CODE     ---       #49
      00FFA1E9H   LINE      CODE     ---       #53
      00FFA1EDH   LINE      CODE     ---       #54
      00FFA1EFH   LINE      CODE     ---       #57
      00FFA204H   LINE      CODE     ---       #60
      00FFA21FH   LINE      CODE     ---       #63
      00FFA223H   LINE      CODE     ---       #64
      ---         BLOCKEND  ---      ---       LVL=0
      DR28        REGSYM    ---      DWORD     addr
      REG=3       REGSYM    ---      ---       float_ptr
      R10         REGSYM    ---      BYTE      i
      DR0         REGSYM    ---      DWORD     addr
      REG=2       REGSYM    ---      ---       float_ptr

      ---         MODULE    ---      ---       function
      00FFA9E4H   PUBLIC    CODE     ---       CAR_STOP
      00FF0046H   PUBLIC    CODE     ---       Servo_Init
      00FF9D86H   PUBLIC    CODE     ---       Motor_Init
      00FF4E35H   PUBLIC    CODE     ---       Show_pararm
      00FF9B0BH   PUBLIC    CODE     ---       unification
      00FF7162H   PUBLIC    CODE     ---       Turn_mode_Init
      00FF8FFAH   PUBLIC    CODE     ---       Normal_PID
      00FFAA38H   PUBLIC    CODE     ---       GO_Function
      00FF9614H   PUBLIC    CODE     ---       init_all
      00FF9225H   PUBLIC    CODE     ---       fast_sqrt
      00FFA7B9H   PUBLIC    CODE     ---       Protect
      00010DB8H   PUBLIC    XDATA    BYTE      Key_Flag
      00010DB9H   PUBLIC    XDATA    INT       T3
      00010DBBH   PUBLIC    XDATA    BYTE      Init_Fg
      00010DBCH   PUBLIC    XDATA    BYTE      ADC_Show_Flag
      00010DBDH   PUBLIC    XDATA    ---       servo_pid
      00010DE9H   PUBLIC    XDATA    INT       Set_T
      00010DEBH   PUBLIC    XDATA    FLOAT     dajiao
      00010DEFH   PUBLIC    XDATA    BYTE      Servo_Flag
      00010DF0H   PUBLIC    XDATA    INT       PRO_Set_Time
      00010556H   PUBLIC    XDATA    BYTE      ?Normal_PID?BYTE
      000000D0H   SFRSYM    DATA     BYTE      PSW
      0000009DH   SFRSYM    DATA     BYTE      IRCBAND
      00000097H   SFRSYM    DATA     BYTE      AUXR2
      000000EFH   SFRSYM    DATA     BYTE      AUXINTIF
      000000FDH   SFRSYM    DATA     BYTE      S4CON
      000000ACH   SFRSYM    DATA     BYTE      S3CON
      0000009AH   SFRSYM    DATA     BYTE      S2CON
      000000B7H   SFRSYM    DATA     BYTE      IPH
L251 LINKER/LOCATER V4.66.93.0                                                        10/01/2025  18:14:56  PAGE 117


      000000CDH   SFRSYM    DATA     BYTE      SPSTAT
      000000DDH   SFRSYM    DATA     BYTE      T4T3M
      000000C1H   SFRSYM    DATA     BYTE      WDT_CONTR
      000000DFH   SFRSYM    DATA     BYTE      IP3
      000000F4H   SFRSYM    DATA     BYTE      USBCON
      000000B5H   SFRSYM    DATA     BYTE      IP2
      000000FFH   SFRSYM    DATA     BYTE      RSTCFG
      000000C7H   SFRSYM    DATA     BYTE      IAP_CONTR
      0000008EH   SFRSYM    DATA     BYTE      AUXR
      000000AFH   SFRSYM    DATA     BYTE      IE2
      00000088H   SFRSYM    DATA     BYTE      TCON
      00000089H   SFRSYM    DATA     BYTE      TMOD
      00000098H   SFRSYM    DATA     BYTE      SCON
      00000087H   SFRSYM    DATA     BYTE      PCON
      000000BCH   SFRSYM    DATA     BYTE      ADC_CONTR
      000000D1H   SFRSYM    DATA     BYTE      PSW1
      000000E7H   SFRSYM    DATA     BYTE      CMPCR2
      000000E6H   SFRSYM    DATA     BYTE      CMPCR1
      000000B7H.3 SFRSYM    DATA     BIT       PT1H
      000000B7H.1 SFRSYM    DATA     BIT       PT0H
      000000DEH   SFRSYM    DATA     BYTE      ADCCFG
      000000B8H   SFRSYM    DATA     BYTE      IP
      0000008FH   SFRSYM    DATA     BYTE      INTCLKO
      000000EEH   SFRSYM    DATA     BYTE      IP3H
      000000B6H   SFRSYM    DATA     BYTE      IP2H
      000000BFH   SFRSYM    DATA     BYTE      P_SW4
      000000A8H   SFRSYM    DATA     BYTE      IE
      000000BBH   SFRSYM    DATA     BYTE      P_SW3
      000000BAH   SFRSYM    DATA     BYTE      P_SW2
      000000A2H   SFRSYM    DATA     BYTE      P_SW1
      000000CEH   SFRSYM    DATA     BYTE      SPCTL
      000000F8H   SFRSYM    DATA     BYTE      P7
      000000A8H.7 SFRSYM    DATA     BIT       EA
      000000E8H   SFRSYM    DATA     BYTE      P6
      000000C8H   SFRSYM    DATA     BYTE      P5
      000000C0H   SFRSYM    DATA     BYTE      P4
      000000ABH   SFRSYM    DATA     BYTE      WKTCH
      000000B0H   SFRSYM    DATA     BYTE      P3
      000000A0H   SFRSYM    DATA     BYTE      P2
      00000090H   SFRSYM    DATA     BYTE      P1
      00000080H   SFRSYM    DATA     BYTE      P0

      00FF8FFAH   BLOCK     CODE     ---       LVL=0
      REG=6       REGSYM    ---      ---       PID
      DR28        REGSYM    ---      FLOAT     NowData
      0001055EH   SYMBOL    XDATA    FLOAT     Point
      00FF8FFAH   LINE      CODE     ---       #24
      00FF8FFEH   LINE      CODE     ---       #27
      00FF900EH   LINE      CODE     ---       #28
      00FF9025H   LINE      CODE     ---       #29
      00FF9040H   LINE      CODE     ---       #30
      00FF905FH   LINE      CODE     ---       #31
      00FF906FH   LINE      CODE     ---       #32
      00FF90B5H   LINE      CODE     ---       #33
      ---         BLOCKEND  ---      ---       LVL=0

      00FF9B0BH   BLOCK     CODE     ---       LVL=0
      00FF9B0DH   BLOCK     CODE     NEAR LAB  LVL=1
      DR4         REGSYM    ---      FLOAT     error_val
      0001055EH   SYMBOL    XDATA    INT       left_1
      WR0         REGSYM    ---      INT       left_2
      WR10        REGSYM    ---      INT       right_2
      WR2         REGSYM    ---      INT       right_1
      00010560H   SYMBOL    XDATA    LONG      he
      ---         BLOCKEND  ---      ---       LVL=1
L251 LINKER/LOCATER V4.66.93.0                                                        10/01/2025  18:14:56  PAGE 118


      00FF9B0BH   LINE      CODE     ---       #39
      00FF9B0DH   LINE      CODE     ---       #40
      00FF9B0DH   LINE      CODE     ---       #50
      00FF9B19H   LINE      CODE     ---       #51
      00FF9B1FH   LINE      CODE     ---       #52
      00FF9B25H   LINE      CODE     ---       #53
      00FF9B2BH   LINE      CODE     ---       #54
      00FF9B35H   LINE      CODE     ---       #56
      00FF9B39H   LINE      CODE     ---       #57
      00FF9B39H   LINE      CODE     ---       #61
      00FF9B4FH   LINE      CODE     ---       #64
      00FF9B86H   LINE      CODE     ---       #65
      00FF9B8FH   LINE      CODE     ---       #66
      00FF9B8FH   LINE      CODE     ---       #67
      ---         BLOCKEND  ---      ---       LVL=0

      00FF9225H   BLOCK     CODE     ---       LVL=0
      DR12        REGSYM    ---      FLOAT     number
      00FF9229H   BLOCK     CODE     NEAR LAB  LVL=1
      00010564H   SYMBOL    XDATA    DWORD     i
      00010568H   SYMBOL    XDATA    FLOAT     x
      ---         BLOCKEND  ---      ---       LVL=1
      00FF9225H   LINE      CODE     ---       #69
      00FF9229H   LINE      CODE     ---       #70
      00FF9229H   LINE      CODE     ---       #72
      00FF9233H   LINE      CODE     ---       #74
      00FF9241H   LINE      CODE     ---       #76
      00FF925CH   LINE      CODE     ---       #78
      00FF9281H   LINE      CODE     ---       #80
      00FF929CH   LINE      CODE     ---       #82
      00FF92CBH   LINE      CODE     ---       #83
      00FF92D5H   LINE      CODE     ---       #84
      ---         BLOCKEND  ---      ---       LVL=0

      00FF9D86H   BLOCK     CODE     ---       LVL=0
      00FF9D86H   LINE      CODE     ---       #86
      00FF9D86H   LINE      CODE     ---       #88
      00FF9D9FH   LINE      CODE     ---       #89
      00FF9DB6H   LINE      CODE     ---       #90
      00FF9DCDH   LINE      CODE     ---       #91
      00FF9DE4H   LINE      CODE     ---       #92
      00FF9DFBH   LINE      CODE     ---       #93
      ---         BLOCKEND  ---      ---       LVL=0

      00FF0046H   BLOCK     CODE     ---       LVL=0
      00FF0046H   LINE      CODE     ---       #96
      00FF0046H   LINE      CODE     ---       #98
      00FF005FH   LINE      CODE     ---       #99
      ---         BLOCKEND  ---      ---       LVL=0

      00FFA9E4H   BLOCK     CODE     ---       LVL=0
      00FFA9E4H   LINE      CODE     ---       #100
      00FFA9E4H   LINE      CODE     ---       #102
      00FFA9E9H   LINE      CODE     ---       #103
      00FFA9EEH   LINE      CODE     ---       #104
      00FFA9F5H   LINE      CODE     ---       #105
      ---         BLOCKEND  ---      ---       LVL=0

      00FFA7B9H   BLOCK     CODE     ---       LVL=0
      00FFA7B9H   LINE      CODE     ---       #108
      00FFA7B9H   LINE      CODE     ---       #110
      00FFA7BFH   LINE      CODE     ---       #112
      00FFA7E3H   LINE      CODE     ---       #114
      00FFA7E8H   LINE      CODE     ---       #115
      00FFA7EBH   LINE      CODE     ---       #116
L251 LINKER/LOCATER V4.66.93.0                                                        10/01/2025  18:14:56  PAGE 119


      00FFA7EBH   LINE      CODE     ---       #118
      ---         BLOCKEND  ---      ---       LVL=0

      00FF9614H   BLOCK     CODE     ---       LVL=0
      00FF9614H   LINE      CODE     ---       #120
      00FF9614H   LINE      CODE     ---       #122
      00FF9616H   LINE      CODE     ---       #123
      00FF9619H   LINE      CODE     ---       #124
      00FF9620H   LINE      CODE     ---       #125
      00FF9623H   LINE      CODE     ---       #126
      00FF9626H   LINE      CODE     ---       #127
      00FF9629H   LINE      CODE     ---       #128
      00FF962CH   LINE      CODE     ---       #129
      00FF9633H   LINE      CODE     ---       #131
      00FF9636H   LINE      CODE     ---       #132
      00FF9639H   LINE      CODE     ---       #133
      00FF9640H   LINE      CODE     ---       #134
      00FF964BH   LINE      CODE     ---       #135
      00FF964EH   LINE      CODE     ---       #136
      00FF9651H   LINE      CODE     ---       #137
      00FF9658H   LINE      CODE     ---       #139
      00FF967BH   LINE      CODE     ---       #140
      00FF96A0H   LINE      CODE     ---       #141
      00FF96A7H   LINE      CODE     ---       #142
      00FF96A9H   LINE      CODE     ---       #143
      ---         BLOCKEND  ---      ---       LVL=0

      00FF7162H   BLOCK     CODE     ---       LVL=0
      00FF7162H   LINE      CODE     ---       #146
      00FF7162H   LINE      CODE     ---       #148
      00FF7164H   LINE      CODE     ---       #149
      00FF716CH   LINE      CODE     ---       #150
      00FF719BH   LINE      CODE     ---       #152
      00FF719BH   LINE      CODE     ---       #154
      00FF719EH   LINE      CODE     ---       #155
      00FF71A3H   LINE      CODE     ---       #156
      00FF71A9H   LINE      CODE     ---       #157
      00FF71AEH   LINE      CODE     ---       #158
      00FF71B5H   LINE      CODE     ---       #159
      00FF71BCH   LINE      CODE     ---       #160
      00FF71CDH   LINE      CODE     ---       #161
      00FF71D4H   LINE      CODE     ---       #162
      00FF71DBH   LINE      CODE     ---       #163
      00FF71DEH   LINE      CODE     ---       #164
      00FF71E1H   LINE      CODE     ---       #165
      00FF71E4H   LINE      CODE     ---       #166
      00FF71E7H   LINE      CODE     ---       #168
      00FF71E7H   LINE      CODE     ---       #170
      00FF71ECH   LINE      CODE     ---       #171
      00FF71F1H   LINE      CODE     ---       #172
      00FF71F7H   LINE      CODE     ---       #173
      00FF71FEH   LINE      CODE     ---       #174
      00FF7205H   LINE      CODE     ---       #175
      00FF7216H   LINE      CODE     ---       #176
      00FF721DH   LINE      CODE     ---       #177
      00FF7224H   LINE      CODE     ---       #180
      00FF7227H   LINE      CODE     ---       #181
      00FF722AH   LINE      CODE     ---       #182
      00FF722DH   LINE      CODE     ---       #184
      00FF722DH   LINE      CODE     ---       #186
      00FF7232H   LINE      CODE     ---       #187
      00FF7237H   LINE      CODE     ---       #188
      00FF723DH   LINE      CODE     ---       #189
      00FF7244H   LINE      CODE     ---       #190
      00FF724BH   LINE      CODE     ---       #191
L251 LINKER/LOCATER V4.66.93.0                                                        10/01/2025  18:14:56  PAGE 120


      00FF725CH   LINE      CODE     ---       #192
      00FF7263H   LINE      CODE     ---       #193
      00FF726AH   LINE      CODE     ---       #195
      00FF726DH   LINE      CODE     ---       #196
      00FF7270H   LINE      CODE     ---       #197
      00FF7273H   LINE      CODE     ---       #199
      00FF7273H   LINE      CODE     ---       #201
      00FF7278H   LINE      CODE     ---       #202
      00FF727DH   LINE      CODE     ---       #203
      00FF7283H   LINE      CODE     ---       #204
      00FF728AH   LINE      CODE     ---       #205
      00FF7291H   LINE      CODE     ---       #206
      00FF72A2H   LINE      CODE     ---       #207
      00FF72A9H   LINE      CODE     ---       #208
      00FF72B0H   LINE      CODE     ---       #210
      00FF72B3H   LINE      CODE     ---       #211
      00FF72B6H   LINE      CODE     ---       #212
      00FF72B9H   LINE      CODE     ---       #214
      00FF72B9H   LINE      CODE     ---       #216
      00FF72BEH   LINE      CODE     ---       #217
      00FF72C3H   LINE      CODE     ---       #218
      00FF72C9H   LINE      CODE     ---       #219
      00FF72D0H   LINE      CODE     ---       #220
      00FF72D7H   LINE      CODE     ---       #221
      00FF72E8H   LINE      CODE     ---       #222
      00FF72EFH   LINE      CODE     ---       #223
      00FF72F6H   LINE      CODE     ---       #225
      00FF72F9H   LINE      CODE     ---       #226
      00FF72FCH   LINE      CODE     ---       #227
      00FF72FFH   LINE      CODE     ---       #229
      00FF72FFH   LINE      CODE     ---       #231
      00FF7305H   LINE      CODE     ---       #232
      00FF730AH   LINE      CODE     ---       #233
      00FF7311H   LINE      CODE     ---       #234
      00FF7318H   LINE      CODE     ---       #235
      00FF7329H   LINE      CODE     ---       #236
      00FF7330H   LINE      CODE     ---       #238
      00FF7333H   LINE      CODE     ---       #240
      00FF7333H   LINE      CODE     ---       #242
      00FF7339H   LINE      CODE     ---       #243
      00FF733EH   LINE      CODE     ---       #244
      00FF7345H   LINE      CODE     ---       #245
      00FF734CH   LINE      CODE     ---       #246
      00FF735DH   LINE      CODE     ---       #247
      00FF7364H   LINE      CODE     ---       #248
      00FF7366H   LINE      CODE     ---       #250
      00FF7366H   LINE      CODE     ---       #252
      00FF736CH   LINE      CODE     ---       #253
      00FF7372H   LINE      CODE     ---       #254
      00FF7378H   LINE      CODE     ---       #255
      00FF737FH   LINE      CODE     ---       #256
      00FF7386H   LINE      CODE     ---       #257
      00FF7397H   LINE      CODE     ---       #258
      00FF739EH   LINE      CODE     ---       #259
      00FF73A5H   LINE      CODE     ---       #260
      00FF73A7H   LINE      CODE     ---       #262
      00FF73A7H   LINE      CODE     ---       #264
      00FF73ADH   LINE      CODE     ---       #265
      00FF73B2H   LINE      CODE     ---       #266
      00FF73B9H   LINE      CODE     ---       #267
      00FF73C0H   LINE      CODE     ---       #268
      00FF73D1H   LINE      CODE     ---       #269
      00FF73D8H   LINE      CODE     ---       #270
      00FF73DFH   LINE      CODE     ---       #271
      00FF73DFH   LINE      CODE     ---       #273
L251 LINKER/LOCATER V4.66.93.0                                                        10/01/2025  18:14:56  PAGE 121


      00FF73DFH   LINE      CODE     ---       #274
      00FF73E1H   LINE      CODE     ---       #275
      ---         BLOCKEND  ---      ---       LVL=0

      00FF4E35H   BLOCK     CODE     ---       LVL=0
      00FF4E35H   LINE      CODE     ---       #277
      00FF4E35H   LINE      CODE     ---       #279
      00FF4E65H   LINE      CODE     ---       #281
      00FF4E65H   LINE      CODE     ---       #282
      00FF4E65H   LINE      CODE     ---       #284
      00FF4EA5H   LINE      CODE     ---       #285
      00FF4EE5H   LINE      CODE     ---       #286
      00FF4EE8H   LINE      CODE     ---       #287
      00FF4EE8H   LINE      CODE     ---       #289
      00FF4F28H   LINE      CODE     ---       #290
      00FF4F68H   LINE      CODE     ---       #291
      00FF4FA8H   LINE      CODE     ---       #292
      00FF4FE8H   LINE      CODE     ---       #293
      00FF5025H   LINE      CODE     ---       #294
      00FF5028H   LINE      CODE     ---       #295
      00FF5028H   LINE      CODE     ---       #296
      00FF5028H   LINE      CODE     ---       #298
      00FF5068H   LINE      CODE     ---       #299
      00FF50A8H   LINE      CODE     ---       #300
      00FF50E8H   LINE      CODE     ---       #301
      00FF5128H   LINE      CODE     ---       #302
      00FF5165H   LINE      CODE     ---       #303
      00FF5168H   LINE      CODE     ---       #304
      00FF5168H   LINE      CODE     ---       #306
      00FF51A8H   LINE      CODE     ---       #307
      00FF51E8H   LINE      CODE     ---       #308
      00FF5228H   LINE      CODE     ---       #309
      00FF5268H   LINE      CODE     ---       #310
      00FF52A5H   LINE      CODE     ---       #311
      00FF52A8H   LINE      CODE     ---       #312
      00FF52A8H   LINE      CODE     ---       #314
      00FF52E8H   LINE      CODE     ---       #315
      00FF5328H   LINE      CODE     ---       #316
      00FF5368H   LINE      CODE     ---       #317
      00FF53A5H   LINE      CODE     ---       #318
      00FF53A8H   LINE      CODE     ---       #319
      00FF53A8H   LINE      CODE     ---       #321
      00FF53C6H   LINE      CODE     ---       #322
      00FF53E8H   LINE      CODE     ---       #323
      00FF540AH   LINE      CODE     ---       #324
      00FF542CH   LINE      CODE     ---       #325
      00FF542EH   LINE      CODE     ---       #326
      00FF542EH   LINE      CODE     ---       #328
      00FF545DH   LINE      CODE     ---       #329
      00FF545DH   LINE      CODE     ---       #330
      00FF545DH   LINE      CODE     ---       #332
      ---         BLOCKEND  ---      ---       LVL=0

      00FFAA38H   BLOCK     CODE     ---       LVL=0
      00FFAA38H   LINE      CODE     ---       #342
      00FFAA38H   LINE      CODE     ---       #344
      00FFAA3FH   LINE      CODE     ---       #346
      00FFAA42H   LINE      CODE     ---       #347
      00FFAA47H   LINE      CODE     ---       #348
      ---         BLOCKEND  ---      ---       LVL=0

      ---         MODULE    ---      ---       Key
      00FF8668H   PUBLIC    CODE     ---       Key_scaner
      00FF90B6H   PUBLIC    CODE     ---       Turn_mode
      00FFA4CEH   PUBLIC    CODE     ---       Key_Number
L251 LINKER/LOCATER V4.66.93.0                                                        10/01/2025  18:14:56  PAGE 122


      00010E94H   PUBLIC    XDATA    BYTE      State
      00010E95H   PUBLIC    XDATA    INT       Trigg_time
      00010E97H   PUBLIC    XDATA    INT       Press_time
      00010E99H   PUBLIC    XDATA    BYTE      Key_count
      00010E9AH   PUBLIC    XDATA    WORD      Time_dou
      00010E9CH   PUBLIC    XDATA    BYTE      keynumber
      00010E9DH   PUBLIC    XDATA    BYTE      last_keynumber
      00010E9EH   PUBLIC    XDATA    BYTE      Init_Flag
      00FFC3CDH   PUBLIC    HCONST   ---       mode_map
      000000D0H   SFRSYM    DATA     BYTE      PSW
      0000009DH   SFRSYM    DATA     BYTE      IRCBAND
      00000097H   SFRSYM    DATA     BYTE      AUXR2
      000000EFH   SFRSYM    DATA     BYTE      AUXINTIF
      000000FDH   SFRSYM    DATA     BYTE      S4CON
      000000ACH   SFRSYM    DATA     BYTE      S3CON
      0000009AH   SFRSYM    DATA     BYTE      S2CON
      000000B7H   SFRSYM    DATA     BYTE      IPH
      000000CDH   SFRSYM    DATA     BYTE      SPSTAT
      000000DDH   SFRSYM    DATA     BYTE      T4T3M
      000000C1H   SFRSYM    DATA     BYTE      WDT_CONTR
      000000DFH   SFRSYM    DATA     BYTE      IP3
      000000F4H   SFRSYM    DATA     BYTE      USBCON
      000000B5H   SFRSYM    DATA     BYTE      IP2
      000000FFH   SFRSYM    DATA     BYTE      RSTCFG
      000000C7H   SFRSYM    DATA     BYTE      IAP_CONTR
      0000008EH   SFRSYM    DATA     BYTE      AUXR
      000000AFH   SFRSYM    DATA     BYTE      IE2
      00000088H   SFRSYM    DATA     BYTE      TCON
      00000089H   SFRSYM    DATA     BYTE      TMOD
      00000098H   SFRSYM    DATA     BYTE      SCON
      00000087H   SFRSYM    DATA     BYTE      PCON
      000000BCH   SFRSYM    DATA     BYTE      ADC_CONTR
      000000D1H   SFRSYM    DATA     BYTE      PSW1
      000000E7H   SFRSYM    DATA     BYTE      CMPCR2
      000000E6H   SFRSYM    DATA     BYTE      CMPCR1
      000000DEH   SFRSYM    DATA     BYTE      ADCCFG
      000000B8H   SFRSYM    DATA     BYTE      IP
      0000008FH   SFRSYM    DATA     BYTE      INTCLKO
      000000EEH   SFRSYM    DATA     BYTE      IP3H
      000000B6H   SFRSYM    DATA     BYTE      IP2H
      000000BFH   SFRSYM    DATA     BYTE      P_SW4
      000000A8H   SFRSYM    DATA     BYTE      IE
      000000BBH   SFRSYM    DATA     BYTE      P_SW3
      000000BAH   SFRSYM    DATA     BYTE      P_SW2
      000000A2H   SFRSYM    DATA     BYTE      P_SW1
      000000CEH   SFRSYM    DATA     BYTE      SPCTL
      000000F8H   SFRSYM    DATA     BYTE      P7
      000000E8H   SFRSYM    DATA     BYTE      P6
      000000C8H   SFRSYM    DATA     BYTE      P5
      000000C0H   SFRSYM    DATA     BYTE      P4
      000000ABH   SFRSYM    DATA     BYTE      WKTCH
      000000B0H   SFRSYM    DATA     BYTE      P3
      000000A0H   SFRSYM    DATA     BYTE      P2
      00000090H   SFRSYM    DATA     BYTE      P1
      00000080H   SFRSYM    DATA     BYTE      P0

      00FFA4CEH   BLOCK     CODE     ---       LVL=0
      00FFA4D0H   BLOCK     CODE     NEAR LAB  LVL=1
      R15         REGSYM    ---      BYTE      KeyNumber
      ---         BLOCKEND  ---      ---       LVL=1
      00FFA4CEH   LINE      CODE     ---       #26
      00FFA4D0H   LINE      CODE     ---       #27
      00FFA4D0H   LINE      CODE     ---       #28
      00FFA4D2H   LINE      CODE     ---       #35
      00FFA4DEH   LINE      CODE     ---       #36
L251 LINKER/LOCATER V4.66.93.0                                                        10/01/2025  18:14:56  PAGE 123


      00FFA4EAH   LINE      CODE     ---       #37
      00FFA4F6H   LINE      CODE     ---       #38
      00FFA502H   LINE      CODE     ---       #39
      00FFA50EH   LINE      CODE     ---       #40
      00FFA510H   LINE      CODE     ---       #41
      ---         BLOCKEND  ---      ---       LVL=0

      00FF90B6H   BLOCK     CODE     ---       LVL=0
      WR8         REGSYM    ---      INT       i
      00FF90B6H   LINE      CODE     ---       #42
      00FF90B6H   LINE      CODE     ---       #43
      00FF90B6H   LINE      CODE     ---       #45
      00FF90BBH   LINE      CODE     ---       #47
      00FF90EBH   LINE      CODE     ---       #49
      00FF9122H   LINE      CODE     ---       #50
      00FF915DH   LINE      CODE     ---       #51
      00FF9163H   LINE      CODE     ---       #52
      00FF9165H   LINE      CODE     ---       #53
      00FF9165H   LINE      CODE     ---       #55
      00FF9170H   LINE      CODE     ---       #56
      ---         BLOCKEND  ---      ---       LVL=0

      00FF8668H   BLOCK     CODE     ---       LVL=0
      00FF8668H   LINE      CODE     ---       #57
      00FF8668H   LINE      CODE     ---       #59
      00FF866FH   LINE      CODE     ---       #60
      00FF8686H   LINE      CODE     ---       #62
      00FF8686H   LINE      CODE     ---       #64
      00FF868FH   LINE      CODE     ---       #66
      00FF8695H   LINE      CODE     ---       #67
      00FF869AH   LINE      CODE     ---       #68
      00FF869AH   LINE      CODE     ---       #69
      00FF869DH   LINE      CODE     ---       #71
      00FF869DH   LINE      CODE     ---       #73
      00FF86A3H   LINE      CODE     ---       #75
      00FF86A8H   LINE      CODE     ---       #76
      00FF86ABH   LINE      CODE     ---       #79
      00FF86B1H   LINE      CODE     ---       #80
      00FF86C4H   LINE      CODE     ---       #82
      00FF86CAH   LINE      CODE     ---       #83
      00FF86D2H   LINE      CODE     ---       #85
      00FF86D2H   LINE      CODE     ---       #87
      00FF86D5H   LINE      CODE     ---       #89
      00FF86D5H   LINE      CODE     ---       #91
      00FF86DBH   LINE      CODE     ---       #94
      00FF86E1H   LINE      CODE     ---       #95
      00FF86E6H   LINE      CODE     ---       #96
      00FF86EEH   LINE      CODE     ---       #97
      00FF86F1H   LINE      CODE     ---       #100
      00FF86FCH   LINE      CODE     ---       #101
      00FF8708H   LINE      CODE     ---       #103
      00FF8713H   LINE      CODE     ---       #104
      00FF871AH   LINE      CODE     ---       #106
      00FF871DH   LINE      CODE     ---       #107
      00FF8723H   LINE      CODE     ---       #108
      00FF872BH   LINE      CODE     ---       #109
      00FF8730H   LINE      CODE     ---       #110
      00FF8732H   LINE      CODE     ---       #111
      00FF873EH   LINE      CODE     ---       #113
      00FF8746H   LINE      CODE     ---       #114
      00FF874EH   LINE      CODE     ---       #116
      00FF874EH   LINE      CODE     ---       #118
      00FF874EH   LINE      CODE     ---       #119
      00FF8750H   LINE      CODE     ---       #121
      00FF8750H   LINE      CODE     ---       #123
L251 LINKER/LOCATER V4.66.93.0                                                        10/01/2025  18:14:56  PAGE 124


      00FF8756H   LINE      CODE     ---       #125
      00FF875CH   LINE      CODE     ---       #126
      00FF876CH   LINE      CODE     ---       #128
      00FF8771H   LINE      CODE     ---       #129
      00FF8779H   LINE      CODE     ---       #130
      00FF877BH   LINE      CODE     ---       #134
      00FF8781H   LINE      CODE     ---       #135
      00FF8781H   LINE      CODE     ---       #136
      00FF8781H   LINE      CODE     ---       #138
      00FF8781H   LINE      CODE     ---       #139
      ---         BLOCKEND  ---      ---       LVL=0

      ---         MODULE    ---      ---       menu
      00FF9D0FH   PUBLIC    CODE     ---       Show_bujin
      00FFA84FH   PUBLIC    CODE     ---       menu_Init
      00FFA87FH   PUBLIC    CODE     ---       menu_handle_key
      00FF8BFAH   PUBLIC    CODE     ---       handle_key1
      00FFA513H   PUBLIC    CODE     ---       handle_key2
      00FFA27AH   PUBLIC    CODE     ---       handle_key3
      00FF8E77H   PUBLIC    CODE     ---       handle_key4
      00FF00A6H   PUBLIC    CODE     ---       handle_key5
      00FF8DA7H   PUBLIC    CODE     ---       Menu_SetChildren
      00FF01AEH   PUBLIC    CODE     ---       Key3_handle1
      00FF8CD6H   PUBLIC    CODE     ---       Key3_handle2
      00FF9B92H   PUBLIC    CODE     ---       Refesh_arrow
      00FF82DEH   PUBLIC    CODE     ---       menu_display_content
      00FFA9F6H   PUBLIC    CODE     ---       show_all_menu
      00010E63H   PUBLIC    XDATA    BYTE      Show_image_mode
      00010E64H   PUBLIC    XDATA    FLOAT     bujin
      00010E68H   PUBLIC    XDATA    CHAR      mode
      00010E69H   PUBLIC    XDATA    BYTE      Key
      00010E6AH   PUBLIC    XDATA    CHAR      Start_Show_Row
      00010E6BH   PUBLIC    XDATA    CHAR      i
      00010E6CH   PUBLIC    XDATA    CHAR      j
      00010E6DH   PUBLIC    XDATA    CHAR      Key3_count
      00010E6EH   PUBLIC    XDATA    BYTE      Save_Flag
      00010E6FH   PUBLIC    XDATA    CHAR      Flag
      000000D0H   SFRSYM    DATA     BYTE      PSW
      0000009DH   SFRSYM    DATA     BYTE      IRCBAND
      00000097H   SFRSYM    DATA     BYTE      AUXR2
      000000EFH   SFRSYM    DATA     BYTE      AUXINTIF
      000000FDH   SFRSYM    DATA     BYTE      S4CON
      000000ACH   SFRSYM    DATA     BYTE      S3CON
      0000009AH   SFRSYM    DATA     BYTE      S2CON
      000000B7H   SFRSYM    DATA     BYTE      IPH
      000000CDH   SFRSYM    DATA     BYTE      SPSTAT
      000000DDH   SFRSYM    DATA     BYTE      T4T3M
      000000C1H   SFRSYM    DATA     BYTE      WDT_CONTR
      000000DFH   SFRSYM    DATA     BYTE      IP3
      000000F4H   SFRSYM    DATA     BYTE      USBCON
      000000B5H   SFRSYM    DATA     BYTE      IP2
      000000FFH   SFRSYM    DATA     BYTE      RSTCFG
      000000C7H   SFRSYM    DATA     BYTE      IAP_CONTR
      0000008EH   SFRSYM    DATA     BYTE      AUXR
      000000AFH   SFRSYM    DATA     BYTE      IE2
      00000088H   SFRSYM    DATA     BYTE      TCON
      00000089H   SFRSYM    DATA     BYTE      TMOD
      00000098H   SFRSYM    DATA     BYTE      SCON
      00000087H   SFRSYM    DATA     BYTE      PCON
      000000BCH   SFRSYM    DATA     BYTE      ADC_CONTR
      000000D1H   SFRSYM    DATA     BYTE      PSW1
      000000E7H   SFRSYM    DATA     BYTE      CMPCR2
      000000E6H   SFRSYM    DATA     BYTE      CMPCR1
      000000DEH   SFRSYM    DATA     BYTE      ADCCFG
      000000B8H   SFRSYM    DATA     BYTE      IP
L251 LINKER/LOCATER V4.66.93.0                                                        10/01/2025  18:14:56  PAGE 125


      0000008FH   SFRSYM    DATA     BYTE      INTCLKO
      000000EEH   SFRSYM    DATA     BYTE      IP3H
      000000B6H   SFRSYM    DATA     BYTE      IP2H
      000000BFH   SFRSYM    DATA     BYTE      P_SW4
      000000A8H   SFRSYM    DATA     BYTE      IE
      000000BBH   SFRSYM    DATA     BYTE      P_SW3
      000000BAH   SFRSYM    DATA     BYTE      P_SW2
      000000A2H   SFRSYM    DATA     BYTE      P_SW1
      000000CEH   SFRSYM    DATA     BYTE      SPCTL
      000000F8H   SFRSYM    DATA     BYTE      P7
      000000E8H   SFRSYM    DATA     BYTE      P6
      000000C8H   SFRSYM    DATA     BYTE      P5
      000000C0H   SFRSYM    DATA     BYTE      P4
      000000ABH   SFRSYM    DATA     BYTE      WKTCH
      000000B0H   SFRSYM    DATA     BYTE      P3
      000000A0H   SFRSYM    DATA     BYTE      P2
      00000090H   SFRSYM    DATA     BYTE      P1
      00000080H   SFRSYM    DATA     BYTE      P0

      00FF8DA7H   BLOCK     CODE     ---       LVL=0
      REG=6       REGSYM    ---      ---       parent
      REG=7       REGSYM    ---      ---       child_indices
      00FF8DA7H   LINE      CODE     ---       #19
      00FF8DABH   LINE      CODE     ---       #22
      00FF8DB2H   LINE      CODE     ---       #23
      00FF8DCAH   LINE      CODE     ---       #24
      00FF8DD9H   LINE      CODE     ---       #27
      00FF8DE0H   LINE      CODE     ---       #29
      00FF8E04H   LINE      CODE     ---       #31
      00FF8E34H   LINE      CODE     ---       #32
      00FF8E52H   LINE      CODE     ---       #33
      00FF8E76H   LINE      CODE     ---       #36
      ---         BLOCKEND  ---      ---       LVL=0

      00FF9B92H   BLOCK     CODE     ---       LVL=0
      00FF9B92H   LINE      CODE     ---       #38
      00FF9B92H   LINE      CODE     ---       #40
      00FF9B98H   LINE      CODE     ---       #42
      00FF9BA1H   LINE      CODE     ---       #44
      00FF9BC0H   LINE      CODE     ---       #45
      00FF9BC2H   LINE      CODE     ---       #48
      00FF9BD5H   LINE      CODE     ---       #49
      00FF9BD5H   LINE      CODE     ---       #50
      00FF9BD7H   LINE      CODE     ---       #53
      00FF9BE0H   LINE      CODE     ---       #55
      00FF9BFFH   LINE      CODE     ---       #56
      00FF9C01H   LINE      CODE     ---       #59
      00FF9C14H   LINE      CODE     ---       #60
      00FF9C14H   LINE      CODE     ---       #61
      00FF9C14H   LINE      CODE     ---       #62
      ---         BLOCKEND  ---      ---       LVL=0

      00FF82DEH   BLOCK     CODE     ---       LVL=0
      00FF82DEH   LINE      CODE     ---       #64
      00FF82DEH   LINE      CODE     ---       #66
      00FF82E6H   LINE      CODE     ---       #68
      00FF831BH   LINE      CODE     ---       #69
      00FF839AH   LINE      CODE     ---       #71
      00FF8400H   LINE      CODE     ---       #72
      00FF8412H   LINE      CODE     ---       #74
      ---         BLOCKEND  ---      ---       LVL=0

      00FF9D0FH   BLOCK     CODE     ---       LVL=0
      00FF9D0FH   LINE      CODE     ---       #75
      00FF9D0FH   LINE      CODE     ---       #77
L251 LINKER/LOCATER V4.66.93.0                                                        10/01/2025  18:14:56  PAGE 126


      00FF9D3BH   LINE      CODE     ---       #79
      00FF9D4EH   LINE      CODE     ---       #80
      00FF9D61H   LINE      CODE     ---       #81
      00FF9D74H   LINE      CODE     ---       #82
      00FF9D85H   LINE      CODE     ---       #83
      00FF9D85H   LINE      CODE     ---       #84
      ---         BLOCKEND  ---      ---       LVL=0

      00FFA9F6H   BLOCK     CODE     ---       LVL=0
      00FFA9F6H   LINE      CODE     ---       #86
      00FFA9F6H   LINE      CODE     ---       #88
      00FFA9FDH   LINE      CODE     ---       #89
      00FFAA00H   LINE      CODE     ---       #90
      00FFAA03H   LINE      CODE     ---       #91
      00FFAA06H   LINE      CODE     ---       #92
      ---         BLOCKEND  ---      ---       LVL=0

      00FF8BFAH   BLOCK     CODE     ---       LVL=0
      00FF8BFAH   LINE      CODE     ---       #93
      00FF8BFCH   LINE      CODE     ---       #95
      00FF8C02H   LINE      CODE     ---       #97
      00FF8C0BH   LINE      CODE     ---       #99
      00FF8C11H   LINE      CODE     ---       #100
      00FF8C11H   LINE      CODE     ---       #101
      00FF8C1AH   LINE      CODE     ---       #103
      00FF8C39H   LINE      CODE     ---       #104
      00FF8C3BH   LINE      CODE     ---       #107
      00FF8C4AH   LINE      CODE     ---       #108
      00FF8C59H   LINE      CODE     ---       #109
      00FF8C68H   LINE      CODE     ---       #110
      00FF8C6FH   LINE      CODE     ---       #111
      00FF8C72H   LINE      CODE     ---       #112
      00FF8C72H   LINE      CODE     ---       #113
      00FF8C75H   LINE      CODE     ---       #114
      00FF8C77H   LINE      CODE     ---       #115
      00FF8C7EH   LINE      CODE     ---       #117
      00FF8CC7H   LINE      CODE     ---       #118
      00FF8CCDH   LINE      CODE     ---       #119
      00FF8CD0H   LINE      CODE     ---       #120
      00FF8CD3H   LINE      CODE     ---       #121
      ---         BLOCKEND  ---      ---       LVL=0

      00FFA513H   BLOCK     CODE     ---       LVL=0
      00FFA513H   LINE      CODE     ---       #124
      00FFA513H   LINE      CODE     ---       #126
      00FFA52DH   LINE      CODE     ---       #127
      00FFA542H   LINE      CODE     ---       #129
      00FFA552H   LINE      CODE     ---       #130
      00FFA552H   LINE      CODE     ---       #131
      00FFA555H   LINE      CODE     ---       #133
      ---         BLOCKEND  ---      ---       LVL=0

      00FFA27AH   BLOCK     CODE     ---       LVL=0
      00FFA27AH   LINE      CODE     ---       #135
      00FFA27AH   LINE      CODE     ---       #137
      00FFA294H   LINE      CODE     ---       #138
      00FFA2B6H   LINE      CODE     ---       #140
      00FFA2C8H   LINE      CODE     ---       #141
      00FFA2C8H   LINE      CODE     ---       #142
      00FFA2CBH   LINE      CODE     ---       #143
      ---         BLOCKEND  ---      ---       LVL=0

      00FF8E77H   BLOCK     CODE     ---       LVL=0
      00FF8E77H   LINE      CODE     ---       #144
      00FF8E79H   LINE      CODE     ---       #146
L251 LINKER/LOCATER V4.66.93.0                                                        10/01/2025  18:14:56  PAGE 127


      00FF8E80H   LINE      CODE     ---       #148
      00FF8EC9H   LINE      CODE     ---       #149
      00FF8ECFH   LINE      CODE     ---       #150
      00FF8ED2H   LINE      CODE     ---       #151
      00FF8ED4H   LINE      CODE     ---       #152
      00FF8EDAH   LINE      CODE     ---       #154
      00FF8EE3H   LINE      CODE     ---       #156
      00FF8EE9H   LINE      CODE     ---       #157
      00FF8EE9H   LINE      CODE     ---       #158
      00FF8EF2H   LINE      CODE     ---       #160
      00FF8EFBH   LINE      CODE     ---       #161
      00FF8F00H   LINE      CODE     ---       #162
      00FF8F1DH   LINE      CODE     ---       #163
      00FF8F1FH   LINE      CODE     ---       #166
      00FF8F2EH   LINE      CODE     ---       #167
      00FF8F35H   LINE      CODE     ---       #168
      00FF8F38H   LINE      CODE     ---       #169
      00FF8F38H   LINE      CODE     ---       #170
      00FF8F3BH   LINE      CODE     ---       #171
      ---         BLOCKEND  ---      ---       LVL=0

      00FF00A6H   BLOCK     CODE     ---       LVL=0
      00FF00A6H   LINE      CODE     ---       #173
      00FF00A6H   LINE      CODE     ---       #175
      00FF00ACH   LINE      CODE     ---       #178
      00FF00B7H   LINE      CODE     ---       #180
      00FF00BCH   LINE      CODE     ---       #181
      00FF00BFH   LINE      CODE     ---       #182
      00FF00BFH   LINE      CODE     ---       #183
      00FF00BFH   LINE      CODE     ---       #184
      ---         BLOCKEND  ---      ---       LVL=0

      00FF01AEH   BLOCK     CODE     ---       LVL=0
      00FF01AEH   LINE      CODE     ---       #185
      00FF01AEH   LINE      CODE     ---       #187
      00FF01B4H   LINE      CODE     ---       #188
      00FF01B7H   LINE      CODE     ---       #189
      ---         BLOCKEND  ---      ---       LVL=0

      00FF8CD6H   BLOCK     CODE     ---       LVL=0
      00FF8CD6H   LINE      CODE     ---       #190
      00FF8CD6H   LINE      CODE     ---       #192
      00FF8CDCH   LINE      CODE     ---       #194
      00FF8CDFH   LINE      CODE     ---       #195
      00FF8CE4H   LINE      CODE     ---       #196
      00FF8CE4H   LINE      CODE     ---       #197
      00FF8D06H   LINE      CODE     ---       #199
      00FF8D2EH   LINE      CODE     ---       #200
      00FF8D34H   LINE      CODE     ---       #201
      00FF8D39H   LINE      CODE     ---       #202
      00FF8D43H   LINE      CODE     ---       #203
      00FF8D46H   LINE      CODE     ---       #204
      00FF8D48H   LINE      CODE     ---       #205
      00FF8D65H   LINE      CODE     ---       #207
      00FF8D81H   LINE      CODE     ---       #208
      00FF8D87H   LINE      CODE     ---       #209
      00FF8D8CH   LINE      CODE     ---       #210
      00FF8D96H   LINE      CODE     ---       #211
      00FF8D99H   LINE      CODE     ---       #212
      00FF8D99H   LINE      CODE     ---       #213
      00FF8DA3H   LINE      CODE     ---       #214
      00FF8DA6H   LINE      CODE     ---       #215
      ---         BLOCKEND  ---      ---       LVL=0

      00FFA87FH   BLOCK     CODE     ---       LVL=0
L251 LINKER/LOCATER V4.66.93.0                                                        10/01/2025  18:14:56  PAGE 128


      R7          REGSYM    ---      BYTE      Flag_Key
      00FFA87FH   LINE      CODE     ---       #221
      00FFA881H   LINE      CODE     ---       #224
      00FFA895H   LINE      CODE     ---       #226
      00FFA89AH   LINE      CODE     ---       #227
      00FFA89FH   LINE      CODE     ---       #228
      00FFA8A4H   LINE      CODE     ---       #229
      00FFA8A9H   LINE      CODE     ---       #230
      00FFA8ACH   LINE      CODE     ---       #231
      00FFA8ACH   LINE      CODE     ---       #232
      ---         BLOCKEND  ---      ---       LVL=0

      00FFA84FH   BLOCK     CODE     ---       LVL=0
      00FFA84FH   LINE      CODE     ---       #237
      00FFA84FH   LINE      CODE     ---       #239
      00FFA862H   LINE      CODE     ---       #240
      00FFA875H   LINE      CODE     ---       #241
      00FFA878H   LINE      CODE     ---       #242
      00FFA87BH   LINE      CODE     ---       #243
      00FFA87EH   LINE      CODE     ---       #245
      ---         BLOCKEND  ---      ---       LVL=0

      ---         MODULE    ---      ---       menu_font
      00010000H   PUBLIC    XDATA    ---       Page
      000103E8H   PUBLIC    XDATA    ---       Pin
      000103ECH   PUBLIC    XDATA    ---       Num
      0001052CH   PUBLIC    XDATA    FLOAT     ADC_1
      00010530H   PUBLIC    XDATA    FLOAT     ADC_2
      00010534H   PUBLIC    XDATA    FLOAT     ADC_3
      00010538H   PUBLIC    XDATA    FLOAT     ADC_4
      0001053CH   PUBLIC    XDATA    FLOAT     ADC_5
      00010540H   PUBLIC    XDATA    FLOAT     ADC_6
      00010544H   PUBLIC    XDATA    ---       Page0_children
      0001054FH   PUBLIC    XDATA    FLOAT     ADC_8
      00010553H   PUBLIC    XDATA    ---       Page5_children
      000000D0H   SFRSYM    DATA     BYTE      PSW
      0000009DH   SFRSYM    DATA     BYTE      IRCBAND
      00000097H   SFRSYM    DATA     BYTE      AUXR2
      000000EFH   SFRSYM    DATA     BYTE      AUXINTIF
      000000FDH   SFRSYM    DATA     BYTE      S4CON
      000000ACH   SFRSYM    DATA     BYTE      S3CON
      0000009AH   SFRSYM    DATA     BYTE      S2CON
      000000B7H   SFRSYM    DATA     BYTE      IPH
      000000CDH   SFRSYM    DATA     BYTE      SPSTAT
      000000DDH   SFRSYM    DATA     BYTE      T4T3M
      000000C1H   SFRSYM    DATA     BYTE      WDT_CONTR
      000000DFH   SFRSYM    DATA     BYTE      IP3
      000000F4H   SFRSYM    DATA     BYTE      USBCON
      000000B5H   SFRSYM    DATA     BYTE      IP2
      000000FFH   SFRSYM    DATA     BYTE      RSTCFG
      000000C7H   SFRSYM    DATA     BYTE      IAP_CONTR
      0000008EH   SFRSYM    DATA     BYTE      AUXR
      000000AFH   SFRSYM    DATA     BYTE      IE2
      00000088H   SFRSYM    DATA     BYTE      TCON
      00000089H   SFRSYM    DATA     BYTE      TMOD
      00000098H   SFRSYM    DATA     BYTE      SCON
      00000087H   SFRSYM    DATA     BYTE      PCON
      000000BCH   SFRSYM    DATA     BYTE      ADC_CONTR
      000000D1H   SFRSYM    DATA     BYTE      PSW1
      000000E7H   SFRSYM    DATA     BYTE      CMPCR2
      000000E6H   SFRSYM    DATA     BYTE      CMPCR1
      000000DEH   SFRSYM    DATA     BYTE      ADCCFG
      000000B8H   SFRSYM    DATA     BYTE      IP
      0000008FH   SFRSYM    DATA     BYTE      INTCLKO
      000000EEH   SFRSYM    DATA     BYTE      IP3H
L251 LINKER/LOCATER V4.66.93.0                                                        10/01/2025  18:14:56  PAGE 129


      000000B6H   SFRSYM    DATA     BYTE      IP2H
      000000BFH   SFRSYM    DATA     BYTE      P_SW4
      000000A8H   SFRSYM    DATA     BYTE      IE
      000000BBH   SFRSYM    DATA     BYTE      P_SW3
      000000BAH   SFRSYM    DATA     BYTE      P_SW2
      000000A2H   SFRSYM    DATA     BYTE      P_SW1
      000000CEH   SFRSYM    DATA     BYTE      SPCTL
      000000F8H   SFRSYM    DATA     BYTE      P7
      000000E8H   SFRSYM    DATA     BYTE      P6
      000000C8H   SFRSYM    DATA     BYTE      P5
      000000C0H   SFRSYM    DATA     BYTE      P4
      000000ABH   SFRSYM    DATA     BYTE      WKTCH
      000000B0H   SFRSYM    DATA     BYTE      P3
      000000A0H   SFRSYM    DATA     BYTE      P2
      00000090H   SFRSYM    DATA     BYTE      P1
      00000080H   SFRSYM    DATA     BYTE      P0

      ---         MODULE    ---      ---       Device_Test
      00FFA224H   PUBLIC    CODE     ---       Serve_Test
      00FFAA07H   PUBLIC    CODE     ---       Set_Sevo
      00FFA7ECH   PUBLIC    CODE     ---       PWM_Test
      000000D0H   SFRSYM    DATA     BYTE      PSW
      0000009DH   SFRSYM    DATA     BYTE      IRCBAND
      00000097H   SFRSYM    DATA     BYTE      AUXR2
      000000EFH   SFRSYM    DATA     BYTE      AUXINTIF
      000000FDH   SFRSYM    DATA     BYTE      S4CON
      000000ACH   SFRSYM    DATA     BYTE      S3CON
      0000009AH   SFRSYM    DATA     BYTE      S2CON
      000000B7H   SFRSYM    DATA     BYTE      IPH
      000000CDH   SFRSYM    DATA     BYTE      SPSTAT
      000000DDH   SFRSYM    DATA     BYTE      T4T3M
      000000C1H   SFRSYM    DATA     BYTE      WDT_CONTR
      000000DFH   SFRSYM    DATA     BYTE      IP3
      000000F4H   SFRSYM    DATA     BYTE      USBCON
      000000B5H   SFRSYM    DATA     BYTE      IP2
      000000FFH   SFRSYM    DATA     BYTE      RSTCFG
      000000C7H   SFRSYM    DATA     BYTE      IAP_CONTR
      0000008EH   SFRSYM    DATA     BYTE      AUXR
      000000AFH   SFRSYM    DATA     BYTE      IE2
      00000088H   SFRSYM    DATA     BYTE      TCON
      00000089H   SFRSYM    DATA     BYTE      TMOD
      00000098H   SFRSYM    DATA     BYTE      SCON
      00000087H   SFRSYM    DATA     BYTE      PCON
      000000BCH   SFRSYM    DATA     BYTE      ADC_CONTR
      000000D1H   SFRSYM    DATA     BYTE      PSW1
      000000E7H   SFRSYM    DATA     BYTE      CMPCR2
      000000E6H   SFRSYM    DATA     BYTE      CMPCR1
      000000DEH   SFRSYM    DATA     BYTE      ADCCFG
      000000B8H   SFRSYM    DATA     BYTE      IP
      0000008FH   SFRSYM    DATA     BYTE      INTCLKO
      000000EEH   SFRSYM    DATA     BYTE      IP3H
      000000B6H   SFRSYM    DATA     BYTE      IP2H
      000000BFH   SFRSYM    DATA     BYTE      P_SW4
      000000A8H   SFRSYM    DATA     BYTE      IE
      000000BBH   SFRSYM    DATA     BYTE      P_SW3
      000000BAH   SFRSYM    DATA     BYTE      P_SW2
      000000A2H   SFRSYM    DATA     BYTE      P_SW1
      000000CEH   SFRSYM    DATA     BYTE      SPCTL
      000000F8H   SFRSYM    DATA     BYTE      P7
      000000E8H   SFRSYM    DATA     BYTE      P6
      000000C8H   SFRSYM    DATA     BYTE      P5
      000000C0H   SFRSYM    DATA     BYTE      P4
      000000ABH   SFRSYM    DATA     BYTE      WKTCH
      000000B0H   SFRSYM    DATA     BYTE      P3
      000000A0H   SFRSYM    DATA     BYTE      P2
L251 LINKER/LOCATER V4.66.93.0                                                        10/01/2025  18:14:56  PAGE 130


      00000090H   SFRSYM    DATA     BYTE      P1
      00000080H   SFRSYM    DATA     BYTE      P0

      00FFA224H   BLOCK     CODE     ---       LVL=0
      00FFA226H   BLOCK     CODE     NEAR LAB  LVL=1
      R14         REGSYM    ---      BYTE      a
      R15         REGSYM    ---      BYTE      j
      ---         BLOCKEND  ---      ---       LVL=1
      00FFA224H   LINE      CODE     ---       #3
      00FFA226H   LINE      CODE     ---       #4
      00FFA226H   LINE      CODE     ---       #8
      00FFA22AH   LINE      CODE     ---       #10
      00FFA22EH   LINE      CODE     ---       #12
      00FFA237H   LINE      CODE     ---       #13
      00FFA23EH   LINE      CODE     ---       #14
      00FFA24CH   LINE      CODE     ---       #16
      00FFA250H   LINE      CODE     ---       #18
      00FFA25BH   LINE      CODE     ---       #19
      00FFA262H   LINE      CODE     ---       #20
      00FFA270H   LINE      CODE     ---       #22
      00FFA277H   LINE      CODE     ---       #23
      ---         BLOCKEND  ---      ---       LVL=0

      00FFA7ECH   BLOCK     CODE     ---       LVL=0
      00FFA7ECH   LINE      CODE     ---       #25
      00FFA7ECH   LINE      CODE     ---       #27
      00FFA805H   LINE      CODE     ---       #28
      00FFA81EH   LINE      CODE     ---       #29
      ---         BLOCKEND  ---      ---       LVL=0

      00FFAA07H   BLOCK     CODE     ---       LVL=0
      00FFAA07H   LINE      CODE     ---       #31
      00FFAA07H   LINE      CODE     ---       #33
      00FFAA17H   LINE      CODE     ---       #34
      ---         BLOCKEND  ---      ---       LVL=0

      ---         MODULE    ---      ---       oled
      00FF3940H   PUBLIC    CODE     ---       asc2_0806
      00FF3B68H   PUBLIC    CODE     ---       asc2_1608
      00FF4158H   PUBLIC    CODE     ---       Hzk
      000000D0H   SFRSYM    DATA     BYTE      PSW
      0000009DH   SFRSYM    DATA     BYTE      IRCBAND
      00000097H   SFRSYM    DATA     BYTE      AUXR2
      000000EFH   SFRSYM    DATA     BYTE      AUXINTIF
      000000FDH   SFRSYM    DATA     BYTE      S4CON
      000000ACH   SFRSYM    DATA     BYTE      S3CON
      0000009AH   SFRSYM    DATA     BYTE      S2CON
      000000B7H   SFRSYM    DATA     BYTE      IPH
      000000CDH   SFRSYM    DATA     BYTE      SPSTAT
      000000DDH   SFRSYM    DATA     BYTE      T4T3M
      000000C1H   SFRSYM    DATA     BYTE      WDT_CONTR
      000000DFH   SFRSYM    DATA     BYTE      IP3
      000000F4H   SFRSYM    DATA     BYTE      USBCON
      000000B5H   SFRSYM    DATA     BYTE      IP2
      000000FFH   SFRSYM    DATA     BYTE      RSTCFG
      000000C7H   SFRSYM    DATA     BYTE      IAP_CONTR
      0000008EH   SFRSYM    DATA     BYTE      AUXR
      000000AFH   SFRSYM    DATA     BYTE      IE2
      00000088H   SFRSYM    DATA     BYTE      TCON
      00000089H   SFRSYM    DATA     BYTE      TMOD
      00000098H   SFRSYM    DATA     BYTE      SCON
      00000087H   SFRSYM    DATA     BYTE      PCON
      000000BCH   SFRSYM    DATA     BYTE      ADC_CONTR
      000000D1H   SFRSYM    DATA     BYTE      PSW1
      000000E7H   SFRSYM    DATA     BYTE      CMPCR2
L251 LINKER/LOCATER V4.66.93.0                                                        10/01/2025  18:14:56  PAGE 131


      000000E6H   SFRSYM    DATA     BYTE      CMPCR1
      000000DEH   SFRSYM    DATA     BYTE      ADCCFG
      000000B8H   SFRSYM    DATA     BYTE      IP
      0000008FH   SFRSYM    DATA     BYTE      INTCLKO
      000000EEH   SFRSYM    DATA     BYTE      IP3H
      000000B6H   SFRSYM    DATA     BYTE      IP2H
      000000BFH   SFRSYM    DATA     BYTE      P_SW4
      000000A8H   SFRSYM    DATA     BYTE      IE
      000000BBH   SFRSYM    DATA     BYTE      P_SW3
      000000BAH   SFRSYM    DATA     BYTE      P_SW2
      000000A2H   SFRSYM    DATA     BYTE      P_SW1
      000000CEH   SFRSYM    DATA     BYTE      SPCTL
      000000F8H   SFRSYM    DATA     BYTE      P7
      000000E8H   SFRSYM    DATA     BYTE      P6
      000000C8H   SFRSYM    DATA     BYTE      P5
      000000C0H   SFRSYM    DATA     BYTE      P4
      000000ABH   SFRSYM    DATA     BYTE      WKTCH
      000000B0H   SFRSYM    DATA     BYTE      P3
      000000A0H   SFRSYM    DATA     BYTE      P2
      00000090H   SFRSYM    DATA     BYTE      P1
      00000080H   SFRSYM    DATA     BYTE      P0
      WR2         REGSYM    ---      WORD      ms
      WR0         REGSYM    ---      WORD      a
      R15         REGSYM    ---      BYTE      i
      R15         REGSYM    ---      BYTE      i
      R15         REGSYM    ---      BYTE      dat
      R10         REGSYM    ---      BYTE      cmd
      R14         REGSYM    ---      BYTE      i
      R15         REGSYM    ---      BYTE      x
      R10         REGSYM    ---      BYTE      y
      R15         REGSYM    ---      BYTE      i
      R14         REGSYM    ---      BYTE      n
      R13         REGSYM    ---      BYTE      x
      R14         REGSYM    ---      BYTE      y
      R3          REGSYM    ---      BYTE      chr
      R15         REGSYM    ---      BYTE      sizey
      R12         REGSYM    ---      BYTE      facial
      R3          REGSYM    ---      BYTE      m
      R10         REGSYM    ---      BYTE      n
      WR6         REGSYM    ---      WORD      result
      WR14        REGSYM    ---      WORD      num
      R12         REGSYM    ---      BYTE      len
      R13         REGSYM    ---      BYTE      sizey
      REG=3       REGSYM    ---      ---       chr
      R12         REGSYM    ---      BYTE      x
      R13         REGSYM    ---      BYTE      y
      R14         REGSYM    ---      BYTE      no
      R15         REGSYM    ---      BYTE      sizey

      ---         MODULE    ---      ---       Strategy
      00010EA9H   PUBLIC    XDATA    INT       loss_Time
      00010EABH   PUBLIC    XDATA    FLOAT     uni
      00010EAFH   PUBLIC    XDATA    FLOAT     last_uni
      000000D0H   SFRSYM    DATA     BYTE      PSW
      0000009DH   SFRSYM    DATA     BYTE      IRCBAND
      00000097H   SFRSYM    DATA     BYTE      AUXR2
      000000EFH   SFRSYM    DATA     BYTE      AUXINTIF
      000000FDH   SFRSYM    DATA     BYTE      S4CON
      000000ACH   SFRSYM    DATA     BYTE      S3CON
      0000009AH   SFRSYM    DATA     BYTE      S2CON
      000000B7H   SFRSYM    DATA     BYTE      IPH
      000000CDH   SFRSYM    DATA     BYTE      SPSTAT
      000000DDH   SFRSYM    DATA     BYTE      T4T3M
      000000C1H   SFRSYM    DATA     BYTE      WDT_CONTR
      000000DFH   SFRSYM    DATA     BYTE      IP3
L251 LINKER/LOCATER V4.66.93.0                                                        10/01/2025  18:14:56  PAGE 132


      000000F4H   SFRSYM    DATA     BYTE      USBCON
      000000B5H   SFRSYM    DATA     BYTE      IP2
      000000FFH   SFRSYM    DATA     BYTE      RSTCFG
      000000C7H   SFRSYM    DATA     BYTE      IAP_CONTR
      0000008EH   SFRSYM    DATA     BYTE      AUXR
      000000AFH   SFRSYM    DATA     BYTE      IE2
      00000088H   SFRSYM    DATA     BYTE      TCON
      00000089H   SFRSYM    DATA     BYTE      TMOD
      00000098H   SFRSYM    DATA     BYTE      SCON
      00000087H   SFRSYM    DATA     BYTE      PCON
      000000BCH   SFRSYM    DATA     BYTE      ADC_CONTR
      000000D1H   SFRSYM    DATA     BYTE      PSW1
      000000E7H   SFRSYM    DATA     BYTE      CMPCR2
      000000E6H   SFRSYM    DATA     BYTE      CMPCR1
      000000DEH   SFRSYM    DATA     BYTE      ADCCFG
      000000B8H   SFRSYM    DATA     BYTE      IP
      0000008FH   SFRSYM    DATA     BYTE      INTCLKO
      000000EEH   SFRSYM    DATA     BYTE      IP3H
      000000B6H   SFRSYM    DATA     BYTE      IP2H
      000000BFH   SFRSYM    DATA     BYTE      P_SW4
      000000A8H   SFRSYM    DATA     BYTE      IE
      000000BBH   SFRSYM    DATA     BYTE      P_SW3
      000000BAH   SFRSYM    DATA     BYTE      P_SW2
      000000A2H   SFRSYM    DATA     BYTE      P_SW1
      000000CEH   SFRSYM    DATA     BYTE      SPCTL
      000000F8H   SFRSYM    DATA     BYTE      P7
      000000E8H   SFRSYM    DATA     BYTE      P6
      000000C8H   SFRSYM    DATA     BYTE      P5
      000000C0H   SFRSYM    DATA     BYTE      P4
      000000ABH   SFRSYM    DATA     BYTE      WKTCH
      000000B0H   SFRSYM    DATA     BYTE      P3
      000000A0H   SFRSYM    DATA     BYTE      P2
      00000090H   SFRSYM    DATA     BYTE      P1
      00000080H   SFRSYM    DATA     BYTE      P0

      ---         MODULE    ---      ---       ?C?DPADD
      00FF2225H   PUBLIC    CODE     ---       ?C?DPADD
      00FF2221H   PUBLIC    CODE     ---       ?C?DPSUB

      ---         MODULE    ---      ---       ?C?DPMUL
      00FF2334H   PUBLIC    CODE     ---       ?C?DPMUL

      ---         MODULE    ---      ---       ?C?DPDIV
      00FF2444H   PUBLIC    CODE     ---       ?C?DPDIV

      ---         MODULE    ---      ---       ?C?DPCMP
      00FF24E5H   PUBLIC    CODE     ---       ?C?DPCMP
      00FF24E3H   PUBLIC    CODE     ---       ?C?DPCMP3

      ---         MODULE    ---      ---       ?C?DPNEG
      00FF2544H   PUBLIC    CODE     ---       ?C?DPNEG

      ---         MODULE    ---      ---       ?C?DCAST
      00FF255CH   PUBLIC    CODE     NEAR LAB  ?C?DCASTC
      00FF2557H   PUBLIC    CODE     NEAR LAB  ?C?DCASTI
      00FF2552H   PUBLIC    CODE     NEAR LAB  ?C?DCASTL

      ---         MODULE    ---      ---       ?C?CASTD
      00FF259FH   PUBLIC    CODE     NEAR LAB  ?C?CASTD

      ---         MODULE    ---      ---       ?C?DCASTF
      00FF25FFH   PUBLIC    CODE     NEAR LAB  ?C?DCASTF

      ---         MODULE    ---      ---       ?C?FCASTD
      00FF2641H   PUBLIC    CODE     NEAR LAB  ?C?FCASTD
L251 LINKER/LOCATER V4.66.93.0                                                        10/01/2025  18:14:56  PAGE 133



      ---         MODULE    ---      ---       PRINTF
      000105D5H   PUBLIC    XDATA    ---       ?PRINTF?BYTE
      00FF2678H   PUBLIC    CODE     NEAR LAB  PRINTF

      ---         MODULE    ---      ---       SPRINTF
      00010586H   PUBLIC    XDATA    ---       ?SPRINTF?BYTE
      00FF26A4H   PUBLIC    CODE     NEAR LAB  SPRINTF

      ---         MODULE    ---      ---       SQRT?_
      00FF26CAH   PUBLIC    CODE     ---       SQRT?_

      ---         MODULE    ---      ---       pow

      ---         MODULE    ---      ---       SIN?_
      00FF2818H   PUBLIC    CODE     ---       COS?_
      00FF2839H   PUBLIC    CODE     ---       SIN?_
      00FF286EH   PUBLIC    CODE     ---       TAN?_

      ---         MODULE    ---      ---       ATAN?_
      00FF29B0H   PUBLIC    CODE     ---       ATAN?_

      ---         MODULE    ---      ---       ASIN?_
      00FF2ACBH   PUBLIC    CODE     ---       ASIN?_

      ---         MODULE    ---      ---       ?C?DPGETOPN
      00FF2AF5H   PUBLIC    CODE     ---       ?C?DPGETOPN2
      00FF2B40H   PUBLIC    CODE     ---       ?C?DPNANRESULT
      00FF2B4CH   PUBLIC    CODE     ---       ?C?DPOVERFLOW
      00FF2B18H   PUBLIC    CODE     ---       ?C?DPRESULT
      00FF2B31H   PUBLIC    CODE     ---       ?C?DPRESULT2
      00FF2B47H   PUBLIC    CODE     ---       ?C?DPUNDERFLOW

      ---         MODULE    ---      ---       _CHKDOUBLE_?_
      00FF2B5AH   PUBLIC    CODE     ---       _CHKDOUBLE_?_

      ---         MODULE    ---      ---       ?C?PRNFMT
      00FF2BA5H   PUBLIC    CODE     ---       ?C?PRNFMT

      ---         MODULE    ---      ---       ?C?DPSERIES
      00FF2FD3H   PUBLIC    CODE     ---       ?C?DP2SERIES
      00FF2FDEH   PUBLIC    CODE     ---       ?C?DPSERIES

      ---         MODULE    ---      ---       EXP?_
      00FF30BAH   PUBLIC    CODE     ---       EXP?_

      ---         MODULE    ---      ---       LOG?_
      00FF31A3H   PUBLIC    CODE     NEAR LAB  LOG?_

      ---         MODULE    ---      ---       ?C?DPCONVERT
      00FF32BEH   PUBLIC    CODE     ---       ?C?DPCONVERT
      00FF33E5H   PUBLIC    CODE     ---       ?C?DPROUND

      ---         MODULE    ---      ---       ?C?DTNPWR
      00FF34C0H   PUBLIC    CODE     ---       ?C?DTNPWR

      ---         MODULE    ---      ---       ?C?FPGETOPN
      00FF3546H   PUBLIC    CODE     ---       ?C?FPGETOPN2
      00FF3583H   PUBLIC    CODE     ---       ?C?FPNANRESULT
      00FF358BH   PUBLIC    CODE     ---       ?C?FPOVERFLOW
      00FF355FH   PUBLIC    CODE     ---       ?C?FPRESULT
      00FF3575H   PUBLIC    CODE     ---       ?C?FPRESULT2
      00FF3588H   PUBLIC    CODE     ---       ?C?FPUNDERFLOW

      ---         MODULE    ---      ---       ?C?FPADD
L251 LINKER/LOCATER V4.66.93.0                                                        10/01/2025  18:14:56  PAGE 134


      00FF359DH   PUBLIC    CODE     ---       ?C?FPADD
      00FF359AH   PUBLIC    CODE     ---       ?C?FPSUB

      ---         MODULE    ---      ---       ?C?FPMUL
      00FF3655H   PUBLIC    CODE     ---       ?C?FPMUL

      ---         MODULE    ---      ---       ?C?FPDIV
      00FF36F5H   PUBLIC    CODE     ---       ?C?FPDIV

      ---         MODULE    ---      ---       ?C?FPCMP
      00FF3778H   PUBLIC    CODE     ---       ?C?FPCMP
      00FF3776H   PUBLIC    CODE     ---       ?C?FPCMP3

      ---         MODULE    ---      ---       ?C?FPNEG
      00FF37BCH   PUBLIC    CODE     ---       ?C?FPNEG

      ---         MODULE    ---      ---       ?C?FCAST
      00FF37D4H   PUBLIC    CODE     NEAR LAB  ?C?FCASTC
      00FF37CFH   PUBLIC    CODE     NEAR LAB  ?C?FCASTI
      00FF37CAH   PUBLIC    CODE     NEAR LAB  ?C?FCASTL

      ---         MODULE    ---      ---       ?C?CASTF
      00FF3807H   PUBLIC    CODE     NEAR LAB  ?C?CASTF

      ---         MODULE    ---      ---       ?C?INITHDATA
      00FFA0EDH   PUBLIC    CODE     ---       ?C?INITHDATA

      ---         MODULE    ---      ---       ?C?SIDIV
      00FF3844H   PUBLIC    CODE     ---       ?C?SIDIV

      ---         MODULE    ---      ---       ?C?LMUL
      00FF3876H   PUBLIC    CODE     ---       ?C?LMUL

      ---         MODULE    ---      ---       ?C?LIMUL
      00FF3887H   PUBLIC    CODE     ---       ?C?LIMUL

      ---         MODULE    ---      ---       ?C?ULDIV
      00FF3892H   PUBLIC    CODE     NEAR LAB  ?C?ULDIV
      00FF3890H   PUBLIC    CODE     NEAR LAB  ?C?ULIDIV

      ---         MODULE    ---      ---       ?C?SLDIV
      00FF38E3H   PUBLIC    CODE     NEAR LAB  ?C?SLDIV

      ---         MODULE    ---      ---       ?C?BMOVEPP
      00FF3919H   PUBLIC    CODE     ---       ?C?BMOVEPP
      00FF3917H   PUBLIC    CODE     ---       ?C?BMOVEPP8

      ---         MODULE    ---      ---       STRNCMP

      ---         MODULE    ---      ---       STRNCPY

      ---         MODULE    ---      ---       STRLEN

      ---         MODULE    ---      ---       STRCHR

      ---         MODULE    ---      ---       memcpy
      00FFA953H   PUBLIC    CODE     ---       memcpy?_

      ---         MODULE    ---      ---       memset

      ---         MODULE    ---      ---       ?C?INITHDATA_END
      00FFB4D7H   PUBLIC    HCONST   WORD      ?C?INITHDATA_END

Program Size: data=8.3 edata+hdata=1792 xdata=3831 const=7083 code=43567
L251 RUN COMPLETE.  0 WARNING(S),  0 ERROR(S)
