L251 LINKER/LOCATER V4.66.93.0                                                          10/24/2025  21:07:56  PAGE 1


L251 LINKER/LOCATER V4.66.93.0, INVOKED BY:
D:\KEIL\C251\BIN\L251.EXE .\out_file\ai8051u_isr.obj, .\out_file\zf_common_clock.obj, .\out_file\zf_common_debug.obj, .\
>> out_file\zf_common_fifo.obj, .\out_file\zf_common_font.obj, .\out_file\zf_common_function.obj, .\out_file\zf_common_t
>> ypedef.obj, .\out_file\zf_common_interrupt.obj, .\out_file\START251.obj, .\out_file\zf_driver_adc.obj, .\out_file\zf_
>> driver_delay.obj, .\out_file\zf_driver_eeprom.obj, .\out_file\zf_driver_encoder.obj, .\out_file\zf_driver_exti.obj, .
>> \out_file\zf_driver_gpio.obj, .\out_file\zf_driver_pit.obj, .\out_file\zf_driver_pwm.obj, .\out_file\zf_driver_soft_i
>> ic.obj, .\out_file\zf_driver_soft_spi.obj, .\out_file\zf_driver_spi.obj, .\out_file\zf_driver_timer.obj, .\out_file\z
>> f_driver_uart.obj, .\out_file\zf_device_config.obj, .\out_file\zf_device_type.obj, .\out_file\zf_device_tft180.obj, .
>> \out_file\zf_device_ips114.obj, .\out_file\zf_device_ips200.obj, .\out_file\zf_device_dl1a.obj, .\out_file\zf_device_
>> ble6a20.obj, .\out_file\zf_device_wireless_uart.obj, .\out_file\zf_device_icm20602.obj, .\out_file\zf_device_imu660ra
>> .obj, .\out_file\zf_device_imu660rb.obj, .\out_file\zf_device_imu963ra.obj, .\out_file\zf_device_gps_tau1201.obj, .\o
>> ut_file\zf_device_tsl1401.obj, .\out_file\seekfree_assistant.obj, .\out_file\seekfree_assistant_interface.obj, .\out_
>> file\isr.obj, .\out_file\main.obj, .\out_file\ADC_Get.obj, .\out_file\control.obj, .\out_file\eeprom.obj, .\out_file\
>> function.obj, .\out_file\Key.obj, .\out_file\menu.obj, .\out_file\menu_font.obj, .\out_file\Device_Test.obj, .\out_fi
>> le\oled.obj, .\out_file\Strategy.obj, .\out_file\Buzzer.obj TO .\out_file\SEEKFREE PRINT (.\out_file\SEEKFREE.map) CA
>> SE DISABLEWARNING (57, 16) REMOVEUNUSED CLASSES (EDATA (0X0-0X7FF), HDATA (0X0-0X7FF))


CPU MODE:     251 SOURCE MODE
INTR FRAME:   4 BYTES SAVED ON INTERRUPT
MEMORY MODEL: LARGE WITH DOUBLE PRECISION FLOATING POINT ARITHMETIC


INPUT MODULES INCLUDED:
  .\out_file\ai8051u_isr.obj (ai8051u_isr)
         COMMENT TYPE 0: A251 V4.69.13.0
  .\out_file\zf_common_clock.obj (zf_common_clock)
         COMMENT TYPE 0: C251 V5.60.0
  .\out_file\zf_common_debug.obj (zf_common_debug)
         COMMENT TYPE 0: C251 V5.60.0
  .\out_file\zf_common_fifo.obj (zf_common_fifo)
         COMMENT TYPE 0: C251 V5.60.0
  .\out_file\zf_common_font.obj (zf_common_font)
         COMMENT TYPE 0: C251 V5.60.0
  .\out_file\zf_common_function.obj (zf_common_function)
         COMMENT TYPE 0: C251 V5.60.0
  .\out_file\zf_common_typedef.obj (zf_common_typedef)
         COMMENT TYPE 0: C251 V5.60.0
  .\out_file\zf_common_interrupt.obj (zf_common_interrupt)
         COMMENT TYPE 0: C251 V5.60.0
  .\out_file\START251.obj (?C_START)
         COMMENT TYPE 0: A251 V4.69.13.0
  .\out_file\zf_driver_adc.obj (zf_driver_adc)
         COMMENT TYPE 0: C251 V5.60.0
  .\out_file\zf_driver_delay.obj (zf_driver_delay)
         COMMENT TYPE 0: C251 V5.60.0
  .\out_file\zf_driver_eeprom.obj (zf_driver_eeprom)
         COMMENT TYPE 0: C251 V5.60.0
  .\out_file\zf_driver_encoder.obj (zf_driver_encoder)
         COMMENT TYPE 0: C251 V5.60.0
  .\out_file\zf_driver_exti.obj (zf_driver_exti)
         COMMENT TYPE 0: C251 V5.60.0
  .\out_file\zf_driver_gpio.obj (zf_driver_gpio)
         COMMENT TYPE 0: C251 V5.60.0
  .\out_file\zf_driver_pit.obj (zf_driver_pit)
         COMMENT TYPE 0: C251 V5.60.0
  .\out_file\zf_driver_pwm.obj (zf_driver_pwm)
         COMMENT TYPE 0: C251 V5.60.0
  .\out_file\zf_driver_soft_iic.obj (zf_driver_soft_iic)
         COMMENT TYPE 0: C251 V5.60.0
  .\out_file\zf_driver_soft_spi.obj (zf_driver_soft_spi)
         COMMENT TYPE 0: C251 V5.60.0
  .\out_file\zf_driver_spi.obj (zf_driver_spi)
         COMMENT TYPE 0: C251 V5.60.0
  .\out_file\zf_driver_timer.obj (zf_driver_timer)
         COMMENT TYPE 0: C251 V5.60.0
L251 LINKER/LOCATER V4.66.93.0                                                        10/24/2025  21:07:56  PAGE 2


  .\out_file\zf_driver_uart.obj (zf_driver_uart)
         COMMENT TYPE 0: C251 V5.60.0
  .\out_file\zf_device_config.obj (zf_device_config)
         COMMENT TYPE 0: C251 V5.60.0
  .\out_file\zf_device_type.obj (zf_device_type)
         COMMENT TYPE 0: C251 V5.60.0
  .\out_file\zf_device_tft180.obj (zf_device_tft180)
         COMMENT TYPE 0: C251 V5.60.0
  .\out_file\zf_device_ips114.obj (zf_device_ips114)
         COMMENT TYPE 0: C251 V5.60.0
  .\out_file\zf_device_ips200.obj (zf_device_ips200)
         COMMENT TYPE 0: C251 V5.60.0
  .\out_file\zf_device_dl1a.obj (zf_device_dl1a)
         COMMENT TYPE 0: C251 V5.60.0
  .\out_file\zf_device_ble6a20.obj (zf_device_ble6a20)
         COMMENT TYPE 0: C251 V5.60.0
  .\out_file\zf_device_wireless_uart.obj (zf_device_wireless_uart)
         COMMENT TYPE 0: C251 V5.60.0
  .\out_file\zf_device_icm20602.obj (zf_device_icm20602)
         COMMENT TYPE 0: C251 V5.60.0
  .\out_file\zf_device_imu660ra.obj (zf_device_imu660ra)
         COMMENT TYPE 0: C251 V5.60.0
  .\out_file\zf_device_imu660rb.obj (zf_device_imu660rb)
         COMMENT TYPE 0: C251 V5.60.0
  .\out_file\zf_device_imu963ra.obj (zf_device_imu963ra)
         COMMENT TYPE 0: C251 V5.60.0
  .\out_file\zf_device_gps_tau1201.obj (zf_device_gps_tau1201)
         COMMENT TYPE 0: C251 V5.60.0
  .\out_file\zf_device_tsl1401.obj (zf_device_tsl1401)
         COMMENT TYPE 0: C251 V5.60.0
  .\out_file\seekfree_assistant.obj (seekfree_assistant)
         COMMENT TYPE 0: C251 V5.60.0
  .\out_file\seekfree_assistant_interface.obj (seekfree_assistant_interface)
         COMMENT TYPE 0: C251 V5.60.0
  .\out_file\isr.obj (isr)
         COMMENT TYPE 0: C251 V5.60.0
  .\out_file\main.obj (main)
         COMMENT TYPE 0: C251 V5.60.0
  .\out_file\ADC_Get.obj (ADC_Get)
         COMMENT TYPE 0: C251 V5.60.0
  .\out_file\control.obj (control)
         COMMENT TYPE 0: C251 V5.60.0
  .\out_file\eeprom.obj (eeprom)
         COMMENT TYPE 0: C251 V5.60.0
  .\out_file\function.obj (function)
         COMMENT TYPE 0: C251 V5.60.0
  .\out_file\Key.obj (Key)
         COMMENT TYPE 0: C251 V5.60.0
  .\out_file\menu.obj (menu)
         COMMENT TYPE 0: C251 V5.60.0
  .\out_file\menu_font.obj (menu_font)
         COMMENT TYPE 0: C251 V5.60.0
  .\out_file\Device_Test.obj (Device_Test)
         COMMENT TYPE 0: C251 V5.60.0
  .\out_file\oled.obj (oled)
         COMMENT TYPE 0: C251 V5.60.0
  .\out_file\Strategy.obj (Strategy)
         COMMENT TYPE 0: C251 V5.60.0
  .\out_file\Buzzer.obj (Buzzer)
         COMMENT TYPE 0: C251 V5.60.0
  D:\KEIL\C251\LIB\C2SDPL.LIB (?C?DPADD)
         COMMENT TYPE 0: A251 V4.69.6.0
  D:\KEIL\C251\LIB\C2SDPL.LIB (?C?DPMUL)
         COMMENT TYPE 0: A251 V4.69.6.0
  D:\KEIL\C251\LIB\C2SDPL.LIB (?C?DPDIV)
L251 LINKER/LOCATER V4.66.93.0                                                        10/24/2025  21:07:56  PAGE 3


         COMMENT TYPE 0: A251 V4.69.6.0
  D:\KEIL\C251\LIB\C2SDPL.LIB (?C?DPCMP)
         COMMENT TYPE 0: A251 V4.69.6.0
  D:\KEIL\C251\LIB\C2SDPL.LIB (?C?DPNEG)
         COMMENT TYPE 0: A251 V4.69.6.0
  D:\KEIL\C251\LIB\C2SDPL.LIB (?C?DCAST)
         COMMENT TYPE 0: A251 V4.69.6.0
  D:\KEIL\C251\LIB\C2SDPL.LIB (?C?CASTD)
         COMMENT TYPE 0: A251 V4.69.6.0
  D:\KEIL\C251\LIB\C2SDPL.LIB (?C?DCASTF)
         COMMENT TYPE 0: A251 V4.69.6.0
  D:\KEIL\C251\LIB\C2SDPL.LIB (?C?FCASTD)
         COMMENT TYPE 0: A251 V4.69.6.0
  D:\KEIL\C251\LIB\C2SDPL.LIB (PRINTF)
         COMMENT TYPE 0: A251 V4.69.6.0
  D:\KEIL\C251\LIB\C2SDPL.LIB (SPRINTF)
         COMMENT TYPE 0: A251 V4.69.6.0
  D:\KEIL\C251\LIB\C2SDPL.LIB (SQRT?_)
         COMMENT TYPE 0: A251 V4.69.6.0
  D:\KEIL\C251\LIB\C2SDPL.LIB (pow)
         COMMENT TYPE 0: C251 V5.58.7
  D:\KEIL\C251\LIB\C2SDPL.LIB (SIN?_)
         COMMENT TYPE 0: A251 V4.69.6.0
  D:\KEIL\C251\LIB\C2SDPL.LIB (ATAN?_)
         COMMENT TYPE 0: A251 V4.69.6.0
  D:\KEIL\C251\LIB\C2SDPL.LIB (ASIN?_)
         COMMENT TYPE 0: A251 V4.69.6.0
  D:\KEIL\C251\LIB\C2SDPL.LIB (?C?DPGETOPN)
         COMMENT TYPE 0: A251 V4.69.6.0
  D:\KEIL\C251\LIB\C2SDPL.LIB (_CHKDOUBLE_?_)
         COMMENT TYPE 0: A251 V4.69.6.0
  D:\KEIL\C251\LIB\C2SDPL.LIB (?C?PRNFMT)
         COMMENT TYPE 0: A251 V4.69.6.0
  D:\KEIL\C251\LIB\C2SDPL.LIB (?C?DPSERIES)
         COMMENT TYPE 0: A251 V4.69.6.0
  D:\KEIL\C251\LIB\C2SDPL.LIB (EXP?_)
         COMMENT TYPE 0: A251 V4.69.6.0
  D:\KEIL\C251\LIB\C2SDPL.LIB (LOG?_)
         COMMENT TYPE 0: A251 V4.69.6.0
  D:\KEIL\C251\LIB\C2SDPL.LIB (?C?DPCONVERT)
         COMMENT TYPE 0: A251 V4.69.6.0
  D:\KEIL\C251\LIB\C2SDPL.LIB (?C?DTNPWR)
         COMMENT TYPE 0: A251 V4.69.6.0
  D:\KEIL\C251\LIB\C2SFPL.LIB (?C?FPGETOPN)
         COMMENT TYPE 0: A251 V4.69.6.0
  D:\KEIL\C251\LIB\C2SFPL.LIB (?C?FPADD)
         COMMENT TYPE 0: A251 V4.69.6.0
  D:\KEIL\C251\LIB\C2SFPL.LIB (?C?FPMUL)
         COMMENT TYPE 0: A251 V4.69.6.0
  D:\KEIL\C251\LIB\C2SFPL.LIB (?C?FPDIV)
         COMMENT TYPE 0: A251 V4.69.6.0
  D:\KEIL\C251\LIB\C2SFPL.LIB (?C?FPCMP)
         COMMENT TYPE 0: A251 V4.69.6.0
  D:\KEIL\C251\LIB\C2SFPL.LIB (?C?FPNEG)
         COMMENT TYPE 0: A251 V4.69.6.0
  D:\KEIL\C251\LIB\C2SFPL.LIB (?C?FCAST)
         COMMENT TYPE 0: A251 V4.69.6.0
  D:\KEIL\C251\LIB\C2SFPL.LIB (?C?CASTF)
         COMMENT TYPE 0: A251 V4.69.6.0
  D:\KEIL\C251\LIB\C2SL.LIB (?C?INITHDATA)
         COMMENT TYPE 0: A251 V4.69.6.0
  D:\KEIL\C251\LIB\C2SL.LIB (?C?SIDIV)
         COMMENT TYPE 0: A251 V4.69.6.0
  D:\KEIL\C251\LIB\C2SL.LIB (?C?LMUL)
         COMMENT TYPE 0: A251 V4.69.6.0
L251 LINKER/LOCATER V4.66.93.0                                                        10/24/2025  21:07:56  PAGE 4


  D:\KEIL\C251\LIB\C2SL.LIB (?C?LIMUL)
         COMMENT TYPE 0: A251 V4.69.6.0
  D:\KEIL\C251\LIB\C2SL.LIB (?C?ULDIV)
         COMMENT TYPE 0: A251 V4.69.6.0
  D:\KEIL\C251\LIB\C2SL.LIB (?C?SLDIV)
         COMMENT TYPE 0: A251 V4.69.6.0
  D:\KEIL\C251\LIB\C2SL.LIB (?C?BMOVEPP)
         COMMENT TYPE 0: A251 V4.69.6.0
  D:\KEIL\C251\LIB\C2SL.LIB (STRNCMP)
         COMMENT TYPE 0: C251 V5.58.7
  D:\KEIL\C251\LIB\C2SL.LIB (STRNCPY)
         COMMENT TYPE 0: C251 V5.58.7
  D:\KEIL\C251\LIB\C2SL.LIB (STRLEN)
         COMMENT TYPE 0: C251 V5.58.7
  D:\KEIL\C251\LIB\C2SL.LIB (STRCHR)
         COMMENT TYPE 0: C251 V5.58.7
  D:\KEIL\C251\LIB\C2SL.LIB (memcpy)
         COMMENT TYPE 0: C251 V5.58.7
  D:\KEIL\C251\LIB\C2SL.LIB (memset)
         COMMENT TYPE 0: C251 V5.58.7
  D:\KEIL\C251\LIB\C2SL.LIB (?C?INITHDATA_END)
         COMMENT TYPE 0: A251 V4.69.6.0


ACTIVE MEMORY CLASSES OF MODULE:  .\out_file\SEEKFREE (ai8051u_isr)

BASE        START       END         USED      MEMORY CLASS
==========================================================
000000H     000000H     0007FFH     000700H   EDATA
000000H     000000H     0007FFH               HDATA
FF0000H     FF0000H     FFFFFFH     00BCBCH   CODE
010000H     010000H     01FFFFH     00131BH   XDATA
000000H     FF0000H     FFFFFFH     002198H   HCONST
000020H.0   000020H.0   00002FH.7   000000H.1 BIT
FF0000H     FF0000H     FFFFFFH     000004H   CONST
000000H     000000H     00007FH     000008H   DATA


MEMORY MAP OF MODULE:  .\out_file\SEEKFREE (ai8051u_isr)


START     STOP      LENGTH    ALIGN  RELOC    MEMORY CLASS   SEGMENT NAME
=========================================================================
000000H   000007H   000008H   ---    AT..     DATA           "REG BANK 0"
000008H.0 00001FH.7 000018H.0 ---    ---      **GAP**
000020H.0 000020H.0 000000H.1 BIT    UNIT     BIT            ?BI?ADC_GET
000020H.1 000020H   000000H.7 ---    ---      **GAP**
000021H   000720H   000700H   BYTE   UNIT     EDATA          ?STACK
000721H   00FFFFH   00F8DFH   ---    ---      **GAP**
010000H   010A61H   000A62H   BYTE   INSEG    XDATA          ?XD?MENU_FONT
010A62H   010C63H   000202H   BYTE   INSEG    XDATA          ?XD?ZF_DEVICE_TSL1401
010C64H   010E33H   0001D0H   BYTE   INSEG    XDATA          ?XD?ZF_DEVICE_GPS_TAU1201
010E34H   010F70H   00013DH   BYTE   INSEG    XDATA          ?XD?SEEKFREE_ASSISTANT
010F71H   011009H   000099H   BYTE   INSEG    XDATA          ?XD?FUNCTION
01100AH   01109EH   000095H   BYTE   UNIT     XDATA          _XDATA_GROUP_
01109FH   0110F7H   000059H   BYTE   INSEG    XDATA          ?XD?ZF_COMMON_DEBUG
0110F8H   01114EH   000057H   BYTE   INSEG    XDATA          ?XD?ZF_DEVICE_BLE6A20
01114FH   0111A5H   000057H   BYTE   INSEG    XDATA          ?XD?ZF_DEVICE_WIRELESS_UART
0111A6H   0111E3H   00003EH   BYTE   INSEG    XDATA          ?XD?ADC_GET
0111E4H   011210H   00002DH   BYTE   INSEG    XDATA          ?XD?STRATEGY
011211H   01122EH   00001EH   BYTE   INSEG    XDATA          ?XD?ZF_COMMON_TYPEDEF
01122FH   01124CH   00001EH   BYTE   INSEG    XDATA          ?XD?ZF_DEVICE_IMU963RA
01124DH   011260H   000014H   BYTE   INSEG    XDATA          ?XD?ZF_DEVICE_ICM20602
011261H   011274H   000014H   BYTE   INSEG    XDATA          ?XD?ZF_DEVICE_IMU660RA
011275H   011285H   000011H   BYTE   INSEG    XDATA          ?XD?CONTROL
L251 LINKER/LOCATER V4.66.93.0                                                        10/24/2025  21:07:56  PAGE 5


011286H   011292H   00000DH   BYTE   INSEG    XDATA          ?XD?ZF_DEVICE_DL1A
011293H   01129FH   00000DH   BYTE   INSEG    XDATA          ?XD?MENU
0112A0H   0112ABH   00000CH   BYTE   INSEG    XDATA          ?XD?ZF_DRIVER_TIMER
0112ACH   0112B7H   00000CH   BYTE   INSEG    XDATA          ?XD?ZF_DRIVER_UART
0112B8H   0112C3H   00000CH   BYTE   INSEG    XDATA          ?XD?ZF_DEVICE_IMU660RB
0112C4H   0112CEH   00000BH   BYTE   INSEG    XDATA          ?XD?KEY
0112CFH   0112D8H   00000AH   BYTE   INSEG    XDATA          ?XD?ZF_DEVICE_IPS200
0112D9H   0112E0H   000008H   BYTE   UNIT     XDATA          ?XD?SOFT_IIC_DELAY?ZF_DRIVER_SOFT_IIC
0112E1H   0112E8H   000008H   BYTE   INSEG    XDATA          ?XD?ZF_DEVICE_TYPE
0112E9H   0112F0H   000008H   BYTE   INSEG    XDATA          ?XD?ZF_DEVICE_TFT180
0112F1H   0112F8H   000008H   BYTE   INSEG    XDATA          ?XD?ZF_DEVICE_IPS114
0112F9H   0112FFH   000007H   BYTE   INSEG    XDATA          ?XD?MAIN
011300H   011305H   000006H   BYTE   INSEG    XDATA          ?XD?ZF_DRIVER_ENCODER
011306H   011309H   000004H   BYTE   INSEG    XDATA          ?XD?ZF_COMMON_CLOCK
01130AH   01130DH   000004H   BYTE   INSEG    XDATA          ?XD?ZF_DRIVER_DELAY
01130EH   011311H   000004H   BYTE   INSEG    XDATA          ?XD?SEEKFREE_ASSISTANT_INTERFACE
011312H   011314H   000003H   BYTE   UNIT     XDATA          ?XD?SOFT_IIC_READ_DATA?ZF_DRIVER_SOFT_IIC
011315H   011316H   000002H   BYTE   UNIT     XDATA          ?XD?SOFT_IIC_SEND_DATA?ZF_DRIVER_SOFT_IIC
011317H   011317H   000001H   BYTE   INSEG    XDATA          ?XD?ZF_DRIVER_ADC
011318H   011318H   000001H   BYTE   UNIT     XDATA          ?XD?SOFT_IIC_SEND_ACK?ZF_DRIVER_SOFT_IIC
011319H   011319H   000001H   BYTE   UNIT     XDATA          ?XD?SOFT_IIC_WAIT_ACK?ZF_DRIVER_SOFT_IIC
01131AH   01131AH   000001H   BYTE   INSEG    XDATA          ?XD?ISR
01131BH   FEFFFFH   FDECE5H   ---    ---      **GAP**
FF0000H   FF0002H   000003H   ---    OFFS..   CODE           ?CO?START251?4
FF0003H   FF0008H   000006H   BYTE   INSEG    CODE           ?PR?SPI_WRITE_8BIT?ZF_DRIVER_SPI
FF0009H   FF000AH   000002H   BYTE   UNIT     HCONST         ?HC?MAIN
FF000BH   FF000DH   000003H   ---    OFFS..   CODE           ?PR?IV?1
FF000EH   FF001AH   00000DH   BYTE   INSEG    CODE           ?PR?TFT180_SET_COLOR?ZF_DEVICE_TFT180
FF001BH   FF001DH   000003H   ---    OFFS..   CODE           ?PR?IV?3
FF001EH   FF0020H   000003H   BYTE   INSEG    CODE           ?PR?INTERRUPT_GLOBAL_ENABLE?ZF_COMMON_INTERRUPT
FF0021H   FF0022H   000002H   ---    ---      **GAP**
FF0023H   FF0025H   000003H   ---    OFFS..   CODE           ?PR?IV?4
FF0026H   FF0042H   00001DH   BYTE   INSEG    CODE           ?PR?ENCONDER_INIT?FUNCTION
FF0043H   FF0045H   000003H   ---    OFFS..   CODE           ?PR?IV?8
FF0046H   FF0061H   00001CH   BYTE   INSEG    CODE           ?PR?IMU963RA_SIMSPI_R_REG_BYTE?ZF_DEVICE_IMU963RA
FF0062H   FF0062H   000001H   ---    ---      **GAP**
FF0063H   FF0065H   000003H   ---    OFFS..   CODE           ?PR?IV?12
FF0066H   FF008AH   000025H   BYTE   INSEG    CODE           ?PR?MAIN?MAIN
FF008BH   FF008DH   000003H   ---    OFFS..   CODE           ?PR?IV?17
FF008EH   FF0091H   000004H   BYTE   UNIT     CONST          ?CO?PRINTF
FF0092H   FF0092H   000001H   ---    ---      **GAP**
FF0093H   FF0095H   000003H   ---    OFFS..   CODE           ?PR?IV?18
FF0096H   FF009AH   000005H   ---    ---      **GAP**
FF009BH   FF009DH   000003H   ---    OFFS..   CODE           ?PR?IV?19
FF009EH   FF00A2H   000005H   ---    ---      **GAP**
FF00A3H   FF00A5H   000003H   ---    OFFS..   CODE           ?PR?IV?20
FF00A6H   FF00BFH   00001AH   BYTE   INSEG    CODE           ?PR?SERVO_INIT?FUNCTION
FF00C0H   FF00C2H   000003H   ---    ---      **GAP**
FF00C3H   FF00C5H   000003H   ---    OFFS..   CODE           ?PR?IV?24
FF00C6H   FF0198H   0000D3H   BYTE   INSEG    CODE           ?PR?GPIO_GET_LEVEL?ZF_DRIVER_GPIO
FF0199H   FF019AH   000002H   ---    ---      **GAP**
FF019BH   FF019DH   000003H   ---    OFFS..   CODE           ?CO?ai8051u_isr?1
FF019EH   FF01A9H   00000CH   BYTE   INSEG    CODE           ?PR?IMU963RA_WRITE_ACC_GYRO_REGISTER?ZF_DEVICE_IMU963RA
FF01AAH   FF01AAH   000001H   ---    ---      **GAP**
FF01ABH   FF01ADH   000003H   ---    OFFS..   CODE           ?CO?ai8051u_isr?2
FF01AEH   FF01B7H   00000AH   BYTE   INSEG    CODE           ?PR?KEY3_HANDLE1?MENU
FF01B8H   FF01BAH   000003H   ---    ---      **GAP**
FF01BBH   FF01BDH   000003H   ---    OFFS..   CODE           ?CO?ai8051u_isr?3
FF01BEH   FF01C7H   00000AH   BYTE   INSEG    CODE           ?PR?BUZZER_ON?BUZZER
FF01C8H   FF01CAH   000003H   ---    ---      **GAP**
FF01CBH   FF01CDH   000003H   ---    OFFS..   CODE           ?CO?ai8051u_isr?4
FF01CEH   FF021AH   00004DH   BYTE   INSEG    CODE           ?PR?FIFO_HEAD_OFFSET?ZF_COMMON_FIFO
FF021BH   FF021DH   000003H   ---    OFFS..   CODE           ?CO?ai8051u_isr?5
FF021EH   FF221DH   002000H   BYTE   UNIT     CODE           ?CO?ZF_DEVICE_CONFIG
FF221EH   FF393FH   001722H   BYTE   UNIT     CODE           ?C?LIB_CODE
L251 LINKER/LOCATER V4.66.93.0                                                        10/24/2025  21:07:56  PAGE 6


FF3940H   FF4617H   000CD8H   BYTE   UNIT     CODE           ?CO?OLED
FF4618H   FF4E34H   00081DH   BYTE   INSEG    CODE           ?PR?ZF_SPRINTF?ZF_COMMON_FUNCTION
FF4E35H   FF5424H   0005F0H   BYTE   UNIT     CODE           ?CO?ZF_COMMON_FONT
FF5425H   FF598BH   000567H   BYTE   INSEG    CODE           ?PR?SHOW_PARARM?FUNCTION
FF598CH   FF5E9BH   000510H   BYTE   INSEG    CODE           ?PR?PWM_INIT?ZF_DRIVER_PWM
FF5E9CH   FF6340H   0004A5H   BYTE   INSEG    CODE           ?PR?SPI_INIT?ZF_DRIVER_SPI
FF6341H   FF673DH   0003FDH   BYTE   INSEG    CODE           ?PR?FIFO_WRITE_BUFFER?ZF_COMMON_FIFO
FF673EH   FF6B0AH   0003CDH   BYTE   INSEG    CODE           ?PR?GPIO_SET_DIR?ZF_DRIVER_GPIO
FF6B0BH   FF6E2BH   000321H   BYTE   INSEG    CODE           ?PR?STATE_OF_ROAD?STRATEGY
FF6E2CH   FF7107H   0002DCH   BYTE   INSEG    CODE           ?PR?TFT180_INIT?ZF_DEVICE_TFT180
FF7108H   FF73E2H   0002DBH   BYTE   INSEG    CODE           ?PR?IMU963RA_INIT?ZF_DEVICE_IMU963RA
FF73E3H   FF769BH   0002B9H   BYTE   INSEG    CODE           ?PR?GPIO_SET_LEVEL_SPEED?ZF_DRIVER_GPIO
FF769CH   FF7912H   000277H   BYTE   INSEG    CODE           ?PR?HELP_TURN2?STRATEGY
FF7913H   FF7B4AH   000238H   BYTE   INSEG    CODE           ?PR?PID_UPDATE?CONTROL
FF7B4BH   FF7D7FH   000235H   BYTE   INSEG    CODE           ?PR?UART_INIT?ZF_DRIVER_UART
FF7D80H   FF7FA5H   000226H   BYTE   INSEG    CODE           ?PR?GPIO_SET_MODE?ZF_DRIVER_GPIO
FF7FA6H   FF8180H   0001DBH   BYTE   INSEG    CODE           ?PR?PIT_INIT?ZF_DRIVER_PIT
FF8181H   FF8350H   0001D0H   BYTE   INSEG    CODE           ?PR?TURN_MODE_INIT?FUNCTION
FF8351H   FF8514H   0001C4H   BYTE   INSEG    CODE           ?PR?TFT180_SHOW_FLOAT?ZF_DEVICE_TFT180
FF8515H   FF86B4H   0001A0H   BYTE   INSEG    CODE           ?PR?CYCLE_UPDATE?CONTROL
FF86B5H   FF8844H   000190H   BYTE   INSEG    CODE           ?PR?PWM_SET_DUTY?ZF_DRIVER_PWM
FF8845H   FF89B7H   000173H   BYTE   INSEG    CODE           ?PR?GPIO_SET_LEVEL?ZF_DRIVER_GPIO
FF89B8H   FF8B09H   000152H   BYTE   INSEG    CODE           ?PR?SPEED_DIFF?CONTROL
FF8B0AH   FF8C50H   000147H   BYTE   INSEG    CODE           ?PR?UART_DMA_INIT?ZF_DRIVER_UART
FF8C51H   FF8D96H   000146H   BYTE   INSEG    CODE           ?PR?GPIO_SET_IMPEDANCE?ZF_DRIVER_GPIO
FF8D97H   FF8ECBH   000135H   BYTE   INSEG    CODE           ?PR?MENU_DISPLAY_CONTENT?MENU
FF8ECCH   FF8FFEH   000133H   BYTE   INSEG    CODE           ?PR?TFT180_SHOW_INT16?ZF_DEVICE_TFT180
FF8FFFH   FF9120H   000122H   BYTE   INSEG    CODE           ?PR?TFT180_SET_REGION?ZF_DEVICE_TFT180
FF9121H   FF923AH   00011AH   BYTE   INSEG    CODE           ?PR?KEY_SCANER?KEY
FF923BH   FF9346H   00010CH   BYTE   INSEG    CODE           ?PR?ENCODER_DIR_INIT?ZF_DRIVER_ENCODER
FF9347H   FF9442H   0000FCH   BYTE   INSEG    CODE           ?PR?IF_CYCLE?STRATEGY
FF9443H   FF9524H   0000E2H   BYTE   INSEG    CODE           ?PR?UART_WRITE_BUFFER?ZF_DRIVER_UART
FF9525H   FF9605H   0000E1H   BYTE   INSEG    CODE           ?PR?ADC_SAMPLEANDFILTER?ADC_GET
FF9606H   FF96E5H   0000E0H   BYTE   INSEG    CODE           ?PR?TFT180_SHOW_CHAR?ZF_DEVICE_TFT180
FF96E6H   FF97C3H   0000DEH   BYTE   INSEG    CODE           ?PR?CLOCK_INIT?ZF_COMMON_CLOCK
FF97C4H   FF989FH   0000DCH   BYTE   INSEG    CODE           ?PR?HANDLE_KEY1?MENU
FF98A0H   FF9977H   0000D8H   BYTE   INSEG    CODE           ?PR?MOTOR_RIGHT_PI_CONTROL?CONTROL
FF9978H   FF9A4FH   0000D8H   BYTE   INSEG    CODE           ?PR?MOTOR_LEFT_PI_CONTROL?CONTROL
FF9A50H   FF9B1FH   0000D0H   BYTE   INSEG    CODE           ?PR?MENU_SETCHILDREN?MENU
FF9B20H   FF9BEDH   0000CEH   BYTE   INSEG    CODE           ?PR?KEY3_HANDLE2?MENU
FF9BEEH   FF9CB4H   0000C7H   BYTE   INSEG    CODE           ?PR?HANDLE_KEY4?MENU
FF9CB5H   FF9D70H   0000BCH   BYTE   INSEG    CODE           ?PR?GPIO_INIT?ZF_DRIVER_GPIO
FF9D71H   FF9E2BH   0000BBH   BYTE   INSEG    CODE           ?PR?TURN_MODE?KEY
FF9E2CH   FF9EE5H   0000BAH   BYTE   INSEG    CODE           ?PR?INTERRUPT_SET_PRIORITY?ZF_COMMON_INTERRUPT
FF9EE6H   FF9F99H   0000B4H   BYTE   INSEG    CODE           ?PR?SOFT_IIC_READ_DATA?ZF_DRIVER_SOFT_IIC
FF9F9AH   FFA04CH   0000B3H   BYTE   INSEG    CODE           ?PR?FAST_SQRT?FUNCTION
FFA04DH   FFA0FCH   0000B0H   BYTE   INSEG    CODE           ?PR?_M?MAIN
FFA0FDH   FFA1A9H   0000ADH   BYTE   INSEG    CODE           ?PR?PIT_HANDLER1?MAIN
FFA1AAH   FFA255H   0000ACH   BYTE   INSEG    CODE           ?PR?SERVO_CONTROL?FUNCTION
FFA256H   FFA2FEH   0000A9H   BYTE   INSEG    CODE           ?PR?TFT180_SHOW_STRING?ZF_DEVICE_TFT180
FFA2FFH   FFA3A4H   0000A6H   BYTE   INSEG    CODE           ?PR?ADC_FILTER?ADC_GET
FFA3A5H   FFA449H   0000A5H   BYTE   INSEG    CODE           ?PR?ENCODER_GET_COUNT?ZF_DRIVER_ENCODER
FFA44AH   FFA4EEH   0000A5H   BYTE   INSEG    CODE           ?PR?DMA_UART1_IRQHANDLER?ISR
FFA4EFH   FFA58CH   00009EH   BYTE   INSEG    CODE           ?PR?MOTOR_UPDATE_SMOOTH?CONTROL
FFA58DH   FFA623H   000097H   BYTE   INSEG    CODE           ?PR?DEBUG_INIT?ZF_COMMON_DEBUG
FFA624H   FFA6B8H   000095H   BYTE   INSEG    CODE           ?PR?ENCODER_CLEAR_COUNT?ZF_DRIVER_ENCODER
FFA6B9H   FFA74CH   000094H   BYTE   INSEG    CODE           ?PR?NUMBER_CONVERSION_ASCII?ZF_COMMON_FUNCTION
FFA74DH   FFA7E0H   000094H   BYTE   INSEG    CODE           ?PR?SERVO_TURN_PID?CONTROL
FFA7E1H   FFA871H   000091H   BYTE   INSEG    CODE           ?PR?SOFT_IIC_SEND_DATA?ZF_DRIVER_SOFT_IIC
FFA872H   FFA901H   000090H   BYTE   INSEG    CODE           ?PR?UART_RX_START_BUFF?ZF_DRIVER_UART
FFA902H   FFA98CH   00008BH   BYTE   INSEG    CODE           ?PR?UNIFICATION?FUNCTION
FFA98DH   FFAA15H   000089H   BYTE   INSEG    CODE           ?PR?DMA_UART2_IRQHANDLER?ISR
FFAA16H   FFAA9EH   000089H   BYTE   INSEG    CODE           ?PR?DMA_UART3_IRQHANDLER?ISR
FFAA9FH   FFAB27H   000089H   BYTE   INSEG    CODE           ?PR?DMA_UART4_IRQHANDLER?ISR
FFAB28H   FFABAFH   000088H   BYTE   INSEG    CODE           ?PR?ADC_INIT?ZF_DRIVER_ADC
L251 LINKER/LOCATER V4.66.93.0                                                        10/24/2025  21:07:56  PAGE 7


FFABB0H   FFAC32H   000083H   BYTE   INSEG    CODE           ?PR?REFESH_ARROW?MENU
FFAC33H   FFACB3H   000081H   BYTE   INSEG    CODE           ?PR?FIFO_INIT?ZF_COMMON_FIFO
FFACB4H   FFAD2FH   00007CH   BYTE   INSEG    CODE           ?PR?MENU_INIT?MENU
FFAD30H   FFADA8H   000079H   BYTE   INSEG    CODE           ?PR?SOFT_IIC_WAIT_ACK?ZF_DRIVER_SOFT_IIC
FFADA9H   FFAE1FH   000077H   BYTE   INSEG    CODE           ?PR?SHOW_BUJIN?MENU
FFAE20H   FFAE94H   000075H   BYTE   INSEG    CODE           ?PR?INIT_ALL?FUNCTION
FFAE95H   FFAF07H   000073H   BYTE   INSEG    CODE           ?PR?SOFT_IIC_SEND_ACK?ZF_DRIVER_SOFT_IIC
FFAF08H   FFAF72H   00006BH   BYTE   INSEG    CODE           ?PR?SYSTEM_DELAY_MS?ZF_DRIVER_DELAY
FFAF73H   FFAFDAH   000068H   BYTE   INSEG    CODE           ?PR?DEBUG_ASSERT_HANDLER?ZF_COMMON_DEBUG
FFAFDBH   FFB041H   000067H   BYTE   INSEG    CODE           ?PR?TFT180_CLEAR?ZF_DEVICE_TFT180
FFB042H   FFB0A7H   000066H   BYTE   INSEG    CODE           ?PR?IMU963RA_WRITE_MAG_REGISTER?ZF_DEVICE_IMU963RA
FFB0A8H   FFB109H   000062H   BYTE   INSEG    CODE           ?PR?SOFT_IIC_STOP?ZF_DRIVER_SOFT_IIC
FFB10AH   FFB16BH   000062H   BYTE   INSEG    CODE           ?PR?UART_QUERY_BYTE?ZF_DRIVER_UART
FFB16CH   FFB1C8H   00005DH   BYTE   INSEG    CODE           ?PR?SYSTEM_DELAY_INIT?ZF_DRIVER_DELAY
FFB1C9H   FFB225H   00005DH   BYTE   INSEG    CODE           ?PR?MOTOR_INIT?FUNCTION
FFB226H   FFB246H   000021H   BYTE   UNIT     CODE           ?C_C51STARTUP
FFB247H   FFB248H   000002H   BYTE   UNIT     CODE           ?C_C51STARTUP?1
FFB249H   FFB279H   000031H   BYTE   UNIT     CODE           ?C_C51STARTUP?2
FFB27AH   FFB27CH   000003H   BYTE   UNIT     CODE           ?C_C51STARTUP?3
FFB27DH   FFB2D3H   000057H   BYTE   INSEG    CODE           ?PR?SOFT_IIC_START?ZF_DRIVER_SOFT_IIC
FFB2D4H   FFB329H   000056H   BYTE   INSEG    CODE           ?PR?SERVE_TEST?DEVICE_TEST
FFB32AH   FFB37DH   000054H   BYTE   INSEG    CODE           ?PR?IMU963RA_GET_GYRO?ZF_DEVICE_IMU963RA
FFB37EH   FFB3CFH   000052H   BYTE   INSEG    CODE           ?PR?IMU963RA_READ_MAG_REGISTER?ZF_DEVICE_IMU963RA
FFB3D0H   FFB421H   000052H   BYTE   INSEG    CODE           ?PR?HANDLE_KEY3?MENU
FFB422H   FFB46DH   00004CH   BYTE   INSEG    CODE           ?PR?TIMER_FUNCITON_CHECK?ZF_DRIVER_TIMER
FFB46EH   FFB4B9H   00004CH   BYTE   INSEG    CODE           ?PR?UART_FUNCITON_CHECK?ZF_DRIVER_UART
FFB4BAH   FFB504H   00004BH   BYTE   INSEG    CODE           ?PR?TM11_IRQHANDLER?ISR
FFB505H   FFB54DH   000049H   BYTE   INSEG    CODE           ?PR?MOTOR_UPDATE?CONTROL
FFB54EH   FFB595H   000048H   BYTE   INSEG    CODE           ?PR?PRINTF_REVERSE_ORDER?ZF_COMMON_FUNCTION
FFB596H   FFB5DAH   000045H   BYTE   INSEG    CODE           ?PR?UART_RX_INTERRUPT?ZF_DRIVER_UART
FFB5DBH   FFB61FH   000045H   BYTE   INSEG    CODE           ?PR?KEY_NUMBER?KEY
FFB620H   FFB663H   000044H   BYTE   INSEG    CODE           ?PR?IMU963RA_ACC_GYRO_SELF_CHECK?ZF_DEVICE_IMU963RA
FFB664H   FFB6A6H   000043H   BYTE   INSEG    CODE           ?PR?HANDLE_KEY2?MENU
FFB6A7H   FFB6E8H   000042H   BYTE   INSEG    CODE           ?PR?SPI_WRITE_DAT?ZF_DRIVER_SPI
FFB6E9H   FFB727H   00003FH   BYTE   INSEG    CODE           ?PR?IMU963RA_SIMSPI_R_REG_BYTES?ZF_DEVICE_IMU963RA
FFB728H   FFB765H   00003EH   BYTE   INSEG    CODE           ?PR?TM0_IRQHANDLER?ISR
FFB766H   FFB7A3H   00003EH   BYTE   INSEG    CODE           ?PR?TM1_IRQHANDLER?ISR
FFB7A4H   FFB7E1H   00003EH   BYTE   INSEG    CODE           ?PR?TM2_IRQHANDLER?ISR
FFB7E2H   FFB81FH   00003EH   BYTE   INSEG    CODE           ?PR?TM3_IRQHANDLER?ISR
FFB820H   FFB85DH   00003EH   BYTE   INSEG    CODE           ?PR?TM4_IRQHANDLER?ISR
FFB85EH   FFB89BH   00003EH   BYTE   INSEG    CODE           ?PR?PROTECT?FUNCTION
FFB89CH   FFB8D8H   00003DH   BYTE   INSEG    CODE           ?PR?MOTORL_SETSPEED?CONTROL
FFB8D9H   FFB915H   00003DH   BYTE   INSEG    CODE           ?PR?MOTORR_SETSPEED?CONTROL
FFB916H   FFB94EH   000039H   BYTE   INSEG    CODE           ?PR?DEBUG_INTERRUPR_HANDLER?ZF_COMMON_DEBUG
FFB94FH   FFB987H   000039H   BYTE   INSEG    CODE           ?PR?SPEED_CONTROL?FUNCTION
FFB988H   FFB9BFH   000038H   BYTE   INSEG    CODE           ?PR?SOFT_IIC_DELAY?ZF_DRIVER_SOFT_IIC
FFB9C0H   FFB9F3H   000034H   BYTE   INSEG    CODE           ?PR?IMU963RA_MAG_SELF_CHECK?ZF_DEVICE_IMU963RA
FFB9F4H   FFBA26H   000033H   BYTE   INSEG    CODE           ?PR?PWM_TEST?DEVICE_TEST
FFBA27H   FFBA56H   000030H   BYTE   INSEG    CODE           ?PR?ADC_CONVERT?ZF_DRIVER_ADC
FFBA57H   FFBA84H   00002EH   BYTE   INSEG    CODE           ?PR?SHOW_TEST_INFO?FUNCTION
FFBA85H   FFBAB2H   00002EH   BYTE   INSEG    CODE           ?PR?MENU_HANDLE_KEY?MENU
FFBAB3H   FFBADFH   00002DH   BYTE   INSEG    CODE           ?PR?ADC_GETINIT?ADC_GET
FFBAE0H   FFBB0BH   00002CH   BYTE   INSEG    CODE           ?PR?IMU963RA_CONNECT_MAG?ZF_DEVICE_IMU963RA
FFBB0CH   FFBB36H   00002BH   BYTE   INSEG    CODE           ?PR?SPEED_CONTROL_RING?FUNCTION
FFBB37H   FFBB5DH   000027H   BYTE   INSEG    CODE           ?PR?TFT180_SET_DIR?ZF_DEVICE_TFT180
FFBB5EH   FFBB82H   000025H   BYTE   INSEG    CODE           ?PR?MEMCPY?_?MEMCPY
FFBB83H   FFBBA5H   000023H   BYTE   INSEG    CODE           ?PR?IMU963RA_SIMSPI_WR_BYTE?ZF_DEVICE_IMU963RA
FFBBA6H   FFBBC4H   00001FH   BYTE   INSEG    CODE           ?PR?SPI_WRITE_16BIT?ZF_DRIVER_SPI
FFBBC5H   FFBBE3H   00001FH   BYTE   INSEG    CODE           ?PR?IMU963RA_READ_ACC_GYRO_REGISTER?ZF_DEVICE_IMU963RA
FFBBE4H   FFBBFDH   00001AH   BYTE   INSEG    CODE           ?PR?HANDLE_KEY5?MENU
FFBBFEH   FFBC17H   00001AH   BYTE   INSEG    CODE           ?PR?SET_SEVO?DEVICE_TEST
FFBC18H   FFBC2EH   000017H   BYTE   INSEG    CODE           ?PR?IMU963RA_SIMSPI_W_REG_BYTE?ZF_DEVICE_IMU963RA
FFBC2FH   FFBC44H   000016H   BYTE   INSEG    CODE           ?PR?TFT180_WRITE_INDEX?ZF_DEVICE_TFT180
FFBC45H   FFBC5AH   000016H   BYTE   INSEG    CODE           ?PR?IMU963RA_READ_ACC_GYRO_REGISTERS?ZF_DEVICE_IMU963RA
FFBC5BH   FFBC6EH   000014H   BYTE   INSEG    CODE           ?PR?UART_WRITE_BYTE?ZF_DRIVER_UART
L251 LINKER/LOCATER V4.66.93.0                                                        10/24/2025  21:07:56  PAGE 8


FFBC6FH   FFBC80H   000012H   BYTE   INSEG    CODE           ?PR?CAR_STOP?FUNCTION
FFBC81H   FFBC91H   000011H   BYTE   INSEG    CODE           ?PR?SHOW_ALL_MENU?MENU
FFBC92H   FFBCA2H   000011H   BYTE   INSEG    CODE           ?PR?BUZZER_INIT?BUZZER
FFBCA3H   FFBCB2H   000010H   BYTE   INSEG    CODE           ?PR?PUTCHAR?ZF_COMMON_DEBUG
FFBCB3H   FFBCC2H   000010H   BYTE   INSEG    CODE           ?PR?SER_SERVO_DUTY?CONTROL
FFBCC3H   FFBCD2H   000010H   BYTE   INSEG    CODE           ?PR?GO_FUNCTION?FUNCTION
FFBCD3H   FFBCDBH   000009H   BYTE   INSEG    CODE           ?PR?BUZZER_OFF?BUZZER
FFBCDCH   FFCD4CH   001071H   BYTE   UNIT     HCONST         ?C_INITHDATA
FFCD4DH   FFD34CH   000600H   BYTE   UNIT     HCONST         ?HC?EEPROM
FFD34DH   FFD54CH   000200H   BYTE   UNIT     HCONST         ?HC?ZF_DRIVER_EEPROM
FFD54DH   FFD67BH   00012FH   BYTE   UNIT     HCONST         ?HC?ZF_DEVICE_DL1A
FFD67CH   FFD76FH   0000F4H   BYTE   UNIT     HCONST         ?HC?FUNCTION
FFD770H   FFD83FH   0000D0H   BYTE   UNIT     HCONST         ?HC?ZF_DEVICE_IMU963RA
FFD840H   FFD8E6H   0000A7H   BYTE   UNIT     HCONST         ?HC?ZF_DEVICE_IMU660RA
FFD8E7H   FFD98AH   0000A4H   BYTE   UNIT     HCONST         ?HC?SEEKFREE_ASSISTANT
FFD98BH   FFDA2CH   0000A2H   BYTE   UNIT     HCONST         ?HC?ZF_DEVICE_GPS_TAU1201
FFDA2DH   FFDAB6H   00008AH   BYTE   UNIT     HCONST         ?HC?ZF_DRIVER_PWM
FFDAB7H   FFDB3EH   000088H   BYTE   UNIT     HCONST         ?HC?ZF_DEVICE_ICM20602
FFDB3FH   FFDB7DH   00003FH   BYTE   UNIT     HCONST         ?HC?ZF_COMMON_FUNCTION
FFDB7EH   FFDBB1H   000034H   BYTE   UNIT     HCONST         ?HC?ZF_DEVICE_WIRELESS_UART
FFDBB2H   FFDBE4H   000033H   BYTE   UNIT     HCONST         ?HC?ZF_DEVICE_TFT180
FFDBE5H   FFDC17H   000033H   BYTE   UNIT     HCONST         ?HC?ZF_DEVICE_IPS114
FFDC18H   FFDC4AH   000033H   BYTE   UNIT     HCONST         ?HC?ZF_DEVICE_IPS200
FFDC4BH   FFDC7AH   000030H   BYTE   UNIT     HCONST         ?HC?KEY
FFDC7BH   FFDCA9H   00002FH   BYTE   UNIT     HCONST         ?HC?ZF_DRIVER_SOFT_IIC
FFDCAAH   FFDCD8H   00002FH   BYTE   UNIT     HCONST         ?HC?ZF_DRIVER_SOFT_SPI
FFDCD9H   FFDD06H   00002EH   BYTE   UNIT     HCONST         ?HC?ZF_DRIVER_ENCODER
FFDD07H   FFDD34H   00002EH   BYTE   UNIT     HCONST         ?HC?ZF_DEVICE_BLE6A20
FFDD35H   FFDD5FH   00002BH   BYTE   UNIT     HCONST         ?HC?ZF_COMMON_FIFO
FFDD60H   FFDD8AH   00002BH   BYTE   UNIT     HCONST         ?HC?ZF_DRIVER_GPIO
FFDD8BH   FFDDB5H   00002BH   BYTE   UNIT     HCONST         ?HC?ZF_DRIVER_UART
FFDDB6H   FFDDDFH   00002AH   BYTE   UNIT     HCONST         ?HC?ZF_DRIVER_ADC
FFDDE0H   FFDE09H   00002AH   BYTE   UNIT     HCONST         ?HC?ZF_DRIVER_SPI
FFDE0AH   FFDE31H   000028H   BYTE   UNIT     HCONST         ?HC?MENU
FFDE32H   FFDE56H   000025H   BYTE   UNIT     HCONST         ?HC?ZF_COMMON_DEBUG
FFDE57H   FFDE71H   00001BH   BYTE   UNIT     HCONST         ?HC?ZF_DEVICE_IMU660RB

* * * * * * * * *   R E M O V E D     S E G M E N T S   * * * * * * * *
   *DEL*:           00003EH   BYTE   INSEG    CODE           ?PR?DEBUG_READ_BUFFER?ZF_COMMON_DEBUG
   *DEL*:           000045H   BYTE   INSEG    CODE           ?PR?DEBUG_SEND_BUFFER?ZF_COMMON_DEBUG
   *DEL*:           000004H   BYTE   UNIT     XDATA          ?XD?DEBUG_SEND_BUFFER?ZF_COMMON_DEBUG
   *DEL*:           000004H   BYTE   UNIT     XDATA          ?XD?DEBUG_READ_BUFFER?ZF_COMMON_DEBUG
   *DEL*:           00043DH   BYTE   INSEG    CODE           ?PR?FIFO_READ_BUFFER?ZF_COMMON_FIFO
   *DEL*:           0000C7H   BYTE   INSEG    CODE           ?PR?FIFO_CLEAR?ZF_COMMON_FIFO
   *DEL*:           00004DH   BYTE   INSEG    CODE           ?PR?FIFO_END_OFFSET?ZF_COMMON_FIFO
   *DEL*:           000033H   BYTE   INSEG    CODE           ?PR?FIFO_USED?ZF_COMMON_FIFO
   *DEL*:           000002H   BYTE   UNIT     XDATA          ?XD?FIFO_CLEAR?ZF_COMMON_FIFO
   *DEL*:           000014H   BYTE   UNIT     XDATA          ?XD?FIFO_READ_BUFFER?ZF_COMMON_FIFO
   *DEL*:           0002D1H   BYTE   INSEG    CODE           ?PR?FUNC_DOUBLE_TO_STR?ZF_COMMON_FUNCTION
   *DEL*:           000245H   BYTE   INSEG    CODE           ?PR?FUNC_STR_TO_DOUBLE?ZF_COMMON_FUNCTION
   *DEL*:           000298H   BYTE   INSEG    CODE           ?PR?FUNC_FLOAT_TO_STR?ZF_COMMON_FUNCTION
   *DEL*:           00019DH   BYTE   INSEG    CODE           ?PR?FUNC_STR_TO_FLOAT?ZF_COMMON_FUNCTION
   *DEL*:           000024H   BYTE   INSEG    CODE           ?PR?FUNC_SOFT_DELAY?ZF_COMMON_FUNCTION
   *DEL*:           0000CCH   BYTE   INSEG    CODE           ?PR?FUNC_UINT_TO_STR?ZF_COMMON_FUNCTION
   *DEL*:           000079H   BYTE   INSEG    CODE           ?PR?FUNC_STR_TO_UINT?ZF_COMMON_FUNCTION
   *DEL*:           0000FAH   BYTE   INSEG    CODE           ?PR?FUNC_HEX_TO_STR?ZF_COMMON_FUNCTION
   *DEL*:           00011BH   BYTE   INSEG    CODE           ?PR?FUNC_STR_TO_HEX?ZF_COMMON_FUNCTION
   *DEL*:           000149H   BYTE   INSEG    CODE           ?PR?FUNC_INT_TO_STR?ZF_COMMON_FUNCTION
   *DEL*:           0000BAH   BYTE   INSEG    CODE           ?PR?FUNC_STR_TO_INT?ZF_COMMON_FUNCTION
   *DEL*:           000019H   BYTE   INSEG    CODE           ?PR?FUNC_GET_GREATEST_COMMON_DIVISOR?ZF_COMMON_FUNCTION
   *DEL*:           000004H   BYTE   UNIT     XDATA          ?XD?FUNC_SOFT_DELAY?ZF_COMMON_FUNCTION
   *DEL*:           000005H   BYTE   UNIT     XDATA          ?XD?FUNC_STR_TO_INT?ZF_COMMON_FUNCTION
   *DEL*:           000019H   BYTE   UNIT     XDATA          ?XD?FUNC_INT_TO_STR?ZF_COMMON_FUNCTION
   *DEL*:           000004H   BYTE   UNIT     XDATA          ?XD?FUNC_STR_TO_UINT?ZF_COMMON_FUNCTION
   *DEL*:           000015H   BYTE   UNIT     XDATA          ?XD?FUNC_UINT_TO_STR?ZF_COMMON_FUNCTION
L251 LINKER/LOCATER V4.66.93.0                                                        10/24/2025  21:07:56  PAGE 9


   *DEL*:           00000DH   BYTE   UNIT     XDATA          ?XD?FUNC_STR_TO_FLOAT?ZF_COMMON_FUNCTION
   *DEL*:           000026H   BYTE   UNIT     XDATA          ?XD?FUNC_FLOAT_TO_STR?ZF_COMMON_FUNCTION
   *DEL*:           000019H   BYTE   UNIT     XDATA          ?XD?FUNC_STR_TO_DOUBLE?ZF_COMMON_FUNCTION
   *DEL*:           000038H   BYTE   UNIT     XDATA          ?XD?FUNC_DOUBLE_TO_STR?ZF_COMMON_FUNCTION
   *DEL*:           00000AH   BYTE   UNIT     XDATA          ?XD?FUNC_STR_TO_HEX?ZF_COMMON_FUNCTION
   *DEL*:           000021H   BYTE   UNIT     XDATA          ?XD?FUNC_HEX_TO_STR?ZF_COMMON_FUNCTION
   *DEL*:           000003H   BYTE   INSEG    CODE           ?PR?INTERRUPT_GLOBAL_DISABLE?ZF_COMMON_INTERRUPT
   *DEL*:           00006EH   BYTE   INSEG    CODE           ?PR?ADC_MEAN_FILTER_CONVERT?ZF_DRIVER_ADC
   *DEL*:           000004H   BYTE   UNIT     XDATA          ?XD?ADC_MEAN_FILTER_CONVERT?ZF_DRIVER_ADC
   *DEL*:           00006BH   BYTE   INSEG    CODE           ?PR?SYSTEM_DELAY_US?ZF_DRIVER_DELAY
   *DEL*:           00001CH   BYTE   INSEG    CODE           ?PR?IAP_SET_TPS?ZF_DRIVER_EEPROM
   *DEL*:           00000BH   BYTE   INSEG    CODE           ?PR?EEPROM_TRIG?ZF_DRIVER_EEPROM
   *DEL*:           000028H   BYTE   INSEG    CODE           ?PR?IAP_ERASE_PAGE?ZF_DRIVER_EEPROM
   *DEL*:           000004H   BYTE   INSEG    CODE           ?PR?IAP_IDLE?ZF_DRIVER_EEPROM
   *DEL*:           000049H   BYTE   INSEG    CODE           ?PR?IAP_READ_BUFF?ZF_DRIVER_EEPROM
   *DEL*:           0000F8H   BYTE   INSEG    CODE           ?PR?EXTERN_IAP_WRITE_BUFF?ZF_DRIVER_EEPROM
   *DEL*:           000049H   BYTE   INSEG    CODE           ?PR?IAP_WRITE_BUFF?ZF_DRIVER_EEPROM
   *DEL*:           000023H   BYTE   INSEG    CODE           ?PR?IAP_READ_BYTE?ZF_DRIVER_EEPROM
   *DEL*:           000007H   BYTE   INSEG    CODE           ?PR?IAP_INIT?ZF_DRIVER_EEPROM
   *DEL*:           00002AH   BYTE   INSEG    CODE           ?PR?IAP_WRITE_BYTE?ZF_DRIVER_EEPROM
   *DEL*:           00000DH   BYTE   INSEG    CODE           ?PR?IAP_GET_CMD_STATE?ZF_DRIVER_EEPROM
   *DEL*:           000000H.1 BIT    UNIT     BIT            ?BI?IAP_READ_BYTE?ZF_DRIVER_EEPROM
   *DEL*:           000000H.1 BIT    UNIT     BIT            ?BI?IAP_WRITE_BYTE?ZF_DRIVER_EEPROM
   *DEL*:           000006H   BYTE   UNIT     XDATA          ?XD?IAP_READ_BUFF?ZF_DRIVER_EEPROM
   *DEL*:           000006H   BYTE   UNIT     XDATA          ?XD?IAP_WRITE_BUFF?ZF_DRIVER_EEPROM
   *DEL*:           000000H.1 BIT    UNIT     BIT            ?BI?IAP_ERASE_PAGE?ZF_DRIVER_EEPROM
   *DEL*:           000206H   BYTE   UNIT     XDATA          ?XD?EXTERN_IAP_WRITE_BUFF?ZF_DRIVER_EEPROM
   *DEL*:           00001BH   BYTE   INSEG    CODE           ?PR?GPIO_TOGGLE_LEVEL?ZF_DRIVER_GPIO
   *DEL*:           00025FH   BYTE   INSEG    CODE           ?PR?PWM_SET_FREQ?ZF_DRIVER_PWM
   *DEL*:           000010H   BYTE   UNIT     XDATA          ?XD?PWM_SET_FREQ?ZF_DRIVER_PWM
   *DEL*:           000052H   BYTE   INSEG    CODE           ?PR?SOFT_IIC_WRITE_8BIT_REGISTER?ZF_DRIVER_SOFT_IIC
   *DEL*:           00010DH   BYTE   INSEG    CODE           ?PR?SOFT_IIC_READ_16BIT_REGISTERS?ZF_DRIVER_SOFT_IIC
   *DEL*:           00006EH   BYTE   INSEG    CODE           ?PR?SOFT_IIC_SCCB_READ_REGISTER?ZF_DRIVER_SOFT_IIC
   *DEL*:           0000A5H   BYTE   INSEG    CODE           ?PR?SOFT_IIC_READ_16BIT_REGISTER?ZF_DRIVER_SOFT_IIC
   *DEL*:           000176H   BYTE   INSEG    CODE           ?PR?SOFT_IIC_TRANSFER_16BIT_ARRAY?ZF_DRIVER_SOFT_IIC
   *DEL*:           0000D0H   BYTE   INSEG    CODE           ?PR?SOFT_IIC_WRITE_16BIT_REGISTERS?ZF_DRIVER_SOFT_IIC
   *DEL*:           000052H   BYTE   INSEG    CODE           ?PR?SOFT_IIC_SCCB_WRITE_REGISTER?ZF_DRIVER_SOFT_IIC
   *DEL*:           00004CH   BYTE   INSEG    CODE           ?PR?SOFT_IIC_READ_8BIT?ZF_DRIVER_SOFT_IIC
   *DEL*:           0000BAH   BYTE   INSEG    CODE           ?PR?SOFT_IIC_READ_8BIT_ARRAY?ZF_DRIVER_SOFT_IIC
   *DEL*:           000082H   BYTE   INSEG    CODE           ?PR?SOFT_IIC_WRITE_16BIT_REGISTER?ZF_DRIVER_SOFT_IIC
   *DEL*:           000043H   BYTE   INSEG    CODE           ?PR?SOFT_IIC_WRITE_8BIT?ZF_DRIVER_SOFT_IIC
   *DEL*:           000098H   BYTE   INSEG    CODE           ?PR?SOFT_IIC_WRITE_8BIT_ARRAY?ZF_DRIVER_SOFT_IIC
   *DEL*:           00006FH   BYTE   INSEG    CODE           ?PR?SOFT_IIC_READ_16BIT?ZF_DRIVER_SOFT_IIC
   *DEL*:           0000E1H   BYTE   INSEG    CODE           ?PR?SOFT_IIC_READ_16BIT_ARRAY?ZF_DRIVER_SOFT_IIC
   *DEL*:           0000A6H   BYTE   INSEG    CODE           ?PR?SOFT_IIC_INIT?ZF_DRIVER_SOFT_IIC
   *DEL*:           0000D7H   BYTE   INSEG    CODE           ?PR?SOFT_IIC_READ_8BIT_REGISTERS?ZF_DRIVER_SOFT_IIC
   *DEL*:           00005CH   BYTE   INSEG    CODE           ?PR?SOFT_IIC_WRITE_16BIT?ZF_DRIVER_SOFT_IIC
   *DEL*:           0000B4H   BYTE   INSEG    CODE           ?PR?SOFT_IIC_WRITE_16BIT_ARRAY?ZF_DRIVER_SOFT_IIC
   *DEL*:           000069H   BYTE   INSEG    CODE           ?PR?SOFT_IIC_READ_8BIT_REGISTER?ZF_DRIVER_SOFT_IIC
   *DEL*:           000130H   BYTE   INSEG    CODE           ?PR?SOFT_IIC_TRANSFER_8BIT_ARRAY?ZF_DRIVER_SOFT_IIC
   *DEL*:           0000A5H   BYTE   INSEG    CODE           ?PR?SOFT_IIC_WRITE_8BIT_REGISTERS?ZF_DRIVER_SOFT_IIC
   *DEL*:           000001H   BYTE   UNIT     XDATA          ?XD?SOFT_IIC_WRITE_8BIT?ZF_DRIVER_SOFT_IIC
   *DEL*:           000008H   BYTE   UNIT     XDATA          ?XD?SOFT_IIC_WRITE_8BIT_ARRAY?ZF_DRIVER_SOFT_IIC
   *DEL*:           000002H   BYTE   UNIT     XDATA          ?XD?SOFT_IIC_WRITE_16BIT?ZF_DRIVER_SOFT_IIC
   *DEL*:           000008H   BYTE   UNIT     XDATA          ?XD?SOFT_IIC_WRITE_16BIT_ARRAY?ZF_DRIVER_SOFT_IIC
   *DEL*:           000002H   BYTE   UNIT     XDATA          ?XD?SOFT_IIC_WRITE_8BIT_REGISTER?ZF_DRIVER_SOFT_IIC
   *DEL*:           000009H   BYTE   UNIT     XDATA          ?XD?SOFT_IIC_WRITE_8BIT_REGISTERS?ZF_DRIVER_SOFT_IIC
   *DEL*:           000004H   BYTE   UNIT     XDATA          ?XD?SOFT_IIC_WRITE_16BIT_REGISTER?ZF_DRIVER_SOFT_IIC
   *DEL*:           00000AH   BYTE   UNIT     XDATA          ?XD?SOFT_IIC_WRITE_16BIT_REGISTERS?ZF_DRIVER_SOFT_IIC
   *DEL*:           000001H   BYTE   UNIT     XDATA          ?XD?SOFT_IIC_READ_8BIT?ZF_DRIVER_SOFT_IIC
   *DEL*:           000008H   BYTE   UNIT     XDATA          ?XD?SOFT_IIC_READ_8BIT_ARRAY?ZF_DRIVER_SOFT_IIC
   *DEL*:           000002H   BYTE   UNIT     XDATA          ?XD?SOFT_IIC_READ_16BIT?ZF_DRIVER_SOFT_IIC
   *DEL*:           000008H   BYTE   UNIT     XDATA          ?XD?SOFT_IIC_READ_16BIT_ARRAY?ZF_DRIVER_SOFT_IIC
   *DEL*:           000002H   BYTE   UNIT     XDATA          ?XD?SOFT_IIC_READ_8BIT_REGISTER?ZF_DRIVER_SOFT_IIC
   *DEL*:           000009H   BYTE   UNIT     XDATA          ?XD?SOFT_IIC_READ_8BIT_REGISTERS?ZF_DRIVER_SOFT_IIC
L251 LINKER/LOCATER V4.66.93.0                                                        10/24/2025  21:07:56  PAGE 10


   *DEL*:           000004H   BYTE   UNIT     XDATA          ?XD?SOFT_IIC_READ_16BIT_REGISTER?ZF_DRIVER_SOFT_IIC
   *DEL*:           00000AH   BYTE   UNIT     XDATA          ?XD?SOFT_IIC_READ_16BIT_REGISTERS?ZF_DRIVER_SOFT_IIC
   *DEL*:           000010H   BYTE   UNIT     XDATA          ?XD?SOFT_IIC_TRANSFER_8BIT_ARRAY?ZF_DRIVER_SOFT_IIC
   *DEL*:           000010H   BYTE   UNIT     XDATA          ?XD?SOFT_IIC_TRANSFER_16BIT_ARRAY?ZF_DRIVER_SOFT_IIC
   *DEL*:           000002H   BYTE   UNIT     XDATA          ?XD?SOFT_IIC_SCCB_WRITE_REGISTER?ZF_DRIVER_SOFT_IIC
   *DEL*:           000002H   BYTE   UNIT     XDATA          ?XD?SOFT_IIC_SCCB_READ_REGISTER?ZF_DRIVER_SOFT_IIC
   *DEL*:           000009H   BYTE   UNIT     XDATA          ?XD?SOFT_IIC_INIT?ZF_DRIVER_SOFT_IIC
   *DEL*:           00023EH   BYTE   INSEG    CODE           ?PR?SOFT_SPI_INIT?ZF_DRIVER_SOFT_SPI
   *DEL*:           0000BBH   BYTE   INSEG    CODE           ?PR?SOFT_SPI_READ_8BIT_REGISTERS?ZF_DRIVER_SOFT_SPI
   *DEL*:           00004FH   BYTE   INSEG    CODE           ?PR?SOFT_SPI_WRITE_16BIT?ZF_DRIVER_SOFT_SPI
   *DEL*:           00010EH   BYTE   INSEG    CODE           ?PR?SOFT_SPI_8BIT_DATA_HANDLER?ZF_DRIVER_SOFT_SPI
   *DEL*:           0000A0H   BYTE   INSEG    CODE           ?PR?SOFT_SPI_WRITE_16BIT_ARRAY?ZF_DRIVER_SOFT_SPI
   *DEL*:           00005EH   BYTE   INSEG    CODE           ?PR?SOFT_SPI_READ_8BIT_REGISTER?ZF_DRIVER_SOFT_SPI
   *DEL*:           000102H   BYTE   INSEG    CODE           ?PR?SOFT_SPI_TRANSFER_8BIT?ZF_DRIVER_SOFT_SPI
   *DEL*:           0000ADH   BYTE   INSEG    CODE           ?PR?SOFT_SPI_WRITE_8BIT_REGISTERS?ZF_DRIVER_SOFT_SPI
   *DEL*:           00005AH   BYTE   INSEG    CODE           ?PR?SOFT_SPI_WRITE_8BIT_REGISTER?ZF_DRIVER_SOFT_SPI
   *DEL*:           0000B8H   BYTE   INSEG    CODE           ?PR?SOFT_SPI_READ_16BIT_REGISTERS?ZF_DRIVER_SOFT_SPI
   *DEL*:           000133H   BYTE   INSEG    CODE           ?PR?SOFT_SPI_16BIT_DATA_HANDLER?ZF_DRIVER_SOFT_SPI
   *DEL*:           00006AH   BYTE   INSEG    CODE           ?PR?SOFT_SPI_READ_16BIT_REGISTER?ZF_DRIVER_SOFT_SPI
   *DEL*:           000104H   BYTE   INSEG    CODE           ?PR?SOFT_SPI_TRANSFER_16BIT?ZF_DRIVER_SOFT_SPI
   *DEL*:           0000A7H   BYTE   INSEG    CODE           ?PR?SOFT_SPI_WRITE_16BIT_REGISTERS?ZF_DRIVER_SOFT_SPI
   *DEL*:           000051H   BYTE   INSEG    CODE           ?PR?SOFT_SPI_READ_8BIT?ZF_DRIVER_SOFT_SPI
   *DEL*:           0000AEH   BYTE   INSEG    CODE           ?PR?SOFT_SPI_READ_8BIT_ARRAY?ZF_DRIVER_SOFT_SPI
   *DEL*:           000060H   BYTE   INSEG    CODE           ?PR?SOFT_SPI_WRITE_16BIT_REGISTER?ZF_DRIVER_SOFT_SPI
   *DEL*:           00004BH   BYTE   INSEG    CODE           ?PR?SOFT_SPI_WRITE_8BIT?ZF_DRIVER_SOFT_SPI
   *DEL*:           0000A0H   BYTE   INSEG    CODE           ?PR?SOFT_SPI_WRITE_8BIT_ARRAY?ZF_DRIVER_SOFT_SPI
   *DEL*:           000026H   BYTE   INSEG    CODE           ?PR?SOFT_SPI_DELAY?ZF_DRIVER_SOFT_SPI
   *DEL*:           000056H   BYTE   INSEG    CODE           ?PR?SOFT_SPI_READ_16BIT?ZF_DRIVER_SOFT_SPI
   *DEL*:           0000B1H   BYTE   INSEG    CODE           ?PR?SOFT_SPI_READ_16BIT_ARRAY?ZF_DRIVER_SOFT_SPI
   *DEL*:           000004H   BYTE   UNIT     XDATA          ?XD?SOFT_SPI_DELAY?ZF_DRIVER_SOFT_SPI
   *DEL*:           000003H   BYTE   UNIT     XDATA          ?XD?SOFT_SPI_8BIT_DATA_HANDLER?ZF_DRIVER_SOFT_SPI
   *DEL*:           000005H   BYTE   UNIT     XDATA          ?XD?SOFT_SPI_16BIT_DATA_HANDLER?ZF_DRIVER_SOFT_SPI
   *DEL*:           000001H   BYTE   UNIT     XDATA          ?XD?SOFT_SPI_WRITE_8BIT?ZF_DRIVER_SOFT_SPI
   *DEL*:           000008H   BYTE   UNIT     XDATA          ?XD?SOFT_SPI_WRITE_8BIT_ARRAY?ZF_DRIVER_SOFT_SPI
   *DEL*:           000002H   BYTE   UNIT     XDATA          ?XD?SOFT_SPI_WRITE_16BIT?ZF_DRIVER_SOFT_SPI
   *DEL*:           000008H   BYTE   UNIT     XDATA          ?XD?SOFT_SPI_WRITE_16BIT_ARRAY?ZF_DRIVER_SOFT_SPI
   *DEL*:           000002H   BYTE   UNIT     XDATA          ?XD?SOFT_SPI_WRITE_8BIT_REGISTER?ZF_DRIVER_SOFT_SPI
   *DEL*:           000009H   BYTE   UNIT     XDATA          ?XD?SOFT_SPI_WRITE_8BIT_REGISTERS?ZF_DRIVER_SOFT_SPI
   *DEL*:           000004H   BYTE   UNIT     XDATA          ?XD?SOFT_SPI_WRITE_16BIT_REGISTER?ZF_DRIVER_SOFT_SPI
   *DEL*:           00000AH   BYTE   UNIT     XDATA          ?XD?SOFT_SPI_WRITE_16BIT_REGISTERS?ZF_DRIVER_SOFT_SPI
   *DEL*:           000001H   BYTE   UNIT     XDATA          ?XD?SOFT_SPI_READ_8BIT?ZF_DRIVER_SOFT_SPI
   *DEL*:           000008H   BYTE   UNIT     XDATA          ?XD?SOFT_SPI_READ_8BIT_ARRAY?ZF_DRIVER_SOFT_SPI
   *DEL*:           000001H   BYTE   UNIT     XDATA          ?XD?SOFT_SPI_READ_16BIT?ZF_DRIVER_SOFT_SPI
   *DEL*:           000008H   BYTE   UNIT     XDATA          ?XD?SOFT_SPI_READ_16BIT_ARRAY?ZF_DRIVER_SOFT_SPI
   *DEL*:           000002H   BYTE   UNIT     XDATA          ?XD?SOFT_SPI_READ_8BIT_REGISTER?ZF_DRIVER_SOFT_SPI
   *DEL*:           000009H   BYTE   UNIT     XDATA          ?XD?SOFT_SPI_READ_8BIT_REGISTERS?ZF_DRIVER_SOFT_SPI
   *DEL*:           000004H   BYTE   UNIT     XDATA          ?XD?SOFT_SPI_READ_16BIT_REGISTER?ZF_DRIVER_SOFT_SPI
   *DEL*:           00000AH   BYTE   UNIT     XDATA          ?XD?SOFT_SPI_READ_16BIT_REGISTERS?ZF_DRIVER_SOFT_SPI
   *DEL*:           00000CH   BYTE   UNIT     XDATA          ?XD?SOFT_SPI_TRANSFER_8BIT?ZF_DRIVER_SOFT_SPI
   *DEL*:           00000CH   BYTE   UNIT     XDATA          ?XD?SOFT_SPI_TRANSFER_16BIT?ZF_DRIVER_SOFT_SPI
   *DEL*:           000011H   BYTE   UNIT     XDATA          ?XD?SOFT_SPI_INIT?ZF_DRIVER_SOFT_SPI
   *DEL*:           00001BH   BYTE   INSEG    CODE           ?PR?SPI_WRITE_8BIT_REGISTER?ZF_DRIVER_SPI
   *DEL*:           00007FH   BYTE   INSEG    CODE           ?PR?SPI_READ_16BIT_REGISTERS?ZF_DRIVER_SPI
   *DEL*:           000057H   BYTE   INSEG    CODE           ?PR?SPI_READ_16BIT_REGISTER?ZF_DRIVER_SPI
   *DEL*:           0000C3H   BYTE   INSEG    CODE           ?PR?SPI_TRANSFER_16BIT?ZF_DRIVER_SPI
   *DEL*:           000060H   BYTE   INSEG    CODE           ?PR?SPI_WRITE_16BIT_REGISTERS?ZF_DRIVER_SPI
   *DEL*:           000005H   BYTE   INSEG    CODE           ?PR?SPI_READ_8BIT?ZF_DRIVER_SPI
   *DEL*:           000037H   BYTE   INSEG    CODE           ?PR?SPI_READ_8BIT_ARRAY?ZF_DRIVER_SPI
   *DEL*:           000045H   BYTE   INSEG    CODE           ?PR?SPI_WRITE_16BIT_REGISTER?ZF_DRIVER_SPI
   *DEL*:           000036H   BYTE   INSEG    CODE           ?PR?SPI_WRITE_8BIT_ARRAY?ZF_DRIVER_SPI
   *DEL*:           000021H   BYTE   INSEG    CODE           ?PR?SPI_READ_16BIT?ZF_DRIVER_SPI
   *DEL*:           000051H   BYTE   INSEG    CODE           ?PR?SPI_READ_16BIT_ARRAY?ZF_DRIVER_SPI
   *DEL*:           000044H   BYTE   INSEG    CODE           ?PR?SPI_READ_8BIT_REGISTERS?ZF_DRIVER_SPI
   *DEL*:           000056H   BYTE   INSEG    CODE           ?PR?SPI_READ_DAT?ZF_DRIVER_SPI
   *DEL*:           00004CH   BYTE   INSEG    CODE           ?PR?SPI_WRITE_16BIT_ARRAY?ZF_DRIVER_SPI
L251 LINKER/LOCATER V4.66.93.0                                                        10/24/2025  21:07:56  PAGE 11


   *DEL*:           000014H   BYTE   INSEG    CODE           ?PR?SPI_READ_8BIT_REGISTER?ZF_DRIVER_SPI
   *DEL*:           000077H   BYTE   INSEG    CODE           ?PR?SPI_TRANSFER_8BIT?ZF_DRIVER_SPI
   *DEL*:           000043H   BYTE   INSEG    CODE           ?PR?SPI_WRITE_8BIT_REGISTERS?ZF_DRIVER_SPI
   *DEL*:           000006H   BYTE   UNIT     XDATA          ?XD?SPI_WRITE_8BIT_ARRAY?ZF_DRIVER_SPI
   *DEL*:           000006H   BYTE   UNIT     XDATA          ?XD?SPI_WRITE_16BIT_ARRAY?ZF_DRIVER_SPI
   *DEL*:           000006H   BYTE   UNIT     XDATA          ?XD?SPI_WRITE_8BIT_REGISTERS?ZF_DRIVER_SPI
   *DEL*:           000002H   BYTE   UNIT     XDATA          ?XD?SPI_WRITE_16BIT_REGISTER?ZF_DRIVER_SPI
   *DEL*:           000008H   BYTE   UNIT     XDATA          ?XD?SPI_WRITE_16BIT_REGISTERS?ZF_DRIVER_SPI
   *DEL*:           000006H   BYTE   UNIT     XDATA          ?XD?SPI_READ_8BIT_ARRAY?ZF_DRIVER_SPI
   *DEL*:           000006H   BYTE   UNIT     XDATA          ?XD?SPI_READ_16BIT_ARRAY?ZF_DRIVER_SPI
   *DEL*:           000006H   BYTE   UNIT     XDATA          ?XD?SPI_READ_8BIT_REGISTERS?ZF_DRIVER_SPI
   *DEL*:           000002H   BYTE   UNIT     XDATA          ?XD?SPI_READ_16BIT_REGISTER?ZF_DRIVER_SPI
   *DEL*:           000008H   BYTE   UNIT     XDATA          ?XD?SPI_READ_16BIT_REGISTERS?ZF_DRIVER_SPI
   *DEL*:           00000AH   BYTE   UNIT     XDATA          ?XD?SPI_TRANSFER_8BIT?ZF_DRIVER_SPI
   *DEL*:           00000AH   BYTE   UNIT     XDATA          ?XD?SPI_TRANSFER_16BIT?ZF_DRIVER_SPI
   *DEL*:           000052H   BYTE   INSEG    CODE           ?PR?UART_WRITE_STRING?ZF_DRIVER_UART
   *DEL*:           000053H   BYTE   INSEG    CODE           ?PR?UART_READ_BYTE?ZF_DRIVER_UART
   *DEL*:           000104H   BYTE   UNIT     XDATA          ?XD?UART_WRITE_STRING?ZF_DRIVER_UART
   *DEL*:           00000FH   BYTE   INSEG    CODE           ?PR?SET_TOF_TYPE?ZF_DEVICE_TYPE
   *DEL*:           000043H   BYTE   INSEG    CODE           ?PR?SET_GPS_TYPE?ZF_DEVICE_TYPE
   *DEL*:           000043H   BYTE   INSEG    CODE           ?PR?SET_WIRELESS_TYPE?ZF_DEVICE_TYPE
   *DEL*:           000061H   BYTE   INSEG    CODE           ?PR?TFT180_DRAW_POINT?ZF_DEVICE_TFT180
   *DEL*:           0000F3H   BYTE   INSEG    CODE           ?PR?TFT180_SHOW_UINT16?ZF_DEVICE_TFT180
   *DEL*:           000109H   BYTE   INSEG    CODE           ?PR?TFT180_SHOW_INT32?ZF_DEVICE_TFT180
   *DEL*:           0001E8H   BYTE   INSEG    CODE           ?PR?TFT180_SHOW_WAVE?ZF_DEVICE_TFT180
   *DEL*:           0000C3H   BYTE   INSEG    CODE           ?PR?TFT180_SHOW_UINT8?ZF_DEVICE_TFT180
   *DEL*:           0000F3H   BYTE   INSEG    CODE           ?PR?TFT180_SHOW_INT8?ZF_DEVICE_TFT180
   *DEL*:           000002H   BYTE   UNIT     XDATA          ?XD?TFT180_DRAW_POINT?ZF_DEVICE_TFT180
   *DEL*:           000005H   BYTE   UNIT     XDATA          ?XD?TFT180_SHOW_INT8?ZF_DEVICE_TFT180
   *DEL*:           000005H   BYTE   UNIT     XDATA          ?XD?TFT180_SHOW_UINT8?ZF_DEVICE_TFT180
   *DEL*:           000008H   BYTE   UNIT     XDATA          ?XD?TFT180_SHOW_UINT16?ZF_DEVICE_TFT180
   *DEL*:           000028H   BYTE   UNIT     XDATA          ?XD?TFT180_SHOW_INT32?ZF_DEVICE_TFT180
   *DEL*:           00001CH   BYTE   UNIT     XDATA          ?XD?TFT180_SHOW_WAVE?ZF_DEVICE_TFT180
   *DEL*:           0001C4H   BYTE   INSEG    CODE           ?PR?IPS114_SHOW_FLOAT?ZF_DEVICE_IPS114
   *DEL*:           000061H   BYTE   INSEG    CODE           ?PR?IPS114_DRAW_POINT?ZF_DEVICE_IPS114
   *DEL*:           0000A9H   BYTE   INSEG    CODE           ?PR?IPS114_SHOW_STRING?ZF_DEVICE_IPS114
   *DEL*:           0000E0H   BYTE   INSEG    CODE           ?PR?IPS114_SHOW_CHAR?ZF_DEVICE_IPS114
   *DEL*:           0000F3H   BYTE   INSEG    CODE           ?PR?IPS114_SHOW_UINT16?ZF_DEVICE_IPS114
   *DEL*:           00000DH   BYTE   INSEG    CODE           ?PR?IPS114_SET_COLOR?ZF_DEVICE_IPS114
   *DEL*:           000109H   BYTE   INSEG    CODE           ?PR?IPS114_SHOW_INT32?ZF_DEVICE_IPS114
   *DEL*:           000133H   BYTE   INSEG    CODE           ?PR?IPS114_SHOW_INT16?ZF_DEVICE_IPS114
   *DEL*:           0001E8H   BYTE   INSEG    CODE           ?PR?IPS114_SHOW_WAVE?ZF_DEVICE_IPS114
   *DEL*:           000027H   BYTE   INSEG    CODE           ?PR?IPS114_SET_DIR?ZF_DEVICE_IPS114
   *DEL*:           0001D0H   BYTE   INSEG    CODE           ?PR?IPS114_SHOW_CHINESE?ZF_DEVICE_IPS114
   *DEL*:           00005AH   BYTE   INSEG    CODE           ?PR?IPS114_CLEAR?ZF_DEVICE_IPS114
   *DEL*:           0000C3H   BYTE   INSEG    CODE           ?PR?IPS114_SHOW_UINT8?ZF_DEVICE_IPS114
   *DEL*:           0000F3H   BYTE   INSEG    CODE           ?PR?IPS114_SHOW_INT8?ZF_DEVICE_IPS114
   *DEL*:           000016H   BYTE   INSEG    CODE           ?PR?IPS114_WRITE_INDEX?ZF_DEVICE_IPS114
   *DEL*:           0001CFH   BYTE   INSEG    CODE           ?PR?IPS114_SET_REGION?ZF_DEVICE_IPS114
   *DEL*:           00025AH   BYTE   INSEG    CODE           ?PR?IPS114_INIT?ZF_DEVICE_IPS114
   *DEL*:           000004H   BYTE   UNIT     XDATA          ?XD?IPS114_SET_REGION?ZF_DEVICE_IPS114
   *DEL*:           000002H   BYTE   UNIT     XDATA          ?XD?IPS114_CLEAR?ZF_DEVICE_IPS114
   *DEL*:           000002H   BYTE   UNIT     XDATA          ?XD?IPS114_DRAW_POINT?ZF_DEVICE_IPS114
   *DEL*:           000004H   BYTE   UNIT     XDATA          ?XD?IPS114_SHOW_CHAR?ZF_DEVICE_IPS114
   *DEL*:           000006H   BYTE   UNIT     XDATA          ?XD?IPS114_SHOW_STRING?ZF_DEVICE_IPS114
   *DEL*:           000005H   BYTE   UNIT     XDATA          ?XD?IPS114_SHOW_INT8?ZF_DEVICE_IPS114
   *DEL*:           000005H   BYTE   UNIT     XDATA          ?XD?IPS114_SHOW_UINT8?ZF_DEVICE_IPS114
   *DEL*:           000008H   BYTE   UNIT     XDATA          ?XD?IPS114_SHOW_INT16?ZF_DEVICE_IPS114
   *DEL*:           000008H   BYTE   UNIT     XDATA          ?XD?IPS114_SHOW_UINT16?ZF_DEVICE_IPS114
   *DEL*:           000028H   BYTE   UNIT     XDATA          ?XD?IPS114_SHOW_INT32?ZF_DEVICE_IPS114
   *DEL*:           000031H   BYTE   UNIT     XDATA          ?XD?IPS114_SHOW_FLOAT?ZF_DEVICE_IPS114
   *DEL*:           00001CH   BYTE   UNIT     XDATA          ?XD?IPS114_SHOW_WAVE?ZF_DEVICE_IPS114
   *DEL*:           000015H   BYTE   UNIT     XDATA          ?XD?IPS114_SHOW_CHINESE?ZF_DEVICE_IPS114
   *DEL*:           0001C4H   BYTE   INSEG    CODE           ?PR?IPS200_SHOW_FLOAT?ZF_DEVICE_IPS200
   *DEL*:           000061H   BYTE   INSEG    CODE           ?PR?IPS200_DRAW_POINT?ZF_DEVICE_IPS200
L251 LINKER/LOCATER V4.66.93.0                                                        10/24/2025  21:07:56  PAGE 12


   *DEL*:           0000A9H   BYTE   INSEG    CODE           ?PR?IPS200_SHOW_STRING?ZF_DEVICE_IPS200
   *DEL*:           0000E0H   BYTE   INSEG    CODE           ?PR?IPS200_SHOW_CHAR?ZF_DEVICE_IPS200
   *DEL*:           0000F3H   BYTE   INSEG    CODE           ?PR?IPS200_SHOW_UINT16?ZF_DEVICE_IPS200
   *DEL*:           00000DH   BYTE   INSEG    CODE           ?PR?IPS200_SET_COLOR?ZF_DEVICE_IPS200
   *DEL*:           000109H   BYTE   INSEG    CODE           ?PR?IPS200_SHOW_INT32?ZF_DEVICE_IPS200
   *DEL*:           000133H   BYTE   INSEG    CODE           ?PR?IPS200_SHOW_INT16?ZF_DEVICE_IPS200
   *DEL*:           0001E8H   BYTE   INSEG    CODE           ?PR?IPS200_SHOW_WAVE?ZF_DEVICE_IPS200
   *DEL*:           000007H   BYTE   INSEG    CODE           ?PR?IPS200_SET_DIR?ZF_DEVICE_IPS200
   *DEL*:           0001D0H   BYTE   INSEG    CODE           ?PR?IPS200_SHOW_CHINESE?ZF_DEVICE_IPS200
   *DEL*:           00005AH   BYTE   INSEG    CODE           ?PR?IPS200_CLEAR?ZF_DEVICE_IPS200
   *DEL*:           0000C3H   BYTE   INSEG    CODE           ?PR?IPS200_SHOW_UINT8?ZF_DEVICE_IPS200
   *DEL*:           0000F3H   BYTE   INSEG    CODE           ?PR?IPS200_SHOW_INT8?ZF_DEVICE_IPS200
   *DEL*:           000016H   BYTE   INSEG    CODE           ?PR?IPS200_WRITE_INDEX?ZF_DEVICE_IPS200
   *DEL*:           0000CCH   BYTE   INSEG    CODE           ?PR?IPS200_SET_REGION?ZF_DEVICE_IPS200
   *DEL*:           00025AH   BYTE   INSEG    CODE           ?PR?IPS200_INIT?ZF_DEVICE_IPS200
   *DEL*:           000004H   BYTE   UNIT     XDATA          ?XD?IPS200_SET_REGION?ZF_DEVICE_IPS200
   *DEL*:           000002H   BYTE   UNIT     XDATA          ?XD?IPS200_CLEAR?ZF_DEVICE_IPS200
   *DEL*:           000002H   BYTE   UNIT     XDATA          ?XD?IPS200_DRAW_POINT?ZF_DEVICE_IPS200
   *DEL*:           000004H   BYTE   UNIT     XDATA          ?XD?IPS200_SHOW_CHAR?ZF_DEVICE_IPS200
   *DEL*:           000006H   BYTE   UNIT     XDATA          ?XD?IPS200_SHOW_STRING?ZF_DEVICE_IPS200
   *DEL*:           000005H   BYTE   UNIT     XDATA          ?XD?IPS200_SHOW_INT8?ZF_DEVICE_IPS200
   *DEL*:           000005H   BYTE   UNIT     XDATA          ?XD?IPS200_SHOW_UINT8?ZF_DEVICE_IPS200
   *DEL*:           000008H   BYTE   UNIT     XDATA          ?XD?IPS200_SHOW_INT16?ZF_DEVICE_IPS200
   *DEL*:           000008H   BYTE   UNIT     XDATA          ?XD?IPS200_SHOW_UINT16?ZF_DEVICE_IPS200
   *DEL*:           000028H   BYTE   UNIT     XDATA          ?XD?IPS200_SHOW_INT32?ZF_DEVICE_IPS200
   *DEL*:           000031H   BYTE   UNIT     XDATA          ?XD?IPS200_SHOW_FLOAT?ZF_DEVICE_IPS200
   *DEL*:           00001CH   BYTE   UNIT     XDATA          ?XD?IPS200_SHOW_WAVE?ZF_DEVICE_IPS200
   *DEL*:           000015H   BYTE   UNIT     XDATA          ?XD?IPS200_SHOW_CHINESE?ZF_DEVICE_IPS200
   *DEL*:           00003FH   BYTE   INSEG    CODE           ?PR?DL1A_TIMEOUT_MICROSECONDS_TO_MCLKS?ZF_DEVICE_DL1A
   *DEL*:           000041H   BYTE   INSEG    CODE           ?PR?DL1A_TIMEOUT_MCLKS_TO_MICROSECONDS?ZF_DEVICE_DL1A
   *DEL*:           000083H   BYTE   INSEG    CODE           ?PR?DL1A_SET_SIGNAL_RATE_LIMIT?ZF_DEVICE_DL1A
   *DEL*:           000018H   BYTE   INSEG    CODE           ?PR?DL1A_DECODE_TIMEOUT?ZF_DEVICE_DL1A
   *DEL*:           000233H   BYTE   INSEG    CODE           ?PR?DL1A_GET_SPAD_INFO?ZF_DEVICE_DL1A
   *DEL*:           000038H   BYTE   INSEG    CODE           ?PR?DL1A_ENCODE_TIMEOUT?ZF_DEVICE_DL1A
   *DEL*:           00006AH   BYTE   INSEG    CODE           ?PR?DL1A_GET_SEQUENCE_STEP_ENABLES?ZF_DEVICE_DL1A
   *DEL*:           0000C7H   BYTE   INSEG    CODE           ?PR?DL1A_GET_DISTANCE?ZF_DEVICE_DL1A
   *DEL*:           0000BAH   BYTE   INSEG    CODE           ?PR?DL1A_PERFORM_SINGLE_REF_CALIBRATION?ZF_DEVICE_DL1A
   *DEL*:           00013CH   BYTE   INSEG    CODE           ?PR?DL1A_GET_SEQUENCE_STEP_TIMEOUTS?ZF_DEVICE_DL1A
   *DEL*:           000001H   BYTE   INSEG    CODE           ?PR?DL1A_INT_HANDLER?ZF_DEVICE_DL1A
   *DEL*:           00009BH   BYTE   INSEG    CODE           ?PR?DL1A_GET_MEASUREMENT_TIMING_BUDGET?ZF_DEVICE_DL1A
   *DEL*:           0001D4H   BYTE   INSEG    CODE           ?PR?DL1A_SET_MEASUREMENT_TIMING_BUDGET?ZF_DEVICE_DL1A
   *DEL*:           0004C9H   BYTE   INSEG    CODE           ?PR?DL1A_INIT?ZF_DEVICE_DL1A
   *DEL*:           000086H   BYTE   INSEG    CODE           ?PR?DL1A_GET_VCSEL_PULSE_PERIOD?ZF_DEVICE_DL1A
   *DEL*:           000008H   BYTE   UNIT     XDATA          ?XD?DL1A_GET_SPAD_INFO?ZF_DEVICE_DL1A
   *DEL*:           000001H   BYTE   UNIT     XDATA          ?XD?DL1A_GET_SEQUENCE_STEP_ENABLES?ZF_DEVICE_DL1A
   *DEL*:           000001H   BYTE   UNIT     XDATA          ?XD?DL1A_GET_VCSEL_PULSE_PERIOD?ZF_DEVICE_DL1A
   *DEL*:           000008H   BYTE   UNIT     XDATA          ?XD?DL1A_GET_SEQUENCE_STEP_TIMEOUTS?ZF_DEVICE_DL1A
   *DEL*:           000003H   BYTE   UNIT     XDATA          ?XD?DL1A_PERFORM_SINGLE_REF_CALIBRATION?ZF_DEVICE_DL1A
   *DEL*:           00002BH   BYTE   UNIT     XDATA          ?XD?DL1A_SET_MEASUREMENT_TIMING_BUDGET?ZF_DEVICE_DL1A
   *DEL*:           00001BH   BYTE   UNIT     XDATA          ?XD?DL1A_GET_MEASUREMENT_TIMING_BUDGET?ZF_DEVICE_DL1A
   *DEL*:           000003H   BYTE   UNIT     XDATA          ?XD?DL1A_SET_SIGNAL_RATE_LIMIT?ZF_DEVICE_DL1A
   *DEL*:           000003H   BYTE   UNIT     XDATA          ?XD?DL1A_GET_DISTANCE?ZF_DEVICE_DL1A
   *DEL*:           0000CAH   BYTE   UNIT     XDATA          ?XD?DL1A_INIT?ZF_DEVICE_DL1A
   *DEL*:           00005EH   BYTE   INSEG    CODE           ?PR?BLE6A20_READ_BUFFER?ZF_DEVICE_BLE6A20
   *DEL*:           0000CFH   BYTE   INSEG    CODE           ?PR?BLE6A20_SEND_BUFFER?ZF_DEVICE_BLE6A20
   *DEL*:           00003FH   BYTE   INSEG    CODE           ?PR?BLE6A20_SEND_STRING?ZF_DEVICE_BLE6A20
   *DEL*:           000026H   BYTE   INSEG    CODE           ?PR?BLE6A20_CALLBACK?ZF_DEVICE_BLE6A20
   *DEL*:           000087H   BYTE   INSEG    CODE           ?PR?BLE6A20_INIT?ZF_DEVICE_BLE6A20
   *DEL*:           000044H   BYTE   INSEG    CODE           ?PR?BLE6A20_SEND_BYTE?ZF_DEVICE_BLE6A20
   *DEL*:           000008H   BYTE   UNIT     XDATA          ?XD?BLE6A20_SEND_BUFFER?ZF_DEVICE_BLE6A20
   *DEL*:           000004H   BYTE   UNIT     XDATA          ?XD?BLE6A20_SEND_STRING?ZF_DEVICE_BLE6A20
   *DEL*:           000004H   BYTE   UNIT     XDATA          ?XD?BLE6A20_READ_BUFFER?ZF_DEVICE_BLE6A20
   *DEL*:           000001H   BYTE   UNIT     XDATA          ?XD?BLE6A20_CALLBACK?ZF_DEVICE_BLE6A20
   *DEL*:           0000CDH   BYTE   INSEG    CODE           ?PR?WIRELESS_UART_SEND_BUFFER?ZF_DEVICE_WIRELESS_UART
   *DEL*:           00003FH   BYTE   INSEG    CODE           ?PR?WIRELESS_UART_SEND_STRING?ZF_DEVICE_WIRELESS_UART
L251 LINKER/LOCATER V4.66.93.0                                                        10/24/2025  21:07:56  PAGE 13


   *DEL*:           000026H   BYTE   INSEG    CODE           ?PR?WIRELESS_UART_CALLBACK?ZF_DEVICE_WIRELESS_UART
   *DEL*:           00007AH   BYTE   INSEG    CODE           ?PR?WIRELESS_UART_INIT?ZF_DEVICE_WIRELESS_UART
   *DEL*:           000042H   BYTE   INSEG    CODE           ?PR?WIRELESS_UART_SEND_BYTE?ZF_DEVICE_WIRELESS_UART
   *DEL*:           00005EH   BYTE   INSEG    CODE           ?PR?WIRELESS_UART_READ_BUFFER?ZF_DEVICE_WIRELESS_UART
   *DEL*:           000008H   BYTE   UNIT     XDATA          ?XD?WIRELESS_UART_SEND_BUFFER?ZF_DEVICE_WIRELESS_UART
   *DEL*:           000004H   BYTE   UNIT     XDATA          ?XD?WIRELESS_UART_SEND_STRING?ZF_DEVICE_WIRELESS_UART
   *DEL*:           000004H   BYTE   UNIT     XDATA          ?XD?WIRELESS_UART_READ_BUFFER?ZF_DEVICE_WIRELESS_UART
   *DEL*:           000001H   BYTE   UNIT     XDATA          ?XD?WIRELESS_UART_CALLBACK?ZF_DEVICE_WIRELESS_UART
   *DEL*:           00001AH   BYTE   INSEG    CODE           ?PR?ICM20602_READ_REGISTER?ZF_DEVICE_ICM20602
   *DEL*:           00000CH   BYTE   INSEG    CODE           ?PR?ICM20602_WRITE_REGISTER?ZF_DEVICE_ICM20602
   *DEL*:           000021H   BYTE   INSEG    CODE           ?PR?ICM20602_SIMSPI_WR_BYTE?ZF_DEVICE_ICM20602
   *DEL*:           000031H   BYTE   INSEG    CODE           ?PR?ICM20602_SELF_CHECK?ZF_DEVICE_ICM20602
   *DEL*:           00003FH   BYTE   INSEG    CODE           ?PR?ICM20602_SIMSPI_R_REG_BYTES?ZF_DEVICE_ICM20602
   *DEL*:           000018H   BYTE   INSEG    CODE           ?PR?ICM20602_SIMSPI_R_REG_BYTE?ZF_DEVICE_ICM20602
   *DEL*:           000011H   BYTE   INSEG    CODE           ?PR?ICM20602_SIMSPI_W_REG_BYTE?ZF_DEVICE_ICM20602
   *DEL*:           0001B9H   BYTE   INSEG    CODE           ?PR?ICM20602_INIT?ZF_DEVICE_ICM20602
   *DEL*:           000054H   BYTE   INSEG    CODE           ?PR?ICM20602_GET_ACC?ZF_DEVICE_ICM20602
   *DEL*:           000016H   BYTE   INSEG    CODE           ?PR?ICM20602_READ_REGISTERS?ZF_DEVICE_ICM20602
   *DEL*:           000054H   BYTE   INSEG    CODE           ?PR?ICM20602_GET_GYRO?ZF_DEVICE_ICM20602
   *DEL*:           000004H   BYTE   UNIT     XDATA          ?XD?ICM20602_SIMSPI_R_REG_BYTES?ZF_DEVICE_ICM20602
   *DEL*:           000001H   BYTE   UNIT     XDATA          ?XD?ICM20602_READ_REGISTER?ZF_DEVICE_ICM20602
   *DEL*:           000006H   BYTE   UNIT     XDATA          ?XD?ICM20602_GET_ACC?ZF_DEVICE_ICM20602
   *DEL*:           000006H   BYTE   UNIT     XDATA          ?XD?ICM20602_GET_GYRO?ZF_DEVICE_ICM20602
   *DEL*:           000054H   BYTE   INSEG    CODE           ?PR?IMU660RA_GET_GYRO?ZF_DEVICE_IMU660RA
   *DEL*:           00001EH   BYTE   INSEG    CODE           ?PR?IMU660RA_READ_REGISTER?ZF_DEVICE_IMU660RA
   *DEL*:           000014H   BYTE   INSEG    CODE           ?PR?IMU660RA_WRITE_REGISTERS?ZF_DEVICE_IMU660RA
   *DEL*:           00000CH   BYTE   INSEG    CODE           ?PR?IMU660RA_WRITE_REGISTER?ZF_DEVICE_IMU660RA
   *DEL*:           000023H   BYTE   INSEG    CODE           ?PR?IMU660RA_SIMSPI_WR_BYTE?ZF_DEVICE_IMU660RA
   *DEL*:           000041H   BYTE   INSEG    CODE           ?PR?IMU660RA_SELF_CHECK?ZF_DEVICE_IMU660RA
   *DEL*:           00003FH   BYTE   INSEG    CODE           ?PR?IMU660RA_SIMSPI_R_REG_BYTES?ZF_DEVICE_IMU660RA
   *DEL*:           000039H   BYTE   INSEG    CODE           ?PR?IMU660RA_SIMSPI_W_REG_BYTES?ZF_DEVICE_IMU660RA
   *DEL*:           000011H   BYTE   INSEG    CODE           ?PR?IMU660RA_SIMSPI_W_REG_BYTE?ZF_DEVICE_IMU660RA
   *DEL*:           0001E0H   BYTE   INSEG    CODE           ?PR?IMU660RA_INIT?ZF_DEVICE_IMU660RA
   *DEL*:           000054H   BYTE   INSEG    CODE           ?PR?IMU660RA_GET_ACC?ZF_DEVICE_IMU660RA
   *DEL*:           000079H   BYTE   INSEG    CODE           ?PR?IMU660RA_READ_REGISTERS?ZF_DEVICE_IMU660RA
   *DEL*:           000004H   BYTE   UNIT     XDATA          ?XD?IMU660RA_SIMSPI_W_REG_BYTES?ZF_DEVICE_IMU660RA
   *DEL*:           000004H   BYTE   UNIT     XDATA          ?XD?IMU660RA_SIMSPI_R_REG_BYTES?ZF_DEVICE_IMU660RA
   *DEL*:           000002H   BYTE   UNIT     XDATA          ?XD?IMU660RA_READ_REGISTER?ZF_DEVICE_IMU660RA
   *DEL*:           00000EH   BYTE   UNIT     XDATA          ?XD?IMU660RA_READ_REGISTERS?ZF_DEVICE_IMU660RA
   *DEL*:           000006H   BYTE   UNIT     XDATA          ?XD?IMU660RA_GET_ACC?ZF_DEVICE_IMU660RA
   *DEL*:           000006H   BYTE   UNIT     XDATA          ?XD?IMU660RA_GET_GYRO?ZF_DEVICE_IMU660RA
   *DEL*:           000054H   BYTE   INSEG    CODE           ?PR?IMU660RB_GET_GYRO?ZF_DEVICE_IMU660RB
   *DEL*:           00001AH   BYTE   INSEG    CODE           ?PR?IMU660RB_READ_REGISTER?ZF_DEVICE_IMU660RB
   *DEL*:           0000B1H   BYTE   INSEG    CODE           ?PR?IMU660RB_GYRO_TRANSITION?ZF_DEVICE_IMU660RB
   *DEL*:           00000CH   BYTE   INSEG    CODE           ?PR?IMU660RB_WRITE_REGISTER?ZF_DEVICE_IMU660RB
   *DEL*:           000023H   BYTE   INSEG    CODE           ?PR?IMU660RB_SIMSPI_WR_BYTE?ZF_DEVICE_IMU660RB
   *DEL*:           00002FH   BYTE   INSEG    CODE           ?PR?IMU660RB_SELF_CHECK?ZF_DEVICE_IMU660RB
   *DEL*:           00003FH   BYTE   INSEG    CODE           ?PR?IMU660RB_SIMSPI_R_REG_BYTES?ZF_DEVICE_IMU660RB
   *DEL*:           00001CH   BYTE   INSEG    CODE           ?PR?IMU660RB_SIMSPI_R_REG_BYTE?ZF_DEVICE_IMU660RB
   *DEL*:           000011H   BYTE   INSEG    CODE           ?PR?IMU660RB_SIMSPI_W_REG_BYTE?ZF_DEVICE_IMU660RB
   *DEL*:           00006AH   BYTE   INSEG    CODE           ?PR?IMU660RB_INIT?ZF_DEVICE_IMU660RB
   *DEL*:           000054H   BYTE   INSEG    CODE           ?PR?IMU660RB_GET_ACC?ZF_DEVICE_IMU660RB
   *DEL*:           000075H   BYTE   INSEG    CODE           ?PR?IMU660RB_ACC_TRANSITION?ZF_DEVICE_IMU660RB
   *DEL*:           000016H   BYTE   INSEG    CODE           ?PR?IMU660RB_READ_REGISTERS?ZF_DEVICE_IMU660RB
   *DEL*:           000004H   BYTE   UNIT     XDATA          ?XD?IMU660RB_SIMSPI_R_REG_BYTES?ZF_DEVICE_IMU660RB
   *DEL*:           000001H   BYTE   UNIT     XDATA          ?XD?IMU660RB_READ_REGISTER?ZF_DEVICE_IMU660RB
   *DEL*:           000006H   BYTE   UNIT     XDATA          ?XD?IMU660RB_GET_ACC?ZF_DEVICE_IMU660RB
   *DEL*:           000006H   BYTE   UNIT     XDATA          ?XD?IMU660RB_GET_GYRO?ZF_DEVICE_IMU660RB
   *DEL*:           000054H   BYTE   INSEG    CODE           ?PR?IMU963RA_GET_ACC?ZF_DEVICE_IMU963RA
   *DEL*:           00006BH   BYTE   INSEG    CODE           ?PR?IMU963RA_GET_MAG?ZF_DEVICE_IMU963RA
   *DEL*:           000006H   BYTE   UNIT     XDATA          ?XD?IMU963RA_GET_ACC?ZF_DEVICE_IMU963RA
   *DEL*:           000006H   BYTE   UNIT     XDATA          ?XD?IMU963RA_GET_MAG?ZF_DEVICE_IMU963RA
   *DEL*:           000094H   BYTE   INSEG    CODE           ?PR?GET_DOUBLE_NUMBER?ZF_DEVICE_GPS_TAU1201
   *DEL*:           00007DH   BYTE   INSEG    CODE           ?PR?GET_FLOAT_NUMBER?ZF_DEVICE_GPS_TAU1201
   *DEL*:           0000C5H   BYTE   INSEG    CODE           ?PR?UTC_TO_BTC?ZF_DEVICE_GPS_TAU1201
L251 LINKER/LOCATER V4.66.93.0                                                        10/24/2025  21:07:56  PAGE 14


   *DEL*:           000372H   BYTE   INSEG    CODE           ?PR?GET_TWO_POINTS_DISTANCE?ZF_DEVICE_GPS_TAU1201
   *DEL*:           0000D9H   BYTE   INSEG    CODE           ?PR?GPS_GNGGA_PARSE?ZF_DEVICE_GPS_TAU1201
   *DEL*:           0005A6H   BYTE   INSEG    CODE           ?PR?GPS_GNRMC_PARSE?ZF_DEVICE_GPS_TAU1201
   *DEL*:           000196H   BYTE   INSEG    CODE           ?PR?GPS_DATA_PARSE?ZF_DEVICE_GPS_TAU1201
   *DEL*:           00006EH   BYTE   INSEG    CODE           ?PR?GET_INT_NUMBER?ZF_DEVICE_GPS_TAU1201
   *DEL*:           000290H   BYTE   INSEG    CODE           ?PR?GPS_INIT?ZF_DEVICE_GPS_TAU1201
   *DEL*:           000077H   BYTE   INSEG    CODE           ?PR?GET_PARAMETER_INDEX?ZF_DEVICE_GPS_TAU1201
   *DEL*:           00055CH   BYTE   INSEG    CODE           ?PR?GET_TWO_POINTS_AZIMUTH?ZF_DEVICE_GPS_TAU1201
   *DEL*:           000184H   BYTE   INSEG    CODE           ?PR?GPS_UART_CALLBACK?ZF_DEVICE_GPS_TAU1201
   *DEL*:           000003H   BYTE   UNIT     XDATA          ?XD?GET_PARAMETER_INDEX?ZF_DEVICE_GPS_TAU1201
   *DEL*:           00000DH   BYTE   UNIT     XDATA          ?XD?GET_INT_NUMBER?ZF_DEVICE_GPS_TAU1201
   *DEL*:           000014H   BYTE   UNIT     XDATA          ?XD?GET_FLOAT_NUMBER?ZF_DEVICE_GPS_TAU1201
   *DEL*:           000018H   BYTE   UNIT     XDATA          ?XD?GET_DOUBLE_NUMBER?ZF_DEVICE_GPS_TAU1201
   *DEL*:           00003BH   BYTE   UNIT     XDATA          ?XD?GPS_GNRMC_PARSE?ZF_DEVICE_GPS_TAU1201
   *DEL*:           000009H   BYTE   UNIT     XDATA          ?XD?GPS_GNGGA_PARSE?ZF_DEVICE_GPS_TAU1201
   *DEL*:           000060H   BYTE   UNIT     XDATA          ?XD?GET_TWO_POINTS_DISTANCE?ZF_DEVICE_GPS_TAU1201
   *DEL*:           000038H   BYTE   UNIT     XDATA          ?XD?GET_TWO_POINTS_AZIMUTH?ZF_DEVICE_GPS_TAU1201
   *DEL*:           000008H   BYTE   UNIT     XDATA          ?XD?GPS_DATA_PARSE?ZF_DEVICE_GPS_TAU1201
   *DEL*:           00000BH   BYTE   UNIT     XDATA          ?XD?GPS_UART_CALLBACK?ZF_DEVICE_GPS_TAU1201
   *DEL*:           000095H   BYTE   UNIT     XDATA          ?XD?GPS_INIT?ZF_DEVICE_GPS_TAU1201
   *DEL*:           000075H   BYTE   INSEG    CODE           ?PR?TSL1401_SEND_DATA?ZF_DEVICE_TSL1401
   *DEL*:           00003DH   BYTE   INSEG    CODE           ?PR?TSL1401_INIT?ZF_DEVICE_TSL1401
   *DEL*:           00009BH   BYTE   INSEG    CODE           ?PR?TSL1401_COLLECT_PIT_HANDLER?ZF_DEVICE_TSL1401
   *DEL*:           00034DH   BYTE   INSEG    CODE           ?PR?SEEKFREE_ASSISTANT_CAMERA_BOUNDARY_CONFIG?SEEKFREE_ASS
                                                             -ISTANT
   *DEL*:           000101H   BYTE   INSEG    CODE           ?PR?SEEKFREE_ASSISTANT_CAMERA_DOT_SEND?SEEKFREE_ASSISTANT
   *DEL*:           000102H   BYTE   INSEG    CODE           ?PR?SEEKFREE_ASSISTANT_OSCILLOSCOPE_SEND?SEEKFREE_ASSISTAN
                                                             -T
   *DEL*:           00002EH   BYTE   INSEG    CODE           ?PR?SEEKFREE_ASSISTANT_INIT?SEEKFREE_ASSISTANT
   *DEL*:           000017H   BYTE   INSEG    CODE           ?PR?SEEKFREE_ASSISTANT_SUM?SEEKFREE_ASSISTANT
   *DEL*:           000037H   BYTE   INSEG    CODE           ?PR?SEEKFREE_ASSISTANT_CAMERA_INFORMATION_CONFIG?SEEKFREE_
                                                             -ASSISTANT
   *DEL*:           000265H   BYTE   INSEG    CODE           ?PR?SEEKFREE_ASSISTANT_DATA_ANALYSIS?SEEKFREE_ASSISTANT
   *DEL*:           00012AH   BYTE   INSEG    CODE           ?PR?SEEKFREE_ASSISTANT_CAMERA_DATA_SEND?SEEKFREE_ASSISTANT
   *DEL*:           00003FH   BYTE   INSEG    CODE           ?PR?SEEKFREE_ASSISTANT_CAMERA_SEND?SEEKFREE_ASSISTANT
   *DEL*:           00000AH   BYTE   UNIT     XDATA          ?XD?SEEKFREE_ASSISTANT_CAMERA_DATA_SEND?SEEKFREE_ASSISTANT
   *DEL*:           000002H   BYTE   UNIT     XDATA          ?XD?SEEKFREE_ASSISTANT_CAMERA_INFORMATION_CONFIG?SEEKFREE_
                                                             -ASSISTANT
   *DEL*:           000024H   BYTE   UNIT     XDATA          ?XD?SEEKFREE_ASSISTANT_OSCILLOSCOPE_SEND?SEEKFREE_ASSISTAN
                                                             -T
   *DEL*:           000003H   BYTE   UNIT     XDATA          ?XD?SEEKFREE_ASSISTANT_CAMERA_DOT_SEND?SEEKFREE_ASSISTANT
   *DEL*:           000014H   BYTE   UNIT     XDATA          ?XD?SEEKFREE_ASSISTANT_CAMERA_BOUNDARY_CONFIG?SEEKFREE_ASS
                                                             -ISTANT
   *DEL*:           000088H   BYTE   UNIT     XDATA          ?XD?SEEKFREE_ASSISTANT_DATA_ANALYSIS?SEEKFREE_ASSISTANT
   *DEL*:           000000H.1 BIT    UNIT     BIT            ?BI?SEEKFREE_ASSISTANT_DATA_ANALYSIS?SEEKFREE_ASSISTANT
   *DEL*:           00004DH   BYTE   INSEG    CODE           ?PR?SEEKFREE_ASSISTANT_INTERFACE_INIT?SEEKFREE_ASSISTANT_I
                                                             -NTERFACE
   *DEL*:           00007BH   BYTE   INSEG    CODE           ?PR?BATTERY_GET?ADC_GET
   *DEL*:           000002H   BYTE   UNIT     XDATA          ?XD?BATTERY_GET?ADC_GET
   *DEL*:           00008FH   BYTE   INSEG    CODE           ?PR?SVERO_UPDATE_SMOOTH?CONTROL
   *DEL*:           000030H   BYTE   INSEG    CODE           ?PR?EEPROM_READ_FLOAT?EEPROM
   *DEL*:           0000D0H   BYTE   INSEG    CODE           ?PR?EEPROM_SAVE_FLOAT?EEPROM
   *DEL*:           000056H   BYTE   INSEG    CODE           ?PR?EEPROM_READ_NUM?EEPROM
   *DEL*:           000089H   BYTE   INSEG    CODE           ?PR?EEPROM_SAVE_NUM?EEPROM
   *DEL*:           000200H   BYTE   UNIT     XDATA          ?XD?EEPROM_SAVE_NUM?EEPROM
   *DEL*:           000000H.1 BIT    UNIT     BIT            ?BI?EEPROM_SAVE_NUM?EEPROM
   *DEL*:           000200H   BYTE   UNIT     XDATA          ?XD?EEPROM_READ_NUM?EEPROM
   *DEL*:           000000H.1 BIT    UNIT     BIT            ?BI?EEPROM_READ_NUM?EEPROM
   *DEL*:           00020AH   BYTE   UNIT     XDATA          ?XD?EEPROM_SAVE_FLOAT?EEPROM
   *DEL*:           000000H.1 BIT    UNIT     BIT            ?BI?EEPROM_SAVE_FLOAT?EEPROM
   *DEL*:           000004H   BYTE   UNIT     XDATA          ?XD?EEPROM_READ_FLOAT?EEPROM
   *DEL*:           000000H.1 BIT    UNIT     BIT            ?BI?EEPROM_READ_FLOAT?EEPROM
   *DEL*:           0000C5H   BYTE   INSEG    CODE           ?PR?NORMAL_PID?FUNCTION
   *DEL*:           000004H   BYTE   UNIT     XDATA          ?XD?NORMAL_PID?FUNCTION
   *DEL*:           00002CH   BYTE   INSEG    CODE           ?PR?OLED_DISPLAYTURN?OLED
L251 LINKER/LOCATER V4.66.93.0                                                        10/24/2025  21:07:56  PAGE 15


   *DEL*:           0000DEH   BYTE   INSEG    CODE           ?PR?OLED_INIT?OLED
   *DEL*:           0000F5H   BYTE   INSEG    CODE           ?PR?OLED_SHOWSTRING?OLED
   *DEL*:           000070H   BYTE   INSEG    CODE           ?PR?OLED_WR_BYTE?OLED
   *DEL*:           0001BEH   BYTE   INSEG    CODE           ?PR?OLED_SHOWCHAR?OLED
   *DEL*:           00001EH   BYTE   INSEG    CODE           ?PR?OLED_COLORTURN?OLED
   *DEL*:           00002BH   BYTE   INSEG    CODE           ?PR?OLED_SET_POS?OLED
   *DEL*:           000017H   BYTE   INSEG    CODE           ?PR?DELAY_MS?OLED
   *DEL*:           0001C9H   BYTE   INSEG    CODE           ?PR?OLED_SHOWNUM?OLED
   *DEL*:           000017H   BYTE   INSEG    CODE           ?PR?OLED_POW?OLED
   *DEL*:           00010AH   BYTE   INSEG    CODE           ?PR?OLED_SHOWCHINESE?OLED
   *DEL*:           00003AH   BYTE   INSEG    CODE           ?PR?OLED_CLEAR?OLED
   *DEL*:           000006H   BYTE   UNIT     XDATA          ?XD?OLED_SHOWCHAR?OLED
   *DEL*:           000007H   BYTE   UNIT     XDATA          ?XD?OLED_SHOWNUM?OLED
   *DEL*:           000005H   BYTE   UNIT     XDATA          ?XD?OLED_SHOWSTRING?OLED
   *DEL*:           000005H   BYTE   UNIT     XDATA          ?XD?OLED_SHOWCHINESE?OLED
   *DEL*:           000053H   BYTE   INSEG    CODE           ?PR?HELP_TURN?STRATEGY
   *DEL*:           0000A3H   BYTE   INSEG    CODE           ?PR?HELP_TURN_TWO?STRATEGY
   *DEL*:           000241H   BYTE   INSEG    CODE           ?PR?HELP_TURN3?STRATEGY
   *DEL*:           000004H   BYTE   UNIT     XDATA          ?XD?HELP_TURN3?STRATEGY
   *DEL*:           000002H   BYTE   UNIT     XDATA          ?XD?HELP_TURN_TWO?STRATEGY
   *DEL*:           00019BH   BYTE   INSEG    CODE           ?PR?POW?_?POW
   *DEL*:           000037H   BYTE   INSEG    CODE           ?PR?STRNCMP?_?STRNCMP
   *DEL*:           000030H   BYTE   INSEG    CODE           ?PR?STRNCPY?_?STRNCPY
   *DEL*:           00000EH   BYTE   INSEG    CODE           ?PR?STRLEN?_?STRLEN
   *DEL*:           00001FH   BYTE   INSEG    CODE           ?PR?STRCHR?_?STRCHR
   *DEL*:           00001AH   BYTE   INSEG    CODE           ?PR?MEMSET?_?MEMSET



OVERLAY MAP OF MODULE:   .\out_file\SEEKFREE (ai8051u_isr)


FUNCTION/MODULE                               XDATA_GROUP
--> CALLED FUNCTION/MODULE                    START  STOP
=========================================================
?C_C51STARTUP                                 ----- -----

*** NEW ROOT ********************************

?C_C51STARTUP?3                               ----- -----
  +--> main/main

main/main                                     ----- -----
  +--> _m/main
  +--> SPRINTF/SPRINTF

_m/main                                       ----- -----
  +--> clock_init/zf_common_clock
  +--> debug_init/zf_common_debug
  +--> init_all/function
  +--> pit_handler1/main
  +--> GO_Function/function
  +--> menu_handle_key/menu
  +--> PWM_Test/Device_Test
  +--> Serve_Test/Device_Test
  +--> Set_Sevo/Device_Test
  +--> Turn_mode_Init/function

clock_init/zf_common_clock                    ----- -----
  +--> system_delay_init/zf_driver_delay
  +--> interrupt_global_enable/zf_common_interrupt

system_delay_init/zf_driver_delay             ----- -----
  +--> ?C?SLDIV/?C?SLDIV

L251 LINKER/LOCATER V4.66.93.0                                                        10/24/2025  21:07:56  PAGE 16


?C?SLDIV/?C?SLDIV                             ----- -----
  +--> ?C?ULIDIV/?C?ULDIV

?C?ULIDIV/?C?ULDIV                            ----- -----

interrupt_global_enable/zf_common_interr+     ----- -----
... upt

debug_init/zf_common_debug                    ----- -----
  +--> uart_init/zf_driver_uart
  +--> fifo_init/zf_common_fifo
  +--> uart_rx_interrupt/zf_driver_uart
  +--> debug_interrupr_handler/zf_common_debug

uart_init/zf_driver_uart                      100AH 100FH
  +--> uart_funciton_check/zf_driver_uart
  +--> debug_assert_handler/zf_common_debug
  +--> timer_funciton_check/zf_driver_timer
  +--> gpio_init/zf_driver_gpio
  +--> ?C?ULIDIV/?C?ULDIV
  +--> uart_dma_init/zf_driver_uart

uart_funciton_check/zf_driver_uart            ----- -----

debug_assert_handler/zf_common_debug          1049H 1058H
  +--> PRINTF/PRINTF
  +--> system_delay_ms/zf_driver_delay

PRINTF/PRINTF                                 1059H 1080H
  +--> OUT/PRINTF

OUT/PRINTF                                    ----- -----
  +--> PUTCH/PRINTF

PUTCH/PRINTF                                  ----- -----
  +--> putchar/zf_common_debug
  +--> OUT/PRINTF

putchar/zf_common_debug                       ----- -----
  +--> uart_write_byte/zf_driver_uart

uart_write_byte/zf_driver_uart                1081H 1081H
  +--> uart_write_buffer/zf_driver_uart

uart_write_buffer/zf_driver_uart              ----- -----

system_delay_ms/zf_driver_delay               ----- -----

timer_funciton_check/zf_driver_timer          ----- -----

gpio_init/zf_driver_gpio                      101AH 101CH
  +--> debug_assert_handler/zf_common_debug
  +--> gpio_set_dir/zf_driver_gpio
  +--> gpio_set_mode/zf_driver_gpio
  +--> gpio_set_impedance/zf_driver_gpio
  +--> gpio_set_level/zf_driver_gpio

gpio_set_dir/zf_driver_gpio                   ----- -----
  +--> debug_assert_handler/zf_common_debug

gpio_set_mode/zf_driver_gpio                  ----- -----
  +--> debug_assert_handler/zf_common_debug

gpio_set_impedance/zf_driver_gpio             ----- -----
  +--> debug_assert_handler/zf_common_debug
L251 LINKER/LOCATER V4.66.93.0                                                        10/24/2025  21:07:56  PAGE 17



gpio_set_level/zf_driver_gpio                 ----- -----
  +--> debug_assert_handler/zf_common_debug

uart_dma_init/zf_driver_uart                  ----- -----

fifo_init/zf_common_fifo                      100AH 1013H
  +--> debug_assert_handler/zf_common_debug

uart_rx_interrupt/zf_driver_uart              ----- -----

debug_interrupr_handler/zf_common_debug       100AH 100AH
  +--> uart_query_byte/zf_driver_uart
  +--> fifo_write_buffer/zf_common_fifo

uart_query_byte/zf_driver_uart                ----- -----
  +--> uart_rx_start_buff/zf_driver_uart

uart_rx_start_buff/zf_driver_uart             ----- -----

fifo_write_buffer/zf_common_fifo              100BH 1018H
  +--> debug_assert_handler/zf_common_debug
  +--> memcpy?_/memcpy
  +--> fifo_head_offset/zf_common_fifo

memcpy?_/memcpy                               ----- -----

fifo_head_offset/zf_common_fifo               ----- -----

init_all/function                             ----- -----
  +--> system_delay_ms/zf_driver_delay
  +--> Motor_Init/function
  +--> Servo_Init/function
  +--> interrupt_set_priority/zf_common_interrupt
  +--> Buzzer_Init/Buzzer
  +--> Buzzer_OFF/Buzzer
  +--> enconder_init/function
  +--> imu963ra_init/zf_device_imu963ra
  +--> ADC_GetInit/ADC_Get
  +--> tft180_init/zf_device_tft180
  +--> tft180_set_color/zf_device_tft180
  +--> menu_Init/menu
  +--> ?C?SLDIV/?C?SLDIV
  +--> pit_init/zf_driver_pit

Motor_Init/function                           ----- -----
  +--> pwm_init/zf_driver_pwm

pwm_init/zf_driver_pwm                        100AH 1017H
  +--> debug_assert_handler/zf_common_debug
  +--> gpio_init/zf_driver_gpio
  +--> ?C?ULIDIV/?C?ULDIV

Servo_Init/function                           ----- -----
  +--> pwm_init/zf_driver_pwm

interrupt_set_priority/zf_common_interru+     ----- -----
... pt

Buzzer_Init/Buzzer                            ----- -----
  +--> gpio_init/zf_driver_gpio

Buzzer_OFF/Buzzer                             ----- -----
  +--> gpio_set_level/zf_driver_gpio

L251 LINKER/LOCATER V4.66.93.0                                                        10/24/2025  21:07:56  PAGE 18


enconder_init/function                        ----- -----
  +--> encoder_dir_init/zf_driver_encoder

encoder_dir_init/zf_driver_encoder            100AH 100BH
  +--> timer_funciton_check/zf_driver_timer
  +--> debug_assert_handler/zf_common_debug
  +--> gpio_init/zf_driver_gpio

imu963ra_init/zf_device_imu963ra              ----- -----
  +--> system_delay_ms/zf_driver_delay
  +--> imu963ra_write_acc_gyro_register/zf_device_imu963ra
  +--> imu963ra_acc_gyro_self_check/zf_device_imu963ra
  +--> PRINTF/PRINTF
  +--> imu963ra_write_mag_register/zf_device_imu963ra
  +--> imu963ra_mag_self_check/zf_device_imu963ra
  +--> imu963ra_connect_mag/zf_device_imu963ra

imu963ra_write_acc_gyro_register/zf_devi+     ----- -----
... ce_imu963ra
  +--> imu963ra_simspi_w_reg_byte/zf_device_imu963ra

imu963ra_simspi_w_reg_byte/zf_device_imu+     ----- -----
... 963ra
  +--> imu963ra_simspi_wr_byte/zf_device_imu963ra

imu963ra_simspi_wr_byte/zf_device_imu963+     ----- -----
... ra

imu963ra_acc_gyro_self_check/zf_device_i+     ----- -----
... mu963ra
  +--> imu963ra_read_acc_gyro_register/zf_device_imu963ra
  +--> PRINTF/PRINTF
  +--> system_delay_ms/zf_driver_delay

imu963ra_read_acc_gyro_register/zf_devic+     100CH 100CH
... e_imu963ra
  +--> imu963ra_simspi_r_reg_byte/zf_device_imu963ra

imu963ra_simspi_r_reg_byte/zf_device_imu+     ----- -----
... 963ra
  +--> imu963ra_simspi_wr_byte/zf_device_imu963ra

imu963ra_write_mag_register/zf_device_im+     100AH 100BH
... u963ra
  +--> imu963ra_write_acc_gyro_register/zf_device_imu963ra
  +--> system_delay_ms/zf_driver_delay
  +--> imu963ra_read_acc_gyro_register/zf_device_imu963ra

imu963ra_mag_self_check/zf_device_imu963+     ----- -----
... ra
  +--> imu963ra_read_mag_register/zf_device_imu963ra
  +--> system_delay_ms/zf_driver_delay

imu963ra_read_mag_register/zf_device_imu+     ----- -----
... 963ra
  +--> imu963ra_write_acc_gyro_register/zf_device_imu963ra
  +--> system_delay_ms/zf_driver_delay
  +--> imu963ra_read_acc_gyro_register/zf_device_imu963ra

imu963ra_connect_mag/zf_device_imu963ra       ----- -----
  +--> imu963ra_write_acc_gyro_register/zf_device_imu963ra

ADC_GetInit/ADC_Get                           ----- -----
  +--> adc_init/zf_driver_adc

L251 LINKER/LOCATER V4.66.93.0                                                        10/24/2025  21:07:56  PAGE 19


adc_init/zf_driver_adc                        ----- -----

tft180_init/zf_device_tft180                  ----- -----
  +--> spi_init/zf_driver_spi
  +--> tft180_set_dir/zf_device_tft180
  +--> tft180_set_color/zf_device_tft180
  +--> system_delay_ms/zf_driver_delay
  +--> tft180_write_index/zf_device_tft180
  +--> spi_write_8bit/zf_driver_spi
  +--> tft180_clear/zf_device_tft180

spi_init/zf_driver_spi                        100AH 1019H
  +--> debug_assert_handler/zf_common_debug
  +--> gpio_init/zf_driver_gpio
  +--> gpio_set_level_speed/zf_driver_gpio
  +--> ?C?ULIDIV/?C?ULDIV
  +--> uart_funciton_check/zf_driver_uart

gpio_set_level_speed/zf_driver_gpio           ----- -----
  +--> debug_assert_handler/zf_common_debug

tft180_set_dir/zf_device_tft180               ----- -----

tft180_set_color/zf_device_tft180             ----- -----

tft180_write_index/zf_device_tft180           ----- -----
  +--> spi_write_8bit/zf_driver_spi

spi_write_8bit/zf_driver_spi                  ----- -----
  +--> spi_write_dat/zf_driver_spi

spi_write_dat/zf_driver_spi                   ----- -----
  +--> debug_assert_handler/zf_common_debug

tft180_clear/zf_device_tft180                 100AH 100DH
  +--> tft180_set_region/zf_device_tft180
  +--> spi_write_16bit/zf_driver_spi

tft180_set_region/zf_device_tft180            1045H 1048H
  +--> debug_assert_handler/zf_common_debug
  +--> tft180_write_index/zf_device_tft180
  +--> spi_write_16bit/zf_driver_spi

spi_write_16bit/zf_driver_spi                 ----- -----
  +--> spi_write_dat/zf_driver_spi

menu_Init/menu                                ----- -----
  +--> Menu_SetChildren/menu
  +--> Refesh_arrow/menu
  +--> menu_display_content/menu
  +--> Show_bujin/menu

Menu_SetChildren/menu                         ----- -----

Refesh_arrow/menu                             ----- -----
  +--> tft180_show_string/zf_device_tft180

tft180_show_string/zf_device_tft180           103BH 1040H
  +--> debug_assert_handler/zf_common_debug
  +--> tft180_show_char/zf_device_tft180

tft180_show_char/zf_device_tft180             1041H 1044H
  +--> debug_assert_handler/zf_common_debug
  +--> tft180_set_region/zf_device_tft180
  +--> spi_write_16bit/zf_driver_spi
L251 LINKER/LOCATER V4.66.93.0                                                        10/24/2025  21:07:56  PAGE 20



menu_display_content/menu                     ----- -----
  +--> tft180_show_string/zf_device_tft180
  +--> tft180_show_float/zf_device_tft180

tft180_show_float/zf_device_tft180            100AH 103AH
  +--> debug_assert_handler/zf_common_debug
  +--> zf_sprintf/zf_common_function
  +--> tft180_show_string/zf_device_tft180

zf_sprintf/zf_common_function                 103BH 109DH
  +--> number_conversion_ascii/zf_common_function
  +--> printf_reverse_order/zf_common_function
  +--> memcpy?_/memcpy

number_conversion_ascii/zf_common_functi+     109EH 109EH
... on
  +--> ?C?SLDIV/?C?SLDIV
  +--> ?C?ULIDIV/?C?ULDIV

printf_reverse_order/zf_common_function       ----- -----

Show_bujin/menu                               ----- -----
  +--> tft180_show_string/zf_device_tft180

pit_init/zf_driver_pit                        ----- -----
  +--> ?C?ULIDIV/?C?ULDIV

pit_handler1/main                             ----- -----
  +--> ADC_SampleAndFilter/ADC_Get
  +--> unification/function
  +--> Servo_turn_pid/control
  +--> if_Cycle/Strategy
  +--> Servo_Control/function
  +--> speed_control_ring/function
  +--> Speed_diff/control
  +--> State_of_road/Strategy
  +--> Speed_Control/function
  +--> Protect/function
  +--> Key_scaner/Key
  +--> Show_pararm/function
  +--> imu963ra_get_gyro/zf_device_imu963ra

ADC_SampleAndFilter/ADC_Get                   ----- -----
  +--> adc_convert/zf_driver_adc
  +--> adc_filter/ADC_Get

adc_convert/zf_driver_adc                     ----- -----

adc_filter/ADC_Get                            ----- -----
  +--> ?C?ULIDIV/?C?ULDIV

unification/function                          100AH 100FH
  +--> fast_sqrt/function

fast_sqrt/function                            1010H 1017H
  +--> memcpy?_/memcpy

Servo_turn_pid/control                        ----- -----

if_Cycle/Strategy                             ----- -----
  +--> Buzzer_OFF/Buzzer
  +--> Buzzer_ON/Buzzer
  +--> CAR_STOP/function

L251 LINKER/LOCATER V4.66.93.0                                                        10/24/2025  21:07:56  PAGE 21


Buzzer_ON/Buzzer                              ----- -----
  +--> gpio_set_level/zf_driver_gpio

CAR_STOP/function                             ----- -----
  +--> MotorL_SetSpeed/control
  +--> MotorR_SetSpeed/control
  +--> Ser_Servo_Duty/control

MotorL_SetSpeed/control                       ----- -----
  +--> pwm_set_duty/zf_driver_pwm

pwm_set_duty/zf_driver_pwm                    100EH 1019H
  +--> debug_assert_handler/zf_common_debug

MotorR_SetSpeed/control                       ----- -----
  +--> pwm_set_duty/zf_driver_pwm

Ser_Servo_Duty/control                        ----- -----
  +--> pwm_set_duty/zf_driver_pwm

Servo_Control/function                        ----- -----
  +--> pwm_set_duty/zf_driver_pwm
  +--> Help_turn2/Strategy

Help_turn2/Strategy                           100AH 100DH
  +--> pwm_set_duty/zf_driver_pwm

speed_control_ring/function                   ----- -----
  +--> encoder_get_count/zf_driver_encoder
  +--> encoder_clear_count/zf_driver_encoder

encoder_get_count/zf_driver_encoder           ----- -----
  +--> gpio_get_level/zf_driver_gpio

gpio_get_level/zf_driver_gpio                 ----- -----
  +--> debug_assert_handler/zf_common_debug

encoder_clear_count/zf_driver_encoder         ----- -----

Speed_diff/control                            ----- -----

State_of_road/Strategy                        ----- -----
  +--> Motor_Update_Smooth/control
  +--> Buzzer_OFF/Buzzer
  +--> Buzzer_ON/Buzzer
  +--> CAR_STOP/function

Motor_Update_Smooth/control                   ----- -----
  +--> Motor_Update/control

Motor_Update/control                          ----- -----
  +--> Motor_Left_pi_control/control
  +--> MotorL_SetSpeed/control
  +--> Motor_Right_pi_control/control
  +--> MotorR_SetSpeed/control

Motor_Left_pi_control/control                 ----- -----

Motor_Right_pi_control/control                ----- -----

Speed_Control/function                        ----- -----
  +--> Motor_Left_pi_control/control
  +--> MotorL_SetSpeed/control
  +--> Motor_Right_pi_control/control
  +--> MotorR_SetSpeed/control
L251 LINKER/LOCATER V4.66.93.0                                                        10/24/2025  21:07:56  PAGE 22



Protect/function                              ----- -----

Key_scaner/Key                                ----- -----
  +--> Key_Number/Key
  +--> Turn_mode/Key

Key_Number/Key                                ----- -----
  +--> gpio_get_level/zf_driver_gpio

Turn_mode/Key                                 ----- -----

Show_pararm/function                          ----- -----
  +--> tft180_show_string/zf_device_tft180
  +--> tft180_show_float/zf_device_tft180
  +--> tft180_show_int16/zf_device_tft180
  +--> unification/function

tft180_show_int16/zf_device_tft180            100AH 1011H
  +--> debug_assert_handler/zf_common_debug
  +--> tft180_show_char/zf_device_tft180

imu963ra_get_gyro/zf_device_imu963ra          100AH 100FH
  +--> imu963ra_read_acc_gyro_registers/zf_device_imu963ra

imu963ra_read_acc_gyro_registers/zf_devi+     ----- -----
... ce_imu963ra
  +--> imu963ra_simspi_r_reg_bytes/zf_device_imu963ra

imu963ra_simspi_r_reg_bytes/zf_device_im+     1010H 1013H
... u963ra
  +--> imu963ra_simspi_wr_byte/zf_device_imu963ra

GO_Function/function                          ----- -----
  +--> Turn_mode_Init/function

Turn_mode_Init/function                       ----- -----
  +--> CAR_STOP/function
  +--> Buzzer_OFF/Buzzer
  +--> show_test_info/function
  +--> Refesh_arrow/menu
  +--> menu_display_content/menu
  +--> Show_bujin/menu
  +--> PID_Update/control
  +--> Cycle_Update/control

show_test_info/function                       ----- -----
  +--> tft180_clear/zf_device_tft180
  +--> system_delay_ms/zf_driver_delay
  +--> tft180_show_string/zf_device_tft180

PID_Update/control                            ----- -----

Cycle_Update/control                          ----- -----

menu_handle_key/menu                          ----- -----
  +--> handle_key1/menu
  +--> handle_key2/menu
  +--> handle_key3/menu
  +--> handle_key4/menu
  +--> handle_key5/menu

handle_key1/menu                              ----- -----
  +--> tft180_show_string/zf_device_tft180
  +--> tft180_clear/zf_device_tft180
L251 LINKER/LOCATER V4.66.93.0                                                        10/24/2025  21:07:56  PAGE 23


  +--> menu_display_content/menu
  +--> Refesh_arrow/menu

handle_key2/menu                              ----- -----
  +--> Show_bujin/menu

handle_key3/menu                              ----- -----
  +--> Show_bujin/menu

handle_key4/menu                              ----- -----
  +--> menu_display_content/menu
  +--> tft180_show_string/zf_device_tft180
  +--> tft180_clear/zf_device_tft180
  +--> Refesh_arrow/menu

handle_key5/menu                              ----- -----
  +--> Key3_handle1/menu
  +--> Key3_handle2/menu

Key3_handle1/menu                             ----- -----
  +--> Refesh_arrow/menu

Key3_handle2/menu                             ----- -----
  +--> show_all_menu/menu
  +--> Refesh_arrow/menu

show_all_menu/menu                            ----- -----
  +--> tft180_clear/zf_device_tft180
  +--> Refesh_arrow/menu
  +--> menu_display_content/menu
  +--> Show_bujin/menu

PWM_Test/Device_Test                          ----- -----
  +--> MotorL_SetSpeed/control
  +--> MotorR_SetSpeed/control

Serve_Test/Device_Test                        ----- -----
  +--> Ser_Servo_Duty/control
  +--> system_delay_ms/zf_driver_delay

Set_Sevo/Device_Test                          ----- -----
  +--> Ser_Servo_Duty/control

SPRINTF/SPRINTF                               100AH 1031H
  +--> OUT/SPRINTF

OUT/SPRINTF                                   ----- -----
  +--> PUTCH/SPRINTF

PUTCH/SPRINTF                                 ----- -----

*** NEW ROOT ********************************

TM11_IRQHandler/isr                           ----- -----

*** NEW ROOT ********************************

DMA_UART1_IRQHandler/isr                      ----- -----
  +--> uart_rx_start_buff/zf_driver_uart

*** NEW ROOT ********************************

DMA_UART2_IRQHandler/isr                      ----- -----
  +--> uart_rx_start_buff/zf_driver_uart

L251 LINKER/LOCATER V4.66.93.0                                                        10/24/2025  21:07:56  PAGE 24


*** NEW ROOT ********************************

DMA_UART3_IRQHandler/isr                      ----- -----
  +--> uart_rx_start_buff/zf_driver_uart

*** NEW ROOT ********************************

DMA_UART4_IRQHandler/isr                      ----- -----
  +--> uart_rx_start_buff/zf_driver_uart

*** NEW ROOT ********************************

TM0_IRQHandler/isr                            ----- -----

*** NEW ROOT ********************************

TM1_IRQHandler/isr                            ----- -----

*** NEW ROOT ********************************

TM2_IRQHandler/isr                            ----- -----

*** NEW ROOT ********************************

TM3_IRQHandler/isr                            ----- -----

*** NEW ROOT ********************************

TM4_IRQHandler/isr                            ----- -----

*** NEW ROOT ********************************

?C_C51STARTUP?1                               ----- -----

*** NEW ROOT ********************************

?C_C51STARTUP?2                               ----- -----



PUBLIC SYMBOLS OF MODULE:  .\out_file\SEEKFREE (ai8051u_isr)


      VALUE       CLASS    TYPE      PUBLIC SYMBOL NAME
      =================================================
      00FF3919H   CODE     ---       ?C?BMOVEPP
      00FF3917H   CODE     ---       ?C?BMOVEPP8
      00FF259FH   CODE     NEAR LAB  ?C?CASTD
      00FF3807H   CODE     NEAR LAB  ?C?CASTF
      000000FFH   NUMBER   ---       ?C?CODESEG
      00FF255CH   CODE     NEAR LAB  ?C?DCASTC
      00FF25FFH   CODE     NEAR LAB  ?C?DCASTF
      00FF2557H   CODE     NEAR LAB  ?C?DCASTI
      00FF2552H   CODE     NEAR LAB  ?C?DCASTL
      00FF2FD3H   CODE     ---       ?C?DP2SERIES
      00FF2225H   CODE     ---       ?C?DPADD
      00FF24E5H   CODE     ---       ?C?DPCMP
      00FF24E3H   CODE     ---       ?C?DPCMP3
      00FF32BEH   CODE     ---       ?C?DPCONVERT
      00FF2444H   CODE     ---       ?C?DPDIV
      00FF2AF5H   CODE     ---       ?C?DPGETOPN2
      00FF2334H   CODE     ---       ?C?DPMUL
      00FF2B40H   CODE     ---       ?C?DPNANRESULT
      00FF2544H   CODE     ---       ?C?DPNEG
      00FF2B4CH   CODE     ---       ?C?DPOVERFLOW
L251 LINKER/LOCATER V4.66.93.0                                                        10/24/2025  21:07:56  PAGE 25


      00FF2B18H   CODE     ---       ?C?DPRESULT
      00FF2B31H   CODE     ---       ?C?DPRESULT2
      00FF33E5H   CODE     ---       ?C?DPROUND
      00FF2FDEH   CODE     ---       ?C?DPSERIES
      00FF2221H   CODE     ---       ?C?DPSUB
      00FF2B47H   CODE     ---       ?C?DPUNDERFLOW
      00FF34C0H   CODE     ---       ?C?DTNPWR
      00FF37D4H   CODE     NEAR LAB  ?C?FCASTC
      00FF2641H   CODE     NEAR LAB  ?C?FCASTD
      00FF37CFH   CODE     NEAR LAB  ?C?FCASTI
      00FF37CAH   CODE     NEAR LAB  ?C?FCASTL
      00FF359DH   CODE     ---       ?C?FPADD
      00FF3778H   CODE     ---       ?C?FPCMP
      00FF3776H   CODE     ---       ?C?FPCMP3
      00FF36F5H   CODE     ---       ?C?FPDIV
      00FF3546H   CODE     ---       ?C?FPGETOPN2
      00FF3655H   CODE     ---       ?C?FPMUL
      00FF3583H   CODE     ---       ?C?FPNANRESULT
      00FF37BCH   CODE     ---       ?C?FPNEG
      00FF358BH   CODE     ---       ?C?FPOVERFLOW
      00FF355FH   CODE     ---       ?C?FPRESULT
      00FF3575H   CODE     ---       ?C?FPRESULT2
      00FF359AH   CODE     ---       ?C?FPSUB
      00FF3588H   CODE     ---       ?C?FPUNDERFLOW
      00FFB249H   CODE     ---       ?C?INITHDATA
      00FFCD4BH   HCONST   WORD      ?C?INITHDATA_END
      00FF3887H   CODE     ---       ?C?LIMUL
      00FF3876H   CODE     ---       ?C?LMUL
      00FF2BA5H   CODE     ---       ?C?PRNFMT
      00FF3844H   CODE     ---       ?C?SIDIV
      00FF38E3H   CODE     NEAR LAB  ?C?SLDIV
      00FF0000H   CODE     ---       ?C?STARTUP
      00FF3892H   CODE     NEAR LAB  ?C?ULDIV
      00FF3890H   CODE     NEAR LAB  ?C?ULIDIV
      00000001H   NUMBER   ---       ?C?XDATASEG
      00FF0000H   CODE     ---       ?C_STARTUP
      00011006H   XDATA    BYTE      ?fifo_init?BYTE
*DEL*:1FFFFFFCH   XDATA    BYTE      ?fifo_read_buffer?BYTE
      00011007H   XDATA    BYTE      ?fifo_write_buffer?BYTE
*DEL*:1FFFFFFCH   XDATA    BYTE      ?func_double_to_str?BYTE
*DEL*:00000000H   XDATA    BYTE      ?get_two_points_azimuth?BYTE
*DEL*:00000000H   XDATA    BYTE      ?get_two_points_distance?BYTE
*DEL*:1FFFFFF8H   XDATA    BYTE      ?Help_turn3?BYTE
*DEL*:1FFFFFF8H   XDATA    BYTE      ?Help_turn_Two?BYTE
*DEL*:1FFFFFFCH   XDATA    BYTE      ?iap_read_buff?BYTE
*DEL*:1FFFFFFCH   XDATA    BYTE      ?iap_write_buff?BYTE
*DEL*:1FFFFFFCH   XDATA    BYTE      ?ips114_show_chinese?BYTE
*DEL*:1FFFFFFEH   XDATA    BYTE      ?ips114_show_float?BYTE
*DEL*:1FFFFFFCH   XDATA    BYTE      ?ips114_show_wave?BYTE
*DEL*:1FFFFFFCH   XDATA    BYTE      ?ips200_show_chinese?BYTE
*DEL*:1FFFFFFEH   XDATA    BYTE      ?ips200_show_float?BYTE
*DEL*:1FFFFFFCH   XDATA    BYTE      ?ips200_show_wave?BYTE
*DEL*:1FFFFFF8H   XDATA    BYTE      ?Normal_PID?BYTE
      00011081H   XDATA    ---       ?printf?BYTE
      00011008H   XDATA    BYTE      ?pwm_init?BYTE
*DEL*:1FFFFFFEH   XDATA    BYTE      ?pwm_set_freq?BYTE
*DEL*:1FFFFFF8H   XDATA    BYTE      ?seekfree_assistant_camera_boundary_config?BYTE
*DEL*:1FFFFFFBH   XDATA    BYTE      ?seekfree_assistant_camera_data_send?BYTE
*DEL*:1FFFFFF8H   XDATA    BYTE      ?seekfree_assistant_camera_information_config?BYTE
*DEL*:1FFFFFFCH   XDATA    BYTE      ?soft_iic_init?BYTE
*DEL*:1FFFFFFCH   XDATA    BYTE      ?soft_iic_read_16bit_array?BYTE
*DEL*:1FFFFFFCH   XDATA    BYTE      ?soft_iic_read_16bit_registers?BYTE
*DEL*:1FFFFFFCH   XDATA    BYTE      ?soft_iic_read_8bit_array?BYTE
*DEL*:1FFFFFFCH   XDATA    BYTE      ?soft_iic_read_8bit_registers?BYTE
*DEL*:1FFFFFFCH   XDATA    BYTE      ?soft_iic_transfer_16bit_array?BYTE
L251 LINKER/LOCATER V4.66.93.0                                                        10/24/2025  21:07:56  PAGE 26


*DEL*:1FFFFFFCH   XDATA    BYTE      ?soft_iic_transfer_8bit_array?BYTE
*DEL*:1FFFFFFCH   XDATA    BYTE      ?soft_iic_write_16bit_array?BYTE
*DEL*:1FFFFFFCH   XDATA    BYTE      ?soft_iic_write_16bit_registers?BYTE
*DEL*:1FFFFFFCH   XDATA    BYTE      ?soft_iic_write_8bit_array?BYTE
*DEL*:1FFFFFFCH   XDATA    BYTE      ?soft_iic_write_8bit_registers?BYTE
*DEL*:1FFFFFFCH   XDATA    BYTE      ?soft_spi_init?BYTE
*DEL*:1FFFFFFCH   XDATA    BYTE      ?soft_spi_read_16bit_array?BYTE
*DEL*:1FFFFFFCH   XDATA    BYTE      ?soft_spi_read_16bit_registers?BYTE
*DEL*:1FFFFFFCH   XDATA    BYTE      ?soft_spi_read_8bit_array?BYTE
*DEL*:1FFFFFFCH   XDATA    BYTE      ?soft_spi_read_8bit_registers?BYTE
*DEL*:1FFFFFFCH   XDATA    BYTE      ?soft_spi_transfer_16bit?BYTE
*DEL*:1FFFFFFCH   XDATA    BYTE      ?soft_spi_transfer_8bit?BYTE
*DEL*:1FFFFFFCH   XDATA    BYTE      ?soft_spi_write_16bit_array?BYTE
*DEL*:1FFFFFFCH   XDATA    BYTE      ?soft_spi_write_16bit_registers?BYTE
*DEL*:1FFFFFFCH   XDATA    BYTE      ?soft_spi_write_8bit_array?BYTE
*DEL*:1FFFFFFCH   XDATA    BYTE      ?soft_spi_write_8bit_registers?BYTE
      00011006H   XDATA    BYTE      ?spi_init?BYTE
*DEL*:1FFFFFFCH   XDATA    BYTE      ?spi_read_16bit_array?BYTE
*DEL*:1FFFFFFCH   XDATA    BYTE      ?spi_read_16bit_registers?BYTE
*DEL*:1FFFFFFCH   XDATA    BYTE      ?spi_read_8bit_array?BYTE
*DEL*:1FFFFFFBH   XDATA    BYTE      ?spi_read_8bit_registers?BYTE
*DEL*:1FFFFFFCH   XDATA    BYTE      ?spi_transfer_16bit?BYTE
*DEL*:1FFFFFFCH   XDATA    BYTE      ?spi_transfer_8bit?BYTE
*DEL*:1FFFFFFCH   XDATA    BYTE      ?spi_write_16bit_array?BYTE
*DEL*:1FFFFFFCH   XDATA    BYTE      ?spi_write_16bit_registers?BYTE
*DEL*:1FFFFFFCH   XDATA    BYTE      ?spi_write_8bit_array?BYTE
*DEL*:1FFFFFFBH   XDATA    BYTE      ?spi_write_8bit_registers?BYTE
      00011032H   XDATA    ---       ?sprintf?BYTE
      00011008H   XDATA    BYTE      ?tft180_show_float?BYTE
*DEL*:1FFFFFFCH   XDATA    BYTE      ?tft180_show_wave?BYTE
      00011006H   XDATA    BYTE      ?uart_init?BYTE
      00011063H   XDATA    BYTE      ?zf_sprintf?BYTE
      00FF2B5AH   CODE     ---       _chkdouble_?_
      00FFA04DH   CODE     ---       _m
*SFR* 000000D0H.6 DATA     BIT       AC
*SFR* 000000E0H   DATA     BYTE      ACC
      000111FCH   XDATA    WORD      Accel_Time
      00010A00H   XDATA    WORD      ADC_1
      00010A02H   XDATA    WORD      ADC_2
      00010A04H   XDATA    WORD      ADC_3
      00010A06H   XDATA    WORD      ADC_4
      00010A08H   XDATA    WORD      ADC_5
      00010A0AH   XDATA    WORD      ADC_6
      00010A28H   XDATA    WORD      ADC_8
*SFR* 000000BCH   DATA     BYTE      ADC_CONTR
      00FFBA27H   CODE     ---       adc_convert
      00FFA2FFH   CODE     ---       adc_filter
      00FFBAB3H   CODE     ---       ADC_GetInit
      00FFAB28H   CODE     ---       adc_init
*DEL*:00000000H   CODE     ---       adc_mean_filter_convert
      000111CEH   XDATA    ---       ADC_Num
*SFR* 000000BDH   DATA     BYTE      ADC_RES
*SFR* 000000BEH   DATA     BYTE      ADC_RESL
      00FF9525H   CODE     ---       ADC_SampleAndFilter
      00010F7AH   XDATA    BYTE      ADC_Show_Flag
*SFR* 000000DEH   DATA     BYTE      ADCCFG
      000111EBH   XDATA    INT       angle
      00FF3940H   CODE     ---       asc2_0806
      00FF3B68H   CODE     ---       asc2_1608
      00FF4E35H   CODE     ---       ascii_font_8x16
      00FF2ACBH   CODE     ---       asin?_
      00FF29B0H   CODE     ---       atan?_
*SFR* 000000EFH   DATA     BYTE      AUXINTIF
*SFR* 0000008EH   DATA     BYTE      AUXR
*SFR* 00000097H   DATA     BYTE      AUXR2
L251 LINKER/LOCATER V4.66.93.0                                                        10/24/2025  21:07:56  PAGE 27


*SFR* 000000F0H   DATA     BYTE      B
*DEL*:00000000H   CODE     ---       battery_get
      00000020H.0 BIT      BIT       Battery_Init
      00011202H   XDATA    WORD      Bend_Time
*DEL*:00000000H   CODE     ---       ble6a20_callback
*DEL*:00000000H   CODE     ---       ble6a20_init
*DEL*:00000000H   CODE     ---       ble6a20_read_buffer
*DEL*:00000000H   CODE     ---       ble6a20_send_buffer
*DEL*:00000000H   CODE     ---       ble6a20_send_byte
*DEL*:00000000H   CODE     ---       ble6a20_send_string
      00011294H   XDATA    FLOAT     bujin
      00FFBC92H   CODE     ---       Buzzer_Init
      00FFBCD3H   CODE     ---       Buzzer_OFF
      00FF01BEH   CODE     ---       Buzzer_ON
*SFR* 000000C8H.1 DATA     BIT       C_T2
      0001127DH   XDATA    BYTE      CAR_Mode
      00FFBC6FH   CODE     ---       CAR_STOP
*SFR* 000000FAH   DATA     BYTE      CCAP0H
*SFR* 000000EAH   DATA     BYTE      CCAP0L
*SFR* 000000FBH   DATA     BYTE      CCAP1H
*SFR* 000000EBH   DATA     BYTE      CCAP1L
*SFR* 000000FCH   DATA     BYTE      CCAP2H
*SFR* 000000ECH   DATA     BYTE      CCAP2L
*SFR* 000000FDH   DATA     BYTE      CCAP3H
*SFR* 000000EDH   DATA     BYTE      CCAP3L
*SFR* 000000FEH   DATA     BYTE      CCAP4H
*SFR* 000000EEH   DATA     BYTE      CCAP4L
*SFR* 000000DAH   DATA     BYTE      CCAPM0
*SFR* 000000DBH   DATA     BYTE      CCAPM1
*SFR* 000000DCH   DATA     BYTE      CCAPM2
*SFR* 000000DDH   DATA     BYTE      CCAPM3
*SFR* 000000DEH   DATA     BYTE      CCAPM4
*SFR* 000000D8H.0 DATA     BIT       CCF0
*SFR* 000000D8H.1 DATA     BIT       CCF1
*SFR* 000000D8H.2 DATA     BIT       CCF2
*SFR* 000000D8H.3 DATA     BIT       CCF3
*SFR* 000000D8H.4 DATA     BIT       CCF4
*SFR* 000000D8H   DATA     BYTE      CCON
*SFR* 00000090H.3 DATA     BIT       CEX0
*SFR* 00000090H.4 DATA     BIT       CEX1
*SFR* 00000090H.5 DATA     BIT       CEX2
*SFR* 00000090H.6 DATA     BIT       CEX3
*SFR* 00000090H.7 DATA     BIT       CEX4
*SFR* 000000D8H.7 DATA     BIT       CF
*SFR* 000000F9H   DATA     BYTE      CH
*SFR* 000000EAH   DATA     BYTE      CKCON
*SFR* 000000E9H   DATA     BYTE      CL
      00FF96E6H   CODE     ---       clock_init
*SFR* 000000D9H   DATA     BYTE      CMOD
*SFR* 000000E6H   DATA     BYTE      CMPCR1
*SFR* 000000E7H   DATA     BYTE      CMPCR2
      000111F7H   XDATA    WORD      Continue_Time
      00FF2818H   CODE     ---       cos?_
*SFR* 000000C8H.0 DATA     BIT       CP_RL2
*SFR* 000000D8H.6 DATA     BIT       CR
      00011275H   XDATA    FLOAT     Current_dajiao
      00011279H   XDATA    FLOAT     Current_Speed
*SFR* 000000D0H.7 DATA     BIT       CY
      00011204H   XDATA    BYTE      Cycle_Stat
      00FF8515H   CODE     ---       Cycle_Update
      00010FDBH   XDATA    INT       dajiao
      00FFAF73H   CODE     ---       debug_assert_handler
      00FFA58DH   CODE     ---       debug_init
      00FFB916H   CODE     ---       debug_interrupr_handler
*DEL*:00000000H   CODE     ---       debug_read_buffer
L251 LINKER/LOCATER V4.66.93.0                                                        10/24/2025  21:07:56  PAGE 28


*DEL*:00000000H   CODE     ---       debug_send_buffer
      0001109FH   XDATA    ---       debug_uart_buffer
      000110E0H   XDATA    ---       debug_uart_fifo
*DEL*:00000000H   CODE     ---       delay_ms
      000112FDH   XDATA    INT       delta_Speed
      0001128FH   XDATA    WORD      dl1a_distance_mm
      00011291H   XDATA    BYTE      dl1a_finsh_flag
*DEL*:00000000H   CODE     ---       dl1a_get_distance
*DEL*:00000000H   CODE     ---       dl1a_init
*DEL*:00000000H   CODE     ---       dl1a_int_handler
      00FFA44AH   CODE     ---       DMA_UART1_IRQHandler
      00FFA98DH   CODE     ---       DMA_UART2_IRQHandler
      00FFAA16H   CODE     ---       DMA_UART3_IRQHandler
      00FFAA9FH   CODE     ---       DMA_UART4_IRQHandler
*SFR* 00000083H   DATA     BYTE      DPH
*SFR* 00000082H   DATA     BYTE      DPL
*SFR* 00000084H   DATA     BYTE      DPXL
*SFR* 000000A8H.7 DATA     BIT       EA
*SFR* 000000A8H.6 DATA     BIT       EC
*SFR* 00000090H.2 DATA     BIT       ECI
*DEL*:00000000H   CODE     ---       eeprom_read_float
*DEL*:00000000H   CODE     ---       eeprom_read_Num
*DEL*:00000000H   CODE     ---       eeprom_save_float
*DEL*:00000000H   CODE     ---       eeprom_save_Num
*DEL*:00000000H   CODE     ---       eeprom_trig
      00FFA624H   CODE     ---       encoder_clear_count
      00010F74H   XDATA    INT       encoder_data_dir_1
      00010F76H   XDATA    INT       encoder_data_dir_2
      00FF923BH   CODE     ---       encoder_dir_init
      00FFA3A5H   CODE     ---       encoder_get_count
      00FF0026H   CODE     ---       enconder_init
      000111FBH   XDATA    BYTE      Enter_Flag_Left
      000111EDH   XDATA    WORD      Entern_Continue_Time
      000111F3H   XDATA    WORD      Entern_Delay_Time
      000111F9H   XDATA    WORD      Entern_Flag_Time
*SFR* 000000A8H.4 DATA     BIT       ES
*SFR* 000000A8H.1 DATA     BIT       ET0
*SFR* 000000A8H.3 DATA     BIT       ET1
*SFR* 000000A8H.5 DATA     BIT       ET2
*SFR* 000000A8H.0 DATA     BIT       EX0
*SFR* 000000A8H.2 DATA     BIT       EX1
*SFR* 000000C8H.3 DATA     BIT       EXEN2
*SFR* 000000C8H.6 DATA     BIT       EXF2
      00FF30BAH   CODE     ---       exp?_
*DEL*:00000000H   CODE     ---       extern_iap_write_buff
*SFR* 000000D0H.5 DATA     BIT       F0
      00FF9F9AH   CODE     ---       fast_sqrt
*SFR* 00000098H.7 DATA     BIT       FE
*DEL*:00000000H   CODE     ---       fifo_clear
      00FFAC33H   CODE     ---       fifo_init
*DEL*:00000000H   CODE     ---       fifo_read_buffer
*DEL*:00000000H   CODE     ---       fifo_used
      00FF6341H   CODE     ---       fifo_write_buffer
      000111DCH   XDATA    ---       filtered_adc
      0001129FH   XDATA    CHAR      Flag
*DEL*:00000000H   CODE     ---       func_double_to_str
*DEL*:00000000H   CODE     ---       func_float_to_str
*DEL*:00000000H   CODE     ---       func_get_greatest_common_divisor
*DEL*:00000000H   CODE     ---       func_hex_to_str
*DEL*:00000000H   CODE     ---       func_int_to_str
*DEL*:00000000H   CODE     ---       func_soft_delay
*DEL*:00000000H   CODE     ---       func_str_to_double
*DEL*:00000000H   CODE     ---       func_str_to_float
*DEL*:00000000H   CODE     ---       func_str_to_hex
*DEL*:00000000H   CODE     ---       func_str_to_int
L251 LINKER/LOCATER V4.66.93.0                                                        10/24/2025  21:07:56  PAGE 29


*DEL*:00000000H   CODE     ---       func_str_to_uint
*DEL*:00000000H   CODE     ---       func_uint_to_str
*DEL*:00000000H   CODE     ---       get_two_points_azimuth
*DEL*:00000000H   CODE     ---       get_two_points_distance
      00FFBCC3H   CODE     ---       GO_Function
      00010F78H   XDATA    BYTE      GO_PID_Control
      00010F7BH   XDATA    BYTE      GO_PID_Control1
      00010F7CH   XDATA    BYTE      GO_PID_Control2
      00010FA9H   XDATA    BYTE      GO_PID_Control3
      00FF00C6H   CODE     ---       gpio_get_level
      00FF9CB5H   CODE     ---       gpio_init
      00FF8C51H   CODE     ---       gpio_set_impedance
      00FF8845H   CODE     ---       gpio_set_level
      00FF73E3H   CODE     ---       gpio_set_level_speed
*DEL*:00000000H   CODE     ---       gpio_toggle_level
*DEL*:00000000H   CODE     ---       gps_data_parse
      00010E30H   XDATA    INT       gps_gga_state
*DEL*:00000000H   CODE     ---       gps_init
      00010E32H   XDATA    INT       gps_rmc_state
      00010CFCH   XDATA    ---       gps_tau1201
      00010C7BH   XDATA    BYTE      gps_tau1201_flag
      000112E7H   XDATA    INT       gps_type
*DEL*:00000000H   CODE     ---       gps_uart_callback
      00FF97C4H   CODE     ---       handle_key1
      00FFB664H   CODE     ---       handle_key2
      00FFB3D0H   CODE     ---       handle_key3
      00FF9BEEH   CODE     ---       handle_key4
      00FFBBE4H   CODE     ---       handle_key5
*DEL*:00000000H   CODE     ---       Help_turn
      00FF769CH   CODE     ---       Help_turn2
*DEL*:00000000H   CODE     ---       Help_turn3
*DEL*:00000000H   CODE     ---       Help_turn_Two
      00FF4158H   CODE     ---       Hzk
      0001129BH   XDATA    CHAR      i
*SFR* 000000F6H   DATA     BYTE      IAP_ADDRE
*SFR* 000000C3H   DATA     BYTE      IAP_ADDRH
*SFR* 000000C4H   DATA     BYTE      IAP_ADDRL
*SFR* 000000C5H   DATA     BYTE      IAP_CMD
*SFR* 000000C7H   DATA     BYTE      IAP_CONTR
*SFR* 000000C2H   DATA     BYTE      IAP_DATA
*DEL*:00000000H   CODE     ---       iap_erase_page
*DEL*:00000000H   CODE     ---       iap_get_cmd_state
*DEL*:00000000H   CODE     ---       iap_idle
*DEL*:00000000H   CODE     ---       iap_init
*DEL*:00000000H   CODE     ---       iap_read_buff
*DEL*:00000000H   CODE     ---       iap_read_byte
*DEL*:00000000H   CODE     ---       iap_set_tps
*SFR* 000000F5H   DATA     BYTE      IAP_TPS
*SFR* 000000C6H   DATA     BYTE      IAP_TRIG
*DEL*:00000000H   CODE     ---       iap_write_buff
*DEL*:00000000H   CODE     ---       iap_write_byte
      0001124DH   XDATA    INT       icm20602_acc_x
      0001124FH   XDATA    INT       icm20602_acc_y
      00011251H   XDATA    INT       icm20602_acc_z
*DEL*:00000000H   CODE     ---       icm20602_get_acc
*DEL*:00000000H   CODE     ---       icm20602_get_gyro
      00011253H   XDATA    INT       icm20602_gyro_x
      00011255H   XDATA    INT       icm20602_gyro_y
      00011257H   XDATA    INT       icm20602_gyro_z
*DEL*:00000000H   CODE     ---       icm20602_init
      00011259H   XDATA    ---       icm20602_transition_factor
*SFR* 000000A8H   DATA     BYTE      IE
*SFR* 000000A8H   DATA     BYTE      IE0
*SFR* 00000088H.1 DATA     BIT       IE0_
*SFR* 000000B1H   DATA     BYTE      IE1
L251 LINKER/LOCATER V4.66.93.0                                                        10/24/2025  21:07:56  PAGE 30


*SFR* 00000088H.3 DATA     BIT       IE1_
*SFR* 000000AFH   DATA     BYTE      IE2
      000111EFH   XDATA    WORD      if2_time
      00FF9347H   CODE     ---       if_Cycle
      000111FEH   XDATA    WORD      if_time
      00011261H   XDATA    INT       imu660ra_acc_x
      00011263H   XDATA    INT       imu660ra_acc_y
      00011265H   XDATA    INT       imu660ra_acc_z
      00FF021EH   CODE     ---       imu660ra_config_file
*DEL*:00000000H   CODE     ---       imu660ra_get_acc
*DEL*:00000000H   CODE     ---       imu660ra_get_gyro
      00011267H   XDATA    INT       imu660ra_gyro_x
      00011269H   XDATA    INT       imu660ra_gyro_y
      0001126BH   XDATA    INT       imu660ra_gyro_z
*DEL*:00000000H   CODE     ---       imu660ra_init
      0001126DH   XDATA    ---       imu660ra_transition_factor
*DEL*:00000000H   CODE     ---       imu660rb_acc_transition
      000112B8H   XDATA    INT       imu660rb_acc_x
      000112BAH   XDATA    INT       imu660rb_acc_y
      000112BCH   XDATA    INT       imu660rb_acc_z
*DEL*:00000000H   CODE     ---       imu660rb_get_acc
*DEL*:00000000H   CODE     ---       imu660rb_get_gyro
*DEL*:00000000H   CODE     ---       imu660rb_gyro_transition
      000112BEH   XDATA    INT       imu660rb_gyro_x
      000112C0H   XDATA    INT       imu660rb_gyro_y
      000112C2H   XDATA    INT       imu660rb_gyro_z
*DEL*:00000000H   CODE     ---       imu660rb_init
      0001122FH   XDATA    INT       imu963ra_acc_x
      00011231H   XDATA    INT       imu963ra_acc_y
      00011233H   XDATA    INT       imu963ra_acc_z
*DEL*:00000000H   CODE     ---       imu963ra_get_acc
      00FFB32AH   CODE     ---       imu963ra_get_gyro
*DEL*:00000000H   CODE     ---       imu963ra_get_mag
      0001123BH   XDATA    INT       imu963ra_gyro_x
      0001123DH   XDATA    INT       imu963ra_gyro_y
      0001123FH   XDATA    INT       imu963ra_gyro_z
      00FF7108H   CODE     ---       imu963ra_init
      00011235H   XDATA    INT       imu963ra_mag_x
      00011237H   XDATA    INT       imu963ra_mag_y
      00011239H   XDATA    INT       imu963ra_mag_z
      00011241H   XDATA    ---       imu963ra_transition_factor
      00FFAE20H   CODE     ---       init_all
      00010F79H   XDATA    BYTE      Init_Fg
      000112CEH   XDATA    BYTE      Init_Flag
*SFR* 000000B0H.2 DATA     BIT       INT0
      0001121DH   XDATA    ---       int0_irq_handler
*SFR* 000000B0H.3 DATA     BIT       INT1
      00011221H   XDATA    ---       int1_irq_handler
      00011225H   XDATA    ---       int2_irq_handler
      00011229H   XDATA    ---       int3_irq_handler
      0001122DH   XDATA    ---       int4_irq_handler
*SFR* 0000008FH   DATA     BYTE      INTCLKO
*DEL*:00000000H   CODE     ---       interrupt_global_disable
      00FF001EH   CODE     ---       interrupt_global_enable
      00FF9E2CH   CODE     ---       interrupt_set_priority
*SFR* 000000B8H   DATA     BYTE      IP
*SFR* 000000B5H   DATA     BYTE      IP2
*SFR* 000000B6H   DATA     BYTE      IP2H
*SFR* 000000DFH   DATA     BYTE      IP3
*SFR* 000000EEH   DATA     BYTE      IP3H
*SFR* 000000B7H   DATA     BYTE      IPH
*SFR* 000000B7H   DATA     BYTE      IPH0
*SFR* 000000B8H   DATA     BYTE      IPL0
      000112F3H   XDATA    WORD      ips114_bgcolor
*DEL*:00000000H   CODE     ---       ips114_clear
L251 LINKER/LOCATER V4.66.93.0                                                        10/24/2025  21:07:56  PAGE 31


      000112F5H   XDATA    INT       ips114_display_dir
*DEL*:00000000H   CODE     ---       ips114_draw_point
*DEL*:00000000H   CODE     ---       ips114_init
      000112F1H   XDATA    WORD      ips114_pencolor
*DEL*:00000000H   CODE     ---       ips114_set_color
*DEL*:00000000H   CODE     ---       ips114_set_dir
*DEL*:00000000H   CODE     ---       ips114_show_char
*DEL*:00000000H   CODE     ---       ips114_show_chinese
*DEL*:00000000H   CODE     ---       ips114_show_float
*DEL*:00000000H   CODE     ---       ips114_show_int16
*DEL*:00000000H   CODE     ---       ips114_show_int32
*DEL*:00000000H   CODE     ---       ips114_show_int8
*DEL*:00000000H   CODE     ---       ips114_show_string
*DEL*:00000000H   CODE     ---       ips114_show_uint16
*DEL*:00000000H   CODE     ---       ips114_show_uint8
*DEL*:00000000H   CODE     ---       ips114_show_wave
      000112F7H   XDATA    BYTE      ips114_x_max
      000112F8H   XDATA    BYTE      ips114_y_max
      000112D1H   XDATA    WORD      ips200_bgcolor
*DEL*:00000000H   CODE     ---       ips200_clear
      000112D3H   XDATA    INT       ips200_display_dir
*DEL*:00000000H   CODE     ---       ips200_draw_point
*DEL*:00000000H   CODE     ---       ips200_init
      000112CFH   XDATA    WORD      ips200_pencolor
*DEL*:00000000H   CODE     ---       ips200_set_color
*DEL*:00000000H   CODE     ---       ips200_set_dir
*DEL*:00000000H   CODE     ---       ips200_show_char
*DEL*:00000000H   CODE     ---       ips200_show_chinese
*DEL*:00000000H   CODE     ---       ips200_show_float
*DEL*:00000000H   CODE     ---       ips200_show_int16
*DEL*:00000000H   CODE     ---       ips200_show_int32
*DEL*:00000000H   CODE     ---       ips200_show_int8
*DEL*:00000000H   CODE     ---       ips200_show_string
*DEL*:00000000H   CODE     ---       ips200_show_uint16
*DEL*:00000000H   CODE     ---       ips200_show_uint8
*DEL*:00000000H   CODE     ---       ips200_show_wave
      000112D5H   XDATA    WORD      ips200_x_max
      000112D7H   XDATA    WORD      ips200_y_max
*SFR* 0000009DH   DATA     BYTE      IRCBAND
*SFR* 00000088H.0 DATA     BIT       IT0
*SFR* 00000088H.2 DATA     BIT       IT1
      0001129CH   XDATA    CHAR      j
      00011299H   XDATA    BYTE      Key
      0001129DH   XDATA    CHAR      Key3_count
      00FF01AEH   CODE     ---       Key3_handle1
      00FF9B20H   CODE     ---       Key3_handle2
      000112C9H   XDATA    BYTE      Key_count
      00010F71H   XDATA    BYTE      Key_Flag
      00FFB5DBH   CODE     ---       Key_Number
      00FF9121H   CODE     ---       Key_scaner
      000112CCH   XDATA    BYTE      keynumber
      000112CDH   XDATA    BYTE      last_keynumber
      00011282H   XDATA    FLOAT     Left_Speed
      00FF31A3H   CODE     NEAR LAB  log?_
      000111E4H   XDATA    WORD      Long_Time
      00010FDEH   XDATA    ---       M_left_pid
      00010F7DH   XDATA    ---       M_Right_pid
      00FF0066H   CODE     ---       MAIN
      00FFBB5EH   CODE     ---       memcpy?_
*DEL*:00000000H   CODE     ---       memset?_
      00FF8D97H   CODE     ---       menu_display_content
      00FFBA85H   CODE     ---       menu_handle_key
      00FFACB4H   CODE     ---       menu_Init
      00FF9A50H   CODE     ---       Menu_SetChildren
      00011298H   XDATA    CHAR      mode
L251 LINKER/LOCATER V4.66.93.0                                                        10/24/2025  21:07:56  PAGE 32


      00011200H   XDATA    INT       Mode_Flag
      00FFDC4BH   HCONST   ---       mode_map
      00FFB1C9H   CODE     ---       Motor_Init
      00FF9978H   CODE     ---       Motor_Left_pi_control
      00FF98A0H   CODE     ---       Motor_Right_pi_control
      00FFB505H   CODE     ---       Motor_Update
      00FFA4EFH   CODE     ---       Motor_Update_Smooth
      00FFB89CH   CODE     ---       MotorL_SetSpeed
      00FFB8D9H   CODE     ---       MotorR_SetSpeed
*DEL*:00000000H   CODE     ---       Normal_PID
      00010790H   XDATA    ---       Num
*DEL*:00000000H   CODE     ---       OLED_Clear
*DEL*:00000000H   CODE     ---       OLED_ColorTurn
*DEL*:00000000H   CODE     ---       OLED_DisplayTurn
*DEL*:00000000H   CODE     ---       OLED_Init
*DEL*:00000000H   CODE     ---       oled_pow
*DEL*:00000000H   CODE     ---       OLED_Set_Pos
*DEL*:00000000H   CODE     ---       OLED_ShowChar
*DEL*:00000000H   CODE     ---       OLED_ShowChinese
*DEL*:00000000H   CODE     ---       OLED_ShowNum
*DEL*:00000000H   CODE     ---       OLED_ShowString
*DEL*:00000000H   CODE     ---       OLED_WR_Byte
*SFR* 000000D0H.2 DATA     BIT       OV
*SFR* 000000D0H.0 DATA     BIT       P
*SFR* 00000080H   DATA     BYTE      P0
*SFR* 00000094H   DATA     BYTE      P0M0
*SFR* 00000093H   DATA     BYTE      P0M1
*SFR* 00000090H   DATA     BYTE      P1
*SFR* 00000092H   DATA     BYTE      P1M0
*SFR* 00000091H   DATA     BYTE      P1M1
*SFR* 000000A0H   DATA     BYTE      P2
*SFR* 000000A0H.0 DATA     BIT       P20
*SFR* 000000A0H.1 DATA     BIT       P21
*SFR* 000000A0H.2 DATA     BIT       P22
*SFR* 00000096H   DATA     BYTE      P2M0
*SFR* 00000095H   DATA     BYTE      P2M1
*SFR* 000000B0H   DATA     BYTE      P3
*SFR* 000000B2H   DATA     BYTE      P3M0
*SFR* 000000B1H   DATA     BYTE      P3M1
*SFR* 000000C0H   DATA     BYTE      P4
*SFR* 000000C0H.0 DATA     BIT       P40
*SFR* 000000C0H.1 DATA     BIT       P41
*SFR* 000000C0H.2 DATA     BIT       P42
*SFR* 000000C0H.3 DATA     BIT       P43
*SFR* 000000B4H   DATA     BYTE      P4M0
*SFR* 000000B3H   DATA     BYTE      P4M1
*SFR* 000000C8H   DATA     BYTE      P5
*SFR* 000000CAH   DATA     BYTE      P5M0
*SFR* 000000C9H   DATA     BYTE      P5M1
*SFR* 000000E8H   DATA     BYTE      P6
*SFR* 000000CCH   DATA     BYTE      P6M0
*SFR* 000000CBH   DATA     BYTE      P6M1
*SFR* 000000F8H   DATA     BYTE      P7
*SFR* 000000E2H   DATA     BYTE      P7M0
*SFR* 000000E1H   DATA     BYTE      P7M1
*SFR* 000000A2H   DATA     BYTE      P_SW1
*SFR* 000000BAH   DATA     BYTE      P_SW2
*SFR* 000000BBH   DATA     BYTE      P_SW3
*SFR* 000000BFH   DATA     BYTE      P_SW4
      00010000H   XDATA    ---       Page
      00010A0CH   XDATA    ---       Page0_children
      00010A1AH   XDATA    ---       Page1_children
      00010A2AH   XDATA    ---       Page2_children
      00010A38H   XDATA    ---       Page3_children
      00010A46H   XDATA    ---       Page4_children
L251 LINKER/LOCATER V4.66.93.0                                                        10/24/2025  21:07:56  PAGE 33


      00010A54H   XDATA    ---       Page5_children
*SFR* 00000087H   DATA     BYTE      PCON
      00FF7913H   CODE     ---       PID_Update
      0001078CH   XDATA    ---       Pin
      00FFA0FDH   CODE     ---       pit_handler1
      00FF7FA6H   CODE     ---       pit_init
*DEL*:00000000H   CODE     ---       pow?_
*SFR* 000000B8H.6 DATA     BIT       PPC
      000112C7H   XDATA    INT       Press_time
      00FF2678H   CODE     NEAR LAB  printf
      00FFB85EH   CODE     ---       Protect
      00010FDAH   XDATA    BYTE      Protect_flag
*SFR* 000000B8H.4 DATA     BIT       PS
*SFR* 000000D0H   DATA     BYTE      PSW
*SFR* 000000D1H   DATA     BYTE      PSW1
*SFR* 000000B8H.1 DATA     BIT       PT0
*SFR* 000000B8H.3 DATA     BIT       PT1
*SFR* 000000B8H.5 DATA     BIT       PT2
      00FFBCA3H   CODE     ---       putchar
      00FFDA7FH   HCONST   ---       PWM_ARR_ADDR
      00FFDA87H   HCONST   ---       PWM_CCER_ADDR
      00FFDA97H   HCONST   ---       PWM_CCMR_ADDR
      00FFDA5FH   HCONST   ---       PWM_CCR_ADDR
      00FF598CH   CODE     ---       pwm_init
      00FFDA57H   HCONST   ---       PWM_PSCR_ADDR
      00FF86B5H   CODE     ---       pwm_set_duty
*DEL*:00000000H   CODE     ---       pwm_set_freq
      00FFB9F4H   CODE     ---       PWM_Test
*SFR* 000000B8H.0 DATA     BIT       PX0
*SFR* 000000B8H.2 DATA     BIT       PX1
      000111A6H   XDATA    ---       raw_adc_data
*SFR* 00000098H.2 DATA     BIT       RB8
*SFR* 000000CBH   DATA     BYTE      RCAP2H
*SFR* 000000CAH   DATA     BYTE      RCAP2L
*SFR* 000000C8H.5 DATA     BIT       RCLK
*SFR* 000000B0H.7 DATA     BIT       RD
      00FFABB0H   CODE     ---       Refesh_arrow
*SFR* 00000098H.4 DATA     BIT       REN
*SFR* 00000098H.0 DATA     BIT       RI
      0001127EH   XDATA    FLOAT     Right_Speed
      000111E8H   XDATA    BYTE      Road_Stat
*SFR* 000000D0H.3 DATA     BIT       RS0
*SFR* 000000D0H.4 DATA     BIT       RS1
*SFR* 000000FFH   DATA     BYTE      RSTCFG
*SFR* 000000B0H.0 DATA     BIT       RXD
*SFR* 0000009BH   DATA     BYTE      S2BUF
*SFR* 0000009AH   DATA     BYTE      S2CON
*SFR* 0000009AH.1 DATA     BIT       S2TI
*SFR* 000000ACH   DATA     BYTE      S3CON
*SFR* 000000FDH   DATA     BYTE      S4CON
*SFR* 000000A9H   DATA     BYTE      SADDR
*SFR* 000000B9H   DATA     BYTE      SADEN
      0001129EH   XDATA    BYTE      Save_Flag
*SFR* 00000099H   DATA     BYTE      SBUF
*SFR* 00000098H   DATA     BYTE      SCON
*DEL*:00000000H   CODE     ---       seekfree_assistant_camera_boundary_config
*DEL*:00000000H   CODE     ---       seekfree_assistant_camera_data_send
*DEL*:00000000H   CODE     ---       seekfree_assistant_camera_dot_send
*DEL*:00000000H   CODE     ---       seekfree_assistant_camera_information_config
*DEL*:00000000H   CODE     ---       seekfree_assistant_camera_send
*DEL*:00000000H   CODE     ---       seekfree_assistant_data_analysis
*DEL*:00000000H   CODE     ---       seekfree_assistant_init
*DEL*:00000000H   CODE     ---       seekfree_assistant_interface_init
      00010E3CH   XDATA    ---       seekfree_assistant_oscilloscope_data
*DEL*:00000000H   CODE     ---       seekfree_assistant_oscilloscope_send
L251 LINKER/LOCATER V4.66.93.0                                                        10/24/2025  21:07:56  PAGE 34


      00010E7FH   XDATA    ---       seekfree_assistant_parameter
      00010E77H   XDATA    ---       seekfree_assistant_parameter_update_flag
      0001130EH   XDATA    ---       seekfree_assistant_receive_callback
      00011310H   XDATA    ---       seekfree_assistant_transfer_callback
      00FFBCB3H   CODE     ---       Ser_Servo_Duty
      00FFB2D4H   CODE     ---       Serve_Test
      00FFA1AAH   CODE     ---       Servo_Control
      00010FDDH   XDATA    BYTE      Servo_Flag
      00FF00A6H   CODE     ---       Servo_Init
      00010FAAH   XDATA    ---       servo_pid
      00FFA74DH   CODE     ---       Servo_turn_pid
*DEL*:00000000H   CODE     ---       set_gps_type
      00FFBBFEH   CODE     ---       Set_Sevo
      00010FD8H   XDATA    INT       Set_T
*DEL*:00000000H   CODE     ---       set_tof_type
*DEL*:00000000H   CODE     ---       set_wireless_type
      000111E6H   XDATA    WORD      Short_Time
      00FFBC81H   CODE     ---       show_all_menu
      00FFADA9H   CODE     ---       Show_bujin
      00011293H   XDATA    BYTE      Show_image_mode
      00FF5425H   CODE     ---       Show_pararm
      00FFBA57H   CODE     ---       show_test_info
      00FF2839H   CODE     ---       sin?_
      000111F5H   XDATA    WORD      SLOW_Time
*SFR* 00000098H.7 DATA     BIT       SM0
*SFR* 00000098H.6 DATA     BIT       SM1
*SFR* 00000098H.5 DATA     BIT       SM2
      00FFB988H   CODE     ---       soft_iic_delay
*DEL*:00000000H   CODE     ---       soft_iic_init
*DEL*:00000000H   CODE     ---       soft_iic_read_16bit
*DEL*:00000000H   CODE     ---       soft_iic_read_16bit_array
*DEL*:00000000H   CODE     ---       soft_iic_read_16bit_register
*DEL*:00000000H   CODE     ---       soft_iic_read_16bit_registers
*DEL*:00000000H   CODE     ---       soft_iic_read_8bit
*DEL*:00000000H   CODE     ---       soft_iic_read_8bit_array
*DEL*:00000000H   CODE     ---       soft_iic_read_8bit_register
*DEL*:00000000H   CODE     ---       soft_iic_read_8bit_registers
      00FF9EE6H   CODE     ---       soft_iic_read_data
*DEL*:00000000H   CODE     ---       soft_iic_sccb_read_register
*DEL*:00000000H   CODE     ---       soft_iic_sccb_write_register
      00FFAE95H   CODE     ---       soft_iic_send_ack
      00FFA7E1H   CODE     ---       soft_iic_send_data
      00FFB27DH   CODE     ---       soft_iic_start
      00FFB0A8H   CODE     ---       soft_iic_stop
*DEL*:00000000H   CODE     ---       soft_iic_transfer_16bit_array
*DEL*:00000000H   CODE     ---       soft_iic_transfer_8bit_array
      00FFAD30H   CODE     ---       soft_iic_wait_ack
*DEL*:00000000H   CODE     ---       soft_iic_write_16bit
*DEL*:00000000H   CODE     ---       soft_iic_write_16bit_array
*DEL*:00000000H   CODE     ---       soft_iic_write_16bit_register
*DEL*:00000000H   CODE     ---       soft_iic_write_16bit_registers
*DEL*:00000000H   CODE     ---       soft_iic_write_8bit
*DEL*:00000000H   CODE     ---       soft_iic_write_8bit_array
*DEL*:00000000H   CODE     ---       soft_iic_write_8bit_register
*DEL*:00000000H   CODE     ---       soft_iic_write_8bit_registers
*DEL*:00000000H   CODE     ---       soft_spi_delay
*DEL*:00000000H   CODE     ---       soft_spi_init
*DEL*:00000000H   CODE     ---       soft_spi_read_16bit
*DEL*:00000000H   CODE     ---       soft_spi_read_16bit_array
*DEL*:00000000H   CODE     ---       soft_spi_read_16bit_register
*DEL*:00000000H   CODE     ---       soft_spi_read_16bit_registers
*DEL*:00000000H   CODE     ---       soft_spi_read_8bit
*DEL*:00000000H   CODE     ---       soft_spi_read_8bit_array
*DEL*:00000000H   CODE     ---       soft_spi_read_8bit_register
*DEL*:00000000H   CODE     ---       soft_spi_read_8bit_registers
L251 LINKER/LOCATER V4.66.93.0                                                        10/24/2025  21:07:56  PAGE 35


*DEL*:00000000H   CODE     ---       soft_spi_transfer_16bit
*DEL*:00000000H   CODE     ---       soft_spi_transfer_8bit
*DEL*:00000000H   CODE     ---       soft_spi_write_16bit
*DEL*:00000000H   CODE     ---       soft_spi_write_16bit_array
*DEL*:00000000H   CODE     ---       soft_spi_write_16bit_register
*DEL*:00000000H   CODE     ---       soft_spi_write_16bit_registers
*DEL*:00000000H   CODE     ---       soft_spi_write_8bit
*DEL*:00000000H   CODE     ---       soft_spi_write_8bit_array
*DEL*:00000000H   CODE     ---       soft_spi_write_8bit_register
*DEL*:00000000H   CODE     ---       soft_spi_write_8bit_registers
*SFR* 00000081H   DATA     BYTE      SP
*SFR* 000000CEH   DATA     BYTE      SPCTL
*SFR* 000000CFH   DATA     BYTE      SPDAT
      00FFB94FH   CODE     ---       Speed_Control
      00FFBB0CH   CODE     ---       speed_control_ring
      00FF89B8H   CODE     ---       Speed_diff
      00010FD6H   XDATA    INT       Speed_Mode
      000112FFH   XDATA    BYTE      speed_update_flag
*SFR* 000000BEH   DATA     BYTE      SPH
      00FF5E9CH   CODE     ---       spi_init
*DEL*:00000000H   CODE     ---       spi_read_16bit
*DEL*:00000000H   CODE     ---       spi_read_16bit_array
*DEL*:00000000H   CODE     ---       spi_read_16bit_register
*DEL*:00000000H   CODE     ---       spi_read_16bit_registers
*DEL*:00000000H   CODE     ---       spi_read_8bit
*DEL*:00000000H   CODE     ---       spi_read_8bit_array
*DEL*:00000000H   CODE     ---       spi_read_8bit_register
*DEL*:00000000H   CODE     ---       spi_read_8bit_registers
*DEL*:00000000H   CODE     ---       spi_read_dat
*DEL*:00000000H   CODE     ---       spi_transfer_16bit
*DEL*:00000000H   CODE     ---       spi_transfer_8bit
      00FFBBA6H   CODE     ---       spi_write_16bit
*DEL*:00000000H   CODE     ---       spi_write_16bit_array
*DEL*:00000000H   CODE     ---       spi_write_16bit_register
*DEL*:00000000H   CODE     ---       spi_write_16bit_registers
      00FF0003H   CODE     ---       spi_write_8bit
*DEL*:00000000H   CODE     ---       spi_write_8bit_array
*DEL*:00000000H   CODE     ---       spi_write_8bit_register
*DEL*:00000000H   CODE     ---       spi_write_8bit_registers
      00FFB6A7H   CODE     ---       spi_write_dat
      00FF26A4H   CODE     NEAR LAB  sprintf
*SFR* 000000CDH   DATA     BYTE      SPSTAT
      00FF26CAH   CODE     ---       sqrt?_
      0001129AH   XDATA    CHAR      Start_Show_Row
      000112C4H   XDATA    BYTE      State
      00FF6B0BH   CODE     ---       State_of_road
*DEL*:00000000H   CODE     ---       strchr?_
*DEL*:00000000H   CODE     ---       strlen?_
*DEL*:00000000H   CODE     ---       strncmp?_
*DEL*:00000000H   CODE     ---       strncpy?_
*DEL*:00000000H   CODE     ---       Svero_Update_Smooth
      00011306H   XDATA    LONG      system_clock
      00FFB16CH   CODE     ---       system_delay_init
      00FFAF08H   CODE     ---       system_delay_ms
*DEL*:00000000H   CODE     ---       system_delay_us
      000112FBH   XDATA    INT       T
*SFR* 000000B0H.4 DATA     BIT       T0
*SFR* 000000B0H.5 DATA     BIT       T1
*SFR* 00000090H.0 DATA     BIT       T2
*SFR* 000000C8H   DATA     BYTE      T2CON
*SFR* 00000090H.1 DATA     BIT       T2EX
*SFR* 000000D6H   DATA     BYTE      T2H
*SFR* 000000D7H   DATA     BYTE      T2L
*SFR* 000000C9H   DATA     BYTE      T2MOD
      00010F72H   XDATA    INT       T3
L251 LINKER/LOCATER V4.66.93.0                                                        10/24/2025  21:07:56  PAGE 36


*SFR* 000000D4H   DATA     BYTE      T3H
*SFR* 000000D5H   DATA     BYTE      T3L
      000112F9H   XDATA    INT       T4
*SFR* 000000D2H   DATA     BYTE      T4H
*SFR* 000000D3H   DATA     BYTE      T4L
*SFR* 000000DDH   DATA     BYTE      T4T3M
      00FF286EH   CODE     ---       TAN?_
*SFR* 00000098H.3 DATA     BIT       TB8
*SFR* 000000C8H.4 DATA     BIT       TCLK
*SFR* 00000088H   DATA     BYTE      TCON
*SFR* 00000088H.5 DATA     BIT       TF0
*SFR* 00000088H.7 DATA     BIT       TF1
*SFR* 000000C8H.7 DATA     BIT       TF2
      000112EBH   XDATA    WORD      tft180_bgcolor
      00FFAFDBH   CODE     ---       tft180_clear
      000112EDH   XDATA    INT       tft180_display_dir
*DEL*:00000000H   CODE     ---       tft180_draw_point
      00FF6E2CH   CODE     ---       tft180_init
      000112E9H   XDATA    WORD      tft180_pencolor
      00FF000EH   CODE     ---       tft180_set_color
      00FFBB37H   CODE     ---       tft180_set_dir
      00FF9606H   CODE     ---       tft180_show_char
      00FF8351H   CODE     ---       tft180_show_float
      00FF8ECCH   CODE     ---       tft180_show_int16
*DEL*:00000000H   CODE     ---       tft180_show_int32
*DEL*:00000000H   CODE     ---       tft180_show_int8
      00FFA256H   CODE     ---       tft180_show_string
*DEL*:00000000H   CODE     ---       tft180_show_uint16
*DEL*:00000000H   CODE     ---       tft180_show_uint8
*DEL*:00000000H   CODE     ---       tft180_show_wave
      000112EFH   XDATA    BYTE      tft180_x_max
      000112F0H   XDATA    BYTE      tft180_y_max
*SFR* 0000008CH   DATA     BYTE      TH0
*SFR* 0000008DH   DATA     BYTE      TH1
*SFR* 000000CDH   DATA     BYTE      TH2
*SFR* 00000098H.1 DATA     BIT       TI
      0001121BH   XDATA    ---       tim0_irq_handler
      00011211H   XDATA    ---       tim11_irq_handler
      0001121FH   XDATA    ---       tim1_irq_handler
      00011223H   XDATA    ---       tim2_irq_handler
      00011227H   XDATA    ---       tim3_irq_handler
      0001122BH   XDATA    ---       tim4_irq_handler
      000112CAH   XDATA    WORD      Time_dou
      00FFB422H   CODE     ---       timer_funciton_check
*SFR* 0000008AH   DATA     BYTE      TL0
*SFR* 0000008BH   DATA     BYTE      TL1
*SFR* 000000CCH   DATA     BYTE      TL2
      00FFB728H   CODE     ---       TM0_IRQHandler
      00FFB4BAH   CODE     ---       TM11_IRQHandler
      00FFB766H   CODE     ---       TM1_IRQHandler
      00FFB7A4H   CODE     ---       TM2_IRQHandler
      00FFB7E2H   CODE     ---       TM3_IRQHandler
      00FFB820H   CODE     ---       TM4_IRQHandler
*SFR* 00000089H   DATA     BYTE      TMOD
      000112E1H   XDATA    ---       tof_module_exti_handler
      000112E5H   XDATA    INT       tof_type
*SFR* 00000088H.4 DATA     BIT       TR0
*SFR* 00000088H.6 DATA     BIT       TR1
*SFR* 000000C8H.2 DATA     BIT       TR2
      000112C5H   XDATA    INT       Trigg_time
*DEL*:00000000H   CODE     ---       tsl1401_collect_pit_handler
      00010A63H   XDATA    ---       tsl1401_data
      00010A62H   XDATA    BYTE      tsl1401_finish_flag
*DEL*:00000000H   CODE     ---       tsl1401_init
*DEL*:00000000H   CODE     ---       tsl1401_send_data
L251 LINKER/LOCATER V4.66.93.0                                                        10/24/2025  21:07:56  PAGE 37


      00FF9D71H   CODE     ---       Turn_mode
      00FF8181H   CODE     ---       Turn_mode_Init
      000111F1H   XDATA    INT       turn_Value
*SFR* 000000B0H.1 DATA     BIT       TXD
      00011213H   XDATA    ---       uart1_irq_handler
      00011215H   XDATA    ---       uart2_irq_handler
      00011217H   XDATA    ---       uart3_irq_handler
      00011219H   XDATA    ---       uart4_irq_handler
      00FF8B0AH   CODE     ---       uart_dma_init
      00FFB46EH   CODE     ---       uart_funciton_check
      00FF7B4BH   CODE     ---       uart_init
      00FFB10AH   CODE     ---       uart_query_byte
*DEL*:00000000H   CODE     ---       uart_read_byte
      000112B4H   XDATA    ---       uart_rx_buff
      00FFB596H   CODE     ---       uart_rx_interrupt
      00FFA872H   CODE     ---       uart_rx_start_buff
      00FF9443H   CODE     ---       uart_write_buffer
      00FFBC5BH   CODE     ---       uart_write_byte
*DEL*:00000000H   CODE     ---       uart_write_string
      00FFA902H   CODE     ---       unification
*SFR* 000000F4H   DATA     BYTE      USBCON
      000111E9H   XDATA    INT       Wait_Time
*SFR* 000000C1H   DATA     BYTE      WDT_CONTR
*SFR* 000000A6H   DATA     BYTE      WDTRST
      000112E3H   XDATA    INT       wireless_type
*DEL*:00000000H   CODE     ---       wireless_uart_callback
*DEL*:00000000H   CODE     ---       wireless_uart_init
*DEL*:00000000H   CODE     ---       wireless_uart_read_buffer
*DEL*:00000000H   CODE     ---       wireless_uart_send_buffer
*DEL*:00000000H   CODE     ---       wireless_uart_send_byte
*DEL*:00000000H   CODE     ---       wireless_uart_send_string
*SFR* 000000ABH   DATA     BYTE      WKTCH
*SFR* 000000B0H.6 DATA     BIT       WR
*SFR* 000000E9H   DATA     BYTE      WTST
      00FF4618H   CODE     ---       zf_sprintf



SYMBOL TABLE OF MODULE:  .\out_file\SEEKFREE (ai8051u_isr)

      VALUE       REP       CLASS    TYPE      SYMBOL NAME
      ====================================================
      ---         MODULE    ---      ---       ai8051u_isr

      00FF019BH   BLOCK     CODE     NEAR LAB  LVL=0
      00FF019BH   LINE      CODE     ---       #3
      ---         BLOCKEND  ---      ---       LVL=0

      00FF01ABH   BLOCK     CODE     NEAR LAB  LVL=0
      00FF01ABH   LINE      CODE     ---       #6
      ---         BLOCKEND  ---      ---       LVL=0

      00FF01BBH   BLOCK     CODE     NEAR LAB  LVL=0
      00FF01BBH   LINE      CODE     ---       #9
      ---         BLOCKEND  ---      ---       LVL=0

      00FF01CBH   BLOCK     CODE     NEAR LAB  LVL=0
      00FF01CBH   LINE      CODE     ---       #12
      ---         BLOCKEND  ---      ---       LVL=0

      00FF021BH   BLOCK     CODE     NEAR LAB  LVL=0
      00FF021BH   LINE      CODE     ---       #15
      ---         BLOCKEND  ---      ---       LVL=0

      ---         MODULE    ---      ---       zf_common_clock
L251 LINKER/LOCATER V4.66.93.0                                                        10/24/2025  21:07:56  PAGE 38


      00FF96E6H   PUBLIC    CODE     ---       clock_init
      00011306H   PUBLIC    XDATA    LONG      system_clock
      00000094H   SFRSYM    DATA     BYTE      P0M0
      000000D0H   SFRSYM    DATA     BYTE      PSW
      0000009DH   SFRSYM    DATA     BYTE      IRCBAND
      00000097H   SFRSYM    DATA     BYTE      AUXR2
      000000EAH   SFRSYM    DATA     BYTE      CKCON
      000000EFH   SFRSYM    DATA     BYTE      AUXINTIF
      000000FDH   SFRSYM    DATA     BYTE      S4CON
      000000ACH   SFRSYM    DATA     BYTE      S3CON
      0000009AH   SFRSYM    DATA     BYTE      S2CON
      000000B7H   SFRSYM    DATA     BYTE      IPH
      000000CDH   SFRSYM    DATA     BYTE      SPSTAT
      000000DDH   SFRSYM    DATA     BYTE      T4T3M
      000000C1H   SFRSYM    DATA     BYTE      WDT_CONTR
      000000E9H   SFRSYM    DATA     BYTE      WTST
      000000DFH   SFRSYM    DATA     BYTE      IP3
      000000F4H   SFRSYM    DATA     BYTE      USBCON
      000000B5H   SFRSYM    DATA     BYTE      IP2
      000000FFH   SFRSYM    DATA     BYTE      RSTCFG
      000000C7H   SFRSYM    DATA     BYTE      IAP_CONTR
      0000008EH   SFRSYM    DATA     BYTE      AUXR
      000000AFH   SFRSYM    DATA     BYTE      IE2
      00000088H   SFRSYM    DATA     BYTE      TCON
      00000089H   SFRSYM    DATA     BYTE      TMOD
      00000098H   SFRSYM    DATA     BYTE      SCON
      00000087H   SFRSYM    DATA     BYTE      PCON
      000000BCH   SFRSYM    DATA     BYTE      ADC_CONTR
      000000D1H   SFRSYM    DATA     BYTE      PSW1
      000000E7H   SFRSYM    DATA     BYTE      CMPCR2
      000000E6H   SFRSYM    DATA     BYTE      CMPCR1
      000000DEH   SFRSYM    DATA     BYTE      ADCCFG
      000000B8H   SFRSYM    DATA     BYTE      IP
      0000008FH   SFRSYM    DATA     BYTE      INTCLKO
      000000EEH   SFRSYM    DATA     BYTE      IP3H
      000000B6H   SFRSYM    DATA     BYTE      IP2H
      000000BFH   SFRSYM    DATA     BYTE      P_SW4
      000000A8H   SFRSYM    DATA     BYTE      IE
      000000BBH   SFRSYM    DATA     BYTE      P_SW3
      000000BAH   SFRSYM    DATA     BYTE      P_SW2
      000000A2H   SFRSYM    DATA     BYTE      P_SW1
      000000CEH   SFRSYM    DATA     BYTE      SPCTL
      000000F8H   SFRSYM    DATA     BYTE      P7
      000000E1H   SFRSYM    DATA     BYTE      P7M1
      000000E8H   SFRSYM    DATA     BYTE      P6
      000000C8H   SFRSYM    DATA     BYTE      P5
      000000CBH   SFRSYM    DATA     BYTE      P6M1
      000000E2H   SFRSYM    DATA     BYTE      P7M0
      000000C0H   SFRSYM    DATA     BYTE      P4
      000000C9H   SFRSYM    DATA     BYTE      P5M1
      000000CCH   SFRSYM    DATA     BYTE      P6M0
      000000ABH   SFRSYM    DATA     BYTE      WKTCH
      000000B0H   SFRSYM    DATA     BYTE      P3
      000000B3H   SFRSYM    DATA     BYTE      P4M1
      000000CAH   SFRSYM    DATA     BYTE      P5M0
      000000A0H   SFRSYM    DATA     BYTE      P2
      000000B1H   SFRSYM    DATA     BYTE      P3M1
      000000B4H   SFRSYM    DATA     BYTE      P4M0
      00000090H   SFRSYM    DATA     BYTE      P1
      00000095H   SFRSYM    DATA     BYTE      P2M1
      000000B2H   SFRSYM    DATA     BYTE      P3M0
      00000080H   SFRSYM    DATA     BYTE      P0
      00000091H   SFRSYM    DATA     BYTE      P1M1
      00000096H   SFRSYM    DATA     BYTE      P2M0
      00000092H   SFRSYM    DATA     BYTE      P1M0
L251 LINKER/LOCATER V4.66.93.0                                                        10/24/2025  21:07:56  PAGE 39


      00000093H   SFRSYM    DATA     BYTE      P0M1

      00FF96E6H   BLOCK     CODE     ---       LVL=0
      DR12        REGSYM    ---      DWORD     clock
      00FF96E6H   LINE      CODE     ---       #47
      00FF96EAH   LINE      CODE     ---       #49
      00FF96EDH   LINE      CODE     ---       #50
      00FF96F0H   LINE      CODE     ---       #51
      00FF96F3H   LINE      CODE     ---       #54
      00FF9700H   LINE      CODE     ---       #55
      00FF970EH   LINE      CODE     ---       #56
      00FF971AH   LINE      CODE     ---       #57
      00FF9727H   LINE      CODE     ---       #58
      00FF9733H   LINE      CODE     ---       #60
      00FF9736H   LINE      CODE     ---       #63
      00FF9740H   LINE      CODE     ---       #65
      00FF9743H   LINE      CODE     ---       #66
      00FF9746H   LINE      CODE     ---       #67
      00FF9749H   LINE      CODE     ---       #68
      00FF974CH   LINE      CODE     ---       #69
      00FF974FH   LINE      CODE     ---       #70
      00FF9752H   LINE      CODE     ---       #71
      00FF9755H   LINE      CODE     ---       #72
      00FF9758H   LINE      CODE     ---       #73
      00FF975BH   LINE      CODE     ---       #74
      00FF975EH   LINE      CODE     ---       #75
      00FF9761H   LINE      CODE     ---       #76
      00FF9764H   LINE      CODE     ---       #77
      00FF9767H   LINE      CODE     ---       #78
      00FF976AH   LINE      CODE     ---       #79
      00FF976DH   LINE      CODE     ---       #80
      00FF9770H   LINE      CODE     ---       #83
      00FF9773H   LINE      CODE     ---       #84
      00FF9776H   LINE      CODE     ---       #85
      00FF9779H   LINE      CODE     ---       #86
      00FF977CH   LINE      CODE     ---       #87
      00FF977FH   LINE      CODE     ---       #88
      00FF9782H   LINE      CODE     ---       #89
      00FF9785H   LINE      CODE     ---       #90
      00FF9788H   LINE      CODE     ---       #91
      00FF978BH   LINE      CODE     ---       #92
      00FF978EH   LINE      CODE     ---       #93
      00FF979AH   LINE      CODE     ---       #94
      00FF97A6H   LINE      CODE     ---       #96
      00FF97B2H   LINE      CODE     ---       #97
      00FF97BEH   LINE      CODE     ---       #100
      00FF97C1H   LINE      CODE     ---       #101
      ---         BLOCKEND  ---      ---       LVL=0

      ---         MODULE    ---      ---       zf_common_debug
      00FFB916H   PUBLIC    CODE     ---       debug_interrupr_handler
      00FFA58DH   PUBLIC    CODE     ---       debug_init
      00FFAF73H   PUBLIC    CODE     ---       debug_assert_handler
      00FFBCA3H   PUBLIC    CODE     ---       putchar
      0001109FH   PUBLIC    XDATA    ---       debug_uart_buffer
      000110E0H   PUBLIC    XDATA    ---       debug_uart_fifo
      000000D0H   SFRSYM    DATA     BYTE      PSW
      0000009DH   SFRSYM    DATA     BYTE      IRCBAND
      00000097H   SFRSYM    DATA     BYTE      AUXR2
      000000EFH   SFRSYM    DATA     BYTE      AUXINTIF
      000000FDH   SFRSYM    DATA     BYTE      S4CON
      000000ACH   SFRSYM    DATA     BYTE      S3CON
      0000009AH   SFRSYM    DATA     BYTE      S2CON
      000000B7H   SFRSYM    DATA     BYTE      IPH
      000000CDH   SFRSYM    DATA     BYTE      SPSTAT
L251 LINKER/LOCATER V4.66.93.0                                                        10/24/2025  21:07:56  PAGE 40


      000000DDH   SFRSYM    DATA     BYTE      T4T3M
      000000C1H   SFRSYM    DATA     BYTE      WDT_CONTR
      000000DFH   SFRSYM    DATA     BYTE      IP3
      000000F4H   SFRSYM    DATA     BYTE      USBCON
      000000B5H   SFRSYM    DATA     BYTE      IP2
      000000FFH   SFRSYM    DATA     BYTE      RSTCFG
      000000C7H   SFRSYM    DATA     BYTE      IAP_CONTR
      0000008EH   SFRSYM    DATA     BYTE      AUXR
      000000AFH   SFRSYM    DATA     BYTE      IE2
      00000088H   SFRSYM    DATA     BYTE      TCON
      00000089H   SFRSYM    DATA     BYTE      TMOD
      00000098H   SFRSYM    DATA     BYTE      SCON
      00000087H   SFRSYM    DATA     BYTE      PCON
      000000BCH   SFRSYM    DATA     BYTE      ADC_CONTR
      000000D1H   SFRSYM    DATA     BYTE      PSW1
      000000E7H   SFRSYM    DATA     BYTE      CMPCR2
      000000E6H   SFRSYM    DATA     BYTE      CMPCR1
      000000DEH   SFRSYM    DATA     BYTE      ADCCFG
      000000B8H   SFRSYM    DATA     BYTE      IP
      0000008FH   SFRSYM    DATA     BYTE      INTCLKO
      000000EEH   SFRSYM    DATA     BYTE      IP3H
      000000B6H   SFRSYM    DATA     BYTE      IP2H
      000000BFH   SFRSYM    DATA     BYTE      P_SW4
      000000A8H   SFRSYM    DATA     BYTE      IE
      000000BBH   SFRSYM    DATA     BYTE      P_SW3
      000000BAH   SFRSYM    DATA     BYTE      P_SW2
      000000A2H   SFRSYM    DATA     BYTE      P_SW1
      000000CEH   SFRSYM    DATA     BYTE      SPCTL
      000000F8H   SFRSYM    DATA     BYTE      P7
      000000E8H   SFRSYM    DATA     BYTE      P6
      000000C8H   SFRSYM    DATA     BYTE      P5
      000000C0H   SFRSYM    DATA     BYTE      P4
      000000ABH   SFRSYM    DATA     BYTE      WKTCH
      000000B0H   SFRSYM    DATA     BYTE      P3
      000000A0H   SFRSYM    DATA     BYTE      P2
      00000090H   SFRSYM    DATA     BYTE      P1
      00000080H   SFRSYM    DATA     BYTE      P0
      00FFDE4AH   SYMBOL    HCONST   ---       ?tpl?0001
      000110DFH   SYMBOL    XDATA    BYTE      zf_debug_assert_enable
      000110F7H   SYMBOL    XDATA    BYTE      zf_debug_init_flag
      DR12        REGSYM    ---      DWORD     len
      REG=2       REGSYM    ---      ---       buff

      00FFB916H   BLOCK     CODE     ---       LVL=0
      0001100AH   SYMBOL    XDATA    BYTE      dat
      00FFB916H   LINE      CODE     ---       #281
      00FFB91AH   LINE      CODE     ---       #283
      00FFB920H   LINE      CODE     ---       #285
      00FFB92DH   LINE      CODE     ---       #286
      00FFB94EH   LINE      CODE     ---       #287
      ---         BLOCKEND  ---      ---       LVL=0

      00FFBCA3H   BLOCK     CODE     ---       LVL=0
      R15         REGSYM    ---      CHAR      c
      00FFBCA3H   LINE      CODE     ---       #303
      00FFBCA7H   LINE      CODE     ---       #305
      00FFBCAEH   LINE      CODE     ---       #307
      00FFBCB0H   LINE      CODE     ---       #308
      ---         BLOCKEND  ---      ---       LVL=0

      00FFAF73H   BLOCK     CODE     ---       LVL=0
      00011049H   SYMBOL    XDATA    BYTE      pass
      REG=3       REGSYM    ---      ---       file
      0001104AH   SYMBOL    XDATA    INT       line
      00FFAF81H   BLOCK     CODE     NEAR LAB  LVL=1
L251 LINKER/LOCATER V4.66.93.0                                                        10/24/2025  21:07:56  PAGE 41


      0001104CH   SYMBOL    XDATA    ---       log_str
      ---         BLOCKEND  ---      ---       LVL=1
      00FFAF73H   LINE      CODE     ---       #346
      00FFAF81H   LINE      CODE     ---       #347
      00FFAF81H   LINE      CODE     ---       #348
      00FFAF96H   LINE      CODE     ---       #350
      00FFAF98H   LINE      CODE     ---       #366
      00FFAFCBH   LINE      CODE     ---       #369
      00FFAFD2H   LINE      CODE     ---       #370
      00FFAFD8H   LINE      CODE     ---       #371
      ---         BLOCKEND  ---      ---       LVL=0

      00FFA58DH   BLOCK     CODE     ---       LVL=0
      00FFA58FH   BLOCK     CODE     NEAR LAB  LVL=1
      R15         REGSYM    ---      BYTE      uartx
      ---         BLOCKEND  ---      ---       LVL=1
      00FFA58DH   LINE      CODE     ---       #453
      00FFA58FH   LINE      CODE     ---       #454
      00FFA58FH   LINE      CODE     ---       #455
      00FFA591H   LINE      CODE     ---       #461
      00FFA5ACH   LINE      CODE     ---       #468
      00FFA5D9H   LINE      CODE     ---       #469
      00FFA5E0H   LINE      CODE     ---       #472
      00FFA5E4H   LINE      CODE     ---       #474
      00FFA5EEH   LINE      CODE     ---       #475
      00FFA5F0H   LINE      CODE     ---       #476
      00FFA5F5H   LINE      CODE     ---       #478
      00FFA5FFH   LINE      CODE     ---       #479
      00FFA601H   LINE      CODE     ---       #480
      00FFA606H   LINE      CODE     ---       #482
      00FFA610H   LINE      CODE     ---       #483
      00FFA612H   LINE      CODE     ---       #484
      00FFA617H   LINE      CODE     ---       #486
      00FFA621H   LINE      CODE     ---       #487
      ---         BLOCKEND  ---      ---       LVL=0

      ---         MODULE    ---      ---       zf_common_fifo
      00FF6341H   PUBLIC    CODE     ---       fifo_write_buffer
      00FFAC33H   PUBLIC    CODE     ---       fifo_init
      00011007H   PUBLIC    XDATA    BYTE      ?fifo_write_buffer?BYTE
      00011006H   PUBLIC    XDATA    BYTE      ?fifo_init?BYTE
      000000D0H   SFRSYM    DATA     BYTE      PSW
      0000009DH   SFRSYM    DATA     BYTE      IRCBAND
      00000097H   SFRSYM    DATA     BYTE      AUXR2
      000000EFH   SFRSYM    DATA     BYTE      AUXINTIF
      000000FDH   SFRSYM    DATA     BYTE      S4CON
      000000ACH   SFRSYM    DATA     BYTE      S3CON
      0000009AH   SFRSYM    DATA     BYTE      S2CON
      000000B7H   SFRSYM    DATA     BYTE      IPH
      000000CDH   SFRSYM    DATA     BYTE      SPSTAT
      000000DDH   SFRSYM    DATA     BYTE      T4T3M
      000000C1H   SFRSYM    DATA     BYTE      WDT_CONTR
      000000DFH   SFRSYM    DATA     BYTE      IP3
      000000F4H   SFRSYM    DATA     BYTE      USBCON
      000000B5H   SFRSYM    DATA     BYTE      IP2
      000000FFH   SFRSYM    DATA     BYTE      RSTCFG
      000000C7H   SFRSYM    DATA     BYTE      IAP_CONTR
      0000008EH   SFRSYM    DATA     BYTE      AUXR
      000000AFH   SFRSYM    DATA     BYTE      IE2
      00000088H   SFRSYM    DATA     BYTE      TCON
      00000089H   SFRSYM    DATA     BYTE      TMOD
      00000098H   SFRSYM    DATA     BYTE      SCON
      00000087H   SFRSYM    DATA     BYTE      PCON
      000000BCH   SFRSYM    DATA     BYTE      ADC_CONTR
      000000D1H   SFRSYM    DATA     BYTE      PSW1
L251 LINKER/LOCATER V4.66.93.0                                                        10/24/2025  21:07:56  PAGE 42


      000000E7H   SFRSYM    DATA     BYTE      CMPCR2
      000000E6H   SFRSYM    DATA     BYTE      CMPCR1
      000000DEH   SFRSYM    DATA     BYTE      ADCCFG
      000000B8H   SFRSYM    DATA     BYTE      IP
      0000008FH   SFRSYM    DATA     BYTE      INTCLKO
      000000EEH   SFRSYM    DATA     BYTE      IP3H
      000000B6H   SFRSYM    DATA     BYTE      IP2H
      000000BFH   SFRSYM    DATA     BYTE      P_SW4
      000000A8H   SFRSYM    DATA     BYTE      IE
      000000BBH   SFRSYM    DATA     BYTE      P_SW3
      000000BAH   SFRSYM    DATA     BYTE      P_SW2
      000000A2H   SFRSYM    DATA     BYTE      P_SW1
      000000CEH   SFRSYM    DATA     BYTE      SPCTL
      000000F8H   SFRSYM    DATA     BYTE      P7
      000000E8H   SFRSYM    DATA     BYTE      P6
      000000C8H   SFRSYM    DATA     BYTE      P5
      000000C0H   SFRSYM    DATA     BYTE      P4
      000000ABH   SFRSYM    DATA     BYTE      WKTCH
      000000B0H   SFRSYM    DATA     BYTE      P3
      000000A0H   SFRSYM    DATA     BYTE      P2
      00000090H   SFRSYM    DATA     BYTE      P1
      00000080H   SFRSYM    DATA     BYTE      P0
      00FF01CEH   SYMBOL    CODE     ---       fifo_head_offset

      00FF01CEH   BLOCK     CODE     ---       LVL=0
      REG=7       REGSYM    ---      ---       fifo
      DR24        REGSYM    ---      DWORD     offset
      00FF01CEH   LINE      CODE     ---       #51
      00FF01D2H   LINE      CODE     ---       #53
      00FF01E6H   LINE      CODE     ---       #55
      00FF01E8H   LINE      CODE     ---       #57
      00FF0206H   LINE      CODE     ---       #58
      00FF021AH   LINE      CODE     ---       #59
      ---         BLOCKEND  ---      ---       LVL=0
      REG=7       REGSYM    ---      ---       fifo
      DR24        REGSYM    ---      DWORD     offset
      REG=3       REGSYM    ---      ---       fifo
      REG=3       REGSYM    ---      ---       fifo

      00FF6341H   BLOCK     CODE     ---       LVL=0
      REG=3       REGSYM    ---      ---       fifo
      0001100BH   SYMBOL    XDATA    ---       dat
      0001100FH   SYMBOL    XDATA    DWORD     length
      00FF634FH   BLOCK     CODE     NEAR LAB  LVL=1
      00011013H   SYMBOL    XDATA    INT       return_state
      00011015H   SYMBOL    XDATA    DWORD     temp_length
      ---         BLOCKEND  ---      ---       LVL=1
      00FF6341H   LINE      CODE     ---       #178
      00FF634FH   LINE      CODE     ---       #179
      00FF634FH   LINE      CODE     ---       #180
      00FF6357H   LINE      CODE     ---       #181
      00FF6363H   LINE      CODE     ---       #182
      00FF637DH   LINE      CODE     ---       #184
      00FF637DH   LINE      CODE     ---       #186
      00FF638BH   LINE      CODE     ---       #188
      00FF6395H   LINE      CODE     ---       #189
      00FF6398H   LINE      CODE     ---       #190
      00FF6398H   LINE      CODE     ---       #191
      00FF63A3H   LINE      CODE     ---       #193
      00FF63ADH   LINE      CODE     ---       #194
      00FF63B0H   LINE      CODE     ---       #195
      00FF63B0H   LINE      CODE     ---       #196
      00FF63B8H   LINE      CODE     ---       #198
      00FF63D1H   LINE      CODE     ---       #200
      00FF63EDH   LINE      CODE     ---       #202
L251 LINKER/LOCATER V4.66.93.0                                                        10/24/2025  21:07:56  PAGE 43


      00FF6408H   LINE      CODE     ---       #204
      00FF6421H   LINE      CODE     ---       #206
      00FF6421H   LINE      CODE     ---       #208
      00FF644EH   LINE      CODE     ---       #211
      00FF645DH   LINE      CODE     ---       #212
      00FF64A8H   LINE      CODE     ---       #216
      00FF64C3H   LINE      CODE     ---       #217
      00FF64C6H   LINE      CODE     ---       #218
      00FF64C6H   LINE      CODE     ---       #220
      00FF64F7H   LINE      CODE     ---       #223
      00FF6506H   LINE      CODE     ---       #224
      00FF6553H   LINE      CODE     ---       #228
      00FF656EH   LINE      CODE     ---       #229
      00FF6571H   LINE      CODE     ---       #230
      00FF6571H   LINE      CODE     ---       #232
      00FF65A6H   LINE      CODE     ---       #235
      00FF65B5H   LINE      CODE     ---       #236
      00FF6608H   LINE      CODE     ---       #240
      00FF6623H   LINE      CODE     ---       #241
      00FF6623H   LINE      CODE     ---       #242
      00FF6623H   LINE      CODE     ---       #243
      00FF6626H   LINE      CODE     ---       #246
      00FF663CH   LINE      CODE     ---       #248
      00FF663CH   LINE      CODE     ---       #250
      00FF6669H   LINE      CODE     ---       #253
      00FF6678H   LINE      CODE     ---       #254
      00FF667BH   LINE      CODE     ---       #255
      00FF667BH   LINE      CODE     ---       #257
      00FF66ACH   LINE      CODE     ---       #260
      00FF66BBH   LINE      CODE     ---       #261
      00FF66BDH   LINE      CODE     ---       #262
      00FF66BDH   LINE      CODE     ---       #264
      00FF66F2H   LINE      CODE     ---       #267
      00FF6701H   LINE      CODE     ---       #268
      00FF6701H   LINE      CODE     ---       #269
      00FF6701H   LINE      CODE     ---       #270
      00FF6701H   LINE      CODE     ---       #272
      00FF6721H   LINE      CODE     ---       #273
      00FF6723H   LINE      CODE     ---       #276
      00FF672DH   LINE      CODE     ---       #277
      00FF672DH   LINE      CODE     ---       #278
      00FF6735H   LINE      CODE     ---       #279
      00FF6735H   LINE      CODE     ---       #281
      00FF673BH   LINE      CODE     ---       #282
      ---         BLOCKEND  ---      ---       LVL=0
      REG=3       REGSYM    ---      ---       fifo

      00FFAC33H   BLOCK     CODE     ---       LVL=0
      REG=3       REGSYM    ---      ---       fifo
      0001100AH   SYMBOL    XDATA    INT       type
      0001100CH   SYMBOL    XDATA    ---       buffer_addr
      00011010H   SYMBOL    XDATA    DWORD     siz
      00FFAC33H   LINE      CODE     ---       #549
      00FFAC3DH   LINE      CODE     ---       #551
      00FFAC57H   LINE      CODE     ---       #552
      00FFAC57H   LINE      CODE     ---       #554
      00FFAC69H   LINE      CODE     ---       #555
      00FFAC6DH   LINE      CODE     ---       #556
      00FFAC77H   LINE      CODE     ---       #557
      00FFAC81H   LINE      CODE     ---       #558
      00FFAC8BH   LINE      CODE     ---       #559
      00FFAC9DH   LINE      CODE     ---       #560
      00FFACAFH   LINE      CODE     ---       #561
      00FFACAFH   LINE      CODE     ---       #562
      00FFACB1H   LINE      CODE     ---       #563
L251 LINKER/LOCATER V4.66.93.0                                                        10/24/2025  21:07:56  PAGE 44


      ---         BLOCKEND  ---      ---       LVL=0

      ---         MODULE    ---      ---       zf_common_font
      00FF4E35H   PUBLIC    CODE     ---       ascii_font_8x16
      000000D0H   SFRSYM    DATA     BYTE      PSW
      0000009DH   SFRSYM    DATA     BYTE      IRCBAND
      00000097H   SFRSYM    DATA     BYTE      AUXR2
      000000EFH   SFRSYM    DATA     BYTE      AUXINTIF
      000000FDH   SFRSYM    DATA     BYTE      S4CON
      000000ACH   SFRSYM    DATA     BYTE      S3CON
      0000009AH   SFRSYM    DATA     BYTE      S2CON
      000000B7H   SFRSYM    DATA     BYTE      IPH
      000000CDH   SFRSYM    DATA     BYTE      SPSTAT
      000000DDH   SFRSYM    DATA     BYTE      T4T3M
      000000C1H   SFRSYM    DATA     BYTE      WDT_CONTR
      000000DFH   SFRSYM    DATA     BYTE      IP3
      000000F4H   SFRSYM    DATA     BYTE      USBCON
      000000B5H   SFRSYM    DATA     BYTE      IP2
      000000FFH   SFRSYM    DATA     BYTE      RSTCFG
      000000C7H   SFRSYM    DATA     BYTE      IAP_CONTR
      0000008EH   SFRSYM    DATA     BYTE      AUXR
      000000AFH   SFRSYM    DATA     BYTE      IE2
      00000088H   SFRSYM    DATA     BYTE      TCON
      00000089H   SFRSYM    DATA     BYTE      TMOD
      00000098H   SFRSYM    DATA     BYTE      SCON
      00000087H   SFRSYM    DATA     BYTE      PCON
      000000BCH   SFRSYM    DATA     BYTE      ADC_CONTR
      000000D1H   SFRSYM    DATA     BYTE      PSW1
      000000E7H   SFRSYM    DATA     BYTE      CMPCR2
      000000E6H   SFRSYM    DATA     BYTE      CMPCR1
      000000DEH   SFRSYM    DATA     BYTE      ADCCFG
      000000B8H   SFRSYM    DATA     BYTE      IP
      0000008FH   SFRSYM    DATA     BYTE      INTCLKO
      000000EEH   SFRSYM    DATA     BYTE      IP3H
      000000B6H   SFRSYM    DATA     BYTE      IP2H
      000000BFH   SFRSYM    DATA     BYTE      P_SW4
      000000A8H   SFRSYM    DATA     BYTE      IE
      000000BBH   SFRSYM    DATA     BYTE      P_SW3
      000000BAH   SFRSYM    DATA     BYTE      P_SW2
      000000A2H   SFRSYM    DATA     BYTE      P_SW1
      000000CEH   SFRSYM    DATA     BYTE      SPCTL
      000000F8H   SFRSYM    DATA     BYTE      P7
      000000E8H   SFRSYM    DATA     BYTE      P6
      000000C8H   SFRSYM    DATA     BYTE      P5
      000000C0H   SFRSYM    DATA     BYTE      P4
      000000ABH   SFRSYM    DATA     BYTE      WKTCH
      000000B0H   SFRSYM    DATA     BYTE      P3
      000000A0H   SFRSYM    DATA     BYTE      P2
      00000090H   SFRSYM    DATA     BYTE      P1
      00000080H   SFRSYM    DATA     BYTE      P0

      ---         MODULE    ---      ---       zf_common_function
      00FF4618H   PUBLIC    CODE     ---       zf_sprintf
      00011063H   PUBLIC    XDATA    BYTE      ?zf_sprintf?BYTE
      000000D0H   SFRSYM    DATA     BYTE      PSW
      0000009DH   SFRSYM    DATA     BYTE      IRCBAND
      00000097H   SFRSYM    DATA     BYTE      AUXR2
      000000EFH   SFRSYM    DATA     BYTE      AUXINTIF
      000000FDH   SFRSYM    DATA     BYTE      S4CON
      000000ACH   SFRSYM    DATA     BYTE      S3CON
      0000009AH   SFRSYM    DATA     BYTE      S2CON
      000000B7H   SFRSYM    DATA     BYTE      IPH
      000000CDH   SFRSYM    DATA     BYTE      SPSTAT
      000000DDH   SFRSYM    DATA     BYTE      T4T3M
      000000C1H   SFRSYM    DATA     BYTE      WDT_CONTR
L251 LINKER/LOCATER V4.66.93.0                                                        10/24/2025  21:07:56  PAGE 45


      000000DFH   SFRSYM    DATA     BYTE      IP3
      000000F4H   SFRSYM    DATA     BYTE      USBCON
      000000B5H   SFRSYM    DATA     BYTE      IP2
      000000FFH   SFRSYM    DATA     BYTE      RSTCFG
      000000C7H   SFRSYM    DATA     BYTE      IAP_CONTR
      0000008EH   SFRSYM    DATA     BYTE      AUXR
      000000AFH   SFRSYM    DATA     BYTE      IE2
      00000088H   SFRSYM    DATA     BYTE      TCON
      00000089H   SFRSYM    DATA     BYTE      TMOD
      00000098H   SFRSYM    DATA     BYTE      SCON
      00000087H   SFRSYM    DATA     BYTE      PCON
      000000BCH   SFRSYM    DATA     BYTE      ADC_CONTR
      000000D1H   SFRSYM    DATA     BYTE      PSW1
      000000E7H   SFRSYM    DATA     BYTE      CMPCR2
      000000E6H   SFRSYM    DATA     BYTE      CMPCR1
      000000DEH   SFRSYM    DATA     BYTE      ADCCFG
      000000B8H   SFRSYM    DATA     BYTE      IP
      0000008FH   SFRSYM    DATA     BYTE      INTCLKO
      000000EEH   SFRSYM    DATA     BYTE      IP3H
      000000B6H   SFRSYM    DATA     BYTE      IP2H
      000000BFH   SFRSYM    DATA     BYTE      P_SW4
      000000A8H   SFRSYM    DATA     BYTE      IE
      000000BBH   SFRSYM    DATA     BYTE      P_SW3
      000000BAH   SFRSYM    DATA     BYTE      P_SW2
      000000A2H   SFRSYM    DATA     BYTE      P_SW1
      000000CEH   SFRSYM    DATA     BYTE      SPCTL
      000000F8H   SFRSYM    DATA     BYTE      P7
      000000E8H   SFRSYM    DATA     BYTE      P6
      000000C8H   SFRSYM    DATA     BYTE      P5
      000000C0H   SFRSYM    DATA     BYTE      P4
      000000ABH   SFRSYM    DATA     BYTE      WKTCH
      000000B0H   SFRSYM    DATA     BYTE      P3
      000000A0H   SFRSYM    DATA     BYTE      P2
      00000090H   SFRSYM    DATA     BYTE      P1
      00000080H   SFRSYM    DATA     BYTE      P0
      00FFDB6EH   SYMBOL    HCONST   ---       ?tpl?0001
      00FFA6B9H   SYMBOL    CODE     ---       number_conversion_ascii
      00FFB54EH   SYMBOL    CODE     ---       printf_reverse_order
      DR8         REGSYM    ---      DWORD     num1
      DR28        REGSYM    ---      DWORD     num2
      REG=3       REGSYM    ---      ---       str
      REG=3       REGSYM    ---      ---       str
      REG=3       REGSYM    ---      ---       str
      REG=3       REGSYM    ---      ---       str
      REG=3       REGSYM    ---      ---       str
      REG=3       REGSYM    ---      ---       str
      REG=3       REGSYM    ---      ---       str
      REG=3       REGSYM    ---      ---       str
      REG=3       REGSYM    ---      ---       str
      REG=3       REGSYM    ---      ---       str

      00FFA6B9H   BLOCK     CODE     ---       LVL=0
      DR24        REGSYM    ---      DWORD     dat
      REG=7       REGSYM    ---      ---       p
      R10         REGSYM    ---      BYTE      neg_type
      0001109EH   SYMBOL    XDATA    BYTE      radix
      00FFA6C1H   BLOCK     CODE     NEAR LAB  LVL=1
      DR20        REGSYM    ---      LONG      neg_dat
      DR24        REGSYM    ---      DWORD     pos_dat
      R14         REGSYM    ---      BYTE      temp_data
      R15         REGSYM    ---      BYTE      valid_num
      ---         BLOCKEND  ---      ---       LVL=1
      00FFA6B9H   LINE      CODE     ---       #647
      00FFA6C1H   LINE      CODE     ---       #648
      00FFA6C1H   LINE      CODE     ---       #651
L251 LINKER/LOCATER V4.66.93.0                                                        10/24/2025  21:07:56  PAGE 46


      00FFA6C3H   LINE      CODE     ---       #652
      00FFA6C5H   LINE      CODE     ---       #654
      00FFA6C9H   LINE      CODE     ---       #656
      00FFA6CBH   LINE      CODE     ---       #657
      00FFA6D1H   LINE      CODE     ---       #659
      00FFA6DBH   LINE      CODE     ---       #660
      00FFA6DBH   LINE      CODE     ---       #661
      00FFA6DBH   LINE      CODE     ---       #663
      00FFA6F1H   LINE      CODE     ---       #664
      00FFA700H   LINE      CODE     ---       #665
      00FFA702H   LINE      CODE     ---       #667
      00FFA708H   LINE      CODE     ---       #669
      00FFA708H   LINE      CODE     ---       #670
      00FFA708H   LINE      CODE     ---       #671
      00FFA70AH   LINE      CODE     ---       #672
      00FFA70CH   LINE      CODE     ---       #673
      00FFA70EH   LINE      CODE     ---       #676
      00FFA70EH   LINE      CODE     ---       #677
      00FFA70EH   LINE      CODE     ---       #679
      00FFA71DH   LINE      CODE     ---       #680
      00FFA722H   LINE      CODE     ---       #682
      00FFA725H   LINE      CODE     ---       #683
      00FFA727H   LINE      CODE     ---       #686
      00FFA72AH   LINE      CODE     ---       #687
      00FFA72AH   LINE      CODE     ---       #689
      00FFA72DH   LINE      CODE     ---       #691
      00FFA73CH   LINE      CODE     ---       #692
      00FFA73EH   LINE      CODE     ---       #694
      00FFA744H   LINE      CODE     ---       #696
      00FFA744H   LINE      CODE     ---       #697
      00FFA744H   LINE      CODE     ---       #698
      00FFA746H   LINE      CODE     ---       #699
      00FFA748H   LINE      CODE     ---       #700
      00FFA748H   LINE      CODE     ---       #701
      00FFA74AH   LINE      CODE     ---       #702
      ---         BLOCKEND  ---      ---       LVL=0

      00FFB54EH   BLOCK     CODE     ---       LVL=0
      REG=7       REGSYM    ---      ---       d_buff
      DR24        REGSYM    ---      DWORD     len
      00FFB552H   BLOCK     CODE     NEAR LAB  LVL=1
      DR4         REGSYM    ---      DWORD     i
      R3          REGSYM    ---      CHAR      temp_data
      ---         BLOCKEND  ---      ---       LVL=1
      00FFB54EH   LINE      CODE     ---       #712
      00FFB552H   LINE      CODE     ---       #713
      00FFB552H   LINE      CODE     ---       #716
      00FFB556H   LINE      CODE     ---       #718
      00FFB563H   LINE      CODE     ---       #719
      00FFB57BH   LINE      CODE     ---       #720
      00FFB584H   LINE      CODE     ---       #721
      00FFB595H   LINE      CODE     ---       #722
      ---         BLOCKEND  ---      ---       LVL=0

      00FF4618H   BLOCK     CODE     ---       LVL=0
      REG=3       REGSYM    ---      ---       buff
      00011067H   SYMBOL    XDATA    ---       format
      00FF4626H   BLOCK     CODE     NEAR LAB  LVL=1
      0001106BH   SYMBOL    XDATA    DWORD     buff_len
      0001106FH   SYMBOL    XDATA    ---       arg
      00FF4647H   BLOCK     CODE     NEAR LAB  LVL=2
      00011073H   SYMBOL    XDATA    CHAR      ret
      00FF4788H   BLOCK     CODE     NEAR LAB  LVL=3
      00011074H   SYMBOL    XDATA    CHAR      ch
      ---         BLOCKEND  ---      ---       LVL=3
L251 LINKER/LOCATER V4.66.93.0                                                        10/24/2025  21:07:56  PAGE 47


      00FF47CFH   BLOCK     CODE     NEAR LAB  LVL=3
      00011074H   SYMBOL    XDATA    ---       vstr
      00011095H   SYMBOL    XDATA    LONG      ival
      00011099H   SYMBOL    XDATA    BYTE      vlen
      ---         BLOCKEND  ---      ---       LVL=3
      00FF489AH   BLOCK     CODE     NEAR LAB  LVL=3
      00011074H   SYMBOL    XDATA    ---       vstr
      00011095H   SYMBOL    XDATA    DOUBLE    ival
      0001109DH   SYMBOL    XDATA    BYTE      vlen
      ---         BLOCKEND  ---      ---       LVL=3
      00FF4AE5H   BLOCK     CODE     NEAR LAB  LVL=3
      00011074H   SYMBOL    XDATA    ---       vstr
      00011095H   SYMBOL    XDATA    DWORD     ival
      00011099H   SYMBOL    XDATA    BYTE      vlen
      ---         BLOCKEND  ---      ---       LVL=3
      00FF4B83H   BLOCK     CODE     NEAR LAB  LVL=3
      00011074H   SYMBOL    XDATA    ---       vstr
      00011095H   SYMBOL    XDATA    DWORD     ival
      00011099H   SYMBOL    XDATA    BYTE      vlen
      ---         BLOCKEND  ---      ---       LVL=3
      00FF4C21H   BLOCK     CODE     NEAR LAB  LVL=3
      00011074H   SYMBOL    XDATA    ---       vstr
      00011095H   SYMBOL    XDATA    DWORD     ival
      00011099H   SYMBOL    XDATA    BYTE      vlen
      ---         BLOCKEND  ---      ---       LVL=3
      00FF4CBFH   BLOCK     CODE     NEAR LAB  LVL=3
      00011074H   SYMBOL    XDATA    ---       pc
      ---         BLOCKEND  ---      ---       LVL=3
      00FF4D39H   BLOCK     CODE     NEAR LAB  LVL=3
      00011074H   SYMBOL    XDATA    ---       vstr
      00011095H   SYMBOL    XDATA    DWORD     ival
      ---         BLOCKEND  ---      ---       LVL=3
      ---         BLOCKEND  ---      ---       LVL=2
      ---         BLOCKEND  ---      ---       LVL=1
      00FF4618H   LINE      CODE     ---       #733
      00FF4626H   LINE      CODE     ---       #734
      00FF4626H   LINE      CODE     ---       #735
      00FF4632H   LINE      CODE     ---       #737
      00FF4644H   LINE      CODE     ---       #739
      00FF4647H   LINE      CODE     ---       #740
      00FF4647H   LINE      CODE     ---       #741
      00FF4658H   LINE      CODE     ---       #742
      00FF4664H   LINE      CODE     ---       #744
      00FF4788H   LINE      CODE     ---       #746
      00FF4788H   LINE      CODE     ---       #749
      00FF4788H   LINE      CODE     ---       #751
      00FF4788H   LINE      CODE     ---       #752
      00FF4788H   LINE      CODE     ---       #753
      00FF47B0H   LINE      CODE     ---       #754
      00FF47B7H   LINE      CODE     ---       #755
      00FF47B9H   LINE      CODE     ---       #756
      00FF47CCH   LINE      CODE     ---       #758
      00FF47CFH   LINE      CODE     ---       #760
      00FF47CFH   LINE      CODE     ---       #761
      00FF47CFH   LINE      CODE     ---       #762
      00FF47CFH   LINE      CODE     ---       #764
      00FF47FDH   LINE      CODE     ---       #765
      00FF481EH   LINE      CODE     ---       #767
      00FF482EH   LINE      CODE     ---       #769
      00FF4844H   LINE      CODE     ---       #770
      00FF484AH   LINE      CODE     ---       #771
      00FF484AH   LINE      CODE     ---       #772
      00FF485DH   LINE      CODE     ---       #773
      00FF4874H   LINE      CODE     ---       #774
      00FF487CH   LINE      CODE     ---       #775
L251 LINKER/LOCATER V4.66.93.0                                                        10/24/2025  21:07:56  PAGE 48


      00FF4897H   LINE      CODE     ---       #777
      00FF489AH   LINE      CODE     ---       #779
      00FF489AH   LINE      CODE     ---       #780
      00FF489AH   LINE      CODE     ---       #781
      00FF489AH   LINE      CODE     ---       #783
      00FF48DAH   LINE      CODE     ---       #784
      00FF4906H   LINE      CODE     ---       #786
      00FF4921H   LINE      CODE     ---       #788
      00FF4937H   LINE      CODE     ---       #789
      00FF493DH   LINE      CODE     ---       #790
      00FF493DH   LINE      CODE     ---       #791
      00FF4950H   LINE      CODE     ---       #792
      00FF4967H   LINE      CODE     ---       #793
      00FF496FH   LINE      CODE     ---       #794
      00FF498AH   LINE      CODE     ---       #796
      00FF49DCH   LINE      CODE     ---       #797
      00FF49FAH   LINE      CODE     ---       #799
      00FF4A26H   LINE      CODE     ---       #800
      00FF4A28H   LINE      CODE     ---       #803
      00FF4A4CH   LINE      CODE     ---       #804
      00FF4A52H   LINE      CODE     ---       #805
      00FF4A52H   LINE      CODE     ---       #807
      00FF4A54H   LINE      CODE     ---       #809
      00FF4A6AH   LINE      CODE     ---       #810
      00FF4A70H   LINE      CODE     ---       #811
      00FF4A79H   LINE      CODE     ---       #813
      00FF4A8FH   LINE      CODE     ---       #814
      00FF4A95H   LINE      CODE     ---       #816
      00FF4AA8H   LINE      CODE     ---       #817
      00FF4ABFH   LINE      CODE     ---       #818
      00FF4AC7H   LINE      CODE     ---       #819
      00FF4AE2H   LINE      CODE     ---       #821
      00FF4AE5H   LINE      CODE     ---       #823
      00FF4AE5H   LINE      CODE     ---       #824
      00FF4AE5H   LINE      CODE     ---       #826
      00FF4B13H   LINE      CODE     ---       #827
      00FF4B33H   LINE      CODE     ---       #829
      00FF4B46H   LINE      CODE     ---       #830
      00FF4B5DH   LINE      CODE     ---       #831
      00FF4B65H   LINE      CODE     ---       #832
      00FF4B80H   LINE      CODE     ---       #834
      00FF4B83H   LINE      CODE     ---       #836
      00FF4B83H   LINE      CODE     ---       #837
      00FF4B83H   LINE      CODE     ---       #839
      00FF4BB1H   LINE      CODE     ---       #840
      00FF4BD1H   LINE      CODE     ---       #842
      00FF4BE4H   LINE      CODE     ---       #843
      00FF4BFBH   LINE      CODE     ---       #844
      00FF4C03H   LINE      CODE     ---       #845
      00FF4C1EH   LINE      CODE     ---       #848
      00FF4C21H   LINE      CODE     ---       #850
      00FF4C21H   LINE      CODE     ---       #851
      00FF4C21H   LINE      CODE     ---       #852
      00FF4C21H   LINE      CODE     ---       #854
      00FF4C4FH   LINE      CODE     ---       #855
      00FF4C6FH   LINE      CODE     ---       #857
      00FF4C82H   LINE      CODE     ---       #858
      00FF4C99H   LINE      CODE     ---       #859
      00FF4CA1H   LINE      CODE     ---       #860
      00FF4CBCH   LINE      CODE     ---       #862
      00FF4CBFH   LINE      CODE     ---       #864
      00FF4CBFH   LINE      CODE     ---       #865
      00FF4CBFH   LINE      CODE     ---       #866
      00FF4CEDH   LINE      CODE     ---       #867
      00FF4CEFH   LINE      CODE     ---       #869
L251 LINKER/LOCATER V4.66.93.0                                                        10/24/2025  21:07:56  PAGE 49


      00FF4CFFH   LINE      CODE     ---       #870
      00FF4D01H   LINE      CODE     ---       #871
      00FF4D14H   LINE      CODE     ---       #872
      00FF4D27H   LINE      CODE     ---       #873
      00FF4D36H   LINE      CODE     ---       #875
      00FF4D39H   LINE      CODE     ---       #877
      00FF4D39H   LINE      CODE     ---       #878
      00FF4D39H   LINE      CODE     ---       #880
      00FF4D67H   LINE      CODE     ---       #882
      00FF4D83H   LINE      CODE     ---       #883
      00FF4D92H   LINE      CODE     ---       #884
      00FF4DA7H   LINE      CODE     ---       #885
      00FF4DABH   LINE      CODE     ---       #886
      00FF4DC0H   LINE      CODE     ---       #888
      00FF4DC2H   LINE      CODE     ---       #890
      00FF4DC2H   LINE      CODE     ---       #892
      00FF4DC7H   LINE      CODE     ---       #893
      00FF4DC9H   LINE      CODE     ---       #894
      00FF4DDCH   LINE      CODE     ---       #896
      00FF4DDEH   LINE      CODE     ---       #898
      00FF4DDEH   LINE      CODE     ---       #899
      00FF4DDEH   LINE      CODE     ---       #900
      00FF4DDEH   LINE      CODE     ---       #901
      00FF4DDEH   LINE      CODE     ---       #904
      00FF4DEEH   LINE      CODE     ---       #905
      00FF4DF0H   LINE      CODE     ---       #906
      00FF4E03H   LINE      CODE     ---       #907
      00FF4E03H   LINE      CODE     ---       #908
      00FF4E16H   LINE      CODE     ---       #909
      00FF4E28H   LINE      CODE     ---       #912
      00FF4E32H   LINE      CODE     ---       #913
      ---         BLOCKEND  ---      ---       LVL=0

      ---         MODULE    ---      ---       zf_common_typedef
      00011211H   PUBLIC    XDATA    ---       tim11_irq_handler
      00011213H   PUBLIC    XDATA    ---       uart1_irq_handler
      00011215H   PUBLIC    XDATA    ---       uart2_irq_handler
      00011217H   PUBLIC    XDATA    ---       uart3_irq_handler
      00011219H   PUBLIC    XDATA    ---       uart4_irq_handler
      0001121BH   PUBLIC    XDATA    ---       tim0_irq_handler
      0001121DH   PUBLIC    XDATA    ---       int0_irq_handler
      0001121FH   PUBLIC    XDATA    ---       tim1_irq_handler
      00011221H   PUBLIC    XDATA    ---       int1_irq_handler
      00011223H   PUBLIC    XDATA    ---       tim2_irq_handler
      00011225H   PUBLIC    XDATA    ---       int2_irq_handler
      00011227H   PUBLIC    XDATA    ---       tim3_irq_handler
      00011229H   PUBLIC    XDATA    ---       int3_irq_handler
      0001122BH   PUBLIC    XDATA    ---       tim4_irq_handler
      0001122DH   PUBLIC    XDATA    ---       int4_irq_handler
      000000D0H   SFRSYM    DATA     BYTE      PSW
      0000009DH   SFRSYM    DATA     BYTE      IRCBAND
      00000097H   SFRSYM    DATA     BYTE      AUXR2
      000000EFH   SFRSYM    DATA     BYTE      AUXINTIF
      000000FDH   SFRSYM    DATA     BYTE      S4CON
      000000ACH   SFRSYM    DATA     BYTE      S3CON
      0000009AH   SFRSYM    DATA     BYTE      S2CON
      000000B7H   SFRSYM    DATA     BYTE      IPH
      000000CDH   SFRSYM    DATA     BYTE      SPSTAT
      000000DDH   SFRSYM    DATA     BYTE      T4T3M
      000000C1H   SFRSYM    DATA     BYTE      WDT_CONTR
      000000DFH   SFRSYM    DATA     BYTE      IP3
      000000F4H   SFRSYM    DATA     BYTE      USBCON
      000000B5H   SFRSYM    DATA     BYTE      IP2
      000000FFH   SFRSYM    DATA     BYTE      RSTCFG
      000000C7H   SFRSYM    DATA     BYTE      IAP_CONTR
L251 LINKER/LOCATER V4.66.93.0                                                        10/24/2025  21:07:56  PAGE 50


      0000008EH   SFRSYM    DATA     BYTE      AUXR
      000000AFH   SFRSYM    DATA     BYTE      IE2
      00000088H   SFRSYM    DATA     BYTE      TCON
      00000089H   SFRSYM    DATA     BYTE      TMOD
      00000098H   SFRSYM    DATA     BYTE      SCON
      00000087H   SFRSYM    DATA     BYTE      PCON
      000000BCH   SFRSYM    DATA     BYTE      ADC_CONTR
      000000D1H   SFRSYM    DATA     BYTE      PSW1
      000000E7H   SFRSYM    DATA     BYTE      CMPCR2
      000000E6H   SFRSYM    DATA     BYTE      CMPCR1
      000000DEH   SFRSYM    DATA     BYTE      ADCCFG
      000000B8H   SFRSYM    DATA     BYTE      IP
      0000008FH   SFRSYM    DATA     BYTE      INTCLKO
      000000EEH   SFRSYM    DATA     BYTE      IP3H
      000000B6H   SFRSYM    DATA     BYTE      IP2H
      000000BFH   SFRSYM    DATA     BYTE      P_SW4
      000000A8H   SFRSYM    DATA     BYTE      IE
      000000BBH   SFRSYM    DATA     BYTE      P_SW3
      000000BAH   SFRSYM    DATA     BYTE      P_SW2
      000000A2H   SFRSYM    DATA     BYTE      P_SW1
      000000CEH   SFRSYM    DATA     BYTE      SPCTL
      000000F8H   SFRSYM    DATA     BYTE      P7
      000000E8H   SFRSYM    DATA     BYTE      P6
      000000C8H   SFRSYM    DATA     BYTE      P5
      000000C0H   SFRSYM    DATA     BYTE      P4
      000000ABH   SFRSYM    DATA     BYTE      WKTCH
      000000B0H   SFRSYM    DATA     BYTE      P3
      000000A0H   SFRSYM    DATA     BYTE      P2
      00000090H   SFRSYM    DATA     BYTE      P1
      00000080H   SFRSYM    DATA     BYTE      P0

      ---         MODULE    ---      ---       zf_common_interrupt
      00FF9E2CH   PUBLIC    CODE     ---       interrupt_set_priority
      00FF001EH   PUBLIC    CODE     ---       interrupt_global_enable
      000000D0H   SFRSYM    DATA     BYTE      PSW
      0000009DH   SFRSYM    DATA     BYTE      IRCBAND
      00000097H   SFRSYM    DATA     BYTE      AUXR2
      000000EFH   SFRSYM    DATA     BYTE      AUXINTIF
      000000FDH   SFRSYM    DATA     BYTE      S4CON
      000000ACH   SFRSYM    DATA     BYTE      S3CON
      0000009AH   SFRSYM    DATA     BYTE      S2CON
      000000B7H   SFRSYM    DATA     BYTE      IPH
      000000CDH   SFRSYM    DATA     BYTE      SPSTAT
      000000DDH   SFRSYM    DATA     BYTE      T4T3M
      000000C1H   SFRSYM    DATA     BYTE      WDT_CONTR
      000000DFH   SFRSYM    DATA     BYTE      IP3
      000000F4H   SFRSYM    DATA     BYTE      USBCON
      000000B5H   SFRSYM    DATA     BYTE      IP2
      000000FFH   SFRSYM    DATA     BYTE      RSTCFG
      000000C7H   SFRSYM    DATA     BYTE      IAP_CONTR
      0000008EH   SFRSYM    DATA     BYTE      AUXR
      000000AFH   SFRSYM    DATA     BYTE      IE2
      00000088H   SFRSYM    DATA     BYTE      TCON
      00000089H   SFRSYM    DATA     BYTE      TMOD
      00000098H   SFRSYM    DATA     BYTE      SCON
      00000087H   SFRSYM    DATA     BYTE      PCON
      000000BCH   SFRSYM    DATA     BYTE      ADC_CONTR
      000000D1H   SFRSYM    DATA     BYTE      PSW1
      000000E7H   SFRSYM    DATA     BYTE      CMPCR2
      000000E6H   SFRSYM    DATA     BYTE      CMPCR1
      000000DEH   SFRSYM    DATA     BYTE      ADCCFG
      000000B8H   SFRSYM    DATA     BYTE      IP
      0000008FH   SFRSYM    DATA     BYTE      INTCLKO
      000000EEH   SFRSYM    DATA     BYTE      IP3H
      000000B6H   SFRSYM    DATA     BYTE      IP2H
L251 LINKER/LOCATER V4.66.93.0                                                        10/24/2025  21:07:56  PAGE 51


      000000BFH   SFRSYM    DATA     BYTE      P_SW4
      000000A8H   SFRSYM    DATA     BYTE      IE
      000000BBH   SFRSYM    DATA     BYTE      P_SW3
      000000BAH   SFRSYM    DATA     BYTE      P_SW2
      000000A2H   SFRSYM    DATA     BYTE      P_SW1
      000000CEH   SFRSYM    DATA     BYTE      SPCTL
      000000F8H   SFRSYM    DATA     BYTE      P7
      000000A8H.7 SFRSYM    DATA     BIT       EA
      000000E8H   SFRSYM    DATA     BYTE      P6
      000000C8H   SFRSYM    DATA     BYTE      P5
      000000C0H   SFRSYM    DATA     BYTE      P4
      000000ABH   SFRSYM    DATA     BYTE      WKTCH
      000000B0H   SFRSYM    DATA     BYTE      P3
      000000A0H   SFRSYM    DATA     BYTE      P2
      00000090H   SFRSYM    DATA     BYTE      P1
      00000080H   SFRSYM    DATA     BYTE      P0

      00FF9E2CH   BLOCK     CODE     ---       LVL=0
      WR4         REGSYM    ---      INT       irqn
      R3          REGSYM    ---      BYTE      priority
      00FF9E2CH   LINE      CODE     ---       #48
      00FF9E30H   LINE      CODE     ---       #50
      00FF9E3AH   LINE      CODE     ---       #52
      00FF9E4EH   LINE      CODE     ---       #53
      00FF9E67H   LINE      CODE     ---       #54
      00FF9E69H   LINE      CODE     ---       #55
      00FF9E79H   LINE      CODE     ---       #57
      00FF9E8DH   LINE      CODE     ---       #58
      00FF9EA6H   LINE      CODE     ---       #59
      00FF9EA8H   LINE      CODE     ---       #60
      00FF9EB8H   LINE      CODE     ---       #62
      00FF9ECCH   LINE      CODE     ---       #63
      00FF9EE5H   LINE      CODE     ---       #64
      ---         BLOCKEND  ---      ---       LVL=0

      00FF001EH   BLOCK     CODE     ---       LVL=0
      00FF001EH   LINE      CODE     ---       #88
      00FF001EH   LINE      CODE     ---       #90
      00FF0020H   LINE      CODE     ---       #91
      ---         BLOCKEND  ---      ---       LVL=0

      ---         MODULE    ---      ---       ?C_START
      00FF0000H   PUBLIC    CODE     ---       ?C?STARTUP
      00FF0000H   PUBLIC    CODE     ---       ?C_STARTUP
      000000D0H.6 SFRSYM    DATA     BIT       AC
      000000E0H   SFRSYM    DATA     BYTE      ACC
      000000F0H   SFRSYM    DATA     BYTE      B
      000000FAH   SFRSYM    DATA     BYTE      CCAP0H
      000000EAH   SFRSYM    DATA     BYTE      CCAP0L
      000000FBH   SFRSYM    DATA     BYTE      CCAP1H
      000000EBH   SFRSYM    DATA     BYTE      CCAP1L
      000000FCH   SFRSYM    DATA     BYTE      CCAP2H
      000000ECH   SFRSYM    DATA     BYTE      CCAP2L
      000000FDH   SFRSYM    DATA     BYTE      CCAP3H
      000000EDH   SFRSYM    DATA     BYTE      CCAP3L
      000000FEH   SFRSYM    DATA     BYTE      CCAP4H
      000000EEH   SFRSYM    DATA     BYTE      CCAP4L
      000000DAH   SFRSYM    DATA     BYTE      CCAPM0
      000000DBH   SFRSYM    DATA     BYTE      CCAPM1
      000000DCH   SFRSYM    DATA     BYTE      CCAPM2
      000000DDH   SFRSYM    DATA     BYTE      CCAPM3
      000000DEH   SFRSYM    DATA     BYTE      CCAPM4
      000000D8H.0 SFRSYM    DATA     BIT       CCF0
      000000D8H.1 SFRSYM    DATA     BIT       CCF1
      000000D8H.2 SFRSYM    DATA     BIT       CCF2
L251 LINKER/LOCATER V4.66.93.0                                                        10/24/2025  21:07:56  PAGE 52


      000000D8H.3 SFRSYM    DATA     BIT       CCF3
      000000D8H.4 SFRSYM    DATA     BIT       CCF4
      000000D8H   SFRSYM    DATA     BYTE      CCON
      00000090H.3 SFRSYM    DATA     BIT       CEX0
      00000090H.4 SFRSYM    DATA     BIT       CEX1
      00000090H.5 SFRSYM    DATA     BIT       CEX2
      00000090H.6 SFRSYM    DATA     BIT       CEX3
      00000090H.7 SFRSYM    DATA     BIT       CEX4
      000000D8H.7 SFRSYM    DATA     BIT       CF
      000000F9H   SFRSYM    DATA     BYTE      CH
      000000E9H   SFRSYM    DATA     BYTE      CL
      000000D9H   SFRSYM    DATA     BYTE      CMOD
      000000C8H.0 SFRSYM    DATA     BIT       CP_RL2
      000000D8H.6 SFRSYM    DATA     BIT       CR
      000000D0H.7 SFRSYM    DATA     BIT       CY
      000000C8H.1 SFRSYM    DATA     BIT       C_T2
      00000083H   SFRSYM    DATA     BYTE      DPH
      00000082H   SFRSYM    DATA     BYTE      DPL
      00000084H   SFRSYM    DATA     BYTE      DPXL
      000000A8H.7 SFRSYM    DATA     BIT       EA
      000000A8H.6 SFRSYM    DATA     BIT       EC
      00000090H.2 SFRSYM    DATA     BIT       ECI
      000000A8H.4 SFRSYM    DATA     BIT       ES
      000000A8H.1 SFRSYM    DATA     BIT       ET0
      000000A8H.3 SFRSYM    DATA     BIT       ET1
      000000A8H.5 SFRSYM    DATA     BIT       ET2
      000000A8H.0 SFRSYM    DATA     BIT       EX0
      000000A8H.2 SFRSYM    DATA     BIT       EX1
      000000C8H.3 SFRSYM    DATA     BIT       EXEN2
      000000C8H.6 SFRSYM    DATA     BIT       EXF2
      000000D0H.5 SFRSYM    DATA     BIT       F0
      00000098H.7 SFRSYM    DATA     BIT       FE
      000000A8H   SFRSYM    DATA     BYTE      IE0
      00000088H.1 SFRSYM    DATA     BIT       IE0_
      000000B1H   SFRSYM    DATA     BYTE      IE1
      00000088H.3 SFRSYM    DATA     BIT       IE1_
      000000B0H.2 SFRSYM    DATA     BIT       INT0
      000000B0H.3 SFRSYM    DATA     BIT       INT1
      000000B7H   SFRSYM    DATA     BYTE      IPH0
      000000B8H   SFRSYM    DATA     BYTE      IPL0
      00000088H.0 SFRSYM    DATA     BIT       IT0
      00000088H.2 SFRSYM    DATA     BIT       IT1
      000000D0H.2 SFRSYM    DATA     BIT       OV
      000000D0H.0 SFRSYM    DATA     BIT       P
      00000080H   SFRSYM    DATA     BYTE      P0
      00000090H   SFRSYM    DATA     BYTE      P1
      000000A0H   SFRSYM    DATA     BYTE      P2
      000000B0H   SFRSYM    DATA     BYTE      P3
      00000087H   SFRSYM    DATA     BYTE      PCON
      000000B8H.6 SFRSYM    DATA     BIT       PPC
      000000B8H.4 SFRSYM    DATA     BIT       PS
      000000D0H   SFRSYM    DATA     BYTE      PSW
      000000D1H   SFRSYM    DATA     BYTE      PSW1
      000000B8H.1 SFRSYM    DATA     BIT       PT0
      000000B8H.3 SFRSYM    DATA     BIT       PT1
      000000B8H.5 SFRSYM    DATA     BIT       PT2
      000000B8H.0 SFRSYM    DATA     BIT       PX0
      000000B8H.2 SFRSYM    DATA     BIT       PX1
      00000098H.2 SFRSYM    DATA     BIT       RB8
      000000CBH   SFRSYM    DATA     BYTE      RCAP2H
      000000CAH   SFRSYM    DATA     BYTE      RCAP2L
      000000C8H.5 SFRSYM    DATA     BIT       RCLK
      000000B0H.7 SFRSYM    DATA     BIT       RD
      00000098H.4 SFRSYM    DATA     BIT       REN
      00000098H.0 SFRSYM    DATA     BIT       RI
L251 LINKER/LOCATER V4.66.93.0                                                        10/24/2025  21:07:56  PAGE 53


      000000D0H.3 SFRSYM    DATA     BIT       RS0
      000000D0H.4 SFRSYM    DATA     BIT       RS1
      000000B0H.0 SFRSYM    DATA     BIT       RXD
      000000A9H   SFRSYM    DATA     BYTE      SADDR
      000000B9H   SFRSYM    DATA     BYTE      SADEN
      00000099H   SFRSYM    DATA     BYTE      SBUF
      00000098H   SFRSYM    DATA     BYTE      SCON
      00000098H.7 SFRSYM    DATA     BIT       SM0
      00000098H.6 SFRSYM    DATA     BIT       SM1
      00000098H.5 SFRSYM    DATA     BIT       SM2
      00000081H   SFRSYM    DATA     BYTE      SP
      000000BEH   SFRSYM    DATA     BYTE      SPH
      000000B0H.4 SFRSYM    DATA     BIT       T0
      000000B0H.5 SFRSYM    DATA     BIT       T1
      00000090H.0 SFRSYM    DATA     BIT       T2
      000000C8H   SFRSYM    DATA     BYTE      T2CON
      00000090H.1 SFRSYM    DATA     BIT       T2EX
      000000C9H   SFRSYM    DATA     BYTE      T2MOD
      00000098H.3 SFRSYM    DATA     BIT       TB8
      000000C8H.4 SFRSYM    DATA     BIT       TCLK
      00000088H   SFRSYM    DATA     BYTE      TCON
      00000088H.5 SFRSYM    DATA     BIT       TF0
      00000088H.7 SFRSYM    DATA     BIT       TF1
      000000C8H.7 SFRSYM    DATA     BIT       TF2
      0000008CH   SFRSYM    DATA     BYTE      TH0
      0000008DH   SFRSYM    DATA     BYTE      TH1
      000000CDH   SFRSYM    DATA     BYTE      TH2
      00000098H.1 SFRSYM    DATA     BIT       TI
      0000008AH   SFRSYM    DATA     BYTE      TL0
      0000008BH   SFRSYM    DATA     BYTE      TL1
      000000CCH   SFRSYM    DATA     BYTE      TL2
      00000089H   SFRSYM    DATA     BYTE      TMOD
      00000088H.4 SFRSYM    DATA     BIT       TR0
      00000088H.6 SFRSYM    DATA     BIT       TR1
      000000C8H.2 SFRSYM    DATA     BIT       TR2
      000000B0H.1 SFRSYM    DATA     BIT       TXD
      000000A6H   SFRSYM    DATA     BYTE      WDTRST
      000000B0H.6 SFRSYM    DATA     BIT       WR
      00000800H   SYMBOL    NUMBER   ---       EDATALEN
      00FFB22EH   SYMBOL    CODE     ---       EDATALOOP
      00000001H   SYMBOL    NUMBER   ---       EDF
      00000001H   SYMBOL    NUMBER   ---       EMAP
      00000000H   SYMBOL    NUMBER   ---       HDATALEN
      00010000H   SYMBOL    NUMBER   ---       HDATASTART
      00000000H   SYMBOL    NUMBER   ---       IBPSTACK
      00000100H   SYMBOL    NUMBER   ---       IBPSTACKTOP
      00000001H   SYMBOL    NUMBER   ---       INTR
      00000001H   SYMBOL    NUMBER   ---       PAGM
      00000003H   SYMBOL    NUMBER   ---       RDRG
      00000001H   SYMBOL    NUMBER   ---       SRCM
      00000700H   SYMBOL    NUMBER   ---       STACKSIZE
      00FFB226H   SYMBOL    CODE     ---       STARTUP1
      00000003H   SYMBOL    NUMBER   ---       WSA
      00000003H   SYMBOL    NUMBER   ---       WSB
      00000001H   SYMBOL    NUMBER   ---       XALE
      00000000H   SYMBOL    NUMBER   ---       XBPSTACK
      00010000H   SYMBOL    NUMBER   ---       XBPSTACKTOP
      00008000H   SYMBOL    NUMBER   ---       XDATALEN
      00FFB23DH   SYMBOL    CODE     ---       XDATALOOP
      00010000H   SYMBOL    NUMBER   ---       XDATASTART

      00FF0000H   BLOCK     CODE     NEAR LAB  LVL=0
      00FF0000H   LINE      CODE     ---       #183
      ---         BLOCKEND  ---      ---       LVL=0

L251 LINKER/LOCATER V4.66.93.0                                                        10/24/2025  21:07:56  PAGE 54


      00FFB226H   BLOCK     CODE     NEAR LAB  LVL=0
      00FFB226H   LINE      CODE     ---       #188
      00FFB229H   LINE      CODE     ---       #191
      00FFB22DH   LINE      CODE     ---       #192
      00FFB22EH   LINE      CODE     ---       #193
      00FFB231H   LINE      CODE     ---       #194
      00FFB233H   LINE      CODE     ---       #195
      00FFB235H   LINE      CODE     ---       #199
      00FFB238H   LINE      CODE     ---       #200
      00FFB23CH   LINE      CODE     ---       #201
      00FFB23DH   LINE      CODE     ---       #202
      00FFB23EH   LINE      CODE     ---       #203
      00FFB23FH   LINE      CODE     ---       #204
      00FFB241H   LINE      CODE     ---       #205
      00FFB243H   LINE      CODE     ---       #235
      ---         BLOCKEND  ---      ---       LVL=0

      00FFB27AH   BLOCK     CODE     NEAR LAB  LVL=0
      00FFB27AH   LINE      CODE     ---       #238
      ---         BLOCKEND  ---      ---       LVL=0

      ---         MODULE    ---      ---       zf_driver_adc
      00FFBA27H   PUBLIC    CODE     ---       adc_convert
      00FFAB28H   PUBLIC    CODE     ---       adc_init
      00000094H   SFRSYM    DATA     BYTE      P0M0
      000000D0H   SFRSYM    DATA     BYTE      PSW
      0000009DH   SFRSYM    DATA     BYTE      IRCBAND
      00000097H   SFRSYM    DATA     BYTE      AUXR2
      000000EFH   SFRSYM    DATA     BYTE      AUXINTIF
      000000FDH   SFRSYM    DATA     BYTE      S4CON
      000000ACH   SFRSYM    DATA     BYTE      S3CON
      0000009AH   SFRSYM    DATA     BYTE      S2CON
      000000B7H   SFRSYM    DATA     BYTE      IPH
      000000CDH   SFRSYM    DATA     BYTE      SPSTAT
      000000BEH   SFRSYM    DATA     BYTE      ADC_RESL
      000000DDH   SFRSYM    DATA     BYTE      T4T3M
      000000C1H   SFRSYM    DATA     BYTE      WDT_CONTR
      000000DFH   SFRSYM    DATA     BYTE      IP3
      000000F4H   SFRSYM    DATA     BYTE      USBCON
      000000B5H   SFRSYM    DATA     BYTE      IP2
      000000FFH   SFRSYM    DATA     BYTE      RSTCFG
      000000C7H   SFRSYM    DATA     BYTE      IAP_CONTR
      0000008EH   SFRSYM    DATA     BYTE      AUXR
      000000AFH   SFRSYM    DATA     BYTE      IE2
      00000088H   SFRSYM    DATA     BYTE      TCON
      00000089H   SFRSYM    DATA     BYTE      TMOD
      00000098H   SFRSYM    DATA     BYTE      SCON
      00000087H   SFRSYM    DATA     BYTE      PCON
      000000BCH   SFRSYM    DATA     BYTE      ADC_CONTR
      000000D1H   SFRSYM    DATA     BYTE      PSW1
      000000E7H   SFRSYM    DATA     BYTE      CMPCR2
      000000E6H   SFRSYM    DATA     BYTE      CMPCR1
      000000DEH   SFRSYM    DATA     BYTE      ADCCFG
      000000B8H   SFRSYM    DATA     BYTE      IP
      0000008FH   SFRSYM    DATA     BYTE      INTCLKO
      000000EEH   SFRSYM    DATA     BYTE      IP3H
      000000B6H   SFRSYM    DATA     BYTE      IP2H
      000000BDH   SFRSYM    DATA     BYTE      ADC_RES
      000000BFH   SFRSYM    DATA     BYTE      P_SW4
      000000A8H   SFRSYM    DATA     BYTE      IE
      000000BBH   SFRSYM    DATA     BYTE      P_SW3
      000000BAH   SFRSYM    DATA     BYTE      P_SW2
      000000A2H   SFRSYM    DATA     BYTE      P_SW1
      000000CEH   SFRSYM    DATA     BYTE      SPCTL
      000000F8H   SFRSYM    DATA     BYTE      P7
L251 LINKER/LOCATER V4.66.93.0                                                        10/24/2025  21:07:56  PAGE 55


      000000E8H   SFRSYM    DATA     BYTE      P6
      000000C8H   SFRSYM    DATA     BYTE      P5
      000000C0H   SFRSYM    DATA     BYTE      P4
      000000ABH   SFRSYM    DATA     BYTE      WKTCH
      000000B0H   SFRSYM    DATA     BYTE      P3
      000000A0H   SFRSYM    DATA     BYTE      P2
      00000090H   SFRSYM    DATA     BYTE      P1
      00000080H   SFRSYM    DATA     BYTE      P0
      00000091H   SFRSYM    DATA     BYTE      P1M1
      00000092H   SFRSYM    DATA     BYTE      P1M0
      00000093H   SFRSYM    DATA     BYTE      P0M1
      00011317H   SYMBOL    XDATA    BYTE      adc_resolution
      WR14        REGSYM    ---      INT       ch
      R13         REGSYM    ---      BYTE      count
      R12         REGSYM    ---      BYTE      i

      00FFBA27H   BLOCK     CODE     ---       LVL=0
      WR6         REGSYM    ---      INT       ch
      WR6         REGSYM    ---      WORD      adc_value
      00FFBA27H   LINE      CODE     ---       #75
      00FFBA27H   LINE      CODE     ---       #76
      00FFBA27H   LINE      CODE     ---       #79
      00FFBA2AH   LINE      CODE     ---       #80
      00FFBA2EH   LINE      CODE     ---       #82
      00FFBA31H   LINE      CODE     ---       #84
      00FFBA36H   LINE      CODE     ---       #86
      00FFBA39H   LINE      CODE     ---       #88
      00FFBA3BH   LINE      CODE     ---       #89
      00FFBA3FH   LINE      CODE     ---       #90
      00FFBA45H   LINE      CODE     ---       #92
      00FFBA48H   LINE      CODE     ---       #93
      00FFBA4BH   LINE      CODE     ---       #95
      00FFBA56H   LINE      CODE     ---       #98
      00FFBA56H   LINE      CODE     ---       #99
      ---         BLOCKEND  ---      ---       LVL=0

      00FFAB28H   BLOCK     CODE     ---       LVL=0
      WR4         REGSYM    ---      INT       ch
      WR2         REGSYM    ---      INT       resolution
      00FFAB28H   LINE      CODE     ---       #108
      00FFAB2CH   LINE      CODE     ---       #110
      00FFAB2FH   LINE      CODE     ---       #112
      00FFAB32H   LINE      CODE     ---       #113
      00FFAB38H   LINE      CODE     ---       #115
      00FFAB46H   LINE      CODE     ---       #118
      00FFAB5BH   LINE      CODE     ---       #119
      00FFAB6EH   LINE      CODE     ---       #120
      00FFAB70H   LINE      CODE     ---       #121
      00FFAB7AH   LINE      CODE     ---       #124
      00FFAB8FH   LINE      CODE     ---       #125
      00FFABA2H   LINE      CODE     ---       #126
      00FFABA2H   LINE      CODE     ---       #128
      00FFABA6H   LINE      CODE     ---       #130
      00FFABA9H   LINE      CODE     ---       #132
      00FFABAFH   LINE      CODE     ---       #133
      ---         BLOCKEND  ---      ---       LVL=0

      ---         MODULE    ---      ---       zf_driver_delay
      00FFB16CH   PUBLIC    CODE     ---       system_delay_init
      00FFAF08H   PUBLIC    CODE     ---       system_delay_ms
      000000D0H   SFRSYM    DATA     BYTE      PSW
      0000009DH   SFRSYM    DATA     BYTE      IRCBAND
      00000097H   SFRSYM    DATA     BYTE      AUXR2
      000000EFH   SFRSYM    DATA     BYTE      AUXINTIF
      000000FDH   SFRSYM    DATA     BYTE      S4CON
L251 LINKER/LOCATER V4.66.93.0                                                        10/24/2025  21:07:56  PAGE 56


      000000ACH   SFRSYM    DATA     BYTE      S3CON
      0000009AH   SFRSYM    DATA     BYTE      S2CON
      000000B7H   SFRSYM    DATA     BYTE      IPH
      000000CDH   SFRSYM    DATA     BYTE      SPSTAT
      000000DDH   SFRSYM    DATA     BYTE      T4T3M
      000000C1H   SFRSYM    DATA     BYTE      WDT_CONTR
      000000DFH   SFRSYM    DATA     BYTE      IP3
      000000F4H   SFRSYM    DATA     BYTE      USBCON
      000000B5H   SFRSYM    DATA     BYTE      IP2
      000000FFH   SFRSYM    DATA     BYTE      RSTCFG
      000000C7H   SFRSYM    DATA     BYTE      IAP_CONTR
      0000008EH   SFRSYM    DATA     BYTE      AUXR
      000000AFH   SFRSYM    DATA     BYTE      IE2
      00000088H   SFRSYM    DATA     BYTE      TCON
      00000089H   SFRSYM    DATA     BYTE      TMOD
      00000098H   SFRSYM    DATA     BYTE      SCON
      00000087H   SFRSYM    DATA     BYTE      PCON
      000000BCH   SFRSYM    DATA     BYTE      ADC_CONTR
      000000D1H   SFRSYM    DATA     BYTE      PSW1
      000000E7H   SFRSYM    DATA     BYTE      CMPCR2
      000000E6H   SFRSYM    DATA     BYTE      CMPCR1
      000000DEH   SFRSYM    DATA     BYTE      ADCCFG
      000000B8H   SFRSYM    DATA     BYTE      IP
      0000008FH   SFRSYM    DATA     BYTE      INTCLKO
      000000EEH   SFRSYM    DATA     BYTE      IP3H
      000000B6H   SFRSYM    DATA     BYTE      IP2H
      000000BFH   SFRSYM    DATA     BYTE      P_SW4
      000000A8H   SFRSYM    DATA     BYTE      IE
      000000BBH   SFRSYM    DATA     BYTE      P_SW3
      000000BAH   SFRSYM    DATA     BYTE      P_SW2
      000000A2H   SFRSYM    DATA     BYTE      P_SW1
      000000CEH   SFRSYM    DATA     BYTE      SPCTL
      000000F8H   SFRSYM    DATA     BYTE      P7
      000000E8H   SFRSYM    DATA     BYTE      P6
      000000C8H   SFRSYM    DATA     BYTE      P5
      000000C0H   SFRSYM    DATA     BYTE      P4
      000000ABH   SFRSYM    DATA     BYTE      WKTCH
      000000B0H   SFRSYM    DATA     BYTE      P3
      000000A0H   SFRSYM    DATA     BYTE      P2
      00000090H   SFRSYM    DATA     BYTE      P1
      00000080H   SFRSYM    DATA     BYTE      P0
      0001130AH   SYMBOL    XDATA    WORD      pca_delay_1ms
      0001130CH   SYMBOL    XDATA    WORD      pca_delay_1us

      00FFB16CH   BLOCK     CODE     ---       LVL=0
      00FFB16CH   LINE      CODE     ---       #48
      00FFB16CH   LINE      CODE     ---       #50
      00FFB183H   LINE      CODE     ---       #51
      00FFB19EH   LINE      CODE     ---       #53
      00FFB1ABH   LINE      CODE     ---       #54
      00FFB1B8H   LINE      CODE     ---       #55
      00FFB1C8H   LINE      CODE     ---       #57
      ---         BLOCKEND  ---      ---       LVL=0

      00FFAF08H   BLOCK     CODE     ---       LVL=0
      WR8         REGSYM    ---      WORD      ms
      00FFAF0AH   BLOCK     CODE     NEAR LAB  LVL=1
      WR6         REGSYM    ---      WORD      temp
      ---         BLOCKEND  ---      ---       LVL=1
      00FFAF08H   LINE      CODE     ---       #65
      00FFAF0AH   LINE      CODE     ---       #66
      00FFAF0AH   LINE      CODE     ---       #69
      00FFAF0CH   LINE      CODE     ---       #71
      00FFAF30H   LINE      CODE     ---       #73
      00FFAF3DH   LINE      CODE     ---       #74
L251 LINKER/LOCATER V4.66.93.0                                                        10/24/2025  21:07:56  PAGE 57


      00FFAF4CH   LINE      CODE     ---       #76
      00FFAF5AH   LINE      CODE     ---       #77
      00FFAF6AH   LINE      CODE     ---       #78
      00FFAF72H   LINE      CODE     ---       #79
      ---         BLOCKEND  ---      ---       LVL=0
      WR8         REGSYM    ---      WORD      ms
      WR6         REGSYM    ---      WORD      temp

      ---         MODULE    ---      ---       zf_driver_eeprom
      000000D0H   SFRSYM    DATA     BYTE      PSW
      0000009DH   SFRSYM    DATA     BYTE      IRCBAND
      00000097H   SFRSYM    DATA     BYTE      AUXR2
      000000C6H   SFRSYM    DATA     BYTE      IAP_TRIG
      000000EFH   SFRSYM    DATA     BYTE      AUXINTIF
      000000FDH   SFRSYM    DATA     BYTE      S4CON
      000000ACH   SFRSYM    DATA     BYTE      S3CON
      0000009AH   SFRSYM    DATA     BYTE      S2CON
      000000B7H   SFRSYM    DATA     BYTE      IPH
      000000CDH   SFRSYM    DATA     BYTE      SPSTAT
      000000DDH   SFRSYM    DATA     BYTE      T4T3M
      000000C1H   SFRSYM    DATA     BYTE      WDT_CONTR
      000000C2H   SFRSYM    DATA     BYTE      IAP_DATA
      000000DFH   SFRSYM    DATA     BYTE      IP3
      000000F4H   SFRSYM    DATA     BYTE      USBCON
      000000B5H   SFRSYM    DATA     BYTE      IP2
      000000FFH   SFRSYM    DATA     BYTE      RSTCFG
      000000C7H   SFRSYM    DATA     BYTE      IAP_CONTR
      0000008EH   SFRSYM    DATA     BYTE      AUXR
      000000AFH   SFRSYM    DATA     BYTE      IE2
      00000088H   SFRSYM    DATA     BYTE      TCON
      00000089H   SFRSYM    DATA     BYTE      TMOD
      00000098H   SFRSYM    DATA     BYTE      SCON
      000000F5H   SFRSYM    DATA     BYTE      IAP_TPS
      00000087H   SFRSYM    DATA     BYTE      PCON
      000000BCH   SFRSYM    DATA     BYTE      ADC_CONTR
      000000D1H   SFRSYM    DATA     BYTE      PSW1
      000000E7H   SFRSYM    DATA     BYTE      CMPCR2
      000000E6H   SFRSYM    DATA     BYTE      CMPCR1
      000000C4H   SFRSYM    DATA     BYTE      IAP_ADDRL
      000000C3H   SFRSYM    DATA     BYTE      IAP_ADDRH
      000000F6H   SFRSYM    DATA     BYTE      IAP_ADDRE
      000000DEH   SFRSYM    DATA     BYTE      ADCCFG
      000000B8H   SFRSYM    DATA     BYTE      IP
      0000008FH   SFRSYM    DATA     BYTE      INTCLKO
      000000EEH   SFRSYM    DATA     BYTE      IP3H
      000000B6H   SFRSYM    DATA     BYTE      IP2H
      000000C5H   SFRSYM    DATA     BYTE      IAP_CMD
      000000BFH   SFRSYM    DATA     BYTE      P_SW4
      000000A8H   SFRSYM    DATA     BYTE      IE
      000000BBH   SFRSYM    DATA     BYTE      P_SW3
      000000BAH   SFRSYM    DATA     BYTE      P_SW2
      000000A2H   SFRSYM    DATA     BYTE      P_SW1
      000000CEH   SFRSYM    DATA     BYTE      SPCTL
      000000F8H   SFRSYM    DATA     BYTE      P7
      000000A8H.7 SFRSYM    DATA     BIT       EA
      000000E8H   SFRSYM    DATA     BYTE      P6
      000000C8H   SFRSYM    DATA     BYTE      P5
      000000C0H   SFRSYM    DATA     BYTE      P4
      000000ABH   SFRSYM    DATA     BYTE      WKTCH
      000000B0H   SFRSYM    DATA     BYTE      P3
      000000A0H   SFRSYM    DATA     BYTE      P2
      00000090H   SFRSYM    DATA     BYTE      P1
      00000080H   SFRSYM    DATA     BYTE      P0
      00FFD34DH   SYMBOL    HCONST   ---       ?tpl?0001
      R7          REGSYM    ---      BYTE      write_time
L251 LINKER/LOCATER V4.66.93.0                                                        10/24/2025  21:07:56  PAGE 58


      DR0         REGSYM    ---      DWORD     addr
      R11         REGSYM    ---      BYTE      temp
      DR0         REGSYM    ---      DWORD     addr
      R15         REGSYM    ---      BYTE      byte
      REG=3       REGSYM    ---      ---       buf
      REG=3       REGSYM    ---      ---       buf
      DR0         REGSYM    ---      DWORD     addr
      REG=3       REGSYM    ---      ---       buf

      ---         MODULE    ---      ---       zf_driver_encoder
      00FFA3A5H   PUBLIC    CODE     ---       encoder_get_count
      00FF923BH   PUBLIC    CODE     ---       encoder_dir_init
      00FFA624H   PUBLIC    CODE     ---       encoder_clear_count
      000000D0H   SFRSYM    DATA     BYTE      PSW
      0000009DH   SFRSYM    DATA     BYTE      IRCBAND
      00000097H   SFRSYM    DATA     BYTE      AUXR2
      000000EFH   SFRSYM    DATA     BYTE      AUXINTIF
      000000FDH   SFRSYM    DATA     BYTE      S4CON
      000000ACH   SFRSYM    DATA     BYTE      S3CON
      0000009AH   SFRSYM    DATA     BYTE      S2CON
      000000B7H   SFRSYM    DATA     BYTE      IPH
      000000CDH   SFRSYM    DATA     BYTE      SPSTAT
      000000DDH   SFRSYM    DATA     BYTE      T4T3M
      000000C1H   SFRSYM    DATA     BYTE      WDT_CONTR
      00000088H.6 SFRSYM    DATA     BIT       TR1
      00000088H.4 SFRSYM    DATA     BIT       TR0
      000000D3H   SFRSYM    DATA     BYTE      T4L
      000000D5H   SFRSYM    DATA     BYTE      T3L
      000000D7H   SFRSYM    DATA     BYTE      T2L
      0000008BH   SFRSYM    DATA     BYTE      TL1
      0000008AH   SFRSYM    DATA     BYTE      TL0
      000000D2H   SFRSYM    DATA     BYTE      T4H
      000000D4H   SFRSYM    DATA     BYTE      T3H
      000000D6H   SFRSYM    DATA     BYTE      T2H
      0000008DH   SFRSYM    DATA     BYTE      TH1
      0000008CH   SFRSYM    DATA     BYTE      TH0
      000000DFH   SFRSYM    DATA     BYTE      IP3
      000000F4H   SFRSYM    DATA     BYTE      USBCON
      000000B5H   SFRSYM    DATA     BYTE      IP2
      000000FFH   SFRSYM    DATA     BYTE      RSTCFG
      000000C7H   SFRSYM    DATA     BYTE      IAP_CONTR
      0000008EH   SFRSYM    DATA     BYTE      AUXR
      000000AFH   SFRSYM    DATA     BYTE      IE2
      00000088H   SFRSYM    DATA     BYTE      TCON
      00000089H   SFRSYM    DATA     BYTE      TMOD
      00000098H   SFRSYM    DATA     BYTE      SCON
      00000087H   SFRSYM    DATA     BYTE      PCON
      000000BCH   SFRSYM    DATA     BYTE      ADC_CONTR
      000000D1H   SFRSYM    DATA     BYTE      PSW1
      000000E7H   SFRSYM    DATA     BYTE      CMPCR2
      000000E6H   SFRSYM    DATA     BYTE      CMPCR1
      000000DEH   SFRSYM    DATA     BYTE      ADCCFG
      000000B8H   SFRSYM    DATA     BYTE      IP
      0000008FH   SFRSYM    DATA     BYTE      INTCLKO
      000000EEH   SFRSYM    DATA     BYTE      IP3H
      000000B6H   SFRSYM    DATA     BYTE      IP2H
      000000BFH   SFRSYM    DATA     BYTE      P_SW4
      000000A8H   SFRSYM    DATA     BYTE      IE
      000000BBH   SFRSYM    DATA     BYTE      P_SW3
      000000BAH   SFRSYM    DATA     BYTE      P_SW2
      000000A2H   SFRSYM    DATA     BYTE      P_SW1
      000000CEH   SFRSYM    DATA     BYTE      SPCTL
      000000F8H   SFRSYM    DATA     BYTE      P7
      000000E8H   SFRSYM    DATA     BYTE      P6
      000000C8H   SFRSYM    DATA     BYTE      P5
L251 LINKER/LOCATER V4.66.93.0                                                        10/24/2025  21:07:56  PAGE 59


      000000C0H   SFRSYM    DATA     BYTE      P4
      000000ABH   SFRSYM    DATA     BYTE      WKTCH
      000000B0H   SFRSYM    DATA     BYTE      P3
      000000A0H   SFRSYM    DATA     BYTE      P2
      00000090H   SFRSYM    DATA     BYTE      P1
      00000080H   SFRSYM    DATA     BYTE      P0
      00011300H   SYMBOL    XDATA    ---       encoder_dir_pin

      00FFA3A5H   BLOCK     CODE     ---       LVL=0
      WR2         REGSYM    ---      INT       encoder_n
      00FFA3A9H   BLOCK     CODE     NEAR LAB  LVL=1
      WR14        REGSYM    ---      INT       dat
      ---         BLOCKEND  ---      ---       LVL=1
      00FFA3A5H   LINE      CODE     ---       #48
      00FFA3A9H   LINE      CODE     ---       #49
      00FFA3A9H   LINE      CODE     ---       #50
      00FFA3ABH   LINE      CODE     ---       #52
      00FFA3C7H   LINE      CODE     ---       #54
      00FFA3C7H   LINE      CODE     ---       #56
      00FFA3CDH   LINE      CODE     ---       #57
      00FFA3D3H   LINE      CODE     ---       #58
      00FFA3D5H   LINE      CODE     ---       #61
      00FFA3D5H   LINE      CODE     ---       #63
      00FFA3DBH   LINE      CODE     ---       #64
      00FFA3E1H   LINE      CODE     ---       #65
      00FFA3E3H   LINE      CODE     ---       #68
      00FFA3E3H   LINE      CODE     ---       #70
      00FFA3E9H   LINE      CODE     ---       #71
      00FFA3EFH   LINE      CODE     ---       #72
      00FFA3F1H   LINE      CODE     ---       #75
      00FFA3F1H   LINE      CODE     ---       #77
      00FFA3F7H   LINE      CODE     ---       #78
      00FFA3FDH   LINE      CODE     ---       #79
      00FFA3FFH   LINE      CODE     ---       #82
      00FFA3FFH   LINE      CODE     ---       #84
      00FFA405H   LINE      CODE     ---       #85
      00FFA40BH   LINE      CODE     ---       #86
      00FFA40DH   LINE      CODE     ---       #89
      00FFA40DH   LINE      CODE     ---       #91
      00FFA41CH   LINE      CODE     ---       #92
      00FFA42BH   LINE      CODE     ---       #93
      00FFA42BH   LINE      CODE     ---       #96
      00FFA42BH   LINE      CODE     ---       #98
      00FFA43FH   LINE      CODE     ---       #100
      00FFA445H   LINE      CODE     ---       #101
      00FFA445H   LINE      CODE     ---       #103
      00FFA447H   LINE      CODE     ---       #104
      ---         BLOCKEND  ---      ---       LVL=0

      00FFA624H   BLOCK     CODE     ---       LVL=0
      WR6         REGSYM    ---      INT       encoder_n
      00FFA624H   LINE      CODE     ---       #113
      00FFA624H   LINE      CODE     ---       #115
      00FFA63EH   LINE      CODE     ---       #117
      00FFA63EH   LINE      CODE     ---       #119
      00FFA640H   LINE      CODE     ---       #120
      00FFA643H   LINE      CODE     ---       #121
      00FFA646H   LINE      CODE     ---       #122
      00FFA648H   LINE      CODE     ---       #123
      00FFA64AH   LINE      CODE     ---       #126
      00FFA64AH   LINE      CODE     ---       #128
      00FFA64CH   LINE      CODE     ---       #129
      00FFA64FH   LINE      CODE     ---       #130
      00FFA652H   LINE      CODE     ---       #131
      00FFA654H   LINE      CODE     ---       #132
L251 LINKER/LOCATER V4.66.93.0                                                        10/24/2025  21:07:56  PAGE 60


      00FFA656H   LINE      CODE     ---       #135
      00FFA656H   LINE      CODE     ---       #137
      00FFA659H   LINE      CODE     ---       #138
      00FFA65CH   LINE      CODE     ---       #139
      00FFA65FH   LINE      CODE     ---       #140
      00FFA662H   LINE      CODE     ---       #141
      00FFA664H   LINE      CODE     ---       #144
      00FFA664H   LINE      CODE     ---       #146
      00FFA667H   LINE      CODE     ---       #147
      00FFA66AH   LINE      CODE     ---       #148
      00FFA66DH   LINE      CODE     ---       #149
      00FFA670H   LINE      CODE     ---       #150
      00FFA672H   LINE      CODE     ---       #153
      00FFA672H   LINE      CODE     ---       #155
      00FFA675H   LINE      CODE     ---       #156
      00FFA678H   LINE      CODE     ---       #157
      00FFA67BH   LINE      CODE     ---       #158
      00FFA67EH   LINE      CODE     ---       #159
      00FFA680H   LINE      CODE     ---       #162
      00FFA680H   LINE      CODE     ---       #164
      00FFA690H   LINE      CODE     ---       #165
      00FFA69CH   LINE      CODE     ---       #166
      00FFA6A8H   LINE      CODE     ---       #167
      00FFA6B8H   LINE      CODE     ---       #168
      00FFA6B8H   LINE      CODE     ---       #170
      00FFA6B8H   LINE      CODE     ---       #171
      ---         BLOCKEND  ---      ---       LVL=0

      00FF923BH   BLOCK     CODE     ---       LVL=0
      WR14        REGSYM    ---      INT       encoder_n
      WR12        REGSYM    ---      INT       dir_pin
      0001100AH   SYMBOL    XDATA    INT       lsb_pin
      00FF923BH   LINE      CODE     ---       #183
      00FF9247H   LINE      CODE     ---       #189
      00FF925DH   LINE      CODE     ---       #190
      00FF9279H   LINE      CODE     ---       #191
      00FF9299H   LINE      CODE     ---       #194
      00FF92A5H   LINE      CODE     ---       #196
      00FF92B8H   LINE      CODE     ---       #198
      00FF92C7H   LINE      CODE     ---       #200
      00FF92E1H   LINE      CODE     ---       #202
      00FF92E1H   LINE      CODE     ---       #204
      00FF92E4H   LINE      CODE     ---       #205
      00FF92E7H   LINE      CODE     ---       #206
      00FF92EAH   LINE      CODE     ---       #207
      00FF92ECH   LINE      CODE     ---       #208
      00FF92EEH   LINE      CODE     ---       #211
      00FF92EEH   LINE      CODE     ---       #213
      00FF92F1H   LINE      CODE     ---       #214
      00FF92F4H   LINE      CODE     ---       #215
      00FF92F7H   LINE      CODE     ---       #216
      00FF92F9H   LINE      CODE     ---       #217
      00FF92FBH   LINE      CODE     ---       #220
      00FF92FBH   LINE      CODE     ---       #222
      00FF92FEH   LINE      CODE     ---       #223
      00FF9301H   LINE      CODE     ---       #224
      00FF9304H   LINE      CODE     ---       #225
      00FF9306H   LINE      CODE     ---       #228
      00FF9306H   LINE      CODE     ---       #230
      00FF9309H   LINE      CODE     ---       #231
      00FF930CH   LINE      CODE     ---       #232
      00FF930FH   LINE      CODE     ---       #233
      00FF9311H   LINE      CODE     ---       #236
      00FF9311H   LINE      CODE     ---       #238
      00FF9314H   LINE      CODE     ---       #239
L251 LINKER/LOCATER V4.66.93.0                                                        10/24/2025  21:07:56  PAGE 61


      00FF9317H   LINE      CODE     ---       #240
      00FF931AH   LINE      CODE     ---       #241
      00FF931CH   LINE      CODE     ---       #244
      00FF931CH   LINE      CODE     ---       #246
      00FF9328H   LINE      CODE     ---       #247
      00FF9334H   LINE      CODE     ---       #248
      00FF9344H   LINE      CODE     ---       #249
      00FF9344H   LINE      CODE     ---       #251
      00FF9344H   LINE      CODE     ---       #252
      ---         BLOCKEND  ---      ---       LVL=0

      ---         MODULE    ---      ---       zf_driver_exti
      000000D0H   SFRSYM    DATA     BYTE      PSW
      0000009DH   SFRSYM    DATA     BYTE      IRCBAND
      00000097H   SFRSYM    DATA     BYTE      AUXR2
      000000EFH   SFRSYM    DATA     BYTE      AUXINTIF
      000000FDH   SFRSYM    DATA     BYTE      S4CON
      000000ACH   SFRSYM    DATA     BYTE      S3CON
      0000009AH   SFRSYM    DATA     BYTE      S2CON
      000000B7H   SFRSYM    DATA     BYTE      IPH
      000000CDH   SFRSYM    DATA     BYTE      SPSTAT
      000000DDH   SFRSYM    DATA     BYTE      T4T3M
      000000C1H   SFRSYM    DATA     BYTE      WDT_CONTR
      000000DFH   SFRSYM    DATA     BYTE      IP3
      000000F4H   SFRSYM    DATA     BYTE      USBCON
      000000B5H   SFRSYM    DATA     BYTE      IP2
      000000FFH   SFRSYM    DATA     BYTE      RSTCFG
      000000C7H   SFRSYM    DATA     BYTE      IAP_CONTR
      0000008EH   SFRSYM    DATA     BYTE      AUXR
      000000AFH   SFRSYM    DATA     BYTE      IE2
      00000088H   SFRSYM    DATA     BYTE      TCON
      00000089H   SFRSYM    DATA     BYTE      TMOD
      00000098H   SFRSYM    DATA     BYTE      SCON
      00000087H   SFRSYM    DATA     BYTE      PCON
      000000BCH   SFRSYM    DATA     BYTE      ADC_CONTR
      000000D1H   SFRSYM    DATA     BYTE      PSW1
      000000E7H   SFRSYM    DATA     BYTE      CMPCR2
      000000E6H   SFRSYM    DATA     BYTE      CMPCR1
      000000DEH   SFRSYM    DATA     BYTE      ADCCFG
      000000B8H   SFRSYM    DATA     BYTE      IP
      0000008FH   SFRSYM    DATA     BYTE      INTCLKO
      000000EEH   SFRSYM    DATA     BYTE      IP3H
      000000B6H   SFRSYM    DATA     BYTE      IP2H
      000000BFH   SFRSYM    DATA     BYTE      P_SW4
      000000A8H   SFRSYM    DATA     BYTE      IE
      000000BBH   SFRSYM    DATA     BYTE      P_SW3
      000000BAH   SFRSYM    DATA     BYTE      P_SW2
      000000A2H   SFRSYM    DATA     BYTE      P_SW1
      000000CEH   SFRSYM    DATA     BYTE      SPCTL
      000000F8H   SFRSYM    DATA     BYTE      P7
      000000E8H   SFRSYM    DATA     BYTE      P6
      000000C8H   SFRSYM    DATA     BYTE      P5
      000000C0H   SFRSYM    DATA     BYTE      P4
      000000ABH   SFRSYM    DATA     BYTE      WKTCH
      000000B0H   SFRSYM    DATA     BYTE      P3
      000000A0H   SFRSYM    DATA     BYTE      P2
      00000090H   SFRSYM    DATA     BYTE      P1
      00000080H   SFRSYM    DATA     BYTE      P0

      ---         MODULE    ---      ---       zf_driver_gpio
      00FF9CB5H   PUBLIC    CODE     ---       gpio_init
      00FF00C6H   PUBLIC    CODE     ---       gpio_get_level
      00FF73E3H   PUBLIC    CODE     ---       gpio_set_level_speed
      00FF8845H   PUBLIC    CODE     ---       gpio_set_level
      00FF8C51H   PUBLIC    CODE     ---       gpio_set_impedance
L251 LINKER/LOCATER V4.66.93.0                                                        10/24/2025  21:07:56  PAGE 62


      00000094H   SFRSYM    DATA     BYTE      P0M0
      000000D0H   SFRSYM    DATA     BYTE      PSW
      0000009DH   SFRSYM    DATA     BYTE      IRCBAND
      00000097H   SFRSYM    DATA     BYTE      AUXR2
      000000EFH   SFRSYM    DATA     BYTE      AUXINTIF
      000000FDH   SFRSYM    DATA     BYTE      S4CON
      000000ACH   SFRSYM    DATA     BYTE      S3CON
      0000009AH   SFRSYM    DATA     BYTE      S2CON
      000000B7H   SFRSYM    DATA     BYTE      IPH
      000000CDH   SFRSYM    DATA     BYTE      SPSTAT
      000000DDH   SFRSYM    DATA     BYTE      T4T3M
      000000C1H   SFRSYM    DATA     BYTE      WDT_CONTR
      000000DFH   SFRSYM    DATA     BYTE      IP3
      000000F4H   SFRSYM    DATA     BYTE      USBCON
      000000B5H   SFRSYM    DATA     BYTE      IP2
      000000FFH   SFRSYM    DATA     BYTE      RSTCFG
      000000C7H   SFRSYM    DATA     BYTE      IAP_CONTR
      0000008EH   SFRSYM    DATA     BYTE      AUXR
      000000AFH   SFRSYM    DATA     BYTE      IE2
      00000088H   SFRSYM    DATA     BYTE      TCON
      00000089H   SFRSYM    DATA     BYTE      TMOD
      00000098H   SFRSYM    DATA     BYTE      SCON
      00000087H   SFRSYM    DATA     BYTE      PCON
      000000BCH   SFRSYM    DATA     BYTE      ADC_CONTR
      000000D1H   SFRSYM    DATA     BYTE      PSW1
      000000E7H   SFRSYM    DATA     BYTE      CMPCR2
      000000E6H   SFRSYM    DATA     BYTE      CMPCR1
      000000DEH   SFRSYM    DATA     BYTE      ADCCFG
      000000B8H   SFRSYM    DATA     BYTE      IP
      0000008FH   SFRSYM    DATA     BYTE      INTCLKO
      000000EEH   SFRSYM    DATA     BYTE      IP3H
      000000B6H   SFRSYM    DATA     BYTE      IP2H
      000000BFH   SFRSYM    DATA     BYTE      P_SW4
      000000A8H   SFRSYM    DATA     BYTE      IE
      000000BBH   SFRSYM    DATA     BYTE      P_SW3
      000000BAH   SFRSYM    DATA     BYTE      P_SW2
      000000A2H   SFRSYM    DATA     BYTE      P_SW1
      000000CEH   SFRSYM    DATA     BYTE      SPCTL
      000000F8H   SFRSYM    DATA     BYTE      P7
      000000E8H   SFRSYM    DATA     BYTE      P6
      000000C8H   SFRSYM    DATA     BYTE      P5
      000000C0H   SFRSYM    DATA     BYTE      P4
      000000C9H   SFRSYM    DATA     BYTE      P5M1
      000000ABH   SFRSYM    DATA     BYTE      WKTCH
      000000B0H   SFRSYM    DATA     BYTE      P3
      000000B3H   SFRSYM    DATA     BYTE      P4M1
      000000CAH   SFRSYM    DATA     BYTE      P5M0
      000000A0H   SFRSYM    DATA     BYTE      P2
      000000B1H   SFRSYM    DATA     BYTE      P3M1
      000000B4H   SFRSYM    DATA     BYTE      P4M0
      00000090H   SFRSYM    DATA     BYTE      P1
      00000095H   SFRSYM    DATA     BYTE      P2M1
      000000B2H   SFRSYM    DATA     BYTE      P3M0
      00000080H   SFRSYM    DATA     BYTE      P0
      00000091H   SFRSYM    DATA     BYTE      P1M1
      00000096H   SFRSYM    DATA     BYTE      P2M0
      00000092H   SFRSYM    DATA     BYTE      P1M0
      00000093H   SFRSYM    DATA     BYTE      P0M1
      00FF673EH   SYMBOL    CODE     ---       gpio_set_dir
      00FF7D80H   SYMBOL    CODE     ---       gpio_set_mode

      00FF7D80H   BLOCK     CODE     ---       LVL=0
      WR4         REGSYM    ---      INT       pin
      WR8         REGSYM    ---      INT       mode
      00FF7D80H   LINE      CODE     ---       #45
L251 LINKER/LOCATER V4.66.93.0                                                        10/24/2025  21:07:56  PAGE 63


      00FF7D84H   LINE      CODE     ---       #51
      00FF7D90H   LINE      CODE     ---       #53
      00FF7DBFH   LINE      CODE     ---       #54
      00FF7DEEH   LINE      CODE     ---       #55
      00FF7DF1H   LINE      CODE     ---       #56
      00FF7DF7H   LINE      CODE     ---       #58
      00FF7E24H   LINE      CODE     ---       #59
      00FF7E27H   LINE      CODE     ---       #60
      00FF7E33H   LINE      CODE     ---       #62
      00FF7E60H   LINE      CODE     ---       #63
      00FF7E63H   LINE      CODE     ---       #64
      00FF7E6CH   LINE      CODE     ---       #66
      00FF7EA2H   LINE      CODE     ---       #68
      00FF7EA2H   LINE      CODE     ---       #70
      00FF7EB5H   LINE      CODE     ---       #71
      00FF7EC8H   LINE      CODE     ---       #73
      00FF7ECBH   LINE      CODE     ---       #75
      00FF7ECBH   LINE      CODE     ---       #77
      00FF7EDEH   LINE      CODE     ---       #78
      00FF7EF1H   LINE      CODE     ---       #80
      00FF7EF4H   LINE      CODE     ---       #82
      00FF7EF4H   LINE      CODE     ---       #84
      00FF7F07H   LINE      CODE     ---       #85
      00FF7F1AH   LINE      CODE     ---       #87
      00FF7F1DH   LINE      CODE     ---       #89
      00FF7F1DH   LINE      CODE     ---       #91
      00FF7F30H   LINE      CODE     ---       #92
      00FF7F43H   LINE      CODE     ---       #94
      00FF7F45H   LINE      CODE     ---       #96
      00FF7F45H   LINE      CODE     ---       #98
      00FF7F58H   LINE      CODE     ---       #99
      00FF7F6BH   LINE      CODE     ---       #101
      00FF7F6DH   LINE      CODE     ---       #103
      00FF7F6DH   LINE      CODE     ---       #105
      00FF7F80H   LINE      CODE     ---       #106
      00FF7F93H   LINE      CODE     ---       #108
      00FF7F95H   LINE      CODE     ---       #109
      00FF7F95H   LINE      CODE     ---       #112
      00FF7F95H   LINE      CODE     ---       #113
      00FF7F95H   LINE      CODE     ---       #114
      00FF7F95H   LINE      CODE     ---       #117
      00FF7FA5H   LINE      CODE     ---       #119
      00FF7FA5H   LINE      CODE     ---       #120
      ---         BLOCKEND  ---      ---       LVL=0

      00FF73E3H   BLOCK     CODE     ---       LVL=0
      WR14        REGSYM    ---      INT       pin
      WR12        REGSYM    ---      INT       speed
      00FF73E3H   LINE      CODE     ---       #123
      00FF73E9H   LINE      CODE     ---       #125
      00FF7423H   LINE      CODE     ---       #127
      00FF7423H   LINE      CODE     ---       #129
      00FF7427H   LINE      CODE     ---       #131
      00FF744AH   LINE      CODE     ---       #132
      00FF744DH   LINE      CODE     ---       #133
      00FF7453H   LINE      CODE     ---       #135
      00FF7474H   LINE      CODE     ---       #136
      00FF7477H   LINE      CODE     ---       #139
      00FF7487H   LINE      CODE     ---       #141
      00FF7487H   LINE      CODE     ---       #143
      00FF748AH   LINE      CODE     ---       #145
      00FF748AH   LINE      CODE     ---       #147
      00FF748EH   LINE      CODE     ---       #149
      00FF74B1H   LINE      CODE     ---       #150
      00FF74B4H   LINE      CODE     ---       #151
L251 LINKER/LOCATER V4.66.93.0                                                        10/24/2025  21:07:56  PAGE 64


      00FF74BAH   LINE      CODE     ---       #153
      00FF74DBH   LINE      CODE     ---       #154
      00FF74DEH   LINE      CODE     ---       #157
      00FF74EEH   LINE      CODE     ---       #159
      00FF74EEH   LINE      CODE     ---       #161
      00FF74F1H   LINE      CODE     ---       #163
      00FF74F1H   LINE      CODE     ---       #165
      00FF74F5H   LINE      CODE     ---       #167
      00FF7518H   LINE      CODE     ---       #168
      00FF751BH   LINE      CODE     ---       #169
      00FF7521H   LINE      CODE     ---       #171
      00FF7542H   LINE      CODE     ---       #172
      00FF7545H   LINE      CODE     ---       #175
      00FF7555H   LINE      CODE     ---       #177
      00FF7555H   LINE      CODE     ---       #179
      00FF7558H   LINE      CODE     ---       #181
      00FF7558H   LINE      CODE     ---       #183
      00FF755CH   LINE      CODE     ---       #185
      00FF757FH   LINE      CODE     ---       #186
      00FF7582H   LINE      CODE     ---       #187
      00FF7588H   LINE      CODE     ---       #189
      00FF75A9H   LINE      CODE     ---       #190
      00FF75ACH   LINE      CODE     ---       #193
      00FF75BCH   LINE      CODE     ---       #195
      00FF75BCH   LINE      CODE     ---       #197
      00FF75BFH   LINE      CODE     ---       #199
      00FF75BFH   LINE      CODE     ---       #201
      00FF75C3H   LINE      CODE     ---       #203
      00FF75E6H   LINE      CODE     ---       #204
      00FF75E9H   LINE      CODE     ---       #205
      00FF75EFH   LINE      CODE     ---       #207
      00FF7610H   LINE      CODE     ---       #208
      00FF7613H   LINE      CODE     ---       #211
      00FF7623H   LINE      CODE     ---       #213
      00FF7623H   LINE      CODE     ---       #215
      00FF7625H   LINE      CODE     ---       #217
      00FF7625H   LINE      CODE     ---       #219
      00FF7629H   LINE      CODE     ---       #221
      00FF764CH   LINE      CODE     ---       #222
      00FF764EH   LINE      CODE     ---       #223
      00FF7654H   LINE      CODE     ---       #225
      00FF7675H   LINE      CODE     ---       #226
      00FF7677H   LINE      CODE     ---       #229
      00FF7687H   LINE      CODE     ---       #231
      00FF7687H   LINE      CODE     ---       #233
      00FF7689H   LINE      CODE     ---       #235
      00FF7689H   LINE      CODE     ---       #237
      00FF7699H   LINE      CODE     ---       #239
      00FF7699H   LINE      CODE     ---       #240
      00FF7699H   LINE      CODE     ---       #241
      ---         BLOCKEND  ---      ---       LVL=0

      00FF673EH   BLOCK     CODE     ---       LVL=0
      WR4         REGSYM    ---      INT       pin
      WR2         REGSYM    ---      INT       dir
      00FF673EH   LINE      CODE     ---       #245
      00FF6742H   LINE      CODE     ---       #247
      00FF677CH   LINE      CODE     ---       #249
      00FF677CH   LINE      CODE     ---       #251
      00FF6782H   LINE      CODE     ---       #253
      00FF6797H   LINE      CODE     ---       #254
      00FF67ACH   LINE      CODE     ---       #255
      00FF67AFH   LINE      CODE     ---       #261
      00FF67B5H   LINE      CODE     ---       #263
      00FF67CAH   LINE      CODE     ---       #264
L251 LINKER/LOCATER V4.66.93.0                                                        10/24/2025  21:07:56  PAGE 65


      00FF67DDH   LINE      CODE     ---       #265
      00FF67E0H   LINE      CODE     ---       #266
      00FF67E7H   LINE      CODE     ---       #268
      00FF67FAH   LINE      CODE     ---       #269
      00FF680FH   LINE      CODE     ---       #270
      00FF680FH   LINE      CODE     ---       #272
      00FF6812H   LINE      CODE     ---       #274
      00FF6812H   LINE      CODE     ---       #276
      00FF6818H   LINE      CODE     ---       #278
      00FF682DH   LINE      CODE     ---       #279
      00FF6842H   LINE      CODE     ---       #280
      00FF6845H   LINE      CODE     ---       #286
      00FF684BH   LINE      CODE     ---       #288
      00FF6860H   LINE      CODE     ---       #289
      00FF6873H   LINE      CODE     ---       #290
      00FF6876H   LINE      CODE     ---       #291
      00FF687DH   LINE      CODE     ---       #293
      00FF6890H   LINE      CODE     ---       #294
      00FF68A5H   LINE      CODE     ---       #295
      00FF68A5H   LINE      CODE     ---       #297
      00FF68A8H   LINE      CODE     ---       #299
      00FF68A8H   LINE      CODE     ---       #301
      00FF68AEH   LINE      CODE     ---       #303
      00FF68C3H   LINE      CODE     ---       #304
      00FF68D8H   LINE      CODE     ---       #305
      00FF68DBH   LINE      CODE     ---       #311
      00FF68E1H   LINE      CODE     ---       #313
      00FF68F6H   LINE      CODE     ---       #314
      00FF6909H   LINE      CODE     ---       #315
      00FF690CH   LINE      CODE     ---       #316
      00FF6913H   LINE      CODE     ---       #318
      00FF6926H   LINE      CODE     ---       #319
      00FF693BH   LINE      CODE     ---       #320
      00FF693BH   LINE      CODE     ---       #322
      00FF693EH   LINE      CODE     ---       #324
      00FF693EH   LINE      CODE     ---       #326
      00FF6944H   LINE      CODE     ---       #328
      00FF6959H   LINE      CODE     ---       #329
      00FF696EH   LINE      CODE     ---       #330
      00FF6971H   LINE      CODE     ---       #336
      00FF6977H   LINE      CODE     ---       #338
      00FF698CH   LINE      CODE     ---       #339
      00FF699FH   LINE      CODE     ---       #340
      00FF69A2H   LINE      CODE     ---       #341
      00FF69A9H   LINE      CODE     ---       #343
      00FF69BCH   LINE      CODE     ---       #344
      00FF69D1H   LINE      CODE     ---       #345
      00FF69D1H   LINE      CODE     ---       #347
      00FF69D4H   LINE      CODE     ---       #349
      00FF69D4H   LINE      CODE     ---       #351
      00FF69DAH   LINE      CODE     ---       #353
      00FF69EFH   LINE      CODE     ---       #354
      00FF6A04H   LINE      CODE     ---       #355
      00FF6A07H   LINE      CODE     ---       #361
      00FF6A0DH   LINE      CODE     ---       #363
      00FF6A22H   LINE      CODE     ---       #364
      00FF6A35H   LINE      CODE     ---       #365
      00FF6A38H   LINE      CODE     ---       #366
      00FF6A3FH   LINE      CODE     ---       #368
      00FF6A52H   LINE      CODE     ---       #369
      00FF6A67H   LINE      CODE     ---       #370
      00FF6A67H   LINE      CODE     ---       #372
      00FF6A6AH   LINE      CODE     ---       #374
      00FF6A6AH   LINE      CODE     ---       #376
      00FF6A70H   LINE      CODE     ---       #378
L251 LINKER/LOCATER V4.66.93.0                                                        10/24/2025  21:07:56  PAGE 66


      00FF6A85H   LINE      CODE     ---       #379
      00FF6A9AH   LINE      CODE     ---       #380
      00FF6A9CH   LINE      CODE     ---       #386
      00FF6AA2H   LINE      CODE     ---       #388
      00FF6AB7H   LINE      CODE     ---       #389
      00FF6ACAH   LINE      CODE     ---       #390
      00FF6ACCH   LINE      CODE     ---       #391
      00FF6AD0H   LINE      CODE     ---       #393
      00FF6AE3H   LINE      CODE     ---       #394
      00FF6AF8H   LINE      CODE     ---       #395
      00FF6AF8H   LINE      CODE     ---       #397
      00FF6AFAH   LINE      CODE     ---       #399
      00FF6AFAH   LINE      CODE     ---       #401
      00FF6B0AH   LINE      CODE     ---       #403
      00FF6B0AH   LINE      CODE     ---       #404
      00FF6B0AH   LINE      CODE     ---       #405
      ---         BLOCKEND  ---      ---       LVL=0

      00FF00C6H   BLOCK     CODE     ---       LVL=0
      WR4         REGSYM    ---      INT       pin
      00FF00CAH   BLOCK     CODE     NEAR LAB  LVL=1
      R15         REGSYM    ---      BYTE      status
      ---         BLOCKEND  ---      ---       LVL=1
      00FF00C6H   LINE      CODE     ---       #413
      00FF00CAH   LINE      CODE     ---       #414
      00FF00CAH   LINE      CODE     ---       #415
      00FF00CCH   LINE      CODE     ---       #417
      00FF00F9H   LINE      CODE     ---       #419
      00FF00F9H   LINE      CODE     ---       #421
      00FF010DH   LINE      CODE     ---       #423
      00FF010FH   LINE      CODE     ---       #425
      00FF010FH   LINE      CODE     ---       #427
      00FF0123H   LINE      CODE     ---       #429
      00FF0125H   LINE      CODE     ---       #431
      00FF0125H   LINE      CODE     ---       #433
      00FF0139H   LINE      CODE     ---       #435
      00FF013BH   LINE      CODE     ---       #437
      00FF013BH   LINE      CODE     ---       #439
      00FF014FH   LINE      CODE     ---       #441
      00FF0151H   LINE      CODE     ---       #443
      00FF0151H   LINE      CODE     ---       #445
      00FF0165H   LINE      CODE     ---       #447
      00FF0167H   LINE      CODE     ---       #449
      00FF0167H   LINE      CODE     ---       #451
      00FF017BH   LINE      CODE     ---       #453
      00FF017DH   LINE      CODE     ---       #455
      00FF017DH   LINE      CODE     ---       #457
      00FF018DH   LINE      CODE     ---       #459
      00FF018DH   LINE      CODE     ---       #460
      00FF018DH   LINE      CODE     ---       #462
      00FF0196H   LINE      CODE     ---       #463
      ---         BLOCKEND  ---      ---       LVL=0

      00FF8845H   BLOCK     CODE     ---       LVL=0
      WR4         REGSYM    ---      INT       pin
      R10         REGSYM    ---      BYTE      dat
      00FF8845H   LINE      CODE     ---       #472
      00FF8849H   LINE      CODE     ---       #474
      00FF8880H   LINE      CODE     ---       #476
      00FF8880H   LINE      CODE     ---       #478
      00FF8884H   LINE      CODE     ---       #480
      00FF8897H   LINE      CODE     ---       #481
      00FF889AH   LINE      CODE     ---       #484
      00FF88AFH   LINE      CODE     ---       #485
      00FF88AFH   LINE      CODE     ---       #487
L251 LINKER/LOCATER V4.66.93.0                                                        10/24/2025  21:07:56  PAGE 67


      00FF88B2H   LINE      CODE     ---       #489
      00FF88B2H   LINE      CODE     ---       #491
      00FF88B6H   LINE      CODE     ---       #493
      00FF88C9H   LINE      CODE     ---       #494
      00FF88CCH   LINE      CODE     ---       #497
      00FF88E1H   LINE      CODE     ---       #498
      00FF88E1H   LINE      CODE     ---       #500
      00FF88E4H   LINE      CODE     ---       #502
      00FF88E4H   LINE      CODE     ---       #504
      00FF88E8H   LINE      CODE     ---       #506
      00FF88FBH   LINE      CODE     ---       #507
      00FF88FEH   LINE      CODE     ---       #510
      00FF8913H   LINE      CODE     ---       #511
      00FF8913H   LINE      CODE     ---       #513
      00FF8916H   LINE      CODE     ---       #515
      00FF8916H   LINE      CODE     ---       #517
      00FF891AH   LINE      CODE     ---       #519
      00FF892DH   LINE      CODE     ---       #520
      00FF8930H   LINE      CODE     ---       #523
      00FF8945H   LINE      CODE     ---       #524
      00FF8945H   LINE      CODE     ---       #526
      00FF8947H   LINE      CODE     ---       #528
      00FF8947H   LINE      CODE     ---       #530
      00FF894BH   LINE      CODE     ---       #532
      00FF895EH   LINE      CODE     ---       #533
      00FF8960H   LINE      CODE     ---       #536
      00FF8975H   LINE      CODE     ---       #537
      00FF8975H   LINE      CODE     ---       #539
      00FF8977H   LINE      CODE     ---       #541
      00FF8977H   LINE      CODE     ---       #543
      00FF897BH   LINE      CODE     ---       #545
      00FF898EH   LINE      CODE     ---       #546
      00FF8990H   LINE      CODE     ---       #549
      00FF89A5H   LINE      CODE     ---       #550
      00FF89A5H   LINE      CODE     ---       #552
      00FF89A7H   LINE      CODE     ---       #554
      00FF89A7H   LINE      CODE     ---       #556
      00FF89B7H   LINE      CODE     ---       #558
      00FF89B7H   LINE      CODE     ---       #559
      00FF89B7H   LINE      CODE     ---       #560
      ---         BLOCKEND  ---      ---       LVL=0
      WR14        REGSYM    ---      INT       pin

      00FF8C51H   BLOCK     CODE     ---       LVL=0
      WR4         REGSYM    ---      INT       pin
      00FF8C51H   LINE      CODE     ---       #587
      00FF8C53H   LINE      CODE     ---       #589
      00FF8C87H   LINE      CODE     ---       #591
      00FF8C87H   LINE      CODE     ---       #593
      00FF8C9AH   LINE      CODE     ---       #594
      00FF8CAFH   LINE      CODE     ---       #596
      00FF8CB2H   LINE      CODE     ---       #598
      00FF8CB2H   LINE      CODE     ---       #600
      00FF8CC5H   LINE      CODE     ---       #601
      00FF8CDAH   LINE      CODE     ---       #603
      00FF8CDDH   LINE      CODE     ---       #605
      00FF8CDDH   LINE      CODE     ---       #607
      00FF8CF0H   LINE      CODE     ---       #608
      00FF8D05H   LINE      CODE     ---       #610
      00FF8D08H   LINE      CODE     ---       #612
      00FF8D08H   LINE      CODE     ---       #614
      00FF8D1BH   LINE      CODE     ---       #615
      00FF8D30H   LINE      CODE     ---       #617
      00FF8D32H   LINE      CODE     ---       #619
      00FF8D32H   LINE      CODE     ---       #621
L251 LINKER/LOCATER V4.66.93.0                                                        10/24/2025  21:07:56  PAGE 68


      00FF8D45H   LINE      CODE     ---       #622
      00FF8D5AH   LINE      CODE     ---       #624
      00FF8D5CH   LINE      CODE     ---       #626
      00FF8D5CH   LINE      CODE     ---       #628
      00FF8D6FH   LINE      CODE     ---       #629
      00FF8D84H   LINE      CODE     ---       #631
      00FF8D86H   LINE      CODE     ---       #633
      00FF8D86H   LINE      CODE     ---       #635
      00FF8D96H   LINE      CODE     ---       #637
      00FF8D96H   LINE      CODE     ---       #638
      00FF8D96H   LINE      CODE     ---       #639
      ---         BLOCKEND  ---      ---       LVL=0

      00FF9CB5H   BLOCK     CODE     ---       LVL=0
      WR14        REGSYM    ---      INT       pin
      0001101AH   SYMBOL    XDATA    INT       dir
      0001101CH   SYMBOL    XDATA    BYTE      dat
      WR12        REGSYM    ---      INT       mode
      00FF9CB5H   LINE      CODE     ---       #650
      00FF9CC5H   LINE      CODE     ---       #652
      00FF9CEDH   LINE      CODE     ---       #654
      00FF9CF9H   LINE      CODE     ---       #656
      00FF9D02H   LINE      CODE     ---       #657
      00FF9D09H   LINE      CODE     ---       #658
      00FF9D0BH   LINE      CODE     ---       #659
      00FF9D15H   LINE      CODE     ---       #661
      00FF9D19H   LINE      CODE     ---       #663
      00FF9D1EH   LINE      CODE     ---       #664
      00FF9D20H   LINE      CODE     ---       #667
      00FF9D27H   LINE      CODE     ---       #668
      00FF9D2EH   LINE      CODE     ---       #669
      00FF9D2EH   LINE      CODE     ---       #670
      00FF9D30H   LINE      CODE     ---       #671
      00FF9D3CH   LINE      CODE     ---       #673
      00FF9D42H   LINE      CODE     ---       #675
      00FF9D4BH   LINE      CODE     ---       #676
      00FF9D54H   LINE      CODE     ---       #677
      00FF9D56H   LINE      CODE     ---       #678
      00FF9D5CH   LINE      CODE     ---       #680
      00FF9D65H   LINE      CODE     ---       #681
      00FF9D65H   LINE      CODE     ---       #683
      00FF9D6EH   LINE      CODE     ---       #684
      ---         BLOCKEND  ---      ---       LVL=0

      ---         MODULE    ---      ---       zf_driver_pit
      00FF7FA6H   PUBLIC    CODE     ---       pit_init
      000000D0H   SFRSYM    DATA     BYTE      PSW
      0000009DH   SFRSYM    DATA     BYTE      IRCBAND
      00000097H   SFRSYM    DATA     BYTE      AUXR2
      000000EFH   SFRSYM    DATA     BYTE      AUXINTIF
      000000FDH   SFRSYM    DATA     BYTE      S4CON
      000000ACH   SFRSYM    DATA     BYTE      S3CON
      0000009AH   SFRSYM    DATA     BYTE      S2CON
      000000B7H   SFRSYM    DATA     BYTE      IPH
      000000CDH   SFRSYM    DATA     BYTE      SPSTAT
      000000DDH   SFRSYM    DATA     BYTE      T4T3M
      000000C1H   SFRSYM    DATA     BYTE      WDT_CONTR
      00000088H.6 SFRSYM    DATA     BIT       TR1
      00000088H.4 SFRSYM    DATA     BIT       TR0
      000000D3H   SFRSYM    DATA     BYTE      T4L
      000000D5H   SFRSYM    DATA     BYTE      T3L
      000000D7H   SFRSYM    DATA     BYTE      T2L
      0000008BH   SFRSYM    DATA     BYTE      TL1
      0000008AH   SFRSYM    DATA     BYTE      TL0
      000000D2H   SFRSYM    DATA     BYTE      T4H
L251 LINKER/LOCATER V4.66.93.0                                                        10/24/2025  21:07:56  PAGE 69


      000000D4H   SFRSYM    DATA     BYTE      T3H
      000000D6H   SFRSYM    DATA     BYTE      T2H
      0000008DH   SFRSYM    DATA     BYTE      TH1
      0000008CH   SFRSYM    DATA     BYTE      TH0
      000000DFH   SFRSYM    DATA     BYTE      IP3
      000000F4H   SFRSYM    DATA     BYTE      USBCON
      000000B5H   SFRSYM    DATA     BYTE      IP2
      000000FFH   SFRSYM    DATA     BYTE      RSTCFG
      000000A8H.3 SFRSYM    DATA     BIT       ET1
      000000A8H.1 SFRSYM    DATA     BIT       ET0
      000000C7H   SFRSYM    DATA     BYTE      IAP_CONTR
      0000008EH   SFRSYM    DATA     BYTE      AUXR
      000000AFH   SFRSYM    DATA     BYTE      IE2
      00000088H   SFRSYM    DATA     BYTE      TCON
      00000089H   SFRSYM    DATA     BYTE      TMOD
      00000098H   SFRSYM    DATA     BYTE      SCON
      00000087H   SFRSYM    DATA     BYTE      PCON
      000000BCH   SFRSYM    DATA     BYTE      ADC_CONTR
      000000D1H   SFRSYM    DATA     BYTE      PSW1
      000000E7H   SFRSYM    DATA     BYTE      CMPCR2
      000000E6H   SFRSYM    DATA     BYTE      CMPCR1
      000000DEH   SFRSYM    DATA     BYTE      ADCCFG
      000000B8H   SFRSYM    DATA     BYTE      IP
      0000008FH   SFRSYM    DATA     BYTE      INTCLKO
      000000EEH   SFRSYM    DATA     BYTE      IP3H
      000000B6H   SFRSYM    DATA     BYTE      IP2H
      000000BFH   SFRSYM    DATA     BYTE      P_SW4
      000000A8H   SFRSYM    DATA     BYTE      IE
      000000BBH   SFRSYM    DATA     BYTE      P_SW3
      000000BAH   SFRSYM    DATA     BYTE      P_SW2
      000000A2H   SFRSYM    DATA     BYTE      P_SW1
      000000CEH   SFRSYM    DATA     BYTE      SPCTL
      000000F8H   SFRSYM    DATA     BYTE      P7
      000000E8H   SFRSYM    DATA     BYTE      P6
      000000C8H   SFRSYM    DATA     BYTE      P5
      000000C0H   SFRSYM    DATA     BYTE      P4
      000000ABH   SFRSYM    DATA     BYTE      WKTCH
      000000B0H   SFRSYM    DATA     BYTE      P3
      000000A0H   SFRSYM    DATA     BYTE      P2
      00000090H   SFRSYM    DATA     BYTE      P1
      00000080H   SFRSYM    DATA     BYTE      P0

      00FF7FA6H   BLOCK     CODE     ---       LVL=0
      WR30        REGSYM    ---      INT       pit_n
      DR24        REGSYM    ---      DWORD     period
      00FF7FACH   BLOCK     CODE     NEAR LAB  LVL=1
      R15         REGSYM    ---      BYTE      freq_div
      WR22        REGSYM    ---      WORD      period_temp
      WR28        REGSYM    ---      WORD      temp
      ---         BLOCKEND  ---      ---       LVL=1
      00FF7FA6H   LINE      CODE     ---       #50
      00FF7FACH   LINE      CODE     ---       #51
      00FF7FACH   LINE      CODE     ---       #52
      00FF7FAEH   LINE      CODE     ---       #53
      00FF7FB0H   LINE      CODE     ---       #54
      00FF7FB2H   LINE      CODE     ---       #57
      00FF7FBEH   LINE      CODE     ---       #60
      00FF7FC9H   LINE      CODE     ---       #62
      00FF7FCDH   LINE      CODE     ---       #64
      00FF7FD0H   LINE      CODE     ---       #65
      00FF7FD3H   LINE      CODE     ---       #66
      00FF7FD9H   LINE      CODE     ---       #68
      00FF7FDCH   LINE      CODE     ---       #69
      00FF7FDFH   LINE      CODE     ---       #70
      00FF7FE5H   LINE      CODE     ---       #72
L251 LINKER/LOCATER V4.66.93.0                                                        10/24/2025  21:07:56  PAGE 70


      00FF7FE8H   LINE      CODE     ---       #73
      00FF7FEAH   LINE      CODE     ---       #74
      00FF7FF0H   LINE      CODE     ---       #76
      00FF7FF3H   LINE      CODE     ---       #77
      00FF7FF5H   LINE      CODE     ---       #78
      00FF7FFBH   LINE      CODE     ---       #80
      00FF7FFEH   LINE      CODE     ---       #81
      00FF8000H   LINE      CODE     ---       #82
      00FF8006H   LINE      CODE     ---       #84
      00FF8016H   LINE      CODE     ---       #85
      00FF8018H   LINE      CODE     ---       #91
      00FF801CH   LINE      CODE     ---       #93
      00FF801FH   LINE      CODE     ---       #94
      00FF8021H   LINE      CODE     ---       #95
      00FF8027H   LINE      CODE     ---       #97
      00FF802AH   LINE      CODE     ---       #98
      00FF802CH   LINE      CODE     ---       #99
      00FF8032H   LINE      CODE     ---       #101
      00FF8035H   LINE      CODE     ---       #102
      00FF8037H   LINE      CODE     ---       #103
      00FF803DH   LINE      CODE     ---       #105
      00FF8040H   LINE      CODE     ---       #106
      00FF8042H   LINE      CODE     ---       #107
      00FF8048H   LINE      CODE     ---       #109
      00FF804BH   LINE      CODE     ---       #110
      00FF804DH   LINE      CODE     ---       #111
      00FF8053H   LINE      CODE     ---       #113
      00FF8063H   LINE      CODE     ---       #114
      00FF8063H   LINE      CODE     ---       #118
      00FF8073H   LINE      CODE     ---       #119
      00FF8080H   LINE      CODE     ---       #121
      00FF8084H   LINE      CODE     ---       #123
      00FF8088H   LINE      CODE     ---       #125
      00FF8093H   LINE      CODE     ---       #126
      00FF8097H   LINE      CODE     ---       #127
      00FF809DH   LINE      CODE     ---       #128
      00FF80A3H   LINE      CODE     ---       #129
      00FF80A5H   LINE      CODE     ---       #130
      00FF80A7H   LINE      CODE     ---       #131
      00FF80AAH   LINE      CODE     ---       #132
      00FF80B0H   LINE      CODE     ---       #134
      00FF80BBH   LINE      CODE     ---       #135
      00FF80BFH   LINE      CODE     ---       #136
      00FF80C5H   LINE      CODE     ---       #137
      00FF80CBH   LINE      CODE     ---       #138
      00FF80CDH   LINE      CODE     ---       #139
      00FF80CFH   LINE      CODE     ---       #140
      00FF80D2H   LINE      CODE     ---       #141
      00FF80D8H   LINE      CODE     ---       #143
      00FF80E3H   LINE      CODE     ---       #144
      00FF80E9H   LINE      CODE     ---       #145
      00FF80EFH   LINE      CODE     ---       #146
      00FF80F2H   LINE      CODE     ---       #147
      00FF80F5H   LINE      CODE     ---       #148
      00FF80F8H   LINE      CODE     ---       #149
      00FF80FEH   LINE      CODE     ---       #151
      00FF8109H   LINE      CODE     ---       #152
      00FF810FH   LINE      CODE     ---       #153
      00FF8115H   LINE      CODE     ---       #154
      00FF8118H   LINE      CODE     ---       #155
      00FF811BH   LINE      CODE     ---       #156
      00FF811DH   LINE      CODE     ---       #157
      00FF8123H   LINE      CODE     ---       #159
      00FF812EH   LINE      CODE     ---       #160
      00FF8134H   LINE      CODE     ---       #161
L251 LINKER/LOCATER V4.66.93.0                                                        10/24/2025  21:07:56  PAGE 71


      00FF813AH   LINE      CODE     ---       #162
      00FF813DH   LINE      CODE     ---       #163
      00FF8140H   LINE      CODE     ---       #164
      00FF8142H   LINE      CODE     ---       #165
      00FF8148H   LINE      CODE     ---       #167
      00FF8153H   LINE      CODE     ---       #168
      00FF8162H   LINE      CODE     ---       #169
      00FF8171H   LINE      CODE     ---       #170
      00FF817EH   LINE      CODE     ---       #172
      ---         BLOCKEND  ---      ---       LVL=0

      ---         MODULE    ---      ---       zf_driver_pwm
      00FFDA57H   PUBLIC    HCONST   ---       PWM_PSCR_ADDR
      00FFDA5FH   PUBLIC    HCONST   ---       PWM_CCR_ADDR
      00FFDA7FH   PUBLIC    HCONST   ---       PWM_ARR_ADDR
      00FFDA87H   PUBLIC    HCONST   ---       PWM_CCER_ADDR
      00FFDA97H   PUBLIC    HCONST   ---       PWM_CCMR_ADDR
      00FF86B5H   PUBLIC    CODE     ---       pwm_set_duty
      00FF598CH   PUBLIC    CODE     ---       pwm_init
      00011008H   PUBLIC    XDATA    BYTE      ?pwm_init?BYTE
      000000D0H   SFRSYM    DATA     BYTE      PSW
      0000009DH   SFRSYM    DATA     BYTE      IRCBAND
      00000097H   SFRSYM    DATA     BYTE      AUXR2
      000000EFH   SFRSYM    DATA     BYTE      AUXINTIF
      000000FDH   SFRSYM    DATA     BYTE      S4CON
      000000ACH   SFRSYM    DATA     BYTE      S3CON
      0000009AH   SFRSYM    DATA     BYTE      S2CON
      000000B7H   SFRSYM    DATA     BYTE      IPH
      000000CDH   SFRSYM    DATA     BYTE      SPSTAT
      000000DDH   SFRSYM    DATA     BYTE      T4T3M
      000000C1H   SFRSYM    DATA     BYTE      WDT_CONTR
      000000DFH   SFRSYM    DATA     BYTE      IP3
      000000F4H   SFRSYM    DATA     BYTE      USBCON
      000000B5H   SFRSYM    DATA     BYTE      IP2
      000000FFH   SFRSYM    DATA     BYTE      RSTCFG
      000000C7H   SFRSYM    DATA     BYTE      IAP_CONTR
      0000008EH   SFRSYM    DATA     BYTE      AUXR
      000000AFH   SFRSYM    DATA     BYTE      IE2
      00000088H   SFRSYM    DATA     BYTE      TCON
      00000089H   SFRSYM    DATA     BYTE      TMOD
      00000098H   SFRSYM    DATA     BYTE      SCON
      00000087H   SFRSYM    DATA     BYTE      PCON
      000000BCH   SFRSYM    DATA     BYTE      ADC_CONTR
      000000D1H   SFRSYM    DATA     BYTE      PSW1
      000000E7H   SFRSYM    DATA     BYTE      CMPCR2
      000000E6H   SFRSYM    DATA     BYTE      CMPCR1
      000000DEH   SFRSYM    DATA     BYTE      ADCCFG
      000000B8H   SFRSYM    DATA     BYTE      IP
      0000008FH   SFRSYM    DATA     BYTE      INTCLKO
      000000EEH   SFRSYM    DATA     BYTE      IP3H
      000000B6H   SFRSYM    DATA     BYTE      IP2H
      000000BFH   SFRSYM    DATA     BYTE      P_SW4
      000000A8H   SFRSYM    DATA     BYTE      IE
      000000BBH   SFRSYM    DATA     BYTE      P_SW3
      000000BAH   SFRSYM    DATA     BYTE      P_SW2
      000000A2H   SFRSYM    DATA     BYTE      P_SW1
      000000CEH   SFRSYM    DATA     BYTE      SPCTL
      000000F8H   SFRSYM    DATA     BYTE      P7
      000000E8H   SFRSYM    DATA     BYTE      P6
      000000C8H   SFRSYM    DATA     BYTE      P5
      000000C0H   SFRSYM    DATA     BYTE      P4
      000000ABH   SFRSYM    DATA     BYTE      WKTCH
      000000B0H   SFRSYM    DATA     BYTE      P3
      000000A0H   SFRSYM    DATA     BYTE      P2
      00000090H   SFRSYM    DATA     BYTE      P1
L251 LINKER/LOCATER V4.66.93.0                                                        10/24/2025  21:07:56  PAGE 72


      00000080H   SFRSYM    DATA     BYTE      P0
      WR14        REGSYM    ---      INT       pin
      WR12        REGSYM    ---      WORD      freq_div

      00FF86B5H   BLOCK     CODE     ---       LVL=0
      WR14        REGSYM    ---      INT       pin
      0001100EH   SYMBOL    XDATA    DWORD     duty
      00FF86C3H   BLOCK     CODE     NEAR LAB  LVL=1
      00011012H   SYMBOL    XDATA    DWORD     match_temp
      00011016H   SYMBOL    XDATA    DWORD     arr
      ---         BLOCKEND  ---      ---       LVL=1
      00FF86B5H   LINE      CODE     ---       #132
      00FF86C3H   LINE      CODE     ---       #133
      00FF86C3H   LINE      CODE     ---       #135
      00FF8721H   LINE      CODE     ---       #138
      00FF8745H   LINE      CODE     ---       #140
      00FF8755H   LINE      CODE     ---       #142
      00FF878EH   LINE      CODE     ---       #143
      00FF8790H   LINE      CODE     ---       #146
      00FF87A6H   LINE      CODE     ---       #147
      00FF87A6H   LINE      CODE     ---       #150
      00FF87F4H   LINE      CODE     ---       #151
      00FF8842H   LINE      CODE     ---       #153
      ---         BLOCKEND  ---      ---       LVL=0

      00FF598CH   BLOCK     CODE     ---       LVL=0
      WR14        REGSYM    ---      INT       pin
      0001100AH   SYMBOL    XDATA    DWORD     freq
      0001100EH   SYMBOL    XDATA    DWORD     duty
      00FF599AH   BLOCK     CODE     NEAR LAB  LVL=1
      00011012H   SYMBOL    XDATA    WORD      match_temp
      00011014H   SYMBOL    XDATA    DWORD     period_temp
      WR12        REGSYM    ---      WORD      freq_div
      ---         BLOCKEND  ---      ---       LVL=1
      00FF598CH   LINE      CODE     ---       #164
      00FF599AH   LINE      CODE     ---       #165
      00FF599AH   LINE      CODE     ---       #167
      00FF59A2H   LINE      CODE     ---       #168
      00FF59AEH   LINE      CODE     ---       #169
      00FF59B0H   LINE      CODE     ---       #172
      00FF59D4H   LINE      CODE     ---       #174
      00FF59E6H   LINE      CODE     ---       #178
      00FF5A03H   LINE      CODE     ---       #179
      00FF5A24H   LINE      CODE     ---       #180
      00FF5A41H   LINE      CODE     ---       #182
      00FF5A51H   LINE      CODE     ---       #184
      00FF5A86H   LINE      CODE     ---       #185
      00FF5A88H   LINE      CODE     ---       #188
      00FF5A9AH   LINE      CODE     ---       #189
      00FF5A9AH   LINE      CODE     ---       #191
      00FF5AC4H   LINE      CODE     ---       #192
      00FF5AEEH   LINE      CODE     ---       #194
      00FF5B20H   LINE      CODE     ---       #195
      00FF5B52H   LINE      CODE     ---       #197
      00FF5B9EH   LINE      CODE     ---       #198
      00FF5BE8H   LINE      CODE     ---       #200
      00FF5BF7H   LINE      CODE     ---       #202
      00FF5C36H   LINE      CODE     ---       #203
      00FF5C6BH   LINE      CODE     ---       #204
      00FF5CE5H   LINE      CODE     ---       #206
      00FF5CF2H   LINE      CODE     ---       #207
      00FF5CFFH   LINE      CODE     ---       #208
      00FF5D02H   LINE      CODE     ---       #209
      00FF5D15H   LINE      CODE     ---       #211
      00FF5D54H   LINE      CODE     ---       #212
L251 LINKER/LOCATER V4.66.93.0                                                        10/24/2025  21:07:56  PAGE 73


      00FF5D89H   LINE      CODE     ---       #213
      00FF5DF1H   LINE      CODE     ---       #215
      00FF5DFEH   LINE      CODE     ---       #216
      00FF5E0BH   LINE      CODE     ---       #217
      00FF5E0BH   LINE      CODE     ---       #219
      00FF5E52H   LINE      CODE     ---       #220
      00FF5E99H   LINE      CODE     ---       #221
      ---         BLOCKEND  ---      ---       LVL=0

      ---         MODULE    ---      ---       zf_driver_soft_iic
      00FFAD30H   PUBLIC    CODE     ---       soft_iic_wait_ack
      00FFB0A8H   PUBLIC    CODE     ---       soft_iic_stop
      00FFB988H   PUBLIC    CODE     ---       soft_iic_delay
      00FF9EE6H   PUBLIC    CODE     ---       soft_iic_read_data
      00FFA7E1H   PUBLIC    CODE     ---       soft_iic_send_data
      00FFB27DH   PUBLIC    CODE     ---       soft_iic_start
      00FFAE95H   PUBLIC    CODE     ---       soft_iic_send_ack
      000000D0H   SFRSYM    DATA     BYTE      PSW
      0000009DH   SFRSYM    DATA     BYTE      IRCBAND
      00000097H   SFRSYM    DATA     BYTE      AUXR2
      000000EFH   SFRSYM    DATA     BYTE      AUXINTIF
      000000FDH   SFRSYM    DATA     BYTE      S4CON
      000000ACH   SFRSYM    DATA     BYTE      S3CON
      0000009AH   SFRSYM    DATA     BYTE      S2CON
      000000B7H   SFRSYM    DATA     BYTE      IPH
      000000CDH   SFRSYM    DATA     BYTE      SPSTAT
      000000DDH   SFRSYM    DATA     BYTE      T4T3M
      000000C1H   SFRSYM    DATA     BYTE      WDT_CONTR
      000000DFH   SFRSYM    DATA     BYTE      IP3
      000000F4H   SFRSYM    DATA     BYTE      USBCON
      000000B5H   SFRSYM    DATA     BYTE      IP2
      000000FFH   SFRSYM    DATA     BYTE      RSTCFG
      000000C7H   SFRSYM    DATA     BYTE      IAP_CONTR
      0000008EH   SFRSYM    DATA     BYTE      AUXR
      000000AFH   SFRSYM    DATA     BYTE      IE2
      00000088H   SFRSYM    DATA     BYTE      TCON
      00000089H   SFRSYM    DATA     BYTE      TMOD
      00000098H   SFRSYM    DATA     BYTE      SCON
      00000087H   SFRSYM    DATA     BYTE      PCON
      000000BCH   SFRSYM    DATA     BYTE      ADC_CONTR
      000000D1H   SFRSYM    DATA     BYTE      PSW1
      000000E7H   SFRSYM    DATA     BYTE      CMPCR2
      000000E6H   SFRSYM    DATA     BYTE      CMPCR1
      000000DEH   SFRSYM    DATA     BYTE      ADCCFG
      000000B8H   SFRSYM    DATA     BYTE      IP
      0000008FH   SFRSYM    DATA     BYTE      INTCLKO
      000000EEH   SFRSYM    DATA     BYTE      IP3H
      000000B6H   SFRSYM    DATA     BYTE      IP2H
      000000BFH   SFRSYM    DATA     BYTE      P_SW4
      000000A8H   SFRSYM    DATA     BYTE      IE
      000000BBH   SFRSYM    DATA     BYTE      P_SW3
      000000BAH   SFRSYM    DATA     BYTE      P_SW2
      000000A2H   SFRSYM    DATA     BYTE      P_SW1
      000000CEH   SFRSYM    DATA     BYTE      SPCTL
      000000F8H   SFRSYM    DATA     BYTE      P7
      000000E8H   SFRSYM    DATA     BYTE      P6
      000000C8H   SFRSYM    DATA     BYTE      P5
      000000C0H   SFRSYM    DATA     BYTE      P4
      000000ABH   SFRSYM    DATA     BYTE      WKTCH
      000000B0H   SFRSYM    DATA     BYTE      P3
      000000A0H   SFRSYM    DATA     BYTE      P2
      00000090H   SFRSYM    DATA     BYTE      P1
      00000080H   SFRSYM    DATA     BYTE      P0

      00FFB988H   BLOCK     CODE     ---       LVL=0
L251 LINKER/LOCATER V4.66.93.0                                                        10/24/2025  21:07:56  PAGE 74


      000112D9H   SYMBOL    XDATA    DWORD     delay
      00FFB992H   BLOCK     CODE     NEAR LAB  LVL=1
      000112DDH   SYMBOL    XDATA    DWORD     count
      ---         BLOCKEND  ---      ---       LVL=1
      00FFB988H   LINE      CODE     ---       #53
      00FFB992H   LINE      CODE     ---       #54
      00FFB992H   LINE      CODE     ---       #55
      00FFB9A6H   LINE      CODE     ---       #56
      00FFB9BFH   LINE      CODE     ---       #57
      ---         BLOCKEND  ---      ---       LVL=0

      00FFB27DH   BLOCK     CODE     ---       LVL=0
      REG=3       REGSYM    ---      ---       soft_iic_obj
      00FFB27DH   LINE      CODE     ---       #67
      00FFB281H   LINE      CODE     ---       #69
      00FFB29BH   LINE      CODE     ---       #70
      00FFB2A3H   LINE      CODE     ---       #71
      00FFB2ACH   LINE      CODE     ---       #73
      00FFB2B7H   LINE      CODE     ---       #74
      00FFB2BFH   LINE      CODE     ---       #75
      00FFB2CAH   LINE      CODE     ---       #76
      00FFB2D1H   LINE      CODE     ---       #77
      ---         BLOCKEND  ---      ---       LVL=0

      00FFB0A8H   BLOCK     CODE     ---       LVL=0
      REG=3       REGSYM    ---      ---       soft_iic_obj
      00FFB0A8H   LINE      CODE     ---       #86
      00FFB0ACH   LINE      CODE     ---       #88
      00FFB0C6H   LINE      CODE     ---       #89
      00FFB0CEH   LINE      CODE     ---       #90
      00FFB0D5H   LINE      CODE     ---       #92
      00FFB0E0H   LINE      CODE     ---       #93
      00FFB0E8H   LINE      CODE     ---       #94
      00FFB0F3H   LINE      CODE     ---       #95
      00FFB0FCH   LINE      CODE     ---       #96
      00FFB107H   LINE      CODE     ---       #97
      ---         BLOCKEND  ---      ---       LVL=0

      00FFAE95H   BLOCK     CODE     ---       LVL=0
      REG=3       REGSYM    ---      ---       soft_iic_obj
      00011318H   SYMBOL    XDATA    BYTE      ack
      00FFAE95H   LINE      CODE     ---       #107
      00FFAE9DH   LINE      CODE     ---       #109
      00FFAEB7H   LINE      CODE     ---       #110
      00FFAEBEH   LINE      CODE     ---       #112
      00FFAEC4H   LINE      CODE     ---       #114
      00FFAECDH   LINE      CODE     ---       #115
      00FFAECFH   LINE      CODE     ---       #118
      00FFAED7H   LINE      CODE     ---       #119
      00FFAED7H   LINE      CODE     ---       #121
      00FFAEE2H   LINE      CODE     ---       #122
      00FFAEEAH   LINE      CODE     ---       #123
      00FFAEF5H   LINE      CODE     ---       #124
      00FFAEFCH   LINE      CODE     ---       #125
      00FFAF05H   LINE      CODE     ---       #126
      ---         BLOCKEND  ---      ---       LVL=0

      00FFAD30H   BLOCK     CODE     ---       LVL=0
      REG=3       REGSYM    ---      ---       soft_iic_obj
      00FFAD34H   BLOCK     CODE     NEAR LAB  LVL=1
      00011319H   SYMBOL    XDATA    BYTE      temp
      ---         BLOCKEND  ---      ---       LVL=1
      00FFAD30H   LINE      CODE     ---       #135
      00FFAD34H   LINE      CODE     ---       #136
      00FFAD34H   LINE      CODE     ---       #137
L251 LINKER/LOCATER V4.66.93.0                                                        10/24/2025  21:07:56  PAGE 75


      00FFAD39H   LINE      CODE     ---       #138
      00FFAD53H   LINE      CODE     ---       #140
      00FFAD5AH   LINE      CODE     ---       #141
      00FFAD63H   LINE      CODE     ---       #145
      00FFAD6EH   LINE      CODE     ---       #147
      00FFAD76H   LINE      CODE     ---       #148
      00FFAD81H   LINE      CODE     ---       #150
      00FFAD8AH   LINE      CODE     ---       #152
      00FFAD90H   LINE      CODE     ---       #153
      00FFAD90H   LINE      CODE     ---       #154
      00FFAD97H   LINE      CODE     ---       #158
      00FFADA2H   LINE      CODE     ---       #160
      00FFADA6H   LINE      CODE     ---       #161
      ---         BLOCKEND  ---      ---       LVL=0

      00FFA7E1H   BLOCK     CODE     ---       LVL=0
      REG=3       REGSYM    ---      ---       soft_iic_obj
      00011315H   SYMBOL    XDATA    BYTE      dat
      00FFA7E9H   BLOCK     CODE     NEAR LAB  LVL=1
      00011316H   SYMBOL    XDATA    BYTE      temp
      ---         BLOCKEND  ---      ---       LVL=1
      00FFA7E1H   LINE      CODE     ---       #170
      00FFA7E9H   LINE      CODE     ---       #171
      00FFA7E9H   LINE      CODE     ---       #172
      00FFA7EFH   LINE      CODE     ---       #174
      00FFA809H   LINE      CODE     ---       #176
      00FFA80BH   LINE      CODE     ---       #179
      00FFA830H   LINE      CODE     ---       #180
      00FFA837H   LINE      CODE     ---       #182
      00FFA842H   LINE      CODE     ---       #183
      00FFA84AH   LINE      CODE     ---       #184
      00FFA855H   LINE      CODE     ---       #185
      00FFA85CH   LINE      CODE     ---       #186
      00FFA862H   LINE      CODE     ---       #187
      00FFA86FH   LINE      CODE     ---       #188
      ---         BLOCKEND  ---      ---       LVL=0

      00FF9EE6H   BLOCK     CODE     ---       LVL=0
      REG=3       REGSYM    ---      ---       soft_iic_obj
      00011312H   SYMBOL    XDATA    BYTE      ack
      00FF9EEEH   BLOCK     CODE     NEAR LAB  LVL=1
      00011313H   SYMBOL    XDATA    BYTE      dat
      00011314H   SYMBOL    XDATA    BYTE      temp
      ---         BLOCKEND  ---      ---       LVL=1
      00FF9EE6H   LINE      CODE     ---       #197
      00FF9EEEH   LINE      CODE     ---       #198
      00FF9EEEH   LINE      CODE     ---       #199
      00FF9EF3H   LINE      CODE     ---       #200
      00FF9EF9H   LINE      CODE     ---       #201
      00FF9F13H   LINE      CODE     ---       #202
      00FF9F1AH   LINE      CODE     ---       #203
      00FF9F25H   LINE      CODE     ---       #204
      00FF9F2EH   LINE      CODE     ---       #209
      00FF9F30H   LINE      CODE     ---       #211
      00FF9F37H   LINE      CODE     ---       #212
      00FF9F42H   LINE      CODE     ---       #213
      00FF9F4AH   LINE      CODE     ---       #214
      00FF9F55H   LINE      CODE     ---       #215
      00FF9F6AH   LINE      CODE     ---       #216
      00FF9F78H   LINE      CODE     ---       #217
      00FF9F7FH   LINE      CODE     ---       #221
      00FF9F8AH   LINE      CODE     ---       #222
      00FF9F93H   LINE      CODE     ---       #223
      00FF9F97H   LINE      CODE     ---       #224
      ---         BLOCKEND  ---      ---       LVL=0
L251 LINKER/LOCATER V4.66.93.0                                                        10/24/2025  21:07:56  PAGE 76


      REG=3       REGSYM    ---      ---       soft_iic_obj
      REG=3       REGSYM    ---      ---       soft_iic_obj
      REG=3       REGSYM    ---      ---       soft_iic_obj
      REG=3       REGSYM    ---      ---       soft_iic_obj
      REG=3       REGSYM    ---      ---       soft_iic_obj
      REG=3       REGSYM    ---      ---       soft_iic_obj
      REG=3       REGSYM    ---      ---       soft_iic_obj
      REG=3       REGSYM    ---      ---       soft_iic_obj
      REG=3       REGSYM    ---      ---       soft_iic_obj
      REG=3       REGSYM    ---      ---       soft_iic_obj
      REG=3       REGSYM    ---      ---       soft_iic_obj
      REG=3       REGSYM    ---      ---       soft_iic_obj
      REG=3       REGSYM    ---      ---       soft_iic_obj
      REG=3       REGSYM    ---      ---       soft_iic_obj
      REG=3       REGSYM    ---      ---       soft_iic_obj
      REG=3       REGSYM    ---      ---       soft_iic_obj
      REG=3       REGSYM    ---      ---       soft_iic_obj
      REG=3       REGSYM    ---      ---       soft_iic_obj
      REG=3       REGSYM    ---      ---       soft_iic_obj
      REG=3       REGSYM    ---      ---       soft_iic_obj
      REG=3       REGSYM    ---      ---       soft_iic_obj

      ---         MODULE    ---      ---       zf_driver_soft_spi
      000000D0H   SFRSYM    DATA     BYTE      PSW
      0000009DH   SFRSYM    DATA     BYTE      IRCBAND
      00000097H   SFRSYM    DATA     BYTE      AUXR2
      000000EFH   SFRSYM    DATA     BYTE      AUXINTIF
      000000FDH   SFRSYM    DATA     BYTE      S4CON
      000000ACH   SFRSYM    DATA     BYTE      S3CON
      0000009AH   SFRSYM    DATA     BYTE      S2CON
      000000B7H   SFRSYM    DATA     BYTE      IPH
      000000CDH   SFRSYM    DATA     BYTE      SPSTAT
      000000DDH   SFRSYM    DATA     BYTE      T4T3M
      000000C1H   SFRSYM    DATA     BYTE      WDT_CONTR
      000000DFH   SFRSYM    DATA     BYTE      IP3
      000000F4H   SFRSYM    DATA     BYTE      USBCON
      000000B5H   SFRSYM    DATA     BYTE      IP2
      000000FFH   SFRSYM    DATA     BYTE      RSTCFG
      000000C7H   SFRSYM    DATA     BYTE      IAP_CONTR
      0000008EH   SFRSYM    DATA     BYTE      AUXR
      000000AFH   SFRSYM    DATA     BYTE      IE2
      00000088H   SFRSYM    DATA     BYTE      TCON
      00000089H   SFRSYM    DATA     BYTE      TMOD
      00000098H   SFRSYM    DATA     BYTE      SCON
      00000087H   SFRSYM    DATA     BYTE      PCON
      000000BCH   SFRSYM    DATA     BYTE      ADC_CONTR
      000000D1H   SFRSYM    DATA     BYTE      PSW1
      000000E7H   SFRSYM    DATA     BYTE      CMPCR2
      000000E6H   SFRSYM    DATA     BYTE      CMPCR1
      000000DEH   SFRSYM    DATA     BYTE      ADCCFG
      000000B8H   SFRSYM    DATA     BYTE      IP
      0000008FH   SFRSYM    DATA     BYTE      INTCLKO
      000000EEH   SFRSYM    DATA     BYTE      IP3H
      000000B6H   SFRSYM    DATA     BYTE      IP2H
      000000BFH   SFRSYM    DATA     BYTE      P_SW4
      000000A8H   SFRSYM    DATA     BYTE      IE
      000000BBH   SFRSYM    DATA     BYTE      P_SW3
      000000BAH   SFRSYM    DATA     BYTE      P_SW2
      000000A2H   SFRSYM    DATA     BYTE      P_SW1
      000000CEH   SFRSYM    DATA     BYTE      SPCTL
      000000F8H   SFRSYM    DATA     BYTE      P7
      000000E8H   SFRSYM    DATA     BYTE      P6
      000000C8H   SFRSYM    DATA     BYTE      P5
      000000C0H   SFRSYM    DATA     BYTE      P4
      000000ABH   SFRSYM    DATA     BYTE      WKTCH
L251 LINKER/LOCATER V4.66.93.0                                                        10/24/2025  21:07:56  PAGE 77


      000000B0H   SFRSYM    DATA     BYTE      P3
      000000A0H   SFRSYM    DATA     BYTE      P2
      00000090H   SFRSYM    DATA     BYTE      P1
      00000080H   SFRSYM    DATA     BYTE      P0
      DR0         REGSYM    ---      DWORD     x
      REG=3       REGSYM    ---      ---       soft_spi_obj
      R10         REGSYM    ---      BYTE      dat
      REG=3       REGSYM    ---      ---       soft_spi_obj
      WR6         REGSYM    ---      WORD      dat
      REG=3       REGSYM    ---      ---       soft_spi_obj
      REG=3       REGSYM    ---      ---       soft_spi_obj
      REG=3       REGSYM    ---      ---       soft_spi_obj
      REG=3       REGSYM    ---      ---       soft_spi_obj
      REG=3       REGSYM    ---      ---       soft_spi_obj
      REG=3       REGSYM    ---      ---       soft_spi_obj
      REG=3       REGSYM    ---      ---       soft_spi_obj
      REG=3       REGSYM    ---      ---       soft_spi_obj
      REG=3       REGSYM    ---      ---       soft_spi_obj
      REG=3       REGSYM    ---      ---       soft_spi_obj
      REG=3       REGSYM    ---      ---       soft_spi_obj
      REG=3       REGSYM    ---      ---       soft_spi_obj
      REG=3       REGSYM    ---      ---       soft_spi_obj
      REG=3       REGSYM    ---      ---       soft_spi_obj
      REG=3       REGSYM    ---      ---       soft_spi_obj
      REG=3       REGSYM    ---      ---       soft_spi_obj
      REG=3       REGSYM    ---      ---       soft_spi_obj
      REG=3       REGSYM    ---      ---       soft_spi_obj
      REG=3       REGSYM    ---      ---       soft_spi_obj

      ---         MODULE    ---      ---       zf_driver_spi
      00FF0003H   PUBLIC    CODE     ---       spi_write_8bit
      00FF5E9CH   PUBLIC    CODE     ---       spi_init
      00FFBBA6H   PUBLIC    CODE     ---       spi_write_16bit
      00FFB6A7H   PUBLIC    CODE     ---       spi_write_dat
      00011006H   PUBLIC    XDATA    BYTE      ?spi_init?BYTE
      000000CFH   SFRSYM    DATA     BYTE      SPDAT
      000000D0H   SFRSYM    DATA     BYTE      PSW
      0000009DH   SFRSYM    DATA     BYTE      IRCBAND
      00000097H   SFRSYM    DATA     BYTE      AUXR2
      000000EFH   SFRSYM    DATA     BYTE      AUXINTIF
      000000FDH   SFRSYM    DATA     BYTE      S4CON
      000000ACH   SFRSYM    DATA     BYTE      S3CON
      0000009AH   SFRSYM    DATA     BYTE      S2CON
      0000009BH   SFRSYM    DATA     BYTE      S2BUF
      000000B7H   SFRSYM    DATA     BYTE      IPH
      000000CDH   SFRSYM    DATA     BYTE      SPSTAT
      000000DDH   SFRSYM    DATA     BYTE      T4T3M
      000000C1H   SFRSYM    DATA     BYTE      WDT_CONTR
      000000DFH   SFRSYM    DATA     BYTE      IP3
      000000F4H   SFRSYM    DATA     BYTE      USBCON
      000000B5H   SFRSYM    DATA     BYTE      IP2
      000000FFH   SFRSYM    DATA     BYTE      RSTCFG
      000000C7H   SFRSYM    DATA     BYTE      IAP_CONTR
      0000008EH   SFRSYM    DATA     BYTE      AUXR
      000000AFH   SFRSYM    DATA     BYTE      IE2
      00000088H   SFRSYM    DATA     BYTE      TCON
      00000089H   SFRSYM    DATA     BYTE      TMOD
      00000098H   SFRSYM    DATA     BYTE      SCON
      00000087H   SFRSYM    DATA     BYTE      PCON
      00000099H   SFRSYM    DATA     BYTE      SBUF
      000000BCH   SFRSYM    DATA     BYTE      ADC_CONTR
      000000D1H   SFRSYM    DATA     BYTE      PSW1
      000000E7H   SFRSYM    DATA     BYTE      CMPCR2
      000000E6H   SFRSYM    DATA     BYTE      CMPCR1
      0000009AH.1 SFRSYM    DATA     BIT       S2TI
L251 LINKER/LOCATER V4.66.93.0                                                        10/24/2025  21:07:56  PAGE 78


      00000098H.1 SFRSYM    DATA     BIT       TI
      000000DEH   SFRSYM    DATA     BYTE      ADCCFG
      000000B8H   SFRSYM    DATA     BYTE      IP
      0000008FH   SFRSYM    DATA     BYTE      INTCLKO
      000000EEH   SFRSYM    DATA     BYTE      IP3H
      000000B6H   SFRSYM    DATA     BYTE      IP2H
      000000BFH   SFRSYM    DATA     BYTE      P_SW4
      000000A8H   SFRSYM    DATA     BYTE      IE
      000000BBH   SFRSYM    DATA     BYTE      P_SW3
      000000BAH   SFRSYM    DATA     BYTE      P_SW2
      000000A2H   SFRSYM    DATA     BYTE      P_SW1
      000000CEH   SFRSYM    DATA     BYTE      SPCTL
      000000F8H   SFRSYM    DATA     BYTE      P7
      000000E8H   SFRSYM    DATA     BYTE      P6
      000000C8H   SFRSYM    DATA     BYTE      P5
      000000C0H   SFRSYM    DATA     BYTE      P4
      000000ABH   SFRSYM    DATA     BYTE      WKTCH
      000000B0H   SFRSYM    DATA     BYTE      P3
      000000A0H   SFRSYM    DATA     BYTE      P2
      00000090H   SFRSYM    DATA     BYTE      P1
      00000080H   SFRSYM    DATA     BYTE      P0

      00FFB6A7H   BLOCK     CODE     ---       LVL=0
      WR6         REGSYM    ---      INT       spi_n
      R10         REGSYM    ---      BYTE      dat
      00FFB6A7H   LINE      CODE     ---       #81
      00FFB6A9H   LINE      CODE     ---       #83
      00FFB6B5H   LINE      CODE     ---       #85
      00FFB6B5H   LINE      CODE     ---       #86
      00FFB6B8H   LINE      CODE     ---       #87
      00FFB6BBH   LINE      CODE     ---       #88
      00FFB6C0H   LINE      CODE     ---       #89
      00FFB6C2H   LINE      CODE     ---       #90
      00FFB6C2H   LINE      CODE     ---       #91
      00FFB6C4H   LINE      CODE     ---       #92
      00FFB6C7H   LINE      CODE     ---       #93
      00FFB6CAH   LINE      CODE     ---       #94
      00FFB6CCH   LINE      CODE     ---       #95
      00FFB6CCH   LINE      CODE     ---       #96
      00FFB6CFH   LINE      CODE     ---       #97
      00FFB6D2H   LINE      CODE     ---       #98
      00FFB6D6H   LINE      CODE     ---       #99
      00FFB6D8H   LINE      CODE     ---       #100
      00FFB6D8H   LINE      CODE     ---       #101
      00FFB6E8H   LINE      CODE     ---       #102
      00FFB6E8H   LINE      CODE     ---       #103
      00FFB6E8H   LINE      CODE     ---       #104
      ---         BLOCKEND  ---      ---       LVL=0
      WR8         REGSYM    ---      INT       spi_n
      R10         REGSYM    ---      BYTE      dat
      R15         REGSYM    ---      BYTE      ret

      00FF0003H   BLOCK     CODE     ---       LVL=0
      WR6         REGSYM    ---      INT       spi_n
      R5          REGSYM    ---      BYTE      dat
      00FF0003H   LINE      CODE     ---       #147
      00FF0005H   LINE      CODE     ---       #149
      00FF0008H   LINE      CODE     ---       #150
      ---         BLOCKEND  ---      ---       LVL=0
      REG=3       REGSYM    ---      ---       dat

      00FFBBA6H   BLOCK     CODE     ---       LVL=0
      WR12        REGSYM    ---      INT       spi_n
      WR14        REGSYM    ---      WORD      dat
      00FFBBA6H   LINE      CODE     ---       #175
L251 LINKER/LOCATER V4.66.93.0                                                        10/24/2025  21:07:56  PAGE 79


      00FFBBACH   LINE      CODE     ---       #177
      00FFBBB8H   LINE      CODE     ---       #178
      00FFBBC2H   LINE      CODE     ---       #179
      ---         BLOCKEND  ---      ---       LVL=0
      REG=3       REGSYM    ---      ---       dat
      WR14        REGSYM    ---      INT       spi_n
      R5          REGSYM    ---      BYTE      register_name
      R13         REGSYM    ---      BYTE      dat
      R5          REGSYM    ---      BYTE      register_name
      REG=3       REGSYM    ---      ---       dat
      WR14        REGSYM    ---      INT       spi_n
      WR12        REGSYM    ---      WORD      dat
      WR14        REGSYM    ---      INT       spi_n
      WR12        REGSYM    ---      WORD      register_name
      WR6         REGSYM    ---      INT       spi_n
      REG=3       REGSYM    ---      ---       dat
      WR14        REGSYM    ---      INT       spi_n
      WR12        REGSYM    ---      WORD      dat
      REG=3       REGSYM    ---      ---       dat
      WR14        REGSYM    ---      INT       spi_n
      R5          REGSYM    ---      BYTE      register_name
      R5          REGSYM    ---      BYTE      register_name
      REG=3       REGSYM    ---      ---       dat
      WR14        REGSYM    ---      INT       spi_n
      WR12        REGSYM    ---      WORD      register_name
      REG=3       REGSYM    ---      ---       dat
      REG=3       REGSYM    ---      ---       write_buffer
      REG=3       REGSYM    ---      ---       write_buffer

      00FF5E9CH   BLOCK     CODE     ---       LVL=0
      0001100AH   SYMBOL    XDATA    INT       spi_n
      0001100CH   SYMBOL    XDATA    INT       mode
      DR12        REGSYM    ---      DWORD     baud
      0001100EH   SYMBOL    XDATA    INT       sck_pin
      00011010H   SYMBOL    XDATA    INT       mosi_pin
      00011012H   SYMBOL    XDATA    INT       miso_pin
      00011014H   SYMBOL    XDATA    INT       cs_pin
      00FF5EACH   BLOCK     CODE     NEAR LAB  LVL=1
      00011016H   SYMBOL    XDATA    DWORD     spi_psc
      ---         BLOCKEND  ---      ---       LVL=1
      00FF5E9CH   LINE      CODE     ---       #465
      00FF5EACH   LINE      CODE     ---       #466
      00FF5EACH   LINE      CODE     ---       #467
      00FF5EB8H   LINE      CODE     ---       #469
      00FF5ECEH   LINE      CODE     ---       #471
      00FF5EDEH   LINE      CODE     ---       #473
      00FF5EDEH   LINE      CODE     ---       #475
      00FF5EF4H   LINE      CODE     ---       #476
      00FF5F0AH   LINE      CODE     ---       #478
      00FF5F16H   LINE      CODE     ---       #480
      00FF5F2CH   LINE      CODE     ---       #481
      00FF5F2CH   LINE      CODE     ---       #483
      00FF5F38H   LINE      CODE     ---       #485
      00FF5F4DH   LINE      CODE     ---       #486
      00FF5F4DH   LINE      CODE     ---       #489
      00FF5F53H   LINE      CODE     ---       #491
      00FF5F61H   LINE      CODE     ---       #492
      00FF5F6FH   LINE      CODE     ---       #493
      00FF5F7BH   LINE      CODE     ---       #495
      00FF5F89H   LINE      CODE     ---       #496
      00FF5F89H   LINE      CODE     ---       #497
      00FF5F95H   LINE      CODE     ---       #499
      00FF5FA3H   LINE      CODE     ---       #500
      00FF5FA3H   LINE      CODE     ---       #503
      00FF5FB0H   LINE      CODE     ---       #505
L251 LINKER/LOCATER V4.66.93.0                                                        10/24/2025  21:07:56  PAGE 80


      00FF5FB3H   LINE      CODE     ---       #507
      00FF5FD1H   LINE      CODE     ---       #509
      00FF5FD1H   LINE      CODE     ---       #510
      00FF5FD5H   LINE      CODE     ---       #511
      00FF5FD7H   LINE      CODE     ---       #513
      00FF5FD7H   LINE      CODE     ---       #514
      00FF5FDAH   LINE      CODE     ---       #515
      00FF5FDCH   LINE      CODE     ---       #517
      00FF5FDCH   LINE      CODE     ---       #518
      00FF5FDFH   LINE      CODE     ---       #519
      00FF5FE1H   LINE      CODE     ---       #521
      00FF5FE1H   LINE      CODE     ---       #522
      00FF5FE4H   LINE      CODE     ---       #523
      00FF5FE4H   LINE      CODE     ---       #524
      00FF5FE4H   LINE      CODE     ---       #526
      00FF5FE7H   LINE      CODE     ---       #527
      00FF5FEAH   LINE      CODE     ---       #528
      00FF5FEDH   LINE      CODE     ---       #531
      00FF6006H   LINE      CODE     ---       #533
      00FF6009H   LINE      CODE     ---       #535
      00FF6019H   LINE      CODE     ---       #537
      00FF601CH   LINE      CODE     ---       #538
      00FF601EH   LINE      CODE     ---       #539
      00FF602EH   LINE      CODE     ---       #541
      00FF6031H   LINE      CODE     ---       #542
      00FF6033H   LINE      CODE     ---       #543
      00FF6043H   LINE      CODE     ---       #545
      00FF6047H   LINE      CODE     ---       #546
      00FF6049H   LINE      CODE     ---       #549
      00FF604CH   LINE      CODE     ---       #550
      00FF604CH   LINE      CODE     ---       #553
      00FF605EH   LINE      CODE     ---       #555
      00FF605EH   LINE      CODE     ---       #556
      00FF605EH   LINE      CODE     ---       #558
      00FF605EH   LINE      CODE     ---       #559
      00FF6061H   LINE      CODE     ---       #560
      00FF6063H   LINE      CODE     ---       #562
      00FF6063H   LINE      CODE     ---       #563
      00FF6066H   LINE      CODE     ---       #564
      00FF6068H   LINE      CODE     ---       #566
      00FF6068H   LINE      CODE     ---       #567
      00FF606BH   LINE      CODE     ---       #568
      00FF606BH   LINE      CODE     ---       #569
      00FF606BH   LINE      CODE     ---       #571
      00FF606EH   LINE      CODE     ---       #572
      00FF6071H   LINE      CODE     ---       #573
      00FF6080H   LINE      CODE     ---       #582
      00FF6098H   LINE      CODE     ---       #585
      00FF609BH   LINE      CODE     ---       #587
      00FF60B9H   LINE      CODE     ---       #589
      00FF60B9H   LINE      CODE     ---       #590
      00FF60BDH   LINE      CODE     ---       #591
      00FF60BFH   LINE      CODE     ---       #593
      00FF60BFH   LINE      CODE     ---       #594
      00FF60C2H   LINE      CODE     ---       #595
      00FF60C4H   LINE      CODE     ---       #597
      00FF60C4H   LINE      CODE     ---       #598
      00FF60C7H   LINE      CODE     ---       #599
      00FF60C9H   LINE      CODE     ---       #601
      00FF60C9H   LINE      CODE     ---       #602
      00FF60CCH   LINE      CODE     ---       #603
      00FF60CCH   LINE      CODE     ---       #604
      00FF60CCH   LINE      CODE     ---       #606
      00FF60CFH   LINE      CODE     ---       #607
      00FF60DCH   LINE      CODE     ---       #611
L251 LINKER/LOCATER V4.66.93.0                                                        10/24/2025  21:07:56  PAGE 81


      00FF60F5H   LINE      CODE     ---       #615
      00FF6105H   LINE      CODE     ---       #617
      00FF6115H   LINE      CODE     ---       #618
      00FF6117H   LINE      CODE     ---       #619
      00FF6127H   LINE      CODE     ---       #621
      00FF6137H   LINE      CODE     ---       #622
      00FF6139H   LINE      CODE     ---       #623
      00FF6149H   LINE      CODE     ---       #625
      00FF6157H   LINE      CODE     ---       #626
      00FF6159H   LINE      CODE     ---       #629
      00FF6169H   LINE      CODE     ---       #630
      00FF6169H   LINE      CODE     ---       #634
      00FF6181H   LINE      CODE     ---       #636
      00FF6181H   LINE      CODE     ---       #637
      00FF618FH   LINE      CODE     ---       #638
      00FF6191H   LINE      CODE     ---       #640
      00FF6191H   LINE      CODE     ---       #641
      00FF61A1H   LINE      CODE     ---       #642
      00FF61A3H   LINE      CODE     ---       #644
      00FF61A3H   LINE      CODE     ---       #645
      00FF61B3H   LINE      CODE     ---       #646
      00FF61B5H   LINE      CODE     ---       #648
      00FF61B5H   LINE      CODE     ---       #649
      00FF61C5H   LINE      CODE     ---       #650
      00FF61C5H   LINE      CODE     ---       #651
      00FF61C5H   LINE      CODE     ---       #653
      00FF61D5H   LINE      CODE     ---       #654
      00FF61D8H   LINE      CODE     ---       #655
      00FF61E7H   LINE      CODE     ---       #664
      00FF6201H   LINE      CODE     ---       #666
      00FF6204H   LINE      CODE     ---       #668
      00FF6222H   LINE      CODE     ---       #670
      00FF6222H   LINE      CODE     ---       #671
      00FF6226H   LINE      CODE     ---       #672
      00FF6228H   LINE      CODE     ---       #674
      00FF6228H   LINE      CODE     ---       #675
      00FF622BH   LINE      CODE     ---       #676
      00FF622DH   LINE      CODE     ---       #678
      00FF622DH   LINE      CODE     ---       #679
      00FF6230H   LINE      CODE     ---       #680
      00FF6232H   LINE      CODE     ---       #682
      00FF6232H   LINE      CODE     ---       #683
      00FF6235H   LINE      CODE     ---       #684
      00FF6235H   LINE      CODE     ---       #685
      00FF6235H   LINE      CODE     ---       #687
      00FF6238H   LINE      CODE     ---       #688
      00FF6245H   LINE      CODE     ---       #692
      00FF625EH   LINE      CODE     ---       #694
      00FF626EH   LINE      CODE     ---       #696
      00FF627EH   LINE      CODE     ---       #697
      00FF6280H   LINE      CODE     ---       #698
      00FF6290H   LINE      CODE     ---       #700
      00FF62A0H   LINE      CODE     ---       #701
      00FF62A2H   LINE      CODE     ---       #702
      00FF62B2H   LINE      CODE     ---       #704
      00FF62C0H   LINE      CODE     ---       #705
      00FF62C2H   LINE      CODE     ---       #708
      00FF62D2H   LINE      CODE     ---       #709
      00FF62D2H   LINE      CODE     ---       #713
      00FF62EAH   LINE      CODE     ---       #715
      00FF62EAH   LINE      CODE     ---       #716
      00FF62F8H   LINE      CODE     ---       #717
      00FF62FAH   LINE      CODE     ---       #719
      00FF62FAH   LINE      CODE     ---       #720
      00FF630AH   LINE      CODE     ---       #721
L251 LINKER/LOCATER V4.66.93.0                                                        10/24/2025  21:07:56  PAGE 82


      00FF630CH   LINE      CODE     ---       #723
      00FF630CH   LINE      CODE     ---       #724
      00FF631CH   LINE      CODE     ---       #725
      00FF631EH   LINE      CODE     ---       #727
      00FF631EH   LINE      CODE     ---       #728
      00FF632EH   LINE      CODE     ---       #729
      00FF632EH   LINE      CODE     ---       #730
      00FF632EH   LINE      CODE     ---       #732
      00FF633EH   LINE      CODE     ---       #733
      ---         BLOCKEND  ---      ---       LVL=0

      ---         MODULE    ---      ---       zf_driver_timer
      00FFB422H   PUBLIC    CODE     ---       timer_funciton_check
      000000D0H   SFRSYM    DATA     BYTE      PSW
      0000009DH   SFRSYM    DATA     BYTE      IRCBAND
      00000097H   SFRSYM    DATA     BYTE      AUXR2
      000000EFH   SFRSYM    DATA     BYTE      AUXINTIF
      000000FDH   SFRSYM    DATA     BYTE      S4CON
      000000ACH   SFRSYM    DATA     BYTE      S3CON
      0000009AH   SFRSYM    DATA     BYTE      S2CON
      000000B7H   SFRSYM    DATA     BYTE      IPH
      000000CDH   SFRSYM    DATA     BYTE      SPSTAT
      000000DDH   SFRSYM    DATA     BYTE      T4T3M
      000000C1H   SFRSYM    DATA     BYTE      WDT_CONTR
      000000DFH   SFRSYM    DATA     BYTE      IP3
      000000F4H   SFRSYM    DATA     BYTE      USBCON
      000000B5H   SFRSYM    DATA     BYTE      IP2
      000000FFH   SFRSYM    DATA     BYTE      RSTCFG
      000000C7H   SFRSYM    DATA     BYTE      IAP_CONTR
      0000008EH   SFRSYM    DATA     BYTE      AUXR
      000000AFH   SFRSYM    DATA     BYTE      IE2
      00000088H   SFRSYM    DATA     BYTE      TCON
      00000089H   SFRSYM    DATA     BYTE      TMOD
      00000098H   SFRSYM    DATA     BYTE      SCON
      00000087H   SFRSYM    DATA     BYTE      PCON
      000000BCH   SFRSYM    DATA     BYTE      ADC_CONTR
      000000D1H   SFRSYM    DATA     BYTE      PSW1
      000000E7H   SFRSYM    DATA     BYTE      CMPCR2
      000000E6H   SFRSYM    DATA     BYTE      CMPCR1
      000000DEH   SFRSYM    DATA     BYTE      ADCCFG
      000000B8H   SFRSYM    DATA     BYTE      IP
      0000008FH   SFRSYM    DATA     BYTE      INTCLKO
      000000EEH   SFRSYM    DATA     BYTE      IP3H
      000000B6H   SFRSYM    DATA     BYTE      IP2H
      000000BFH   SFRSYM    DATA     BYTE      P_SW4
      000000A8H   SFRSYM    DATA     BYTE      IE
      000000BBH   SFRSYM    DATA     BYTE      P_SW3
      000000BAH   SFRSYM    DATA     BYTE      P_SW2
      000000A2H   SFRSYM    DATA     BYTE      P_SW1
      000000CEH   SFRSYM    DATA     BYTE      SPCTL
      000000F8H   SFRSYM    DATA     BYTE      P7
      000000E8H   SFRSYM    DATA     BYTE      P6
      000000C8H   SFRSYM    DATA     BYTE      P5
      000000C0H   SFRSYM    DATA     BYTE      P4
      000000ABH   SFRSYM    DATA     BYTE      WKTCH
      000000B0H   SFRSYM    DATA     BYTE      P3
      000000A0H   SFRSYM    DATA     BYTE      P2
      00000090H   SFRSYM    DATA     BYTE      P1
      00000080H   SFRSYM    DATA     BYTE      P0
      000112A0H   SYMBOL    XDATA    ---       timer_function_state

      00FFB422H   BLOCK     CODE     ---       LVL=0
      WR2         REGSYM    ---      INT       index
      WR0         REGSYM    ---      INT       mode
      00FFB426H   BLOCK     CODE     NEAR LAB  LVL=1
L251 LINKER/LOCATER V4.66.93.0                                                        10/24/2025  21:07:56  PAGE 83


      R10         REGSYM    ---      BYTE      return_state
      ---         BLOCKEND  ---      ---       LVL=1
      00FFB422H   LINE      CODE     ---       #58
      00FFB426H   LINE      CODE     ---       #59
      00FFB426H   LINE      CODE     ---       #60
      00FFB429H   LINE      CODE     ---       #61
      00FFB43EH   LINE      CODE     ---       #63
      00FFB44FH   LINE      CODE     ---       #64
      00FFB451H   LINE      CODE     ---       #65
      00FFB464H   LINE      CODE     ---       #67
      00FFB467H   LINE      CODE     ---       #68
      00FFB469H   LINE      CODE     ---       #71
      00FFB46BH   LINE      CODE     ---       #72
      00FFB46BH   LINE      CODE     ---       #73
      00FFB46DH   LINE      CODE     ---       #74
      ---         BLOCKEND  ---      ---       LVL=0

      ---         MODULE    ---      ---       zf_driver_uart
      00FFA872H   PUBLIC    CODE     ---       uart_rx_start_buff
      00FF9443H   PUBLIC    CODE     ---       uart_write_buffer
      00FF7B4BH   PUBLIC    CODE     ---       uart_init
      00FFB596H   PUBLIC    CODE     ---       uart_rx_interrupt
      00FFBC5BH   PUBLIC    CODE     ---       uart_write_byte
      00FF8B0AH   PUBLIC    CODE     ---       uart_dma_init
      00FFB46EH   PUBLIC    CODE     ---       uart_funciton_check
      00FFB10AH   PUBLIC    CODE     ---       uart_query_byte
      000112B4H   PUBLIC    XDATA    ---       uart_rx_buff
      00011006H   PUBLIC    XDATA    BYTE      ?uart_init?BYTE
      000000D0H   SFRSYM    DATA     BYTE      PSW
      0000009DH   SFRSYM    DATA     BYTE      IRCBAND
      00000097H   SFRSYM    DATA     BYTE      AUXR2
      000000EFH   SFRSYM    DATA     BYTE      AUXINTIF
      000000FDH   SFRSYM    DATA     BYTE      S4CON
      000000ACH   SFRSYM    DATA     BYTE      S3CON
      0000009AH   SFRSYM    DATA     BYTE      S2CON
      000000B7H   SFRSYM    DATA     BYTE      IPH
      000000CDH   SFRSYM    DATA     BYTE      SPSTAT
      000000DDH   SFRSYM    DATA     BYTE      T4T3M
      000000C1H   SFRSYM    DATA     BYTE      WDT_CONTR
      00000088H.6 SFRSYM    DATA     BIT       TR1
      000000D7H   SFRSYM    DATA     BYTE      T2L
      000000D6H   SFRSYM    DATA     BYTE      T2H
      000000DFH   SFRSYM    DATA     BYTE      IP3
      000000F4H   SFRSYM    DATA     BYTE      USBCON
      000000B5H   SFRSYM    DATA     BYTE      IP2
      000000FFH   SFRSYM    DATA     BYTE      RSTCFG
      000000C7H   SFRSYM    DATA     BYTE      IAP_CONTR
      0000008EH   SFRSYM    DATA     BYTE      AUXR
      000000AFH   SFRSYM    DATA     BYTE      IE2
      00000088H   SFRSYM    DATA     BYTE      TCON
      00000089H   SFRSYM    DATA     BYTE      TMOD
      00000098H   SFRSYM    DATA     BYTE      SCON
      00000087H   SFRSYM    DATA     BYTE      PCON
      000000BCH   SFRSYM    DATA     BYTE      ADC_CONTR
      000000D1H   SFRSYM    DATA     BYTE      PSW1
      000000E7H   SFRSYM    DATA     BYTE      CMPCR2
      000000E6H   SFRSYM    DATA     BYTE      CMPCR1
      000000DEH   SFRSYM    DATA     BYTE      ADCCFG
      000000B8H   SFRSYM    DATA     BYTE      IP
      0000008FH   SFRSYM    DATA     BYTE      INTCLKO
      000000EEH   SFRSYM    DATA     BYTE      IP3H
      000000B6H   SFRSYM    DATA     BYTE      IP2H
      000000BFH   SFRSYM    DATA     BYTE      P_SW4
      000000A8H   SFRSYM    DATA     BYTE      IE
      000000BBH   SFRSYM    DATA     BYTE      P_SW3
L251 LINKER/LOCATER V4.66.93.0                                                        10/24/2025  21:07:56  PAGE 84


      000000BAH   SFRSYM    DATA     BYTE      P_SW2
      000000A2H   SFRSYM    DATA     BYTE      P_SW1
      000000CEH   SFRSYM    DATA     BYTE      SPCTL
      000000F8H   SFRSYM    DATA     BYTE      P7
      000000E8H   SFRSYM    DATA     BYTE      P6
      000000C8H   SFRSYM    DATA     BYTE      P5
      000000C0H   SFRSYM    DATA     BYTE      P4
      000000ABH   SFRSYM    DATA     BYTE      WKTCH
      000000B0H   SFRSYM    DATA     BYTE      P3
      000000A0H   SFRSYM    DATA     BYTE      P2
      00000090H   SFRSYM    DATA     BYTE      P1
      00000080H   SFRSYM    DATA     BYTE      P0
      000112ACH   SYMBOL    XDATA    ---       uart_function_state

      00FFB46EH   BLOCK     CODE     ---       LVL=0
      WR2         REGSYM    ---      INT       index
      WR0         REGSYM    ---      INT       mode
      00FFB472H   BLOCK     CODE     NEAR LAB  LVL=1
      R10         REGSYM    ---      BYTE      return_state
      ---         BLOCKEND  ---      ---       LVL=1
      00FFB46EH   LINE      CODE     ---       #83
      00FFB472H   LINE      CODE     ---       #84
      00FFB472H   LINE      CODE     ---       #85
      00FFB475H   LINE      CODE     ---       #86
      00FFB48AH   LINE      CODE     ---       #88
      00FFB49BH   LINE      CODE     ---       #89
      00FFB49DH   LINE      CODE     ---       #90
      00FFB4B0H   LINE      CODE     ---       #92
      00FFB4B3H   LINE      CODE     ---       #93
      00FFB4B5H   LINE      CODE     ---       #96
      00FFB4B7H   LINE      CODE     ---       #97
      00FFB4B7H   LINE      CODE     ---       #98
      00FFB4B9H   LINE      CODE     ---       #99
      ---         BLOCKEND  ---      ---       LVL=0

      00FF9443H   BLOCK     CODE     ---       LVL=0
      WR0         REGSYM    ---      INT       uart_n
      REG=7       REGSYM    ---      ---       buff
      WR8         REGSYM    ---      WORD      len
      00FF9443H   LINE      CODE     ---       #108
      00FF9449H   LINE      CODE     ---       #112
      00FF9463H   LINE      CODE     ---       #113
      00FF9465H   LINE      CODE     ---       #114
      00FF947FH   LINE      CODE     ---       #115
      00FF9498H   LINE      CODE     ---       #116
      00FF94B8H   LINE      CODE     ---       #117
      00FF94D4H   LINE      CODE     ---       #118
      00FF94EFH   LINE      CODE     ---       #120
      00FF950AH   LINE      CODE     ---       #122
      00FF9524H   LINE      CODE     ---       #124
      ---         BLOCKEND  ---      ---       LVL=0
      REG=3       REGSYM    ---      ---       str

      00FFBC5BH   BLOCK     CODE     ---       LVL=0
      WR6         REGSYM    ---      INT       uart_n
      00011081H   SYMBOL    XDATA    BYTE      dat
      00FFBC5BH   LINE      CODE     ---       #154
      00FFBC5FH   LINE      CODE     ---       #156
      00FFBC6EH   LINE      CODE     ---       #157
      ---         BLOCKEND  ---      ---       LVL=0

      00FFA872H   BLOCK     CODE     ---       LVL=0
      WR8         REGSYM    ---      INT       uart_n
      00FFA872H   LINE      CODE     ---       #165
      00FFA874H   LINE      CODE     ---       #167
L251 LINKER/LOCATER V4.66.93.0                                                        10/24/2025  21:07:56  PAGE 85


      00FFA88EH   LINE      CODE     ---       #168
      00FFA8A4H   LINE      CODE     ---       #169
      00FFA8C4H   LINE      CODE     ---       #170
      00FFA8E6H   LINE      CODE     ---       #171
      00FFA901H   LINE      CODE     ---       #172
      ---         BLOCKEND  ---      ---       LVL=0

      00FFB596H   BLOCK     CODE     ---       LVL=0
      WR2         REGSYM    ---      INT       uart_n
      R5          REGSYM    ---      BYTE      status
      00FFB596H   LINE      CODE     ---       #183
      00FFB59AH   LINE      CODE     ---       #185
      00FFB59EH   LINE      CODE     ---       #187
      00FFB5BBH   LINE      CODE     ---       #188
      00FFB5BDH   LINE      CODE     ---       #191
      00FFB5DAH   LINE      CODE     ---       #192
      00FFB5DAH   LINE      CODE     ---       #193
      ---         BLOCKEND  ---      ---       LVL=0
      WR8         REGSYM    ---      INT       uart_n
      R15         REGSYM    ---      BYTE      dat

      00FFB10AH   BLOCK     CODE     ---       LVL=0
      WR2         REGSYM    ---      INT       uart_n
      REG=7       REGSYM    ---      ---       dat
      00FFB110H   BLOCK     CODE     NEAR LAB  LVL=1
      R15         REGSYM    ---      BYTE      ret
      ---         BLOCKEND  ---      ---       LVL=1
      00FFB10AH   LINE      CODE     ---       #227
      00FFB110H   LINE      CODE     ---       #228
      00FFB110H   LINE      CODE     ---       #229
      00FFB112H   LINE      CODE     ---       #232
      00FFB122H   LINE      CODE     ---       #234
      00FFB13EH   LINE      CODE     ---       #236
      00FFB141H   LINE      CODE     ---       #238
      00FFB15EH   LINE      CODE     ---       #239
      00FFB160H   LINE      CODE     ---       #242
      00FFB162H   LINE      CODE     ---       #243
      00FFB162H   LINE      CODE     ---       #246
      00FFB167H   LINE      CODE     ---       #248
      00FFB169H   LINE      CODE     ---       #249
      ---         BLOCKEND  ---      ---       LVL=0

      00FF8B0AH   BLOCK     CODE     ---       LVL=0
      WR8         REGSYM    ---      INT       uart_n
      00FF8B0AH   LINE      CODE     ---       #257
      00FF8B0CH   LINE      CODE     ---       #259
      00FF8B26H   LINE      CODE     ---       #260
      00FF8B40H   LINE      CODE     ---       #261
      00FF8B5AH   LINE      CODE     ---       #263
      00FF8B74H   LINE      CODE     ---       #264
      00FF8B8EH   LINE      CODE     ---       #265
      00FF8BA8H   LINE      CODE     ---       #267
      00FF8BC2H   LINE      CODE     ---       #268
      00FF8BD8H   LINE      CODE     ---       #269
      00FF8BF8H   LINE      CODE     ---       #270
      00FF8C1AH   LINE      CODE     ---       #271
      00FF8C35H   LINE      CODE     ---       #272
      00FF8C50H   LINE      CODE     ---       #274
      ---         BLOCKEND  ---      ---       LVL=0

      00FF7B4BH   BLOCK     CODE     ---       LVL=0
      WR12        REGSYM    ---      INT       uart_n
      0001100AH   SYMBOL    XDATA    DWORD     baud
      WR14        REGSYM    ---      INT       tx_pin
      0001100EH   SYMBOL    XDATA    INT       rx_pin
L251 LINKER/LOCATER V4.66.93.0                                                        10/24/2025  21:07:56  PAGE 86


      00FF7B5BH   BLOCK     CODE     NEAR LAB  LVL=1
      WR6         REGSYM    ---      WORD      brt
      ---         BLOCKEND  ---      ---       LVL=1
      00FF7B4BH   LINE      CODE     ---       #286
      00FF7B5BH   LINE      CODE     ---       #287
      00FF7B5BH   LINE      CODE     ---       #296
      00FF7B71H   LINE      CODE     ---       #303
      00FF7B8BH   LINE      CODE     ---       #308
      00FF7BB9H   LINE      CODE     ---       #311
      00FF7BCBH   LINE      CODE     ---       #312
      00FF7BDFH   LINE      CODE     ---       #314
      00FF7C10H   LINE      CODE     ---       #316
      00FF7C30H   LINE      CODE     ---       #318
      00FF7C30H   LINE      CODE     ---       #332
      00FF7C33H   LINE      CODE     ---       #333
      00FF7C37H   LINE      CODE     ---       #334
      00FF7C3DH   LINE      CODE     ---       #335
      00FF7C40H   LINE      CODE     ---       #336
      00FF7C42H   LINE      CODE     ---       #339
      00FF7C45H   LINE      CODE     ---       #341
      00FF7C57H   LINE      CODE     ---       #343
      00FF7C5BH   LINE      CODE     ---       #344
      00FF7C5EH   LINE      CODE     ---       #345
      00FF7C70H   LINE      CODE     ---       #347
      00FF7C73H   LINE      CODE     ---       #348
      00FF7C76H   LINE      CODE     ---       #349
      00FF7C88H   LINE      CODE     ---       #351
      00FF7C8BH   LINE      CODE     ---       #352
      00FF7C8EH   LINE      CODE     ---       #353
      00FF7CA6H   LINE      CODE     ---       #355
      00FF7CA9H   LINE      CODE     ---       #356
      00FF7CA9H   LINE      CODE     ---       #359
      00FF7CACH   LINE      CODE     ---       #362
      00FF7CACH   LINE      CODE     ---       #366
      00FF7CAFH   LINE      CODE     ---       #367
      00FF7CB3H   LINE      CODE     ---       #368
      00FF7CB9H   LINE      CODE     ---       #369
      00FF7CBCH   LINE      CODE     ---       #372
      00FF7CBFH   LINE      CODE     ---       #374
      00FF7CD1H   LINE      CODE     ---       #376
      00FF7CD5H   LINE      CODE     ---       #377
      00FF7CD8H   LINE      CODE     ---       #378
      00FF7CF0H   LINE      CODE     ---       #380
      00FF7CF3H   LINE      CODE     ---       #381
      00FF7CF3H   LINE      CODE     ---       #385
      00FF7CF6H   LINE      CODE     ---       #388
      00FF7CF6H   LINE      CODE     ---       #392
      00FF7CF9H   LINE      CODE     ---       #393
      00FF7CFDH   LINE      CODE     ---       #394
      00FF7D03H   LINE      CODE     ---       #395
      00FF7D06H   LINE      CODE     ---       #405
      00FF7D09H   LINE      CODE     ---       #407
      00FF7D1BH   LINE      CODE     ---       #409
      00FF7D1FH   LINE      CODE     ---       #410
      00FF7D21H   LINE      CODE     ---       #411
      00FF7D33H   LINE      CODE     ---       #413
      00FF7D36H   LINE      CODE     ---       #414
      00FF7D36H   LINE      CODE     ---       #418
      00FF7D38H   LINE      CODE     ---       #421
      00FF7D38H   LINE      CODE     ---       #425
      00FF7D3BH   LINE      CODE     ---       #426
      00FF7D3FH   LINE      CODE     ---       #427
      00FF7D45H   LINE      CODE     ---       #428
      00FF7D48H   LINE      CODE     ---       #438
      00FF7D4BH   LINE      CODE     ---       #440
L251 LINKER/LOCATER V4.66.93.0                                                        10/24/2025  21:07:56  PAGE 87


      00FF7D5DH   LINE      CODE     ---       #442
      00FF7D61H   LINE      CODE     ---       #443
      00FF7D63H   LINE      CODE     ---       #444
      00FF7D75H   LINE      CODE     ---       #448
      00FF7D78H   LINE      CODE     ---       #449
      00FF7D78H   LINE      CODE     ---       #453
      00FF7D78H   LINE      CODE     ---       #456
      00FF7D78H   LINE      CODE     ---       #459
      00FF7D7DH   LINE      CODE     ---       #461
      ---         BLOCKEND  ---      ---       LVL=0

      ---         MODULE    ---      ---       zf_device_config
      00FF021EH   PUBLIC    CODE     ---       imu660ra_config_file

      ---         MODULE    ---      ---       zf_device_type
      000112E1H   PUBLIC    XDATA    ---       tof_module_exti_handler
      000112E3H   PUBLIC    XDATA    INT       wireless_type
      000112E5H   PUBLIC    XDATA    INT       tof_type
      000112E7H   PUBLIC    XDATA    INT       gps_type
      000000D0H   SFRSYM    DATA     BYTE      PSW
      0000009DH   SFRSYM    DATA     BYTE      IRCBAND
      00000097H   SFRSYM    DATA     BYTE      AUXR2
      000000EFH   SFRSYM    DATA     BYTE      AUXINTIF
      000000FDH   SFRSYM    DATA     BYTE      S4CON
      000000ACH   SFRSYM    DATA     BYTE      S3CON
      0000009AH   SFRSYM    DATA     BYTE      S2CON
      000000B7H   SFRSYM    DATA     BYTE      IPH
      000000CDH   SFRSYM    DATA     BYTE      SPSTAT
      000000DDH   SFRSYM    DATA     BYTE      T4T3M
      000000C1H   SFRSYM    DATA     BYTE      WDT_CONTR
      000000DFH   SFRSYM    DATA     BYTE      IP3
      000000F4H   SFRSYM    DATA     BYTE      USBCON
      000000B5H   SFRSYM    DATA     BYTE      IP2
      000000FFH   SFRSYM    DATA     BYTE      RSTCFG
      000000C7H   SFRSYM    DATA     BYTE      IAP_CONTR
      0000008EH   SFRSYM    DATA     BYTE      AUXR
      000000AFH   SFRSYM    DATA     BYTE      IE2
      00000088H   SFRSYM    DATA     BYTE      TCON
      00000089H   SFRSYM    DATA     BYTE      TMOD
      00000098H   SFRSYM    DATA     BYTE      SCON
      00000087H   SFRSYM    DATA     BYTE      PCON
      000000BCH   SFRSYM    DATA     BYTE      ADC_CONTR
      000000D1H   SFRSYM    DATA     BYTE      PSW1
      000000E7H   SFRSYM    DATA     BYTE      CMPCR2
      000000E6H   SFRSYM    DATA     BYTE      CMPCR1
      000000DEH   SFRSYM    DATA     BYTE      ADCCFG
      000000B8H   SFRSYM    DATA     BYTE      IP
      0000008FH   SFRSYM    DATA     BYTE      INTCLKO
      000000EEH   SFRSYM    DATA     BYTE      IP3H
      000000B6H   SFRSYM    DATA     BYTE      IP2H
      000000BFH   SFRSYM    DATA     BYTE      P_SW4
      000000A8H   SFRSYM    DATA     BYTE      IE
      000000BBH   SFRSYM    DATA     BYTE      P_SW3
      000000BAH   SFRSYM    DATA     BYTE      P_SW2
      000000A2H   SFRSYM    DATA     BYTE      P_SW1
      000000CEH   SFRSYM    DATA     BYTE      SPCTL
      000000F8H   SFRSYM    DATA     BYTE      P7
      000000E8H   SFRSYM    DATA     BYTE      P6
      000000C8H   SFRSYM    DATA     BYTE      P5
      000000C0H   SFRSYM    DATA     BYTE      P4
      000000ABH   SFRSYM    DATA     BYTE      WKTCH
      000000B0H   SFRSYM    DATA     BYTE      P3
      000000A0H   SFRSYM    DATA     BYTE      P2
      00000090H   SFRSYM    DATA     BYTE      P1
      00000080H   SFRSYM    DATA     BYTE      P0
L251 LINKER/LOCATER V4.66.93.0                                                        10/24/2025  21:07:56  PAGE 88


      WR6         REGSYM    ---      INT       type_set
      WR4         REGSYM    ---      INT       uartx
      REG=0       REGSYM    ---      ---       uart_callback
      WR6         REGSYM    ---      INT       type_set
      REG=0       REGSYM    ---      ---       exti_callback
      WR6         REGSYM    ---      INT       type_set
      WR4         REGSYM    ---      INT       uartx
      REG=0       REGSYM    ---      ---       uart_callback

      ---         MODULE    ---      ---       zf_device_tft180
      00FF6E2CH   PUBLIC    CODE     ---       tft180_init
      00FF8351H   PUBLIC    CODE     ---       tft180_show_float
      00FFA256H   PUBLIC    CODE     ---       tft180_show_string
      00FF9606H   PUBLIC    CODE     ---       tft180_show_char
      00FF000EH   PUBLIC    CODE     ---       tft180_set_color
      00FF8ECCH   PUBLIC    CODE     ---       tft180_show_int16
      00FFBB37H   PUBLIC    CODE     ---       tft180_set_dir
      00FFAFDBH   PUBLIC    CODE     ---       tft180_clear
      000112E9H   PUBLIC    XDATA    WORD      tft180_pencolor
      000112EBH   PUBLIC    XDATA    WORD      tft180_bgcolor
      000112EDH   PUBLIC    XDATA    INT       tft180_display_dir
      000112EFH   PUBLIC    XDATA    BYTE      tft180_x_max
      000112F0H   PUBLIC    XDATA    BYTE      tft180_y_max
      00011008H   PUBLIC    XDATA    BYTE      ?tft180_show_float?BYTE
      000000D0H   SFRSYM    DATA     BYTE      PSW
      0000009DH   SFRSYM    DATA     BYTE      IRCBAND
      00000097H   SFRSYM    DATA     BYTE      AUXR2
      000000EFH   SFRSYM    DATA     BYTE      AUXINTIF
      000000FDH   SFRSYM    DATA     BYTE      S4CON
      000000ACH   SFRSYM    DATA     BYTE      S3CON
      0000009AH   SFRSYM    DATA     BYTE      S2CON
      000000B7H   SFRSYM    DATA     BYTE      IPH
      000000CDH   SFRSYM    DATA     BYTE      SPSTAT
      000000DDH   SFRSYM    DATA     BYTE      T4T3M
      000000C1H   SFRSYM    DATA     BYTE      WDT_CONTR
      000000DFH   SFRSYM    DATA     BYTE      IP3
      000000F4H   SFRSYM    DATA     BYTE      USBCON
      000000B5H   SFRSYM    DATA     BYTE      IP2
      000000FFH   SFRSYM    DATA     BYTE      RSTCFG
      000000C7H   SFRSYM    DATA     BYTE      IAP_CONTR
      0000008EH   SFRSYM    DATA     BYTE      AUXR
      000000AFH   SFRSYM    DATA     BYTE      IE2
      00000088H   SFRSYM    DATA     BYTE      TCON
      00000089H   SFRSYM    DATA     BYTE      TMOD
      00000098H   SFRSYM    DATA     BYTE      SCON
      000000A0H.2 SFRSYM    DATA     BIT       P22
      000000A0H.1 SFRSYM    DATA     BIT       P21
      000000A0H.0 SFRSYM    DATA     BIT       P20
      00000087H   SFRSYM    DATA     BYTE      PCON
      000000BCH   SFRSYM    DATA     BYTE      ADC_CONTR
      000000D1H   SFRSYM    DATA     BYTE      PSW1
      000000E7H   SFRSYM    DATA     BYTE      CMPCR2
      000000E6H   SFRSYM    DATA     BYTE      CMPCR1
      000000DEH   SFRSYM    DATA     BYTE      ADCCFG
      000000B8H   SFRSYM    DATA     BYTE      IP
      0000008FH   SFRSYM    DATA     BYTE      INTCLKO
      000000EEH   SFRSYM    DATA     BYTE      IP3H
      000000B6H   SFRSYM    DATA     BYTE      IP2H
      000000BFH   SFRSYM    DATA     BYTE      P_SW4
      000000A8H   SFRSYM    DATA     BYTE      IE
      000000BBH   SFRSYM    DATA     BYTE      P_SW3
      000000BAH   SFRSYM    DATA     BYTE      P_SW2
      000000A2H   SFRSYM    DATA     BYTE      P_SW1
      000000CEH   SFRSYM    DATA     BYTE      SPCTL
      000000F8H   SFRSYM    DATA     BYTE      P7
L251 LINKER/LOCATER V4.66.93.0                                                        10/24/2025  21:07:56  PAGE 89


      000000E8H   SFRSYM    DATA     BYTE      P6
      000000C8H   SFRSYM    DATA     BYTE      P5
      000000C0H   SFRSYM    DATA     BYTE      P4
      000000ABH   SFRSYM    DATA     BYTE      WKTCH
      000000B0H   SFRSYM    DATA     BYTE      P3
      000000A0H   SFRSYM    DATA     BYTE      P2
      00000090H   SFRSYM    DATA     BYTE      P1
      00000080H   SFRSYM    DATA     BYTE      P0
      00FF8FFFH   SYMBOL    CODE     ---       tft180_set_region
      00FFBC2FH   SYMBOL    CODE     ---       tft180_write_index

      00FFBC2FH   BLOCK     CODE     ---       LVL=0
      R5          REGSYM    ---      BYTE      dat
      00FFBC2FH   LINE      CODE     ---       #80
      00FFBC31H   LINE      CODE     ---       #82
      00FFBC33H   LINE      CODE     ---       #83
      00FFBC35H   LINE      CODE     ---       #84
      00FFBC37H   LINE      CODE     ---       #85
      00FFBC3EH   LINE      CODE     ---       #86
      00FFBC40H   LINE      CODE     ---       #87
      00FFBC42H   LINE      CODE     ---       #88
      00FFBC44H   LINE      CODE     ---       #89
      ---         BLOCKEND  ---      ---       LVL=0

      00FF8FFFH   BLOCK     CODE     ---       LVL=0
      00011045H   SYMBOL    XDATA    WORD      x1
      00011047H   SYMBOL    XDATA    WORD      y1
      WR12        REGSYM    ---      WORD      x2
      WR14        REGSYM    ---      WORD      y2
      00FF8FFFH   LINE      CODE     ---       #100
      00FF9011H   LINE      CODE     ---       #102
      00FF9035H   LINE      CODE     ---       #103
      00FF9059H   LINE      CODE     ---       #104
      00FF9077H   LINE      CODE     ---       #105
      00FF9095H   LINE      CODE     ---       #107
      00FF90ABH   LINE      CODE     ---       #109
      00FF90B0H   LINE      CODE     ---       #110
      00FF90BDH   LINE      CODE     ---       #111
      00FF90C6H   LINE      CODE     ---       #113
      00FF90CBH   LINE      CODE     ---       #114
      00FF90D8H   LINE      CODE     ---       #115
      00FF90E1H   LINE      CODE     ---       #116
      00FF90E3H   LINE      CODE     ---       #119
      00FF90E8H   LINE      CODE     ---       #120
      00FF90F5H   LINE      CODE     ---       #121
      00FF90FEH   LINE      CODE     ---       #123
      00FF9103H   LINE      CODE     ---       #124
      00FF9110H   LINE      CODE     ---       #125
      00FF9119H   LINE      CODE     ---       #126
      00FF9119H   LINE      CODE     ---       #127
      00FF911EH   LINE      CODE     ---       #128
      ---         BLOCKEND  ---      ---       LVL=0

      00FFAFDBH   BLOCK     CODE     ---       LVL=0
      WR14        REGSYM    ---      WORD      color
      00FFAFDFH   BLOCK     CODE     NEAR LAB  LVL=1
      0001100AH   SYMBOL    XDATA    DWORD     i
      ---         BLOCKEND  ---      ---       LVL=1
      00FFAFDBH   LINE      CODE     ---       #138
      00FFAFDFH   LINE      CODE     ---       #139
      00FFAFDFH   LINE      CODE     ---       #140
      00FFAFFCH   LINE      CODE     ---       #142
      00FFB013H   LINE      CODE     ---       #143
      00FFB015H   LINE      CODE     ---       #145
      00FFB01CH   LINE      CODE     ---       #146
L251 LINKER/LOCATER V4.66.93.0                                                        10/24/2025  21:07:56  PAGE 90


      00FFB03FH   LINE      CODE     ---       #147
      ---         BLOCKEND  ---      ---       LVL=0

      00FFBB37H   BLOCK     CODE     ---       LVL=0
      WR6         REGSYM    ---      INT       dir
      00FFBB37H   LINE      CODE     ---       #155
      00FFBB37H   LINE      CODE     ---       #157
      00FFBB3DH   LINE      CODE     ---       #158
      00FFBB43H   LINE      CODE     ---       #160
      00FFBB49H   LINE      CODE     ---       #161
      00FFBB4FH   LINE      CODE     ---       #162
      00FFBB51H   LINE      CODE     ---       #165
      00FFBB57H   LINE      CODE     ---       #166
      00FFBB5DH   LINE      CODE     ---       #167
      00FFBB5DH   LINE      CODE     ---       #168
      ---         BLOCKEND  ---      ---       LVL=0

      00FF000EH   BLOCK     CODE     ---       LVL=0
      WR6         REGSYM    ---      WORD      pen
      WR4         REGSYM    ---      WORD      bgcolor
      00FF000EH   LINE      CODE     ---       #177
      00FF000EH   LINE      CODE     ---       #179
      00FF0014H   LINE      CODE     ---       #180
      00FF001AH   LINE      CODE     ---       #181
      ---         BLOCKEND  ---      ---       LVL=0
      WR12        REGSYM    ---      WORD      x
      WR14        REGSYM    ---      WORD      y

      00FF9606H   BLOCK     CODE     ---       LVL=0
      WR12        REGSYM    ---      WORD      x
      WR14        REGSYM    ---      WORD      y
      00011041H   SYMBOL    XDATA    CHAR      dat
      00FF9610H   BLOCK     CODE     NEAR LAB  LVL=1
      00011042H   SYMBOL    XDATA    BYTE      i
      00011043H   SYMBOL    XDATA    BYTE      j
      00011044H   SYMBOL    XDATA    BYTE      temp
      ---         BLOCKEND  ---      ---       LVL=1
      00FF9606H   LINE      CODE     ---       #208
      00FF9610H   LINE      CODE     ---       #209
      00FF9610H   LINE      CODE     ---       #213
      00FF962EH   LINE      CODE     ---       #214
      00FF964CH   LINE      CODE     ---       #216
      00FF9654H   LINE      CODE     ---       #218
      00FF966FH   LINE      CODE     ---       #219
      00FF9695H   LINE      CODE     ---       #220
      00FF969CH   LINE      CODE     ---       #222
      00FF96A3H   LINE      CODE     ---       #223
      00FF96B0H   LINE      CODE     ---       #225
      00FF96BBH   LINE      CODE     ---       #226
      00FF96C2H   LINE      CODE     ---       #227
      00FF96D1H   LINE      CODE     ---       #228
      00FF96E3H   LINE      CODE     ---       #229
      ---         BLOCKEND  ---      ---       LVL=0

      00FFA256H   BLOCK     CODE     ---       LVL=0
      0001103BH   SYMBOL    XDATA    WORD      x
      0001103DH   SYMBOL    XDATA    WORD      y
      REG=3       REGSYM    ---      ---       dat
      00FFA266H   BLOCK     CODE     NEAR LAB  LVL=1
      0001103FH   SYMBOL    XDATA    WORD      j
      ---         BLOCKEND  ---      ---       LVL=1
      00FFA256H   LINE      CODE     ---       #239
      00FFA266H   LINE      CODE     ---       #240
      00FFA266H   LINE      CODE     ---       #241
      00FFA26EH   LINE      CODE     ---       #243
L251 LINKER/LOCATER V4.66.93.0                                                        10/24/2025  21:07:56  PAGE 91


      00FFA292H   LINE      CODE     ---       #244
      00FFA2B6H   LINE      CODE     ---       #247
      00FFA2B8H   LINE      CODE     ---       #249
      00FFA2E2H   LINE      CODE     ---       #250
      00FFA2EDH   LINE      CODE     ---       #251
      00FFA2FCH   LINE      CODE     ---       #252
      ---         BLOCKEND  ---      ---       LVL=0
      WR12        REGSYM    ---      WORD      x
      WR14        REGSYM    ---      WORD      y
      WR12        REGSYM    ---      WORD      x
      WR14        REGSYM    ---      WORD      y

      00FF8ECCH   BLOCK     CODE     ---       LVL=0
      WR12        REGSYM    ---      WORD      x
      WR14        REGSYM    ---      WORD      y
      0001100AH   SYMBOL    XDATA    INT       dat
      00FF8ED8H   BLOCK     CODE     NEAR LAB  LVL=1
      0001100CH   SYMBOL    XDATA    ---       a
      00011011H   SYMBOL    XDATA    BYTE      i
      ---         BLOCKEND  ---      ---       LVL=1
      00FF8ECCH   LINE      CODE     ---       #326
      00FF8ED8H   LINE      CODE     ---       #327
      00FF8ED8H   LINE      CODE     ---       #331
      00FF8EF6H   LINE      CODE     ---       #332
      00FF8F14H   LINE      CODE     ---       #334
      00FF8F20H   LINE      CODE     ---       #336
      00FF8F29H   LINE      CODE     ---       #337
      00FF8F3BH   LINE      CODE     ---       #338
      00FF8F3DH   LINE      CODE     ---       #339
      00FF8F46H   LINE      CODE     ---       #341
      00FF8F59H   LINE      CODE     ---       #342
      00FF8F73H   LINE      CODE     ---       #343
      00FF8F8DH   LINE      CODE     ---       #344
      00FF8FA7H   LINE      CODE     ---       #345
      00FF8FBAH   LINE      CODE     ---       #347
      00FF8FBFH   LINE      CODE     ---       #348
      00FF8FC1H   LINE      CODE     ---       #350
      00FF8FEDH   LINE      CODE     ---       #351
      00FF8FF3H   LINE      CODE     ---       #352
      00FF8FFCH   LINE      CODE     ---       #353
      ---         BLOCKEND  ---      ---       LVL=0
      WR12        REGSYM    ---      WORD      x
      WR14        REGSYM    ---      WORD      y
      WR12        REGSYM    ---      WORD      y
      R15         REGSYM    ---      BYTE      num
      R14         REGSYM    ---      BYTE      length

      00FF8351H   BLOCK     CODE     ---       LVL=0
      0001100AH   SYMBOL    XDATA    WORD      x
      WR12        REGSYM    ---      WORD      y
      0001100CH   SYMBOL    XDATA    DOUBLE    dat
      R14         REGSYM    ---      BYTE      num
      R15         REGSYM    ---      BYTE      pointnum
      00FF835FH   BLOCK     CODE     NEAR LAB  LVL=1
      00011016H   SYMBOL    XDATA    BYTE      length
      00011017H   SYMBOL    XDATA    ---       buff
      00011039H   SYMBOL    XDATA    CHAR      start
      0001103AH   SYMBOL    XDATA    CHAR      end
      R10         REGSYM    ---      CHAR      point
      ---         BLOCKEND  ---      ---       LVL=1
      00FF8351H   LINE      CODE     ---       #437
      00FF835FH   LINE      CODE     ---       #438
      00FF835FH   LINE      CODE     ---       #443
      00FF8383H   LINE      CODE     ---       #444
      00FF83A1H   LINE      CODE     ---       #446
L251 LINKER/LOCATER V4.66.93.0                                                        10/24/2025  21:07:56  PAGE 92


      00FF83A9H   LINE      CODE     ---       #447
      00FF83B1H   LINE      CODE     ---       #449
      00FF840BH   LINE      CODE     ---       #452
      00FF8448H   LINE      CODE     ---       #453
      00FF844EH   LINE      CODE     ---       #454
      00FF844EH   LINE      CODE     ---       #455
      00FF845AH   LINE      CODE     ---       #456
      00FF8468H   LINE      CODE     ---       #457
      00FF8474H   LINE      CODE     ---       #458
      00FF8476H   LINE      CODE     ---       #460
      00FF848CH   LINE      CODE     ---       #461
      00FF8492H   LINE      CODE     ---       #462
      00FF8498H   LINE      CODE     ---       #463
      00FF84A1H   LINE      CODE     ---       #465
      00FF84D4H   LINE      CODE     ---       #466
      00FF84EAH   LINE      CODE     ---       #468
      00FF84FFH   LINE      CODE     ---       #470
      00FF8512H   LINE      CODE     ---       #471
      ---         BLOCKEND  ---      ---       LVL=0
      REG=3       REGSYM    ---      ---       p

      00FF6E2CH   BLOCK     CODE     ---       LVL=0
      00FF6E2CH   LINE      CODE     ---       #515
      00FF6E2CH   LINE      CODE     ---       #520
      00FF6E63H   LINE      CODE     ---       #528
      00FF6E6CH   LINE      CODE     ---       #529
      00FF6E7BH   LINE      CODE     ---       #531
      00FF6E7DH   LINE      CODE     ---       #532
      00FF6E84H   LINE      CODE     ---       #534
      00FF6E86H   LINE      CODE     ---       #535
      00FF6E8DH   LINE      CODE     ---       #537
      00FF6E92H   LINE      CODE     ---       #538
      00FF6E99H   LINE      CODE     ---       #540
      00FF6E9EH   LINE      CODE     ---       #541
      00FF6EA5H   LINE      CODE     ---       #542
      00FF6EACH   LINE      CODE     ---       #543
      00FF6EB3H   LINE      CODE     ---       #545
      00FF6EB8H   LINE      CODE     ---       #546
      00FF6EBFH   LINE      CODE     ---       #547
      00FF6EC6H   LINE      CODE     ---       #548
      00FF6ECDH   LINE      CODE     ---       #550
      00FF6ED2H   LINE      CODE     ---       #551
      00FF6ED9H   LINE      CODE     ---       #552
      00FF6EE0H   LINE      CODE     ---       #553
      00FF6EE7H   LINE      CODE     ---       #554
      00FF6EEEH   LINE      CODE     ---       #555
      00FF6EF5H   LINE      CODE     ---       #556
      00FF6EFCH   LINE      CODE     ---       #558
      00FF6F01H   LINE      CODE     ---       #559
      00FF6F08H   LINE      CODE     ---       #561
      00FF6F0DH   LINE      CODE     ---       #562
      00FF6F14H   LINE      CODE     ---       #563
      00FF6F1BH   LINE      CODE     ---       #564
      00FF6F22H   LINE      CODE     ---       #565
      00FF6F27H   LINE      CODE     ---       #566
      00FF6F2EH   LINE      CODE     ---       #568
      00FF6F33H   LINE      CODE     ---       #569
      00FF6F3AH   LINE      CODE     ---       #570
      00FF6F40H   LINE      CODE     ---       #572
      00FF6F45H   LINE      CODE     ---       #573
      00FF6F4CH   LINE      CODE     ---       #574
      00FF6F53H   LINE      CODE     ---       #575
      00FF6F58H   LINE      CODE     ---       #576
      00FF6F5FH   LINE      CODE     ---       #577
      00FF6F66H   LINE      CODE     ---       #579
L251 LINKER/LOCATER V4.66.93.0                                                        10/24/2025  21:07:56  PAGE 93


      00FF6F6BH   LINE      CODE     ---       #580
      00FF6F72H   LINE      CODE     ---       #582
      00FF6F77H   LINE      CODE     ---       #583
      00FF6F8FH   LINE      CODE     ---       #585
      00FF6F98H   LINE      CODE     ---       #586
      00FF6FA0H   LINE      CODE     ---       #587
      00FF6FA9H   LINE      CODE     ---       #588
      00FF6FB0H   LINE      CODE     ---       #589
      00FF6FB0H   LINE      CODE     ---       #591
      00FF6FB5H   LINE      CODE     ---       #592
      00FF6FBCH   LINE      CODE     ---       #593
      00FF6FC3H   LINE      CODE     ---       #594
      00FF6FCAH   LINE      CODE     ---       #595
      00FF6FD1H   LINE      CODE     ---       #596
      00FF6FD8H   LINE      CODE     ---       #597
      00FF6FDFH   LINE      CODE     ---       #598
      00FF6FE6H   LINE      CODE     ---       #599
      00FF6FEDH   LINE      CODE     ---       #600
      00FF6FF4H   LINE      CODE     ---       #601
      00FF6FFBH   LINE      CODE     ---       #602
      00FF7002H   LINE      CODE     ---       #603
      00FF7009H   LINE      CODE     ---       #604
      00FF700FH   LINE      CODE     ---       #605
      00FF7016H   LINE      CODE     ---       #606
      00FF701DH   LINE      CODE     ---       #607
      00FF7024H   LINE      CODE     ---       #609
      00FF7029H   LINE      CODE     ---       #610
      00FF7030H   LINE      CODE     ---       #611
      00FF7037H   LINE      CODE     ---       #612
      00FF703EH   LINE      CODE     ---       #613
      00FF7045H   LINE      CODE     ---       #614
      00FF704CH   LINE      CODE     ---       #615
      00FF7053H   LINE      CODE     ---       #616
      00FF705AH   LINE      CODE     ---       #617
      00FF7061H   LINE      CODE     ---       #618
      00FF7068H   LINE      CODE     ---       #619
      00FF706FH   LINE      CODE     ---       #620
      00FF7076H   LINE      CODE     ---       #621
      00FF707DH   LINE      CODE     ---       #622
      00FF7083H   LINE      CODE     ---       #623
      00FF708AH   LINE      CODE     ---       #624
      00FF7091H   LINE      CODE     ---       #625
      00FF7098H   LINE      CODE     ---       #627
      00FF709DH   LINE      CODE     ---       #628
      00FF70A3H   LINE      CODE     ---       #629
      00FF70AAH   LINE      CODE     ---       #630
      00FF70B0H   LINE      CODE     ---       #631
      00FF70B7H   LINE      CODE     ---       #633
      00FF70BCH   LINE      CODE     ---       #634
      00FF70C2H   LINE      CODE     ---       #635
      00FF70C9H   LINE      CODE     ---       #636
      00FF70CFH   LINE      CODE     ---       #637
      00FF70D6H   LINE      CODE     ---       #639
      00FF70DBH   LINE      CODE     ---       #640
      00FF70E2H   LINE      CODE     ---       #641
      00FF70E7H   LINE      CODE     ---       #642
      00FF70EDH   LINE      CODE     ---       #644
      00FF70F2H   LINE      CODE     ---       #645
      00FF70F9H   LINE      CODE     ---       #646
      00FF70FEH   LINE      CODE     ---       #648
      00FF7107H   LINE      CODE     ---       #649
      ---         BLOCKEND  ---      ---       LVL=0

      ---         MODULE    ---      ---       zf_device_ips114
      000112F1H   PUBLIC    XDATA    WORD      ips114_pencolor
L251 LINKER/LOCATER V4.66.93.0                                                        10/24/2025  21:07:56  PAGE 94


      000112F3H   PUBLIC    XDATA    WORD      ips114_bgcolor
      000112F5H   PUBLIC    XDATA    INT       ips114_display_dir
      000112F7H   PUBLIC    XDATA    BYTE      ips114_x_max
      000112F8H   PUBLIC    XDATA    BYTE      ips114_y_max
      000000D0H   SFRSYM    DATA     BYTE      PSW
      0000009DH   SFRSYM    DATA     BYTE      IRCBAND
      00000097H   SFRSYM    DATA     BYTE      AUXR2
      000000EFH   SFRSYM    DATA     BYTE      AUXINTIF
      000000FDH   SFRSYM    DATA     BYTE      S4CON
      000000ACH   SFRSYM    DATA     BYTE      S3CON
      0000009AH   SFRSYM    DATA     BYTE      S2CON
      000000B7H   SFRSYM    DATA     BYTE      IPH
      000000CDH   SFRSYM    DATA     BYTE      SPSTAT
      000000DDH   SFRSYM    DATA     BYTE      T4T3M
      000000C1H   SFRSYM    DATA     BYTE      WDT_CONTR
      000000DFH   SFRSYM    DATA     BYTE      IP3
      000000F4H   SFRSYM    DATA     BYTE      USBCON
      000000B5H   SFRSYM    DATA     BYTE      IP2
      000000FFH   SFRSYM    DATA     BYTE      RSTCFG
      000000C7H   SFRSYM    DATA     BYTE      IAP_CONTR
      0000008EH   SFRSYM    DATA     BYTE      AUXR
      000000AFH   SFRSYM    DATA     BYTE      IE2
      00000088H   SFRSYM    DATA     BYTE      TCON
      00000089H   SFRSYM    DATA     BYTE      TMOD
      00000098H   SFRSYM    DATA     BYTE      SCON
      000000A0H.2 SFRSYM    DATA     BIT       P22
      000000A0H.1 SFRSYM    DATA     BIT       P21
      000000A0H.0 SFRSYM    DATA     BIT       P20
      00000087H   SFRSYM    DATA     BYTE      PCON
      000000BCH   SFRSYM    DATA     BYTE      ADC_CONTR
      000000D1H   SFRSYM    DATA     BYTE      PSW1
      000000E7H   SFRSYM    DATA     BYTE      CMPCR2
      000000E6H   SFRSYM    DATA     BYTE      CMPCR1
      000000DEH   SFRSYM    DATA     BYTE      ADCCFG
      000000B8H   SFRSYM    DATA     BYTE      IP
      0000008FH   SFRSYM    DATA     BYTE      INTCLKO
      000000EEH   SFRSYM    DATA     BYTE      IP3H
      000000B6H   SFRSYM    DATA     BYTE      IP2H
      000000BFH   SFRSYM    DATA     BYTE      P_SW4
      000000A8H   SFRSYM    DATA     BYTE      IE
      000000BBH   SFRSYM    DATA     BYTE      P_SW3
      000000BAH   SFRSYM    DATA     BYTE      P_SW2
      000000A2H   SFRSYM    DATA     BYTE      P_SW1
      000000CEH   SFRSYM    DATA     BYTE      SPCTL
      000000F8H   SFRSYM    DATA     BYTE      P7
      000000E8H   SFRSYM    DATA     BYTE      P6
      000000C8H   SFRSYM    DATA     BYTE      P5
      000000C0H   SFRSYM    DATA     BYTE      P4
      000000ABH   SFRSYM    DATA     BYTE      WKTCH
      000000B0H   SFRSYM    DATA     BYTE      P3
      000000A0H   SFRSYM    DATA     BYTE      P2
      00000090H   SFRSYM    DATA     BYTE      P1
      00000080H   SFRSYM    DATA     BYTE      P0
      R5          REGSYM    ---      BYTE      dat
      WR12        REGSYM    ---      WORD      x2
      WR14        REGSYM    ---      WORD      y2
      WR14        REGSYM    ---      WORD      color
      WR12        REGSYM    ---      WORD      i
      WR6         REGSYM    ---      INT       dir
      WR6         REGSYM    ---      WORD      pen
      WR4         REGSYM    ---      WORD      bgcolor
      WR12        REGSYM    ---      WORD      x
      WR14        REGSYM    ---      WORD      y
      WR12        REGSYM    ---      WORD      x
      WR14        REGSYM    ---      WORD      y
L251 LINKER/LOCATER V4.66.93.0                                                        10/24/2025  21:07:56  PAGE 95


      REG=3       REGSYM    ---      ---       dat
      WR12        REGSYM    ---      WORD      x
      WR14        REGSYM    ---      WORD      y
      WR12        REGSYM    ---      WORD      x
      WR14        REGSYM    ---      WORD      y
      WR12        REGSYM    ---      WORD      x
      WR14        REGSYM    ---      WORD      y
      WR12        REGSYM    ---      WORD      x
      WR14        REGSYM    ---      WORD      y
      WR12        REGSYM    ---      WORD      y
      R15         REGSYM    ---      BYTE      num
      R14         REGSYM    ---      BYTE      length
      WR12        REGSYM    ---      WORD      y
      R14         REGSYM    ---      BYTE      num
      R15         REGSYM    ---      BYTE      pointnum
      R10         REGSYM    ---      CHAR      point
      REG=3       REGSYM    ---      ---       p
      REG=3       REGSYM    ---      ---       p

      ---         MODULE    ---      ---       zf_device_ips200
      000112CFH   PUBLIC    XDATA    WORD      ips200_pencolor
      000112D1H   PUBLIC    XDATA    WORD      ips200_bgcolor
      000112D3H   PUBLIC    XDATA    INT       ips200_display_dir
      000112D5H   PUBLIC    XDATA    WORD      ips200_x_max
      000112D7H   PUBLIC    XDATA    WORD      ips200_y_max
      000000D0H   SFRSYM    DATA     BYTE      PSW
      0000009DH   SFRSYM    DATA     BYTE      IRCBAND
      00000097H   SFRSYM    DATA     BYTE      AUXR2
      000000EFH   SFRSYM    DATA     BYTE      AUXINTIF
      000000FDH   SFRSYM    DATA     BYTE      S4CON
      000000ACH   SFRSYM    DATA     BYTE      S3CON
      0000009AH   SFRSYM    DATA     BYTE      S2CON
      000000B7H   SFRSYM    DATA     BYTE      IPH
      000000CDH   SFRSYM    DATA     BYTE      SPSTAT
      000000DDH   SFRSYM    DATA     BYTE      T4T3M
      000000C1H   SFRSYM    DATA     BYTE      WDT_CONTR
      000000DFH   SFRSYM    DATA     BYTE      IP3
      000000F4H   SFRSYM    DATA     BYTE      USBCON
      000000B5H   SFRSYM    DATA     BYTE      IP2
      000000FFH   SFRSYM    DATA     BYTE      RSTCFG
      000000C7H   SFRSYM    DATA     BYTE      IAP_CONTR
      0000008EH   SFRSYM    DATA     BYTE      AUXR
      000000AFH   SFRSYM    DATA     BYTE      IE2
      00000088H   SFRSYM    DATA     BYTE      TCON
      00000089H   SFRSYM    DATA     BYTE      TMOD
      00000098H   SFRSYM    DATA     BYTE      SCON
      000000A0H.2 SFRSYM    DATA     BIT       P22
      000000A0H.1 SFRSYM    DATA     BIT       P21
      000000A0H.0 SFRSYM    DATA     BIT       P20
      00000087H   SFRSYM    DATA     BYTE      PCON
      000000BCH   SFRSYM    DATA     BYTE      ADC_CONTR
      000000D1H   SFRSYM    DATA     BYTE      PSW1
      000000E7H   SFRSYM    DATA     BYTE      CMPCR2
      000000E6H   SFRSYM    DATA     BYTE      CMPCR1
      000000DEH   SFRSYM    DATA     BYTE      ADCCFG
      000000B8H   SFRSYM    DATA     BYTE      IP
      0000008FH   SFRSYM    DATA     BYTE      INTCLKO
      000000EEH   SFRSYM    DATA     BYTE      IP3H
      000000B6H   SFRSYM    DATA     BYTE      IP2H
      000000BFH   SFRSYM    DATA     BYTE      P_SW4
      000000A8H   SFRSYM    DATA     BYTE      IE
      000000BBH   SFRSYM    DATA     BYTE      P_SW3
      000000BAH   SFRSYM    DATA     BYTE      P_SW2
      000000A2H   SFRSYM    DATA     BYTE      P_SW1
      000000CEH   SFRSYM    DATA     BYTE      SPCTL
L251 LINKER/LOCATER V4.66.93.0                                                        10/24/2025  21:07:56  PAGE 96


      000000F8H   SFRSYM    DATA     BYTE      P7
      000000E8H   SFRSYM    DATA     BYTE      P6
      000000C8H   SFRSYM    DATA     BYTE      P5
      000000C0H   SFRSYM    DATA     BYTE      P4
      000000ABH   SFRSYM    DATA     BYTE      WKTCH
      000000B0H   SFRSYM    DATA     BYTE      P3
      000000A0H   SFRSYM    DATA     BYTE      P2
      00000090H   SFRSYM    DATA     BYTE      P1
      00000080H   SFRSYM    DATA     BYTE      P0
      R5          REGSYM    ---      BYTE      dat
      WR12        REGSYM    ---      WORD      x2
      WR14        REGSYM    ---      WORD      y2
      WR14        REGSYM    ---      WORD      color
      WR12        REGSYM    ---      WORD      i
      WR6         REGSYM    ---      INT       dir
      WR6         REGSYM    ---      WORD      pen
      WR4         REGSYM    ---      WORD      bgcolor
      WR12        REGSYM    ---      WORD      x
      WR14        REGSYM    ---      WORD      y
      WR12        REGSYM    ---      WORD      x
      WR14        REGSYM    ---      WORD      y
      REG=3       REGSYM    ---      ---       dat
      WR12        REGSYM    ---      WORD      x
      WR14        REGSYM    ---      WORD      y
      WR12        REGSYM    ---      WORD      x
      WR14        REGSYM    ---      WORD      y
      WR12        REGSYM    ---      WORD      x
      WR14        REGSYM    ---      WORD      y
      WR12        REGSYM    ---      WORD      x
      WR14        REGSYM    ---      WORD      y
      WR12        REGSYM    ---      WORD      y
      R15         REGSYM    ---      BYTE      num
      R14         REGSYM    ---      BYTE      length
      WR12        REGSYM    ---      WORD      y
      R14         REGSYM    ---      BYTE      num
      R15         REGSYM    ---      BYTE      pointnum
      R10         REGSYM    ---      CHAR      point
      REG=3       REGSYM    ---      ---       p
      REG=3       REGSYM    ---      ---       p

      ---         MODULE    ---      ---       zf_device_dl1a
      0001128FH   PUBLIC    XDATA    WORD      dl1a_distance_mm
      00011291H   PUBLIC    XDATA    BYTE      dl1a_finsh_flag
      000000D0H   SFRSYM    DATA     BYTE      PSW
      0000009DH   SFRSYM    DATA     BYTE      IRCBAND
      00000097H   SFRSYM    DATA     BYTE      AUXR2
      000000EFH   SFRSYM    DATA     BYTE      AUXINTIF
      000000FDH   SFRSYM    DATA     BYTE      S4CON
      000000ACH   SFRSYM    DATA     BYTE      S3CON
      0000009AH   SFRSYM    DATA     BYTE      S2CON
      000000B7H   SFRSYM    DATA     BYTE      IPH
      000000CDH   SFRSYM    DATA     BYTE      SPSTAT
      000000DDH   SFRSYM    DATA     BYTE      T4T3M
      000000C1H   SFRSYM    DATA     BYTE      WDT_CONTR
      000000DFH   SFRSYM    DATA     BYTE      IP3
      000000F4H   SFRSYM    DATA     BYTE      USBCON
      000000B5H   SFRSYM    DATA     BYTE      IP2
      000000FFH   SFRSYM    DATA     BYTE      RSTCFG
      000000C7H   SFRSYM    DATA     BYTE      IAP_CONTR
      0000008EH   SFRSYM    DATA     BYTE      AUXR
      000000AFH   SFRSYM    DATA     BYTE      IE2
      00000088H   SFRSYM    DATA     BYTE      TCON
      00000089H   SFRSYM    DATA     BYTE      TMOD
      00000098H   SFRSYM    DATA     BYTE      SCON
      00000087H   SFRSYM    DATA     BYTE      PCON
L251 LINKER/LOCATER V4.66.93.0                                                        10/24/2025  21:07:56  PAGE 97


      000000BCH   SFRSYM    DATA     BYTE      ADC_CONTR
      000000D1H   SFRSYM    DATA     BYTE      PSW1
      000000E7H   SFRSYM    DATA     BYTE      CMPCR2
      000000E6H   SFRSYM    DATA     BYTE      CMPCR1
      000000DEH   SFRSYM    DATA     BYTE      ADCCFG
      000000B8H   SFRSYM    DATA     BYTE      IP
      0000008FH   SFRSYM    DATA     BYTE      INTCLKO
      000000EEH   SFRSYM    DATA     BYTE      IP3H
      000000B6H   SFRSYM    DATA     BYTE      IP2H
      000000BFH   SFRSYM    DATA     BYTE      P_SW4
      000000A8H   SFRSYM    DATA     BYTE      IE
      000000BBH   SFRSYM    DATA     BYTE      P_SW3
      000000BAH   SFRSYM    DATA     BYTE      P_SW2
      000000A2H   SFRSYM    DATA     BYTE      P_SW1
      000000CEH   SFRSYM    DATA     BYTE      SPCTL
      000000F8H   SFRSYM    DATA     BYTE      P7
      000000E8H   SFRSYM    DATA     BYTE      P6
      000000C8H   SFRSYM    DATA     BYTE      P5
      000000C0H   SFRSYM    DATA     BYTE      P4
      000000ABH   SFRSYM    DATA     BYTE      WKTCH
      000000B0H   SFRSYM    DATA     BYTE      P3
      000000A0H   SFRSYM    DATA     BYTE      P2
      00000090H   SFRSYM    DATA     BYTE      P1
      00000080H   SFRSYM    DATA     BYTE      P0
      00FFD5C4H   SYMBOL    HCONST   ---       ?tpl?0001
      00FFD5CCH   SYMBOL    HCONST   ---       ?tpl?0002
      00FFD5D2H   SYMBOL    HCONST   ---       ?tpl?0003
      00FFD5DCH   SYMBOL    HCONST   ---       ?tpl?0004
      00011286H   SYMBOL    XDATA    ---       dl1a_iic_struct
      00011292H   SYMBOL    XDATA    BYTE      dl1a_init_flag
      REG=3       REGSYM    ---      ---       type_is_aperture
      WR30        REGSYM    ---      WORD      timeout_period_mclks
      R5          REGSYM    ---      BYTE      vcsel_period_pclks
      DR24        REGSYM    ---      DWORD     macro_period_ns
      DR28        REGSYM    ---      DWORD     timeout_period_us
      R3          REGSYM    ---      BYTE      vcsel_period_pclks
      DR8         REGSYM    ---      DWORD     macro_period_ns
      WR4         REGSYM    ---      WORD      reg_val
      WR2         REGSYM    ---      WORD      timeout_mclks
      DR8         REGSYM    ---      DWORD     ls_byte
      WR4         REGSYM    ---      WORD      ms_byte
      WR6         REGSYM    ---      WORD      return_data
      REG=3       REGSYM    ---      ---       enables
      WR14        REGSYM    ---      INT       type
      REG=3       REGSYM    ---      ---       timeouts
      R10         REGSYM    ---      BYTE      vhv_init_byte
      R15         REGSYM    ---      BYTE      return_state
      DR12        REGSYM    ---      DWORD     budget_us
      DR12        REGSYM    ---      DWORD     budget_us
      DR28        REGSYM    ---      FLOAT     limit_mcps
      WR14        REGSYM    ---      WORD      limit_mcps_16bit
      R15         REGSYM    ---      BYTE      return_state
      R14         REGSYM    ---      BYTE      reg_data_buffer
      WR12        REGSYM    ---      WORD      i

      ---         MODULE    ---      ---       zf_device_ble6a20
      000000D0H   SFRSYM    DATA     BYTE      PSW
      0000009DH   SFRSYM    DATA     BYTE      IRCBAND
      00000097H   SFRSYM    DATA     BYTE      AUXR2
      000000EFH   SFRSYM    DATA     BYTE      AUXINTIF
      000000FDH   SFRSYM    DATA     BYTE      S4CON
      000000ACH   SFRSYM    DATA     BYTE      S3CON
      0000009AH   SFRSYM    DATA     BYTE      S2CON
      000000B7H   SFRSYM    DATA     BYTE      IPH
      000000CDH   SFRSYM    DATA     BYTE      SPSTAT
L251 LINKER/LOCATER V4.66.93.0                                                        10/24/2025  21:07:56  PAGE 98


      000000DDH   SFRSYM    DATA     BYTE      T4T3M
      000000C1H   SFRSYM    DATA     BYTE      WDT_CONTR
      000000DFH   SFRSYM    DATA     BYTE      IP3
      000000F4H   SFRSYM    DATA     BYTE      USBCON
      000000B5H   SFRSYM    DATA     BYTE      IP2
      000000FFH   SFRSYM    DATA     BYTE      RSTCFG
      000000C7H   SFRSYM    DATA     BYTE      IAP_CONTR
      0000008EH   SFRSYM    DATA     BYTE      AUXR
      000000AFH   SFRSYM    DATA     BYTE      IE2
      00000088H   SFRSYM    DATA     BYTE      TCON
      00000089H   SFRSYM    DATA     BYTE      TMOD
      00000098H   SFRSYM    DATA     BYTE      SCON
      00000087H   SFRSYM    DATA     BYTE      PCON
      000000BCH   SFRSYM    DATA     BYTE      ADC_CONTR
      000000D1H   SFRSYM    DATA     BYTE      PSW1
      000000E7H   SFRSYM    DATA     BYTE      CMPCR2
      000000E6H   SFRSYM    DATA     BYTE      CMPCR1
      000000DEH   SFRSYM    DATA     BYTE      ADCCFG
      000000B8H   SFRSYM    DATA     BYTE      IP
      0000008FH   SFRSYM    DATA     BYTE      INTCLKO
      000000EEH   SFRSYM    DATA     BYTE      IP3H
      000000B6H   SFRSYM    DATA     BYTE      IP2H
      000000BFH   SFRSYM    DATA     BYTE      P_SW4
      000000A8H   SFRSYM    DATA     BYTE      IE
      000000BBH   SFRSYM    DATA     BYTE      P_SW3
      000000BAH   SFRSYM    DATA     BYTE      P_SW2
      000000A2H   SFRSYM    DATA     BYTE      P_SW1
      000000CEH   SFRSYM    DATA     BYTE      SPCTL
      000000F8H   SFRSYM    DATA     BYTE      P7
      000000E8H   SFRSYM    DATA     BYTE      P6
      000000C8H   SFRSYM    DATA     BYTE      P5
      000000C0H   SFRSYM    DATA     BYTE      P4
      000000ABH   SFRSYM    DATA     BYTE      WKTCH
      000000B0H   SFRSYM    DATA     BYTE      P3
      000000A0H   SFRSYM    DATA     BYTE      P2
      00000090H   SFRSYM    DATA     BYTE      P1
      00000080H   SFRSYM    DATA     BYTE      P0
      000110F8H   SYMBOL    XDATA    ---       ble6a20_buffer
      00011138H   SYMBOL    XDATA    ---       ble6a20_fifo
      R15         REGSYM    ---      BYTE      dat
      WR12        REGSYM    ---      WORD      time_cnt
      DR12        REGSYM    ---      DWORD     len
      REG=3       REGSYM    ---      ---       str
      REG=3       REGSYM    ---      ---       buff
      DR8         REGSYM    ---      DWORD     len
      R15         REGSYM    ---      BYTE      return_state

      ---         MODULE    ---      ---       zf_device_wireless_uart
      000000D0H   SFRSYM    DATA     BYTE      PSW
      0000009DH   SFRSYM    DATA     BYTE      IRCBAND
      00000097H   SFRSYM    DATA     BYTE      AUXR2
      000000EFH   SFRSYM    DATA     BYTE      AUXINTIF
      000000FDH   SFRSYM    DATA     BYTE      S4CON
      000000ACH   SFRSYM    DATA     BYTE      S3CON
      0000009AH   SFRSYM    DATA     BYTE      S2CON
      000000B7H   SFRSYM    DATA     BYTE      IPH
      000000CDH   SFRSYM    DATA     BYTE      SPSTAT
      000000DDH   SFRSYM    DATA     BYTE      T4T3M
      000000C1H   SFRSYM    DATA     BYTE      WDT_CONTR
      000000DFH   SFRSYM    DATA     BYTE      IP3
      000000F4H   SFRSYM    DATA     BYTE      USBCON
      000000B5H   SFRSYM    DATA     BYTE      IP2
      000000FFH   SFRSYM    DATA     BYTE      RSTCFG
      000000C7H   SFRSYM    DATA     BYTE      IAP_CONTR
      0000008EH   SFRSYM    DATA     BYTE      AUXR
L251 LINKER/LOCATER V4.66.93.0                                                        10/24/2025  21:07:56  PAGE 99


      000000AFH   SFRSYM    DATA     BYTE      IE2
      00000088H   SFRSYM    DATA     BYTE      TCON
      00000089H   SFRSYM    DATA     BYTE      TMOD
      00000098H   SFRSYM    DATA     BYTE      SCON
      00000087H   SFRSYM    DATA     BYTE      PCON
      000000BCH   SFRSYM    DATA     BYTE      ADC_CONTR
      000000D1H   SFRSYM    DATA     BYTE      PSW1
      000000E7H   SFRSYM    DATA     BYTE      CMPCR2
      000000E6H   SFRSYM    DATA     BYTE      CMPCR1
      000000DEH   SFRSYM    DATA     BYTE      ADCCFG
      000000B8H   SFRSYM    DATA     BYTE      IP
      0000008FH   SFRSYM    DATA     BYTE      INTCLKO
      000000EEH   SFRSYM    DATA     BYTE      IP3H
      000000B6H   SFRSYM    DATA     BYTE      IP2H
      000000BFH   SFRSYM    DATA     BYTE      P_SW4
      000000A8H   SFRSYM    DATA     BYTE      IE
      000000BBH   SFRSYM    DATA     BYTE      P_SW3
      000000BAH   SFRSYM    DATA     BYTE      P_SW2
      000000A2H   SFRSYM    DATA     BYTE      P_SW1
      000000CEH   SFRSYM    DATA     BYTE      SPCTL
      000000F8H   SFRSYM    DATA     BYTE      P7
      000000E8H   SFRSYM    DATA     BYTE      P6
      000000C8H   SFRSYM    DATA     BYTE      P5
      000000C0H   SFRSYM    DATA     BYTE      P4
      000000ABH   SFRSYM    DATA     BYTE      WKTCH
      000000B0H   SFRSYM    DATA     BYTE      P3
      000000A0H   SFRSYM    DATA     BYTE      P2
      00000090H   SFRSYM    DATA     BYTE      P1
      00000080H   SFRSYM    DATA     BYTE      P0
      0001114FH   SYMBOL    XDATA    ---       wireless_uart_fifo
      00011166H   SYMBOL    XDATA    ---       wireless_uart_buffer
      R15         REGSYM    ---      BYTE      dat
      WR12        REGSYM    ---      WORD      time_cnt
      DR12        REGSYM    ---      DWORD     len
      REG=3       REGSYM    ---      ---       str
      REG=3       REGSYM    ---      ---       buff
      DR8         REGSYM    ---      DWORD     len
      R15         REGSYM    ---      BYTE      return_state

      ---         MODULE    ---      ---       zf_device_icm20602
      0001124DH   PUBLIC    XDATA    INT       icm20602_acc_x
      0001124FH   PUBLIC    XDATA    INT       icm20602_acc_y
      00011251H   PUBLIC    XDATA    INT       icm20602_acc_z
      00011253H   PUBLIC    XDATA    INT       icm20602_gyro_x
      00011255H   PUBLIC    XDATA    INT       icm20602_gyro_y
      00011257H   PUBLIC    XDATA    INT       icm20602_gyro_z
      00011259H   PUBLIC    XDATA    ---       icm20602_transition_factor
      000000D0H   SFRSYM    DATA     BYTE      PSW
      0000009DH   SFRSYM    DATA     BYTE      IRCBAND
      00000097H   SFRSYM    DATA     BYTE      AUXR2
      000000EFH   SFRSYM    DATA     BYTE      AUXINTIF
      000000FDH   SFRSYM    DATA     BYTE      S4CON
      000000ACH   SFRSYM    DATA     BYTE      S3CON
      0000009AH   SFRSYM    DATA     BYTE      S2CON
      000000B7H   SFRSYM    DATA     BYTE      IPH
      000000CDH   SFRSYM    DATA     BYTE      SPSTAT
      000000DDH   SFRSYM    DATA     BYTE      T4T3M
      000000C1H   SFRSYM    DATA     BYTE      WDT_CONTR
      000000DFH   SFRSYM    DATA     BYTE      IP3
      000000F4H   SFRSYM    DATA     BYTE      USBCON
      000000B5H   SFRSYM    DATA     BYTE      IP2
      000000FFH   SFRSYM    DATA     BYTE      RSTCFG
      000000C7H   SFRSYM    DATA     BYTE      IAP_CONTR
      0000008EH   SFRSYM    DATA     BYTE      AUXR
      000000AFH   SFRSYM    DATA     BYTE      IE2
L251 LINKER/LOCATER V4.66.93.0                                                        10/24/2025  21:07:56  PAGE 100


      000000C0H.3 SFRSYM    DATA     BIT       P43
      000000C0H.2 SFRSYM    DATA     BIT       P42
      00000088H   SFRSYM    DATA     BYTE      TCON
      00000089H   SFRSYM    DATA     BYTE      TMOD
      000000C0H.1 SFRSYM    DATA     BIT       P41
      00000098H   SFRSYM    DATA     BYTE      SCON
      000000C0H.0 SFRSYM    DATA     BIT       P40
      00000087H   SFRSYM    DATA     BYTE      PCON
      000000BCH   SFRSYM    DATA     BYTE      ADC_CONTR
      000000D1H   SFRSYM    DATA     BYTE      PSW1
      000000E7H   SFRSYM    DATA     BYTE      CMPCR2
      000000E6H   SFRSYM    DATA     BYTE      CMPCR1
      000000DEH   SFRSYM    DATA     BYTE      ADCCFG
      000000B8H   SFRSYM    DATA     BYTE      IP
      0000008FH   SFRSYM    DATA     BYTE      INTCLKO
      000000EEH   SFRSYM    DATA     BYTE      IP3H
      000000B6H   SFRSYM    DATA     BYTE      IP2H
      000000BFH   SFRSYM    DATA     BYTE      P_SW4
      000000A8H   SFRSYM    DATA     BYTE      IE
      000000BBH   SFRSYM    DATA     BYTE      P_SW3
      000000BAH   SFRSYM    DATA     BYTE      P_SW2
      000000A2H   SFRSYM    DATA     BYTE      P_SW1
      000000CEH   SFRSYM    DATA     BYTE      SPCTL
      000000F8H   SFRSYM    DATA     BYTE      P7
      000000E8H   SFRSYM    DATA     BYTE      P6
      000000C8H   SFRSYM    DATA     BYTE      P5
      000000C0H   SFRSYM    DATA     BYTE      P4
      000000ABH   SFRSYM    DATA     BYTE      WKTCH
      000000B0H   SFRSYM    DATA     BYTE      P3
      000000A0H   SFRSYM    DATA     BYTE      P2
      00000090H   SFRSYM    DATA     BYTE      P1
      00000080H   SFRSYM    DATA     BYTE      P0
      R7          REGSYM    ---      BYTE      byte
      R6          REGSYM    ---      BYTE      i
      R7          REGSYM    ---      BYTE      cmd
      R15         REGSYM    ---      BYTE      val
      R10         REGSYM    ---      BYTE      cmd
      REG=3       REGSYM    ---      ---       val
      R10         REGSYM    ---      BYTE      cmd
      REG=3       REGSYM    ---      ---       val
      R11         REGSYM    ---      BYTE      reg
      R10         REGSYM    ---      BYTE      dat
      R7          REGSYM    ---      BYTE      reg
      R3          REGSYM    ---      BYTE      reg
      REG=1       REGSYM    ---      ---       dat
      DR28        REGSYM    ---      DWORD     len
      R14         REGSYM    ---      BYTE      dat
      R15         REGSYM    ---      BYTE      return_state
      WR12        REGSYM    ---      WORD      timeout_count
      R14         REGSYM    ---      BYTE      val
      R15         REGSYM    ---      BYTE      return_state
      WR12        REGSYM    ---      WORD      timeout_count

      ---         MODULE    ---      ---       zf_device_imu660ra
      00011261H   PUBLIC    XDATA    INT       imu660ra_acc_x
      00011263H   PUBLIC    XDATA    INT       imu660ra_acc_y
      00011265H   PUBLIC    XDATA    INT       imu660ra_acc_z
      00011267H   PUBLIC    XDATA    INT       imu660ra_gyro_x
      00011269H   PUBLIC    XDATA    INT       imu660ra_gyro_y
      0001126BH   PUBLIC    XDATA    INT       imu660ra_gyro_z
      0001126DH   PUBLIC    XDATA    ---       imu660ra_transition_factor
      000000D0H   SFRSYM    DATA     BYTE      PSW
      0000009DH   SFRSYM    DATA     BYTE      IRCBAND
      00000097H   SFRSYM    DATA     BYTE      AUXR2
      000000EFH   SFRSYM    DATA     BYTE      AUXINTIF
L251 LINKER/LOCATER V4.66.93.0                                                        10/24/2025  21:07:56  PAGE 101


      000000FDH   SFRSYM    DATA     BYTE      S4CON
      000000ACH   SFRSYM    DATA     BYTE      S3CON
      0000009AH   SFRSYM    DATA     BYTE      S2CON
      000000B7H   SFRSYM    DATA     BYTE      IPH
      000000CDH   SFRSYM    DATA     BYTE      SPSTAT
      000000DDH   SFRSYM    DATA     BYTE      T4T3M
      000000C1H   SFRSYM    DATA     BYTE      WDT_CONTR
      000000DFH   SFRSYM    DATA     BYTE      IP3
      000000F4H   SFRSYM    DATA     BYTE      USBCON
      000000B5H   SFRSYM    DATA     BYTE      IP2
      000000FFH   SFRSYM    DATA     BYTE      RSTCFG
      000000C7H   SFRSYM    DATA     BYTE      IAP_CONTR
      0000008EH   SFRSYM    DATA     BYTE      AUXR
      000000AFH   SFRSYM    DATA     BYTE      IE2
      000000C0H.3 SFRSYM    DATA     BIT       P43
      000000C0H.2 SFRSYM    DATA     BIT       P42
      00000088H   SFRSYM    DATA     BYTE      TCON
      00000089H   SFRSYM    DATA     BYTE      TMOD
      000000C0H.1 SFRSYM    DATA     BIT       P41
      00000098H   SFRSYM    DATA     BYTE      SCON
      000000C0H.0 SFRSYM    DATA     BIT       P40
      00000087H   SFRSYM    DATA     BYTE      PCON
      000000BCH   SFRSYM    DATA     BYTE      ADC_CONTR
      000000D1H   SFRSYM    DATA     BYTE      PSW1
      000000E7H   SFRSYM    DATA     BYTE      CMPCR2
      000000E6H   SFRSYM    DATA     BYTE      CMPCR1
      000000DEH   SFRSYM    DATA     BYTE      ADCCFG
      000000B8H   SFRSYM    DATA     BYTE      IP
      0000008FH   SFRSYM    DATA     BYTE      INTCLKO
      000000EEH   SFRSYM    DATA     BYTE      IP3H
      000000B6H   SFRSYM    DATA     BYTE      IP2H
      000000BFH   SFRSYM    DATA     BYTE      P_SW4
      000000A8H   SFRSYM    DATA     BYTE      IE
      000000BBH   SFRSYM    DATA     BYTE      P_SW3
      000000BAH   SFRSYM    DATA     BYTE      P_SW2
      000000A2H   SFRSYM    DATA     BYTE      P_SW1
      000000CEH   SFRSYM    DATA     BYTE      SPCTL
      000000F8H   SFRSYM    DATA     BYTE      P7
      000000E8H   SFRSYM    DATA     BYTE      P6
      000000C8H   SFRSYM    DATA     BYTE      P5
      000000C0H   SFRSYM    DATA     BYTE      P4
      000000ABH   SFRSYM    DATA     BYTE      WKTCH
      000000B0H   SFRSYM    DATA     BYTE      P3
      000000A0H   SFRSYM    DATA     BYTE      P2
      00000090H   SFRSYM    DATA     BYTE      P1
      00000080H   SFRSYM    DATA     BYTE      P0
      R7          REGSYM    ---      BYTE      byte
      R6          REGSYM    ---      BYTE      i
      R7          REGSYM    ---      BYTE      cmd
      R15         REGSYM    ---      BYTE      val
      R7          REGSYM    ---      BYTE      cmd
      DR12        REGSYM    ---      DWORD     len
      R10         REGSYM    ---      BYTE      cmd
      REG=3       REGSYM    ---      ---       val
      R11         REGSYM    ---      BYTE      reg
      R10         REGSYM    ---      BYTE      dat
      R3          REGSYM    ---      BYTE      reg
      REG=1       REGSYM    ---      ---       dat
      DR28        REGSYM    ---      DWORD     len
      R7          REGSYM    ---      BYTE      reg
      R5          REGSYM    ---      BYTE      reg
      REG=3       REGSYM    ---      ---       dat
      R14         REGSYM    ---      BYTE      dat
      R15         REGSYM    ---      BYTE      return_state
      WR12        REGSYM    ---      WORD      timeout_count
L251 LINKER/LOCATER V4.66.93.0                                                        10/24/2025  21:07:56  PAGE 102


      R15         REGSYM    ---      BYTE      return_state

      ---         MODULE    ---      ---       zf_device_imu660rb
      000112B8H   PUBLIC    XDATA    INT       imu660rb_acc_x
      000112BAH   PUBLIC    XDATA    INT       imu660rb_acc_y
      000112BCH   PUBLIC    XDATA    INT       imu660rb_acc_z
      000112BEH   PUBLIC    XDATA    INT       imu660rb_gyro_x
      000112C0H   PUBLIC    XDATA    INT       imu660rb_gyro_y
      000112C2H   PUBLIC    XDATA    INT       imu660rb_gyro_z
      000000D0H   SFRSYM    DATA     BYTE      PSW
      0000009DH   SFRSYM    DATA     BYTE      IRCBAND
      00000097H   SFRSYM    DATA     BYTE      AUXR2
      000000EFH   SFRSYM    DATA     BYTE      AUXINTIF
      000000FDH   SFRSYM    DATA     BYTE      S4CON
      000000ACH   SFRSYM    DATA     BYTE      S3CON
      0000009AH   SFRSYM    DATA     BYTE      S2CON
      000000B7H   SFRSYM    DATA     BYTE      IPH
      000000CDH   SFRSYM    DATA     BYTE      SPSTAT
      000000DDH   SFRSYM    DATA     BYTE      T4T3M
      000000C1H   SFRSYM    DATA     BYTE      WDT_CONTR
      000000DFH   SFRSYM    DATA     BYTE      IP3
      000000F4H   SFRSYM    DATA     BYTE      USBCON
      000000B5H   SFRSYM    DATA     BYTE      IP2
      000000FFH   SFRSYM    DATA     BYTE      RSTCFG
      000000C7H   SFRSYM    DATA     BYTE      IAP_CONTR
      0000008EH   SFRSYM    DATA     BYTE      AUXR
      000000AFH   SFRSYM    DATA     BYTE      IE2
      000000C0H.3 SFRSYM    DATA     BIT       P43
      000000C0H.2 SFRSYM    DATA     BIT       P42
      00000088H   SFRSYM    DATA     BYTE      TCON
      00000089H   SFRSYM    DATA     BYTE      TMOD
      000000C0H.1 SFRSYM    DATA     BIT       P41
      00000098H   SFRSYM    DATA     BYTE      SCON
      000000C0H.0 SFRSYM    DATA     BIT       P40
      00000087H   SFRSYM    DATA     BYTE      PCON
      000000BCH   SFRSYM    DATA     BYTE      ADC_CONTR
      000000D1H   SFRSYM    DATA     BYTE      PSW1
      000000E7H   SFRSYM    DATA     BYTE      CMPCR2
      000000E6H   SFRSYM    DATA     BYTE      CMPCR1
      000000DEH   SFRSYM    DATA     BYTE      ADCCFG
      000000B8H   SFRSYM    DATA     BYTE      IP
      0000008FH   SFRSYM    DATA     BYTE      INTCLKO
      000000EEH   SFRSYM    DATA     BYTE      IP3H
      000000B6H   SFRSYM    DATA     BYTE      IP2H
      000000BFH   SFRSYM    DATA     BYTE      P_SW4
      000000A8H   SFRSYM    DATA     BYTE      IE
      000000BBH   SFRSYM    DATA     BYTE      P_SW3
      000000BAH   SFRSYM    DATA     BYTE      P_SW2
      000000A2H   SFRSYM    DATA     BYTE      P_SW1
      000000CEH   SFRSYM    DATA     BYTE      SPCTL
      000000F8H   SFRSYM    DATA     BYTE      P7
      000000E8H   SFRSYM    DATA     BYTE      P6
      000000C8H   SFRSYM    DATA     BYTE      P5
      000000C0H   SFRSYM    DATA     BYTE      P4
      000000ABH   SFRSYM    DATA     BYTE      WKTCH
      000000B0H   SFRSYM    DATA     BYTE      P3
      000000A0H   SFRSYM    DATA     BYTE      P2
      00000090H   SFRSYM    DATA     BYTE      P1
      00000080H   SFRSYM    DATA     BYTE      P0
      R7          REGSYM    ---      BYTE      byte
      R6          REGSYM    ---      BYTE      i
      R7          REGSYM    ---      BYTE      cmd
      R15         REGSYM    ---      BYTE      val
      R10         REGSYM    ---      BYTE      cmd
      REG=3       REGSYM    ---      ---       val
L251 LINKER/LOCATER V4.66.93.0                                                        10/24/2025  21:07:56  PAGE 103


      R10         REGSYM    ---      BYTE      cmd
      REG=3       REGSYM    ---      ---       val
      R11         REGSYM    ---      BYTE      reg
      R10         REGSYM    ---      BYTE      dat
      R7          REGSYM    ---      BYTE      reg
      R3          REGSYM    ---      BYTE      reg
      REG=1       REGSYM    ---      ---       dat
      DR28        REGSYM    ---      DWORD     len
      R14         REGSYM    ---      BYTE      dat
      R15         REGSYM    ---      BYTE      return_state
      WR12        REGSYM    ---      WORD      timeout_count
      WR30        REGSYM    ---      INT       acc_value
      DR24        REGSYM    ---      FLOAT     acc_data
      WR30        REGSYM    ---      INT       gyro_value
      DR24        REGSYM    ---      FLOAT     gyro_data
      R15         REGSYM    ---      BYTE      return_state

      ---         MODULE    ---      ---       zf_device_imu963ra
      00FFB32AH   PUBLIC    CODE     ---       imu963ra_get_gyro
      00FF7108H   PUBLIC    CODE     ---       imu963ra_init
      0001122FH   PUBLIC    XDATA    INT       imu963ra_acc_x
      00011231H   PUBLIC    XDATA    INT       imu963ra_acc_y
      00011233H   PUBLIC    XDATA    INT       imu963ra_acc_z
      00011235H   PUBLIC    XDATA    INT       imu963ra_mag_x
      00011237H   PUBLIC    XDATA    INT       imu963ra_mag_y
      00011239H   PUBLIC    XDATA    INT       imu963ra_mag_z
      0001123BH   PUBLIC    XDATA    INT       imu963ra_gyro_x
      0001123DH   PUBLIC    XDATA    INT       imu963ra_gyro_y
      0001123FH   PUBLIC    XDATA    INT       imu963ra_gyro_z
      00011241H   PUBLIC    XDATA    ---       imu963ra_transition_factor
      000000D0H   SFRSYM    DATA     BYTE      PSW
      0000009DH   SFRSYM    DATA     BYTE      IRCBAND
      00000097H   SFRSYM    DATA     BYTE      AUXR2
      000000EFH   SFRSYM    DATA     BYTE      AUXINTIF
      000000FDH   SFRSYM    DATA     BYTE      S4CON
      000000ACH   SFRSYM    DATA     BYTE      S3CON
      0000009AH   SFRSYM    DATA     BYTE      S2CON
      000000B7H   SFRSYM    DATA     BYTE      IPH
      000000CDH   SFRSYM    DATA     BYTE      SPSTAT
      000000DDH   SFRSYM    DATA     BYTE      T4T3M
      000000C1H   SFRSYM    DATA     BYTE      WDT_CONTR
      000000DFH   SFRSYM    DATA     BYTE      IP3
      000000F4H   SFRSYM    DATA     BYTE      USBCON
      000000B5H   SFRSYM    DATA     BYTE      IP2
      000000FFH   SFRSYM    DATA     BYTE      RSTCFG
      000000C7H   SFRSYM    DATA     BYTE      IAP_CONTR
      0000008EH   SFRSYM    DATA     BYTE      AUXR
      000000AFH   SFRSYM    DATA     BYTE      IE2
      000000C0H.3 SFRSYM    DATA     BIT       P43
      000000C0H.2 SFRSYM    DATA     BIT       P42
      00000088H   SFRSYM    DATA     BYTE      TCON
      00000089H   SFRSYM    DATA     BYTE      TMOD
      000000C0H.1 SFRSYM    DATA     BIT       P41
      00000098H   SFRSYM    DATA     BYTE      SCON
      000000C0H.0 SFRSYM    DATA     BIT       P40
      00000087H   SFRSYM    DATA     BYTE      PCON
      000000BCH   SFRSYM    DATA     BYTE      ADC_CONTR
      000000D1H   SFRSYM    DATA     BYTE      PSW1
      000000E7H   SFRSYM    DATA     BYTE      CMPCR2
      000000E6H   SFRSYM    DATA     BYTE      CMPCR1
      000000DEH   SFRSYM    DATA     BYTE      ADCCFG
      000000B8H   SFRSYM    DATA     BYTE      IP
      0000008FH   SFRSYM    DATA     BYTE      INTCLKO
      000000EEH   SFRSYM    DATA     BYTE      IP3H
      000000B6H   SFRSYM    DATA     BYTE      IP2H
L251 LINKER/LOCATER V4.66.93.0                                                        10/24/2025  21:07:56  PAGE 104


      000000BFH   SFRSYM    DATA     BYTE      P_SW4
      000000A8H   SFRSYM    DATA     BYTE      IE
      000000BBH   SFRSYM    DATA     BYTE      P_SW3
      000000BAH   SFRSYM    DATA     BYTE      P_SW2
      000000A2H   SFRSYM    DATA     BYTE      P_SW1
      000000CEH   SFRSYM    DATA     BYTE      SPCTL
      000000F8H   SFRSYM    DATA     BYTE      P7
      000000E8H   SFRSYM    DATA     BYTE      P6
      000000C8H   SFRSYM    DATA     BYTE      P5
      000000C0H   SFRSYM    DATA     BYTE      P4
      000000ABH   SFRSYM    DATA     BYTE      WKTCH
      000000B0H   SFRSYM    DATA     BYTE      P3
      000000A0H   SFRSYM    DATA     BYTE      P2
      00000090H   SFRSYM    DATA     BYTE      P1
      00000080H   SFRSYM    DATA     BYTE      P0
      00FFBB83H   SYMBOL    CODE     ---       imu963ra_simspi_wr_byte
      00FFB37EH   SYMBOL    CODE     ---       imu963ra_read_mag_register
      00FFBAE0H   SYMBOL    CODE     ---       imu963ra_connect_mag
      00FFBC45H   SYMBOL    CODE     ---       imu963ra_read_acc_gyro_registers
      00FFB042H   SYMBOL    CODE     ---       imu963ra_write_mag_register
      00FFBBC5H   SYMBOL    CODE     ---       imu963ra_read_acc_gyro_register
      00FFB6E9H   SYMBOL    CODE     ---       imu963ra_simspi_r_reg_bytes
      00FF0046H   SYMBOL    CODE     ---       imu963ra_simspi_r_reg_byte
      00FFB9C0H   SYMBOL    CODE     ---       imu963ra_mag_self_check
      00FF019EH   SYMBOL    CODE     ---       imu963ra_write_acc_gyro_register
      00FFBC18H   SYMBOL    CODE     ---       imu963ra_simspi_w_reg_byte
      00FFB620H   SYMBOL    CODE     ---       imu963ra_acc_gyro_self_check

      00FFBB83H   BLOCK     CODE     ---       LVL=0
      R7          REGSYM    ---      BYTE      byte
      00FFBB85H   BLOCK     CODE     NEAR LAB  LVL=1
      R6          REGSYM    ---      BYTE      i
      ---         BLOCKEND  ---      ---       LVL=1
      00FFBB83H   LINE      CODE     ---       #137
      00FFBB85H   LINE      CODE     ---       #138
      00FFBB85H   LINE      CODE     ---       #140
      00FFBB89H   LINE      CODE     ---       #142
      00FFBB8BH   LINE      CODE     ---       #143
      00FFBB90H   LINE      CODE     ---       #144
      00FFBB92H   LINE      CODE     ---       #145
      00FFBB94H   LINE      CODE     ---       #146
      00FFBB9AH   LINE      CODE     ---       #147
      00FFBBA1H   LINE      CODE     ---       #148
      00FFBBA3H   LINE      CODE     ---       #149
      00FFBBA5H   LINE      CODE     ---       #150
      ---         BLOCKEND  ---      ---       LVL=0

      00FFBC18H   BLOCK     CODE     ---       LVL=0
      R7          REGSYM    ---      BYTE      cmd
      R15         REGSYM    ---      BYTE      val
      00FFBC18H   LINE      CODE     ---       #160
      00FFBC1EH   LINE      CODE     ---       #162
      00FFBC20H   LINE      CODE     ---       #163
      00FFBC20H   LINE      CODE     ---       #164
      00FFBC25H   LINE      CODE     ---       #165
      00FFBC2AH   LINE      CODE     ---       #166
      00FFBC2CH   LINE      CODE     ---       #167
      ---         BLOCKEND  ---      ---       LVL=0

      00FF0046H   BLOCK     CODE     ---       LVL=0
      R10         REGSYM    ---      BYTE      cmd
      REG=3       REGSYM    ---      ---       val
      00FF0046H   LINE      CODE     ---       #176
      00FF004CH   LINE      CODE     ---       #178
      00FF004EH   LINE      CODE     ---       #179
L251 LINKER/LOCATER V4.66.93.0                                                        10/24/2025  21:07:56  PAGE 105


      00FF0051H   LINE      CODE     ---       #180
      00FF0056H   LINE      CODE     ---       #181
      00FF005DH   LINE      CODE     ---       #182
      00FF005FH   LINE      CODE     ---       #183
      ---         BLOCKEND  ---      ---       LVL=0

      00FFB6E9H   BLOCK     CODE     ---       LVL=0
      R10         REGSYM    ---      BYTE      cmd
      REG=3       REGSYM    ---      ---       val
      00011010H   SYMBOL    XDATA    DWORD     num
      00FFB6E9H   LINE      CODE     ---       #193
      00FFB6F9H   LINE      CODE     ---       #195
      00FFB6FCH   LINE      CODE     ---       #196
      00FFB701H   LINE      CODE     ---       #197
      00FFB703H   LINE      CODE     ---       #199
      00FFB70CH   LINE      CODE     ---       #200
      00FFB725H   LINE      CODE     ---       #201
      ---         BLOCKEND  ---      ---       LVL=0

      00FF019EH   BLOCK     CODE     ---       LVL=0
      R11         REGSYM    ---      BYTE      reg
      R10         REGSYM    ---      BYTE      dat
      00FF019EH   LINE      CODE     ---       #211
      00FF01A0H   LINE      CODE     ---       #213
      00FF01A2H   LINE      CODE     ---       #214
      00FF01A7H   LINE      CODE     ---       #215
      00FF01A9H   LINE      CODE     ---       #216
      ---         BLOCKEND  ---      ---       LVL=0

      00FFBBC5H   BLOCK     CODE     ---       LVL=0
      R10         REGSYM    ---      BYTE      reg
      00FFBBC7H   BLOCK     CODE     NEAR LAB  LVL=1
      0001100CH   SYMBOL    XDATA    BYTE      dat
      ---         BLOCKEND  ---      ---       LVL=1
      00FFBBC5H   LINE      CODE     ---       #225
      00FFBBC7H   LINE      CODE     ---       #226
      00FFBBC7H   LINE      CODE     ---       #227
      00FFBBCCH   LINE      CODE     ---       #228
      00FFBBCEH   LINE      CODE     ---       #229
      00FFBBDDH   LINE      CODE     ---       #230
      00FFBBDFH   LINE      CODE     ---       #231
      00FFBBE3H   LINE      CODE     ---       #232
      ---         BLOCKEND  ---      ---       LVL=0

      00FFBC45H   BLOCK     CODE     ---       LVL=0
      R3          REGSYM    ---      BYTE      reg
      REG=1       REGSYM    ---      ---       dat
      DR28        REGSYM    ---      DWORD     len
      00FFBC45H   LINE      CODE     ---       #243
      00FFBC4BH   LINE      CODE     ---       #245
      00FFBC4DH   LINE      CODE     ---       #246
      00FFBC58H   LINE      CODE     ---       #247
      00FFBC5AH   LINE      CODE     ---       #248
      ---         BLOCKEND  ---      ---       LVL=0

      00FFB042H   BLOCK     CODE     ---       LVL=0
      R15         REGSYM    ---      BYTE      addr
      R13         REGSYM    ---      BYTE      reg
      R14         REGSYM    ---      BYTE      dat
      00FFB04AH   BLOCK     CODE     NEAR LAB  LVL=1
      R12         REGSYM    ---      BYTE      return_state
      0001100AH   SYMBOL    XDATA    WORD      timeout_count
      ---         BLOCKEND  ---      ---       LVL=1
      00FFB042H   LINE      CODE     ---       #293
      00FFB04AH   LINE      CODE     ---       #294
L251 LINKER/LOCATER V4.66.93.0                                                        10/24/2025  21:07:56  PAGE 106


      00FFB04AH   LINE      CODE     ---       #295
      00FFB04CH   LINE      CODE     ---       #296
      00FFB054H   LINE      CODE     ---       #298
      00FFB056H   LINE      CODE     ---       #299
      00FFB05DH   LINE      CODE     ---       #300
      00FFB064H   LINE      CODE     ---       #301
      00FFB06BH   LINE      CODE     ---       #302
      00FFB072H   LINE      CODE     ---       #303
      00FFB07AH   LINE      CODE     ---       #306
      00FFB07CH   LINE      CODE     ---       #308
      00FFB08FH   LINE      CODE     ---       #310
      00FFB092H   LINE      CODE     ---       #311
      00FFB094H   LINE      CODE     ---       #312
      00FFB094H   LINE      CODE     ---       #314
      00FFB09BH   LINE      CODE     ---       #315
      00FFB0A3H   LINE      CODE     ---       #317
      00FFB0A5H   LINE      CODE     ---       #318
      ---         BLOCKEND  ---      ---       LVL=0

      00FFB37EH   BLOCK     CODE     ---       LVL=0
      R10         REGSYM    ---      BYTE      addr
      R15         REGSYM    ---      BYTE      reg
      00FFB386H   BLOCK     CODE     NEAR LAB  LVL=1
      WR12        REGSYM    ---      WORD      timeout_count
      ---         BLOCKEND  ---      ---       LVL=1
      00FFB37EH   LINE      CODE     ---       #328
      00FFB386H   LINE      CODE     ---       #329
      00FFB386H   LINE      CODE     ---       #330
      00FFB388H   LINE      CODE     ---       #332
      00FFB38AH   LINE      CODE     ---       #333
      00FFB394H   LINE      CODE     ---       #334
      00FFB39BH   LINE      CODE     ---       #335
      00FFB3A3H   LINE      CODE     ---       #336
      00FFB3ABH   LINE      CODE     ---       #339
      00FFB3ADH   LINE      CODE     ---       #341
      00FFB3B7H   LINE      CODE     ---       #343
      00FFB3B7H   LINE      CODE     ---       #344
      00FFB3B7H   LINE      CODE     ---       #346
      00FFB3BEH   LINE      CODE     ---       #347
      00FFB3C6H   LINE      CODE     ---       #349
      00FFB3CBH   LINE      CODE     ---       #350
      ---         BLOCKEND  ---      ---       LVL=0

      00FFBAE0H   BLOCK     CODE     ---       LVL=0
      R10         REGSYM    ---      BYTE      addr
      R15         REGSYM    ---      BYTE      reg
      00FFBAE0H   LINE      CODE     ---       #360
      00FFBAE6H   LINE      CODE     ---       #362
      00FFBAE8H   LINE      CODE     ---       #364
      00FFBAF2H   LINE      CODE     ---       #365
      00FFBAF9H   LINE      CODE     ---       #366
      00FFBB01H   LINE      CODE     ---       #367
      00FFBB09H   LINE      CODE     ---       #368
      ---         BLOCKEND  ---      ---       LVL=0

      00FFB620H   BLOCK     CODE     ---       LVL=0
      00FFB622H   BLOCK     CODE     NEAR LAB  LVL=1
      R15         REGSYM    ---      BYTE      return_state
      R14         REGSYM    ---      BYTE      dat
      WR12        REGSYM    ---      WORD      timeout_count
      ---         BLOCKEND  ---      ---       LVL=1
      00FFB620H   LINE      CODE     ---       #378
      00FFB622H   LINE      CODE     ---       #379
      00FFB622H   LINE      CODE     ---       #380
      00FFB624H   LINE      CODE     ---       #381
L251 LINKER/LOCATER V4.66.93.0                                                        10/24/2025  21:07:56  PAGE 107


      00FFB626H   LINE      CODE     ---       #382
      00FFB628H   LINE      CODE     ---       #384
      00FFB62AH   LINE      CODE     ---       #386
      00FFB634H   LINE      CODE     ---       #388
      00FFB637H   LINE      CODE     ---       #389
      00FFB639H   LINE      CODE     ---       #390
      00FFB639H   LINE      CODE     ---       #392
      00FFB640H   LINE      CODE     ---       #393
      00FFB653H   LINE      CODE     ---       #394
      00FFB65AH   LINE      CODE     ---       #395
      00FFB65FH   LINE      CODE     ---       #397
      00FFB661H   LINE      CODE     ---       #398
      ---         BLOCKEND  ---      ---       LVL=0

      00FFB9C0H   BLOCK     CODE     ---       LVL=0
      00FFB9C2H   BLOCK     CODE     NEAR LAB  LVL=1
      R15         REGSYM    ---      BYTE      return_state
      R14         REGSYM    ---      BYTE      dat
      WR12        REGSYM    ---      WORD      timeout_count
      ---         BLOCKEND  ---      ---       LVL=1
      00FFB9C0H   LINE      CODE     ---       #407
      00FFB9C2H   LINE      CODE     ---       #408
      00FFB9C2H   LINE      CODE     ---       #409
      00FFB9C4H   LINE      CODE     ---       #410
      00FFB9C6H   LINE      CODE     ---       #411
      00FFB9C8H   LINE      CODE     ---       #413
      00FFB9CAH   LINE      CODE     ---       #415
      00FFB9D4H   LINE      CODE     ---       #417
      00FFB9D7H   LINE      CODE     ---       #418
      00FFB9D9H   LINE      CODE     ---       #419
      00FFB9D9H   LINE      CODE     ---       #421
      00FFB9E3H   LINE      CODE     ---       #422
      00FFB9EAH   LINE      CODE     ---       #423
      00FFB9EFH   LINE      CODE     ---       #425
      00FFB9F1H   LINE      CODE     ---       #426
      ---         BLOCKEND  ---      ---       LVL=0

      00FFB32AH   BLOCK     CODE     ---       LVL=0
      0001100AH   SYMBOL    XDATA    ---       dat
      00FFB32AH   LINE      CODE     ---       #453
      00FFB32AH   LINE      CODE     ---       #454
      00FFB32AH   LINE      CODE     ---       #457
      00FFB33BH   LINE      CODE     ---       #458
      00FFB351H   LINE      CODE     ---       #459
      00FFB367H   LINE      CODE     ---       #460
      00FFB37DH   LINE      CODE     ---       #461
      ---         BLOCKEND  ---      ---       LVL=0
      R11         REGSYM    ---      BYTE      temp_status

      00FF7108H   BLOCK     CODE     ---       LVL=0
      00FF710AH   BLOCK     CODE     NEAR LAB  LVL=1
      R15         REGSYM    ---      BYTE      return_state
      ---         BLOCKEND  ---      ---       LVL=1
      00FF7108H   LINE      CODE     ---       #497
      00FF710AH   LINE      CODE     ---       #498
      00FF710AH   LINE      CODE     ---       #499
      00FF710CH   LINE      CODE     ---       #500
      00FF7113H   LINE      CODE     ---       #518
      00FF7113H   LINE      CODE     ---       #520
      00FF711AH   LINE      CODE     ---       #521
      00FF7122H   LINE      CODE     ---       #522
      00FF7129H   LINE      CODE     ---       #523
      00FF7130H   LINE      CODE     ---       #525
      00FF7135H   LINE      CODE     ---       #527
      00FF7140H   LINE      CODE     ---       #528
L251 LINKER/LOCATER V4.66.93.0                                                        10/24/2025  21:07:56  PAGE 108


      00FF7143H   LINE      CODE     ---       #529
      00FF7146H   LINE      CODE     ---       #530
      00FF7146H   LINE      CODE     ---       #532
      00FF714EH   LINE      CODE     ---       #539
      00FF7166H   LINE      CODE     ---       #541
      00FF7166H   LINE      CODE     ---       #543
      00FF7171H   LINE      CODE     ---       #544
      00FF7174H   LINE      CODE     ---       #546
      00FF7176H   LINE      CODE     ---       #548
      00FF7176H   LINE      CODE     ---       #550
      00FF717EH   LINE      CODE     ---       #551
      00FF7190H   LINE      CODE     ---       #553
      00FF7192H   LINE      CODE     ---       #555
      00FF7192H   LINE      CODE     ---       #557
      00FF719AH   LINE      CODE     ---       #558
      00FF71ACH   LINE      CODE     ---       #560
      00FF71AEH   LINE      CODE     ---       #562
      00FF71AEH   LINE      CODE     ---       #564
      00FF71B6H   LINE      CODE     ---       #565
      00FF71C8H   LINE      CODE     ---       #567
      00FF71CAH   LINE      CODE     ---       #569
      00FF71CAH   LINE      CODE     ---       #571
      00FF71D2H   LINE      CODE     ---       #572
      00FF71E4H   LINE      CODE     ---       #574
      00FF71E4H   LINE      CODE     ---       #575
      00FF71E4H   LINE      CODE     ---       #577
      00FF71ECH   LINE      CODE     ---       #579
      00FF71ECH   LINE      CODE     ---       #580
      00FF71ECH   LINE      CODE     ---       #589
      00FF7212H   LINE      CODE     ---       #591
      00FF7212H   LINE      CODE     ---       #593
      00FF721DH   LINE      CODE     ---       #594
      00FF7220H   LINE      CODE     ---       #596
      00FF7223H   LINE      CODE     ---       #598
      00FF7223H   LINE      CODE     ---       #600
      00FF722BH   LINE      CODE     ---       #601
      00FF723DH   LINE      CODE     ---       #603
      00FF7240H   LINE      CODE     ---       #605
      00FF7240H   LINE      CODE     ---       #607
      00FF7248H   LINE      CODE     ---       #608
      00FF725AH   LINE      CODE     ---       #610
      00FF725CH   LINE      CODE     ---       #612
      00FF725CH   LINE      CODE     ---       #614
      00FF7264H   LINE      CODE     ---       #615
      00FF7276H   LINE      CODE     ---       #617
      00FF7278H   LINE      CODE     ---       #619
      00FF7278H   LINE      CODE     ---       #621
      00FF7280H   LINE      CODE     ---       #622
      00FF7292H   LINE      CODE     ---       #624
      00FF7294H   LINE      CODE     ---       #626
      00FF7294H   LINE      CODE     ---       #628
      00FF729CH   LINE      CODE     ---       #629
      00FF72AEH   LINE      CODE     ---       #631
      00FF72B0H   LINE      CODE     ---       #633
      00FF72B0H   LINE      CODE     ---       #635
      00FF72B8H   LINE      CODE     ---       #636
      00FF72CAH   LINE      CODE     ---       #638
      00FF72CAH   LINE      CODE     ---       #639
      00FF72CAH   LINE      CODE     ---       #641
      00FF72D2H   LINE      CODE     ---       #643
      00FF72D2H   LINE      CODE     ---       #644
      00FF72D2H   LINE      CODE     ---       #646
      00FF72DAH   LINE      CODE     ---       #647
      00FF72E2H   LINE      CODE     ---       #648
      00FF72E9H   LINE      CODE     ---       #649
L251 LINKER/LOCATER V4.66.93.0                                                        10/24/2025  21:07:56  PAGE 109


      00FF72F0H   LINE      CODE     ---       #650
      00FF72F7H   LINE      CODE     ---       #651
      00FF72FFH   LINE      CODE     ---       #653
      00FF7307H   LINE      CODE     ---       #654
      00FF730FH   LINE      CODE     ---       #655
      00FF7316H   LINE      CODE     ---       #656
      00FF731DH   LINE      CODE     ---       #657
      00FF7324H   LINE      CODE     ---       #659
      00FF732FH   LINE      CODE     ---       #660
      00FF7336H   LINE      CODE     ---       #661
      00FF7340H   LINE      CODE     ---       #662
      00FF7347H   LINE      CODE     ---       #664
      00FF734CH   LINE      CODE     ---       #666
      00FF7357H   LINE      CODE     ---       #667
      00FF735AH   LINE      CODE     ---       #668
      00FF735DH   LINE      CODE     ---       #669
      00FF735DH   LINE      CODE     ---       #674
      00FF736DH   LINE      CODE     ---       #676
      00FF736DH   LINE      CODE     ---       #678
      00FF7378H   LINE      CODE     ---       #679
      00FF737BH   LINE      CODE     ---       #681
      00FF737DH   LINE      CODE     ---       #683
      00FF737DH   LINE      CODE     ---       #685
      00FF7388H   LINE      CODE     ---       #686
      00FF739AH   LINE      CODE     ---       #688
      00FF739CH   LINE      CODE     ---       #690
      00FF739CH   LINE      CODE     ---       #692
      00FF73A7H   LINE      CODE     ---       #693
      00FF73B9H   LINE      CODE     ---       #695
      00FF73B9H   LINE      CODE     ---       #696
      00FF73B9H   LINE      CODE     ---       #698
      00FF73BEH   LINE      CODE     ---       #700
      00FF73BEH   LINE      CODE     ---       #701
      00FF73BEH   LINE      CODE     ---       #703
      00FF73C9H   LINE      CODE     ---       #704
      00FF73D0H   LINE      CODE     ---       #706
      00FF73D7H   LINE      CODE     ---       #708
      00FF73DEH   LINE      CODE     ---       #709
      00FF73DEH   LINE      CODE     ---       #712
      00FF73E0H   LINE      CODE     ---       #713
      ---         BLOCKEND  ---      ---       LVL=0

      ---         MODULE    ---      ---       zf_device_gps_tau1201
      00010C7BH   PUBLIC    XDATA    BYTE      gps_tau1201_flag
      00010CFCH   PUBLIC    XDATA    ---       gps_tau1201
      00010E30H   PUBLIC    XDATA    INT       gps_gga_state
      00010E32H   PUBLIC    XDATA    INT       gps_rmc_state
      000000D0H   SFRSYM    DATA     BYTE      PSW
      0000009DH   SFRSYM    DATA     BYTE      IRCBAND
      00000097H   SFRSYM    DATA     BYTE      AUXR2
      000000EFH   SFRSYM    DATA     BYTE      AUXINTIF
      000000FDH   SFRSYM    DATA     BYTE      S4CON
      000000ACH   SFRSYM    DATA     BYTE      S3CON
      0000009AH   SFRSYM    DATA     BYTE      S2CON
      000000B7H   SFRSYM    DATA     BYTE      IPH
      000000CDH   SFRSYM    DATA     BYTE      SPSTAT
      000000DDH   SFRSYM    DATA     BYTE      T4T3M
      000000C1H   SFRSYM    DATA     BYTE      WDT_CONTR
      000000DFH   SFRSYM    DATA     BYTE      IP3
      000000F4H   SFRSYM    DATA     BYTE      USBCON
      000000B5H   SFRSYM    DATA     BYTE      IP2
      000000FFH   SFRSYM    DATA     BYTE      RSTCFG
      000000C7H   SFRSYM    DATA     BYTE      IAP_CONTR
      0000008EH   SFRSYM    DATA     BYTE      AUXR
      000000AFH   SFRSYM    DATA     BYTE      IE2
L251 LINKER/LOCATER V4.66.93.0                                                        10/24/2025  21:07:56  PAGE 110


      00000088H   SFRSYM    DATA     BYTE      TCON
      00000089H   SFRSYM    DATA     BYTE      TMOD
      00000098H   SFRSYM    DATA     BYTE      SCON
      00000087H   SFRSYM    DATA     BYTE      PCON
      000000BCH   SFRSYM    DATA     BYTE      ADC_CONTR
      000000D1H   SFRSYM    DATA     BYTE      PSW1
      000000E7H   SFRSYM    DATA     BYTE      CMPCR2
      000000E6H   SFRSYM    DATA     BYTE      CMPCR1
      000000DEH   SFRSYM    DATA     BYTE      ADCCFG
      000000B8H   SFRSYM    DATA     BYTE      IP
      0000008FH   SFRSYM    DATA     BYTE      INTCLKO
      000000EEH   SFRSYM    DATA     BYTE      IP3H
      000000B6H   SFRSYM    DATA     BYTE      IP2H
      000000BFH   SFRSYM    DATA     BYTE      P_SW4
      000000A8H   SFRSYM    DATA     BYTE      IE
      000000BBH   SFRSYM    DATA     BYTE      P_SW3
      000000BAH   SFRSYM    DATA     BYTE      P_SW2
      000000A2H   SFRSYM    DATA     BYTE      P_SW1
      000000CEH   SFRSYM    DATA     BYTE      SPCTL
      000000F8H   SFRSYM    DATA     BYTE      P7
      000000E8H   SFRSYM    DATA     BYTE      P6
      000000C8H   SFRSYM    DATA     BYTE      P5
      000000C0H   SFRSYM    DATA     BYTE      P4
      000000ABH   SFRSYM    DATA     BYTE      WKTCH
      000000B0H   SFRSYM    DATA     BYTE      P3
      000000A0H   SFRSYM    DATA     BYTE      P2
      00000090H   SFRSYM    DATA     BYTE      P1
      00000080H   SFRSYM    DATA     BYTE      P0
      00FFD993H   SYMBOL    HCONST   ---       ?tpl?0001
      00FFD998H   SYMBOL    HCONST   ---       ?tpl?0002
      00FFD9B4H   SYMBOL    HCONST   ---       ?tpl?0003
      00FFD9BFH   SYMBOL    HCONST   ---       ?tpl?0004
      00FFD9CAH   SYMBOL    HCONST   ---       ?tpl?0005
      00FFD9D5H   SYMBOL    HCONST   ---       ?tpl?0006
      00FFD9E0H   SYMBOL    HCONST   ---       ?tpl?0007
      00FFD9EBH   SYMBOL    HCONST   ---       ?tpl?0008
      00FFD9F6H   SYMBOL    HCONST   ---       ?tpl?0009
      00FFDA01H   SYMBOL    HCONST   ---       ?tpl?000A
      00FFDA0CH   SYMBOL    HCONST   ---       ?tpl?000B
      00FFDA17H   SYMBOL    HCONST   ---       ?tpl?000C
      00FFDA22H   SYMBOL    HCONST   ---       ?tpl?000D
      00010C64H   SYMBOL    XDATA    ---       gps_tau1201_receiver_fifo
      00010C7CH   SYMBOL    XDATA    ---       gps_gga_buffer
      00010D2FH   SYMBOL    XDATA    BYTE      gps_tau1201_state
      00010D30H   SYMBOL    XDATA    ---       gps_rmc_buffer
      00010DB0H   SYMBOL    XDATA    ---       gps_tau1201_receiver_buffer
      REG=3       REGSYM    ---      ---       str
      REG=7       REGSYM    ---      ---       temp
      R7          REGSYM    ---      BYTE      len
      R10         REGSYM    ---      BYTE      len1
      REG=3       REGSYM    ---      ---       s
      REG=3       REGSYM    ---      ---       s
      REG=3       REGSYM    ---      ---       s
      REG=7       REGSYM    ---      ---       time
      R6          REGSYM    ---      BYTE      day_num
      REG=7       REGSYM    ---      ---       line
      REG=3       REGSYM    ---      ---       gps
      REG=0       REGSYM    ---      ---       line
      R15         REGSYM    ---      BYTE      state
      DR12        REGSYM    ---      DWORD     data_len

      ---         MODULE    ---      ---       zf_device_tsl1401
      00010A62H   PUBLIC    XDATA    BYTE      tsl1401_finish_flag
      00010A63H   PUBLIC    XDATA    ---       tsl1401_data
      000000D0H   SFRSYM    DATA     BYTE      PSW
L251 LINKER/LOCATER V4.66.93.0                                                        10/24/2025  21:07:56  PAGE 111


      0000009DH   SFRSYM    DATA     BYTE      IRCBAND
      00000097H   SFRSYM    DATA     BYTE      AUXR2
      000000EFH   SFRSYM    DATA     BYTE      AUXINTIF
      000000FDH   SFRSYM    DATA     BYTE      S4CON
      000000ACH   SFRSYM    DATA     BYTE      S3CON
      0000009AH   SFRSYM    DATA     BYTE      S2CON
      000000B7H   SFRSYM    DATA     BYTE      IPH
      000000CDH   SFRSYM    DATA     BYTE      SPSTAT
      000000DDH   SFRSYM    DATA     BYTE      T4T3M
      000000C1H   SFRSYM    DATA     BYTE      WDT_CONTR
      000000DFH   SFRSYM    DATA     BYTE      IP3
      000000F4H   SFRSYM    DATA     BYTE      USBCON
      000000B5H   SFRSYM    DATA     BYTE      IP2
      000000FFH   SFRSYM    DATA     BYTE      RSTCFG
      000000C7H   SFRSYM    DATA     BYTE      IAP_CONTR
      0000008EH   SFRSYM    DATA     BYTE      AUXR
      000000AFH   SFRSYM    DATA     BYTE      IE2
      00000088H   SFRSYM    DATA     BYTE      TCON
      00000089H   SFRSYM    DATA     BYTE      TMOD
      00000098H   SFRSYM    DATA     BYTE      SCON
      00000087H   SFRSYM    DATA     BYTE      PCON
      000000BCH   SFRSYM    DATA     BYTE      ADC_CONTR
      000000D1H   SFRSYM    DATA     BYTE      PSW1
      000000E7H   SFRSYM    DATA     BYTE      CMPCR2
      000000E6H   SFRSYM    DATA     BYTE      CMPCR1
      000000DEH   SFRSYM    DATA     BYTE      ADCCFG
      000000B8H   SFRSYM    DATA     BYTE      IP
      0000008FH   SFRSYM    DATA     BYTE      INTCLKO
      000000EEH   SFRSYM    DATA     BYTE      IP3H
      000000B6H   SFRSYM    DATA     BYTE      IP2H
      000000BFH   SFRSYM    DATA     BYTE      P_SW4
      000000A8H   SFRSYM    DATA     BYTE      IE
      000000BBH   SFRSYM    DATA     BYTE      P_SW3
      000000BAH   SFRSYM    DATA     BYTE      P_SW2
      000000A2H   SFRSYM    DATA     BYTE      P_SW1
      000000CEH   SFRSYM    DATA     BYTE      SPCTL
      000000F8H   SFRSYM    DATA     BYTE      P7
      000000E8H   SFRSYM    DATA     BYTE      P6
      000000C8H   SFRSYM    DATA     BYTE      P5
      000000C0H   SFRSYM    DATA     BYTE      P4
      000000ABH   SFRSYM    DATA     BYTE      WKTCH
      000000B0H   SFRSYM    DATA     BYTE      P3
      000000A0H   SFRSYM    DATA     BYTE      P2
      00000090H   SFRSYM    DATA     BYTE      P1
      00000080H   SFRSYM    DATA     BYTE      P0
      00010C63H   SYMBOL    XDATA    BYTE      tsl1401_init_state
      R15         REGSYM    ---      BYTE      i
      WR14        REGSYM    ---      INT       uart_n
      R13         REGSYM    ---      BYTE      index
      R12         REGSYM    ---      BYTE      i

      ---         MODULE    ---      ---       seekfree_assistant
      00010E3CH   PUBLIC    XDATA    ---       seekfree_assistant_oscilloscope_data
      00010E77H   PUBLIC    XDATA    ---       seekfree_assistant_parameter_update_flag
      00010E7FH   PUBLIC    XDATA    ---       seekfree_assistant_parameter
      000000D0H   SFRSYM    DATA     BYTE      PSW
      0000009DH   SFRSYM    DATA     BYTE      IRCBAND
      00000097H   SFRSYM    DATA     BYTE      AUXR2
      000000EFH   SFRSYM    DATA     BYTE      AUXINTIF
      000000FDH   SFRSYM    DATA     BYTE      S4CON
      000000ACH   SFRSYM    DATA     BYTE      S3CON
      0000009AH   SFRSYM    DATA     BYTE      S2CON
      000000B7H   SFRSYM    DATA     BYTE      IPH
      000000CDH   SFRSYM    DATA     BYTE      SPSTAT
      000000DDH   SFRSYM    DATA     BYTE      T4T3M
L251 LINKER/LOCATER V4.66.93.0                                                        10/24/2025  21:07:56  PAGE 112


      000000C1H   SFRSYM    DATA     BYTE      WDT_CONTR
      000000DFH   SFRSYM    DATA     BYTE      IP3
      000000F4H   SFRSYM    DATA     BYTE      USBCON
      000000B5H   SFRSYM    DATA     BYTE      IP2
      000000FFH   SFRSYM    DATA     BYTE      RSTCFG
      000000C7H   SFRSYM    DATA     BYTE      IAP_CONTR
      0000008EH   SFRSYM    DATA     BYTE      AUXR
      000000AFH   SFRSYM    DATA     BYTE      IE2
      00000088H   SFRSYM    DATA     BYTE      TCON
      00000089H   SFRSYM    DATA     BYTE      TMOD
      00000098H   SFRSYM    DATA     BYTE      SCON
      00000087H   SFRSYM    DATA     BYTE      PCON
      000000BCH   SFRSYM    DATA     BYTE      ADC_CONTR
      000000D1H   SFRSYM    DATA     BYTE      PSW1
      000000E7H   SFRSYM    DATA     BYTE      CMPCR2
      000000E6H   SFRSYM    DATA     BYTE      CMPCR1
      000000DEH   SFRSYM    DATA     BYTE      ADCCFG
      000000B8H   SFRSYM    DATA     BYTE      IP
      0000008FH   SFRSYM    DATA     BYTE      INTCLKO
      000000EEH   SFRSYM    DATA     BYTE      IP3H
      000000B6H   SFRSYM    DATA     BYTE      IP2H
      000000BFH   SFRSYM    DATA     BYTE      P_SW4
      000000A8H   SFRSYM    DATA     BYTE      IE
      000000BBH   SFRSYM    DATA     BYTE      P_SW3
      000000BAH   SFRSYM    DATA     BYTE      P_SW2
      000000A2H   SFRSYM    DATA     BYTE      P_SW1
      000000CEH   SFRSYM    DATA     BYTE      SPCTL
      000000F8H   SFRSYM    DATA     BYTE      P7
      000000A8H.7 SFRSYM    DATA     BIT       EA
      000000E8H   SFRSYM    DATA     BYTE      P6
      000000C8H   SFRSYM    DATA     BYTE      P5
      000000C0H   SFRSYM    DATA     BYTE      P4
      000000ABH   SFRSYM    DATA     BYTE      WKTCH
      000000B0H   SFRSYM    DATA     BYTE      P3
      000000A0H   SFRSYM    DATA     BYTE      P2
      00000090H   SFRSYM    DATA     BYTE      P1
      00000080H   SFRSYM    DATA     BYTE      P0
      00010E34H   SYMBOL    XDATA    ---       seekfree_assistant_camera_dot_data
      00010E60H   SYMBOL    XDATA    ---       seekfree_assistant_fifo
      00010E9FH   SYMBOL    XDATA    ---       seekfree_assistant_camera_buffer
      00010EE9H   SYMBOL    XDATA    ---       seekfree_assistant_camera_data
      00010EF1H   SYMBOL    XDATA    ---       seekfree_assistant_buffer
      00FFD8E7H   SYMBOL    HCONST   ---       ?tpl?0001
      00FFD90BH   SYMBOL    HCONST   ---       ?tpl?0002
      REG=6       REGSYM    ---      ---       buffer
      DR28        REGSYM    ---      DWORD     length
      R11         REGSYM    ---      BYTE      temp_sum
      WR12        REGSYM    ---      INT       camera_type
      R9          REGSYM    ---      BYTE      boundary_num
      WR14        REGSYM    ---      WORD      width
      WR6         REGSYM    ---      INT       camera_type
      REG=0       REGSYM    ---      ---       image_addr
      WR8         REGSYM    ---      WORD      width
      REG=7       REGSYM    ---      ---       seekfree_assistant_oscilloscope
      R15         REGSYM    ---      BYTE      packet_size
      R14         REGSYM    ---      BYTE      i
      REG=3       REGSYM    ---      ---       buffer
      WR8         REGSYM    ---      INT       boundary_type
      WR2         REGSYM    ---      WORD      dot_num
      REG=7       REGSYM    ---      ---       dot_x1
      R6          REGSYM    ---      BYTE      i
      R7          REGSYM    ---      BYTE      boundary_num
      R5          REGSYM    ---      BYTE      boundary_data_type
      R15         REGSYM    ---      BYTE      temp_sum
      WR12        REGSYM    ---      WORD      struct_len
L251 LINKER/LOCATER V4.66.93.0                                                        10/24/2025  21:07:56  PAGE 113



      ---         MODULE    ---      ---       seekfree_assistant_interface
      0001130EH   PUBLIC    XDATA    ---       seekfree_assistant_receive_callback
      00011310H   PUBLIC    XDATA    ---       seekfree_assistant_transfer_callback
      000000D0H   SFRSYM    DATA     BYTE      PSW
      0000009DH   SFRSYM    DATA     BYTE      IRCBAND
      00000097H   SFRSYM    DATA     BYTE      AUXR2
      000000EFH   SFRSYM    DATA     BYTE      AUXINTIF
      000000FDH   SFRSYM    DATA     BYTE      S4CON
      000000ACH   SFRSYM    DATA     BYTE      S3CON
      0000009AH   SFRSYM    DATA     BYTE      S2CON
      000000B7H   SFRSYM    DATA     BYTE      IPH
      000000CDH   SFRSYM    DATA     BYTE      SPSTAT
      000000DDH   SFRSYM    DATA     BYTE      T4T3M
      000000C1H   SFRSYM    DATA     BYTE      WDT_CONTR
      000000DFH   SFRSYM    DATA     BYTE      IP3
      000000F4H   SFRSYM    DATA     BYTE      USBCON
      000000B5H   SFRSYM    DATA     BYTE      IP2
      000000FFH   SFRSYM    DATA     BYTE      RSTCFG
      000000C7H   SFRSYM    DATA     BYTE      IAP_CONTR
      0000008EH   SFRSYM    DATA     BYTE      AUXR
      000000AFH   SFRSYM    DATA     BYTE      IE2
      00000088H   SFRSYM    DATA     BYTE      TCON
      00000089H   SFRSYM    DATA     BYTE      TMOD
      00000098H   SFRSYM    DATA     BYTE      SCON
      00000087H   SFRSYM    DATA     BYTE      PCON
      000000BCH   SFRSYM    DATA     BYTE      ADC_CONTR
      000000D1H   SFRSYM    DATA     BYTE      PSW1
      000000E7H   SFRSYM    DATA     BYTE      CMPCR2
      000000E6H   SFRSYM    DATA     BYTE      CMPCR1
      000000DEH   SFRSYM    DATA     BYTE      ADCCFG
      000000B8H   SFRSYM    DATA     BYTE      IP
      0000008FH   SFRSYM    DATA     BYTE      INTCLKO
      000000EEH   SFRSYM    DATA     BYTE      IP3H
      000000B6H   SFRSYM    DATA     BYTE      IP2H
      000000BFH   SFRSYM    DATA     BYTE      P_SW4
      000000A8H   SFRSYM    DATA     BYTE      IE
      000000BBH   SFRSYM    DATA     BYTE      P_SW3
      000000BAH   SFRSYM    DATA     BYTE      P_SW2
      000000A2H   SFRSYM    DATA     BYTE      P_SW1
      000000CEH   SFRSYM    DATA     BYTE      SPCTL
      000000F8H   SFRSYM    DATA     BYTE      P7
      000000E8H   SFRSYM    DATA     BYTE      P6
      000000C8H   SFRSYM    DATA     BYTE      P5
      000000C0H   SFRSYM    DATA     BYTE      P4
      000000ABH   SFRSYM    DATA     BYTE      WKTCH
      000000B0H   SFRSYM    DATA     BYTE      P3
      000000A0H   SFRSYM    DATA     BYTE      P2
      00000090H   SFRSYM    DATA     BYTE      P1
      00000080H   SFRSYM    DATA     BYTE      P0
      WR6         REGSYM    ---      INT       transfer_device

      ---         MODULE    ---      ---       isr
      00FFB4BAH   PUBLIC    CODE     ---       TM11_IRQHandler
      00FFA44AH   PUBLIC    CODE     ---       DMA_UART1_IRQHandler
      00FFA98DH   PUBLIC    CODE     ---       DMA_UART2_IRQHandler
      00FFAA16H   PUBLIC    CODE     ---       DMA_UART3_IRQHandler
      00FFAA9FH   PUBLIC    CODE     ---       DMA_UART4_IRQHandler
      00FFB728H   PUBLIC    CODE     ---       TM0_IRQHandler
      00FFB766H   PUBLIC    CODE     ---       TM1_IRQHandler
      00FFB7A4H   PUBLIC    CODE     ---       TM2_IRQHandler
      00FFB7E2H   PUBLIC    CODE     ---       TM3_IRQHandler
      00FFB820H   PUBLIC    CODE     ---       TM4_IRQHandler
      000000D0H   SFRSYM    DATA     BYTE      PSW
      0000009DH   SFRSYM    DATA     BYTE      IRCBAND
L251 LINKER/LOCATER V4.66.93.0                                                        10/24/2025  21:07:56  PAGE 114


      00000097H   SFRSYM    DATA     BYTE      AUXR2
      000000EFH   SFRSYM    DATA     BYTE      AUXINTIF
      000000FDH   SFRSYM    DATA     BYTE      S4CON
      000000ACH   SFRSYM    DATA     BYTE      S3CON
      0000009AH   SFRSYM    DATA     BYTE      S2CON
      000000B7H   SFRSYM    DATA     BYTE      IPH
      000000CDH   SFRSYM    DATA     BYTE      SPSTAT
      000000DDH   SFRSYM    DATA     BYTE      T4T3M
      000000C1H   SFRSYM    DATA     BYTE      WDT_CONTR
      000000DFH   SFRSYM    DATA     BYTE      IP3
      000000F4H   SFRSYM    DATA     BYTE      USBCON
      000000B5H   SFRSYM    DATA     BYTE      IP2
      000000FFH   SFRSYM    DATA     BYTE      RSTCFG
      000000C7H   SFRSYM    DATA     BYTE      IAP_CONTR
      0000008EH   SFRSYM    DATA     BYTE      AUXR
      000000AFH   SFRSYM    DATA     BYTE      IE2
      00000088H   SFRSYM    DATA     BYTE      TCON
      00000089H   SFRSYM    DATA     BYTE      TMOD
      00000098H   SFRSYM    DATA     BYTE      SCON
      00000087H   SFRSYM    DATA     BYTE      PCON
      000000BCH   SFRSYM    DATA     BYTE      ADC_CONTR
      000000D1H   SFRSYM    DATA     BYTE      PSW1
      000000E7H   SFRSYM    DATA     BYTE      CMPCR2
      000000E6H   SFRSYM    DATA     BYTE      CMPCR1
      000000DEH   SFRSYM    DATA     BYTE      ADCCFG
      000000B8H   SFRSYM    DATA     BYTE      IP
      0000008FH   SFRSYM    DATA     BYTE      INTCLKO
      000000EEH   SFRSYM    DATA     BYTE      IP3H
      000000B6H   SFRSYM    DATA     BYTE      IP2H
      000000BFH   SFRSYM    DATA     BYTE      P_SW4
      000000A8H   SFRSYM    DATA     BYTE      IE
      000000BBH   SFRSYM    DATA     BYTE      P_SW3
      000000BAH   SFRSYM    DATA     BYTE      P_SW2
      000000A2H   SFRSYM    DATA     BYTE      P_SW1
      000000CEH   SFRSYM    DATA     BYTE      SPCTL
      000000F8H   SFRSYM    DATA     BYTE      P7
      000000E8H   SFRSYM    DATA     BYTE      P6
      000000C8H   SFRSYM    DATA     BYTE      P5
      000000C0H   SFRSYM    DATA     BYTE      P4
      000000ABH   SFRSYM    DATA     BYTE      WKTCH
      000000B0H   SFRSYM    DATA     BYTE      P3
      000000A0H   SFRSYM    DATA     BYTE      P2
      00000090H   SFRSYM    DATA     BYTE      P1
      00000080H   SFRSYM    DATA     BYTE      P0

      00FFA44AH   BLOCK     CODE     ---       LVL=0
      00FFA45EH   BLOCK     CODE     NEAR LAB  LVL=1
      0001131AH   SYMBOL    XDATA    BYTE      dwon_count
      ---         BLOCKEND  ---      ---       LVL=1
      00FFA44AH   LINE      CODE     ---       #40
      00FFA45EH   LINE      CODE     ---       #41
      00FFA45EH   LINE      CODE     ---       #43
      00FFA46CH   LINE      CODE     ---       #45
      00FFA47CH   LINE      CODE     ---       #46
      00FFA481H   LINE      CODE     ---       #49
      00FFA488H   LINE      CODE     ---       #51
      00FFA497H   LINE      CODE     ---       #53
      00FFA49AH   LINE      CODE     ---       #54
      00FFA49CH   LINE      CODE     ---       #58
      00FFA4A1H   LINE      CODE     ---       #59
      00FFA4A1H   LINE      CODE     ---       #61
      00FFA4ABH   LINE      CODE     ---       #63
      00FFA4B7H   LINE      CODE     ---       #64
      00FFA4B7H   LINE      CODE     ---       #67
      00FFA4C5H   LINE      CODE     ---       #69
L251 LINKER/LOCATER V4.66.93.0                                                        10/24/2025  21:07:56  PAGE 115


      00FFA4D5H   LINE      CODE     ---       #70
      00FFA4DAH   LINE      CODE     ---       #74
      ---         BLOCKEND  ---      ---       LVL=0

      00FFA98DH   BLOCK     CODE     ---       LVL=0
      00FFA98DH   LINE      CODE     ---       #79
      00FFA9A1H   LINE      CODE     ---       #82
      00FFA9AFH   LINE      CODE     ---       #84
      00FFA9BFH   LINE      CODE     ---       #85
      00FFA9C6H   LINE      CODE     ---       #87
      00FFA9D0H   LINE      CODE     ---       #89
      00FFA9DCH   LINE      CODE     ---       #90
      00FFA9DCH   LINE      CODE     ---       #93
      00FFA9EAH   LINE      CODE     ---       #95
      00FFA9FAH   LINE      CODE     ---       #96
      00FFAA01H   LINE      CODE     ---       #101
      ---         BLOCKEND  ---      ---       LVL=0

      00FFAA16H   BLOCK     CODE     ---       LVL=0
      00FFAA16H   LINE      CODE     ---       #104
      00FFAA2AH   LINE      CODE     ---       #107
      00FFAA38H   LINE      CODE     ---       #109
      00FFAA48H   LINE      CODE     ---       #110
      00FFAA4FH   LINE      CODE     ---       #112
      00FFAA59H   LINE      CODE     ---       #115
      00FFAA65H   LINE      CODE     ---       #117
      00FFAA65H   LINE      CODE     ---       #120
      00FFAA73H   LINE      CODE     ---       #122
      00FFAA83H   LINE      CODE     ---       #123
      00FFAA8AH   LINE      CODE     ---       #128
      ---         BLOCKEND  ---      ---       LVL=0

      00FFAA9FH   BLOCK     CODE     ---       LVL=0
      00FFAA9FH   LINE      CODE     ---       #131
      00FFAAB3H   LINE      CODE     ---       #134
      00FFAAC1H   LINE      CODE     ---       #136
      00FFAAD1H   LINE      CODE     ---       #137
      00FFAAD8H   LINE      CODE     ---       #139
      00FFAAE2H   LINE      CODE     ---       #141
      00FFAAEEH   LINE      CODE     ---       #143
      00FFAAEEH   LINE      CODE     ---       #146
      00FFAAFCH   LINE      CODE     ---       #148
      00FFAB0CH   LINE      CODE     ---       #149
      00FFAB13H   LINE      CODE     ---       #154
      ---         BLOCKEND  ---      ---       LVL=0

      00FFB728H   BLOCK     CODE     ---       LVL=0
      00FFB728H   LINE      CODE     ---       #158
      00FFB73CH   LINE      CODE     ---       #160
      00FFB73FH   LINE      CODE     ---       #162
      00FFB749H   LINE      CODE     ---       #164
      00FFB751H   LINE      CODE     ---       #165
      ---         BLOCKEND  ---      ---       LVL=0

      00FFB766H   BLOCK     CODE     ---       LVL=0
      00FFB766H   LINE      CODE     ---       #167
      00FFB77AH   LINE      CODE     ---       #169
      00FFB77DH   LINE      CODE     ---       #171
      00FFB787H   LINE      CODE     ---       #173
      00FFB78FH   LINE      CODE     ---       #174
      ---         BLOCKEND  ---      ---       LVL=0

      00FFB7A4H   BLOCK     CODE     ---       LVL=0
      00FFB7A4H   LINE      CODE     ---       #176
      00FFB7B8H   LINE      CODE     ---       #178
L251 LINKER/LOCATER V4.66.93.0                                                        10/24/2025  21:07:56  PAGE 116


      00FFB7BBH   LINE      CODE     ---       #180
      00FFB7C5H   LINE      CODE     ---       #182
      00FFB7CDH   LINE      CODE     ---       #183
      ---         BLOCKEND  ---      ---       LVL=0

      00FFB7E2H   BLOCK     CODE     ---       LVL=0
      00FFB7E2H   LINE      CODE     ---       #185
      00FFB7F6H   LINE      CODE     ---       #187
      00FFB7F9H   LINE      CODE     ---       #189
      00FFB803H   LINE      CODE     ---       #191
      00FFB80BH   LINE      CODE     ---       #192
      ---         BLOCKEND  ---      ---       LVL=0

      00FFB820H   BLOCK     CODE     ---       LVL=0
      00FFB820H   LINE      CODE     ---       #195
      00FFB834H   LINE      CODE     ---       #197
      00FFB837H   LINE      CODE     ---       #199
      00FFB841H   LINE      CODE     ---       #201
      00FFB849H   LINE      CODE     ---       #202
      ---         BLOCKEND  ---      ---       LVL=0

      00FFB4BAH   BLOCK     CODE     ---       LVL=0
      00FFB4BAH   LINE      CODE     ---       #205
      00FFB4CEH   LINE      CODE     ---       #207
      00FFB4DEH   LINE      CODE     ---       #209
      00FFB4E8H   LINE      CODE     ---       #211
      00FFB4F0H   LINE      CODE     ---       #212
      ---         BLOCKEND  ---      ---       LVL=0

      ---         MODULE    ---      ---       main
      00FF0066H   PUBLIC    CODE     ---       main
      00FFA0FDH   PUBLIC    CODE     ---       pit_handler1
      00FFA04DH   PUBLIC    CODE     ---       _m
      000112F9H   PUBLIC    XDATA    INT       T4
      000112FBH   PUBLIC    XDATA    INT       T
      000112FDH   PUBLIC    XDATA    INT       delta_Speed
      000112FFH   PUBLIC    XDATA    BYTE      speed_update_flag
      000000D0H   SFRSYM    DATA     BYTE      PSW
      0000009DH   SFRSYM    DATA     BYTE      IRCBAND
      00000097H   SFRSYM    DATA     BYTE      AUXR2
      000000EFH   SFRSYM    DATA     BYTE      AUXINTIF
      000000FDH   SFRSYM    DATA     BYTE      S4CON
      000000ACH   SFRSYM    DATA     BYTE      S3CON
      0000009AH   SFRSYM    DATA     BYTE      S2CON
      000000B7H   SFRSYM    DATA     BYTE      IPH
      000000CDH   SFRSYM    DATA     BYTE      SPSTAT
      000000DDH   SFRSYM    DATA     BYTE      T4T3M
      000000C1H   SFRSYM    DATA     BYTE      WDT_CONTR
      000000DFH   SFRSYM    DATA     BYTE      IP3
      000000F4H   SFRSYM    DATA     BYTE      USBCON
      000000B5H   SFRSYM    DATA     BYTE      IP2
      000000FFH   SFRSYM    DATA     BYTE      RSTCFG
      000000C7H   SFRSYM    DATA     BYTE      IAP_CONTR
      0000008EH   SFRSYM    DATA     BYTE      AUXR
      000000AFH   SFRSYM    DATA     BYTE      IE2
      00000088H   SFRSYM    DATA     BYTE      TCON
      00000089H   SFRSYM    DATA     BYTE      TMOD
      00000098H   SFRSYM    DATA     BYTE      SCON
      00000087H   SFRSYM    DATA     BYTE      PCON
      000000BCH   SFRSYM    DATA     BYTE      ADC_CONTR
      000000D1H   SFRSYM    DATA     BYTE      PSW1
      000000E7H   SFRSYM    DATA     BYTE      CMPCR2
      000000E6H   SFRSYM    DATA     BYTE      CMPCR1
      000000DEH   SFRSYM    DATA     BYTE      ADCCFG
      000000B8H   SFRSYM    DATA     BYTE      IP
L251 LINKER/LOCATER V4.66.93.0                                                        10/24/2025  21:07:56  PAGE 117


      0000008FH   SFRSYM    DATA     BYTE      INTCLKO
      000000EEH   SFRSYM    DATA     BYTE      IP3H
      000000B6H   SFRSYM    DATA     BYTE      IP2H
      000000BFH   SFRSYM    DATA     BYTE      P_SW4
      000000A8H   SFRSYM    DATA     BYTE      IE
      000000BBH   SFRSYM    DATA     BYTE      P_SW3
      000000BAH   SFRSYM    DATA     BYTE      P_SW2
      000000A2H   SFRSYM    DATA     BYTE      P_SW1
      000000CEH   SFRSYM    DATA     BYTE      SPCTL
      000000F8H   SFRSYM    DATA     BYTE      P7
      000000A8H.7 SFRSYM    DATA     BIT       EA
      000000E8H   SFRSYM    DATA     BYTE      P6
      000000C8H   SFRSYM    DATA     BYTE      P5
      000000C0H   SFRSYM    DATA     BYTE      P4
      000000ABH   SFRSYM    DATA     BYTE      WKTCH
      000000B0H   SFRSYM    DATA     BYTE      P3
      000000A0H   SFRSYM    DATA     BYTE      P2
      00000090H   SFRSYM    DATA     BYTE      P1
      00000080H   SFRSYM    DATA     BYTE      P0

      00FF0066H   BLOCK     CODE     ---       LVL=0
      00FF0066H   LINE      CODE     ---       #9
      ---         BLOCKEND  ---      ---       LVL=0

      00FFA04DH   BLOCK     CODE     ---       LVL=0
      00FFA04DH   LINE      CODE     ---       #9
      00FFA04DH   LINE      CODE     ---       #11
      00FFA058H   LINE      CODE     ---       #12
      00FFA05BH   LINE      CODE     ---       #14
      00FFA05EH   LINE      CODE     ---       #15
      00FFA068H   LINE      CODE     ---       #17
      00FFA068H   LINE      CODE     ---       #20
      00FFA094H   LINE      CODE     ---       #22
      00FFA094H   LINE      CODE     ---       #24
      00FFA097H   LINE      CODE     ---       #25
      00FFA09DH   LINE      CODE     ---       #27
      00FFA09FH   LINE      CODE     ---       #28
      00FFA0A6H   LINE      CODE     ---       #29
      00FFA0ABH   LINE      CODE     ---       #30
      00FFA0ADH   LINE      CODE     ---       #31
      00FFA0ADH   LINE      CODE     ---       #32
      00FFA0AFH   LINE      CODE     ---       #34
      00FFA0AFH   LINE      CODE     ---       #36
      00FFA0B2H   LINE      CODE     ---       #37
      00FFA0B8H   LINE      CODE     ---       #43
      00FFA0B8H   LINE      CODE     ---       #44
      00FFA0BAH   LINE      CODE     ---       #46
      00FFA0BAH   LINE      CODE     ---       #48
      00FFA0BDH   LINE      CODE     ---       #49
      00FFA0BFH   LINE      CODE     ---       #51
      00FFA0BFH   LINE      CODE     ---       #53
      00FFA0C2H   LINE      CODE     ---       #54
      00FFA0C4H   LINE      CODE     ---       #56
      00FFA0C4H   LINE      CODE     ---       #58
      00FFA0C7H   LINE      CODE     ---       #59
      00FFA0C9H   LINE      CODE     ---       #61
      00FFA0C9H   LINE      CODE     ---       #63
      00FFA0CCH   LINE      CODE     ---       #64
      00FFA0CFH   LINE      CODE     ---       #65
      00FFA0D1H   LINE      CODE     ---       #67
      00FFA0D1H   LINE      CODE     ---       #69
      00FFA0D4H   LINE      CODE     ---       #70
      00FFA0D7H   LINE      CODE     ---       #71
      00FFA0D9H   LINE      CODE     ---       #73
      00FFA0D9H   LINE      CODE     ---       #75
L251 LINKER/LOCATER V4.66.93.0                                                        10/24/2025  21:07:56  PAGE 118


      00FFA0DCH   LINE      CODE     ---       #76
      00FFA0DEH   LINE      CODE     ---       #78
      00FFA0DEH   LINE      CODE     ---       #80
      00FFA0E1H   LINE      CODE     ---       #81
      00FFA0E4H   LINE      CODE     ---       #82
      00FFA0E4H   LINE      CODE     ---       #84
      00FFA0E4H   LINE      CODE     ---       #85
      00FFA0EDH   LINE      CODE     ---       #87
      00FFA0F2H   LINE      CODE     ---       #88
      00FFA0F7H   LINE      CODE     ---       #89
      00FFA0FAH   LINE      CODE     ---       #90
      ---         BLOCKEND  ---      ---       LVL=0

      00FFA0FDH   BLOCK     CODE     ---       LVL=0
      00FFA0FDH   LINE      CODE     ---       #97
      00FFA0FDH   LINE      CODE     ---       #99
      00FFA108H   LINE      CODE     ---       #101
      00FFA10BH   LINE      CODE     ---       #102
      00FFA117H   LINE      CODE     ---       #103
      00FFA11AH   LINE      CODE     ---       #104
      00FFA120H   LINE      CODE     ---       #106
      00FFA123H   LINE      CODE     ---       #107
      00FFA123H   LINE      CODE     ---       #108
      00FFA126H   LINE      CODE     ---       #110
      00FFA14AH   LINE      CODE     ---       #112
      00FFA169H   LINE      CODE     ---       #113
      00FFA175H   LINE      CODE     ---       #115
      00FFA178H   LINE      CODE     ---       #116
      00FFA17AH   LINE      CODE     ---       #119
      00FFA17DH   LINE      CODE     ---       #120
      00FFA17DH   LINE      CODE     ---       #121
      00FFA17DH   LINE      CODE     ---       #122
      00FFA189H   LINE      CODE     ---       #124
      00FFA191H   LINE      CODE     ---       #125
      00FFA194H   LINE      CODE     ---       #126
      00FFA19AH   LINE      CODE     ---       #128
      00FFA19DH   LINE      CODE     ---       #129
      00FFA19DH   LINE      CODE     ---       #130
      00FFA1A3H   LINE      CODE     ---       #132
      00FFA1A6H   LINE      CODE     ---       #133
      00FFA1A6H   LINE      CODE     ---       #134
      00FFA1A9H   LINE      CODE     ---       #135
      ---         BLOCKEND  ---      ---       LVL=0

      ---         MODULE    ---      ---       ADC_Get
      00FF9525H   PUBLIC    CODE     ---       ADC_SampleAndFilter
      00FFA2FFH   PUBLIC    CODE     ---       adc_filter
      00FFBAB3H   PUBLIC    CODE     ---       ADC_GetInit
      000111A6H   PUBLIC    XDATA    ---       raw_adc_data
      000111CEH   PUBLIC    XDATA    ---       ADC_Num
      000111DCH   PUBLIC    XDATA    ---       filtered_adc
      00000020H.0 PUBLIC    BIT      BIT       Battery_Init
      000000D0H   SFRSYM    DATA     BYTE      PSW
      0000009DH   SFRSYM    DATA     BYTE      IRCBAND
      00000097H   SFRSYM    DATA     BYTE      AUXR2
      000000EFH   SFRSYM    DATA     BYTE      AUXINTIF
      000000FDH   SFRSYM    DATA     BYTE      S4CON
      000000ACH   SFRSYM    DATA     BYTE      S3CON
      0000009AH   SFRSYM    DATA     BYTE      S2CON
      000000B7H   SFRSYM    DATA     BYTE      IPH
      000000CDH   SFRSYM    DATA     BYTE      SPSTAT
      000000DDH   SFRSYM    DATA     BYTE      T4T3M
      000000C1H   SFRSYM    DATA     BYTE      WDT_CONTR
      000000DFH   SFRSYM    DATA     BYTE      IP3
      000000F4H   SFRSYM    DATA     BYTE      USBCON
L251 LINKER/LOCATER V4.66.93.0                                                        10/24/2025  21:07:56  PAGE 119


      000000B5H   SFRSYM    DATA     BYTE      IP2
      000000FFH   SFRSYM    DATA     BYTE      RSTCFG
      000000C7H   SFRSYM    DATA     BYTE      IAP_CONTR
      0000008EH   SFRSYM    DATA     BYTE      AUXR
      000000AFH   SFRSYM    DATA     BYTE      IE2
      00000088H   SFRSYM    DATA     BYTE      TCON
      00000089H   SFRSYM    DATA     BYTE      TMOD
      00000098H   SFRSYM    DATA     BYTE      SCON
      00000087H   SFRSYM    DATA     BYTE      PCON
      000000BCH   SFRSYM    DATA     BYTE      ADC_CONTR
      000000D1H   SFRSYM    DATA     BYTE      PSW1
      000000E7H   SFRSYM    DATA     BYTE      CMPCR2
      000000E6H   SFRSYM    DATA     BYTE      CMPCR1
      000000DEH   SFRSYM    DATA     BYTE      ADCCFG
      000000B8H   SFRSYM    DATA     BYTE      IP
      0000008FH   SFRSYM    DATA     BYTE      INTCLKO
      000000EEH   SFRSYM    DATA     BYTE      IP3H
      000000B6H   SFRSYM    DATA     BYTE      IP2H
      000000BFH   SFRSYM    DATA     BYTE      P_SW4
      000000A8H   SFRSYM    DATA     BYTE      IE
      000000BBH   SFRSYM    DATA     BYTE      P_SW3
      000000BAH   SFRSYM    DATA     BYTE      P_SW2
      000000A2H   SFRSYM    DATA     BYTE      P_SW1
      000000CEH   SFRSYM    DATA     BYTE      SPCTL
      000000F8H   SFRSYM    DATA     BYTE      P7
      000000E8H   SFRSYM    DATA     BYTE      P6
      000000C8H   SFRSYM    DATA     BYTE      P5
      000000C0H   SFRSYM    DATA     BYTE      P4
      000000ABH   SFRSYM    DATA     BYTE      WKTCH
      000000B0H   SFRSYM    DATA     BYTE      P3
      000000A0H   SFRSYM    DATA     BYTE      P2
      00000090H   SFRSYM    DATA     BYTE      P1
      00000080H   SFRSYM    DATA     BYTE      P0

      00FFBAB3H   BLOCK     CODE     ---       LVL=0
      00FFBAB3H   LINE      CODE     ---       #7
      00FFBAB3H   LINE      CODE     ---       #9
      00FFBABEH   LINE      CODE     ---       #10
      00FFBAC9H   LINE      CODE     ---       #11
      00FFBAD4H   LINE      CODE     ---       #12
      00FFBADFH   LINE      CODE     ---       #17
      ---         BLOCKEND  ---      ---       LVL=0

      00FFA2FFH   BLOCK     CODE     ---       LVL=0
      REG=7       REGSYM    ---      ---       samples
      R15         REGSYM    ---      BYTE      count
      00FFA305H   BLOCK     CODE     NEAR LAB  LVL=1
      R14         REGSYM    ---      BYTE      i
      DR20        REGSYM    ---      DWORD     sum
      WR24        REGSYM    ---      WORD      max
      WR26        REGSYM    ---      WORD      min
      ---         BLOCKEND  ---      ---       LVL=1
      00FFA2FFH   LINE      CODE     ---       #20
      00FFA305H   LINE      CODE     ---       #21
      00FFA305H   LINE      CODE     ---       #23
      00FFA307H   LINE      CODE     ---       #24
      00FFA30AH   LINE      CODE     ---       #25
      00FFA30DH   LINE      CODE     ---       #27
      00FFA312H   LINE      CODE     ---       #29
      00FFA316H   LINE      CODE     ---       #31
      00FFA325H   LINE      CODE     ---       #32
      00FFA32BH   LINE      CODE     ---       #33
      00FFA336H   LINE      CODE     ---       #34
      00FFA336H   LINE      CODE     ---       #35
      00FFA33AH   LINE      CODE     ---       #37
L251 LINKER/LOCATER V4.66.93.0                                                        10/24/2025  21:07:56  PAGE 120


      00FFA358H   LINE      CODE     ---       #38
      00FFA376H   LINE      CODE     ---       #39
      00FFA385H   LINE      CODE     ---       #40
      00FFA38BH   LINE      CODE     ---       #41
      00FFA3A2H   LINE      CODE     ---       #42
      ---         BLOCKEND  ---      ---       LVL=0

      00FF9525H   BLOCK     CODE     ---       LVL=0
      00FF9527H   BLOCK     CODE     NEAR LAB  LVL=1
      R14         REGSYM    ---      BYTE      sample_index
      R15         REGSYM    ---      BYTE      channel_index
      ---         BLOCKEND  ---      ---       LVL=1
      00FF9525H   LINE      CODE     ---       #45
      00FF9527H   LINE      CODE     ---       #46
      00FF9527H   LINE      CODE     ---       #47
      00FF9529H   LINE      CODE     ---       #48
      00FF952BH   LINE      CODE     ---       #51
      00FF952FH   LINE      CODE     ---       #53
      00FF954AH   LINE      CODE     ---       #54
      00FF9565H   LINE      CODE     ---       #55
      00FF9580H   LINE      CODE     ---       #56
      00FF959BH   LINE      CODE     ---       #57
      00FF95A2H   LINE      CODE     ---       #60
      00FF95A6H   LINE      CODE     ---       #62
      00FF95CCH   LINE      CODE     ---       #63
      00FF95D3H   LINE      CODE     ---       #64
      00FF95DFH   LINE      CODE     ---       #65
      00FF95EBH   LINE      CODE     ---       #66
      00FF95F7H   LINE      CODE     ---       #67
      00FF9603H   LINE      CODE     ---       #68
      ---         BLOCKEND  ---      ---       LVL=0
      WR14        REGSYM    ---      WORD      battery_adc
      WR2         REGSYM    ---      WORD      ref_adc
      WR6         REGSYM    ---      WORD      battery_v
      R13         REGSYM    ---      BYTE      i

      ---         MODULE    ---      ---       control
      00FF98A0H   PUBLIC    CODE     ---       Motor_Right_pi_control
      00FF9978H   PUBLIC    CODE     ---       Motor_Left_pi_control
      00FF7913H   PUBLIC    CODE     ---       PID_Update
      00FFBCB3H   PUBLIC    CODE     ---       Ser_Servo_Duty
      00FF8515H   PUBLIC    CODE     ---       Cycle_Update
      00FFA4EFH   PUBLIC    CODE     ---       Motor_Update_Smooth
      00FFB505H   PUBLIC    CODE     ---       Motor_Update
      00FFA74DH   PUBLIC    CODE     ---       Servo_turn_pid
      00FFB89CH   PUBLIC    CODE     ---       MotorL_SetSpeed
      00FFB8D9H   PUBLIC    CODE     ---       MotorR_SetSpeed
      00FF89B8H   PUBLIC    CODE     ---       Speed_diff
      00011275H   PUBLIC    XDATA    FLOAT     Current_dajiao
      00011279H   PUBLIC    XDATA    FLOAT     Current_Speed
      0001127DH   PUBLIC    XDATA    BYTE      CAR_Mode
      0001127EH   PUBLIC    XDATA    FLOAT     Right_Speed
      00011282H   PUBLIC    XDATA    FLOAT     Left_Speed
      000000D0H   SFRSYM    DATA     BYTE      PSW
      0000009DH   SFRSYM    DATA     BYTE      IRCBAND
      00000097H   SFRSYM    DATA     BYTE      AUXR2
      000000EFH   SFRSYM    DATA     BYTE      AUXINTIF
      000000FDH   SFRSYM    DATA     BYTE      S4CON
      000000ACH   SFRSYM    DATA     BYTE      S3CON
      0000009AH   SFRSYM    DATA     BYTE      S2CON
      000000B7H   SFRSYM    DATA     BYTE      IPH
      000000CDH   SFRSYM    DATA     BYTE      SPSTAT
      000000DDH   SFRSYM    DATA     BYTE      T4T3M
      000000C1H   SFRSYM    DATA     BYTE      WDT_CONTR
      000000DFH   SFRSYM    DATA     BYTE      IP3
L251 LINKER/LOCATER V4.66.93.0                                                        10/24/2025  21:07:56  PAGE 121


      000000F4H   SFRSYM    DATA     BYTE      USBCON
      000000B5H   SFRSYM    DATA     BYTE      IP2
      000000FFH   SFRSYM    DATA     BYTE      RSTCFG
      000000C7H   SFRSYM    DATA     BYTE      IAP_CONTR
      0000008EH   SFRSYM    DATA     BYTE      AUXR
      000000AFH   SFRSYM    DATA     BYTE      IE2
      00000088H   SFRSYM    DATA     BYTE      TCON
      00000089H   SFRSYM    DATA     BYTE      TMOD
      00000098H   SFRSYM    DATA     BYTE      SCON
      00000087H   SFRSYM    DATA     BYTE      PCON
      000000BCH   SFRSYM    DATA     BYTE      ADC_CONTR
      000000D1H   SFRSYM    DATA     BYTE      PSW1
      000000E7H   SFRSYM    DATA     BYTE      CMPCR2
      000000E6H   SFRSYM    DATA     BYTE      CMPCR1
      000000DEH   SFRSYM    DATA     BYTE      ADCCFG
      000000B8H   SFRSYM    DATA     BYTE      IP
      0000008FH   SFRSYM    DATA     BYTE      INTCLKO
      000000EEH   SFRSYM    DATA     BYTE      IP3H
      000000B6H   SFRSYM    DATA     BYTE      IP2H
      000000BFH   SFRSYM    DATA     BYTE      P_SW4
      000000A8H   SFRSYM    DATA     BYTE      IE
      000000BBH   SFRSYM    DATA     BYTE      P_SW3
      000000BAH   SFRSYM    DATA     BYTE      P_SW2
      000000A2H   SFRSYM    DATA     BYTE      P_SW1
      000000CEH   SFRSYM    DATA     BYTE      SPCTL
      000000F8H   SFRSYM    DATA     BYTE      P7
      000000E8H   SFRSYM    DATA     BYTE      P6
      000000C8H   SFRSYM    DATA     BYTE      P5
      000000C0H   SFRSYM    DATA     BYTE      P4
      000000ABH   SFRSYM    DATA     BYTE      WKTCH
      000000B0H   SFRSYM    DATA     BYTE      P3
      000000A0H   SFRSYM    DATA     BYTE      P2
      00000090H   SFRSYM    DATA     BYTE      P1
      00000080H   SFRSYM    DATA     BYTE      P0

      00FFBCB3H   BLOCK     CODE     ---       LVL=0
      WR4         REGSYM    ---      INT       value
      00FFBCB3H   LINE      CODE     ---       #9
      00FFBCB5H   LINE      CODE     ---       #11
      00FFBCC2H   LINE      CODE     ---       #12
      ---         BLOCKEND  ---      ---       LVL=0

      00FFA74DH   BLOCK     CODE     ---       LVL=0
      DR0         REGSYM    ---      FLOAT     Current
      00FFA74FH   BLOCK     CODE     NEAR LAB  LVL=1
      DR20        REGSYM    ---      FLOAT     kp
      DR24        REGSYM    ---      FLOAT     kd
      DR8         REGSYM    ---      FLOAT     last_error
      DR28        REGSYM    ---      FLOAT     error
      DR28        REGSYM    ---      FLOAT     temp
      DR24        REGSYM    ---      FLOAT     out
      ---         BLOCKEND  ---      ---       LVL=1
      00FFA74DH   LINE      CODE     ---       #21
      00FFA74FH   LINE      CODE     ---       #22
      00FFA74FH   LINE      CODE     ---       #23
      00FFA759H   LINE      CODE     ---       #24
      00FFA763H   LINE      CODE     ---       #25
      00FFA76DH   LINE      CODE     ---       #26
      00FFA76FH   LINE      CODE     ---       #29
      00FFA78BH   LINE      CODE     ---       #31
      00FFA795H   LINE      CODE     ---       #33
      00FFA7C1H   LINE      CODE     ---       #34
      00FFA7E0H   LINE      CODE     ---       #35
      ---         BLOCKEND  ---      ---       LVL=0

L251 LINKER/LOCATER V4.66.93.0                                                        10/24/2025  21:07:56  PAGE 122


      00FF9978H   BLOCK     CODE     ---       LVL=0
      WR2         REGSYM    ---      INT       point
      00FF997AH   BLOCK     CODE     NEAR LAB  LVL=1
      DR20        REGSYM    ---      FLOAT     kp
      DR16        REGSYM    ---      FLOAT     ki
      DR28        REGSYM    ---      FLOAT     out
      WR26        REGSYM    ---      INT       error
      DR20        REGSYM    ---      FLOAT     delta_out
      ---         BLOCKEND  ---      ---       LVL=1
      00FF9978H   LINE      CODE     ---       #40
      00FF997AH   LINE      CODE     ---       #41
      00FF997AH   LINE      CODE     ---       #42
      00FF9984H   LINE      CODE     ---       #43
      00FF998EH   LINE      CODE     ---       #44
      00FF9990H   LINE      CODE     ---       #46
      00FF999AH   LINE      CODE     ---       #48
      00FF99C8H   LINE      CODE     ---       #50
      00FF99DFH   LINE      CODE     ---       #51
      00FF99F6H   LINE      CODE     ---       #52
      00FF9A07H   LINE      CODE     ---       #54
      00FF9A1CH   LINE      CODE     ---       #55
      00FF9A2FH   LINE      CODE     ---       #57
      00FF9A40H   LINE      CODE     ---       #58
      00FF9A4AH   LINE      CODE     ---       #60
      00FF9A4FH   LINE      CODE     ---       #61
      ---         BLOCKEND  ---      ---       LVL=0

      00FF98A0H   BLOCK     CODE     ---       LVL=0
      WR2         REGSYM    ---      INT       point
      00FF98A2H   BLOCK     CODE     NEAR LAB  LVL=1
      DR20        REGSYM    ---      FLOAT     kp
      DR16        REGSYM    ---      FLOAT     ki
      DR28        REGSYM    ---      FLOAT     out
      WR26        REGSYM    ---      INT       error
      DR20        REGSYM    ---      FLOAT     delta_out
      ---         BLOCKEND  ---      ---       LVL=1
      00FF98A0H   LINE      CODE     ---       #67
      00FF98A2H   LINE      CODE     ---       #68
      00FF98A2H   LINE      CODE     ---       #69
      00FF98ACH   LINE      CODE     ---       #70
      00FF98B6H   LINE      CODE     ---       #71
      00FF98B8H   LINE      CODE     ---       #73
      00FF98C2H   LINE      CODE     ---       #75
      00FF98F0H   LINE      CODE     ---       #77
      00FF9907H   LINE      CODE     ---       #78
      00FF991EH   LINE      CODE     ---       #79
      00FF992FH   LINE      CODE     ---       #81
      00FF9944H   LINE      CODE     ---       #82
      00FF9957H   LINE      CODE     ---       #84
      00FF9968H   LINE      CODE     ---       #85
      00FF9972H   LINE      CODE     ---       #87
      00FF9977H   LINE      CODE     ---       #88
      ---         BLOCKEND  ---      ---       LVL=0

      00FFB89CH   BLOCK     CODE     ---       LVL=0
      WR14        REGSYM    ---      INT       pwm
      00FFB89CH   LINE      CODE     ---       #95
      00FFB8A0H   LINE      CODE     ---       #98
      00FFB8A6H   LINE      CODE     ---       #100
      00FFB8B3H   LINE      CODE     ---       #101
      00FFB8BCH   LINE      CODE     ---       #102
      00FFB8BEH   LINE      CODE     ---       #105
      00FFB8CDH   LINE      CODE     ---       #106
      00FFB8D6H   LINE      CODE     ---       #107
      00FFB8D6H   LINE      CODE     ---       #108
L251 LINKER/LOCATER V4.66.93.0                                                        10/24/2025  21:07:56  PAGE 123


      ---         BLOCKEND  ---      ---       LVL=0

      00FFB8D9H   BLOCK     CODE     ---       LVL=0
      WR14        REGSYM    ---      INT       pwm
      00FFB8D9H   LINE      CODE     ---       #115
      00FFB8DDH   LINE      CODE     ---       #117
      00FFB8E3H   LINE      CODE     ---       #119
      00FFB8F0H   LINE      CODE     ---       #120
      00FFB8F9H   LINE      CODE     ---       #121
      00FFB8FBH   LINE      CODE     ---       #124
      00FFB90AH   LINE      CODE     ---       #125
      00FFB913H   LINE      CODE     ---       #126
      00FFB913H   LINE      CODE     ---       #127
      ---         BLOCKEND  ---      ---       LVL=0

      00FFB505H   BLOCK     CODE     ---       LVL=0
      DR12        REGSYM    ---      FLOAT     X
      00FFB505H   LINE      CODE     ---       #135
      00FFB509H   LINE      CODE     ---       #172
      00FFB52AH   LINE      CODE     ---       #173
      00FFB54BH   LINE      CODE     ---       #174
      ---         BLOCKEND  ---      ---       LVL=0

      00FFA4EFH   BLOCK     CODE     ---       LVL=0
      DR28        REGSYM    ---      FLOAT     target
      00FFA4F1H   BLOCK     CODE     NEAR LAB  LVL=1
      DR24        REGSYM    ---      FLOAT     step
      ---         BLOCKEND  ---      ---       LVL=1
      00FFA4EFH   LINE      CODE     ---       #176
      00FFA4F1H   LINE      CODE     ---       #177
      00FFA4F1H   LINE      CODE     ---       #178
      00FFA4F9H   LINE      CODE     ---       #179
      00FFA50AH   LINE      CODE     ---       #181
      00FFA520H   LINE      CODE     ---       #182
      00FFA53BH   LINE      CODE     ---       #183
      00FFA53DH   LINE      CODE     ---       #184
      00FFA54EH   LINE      CODE     ---       #186
      00FFA564H   LINE      CODE     ---       #187
      00FFA57FH   LINE      CODE     ---       #188
      00FFA57FH   LINE      CODE     ---       #189
      00FFA58CH   LINE      CODE     ---       #190
      ---         BLOCKEND  ---      ---       LVL=0

      00FF7913H   BLOCK     CODE     ---       LVL=0
      00FF7913H   LINE      CODE     ---       #191
      00FF7913H   LINE      CODE     ---       #193
      00FF7931H   LINE      CODE     ---       #195
      00FF7931H   LINE      CODE     ---       #197
      00FF7945H   LINE      CODE     ---       #198
      00FF7951H   LINE      CODE     ---       #199
      00FF7965H   LINE      CODE     ---       #200
      00FF7979H   LINE      CODE     ---       #201
      00FF798DH   LINE      CODE     ---       #202
      00FF79A1H   LINE      CODE     ---       #203
      00FF79B5H   LINE      CODE     ---       #204
      00FF79B8H   LINE      CODE     ---       #205
      00FF79B8H   LINE      CODE     ---       #207
      00FF79CCH   LINE      CODE     ---       #208
      00FF79D8H   LINE      CODE     ---       #209
      00FF79ECH   LINE      CODE     ---       #210
      00FF7A00H   LINE      CODE     ---       #211
      00FF7A14H   LINE      CODE     ---       #212
      00FF7A28H   LINE      CODE     ---       #213
      00FF7A3CH   LINE      CODE     ---       #214
      00FF7A3FH   LINE      CODE     ---       #215
L251 LINKER/LOCATER V4.66.93.0                                                        10/24/2025  21:07:56  PAGE 124


      00FF7A3FH   LINE      CODE     ---       #217
      00FF7A53H   LINE      CODE     ---       #218
      00FF7A5FH   LINE      CODE     ---       #219
      00FF7A73H   LINE      CODE     ---       #220
      00FF7A87H   LINE      CODE     ---       #221
      00FF7A9BH   LINE      CODE     ---       #222
      00FF7AAFH   LINE      CODE     ---       #223
      00FF7AC3H   LINE      CODE     ---       #224
      00FF7AC6H   LINE      CODE     ---       #225
      00FF7AC6H   LINE      CODE     ---       #227
      00FF7ADAH   LINE      CODE     ---       #228
      00FF7AE6H   LINE      CODE     ---       #229
      00FF7AFAH   LINE      CODE     ---       #230
      00FF7B0EH   LINE      CODE     ---       #231
      00FF7B22H   LINE      CODE     ---       #232
      00FF7B36H   LINE      CODE     ---       #233
      00FF7B4AH   LINE      CODE     ---       #234
      00FF7B4AH   LINE      CODE     ---       #235
      00FF7B4AH   LINE      CODE     ---       #237
      ---         BLOCKEND  ---      ---       LVL=0

      00FF8515H   BLOCK     CODE     ---       LVL=0
      00FF8515H   LINE      CODE     ---       #239
      00FF8515H   LINE      CODE     ---       #241
      00FF8530H   LINE      CODE     ---       #243
      00FF8530H   LINE      CODE     ---       #245
      00FF8543H   LINE      CODE     ---       #246
      00FF8556H   LINE      CODE     ---       #247
      00FF8569H   LINE      CODE     ---       #248
      00FF857CH   LINE      CODE     ---       #249
      00FF858FH   LINE      CODE     ---       #250
      00FF8592H   LINE      CODE     ---       #251
      00FF8592H   LINE      CODE     ---       #253
      00FF85A5H   LINE      CODE     ---       #254
      00FF85B8H   LINE      CODE     ---       #255
      00FF85CBH   LINE      CODE     ---       #256
      00FF85DEH   LINE      CODE     ---       #257
      00FF85F1H   LINE      CODE     ---       #258
      00FF85F4H   LINE      CODE     ---       #259
      00FF85F4H   LINE      CODE     ---       #261
      00FF8607H   LINE      CODE     ---       #262
      00FF861AH   LINE      CODE     ---       #263
      00FF862DH   LINE      CODE     ---       #264
      00FF8640H   LINE      CODE     ---       #265
      00FF8653H   LINE      CODE     ---       #266
      00FF8655H   LINE      CODE     ---       #267
      00FF8655H   LINE      CODE     ---       #269
      00FF8668H   LINE      CODE     ---       #270
      00FF867BH   LINE      CODE     ---       #271
      00FF868EH   LINE      CODE     ---       #272
      00FF86A1H   LINE      CODE     ---       #273
      00FF86B4H   LINE      CODE     ---       #274
      00FF86B4H   LINE      CODE     ---       #275
      00FF86B4H   LINE      CODE     ---       #276
      ---         BLOCKEND  ---      ---       LVL=0

      00FF89B8H   BLOCK     CODE     ---       LVL=0
      DR24        REGSYM    ---      FLOAT     value
      DR28        REGSYM    ---      FLOAT     Pargarm
      00FF89B8H   LINE      CODE     ---       #320
      00FF89BCH   LINE      CODE     ---       #322
      00FF89D7H   LINE      CODE     ---       #324
      00FF89D7H   LINE      CODE     ---       #326
      00FF89F7H   LINE      CODE     ---       #327
      00FF8A15H   LINE      CODE     ---       #328
L251 LINKER/LOCATER V4.66.93.0                                                        10/24/2025  21:07:56  PAGE 125


      00FF8A18H   LINE      CODE     ---       #330
      00FF8A18H   LINE      CODE     ---       #332
      00FF8A38H   LINE      CODE     ---       #333
      00FF8A56H   LINE      CODE     ---       #334
      00FF8A59H   LINE      CODE     ---       #336
      00FF8A59H   LINE      CODE     ---       #338
      00FF8A79H   LINE      CODE     ---       #339
      00FF8A97H   LINE      CODE     ---       #340
      00FF8A99H   LINE      CODE     ---       #342
      00FF8A99H   LINE      CODE     ---       #344
      00FF8AB9H   LINE      CODE     ---       #345
      00FF8AD7H   LINE      CODE     ---       #346
      00FF8AD9H   LINE      CODE     ---       #348
      00FF8AD9H   LINE      CODE     ---       #350
      00FF8AE5H   LINE      CODE     ---       #351
      00FF8AF1H   LINE      CODE     ---       #352
      00FF8AFDH   LINE      CODE     ---       #353
      00FF8B09H   LINE      CODE     ---       #355
      00FF8B09H   LINE      CODE     ---       #356
      ---         BLOCKEND  ---      ---       LVL=0
      DR28        REGSYM    ---      FLOAT     target
      DR24        REGSYM    ---      FLOAT     step

      ---         MODULE    ---      ---       eeprom
      000000D0H   SFRSYM    DATA     BYTE      PSW
      0000009DH   SFRSYM    DATA     BYTE      IRCBAND
      00000097H   SFRSYM    DATA     BYTE      AUXR2
      000000EFH   SFRSYM    DATA     BYTE      AUXINTIF
      000000FDH   SFRSYM    DATA     BYTE      S4CON
      000000ACH   SFRSYM    DATA     BYTE      S3CON
      0000009AH   SFRSYM    DATA     BYTE      S2CON
      000000B7H   SFRSYM    DATA     BYTE      IPH
      000000CDH   SFRSYM    DATA     BYTE      SPSTAT
      000000DDH   SFRSYM    DATA     BYTE      T4T3M
      000000C1H   SFRSYM    DATA     BYTE      WDT_CONTR
      000000DFH   SFRSYM    DATA     BYTE      IP3
      000000F4H   SFRSYM    DATA     BYTE      USBCON
      000000B5H   SFRSYM    DATA     BYTE      IP2
      000000FFH   SFRSYM    DATA     BYTE      RSTCFG
      000000C7H   SFRSYM    DATA     BYTE      IAP_CONTR
      0000008EH   SFRSYM    DATA     BYTE      AUXR
      000000AFH   SFRSYM    DATA     BYTE      IE2
      00000088H   SFRSYM    DATA     BYTE      TCON
      00000089H   SFRSYM    DATA     BYTE      TMOD
      00000098H   SFRSYM    DATA     BYTE      SCON
      00000087H   SFRSYM    DATA     BYTE      PCON
      000000BCH   SFRSYM    DATA     BYTE      ADC_CONTR
      000000D1H   SFRSYM    DATA     BYTE      PSW1
      000000E7H   SFRSYM    DATA     BYTE      CMPCR2
      000000E6H   SFRSYM    DATA     BYTE      CMPCR1
      000000DEH   SFRSYM    DATA     BYTE      ADCCFG
      000000B8H   SFRSYM    DATA     BYTE      IP
      0000008FH   SFRSYM    DATA     BYTE      INTCLKO
      000000EEH   SFRSYM    DATA     BYTE      IP3H
      000000B6H   SFRSYM    DATA     BYTE      IP2H
      000000BFH   SFRSYM    DATA     BYTE      P_SW4
      000000A8H   SFRSYM    DATA     BYTE      IE
      000000BBH   SFRSYM    DATA     BYTE      P_SW3
      000000BAH   SFRSYM    DATA     BYTE      P_SW2
      000000A2H   SFRSYM    DATA     BYTE      P_SW1
      000000CEH   SFRSYM    DATA     BYTE      SPCTL
      000000F8H   SFRSYM    DATA     BYTE      P7
      000000A8H.7 SFRSYM    DATA     BIT       EA
      000000E8H   SFRSYM    DATA     BYTE      P6
      000000C8H   SFRSYM    DATA     BYTE      P5
L251 LINKER/LOCATER V4.66.93.0                                                        10/24/2025  21:07:56  PAGE 126


      000000C0H   SFRSYM    DATA     BYTE      P4
      000000ABH   SFRSYM    DATA     BYTE      WKTCH
      000000B0H   SFRSYM    DATA     BYTE      P3
      000000A0H   SFRSYM    DATA     BYTE      P2
      00000090H   SFRSYM    DATA     BYTE      P1
      00000080H   SFRSYM    DATA     BYTE      P0
      00FFCD4DH   SYMBOL    HCONST   ---       ?tpl?0001
      00FFCF4DH   SYMBOL    HCONST   ---       ?tpl?0002
      00FFD14DH   SYMBOL    HCONST   ---       ?tpl?0003
      DR12        REGSYM    ---      DWORD     sector_start
      DR4         REGSYM    ---      DWORD     array_size
      DR4         REGSYM    ---      DWORD     sector_start
      DR28        REGSYM    ---      DWORD     addr
      REG=3       REGSYM    ---      ---       float_ptr
      R10         REGSYM    ---      BYTE      i
      DR0         REGSYM    ---      DWORD     addr
      REG=2       REGSYM    ---      ---       float_ptr

      ---         MODULE    ---      ---       function
      00FFBC6FH   PUBLIC    CODE     ---       CAR_STOP
      00FF00A6H   PUBLIC    CODE     ---       Servo_Init
      00FFB1C9H   PUBLIC    CODE     ---       Motor_Init
      00FF5425H   PUBLIC    CODE     ---       Show_pararm
      00FFBB0CH   PUBLIC    CODE     ---       speed_control_ring
      00FFA902H   PUBLIC    CODE     ---       unification
      00FF8181H   PUBLIC    CODE     ---       Turn_mode_Init
      00FFB94FH   PUBLIC    CODE     ---       Speed_Control
      00FFBCC3H   PUBLIC    CODE     ---       GO_Function
      00FFAE20H   PUBLIC    CODE     ---       init_all
      00FFA1AAH   PUBLIC    CODE     ---       Servo_Control
      00FF9F9AH   PUBLIC    CODE     ---       fast_sqrt
      00FFB85EH   PUBLIC    CODE     ---       Protect
      00FF0026H   PUBLIC    CODE     ---       enconder_init
      00FFBA57H   PUBLIC    CODE     ---       show_test_info
      00010F71H   PUBLIC    XDATA    BYTE      Key_Flag
      00010F72H   PUBLIC    XDATA    INT       T3
      00010F74H   PUBLIC    XDATA    INT       encoder_data_dir_1
      00010F76H   PUBLIC    XDATA    INT       encoder_data_dir_2
      00010F78H   PUBLIC    XDATA    BYTE      GO_PID_Control
      00010F79H   PUBLIC    XDATA    BYTE      Init_Fg
      00010F7AH   PUBLIC    XDATA    BYTE      ADC_Show_Flag
      00010F7BH   PUBLIC    XDATA    BYTE      GO_PID_Control1
      00010F7CH   PUBLIC    XDATA    BYTE      GO_PID_Control2
      00010F7DH   PUBLIC    XDATA    ---       M_Right_pid
      00010FA9H   PUBLIC    XDATA    BYTE      GO_PID_Control3
      00010FAAH   PUBLIC    XDATA    ---       servo_pid
      00010FD6H   PUBLIC    XDATA    INT       Speed_Mode
      00010FD8H   PUBLIC    XDATA    INT       Set_T
      00010FDAH   PUBLIC    XDATA    BYTE      Protect_flag
      00010FDBH   PUBLIC    XDATA    INT       dajiao
      00010FDDH   PUBLIC    XDATA    BYTE      Servo_Flag
      00010FDEH   PUBLIC    XDATA    ---       M_left_pid
      000000D0H   SFRSYM    DATA     BYTE      PSW
      0000009DH   SFRSYM    DATA     BYTE      IRCBAND
      00000097H   SFRSYM    DATA     BYTE      AUXR2
      000000EFH   SFRSYM    DATA     BYTE      AUXINTIF
      000000FDH   SFRSYM    DATA     BYTE      S4CON
      000000ACH   SFRSYM    DATA     BYTE      S3CON
      0000009AH   SFRSYM    DATA     BYTE      S2CON
      000000B7H   SFRSYM    DATA     BYTE      IPH
      000000CDH   SFRSYM    DATA     BYTE      SPSTAT
      000000DDH   SFRSYM    DATA     BYTE      T4T3M
      000000C1H   SFRSYM    DATA     BYTE      WDT_CONTR
      000000DFH   SFRSYM    DATA     BYTE      IP3
      000000F4H   SFRSYM    DATA     BYTE      USBCON
L251 LINKER/LOCATER V4.66.93.0                                                        10/24/2025  21:07:56  PAGE 127


      000000B5H   SFRSYM    DATA     BYTE      IP2
      000000FFH   SFRSYM    DATA     BYTE      RSTCFG
      000000C7H   SFRSYM    DATA     BYTE      IAP_CONTR
      0000008EH   SFRSYM    DATA     BYTE      AUXR
      000000AFH   SFRSYM    DATA     BYTE      IE2
      00000088H   SFRSYM    DATA     BYTE      TCON
      00000089H   SFRSYM    DATA     BYTE      TMOD
      00000098H   SFRSYM    DATA     BYTE      SCON
      00000087H   SFRSYM    DATA     BYTE      PCON
      000000BCH   SFRSYM    DATA     BYTE      ADC_CONTR
      000000D1H   SFRSYM    DATA     BYTE      PSW1
      000000E7H   SFRSYM    DATA     BYTE      CMPCR2
      000000E6H   SFRSYM    DATA     BYTE      CMPCR1
      000000DEH   SFRSYM    DATA     BYTE      ADCCFG
      000000B8H   SFRSYM    DATA     BYTE      IP
      0000008FH   SFRSYM    DATA     BYTE      INTCLKO
      000000EEH   SFRSYM    DATA     BYTE      IP3H
      000000B6H   SFRSYM    DATA     BYTE      IP2H
      000000BFH   SFRSYM    DATA     BYTE      P_SW4
      000000A8H   SFRSYM    DATA     BYTE      IE
      000000BBH   SFRSYM    DATA     BYTE      P_SW3
      000000BAH   SFRSYM    DATA     BYTE      P_SW2
      000000A2H   SFRSYM    DATA     BYTE      P_SW1
      000000CEH   SFRSYM    DATA     BYTE      SPCTL
      000000F8H   SFRSYM    DATA     BYTE      P7
      000000A8H.7 SFRSYM    DATA     BIT       EA
      000000E8H   SFRSYM    DATA     BYTE      P6
      000000C8H   SFRSYM    DATA     BYTE      P5
      000000C0H   SFRSYM    DATA     BYTE      P4
      000000ABH   SFRSYM    DATA     BYTE      WKTCH
      000000B0H   SFRSYM    DATA     BYTE      P3
      000000A0H   SFRSYM    DATA     BYTE      P2
      00000090H   SFRSYM    DATA     BYTE      P1
      00000080H   SFRSYM    DATA     BYTE      P0
      REG=6       REGSYM    ---      ---       PID
      DR28        REGSYM    ---      FLOAT     NowData

      00FFA902H   BLOCK     CODE     ---       LVL=0
      00FFA904H   BLOCK     CODE     NEAR LAB  LVL=1
      0001100AH   SYMBOL    XDATA    INT       left_1
      WR6         REGSYM    ---      INT       left_2
      WR10        REGSYM    ---      INT       right_2
      WR2         REGSYM    ---      INT       right_1
      0001100CH   SYMBOL    XDATA    LONG      he
      ---         BLOCKEND  ---      ---       LVL=1
      00FFA902H   LINE      CODE     ---       #45
      00FFA904H   LINE      CODE     ---       #46
      00FFA904H   LINE      CODE     ---       #47
      00FFA910H   LINE      CODE     ---       #48
      00FFA916H   LINE      CODE     ---       #49
      00FFA91CH   LINE      CODE     ---       #50
      00FFA922H   LINE      CODE     ---       #52
      00FFA936H   LINE      CODE     ---       #53
      00FFA94AH   LINE      CODE     ---       #54
      00FFA98AH   LINE      CODE     ---       #55
      ---         BLOCKEND  ---      ---       LVL=0

      00FF9F9AH   BLOCK     CODE     ---       LVL=0
      DR12        REGSYM    ---      FLOAT     number
      00FF9F9EH   BLOCK     CODE     NEAR LAB  LVL=1
      00011010H   SYMBOL    XDATA    DWORD     i
      00011014H   SYMBOL    XDATA    FLOAT     x
      ---         BLOCKEND  ---      ---       LVL=1
      00FF9F9AH   LINE      CODE     ---       #57
      00FF9F9EH   LINE      CODE     ---       #58
L251 LINKER/LOCATER V4.66.93.0                                                        10/24/2025  21:07:56  PAGE 128


      00FF9F9EH   LINE      CODE     ---       #60
      00FF9FA8H   LINE      CODE     ---       #62
      00FF9FB6H   LINE      CODE     ---       #64
      00FF9FD1H   LINE      CODE     ---       #66
      00FF9FF6H   LINE      CODE     ---       #68
      00FFA011H   LINE      CODE     ---       #70
      00FFA040H   LINE      CODE     ---       #71
      00FFA04AH   LINE      CODE     ---       #72
      ---         BLOCKEND  ---      ---       LVL=0

      00FFB1C9H   BLOCK     CODE     ---       LVL=0
      00FFB1C9H   LINE      CODE     ---       #74
      00FFB1C9H   LINE      CODE     ---       #77
      00FFB1E0H   LINE      CODE     ---       #78
      00FFB1F7H   LINE      CODE     ---       #79
      00FFB20EH   LINE      CODE     ---       #80
      00FFB225H   LINE      CODE     ---       #81
      ---         BLOCKEND  ---      ---       LVL=0

      00FF00A6H   BLOCK     CODE     ---       LVL=0
      00FF00A6H   LINE      CODE     ---       #84
      00FF00A6H   LINE      CODE     ---       #86
      00FF00BFH   LINE      CODE     ---       #87
      ---         BLOCKEND  ---      ---       LVL=0

      00FFBC6FH   BLOCK     CODE     ---       LVL=0
      00FFBC6FH   LINE      CODE     ---       #88
      00FFBC6FH   LINE      CODE     ---       #90
      00FFBC74H   LINE      CODE     ---       #91
      00FFBC79H   LINE      CODE     ---       #92
      00FFBC80H   LINE      CODE     ---       #93
      ---         BLOCKEND  ---      ---       LVL=0

      00FFB85EH   BLOCK     CODE     ---       LVL=0
      00FFB85EH   LINE      CODE     ---       #96
      00FFB85EH   LINE      CODE     ---       #98
      00FFB864H   LINE      CODE     ---       #100
      00FFB895H   LINE      CODE     ---       #102
      00FFB89BH   LINE      CODE     ---       #103
      00FFB89BH   LINE      CODE     ---       #105
      ---         BLOCKEND  ---      ---       LVL=0

      00FFAE20H   BLOCK     CODE     ---       LVL=0
      00FFAE20H   LINE      CODE     ---       #107
      00FFAE20H   LINE      CODE     ---       #109
      00FFAE22H   LINE      CODE     ---       #111
      00FFAE29H   LINE      CODE     ---       #112
      00FFAE2CH   LINE      CODE     ---       #113
      00FFAE2FH   LINE      CODE     ---       #115
      00FFAE38H   LINE      CODE     ---       #116
      00FFAE3FH   LINE      CODE     ---       #117
      00FFAE42H   LINE      CODE     ---       #118
      00FFAE45H   LINE      CODE     ---       #119
      00FFAE48H   LINE      CODE     ---       #120
      00FFAE4BH   LINE      CODE     ---       #123
      00FFAE4EH   LINE      CODE     ---       #124
      00FFAE51H   LINE      CODE     ---       #125
      00FFAE58H   LINE      CODE     ---       #126
      00FFAE63H   LINE      CODE     ---       #128
      00FFAE66H   LINE      CODE     ---       #129
      00FFAE6DH   LINE      CODE     ---       #131
      00FFAE92H   LINE      CODE     ---       #133
      00FFAE94H   LINE      CODE     ---       #135
      ---         BLOCKEND  ---      ---       LVL=0

L251 LINKER/LOCATER V4.66.93.0                                                        10/24/2025  21:07:56  PAGE 129


      00FFBA57H   BLOCK     CODE     ---       LVL=0
      REG=3       REGSYM    ---      ---       info
      00FFBA57H   LINE      CODE     ---       #136
      00FFBA5BH   LINE      CODE     ---       #138
      00FFBA62H   LINE      CODE     ---       #139
      00FFBA69H   LINE      CODE     ---       #140
      00FFBA74H   LINE      CODE     ---       #141
      00FFBA7BH   LINE      CODE     ---       #142
      00FFBA82H   LINE      CODE     ---       #144
      ---         BLOCKEND  ---      ---       LVL=0

      00FF8181H   BLOCK     CODE     ---       LVL=0
      00FF8181H   LINE      CODE     ---       #146
      00FF8181H   LINE      CODE     ---       #148
      00FF8183H   LINE      CODE     ---       #149
      00FF81B2H   LINE      CODE     ---       #151
      00FF81B2H   LINE      CODE     ---       #153
      00FF81B5H   LINE      CODE     ---       #154
      00FF81B8H   LINE      CODE     ---       #155
      00FF81BDH   LINE      CODE     ---       #156
      00FF81C3H   LINE      CODE     ---       #158
      00FF81C8H   LINE      CODE     ---       #159
      00FF81D3H   LINE      CODE     ---       #160
      00FF81D6H   LINE      CODE     ---       #161
      00FF81D9H   LINE      CODE     ---       #162
      00FF81DCH   LINE      CODE     ---       #163
      00FF81DFH   LINE      CODE     ---       #164
      00FF81E4H   LINE      CODE     ---       #165
      00FF81E9H   LINE      CODE     ---       #166
      00FF81EEH   LINE      CODE     ---       #167
      00FF81F3H   LINE      CODE     ---       #168
      00FF81F6H   LINE      CODE     ---       #170
      00FF81F6H   LINE      CODE     ---       #172
      00FF81FBH   LINE      CODE     ---       #173
      00FF8200H   LINE      CODE     ---       #175
      00FF8213H   LINE      CODE     ---       #176
      00FF8219H   LINE      CODE     ---       #178
      00FF8224H   LINE      CODE     ---       #179
      00FF822AH   LINE      CODE     ---       #181
      00FF822DH   LINE      CODE     ---       #182
      00FF8230H   LINE      CODE     ---       #183
      00FF8233H   LINE      CODE     ---       #185
      00FF8233H   LINE      CODE     ---       #187
      00FF8238H   LINE      CODE     ---       #188
      00FF823DH   LINE      CODE     ---       #190
      00FF8250H   LINE      CODE     ---       #191
      00FF8256H   LINE      CODE     ---       #193
      00FF8261H   LINE      CODE     ---       #194
      00FF8267H   LINE      CODE     ---       #196
      00FF826AH   LINE      CODE     ---       #197
      00FF826DH   LINE      CODE     ---       #198
      00FF8270H   LINE      CODE     ---       #200
      00FF8270H   LINE      CODE     ---       #202
      00FF8275H   LINE      CODE     ---       #203
      00FF827AH   LINE      CODE     ---       #205
      00FF828DH   LINE      CODE     ---       #206
      00FF8293H   LINE      CODE     ---       #207
      00FF829EH   LINE      CODE     ---       #208
      00FF82A4H   LINE      CODE     ---       #210
      00FF82A7H   LINE      CODE     ---       #211
      00FF82AAH   LINE      CODE     ---       #212
      00FF82ADH   LINE      CODE     ---       #214
      00FF82ADH   LINE      CODE     ---       #216
      00FF82B2H   LINE      CODE     ---       #217
      00FF82B7H   LINE      CODE     ---       #219
L251 LINKER/LOCATER V4.66.93.0                                                        10/24/2025  21:07:56  PAGE 130


      00FF82CAH   LINE      CODE     ---       #220
      00FF82D0H   LINE      CODE     ---       #221
      00FF82DBH   LINE      CODE     ---       #222
      00FF82E1H   LINE      CODE     ---       #225
      00FF82E4H   LINE      CODE     ---       #226
      00FF82E7H   LINE      CODE     ---       #227
      00FF82E9H   LINE      CODE     ---       #229
      00FF82E9H   LINE      CODE     ---       #231
      00FF82EFH   LINE      CODE     ---       #232
      00FF82F4H   LINE      CODE     ---       #233
      00FF82FFH   LINE      CODE     ---       #234
      00FF8301H   LINE      CODE     ---       #236
      00FF8301H   LINE      CODE     ---       #238
      00FF8307H   LINE      CODE     ---       #239
      00FF830CH   LINE      CODE     ---       #240
      00FF8317H   LINE      CODE     ---       #241
      00FF8319H   LINE      CODE     ---       #243
      00FF8319H   LINE      CODE     ---       #245
      00FF831FH   LINE      CODE     ---       #246
      00FF8325H   LINE      CODE     ---       #247
      00FF832BH   LINE      CODE     ---       #248
      00FF8336H   LINE      CODE     ---       #249
      00FF8338H   LINE      CODE     ---       #251
      00FF8338H   LINE      CODE     ---       #253
      00FF833EH   LINE      CODE     ---       #254
      00FF8343H   LINE      CODE     ---       #255
      00FF834EH   LINE      CODE     ---       #256
      00FF834EH   LINE      CODE     ---       #258
      00FF834EH   LINE      CODE     ---       #260
      00FF8350H   LINE      CODE     ---       #261
      ---         BLOCKEND  ---      ---       LVL=0

      00FF5425H   BLOCK     CODE     ---       LVL=0
      00FF5425H   LINE      CODE     ---       #263
      00FF5425H   LINE      CODE     ---       #265
      00FF5455H   LINE      CODE     ---       #267
      00FF5455H   LINE      CODE     ---       #268
      00FF5455H   LINE      CODE     ---       #270
      00FF5495H   LINE      CODE     ---       #271
      00FF54D5H   LINE      CODE     ---       #272
      00FF54D8H   LINE      CODE     ---       #273
      00FF54D8H   LINE      CODE     ---       #280
      00FF54FAH   LINE      CODE     ---       #284
      00FF54FDH   LINE      CODE     ---       #285
      00FF54FDH   LINE      CODE     ---       #286
      00FF54FDH   LINE      CODE     ---       #288
      00FF553BH   LINE      CODE     ---       #289
      00FF5578H   LINE      CODE     ---       #290
      00FF55B8H   LINE      CODE     ---       #291
      00FF55F8H   LINE      CODE     ---       #292
      00FF5635H   LINE      CODE     ---       #293
      00FF5638H   LINE      CODE     ---       #294
      00FF5638H   LINE      CODE     ---       #296
      00FF5676H   LINE      CODE     ---       #297
      00FF56B3H   LINE      CODE     ---       #298
      00FF56F3H   LINE      CODE     ---       #299
      00FF5733H   LINE      CODE     ---       #300
      00FF5770H   LINE      CODE     ---       #301
      00FF5773H   LINE      CODE     ---       #302
      00FF5773H   LINE      CODE     ---       #304
      00FF57B0H   LINE      CODE     ---       #305
      00FF57F0H   LINE      CODE     ---       #306
      00FF5830H   LINE      CODE     ---       #307
      00FF586DH   LINE      CODE     ---       #308
      00FF5870H   LINE      CODE     ---       #309
L251 LINKER/LOCATER V4.66.93.0                                                        10/24/2025  21:07:56  PAGE 131


      00FF5870H   LINE      CODE     ---       #311
      00FF588EH   LINE      CODE     ---       #312
      00FF58B0H   LINE      CODE     ---       #313
      00FF58D2H   LINE      CODE     ---       #314
      00FF58F4H   LINE      CODE     ---       #315
      00FF5916H   LINE      CODE     ---       #316
      00FF5938H   LINE      CODE     ---       #317
      00FF595AH   LINE      CODE     ---       #321
      00FF595CH   LINE      CODE     ---       #322
      00FF595CH   LINE      CODE     ---       #324
      00FF598BH   LINE      CODE     ---       #325
      00FF598BH   LINE      CODE     ---       #326
      00FF598BH   LINE      CODE     ---       #328
      ---         BLOCKEND  ---      ---       LVL=0

      00FFBCC3H   BLOCK     CODE     ---       LVL=0
      00FFBCC3H   LINE      CODE     ---       #338
      00FFBCC3H   LINE      CODE     ---       #340
      00FFBCCAH   LINE      CODE     ---       #342
      00FFBCCDH   LINE      CODE     ---       #343
      00FFBCD2H   LINE      CODE     ---       #344
      ---         BLOCKEND  ---      ---       LVL=0

      00FF0026H   BLOCK     CODE     ---       LVL=0
      00FF0026H   LINE      CODE     ---       #347
      00FF0026H   LINE      CODE     ---       #349
      00FF0033H   LINE      CODE     ---       #350
      00FF0042H   LINE      CODE     ---       #351
      ---         BLOCKEND  ---      ---       LVL=0

      00FFBB0CH   BLOCK     CODE     ---       LVL=0
      00FFBB0CH   LINE      CODE     ---       #352
      00FFBB0CH   LINE      CODE     ---       #354
      00FFBB1DH   LINE      CODE     ---       #355
      00FFBB2AH   LINE      CODE     ---       #356
      00FFBB2FH   LINE      CODE     ---       #357
      00FFBB36H   LINE      CODE     ---       #358
      ---         BLOCKEND  ---      ---       LVL=0

      00FFB94FH   BLOCK     CODE     ---       LVL=0
      00FFB94FH   LINE      CODE     ---       #360
      00FFB94FH   LINE      CODE     ---       #362
      00FFB96BH   LINE      CODE     ---       #363
      00FFB987H   LINE      CODE     ---       #364
      ---         BLOCKEND  ---      ---       LVL=0

      00FFA1AAH   BLOCK     CODE     ---       LVL=0
      00FFA1AAH   LINE      CODE     ---       #366
      00FFA1AAH   LINE      CODE     ---       #368
      00FFA1B0H   LINE      CODE     ---       #370
      00FFA1BCH   LINE      CODE     ---       #372
      00FFA1D1H   LINE      CODE     ---       #373
      00FFA1D4H   LINE      CODE     ---       #374
      00FFA1E0H   LINE      CODE     ---       #376
      00FFA1F7H   LINE      CODE     ---       #377
      00FFA1F9H   LINE      CODE     ---       #380
      00FFA226H   LINE      CODE     ---       #382
      00FFA226H   LINE      CODE     ---       #383
      00FFA228H   LINE      CODE     ---       #386
      00FFA255H   LINE      CODE     ---       #388
      00FFA255H   LINE      CODE     ---       #389
      ---         BLOCKEND  ---      ---       LVL=0

      ---         MODULE    ---      ---       Key
      00FF9121H   PUBLIC    CODE     ---       Key_scaner
L251 LINKER/LOCATER V4.66.93.0                                                        10/24/2025  21:07:56  PAGE 132


      00FF9D71H   PUBLIC    CODE     ---       Turn_mode
      00FFB5DBH   PUBLIC    CODE     ---       Key_Number
      000112C4H   PUBLIC    XDATA    BYTE      State
      000112C5H   PUBLIC    XDATA    INT       Trigg_time
      000112C7H   PUBLIC    XDATA    INT       Press_time
      000112C9H   PUBLIC    XDATA    BYTE      Key_count
      000112CAH   PUBLIC    XDATA    WORD      Time_dou
      000112CCH   PUBLIC    XDATA    BYTE      keynumber
      000112CDH   PUBLIC    XDATA    BYTE      last_keynumber
      000112CEH   PUBLIC    XDATA    BYTE      Init_Flag
      00FFDC4BH   PUBLIC    HCONST   ---       mode_map
      000000D0H   SFRSYM    DATA     BYTE      PSW
      0000009DH   SFRSYM    DATA     BYTE      IRCBAND
      00000097H   SFRSYM    DATA     BYTE      AUXR2
      000000EFH   SFRSYM    DATA     BYTE      AUXINTIF
      000000FDH   SFRSYM    DATA     BYTE      S4CON
      000000ACH   SFRSYM    DATA     BYTE      S3CON
      0000009AH   SFRSYM    DATA     BYTE      S2CON
      000000B7H   SFRSYM    DATA     BYTE      IPH
      000000CDH   SFRSYM    DATA     BYTE      SPSTAT
      000000DDH   SFRSYM    DATA     BYTE      T4T3M
      000000C1H   SFRSYM    DATA     BYTE      WDT_CONTR
      000000DFH   SFRSYM    DATA     BYTE      IP3
      000000F4H   SFRSYM    DATA     BYTE      USBCON
      000000B5H   SFRSYM    DATA     BYTE      IP2
      000000FFH   SFRSYM    DATA     BYTE      RSTCFG
      000000C7H   SFRSYM    DATA     BYTE      IAP_CONTR
      0000008EH   SFRSYM    DATA     BYTE      AUXR
      000000AFH   SFRSYM    DATA     BYTE      IE2
      00000088H   SFRSYM    DATA     BYTE      TCON
      00000089H   SFRSYM    DATA     BYTE      TMOD
      00000098H   SFRSYM    DATA     BYTE      SCON
      00000087H   SFRSYM    DATA     BYTE      PCON
      000000BCH   SFRSYM    DATA     BYTE      ADC_CONTR
      000000D1H   SFRSYM    DATA     BYTE      PSW1
      000000E7H   SFRSYM    DATA     BYTE      CMPCR2
      000000E6H   SFRSYM    DATA     BYTE      CMPCR1
      000000DEH   SFRSYM    DATA     BYTE      ADCCFG
      000000B8H   SFRSYM    DATA     BYTE      IP
      0000008FH   SFRSYM    DATA     BYTE      INTCLKO
      000000EEH   SFRSYM    DATA     BYTE      IP3H
      000000B6H   SFRSYM    DATA     BYTE      IP2H
      000000BFH   SFRSYM    DATA     BYTE      P_SW4
      000000A8H   SFRSYM    DATA     BYTE      IE
      000000BBH   SFRSYM    DATA     BYTE      P_SW3
      000000BAH   SFRSYM    DATA     BYTE      P_SW2
      000000A2H   SFRSYM    DATA     BYTE      P_SW1
      000000CEH   SFRSYM    DATA     BYTE      SPCTL
      000000F8H   SFRSYM    DATA     BYTE      P7
      000000E8H   SFRSYM    DATA     BYTE      P6
      000000C8H   SFRSYM    DATA     BYTE      P5
      000000C0H   SFRSYM    DATA     BYTE      P4
      000000ABH   SFRSYM    DATA     BYTE      WKTCH
      000000B0H   SFRSYM    DATA     BYTE      P3
      000000A0H   SFRSYM    DATA     BYTE      P2
      00000090H   SFRSYM    DATA     BYTE      P1
      00000080H   SFRSYM    DATA     BYTE      P0

      00FFB5DBH   BLOCK     CODE     ---       LVL=0
      00FFB5DDH   BLOCK     CODE     NEAR LAB  LVL=1
      R15         REGSYM    ---      BYTE      KeyNumber
      ---         BLOCKEND  ---      ---       LVL=1
      00FFB5DBH   LINE      CODE     ---       #26
      00FFB5DDH   LINE      CODE     ---       #27
      00FFB5DDH   LINE      CODE     ---       #28
L251 LINKER/LOCATER V4.66.93.0                                                        10/24/2025  21:07:56  PAGE 133


      00FFB5DFH   LINE      CODE     ---       #35
      00FFB5EBH   LINE      CODE     ---       #36
      00FFB5F7H   LINE      CODE     ---       #37
      00FFB603H   LINE      CODE     ---       #38
      00FFB60FH   LINE      CODE     ---       #39
      00FFB61BH   LINE      CODE     ---       #47
      00FFB61DH   LINE      CODE     ---       #48
      ---         BLOCKEND  ---      ---       LVL=0

      00FF9D71H   BLOCK     CODE     ---       LVL=0
      WR8         REGSYM    ---      INT       i
      00FF9D71H   LINE      CODE     ---       #49
      00FF9D71H   LINE      CODE     ---       #50
      00FF9D71H   LINE      CODE     ---       #52
      00FF9D76H   LINE      CODE     ---       #54
      00FF9DA6H   LINE      CODE     ---       #56
      00FF9DDDH   LINE      CODE     ---       #57
      00FF9E18H   LINE      CODE     ---       #58
      00FF9E1EH   LINE      CODE     ---       #59
      00FF9E20H   LINE      CODE     ---       #60
      00FF9E20H   LINE      CODE     ---       #62
      00FF9E2BH   LINE      CODE     ---       #63
      ---         BLOCKEND  ---      ---       LVL=0

      00FF9121H   BLOCK     CODE     ---       LVL=0
      00FF9121H   LINE      CODE     ---       #64
      00FF9121H   LINE      CODE     ---       #66
      00FF9128H   LINE      CODE     ---       #67
      00FF913FH   LINE      CODE     ---       #69
      00FF913FH   LINE      CODE     ---       #71
      00FF9148H   LINE      CODE     ---       #73
      00FF914EH   LINE      CODE     ---       #74
      00FF9153H   LINE      CODE     ---       #75
      00FF9153H   LINE      CODE     ---       #76
      00FF9156H   LINE      CODE     ---       #78
      00FF9156H   LINE      CODE     ---       #80
      00FF915CH   LINE      CODE     ---       #82
      00FF9161H   LINE      CODE     ---       #83
      00FF9164H   LINE      CODE     ---       #86
      00FF916AH   LINE      CODE     ---       #87
      00FF917DH   LINE      CODE     ---       #89
      00FF9183H   LINE      CODE     ---       #90
      00FF918BH   LINE      CODE     ---       #92
      00FF918BH   LINE      CODE     ---       #94
      00FF918EH   LINE      CODE     ---       #96
      00FF918EH   LINE      CODE     ---       #98
      00FF9194H   LINE      CODE     ---       #101
      00FF919AH   LINE      CODE     ---       #102
      00FF919FH   LINE      CODE     ---       #103
      00FF91A7H   LINE      CODE     ---       #104
      00FF91AAH   LINE      CODE     ---       #107
      00FF91B5H   LINE      CODE     ---       #108
      00FF91C1H   LINE      CODE     ---       #110
      00FF91CCH   LINE      CODE     ---       #111
      00FF91D3H   LINE      CODE     ---       #113
      00FF91D6H   LINE      CODE     ---       #114
      00FF91DCH   LINE      CODE     ---       #115
      00FF91E4H   LINE      CODE     ---       #116
      00FF91E9H   LINE      CODE     ---       #117
      00FF91EBH   LINE      CODE     ---       #118
      00FF91F7H   LINE      CODE     ---       #120
      00FF91FFH   LINE      CODE     ---       #121
      00FF9207H   LINE      CODE     ---       #123
      00FF9207H   LINE      CODE     ---       #125
      00FF9207H   LINE      CODE     ---       #126
L251 LINKER/LOCATER V4.66.93.0                                                        10/24/2025  21:07:56  PAGE 134


      00FF9209H   LINE      CODE     ---       #128
      00FF9209H   LINE      CODE     ---       #130
      00FF920FH   LINE      CODE     ---       #132
      00FF9215H   LINE      CODE     ---       #133
      00FF9225H   LINE      CODE     ---       #135
      00FF922AH   LINE      CODE     ---       #136
      00FF9232H   LINE      CODE     ---       #137
      00FF9234H   LINE      CODE     ---       #141
      00FF923AH   LINE      CODE     ---       #142
      00FF923AH   LINE      CODE     ---       #143
      00FF923AH   LINE      CODE     ---       #145
      00FF923AH   LINE      CODE     ---       #146
      ---         BLOCKEND  ---      ---       LVL=0

      ---         MODULE    ---      ---       menu
      00FFADA9H   PUBLIC    CODE     ---       Show_bujin
      00FFACB4H   PUBLIC    CODE     ---       menu_Init
      00FFBA85H   PUBLIC    CODE     ---       menu_handle_key
      00FF97C4H   PUBLIC    CODE     ---       handle_key1
      00FFB664H   PUBLIC    CODE     ---       handle_key2
      00FFB3D0H   PUBLIC    CODE     ---       handle_key3
      00FF9BEEH   PUBLIC    CODE     ---       handle_key4
      00FFBBE4H   PUBLIC    CODE     ---       handle_key5
      00FF9A50H   PUBLIC    CODE     ---       Menu_SetChildren
      00FF01AEH   PUBLIC    CODE     ---       Key3_handle1
      00FF9B20H   PUBLIC    CODE     ---       Key3_handle2
      00FFABB0H   PUBLIC    CODE     ---       Refesh_arrow
      00FF8D97H   PUBLIC    CODE     ---       menu_display_content
      00FFBC81H   PUBLIC    CODE     ---       show_all_menu
      00011293H   PUBLIC    XDATA    BYTE      Show_image_mode
      00011294H   PUBLIC    XDATA    FLOAT     bujin
      00011298H   PUBLIC    XDATA    CHAR      mode
      00011299H   PUBLIC    XDATA    BYTE      Key
      0001129AH   PUBLIC    XDATA    CHAR      Start_Show_Row
      0001129BH   PUBLIC    XDATA    CHAR      i
      0001129CH   PUBLIC    XDATA    CHAR      j
      0001129DH   PUBLIC    XDATA    CHAR      Key3_count
      0001129EH   PUBLIC    XDATA    BYTE      Save_Flag
      0001129FH   PUBLIC    XDATA    CHAR      Flag
      000000D0H   SFRSYM    DATA     BYTE      PSW
      0000009DH   SFRSYM    DATA     BYTE      IRCBAND
      00000097H   SFRSYM    DATA     BYTE      AUXR2
      000000EFH   SFRSYM    DATA     BYTE      AUXINTIF
      000000FDH   SFRSYM    DATA     BYTE      S4CON
      000000ACH   SFRSYM    DATA     BYTE      S3CON
      0000009AH   SFRSYM    DATA     BYTE      S2CON
      000000B7H   SFRSYM    DATA     BYTE      IPH
      000000CDH   SFRSYM    DATA     BYTE      SPSTAT
      000000DDH   SFRSYM    DATA     BYTE      T4T3M
      000000C1H   SFRSYM    DATA     BYTE      WDT_CONTR
      000000DFH   SFRSYM    DATA     BYTE      IP3
      000000F4H   SFRSYM    DATA     BYTE      USBCON
      000000B5H   SFRSYM    DATA     BYTE      IP2
      000000FFH   SFRSYM    DATA     BYTE      RSTCFG
      000000C7H   SFRSYM    DATA     BYTE      IAP_CONTR
      0000008EH   SFRSYM    DATA     BYTE      AUXR
      000000AFH   SFRSYM    DATA     BYTE      IE2
      00000088H   SFRSYM    DATA     BYTE      TCON
      00000089H   SFRSYM    DATA     BYTE      TMOD
      00000098H   SFRSYM    DATA     BYTE      SCON
      00000087H   SFRSYM    DATA     BYTE      PCON
      000000BCH   SFRSYM    DATA     BYTE      ADC_CONTR
      000000D1H   SFRSYM    DATA     BYTE      PSW1
      000000E7H   SFRSYM    DATA     BYTE      CMPCR2
      000000E6H   SFRSYM    DATA     BYTE      CMPCR1
L251 LINKER/LOCATER V4.66.93.0                                                        10/24/2025  21:07:56  PAGE 135


      000000DEH   SFRSYM    DATA     BYTE      ADCCFG
      000000B8H   SFRSYM    DATA     BYTE      IP
      0000008FH   SFRSYM    DATA     BYTE      INTCLKO
      000000EEH   SFRSYM    DATA     BYTE      IP3H
      000000B6H   SFRSYM    DATA     BYTE      IP2H
      000000BFH   SFRSYM    DATA     BYTE      P_SW4
      000000A8H   SFRSYM    DATA     BYTE      IE
      000000BBH   SFRSYM    DATA     BYTE      P_SW3
      000000BAH   SFRSYM    DATA     BYTE      P_SW2
      000000A2H   SFRSYM    DATA     BYTE      P_SW1
      000000CEH   SFRSYM    DATA     BYTE      SPCTL
      000000F8H   SFRSYM    DATA     BYTE      P7
      000000E8H   SFRSYM    DATA     BYTE      P6
      000000C8H   SFRSYM    DATA     BYTE      P5
      000000C0H   SFRSYM    DATA     BYTE      P4
      000000ABH   SFRSYM    DATA     BYTE      WKTCH
      000000B0H   SFRSYM    DATA     BYTE      P3
      000000A0H   SFRSYM    DATA     BYTE      P2
      00000090H   SFRSYM    DATA     BYTE      P1
      00000080H   SFRSYM    DATA     BYTE      P0

      00FF9A50H   BLOCK     CODE     ---       LVL=0
      REG=6       REGSYM    ---      ---       parent
      REG=7       REGSYM    ---      ---       child_indices
      00FF9A50H   LINE      CODE     ---       #19
      00FF9A54H   LINE      CODE     ---       #22
      00FF9A5BH   LINE      CODE     ---       #23
      00FF9A73H   LINE      CODE     ---       #24
      00FF9A82H   LINE      CODE     ---       #27
      00FF9A89H   LINE      CODE     ---       #29
      00FF9AADH   LINE      CODE     ---       #31
      00FF9ADDH   LINE      CODE     ---       #32
      00FF9AFBH   LINE      CODE     ---       #33
      00FF9B1FH   LINE      CODE     ---       #36
      ---         BLOCKEND  ---      ---       LVL=0

      00FFABB0H   BLOCK     CODE     ---       LVL=0
      00FFABB0H   LINE      CODE     ---       #38
      00FFABB0H   LINE      CODE     ---       #40
      00FFABB6H   LINE      CODE     ---       #42
      00FFABBFH   LINE      CODE     ---       #44
      00FFABDEH   LINE      CODE     ---       #45
      00FFABE0H   LINE      CODE     ---       #48
      00FFABF3H   LINE      CODE     ---       #49
      00FFABF3H   LINE      CODE     ---       #50
      00FFABF5H   LINE      CODE     ---       #53
      00FFABFEH   LINE      CODE     ---       #55
      00FFAC1DH   LINE      CODE     ---       #56
      00FFAC1FH   LINE      CODE     ---       #59
      00FFAC32H   LINE      CODE     ---       #60
      00FFAC32H   LINE      CODE     ---       #61
      00FFAC32H   LINE      CODE     ---       #62
      ---         BLOCKEND  ---      ---       LVL=0

      00FF8D97H   BLOCK     CODE     ---       LVL=0
      00FF8D97H   LINE      CODE     ---       #64
      00FF8D97H   LINE      CODE     ---       #66
      00FF8D9FH   LINE      CODE     ---       #68
      00FF8DD4H   LINE      CODE     ---       #69
      00FF8E53H   LINE      CODE     ---       #71
      00FF8EB9H   LINE      CODE     ---       #72
      00FF8ECBH   LINE      CODE     ---       #74
      ---         BLOCKEND  ---      ---       LVL=0

      00FFADA9H   BLOCK     CODE     ---       LVL=0
L251 LINKER/LOCATER V4.66.93.0                                                        10/24/2025  21:07:56  PAGE 136


      00FFADA9H   LINE      CODE     ---       #75
      00FFADA9H   LINE      CODE     ---       #77
      00FFADD5H   LINE      CODE     ---       #79
      00FFADE8H   LINE      CODE     ---       #80
      00FFADFBH   LINE      CODE     ---       #81
      00FFAE0EH   LINE      CODE     ---       #82
      00FFAE1FH   LINE      CODE     ---       #83
      00FFAE1FH   LINE      CODE     ---       #84
      ---         BLOCKEND  ---      ---       LVL=0

      00FFBC81H   BLOCK     CODE     ---       LVL=0
      00FFBC81H   LINE      CODE     ---       #86
      00FFBC81H   LINE      CODE     ---       #88
      00FFBC88H   LINE      CODE     ---       #89
      00FFBC8BH   LINE      CODE     ---       #90
      00FFBC8EH   LINE      CODE     ---       #91
      00FFBC91H   LINE      CODE     ---       #92
      ---         BLOCKEND  ---      ---       LVL=0

      00FF97C4H   BLOCK     CODE     ---       LVL=0
      00FF97C4H   LINE      CODE     ---       #93
      00FF97C6H   LINE      CODE     ---       #95
      00FF97CCH   LINE      CODE     ---       #97
      00FF97D5H   LINE      CODE     ---       #99
      00FF97DBH   LINE      CODE     ---       #100
      00FF97DBH   LINE      CODE     ---       #101
      00FF97E4H   LINE      CODE     ---       #103
      00FF9803H   LINE      CODE     ---       #104
      00FF9805H   LINE      CODE     ---       #107
      00FF9814H   LINE      CODE     ---       #108
      00FF9823H   LINE      CODE     ---       #109
      00FF9832H   LINE      CODE     ---       #110
      00FF9839H   LINE      CODE     ---       #111
      00FF983CH   LINE      CODE     ---       #112
      00FF983CH   LINE      CODE     ---       #113
      00FF983FH   LINE      CODE     ---       #114
      00FF9841H   LINE      CODE     ---       #115
      00FF9848H   LINE      CODE     ---       #117
      00FF9891H   LINE      CODE     ---       #118
      00FF9897H   LINE      CODE     ---       #119
      00FF989AH   LINE      CODE     ---       #120
      00FF989DH   LINE      CODE     ---       #121
      ---         BLOCKEND  ---      ---       LVL=0

      00FFB664H   BLOCK     CODE     ---       LVL=0
      00FFB664H   LINE      CODE     ---       #124
      00FFB664H   LINE      CODE     ---       #126
      00FFB67EH   LINE      CODE     ---       #127
      00FFB693H   LINE      CODE     ---       #129
      00FFB6A3H   LINE      CODE     ---       #130
      00FFB6A3H   LINE      CODE     ---       #131
      00FFB6A6H   LINE      CODE     ---       #133
      ---         BLOCKEND  ---      ---       LVL=0

      00FFB3D0H   BLOCK     CODE     ---       LVL=0
      00FFB3D0H   LINE      CODE     ---       #135
      00FFB3D0H   LINE      CODE     ---       #137
      00FFB3EAH   LINE      CODE     ---       #138
      00FFB40CH   LINE      CODE     ---       #140
      00FFB41EH   LINE      CODE     ---       #141
      00FFB41EH   LINE      CODE     ---       #142
      00FFB421H   LINE      CODE     ---       #143
      ---         BLOCKEND  ---      ---       LVL=0

      00FF9BEEH   BLOCK     CODE     ---       LVL=0
L251 LINKER/LOCATER V4.66.93.0                                                        10/24/2025  21:07:56  PAGE 137


      00FF9BEEH   LINE      CODE     ---       #144
      00FF9BF0H   LINE      CODE     ---       #146
      00FF9BF7H   LINE      CODE     ---       #148
      00FF9C40H   LINE      CODE     ---       #149
      00FF9C46H   LINE      CODE     ---       #150
      00FF9C49H   LINE      CODE     ---       #151
      00FF9C4BH   LINE      CODE     ---       #152
      00FF9C51H   LINE      CODE     ---       #154
      00FF9C5AH   LINE      CODE     ---       #156
      00FF9C60H   LINE      CODE     ---       #157
      00FF9C60H   LINE      CODE     ---       #158
      00FF9C69H   LINE      CODE     ---       #160
      00FF9C72H   LINE      CODE     ---       #161
      00FF9C77H   LINE      CODE     ---       #162
      00FF9C94H   LINE      CODE     ---       #163
      00FF9C96H   LINE      CODE     ---       #166
      00FF9CA5H   LINE      CODE     ---       #167
      00FF9CACH   LINE      CODE     ---       #168
      00FF9CAFH   LINE      CODE     ---       #169
      00FF9CAFH   LINE      CODE     ---       #170
      00FF9CB2H   LINE      CODE     ---       #171
      ---         BLOCKEND  ---      ---       LVL=0

      00FFBBE4H   BLOCK     CODE     ---       LVL=0
      00FFBBE4H   LINE      CODE     ---       #173
      00FFBBE4H   LINE      CODE     ---       #175
      00FFBBEAH   LINE      CODE     ---       #178
      00FFBBF5H   LINE      CODE     ---       #180
      00FFBBFAH   LINE      CODE     ---       #181
      00FFBBFDH   LINE      CODE     ---       #182
      00FFBBFDH   LINE      CODE     ---       #183
      00FFBBFDH   LINE      CODE     ---       #184
      ---         BLOCKEND  ---      ---       LVL=0

      00FF01AEH   BLOCK     CODE     ---       LVL=0
      00FF01AEH   LINE      CODE     ---       #185
      00FF01AEH   LINE      CODE     ---       #187
      00FF01B4H   LINE      CODE     ---       #188
      00FF01B7H   LINE      CODE     ---       #189
      ---         BLOCKEND  ---      ---       LVL=0

      00FF9B20H   BLOCK     CODE     ---       LVL=0
      00FF9B20H   LINE      CODE     ---       #190
      00FF9B20H   LINE      CODE     ---       #192
      00FF9B26H   LINE      CODE     ---       #195
      00FF9B2BH   LINE      CODE     ---       #196
      00FF9B2BH   LINE      CODE     ---       #197
      00FF9B4DH   LINE      CODE     ---       #199
      00FF9B75H   LINE      CODE     ---       #200
      00FF9B7BH   LINE      CODE     ---       #201
      00FF9B80H   LINE      CODE     ---       #202
      00FF9B8AH   LINE      CODE     ---       #203
      00FF9B8DH   LINE      CODE     ---       #204
      00FF9B8FH   LINE      CODE     ---       #205
      00FF9BACH   LINE      CODE     ---       #207
      00FF9BC8H   LINE      CODE     ---       #208
      00FF9BCEH   LINE      CODE     ---       #209
      00FF9BD3H   LINE      CODE     ---       #210
      00FF9BDDH   LINE      CODE     ---       #211
      00FF9BE0H   LINE      CODE     ---       #212
      00FF9BE0H   LINE      CODE     ---       #213
      00FF9BEAH   LINE      CODE     ---       #214
      00FF9BEDH   LINE      CODE     ---       #215
      ---         BLOCKEND  ---      ---       LVL=0

L251 LINKER/LOCATER V4.66.93.0                                                        10/24/2025  21:07:56  PAGE 138


      00FFBA85H   BLOCK     CODE     ---       LVL=0
      R7          REGSYM    ---      BYTE      Flag_Key
      00FFBA85H   LINE      CODE     ---       #221
      00FFBA87H   LINE      CODE     ---       #224
      00FFBA9BH   LINE      CODE     ---       #226
      00FFBAA0H   LINE      CODE     ---       #227
      00FFBAA5H   LINE      CODE     ---       #228
      00FFBAAAH   LINE      CODE     ---       #229
      00FFBAAFH   LINE      CODE     ---       #230
      00FFBAB2H   LINE      CODE     ---       #231
      00FFBAB2H   LINE      CODE     ---       #232
      ---         BLOCKEND  ---      ---       LVL=0

      00FFACB4H   BLOCK     CODE     ---       LVL=0
      00FFACB4H   LINE      CODE     ---       #237
      00FFACB4H   LINE      CODE     ---       #239
      00FFACC7H   LINE      CODE     ---       #240
      00FFACDAH   LINE      CODE     ---       #241
      00FFACEDH   LINE      CODE     ---       #242
      00FFAD00H   LINE      CODE     ---       #243
      00FFAD13H   LINE      CODE     ---       #244
      00FFAD26H   LINE      CODE     ---       #245
      00FFAD29H   LINE      CODE     ---       #246
      00FFAD2CH   LINE      CODE     ---       #247
      00FFAD2FH   LINE      CODE     ---       #249
      ---         BLOCKEND  ---      ---       LVL=0

      ---         MODULE    ---      ---       menu_font
      00010000H   PUBLIC    XDATA    ---       Page
      0001078CH   PUBLIC    XDATA    ---       Pin
      00010790H   PUBLIC    XDATA    ---       Num
      00010A00H   PUBLIC    XDATA    WORD      ADC_1
      00010A02H   PUBLIC    XDATA    WORD      ADC_2
      00010A04H   PUBLIC    XDATA    WORD      ADC_3
      00010A06H   PUBLIC    XDATA    WORD      ADC_4
      00010A08H   PUBLIC    XDATA    WORD      ADC_5
      00010A0AH   PUBLIC    XDATA    WORD      ADC_6
      00010A0CH   PUBLIC    XDATA    ---       Page0_children
      00010A1AH   PUBLIC    XDATA    ---       Page1_children
      00010A28H   PUBLIC    XDATA    WORD      ADC_8
      00010A2AH   PUBLIC    XDATA    ---       Page2_children
      00010A38H   PUBLIC    XDATA    ---       Page3_children
      00010A46H   PUBLIC    XDATA    ---       Page4_children
      00010A54H   PUBLIC    XDATA    ---       Page5_children
      000000D0H   SFRSYM    DATA     BYTE      PSW
      0000009DH   SFRSYM    DATA     BYTE      IRCBAND
      00000097H   SFRSYM    DATA     BYTE      AUXR2
      000000EFH   SFRSYM    DATA     BYTE      AUXINTIF
      000000FDH   SFRSYM    DATA     BYTE      S4CON
      000000ACH   SFRSYM    DATA     BYTE      S3CON
      0000009AH   SFRSYM    DATA     BYTE      S2CON
      000000B7H   SFRSYM    DATA     BYTE      IPH
      000000CDH   SFRSYM    DATA     BYTE      SPSTAT
      000000DDH   SFRSYM    DATA     BYTE      T4T3M
      000000C1H   SFRSYM    DATA     BYTE      WDT_CONTR
      000000DFH   SFRSYM    DATA     BYTE      IP3
      000000F4H   SFRSYM    DATA     BYTE      USBCON
      000000B5H   SFRSYM    DATA     BYTE      IP2
      000000FFH   SFRSYM    DATA     BYTE      RSTCFG
      000000C7H   SFRSYM    DATA     BYTE      IAP_CONTR
      0000008EH   SFRSYM    DATA     BYTE      AUXR
      000000AFH   SFRSYM    DATA     BYTE      IE2
      00000088H   SFRSYM    DATA     BYTE      TCON
      00000089H   SFRSYM    DATA     BYTE      TMOD
      00000098H   SFRSYM    DATA     BYTE      SCON
L251 LINKER/LOCATER V4.66.93.0                                                        10/24/2025  21:07:56  PAGE 139


      00000087H   SFRSYM    DATA     BYTE      PCON
      000000BCH   SFRSYM    DATA     BYTE      ADC_CONTR
      000000D1H   SFRSYM    DATA     BYTE      PSW1
      000000E7H   SFRSYM    DATA     BYTE      CMPCR2
      000000E6H   SFRSYM    DATA     BYTE      CMPCR1
      000000DEH   SFRSYM    DATA     BYTE      ADCCFG
      000000B8H   SFRSYM    DATA     BYTE      IP
      0000008FH   SFRSYM    DATA     BYTE      INTCLKO
      000000EEH   SFRSYM    DATA     BYTE      IP3H
      000000B6H   SFRSYM    DATA     BYTE      IP2H
      000000BFH   SFRSYM    DATA     BYTE      P_SW4
      000000A8H   SFRSYM    DATA     BYTE      IE
      000000BBH   SFRSYM    DATA     BYTE      P_SW3
      000000BAH   SFRSYM    DATA     BYTE      P_SW2
      000000A2H   SFRSYM    DATA     BYTE      P_SW1
      000000CEH   SFRSYM    DATA     BYTE      SPCTL
      000000F8H   SFRSYM    DATA     BYTE      P7
      000000E8H   SFRSYM    DATA     BYTE      P6
      000000C8H   SFRSYM    DATA     BYTE      P5
      000000C0H   SFRSYM    DATA     BYTE      P4
      000000ABH   SFRSYM    DATA     BYTE      WKTCH
      000000B0H   SFRSYM    DATA     BYTE      P3
      000000A0H   SFRSYM    DATA     BYTE      P2
      00000090H   SFRSYM    DATA     BYTE      P1
      00000080H   SFRSYM    DATA     BYTE      P0

      ---         MODULE    ---      ---       Device_Test
      00FFB2D4H   PUBLIC    CODE     ---       Serve_Test
      00FFBBFEH   PUBLIC    CODE     ---       Set_Sevo
      00FFB9F4H   PUBLIC    CODE     ---       PWM_Test
      000000D0H   SFRSYM    DATA     BYTE      PSW
      0000009DH   SFRSYM    DATA     BYTE      IRCBAND
      00000097H   SFRSYM    DATA     BYTE      AUXR2
      000000EFH   SFRSYM    DATA     BYTE      AUXINTIF
      000000FDH   SFRSYM    DATA     BYTE      S4CON
      000000ACH   SFRSYM    DATA     BYTE      S3CON
      0000009AH   SFRSYM    DATA     BYTE      S2CON
      000000B7H   SFRSYM    DATA     BYTE      IPH
      000000CDH   SFRSYM    DATA     BYTE      SPSTAT
      000000DDH   SFRSYM    DATA     BYTE      T4T3M
      000000C1H   SFRSYM    DATA     BYTE      WDT_CONTR
      000000DFH   SFRSYM    DATA     BYTE      IP3
      000000F4H   SFRSYM    DATA     BYTE      USBCON
      000000B5H   SFRSYM    DATA     BYTE      IP2
      000000FFH   SFRSYM    DATA     BYTE      RSTCFG
      000000C7H   SFRSYM    DATA     BYTE      IAP_CONTR
      0000008EH   SFRSYM    DATA     BYTE      AUXR
      000000AFH   SFRSYM    DATA     BYTE      IE2
      00000088H   SFRSYM    DATA     BYTE      TCON
      00000089H   SFRSYM    DATA     BYTE      TMOD
      00000098H   SFRSYM    DATA     BYTE      SCON
      00000087H   SFRSYM    DATA     BYTE      PCON
      000000BCH   SFRSYM    DATA     BYTE      ADC_CONTR
      000000D1H   SFRSYM    DATA     BYTE      PSW1
      000000E7H   SFRSYM    DATA     BYTE      CMPCR2
      000000E6H   SFRSYM    DATA     BYTE      CMPCR1
      000000DEH   SFRSYM    DATA     BYTE      ADCCFG
      000000B8H   SFRSYM    DATA     BYTE      IP
      0000008FH   SFRSYM    DATA     BYTE      INTCLKO
      000000EEH   SFRSYM    DATA     BYTE      IP3H
      000000B6H   SFRSYM    DATA     BYTE      IP2H
      000000BFH   SFRSYM    DATA     BYTE      P_SW4
      000000A8H   SFRSYM    DATA     BYTE      IE
      000000BBH   SFRSYM    DATA     BYTE      P_SW3
      000000BAH   SFRSYM    DATA     BYTE      P_SW2
L251 LINKER/LOCATER V4.66.93.0                                                        10/24/2025  21:07:56  PAGE 140


      000000A2H   SFRSYM    DATA     BYTE      P_SW1
      000000CEH   SFRSYM    DATA     BYTE      SPCTL
      000000F8H   SFRSYM    DATA     BYTE      P7
      000000E8H   SFRSYM    DATA     BYTE      P6
      000000C8H   SFRSYM    DATA     BYTE      P5
      000000C0H   SFRSYM    DATA     BYTE      P4
      000000ABH   SFRSYM    DATA     BYTE      WKTCH
      000000B0H   SFRSYM    DATA     BYTE      P3
      000000A0H   SFRSYM    DATA     BYTE      P2
      00000090H   SFRSYM    DATA     BYTE      P1
      00000080H   SFRSYM    DATA     BYTE      P0

      00FFB2D4H   BLOCK     CODE     ---       LVL=0
      00FFB2D6H   BLOCK     CODE     NEAR LAB  LVL=1
      R14         REGSYM    ---      BYTE      a
      R15         REGSYM    ---      BYTE      j
      ---         BLOCKEND  ---      ---       LVL=1
      00FFB2D4H   LINE      CODE     ---       #3
      00FFB2D6H   LINE      CODE     ---       #4
      00FFB2D6H   LINE      CODE     ---       #8
      00FFB2DAH   LINE      CODE     ---       #10
      00FFB2DEH   LINE      CODE     ---       #12
      00FFB2E7H   LINE      CODE     ---       #13
      00FFB2EEH   LINE      CODE     ---       #14
      00FFB2FCH   LINE      CODE     ---       #16
      00FFB300H   LINE      CODE     ---       #18
      00FFB30BH   LINE      CODE     ---       #19
      00FFB312H   LINE      CODE     ---       #20
      00FFB320H   LINE      CODE     ---       #22
      00FFB327H   LINE      CODE     ---       #23
      ---         BLOCKEND  ---      ---       LVL=0

      00FFB9F4H   BLOCK     CODE     ---       LVL=0
      00FFB9F4H   LINE      CODE     ---       #25
      00FFB9F4H   LINE      CODE     ---       #27
      00FFBA0DH   LINE      CODE     ---       #28
      00FFBA26H   LINE      CODE     ---       #29
      ---         BLOCKEND  ---      ---       LVL=0

      00FFBBFEH   BLOCK     CODE     ---       LVL=0
      00FFBBFEH   LINE      CODE     ---       #31
      00FFBBFEH   LINE      CODE     ---       #33
      00FFBC17H   LINE      CODE     ---       #34
      ---         BLOCKEND  ---      ---       LVL=0

      ---         MODULE    ---      ---       oled
      00FF3940H   PUBLIC    CODE     ---       asc2_0806
      00FF3B68H   PUBLIC    CODE     ---       asc2_1608
      00FF4158H   PUBLIC    CODE     ---       Hzk
      000000D0H   SFRSYM    DATA     BYTE      PSW
      0000009DH   SFRSYM    DATA     BYTE      IRCBAND
      00000097H   SFRSYM    DATA     BYTE      AUXR2
      000000EFH   SFRSYM    DATA     BYTE      AUXINTIF
      000000FDH   SFRSYM    DATA     BYTE      S4CON
      000000ACH   SFRSYM    DATA     BYTE      S3CON
      0000009AH   SFRSYM    DATA     BYTE      S2CON
      000000B7H   SFRSYM    DATA     BYTE      IPH
      000000CDH   SFRSYM    DATA     BYTE      SPSTAT
      000000DDH   SFRSYM    DATA     BYTE      T4T3M
      000000C1H   SFRSYM    DATA     BYTE      WDT_CONTR
      000000DFH   SFRSYM    DATA     BYTE      IP3
      000000F4H   SFRSYM    DATA     BYTE      USBCON
      000000B5H   SFRSYM    DATA     BYTE      IP2
      000000FFH   SFRSYM    DATA     BYTE      RSTCFG
      000000C7H   SFRSYM    DATA     BYTE      IAP_CONTR
L251 LINKER/LOCATER V4.66.93.0                                                        10/24/2025  21:07:56  PAGE 141


      0000008EH   SFRSYM    DATA     BYTE      AUXR
      000000AFH   SFRSYM    DATA     BYTE      IE2
      00000088H   SFRSYM    DATA     BYTE      TCON
      00000089H   SFRSYM    DATA     BYTE      TMOD
      00000098H   SFRSYM    DATA     BYTE      SCON
      00000087H   SFRSYM    DATA     BYTE      PCON
      000000BCH   SFRSYM    DATA     BYTE      ADC_CONTR
      000000D1H   SFRSYM    DATA     BYTE      PSW1
      000000E7H   SFRSYM    DATA     BYTE      CMPCR2
      000000E6H   SFRSYM    DATA     BYTE      CMPCR1
      000000DEH   SFRSYM    DATA     BYTE      ADCCFG
      000000B8H   SFRSYM    DATA     BYTE      IP
      0000008FH   SFRSYM    DATA     BYTE      INTCLKO
      000000EEH   SFRSYM    DATA     BYTE      IP3H
      000000B6H   SFRSYM    DATA     BYTE      IP2H
      000000BFH   SFRSYM    DATA     BYTE      P_SW4
      000000A8H   SFRSYM    DATA     BYTE      IE
      000000BBH   SFRSYM    DATA     BYTE      P_SW3
      000000BAH   SFRSYM    DATA     BYTE      P_SW2
      000000A2H   SFRSYM    DATA     BYTE      P_SW1
      000000CEH   SFRSYM    DATA     BYTE      SPCTL
      000000F8H   SFRSYM    DATA     BYTE      P7
      000000E8H   SFRSYM    DATA     BYTE      P6
      000000C8H   SFRSYM    DATA     BYTE      P5
      000000C0H   SFRSYM    DATA     BYTE      P4
      000000ABH   SFRSYM    DATA     BYTE      WKTCH
      000000B0H   SFRSYM    DATA     BYTE      P3
      000000A0H   SFRSYM    DATA     BYTE      P2
      00000090H   SFRSYM    DATA     BYTE      P1
      00000080H   SFRSYM    DATA     BYTE      P0
      WR2         REGSYM    ---      WORD      ms
      WR0         REGSYM    ---      WORD      a
      R15         REGSYM    ---      BYTE      i
      R15         REGSYM    ---      BYTE      i
      R15         REGSYM    ---      BYTE      dat
      R10         REGSYM    ---      BYTE      cmd
      R14         REGSYM    ---      BYTE      i
      R15         REGSYM    ---      BYTE      x
      R10         REGSYM    ---      BYTE      y
      R15         REGSYM    ---      BYTE      i
      R14         REGSYM    ---      BYTE      n
      R13         REGSYM    ---      BYTE      x
      R14         REGSYM    ---      BYTE      y
      R3          REGSYM    ---      BYTE      chr
      R15         REGSYM    ---      BYTE      sizey
      R12         REGSYM    ---      BYTE      facial
      R3          REGSYM    ---      BYTE      m
      R10         REGSYM    ---      BYTE      n
      WR6         REGSYM    ---      WORD      result
      WR14        REGSYM    ---      WORD      num
      R12         REGSYM    ---      BYTE      len
      R13         REGSYM    ---      BYTE      sizey
      REG=3       REGSYM    ---      ---       chr
      R12         REGSYM    ---      BYTE      x
      R13         REGSYM    ---      BYTE      y
      R14         REGSYM    ---      BYTE      no
      R15         REGSYM    ---      BYTE      sizey

      ---         MODULE    ---      ---       Strategy
      00FF9347H   PUBLIC    CODE     ---       if_Cycle
      00FF6B0BH   PUBLIC    CODE     ---       State_of_road
      00FF769CH   PUBLIC    CODE     ---       Help_turn2
      000111E4H   PUBLIC    XDATA    WORD      Long_Time
      000111E6H   PUBLIC    XDATA    WORD      Short_Time
      000111E8H   PUBLIC    XDATA    BYTE      Road_Stat
L251 LINKER/LOCATER V4.66.93.0                                                        10/24/2025  21:07:56  PAGE 142


      000111E9H   PUBLIC    XDATA    INT       Wait_Time
      000111EBH   PUBLIC    XDATA    INT       angle
      000111EDH   PUBLIC    XDATA    WORD      Entern_Continue_Time
      000111EFH   PUBLIC    XDATA    WORD      if2_time
      000111F1H   PUBLIC    XDATA    INT       turn_Value
      000111F3H   PUBLIC    XDATA    WORD      Entern_Delay_Time
      000111F5H   PUBLIC    XDATA    WORD      SLOW_Time
      000111F7H   PUBLIC    XDATA    WORD      Continue_Time
      000111F9H   PUBLIC    XDATA    WORD      Entern_Flag_Time
      000111FBH   PUBLIC    XDATA    BYTE      Enter_Flag_Left
      000111FCH   PUBLIC    XDATA    WORD      Accel_Time
      000111FEH   PUBLIC    XDATA    WORD      if_time
      00011200H   PUBLIC    XDATA    INT       Mode_Flag
      00011202H   PUBLIC    XDATA    WORD      Bend_Time
      00011204H   PUBLIC    XDATA    BYTE      Cycle_Stat
      000000D0H   SFRSYM    DATA     BYTE      PSW
      0000009DH   SFRSYM    DATA     BYTE      IRCBAND
      00000097H   SFRSYM    DATA     BYTE      AUXR2
      000000EFH   SFRSYM    DATA     BYTE      AUXINTIF
      000000FDH   SFRSYM    DATA     BYTE      S4CON
      000000ACH   SFRSYM    DATA     BYTE      S3CON
      0000009AH   SFRSYM    DATA     BYTE      S2CON
      000000B7H   SFRSYM    DATA     BYTE      IPH
      000000CDH   SFRSYM    DATA     BYTE      SPSTAT
      000000DDH   SFRSYM    DATA     BYTE      T4T3M
      000000C1H   SFRSYM    DATA     BYTE      WDT_CONTR
      000000DFH   SFRSYM    DATA     BYTE      IP3
      000000F4H   SFRSYM    DATA     BYTE      USBCON
      000000B5H   SFRSYM    DATA     BYTE      IP2
      000000FFH   SFRSYM    DATA     BYTE      RSTCFG
      000000C7H   SFRSYM    DATA     BYTE      IAP_CONTR
      0000008EH   SFRSYM    DATA     BYTE      AUXR
      000000AFH   SFRSYM    DATA     BYTE      IE2
      00000088H   SFRSYM    DATA     BYTE      TCON
      00000089H   SFRSYM    DATA     BYTE      TMOD
      00000098H   SFRSYM    DATA     BYTE      SCON
      00000087H   SFRSYM    DATA     BYTE      PCON
      000000BCH   SFRSYM    DATA     BYTE      ADC_CONTR
      000000D1H   SFRSYM    DATA     BYTE      PSW1
      000000E7H   SFRSYM    DATA     BYTE      CMPCR2
      000000E6H   SFRSYM    DATA     BYTE      CMPCR1
      000000DEH   SFRSYM    DATA     BYTE      ADCCFG
      000000B8H   SFRSYM    DATA     BYTE      IP
      0000008FH   SFRSYM    DATA     BYTE      INTCLKO
      000000EEH   SFRSYM    DATA     BYTE      IP3H
      000000B6H   SFRSYM    DATA     BYTE      IP2H
      000000BFH   SFRSYM    DATA     BYTE      P_SW4
      000000A8H   SFRSYM    DATA     BYTE      IE
      000000BBH   SFRSYM    DATA     BYTE      P_SW3
      000000BAH   SFRSYM    DATA     BYTE      P_SW2
      000000A2H   SFRSYM    DATA     BYTE      P_SW1
      000000CEH   SFRSYM    DATA     BYTE      SPCTL
      000000F8H   SFRSYM    DATA     BYTE      P7
      000000E8H   SFRSYM    DATA     BYTE      P6
      000000C8H   SFRSYM    DATA     BYTE      P5
      000000C0H   SFRSYM    DATA     BYTE      P4
      000000ABH   SFRSYM    DATA     BYTE      WKTCH
      000000B0H   SFRSYM    DATA     BYTE      P3
      000000A0H   SFRSYM    DATA     BYTE      P2
      00000090H   SFRSYM    DATA     BYTE      P1
      00000080H   SFRSYM    DATA     BYTE      P0

      00FF9347H   BLOCK     CODE     ---       LVL=0
      00FF9347H   LINE      CODE     ---       #26
      00FF9347H   LINE      CODE     ---       #28
L251 LINKER/LOCATER V4.66.93.0                                                        10/24/2025  21:07:56  PAGE 143


      00FF9353H   LINE      CODE     ---       #30
      00FF935EH   LINE      CODE     ---       #31
      00FF9361H   LINE      CODE     ---       #32
      00FF9361H   LINE      CODE     ---       #35
      00FF9376H   LINE      CODE     ---       #37
      00FF9376H   LINE      CODE     ---       #39
      00FF9379H   LINE      CODE     ---       #40
      00FF9391H   LINE      CODE     ---       #42
      00FF939CH   LINE      CODE     ---       #43
      00FF93AFH   LINE      CODE     ---       #45
      00FF93B4H   LINE      CODE     ---       #46
      00FF93BCH   LINE      CODE     ---       #47
      00FF93BFH   LINE      CODE     ---       #51
      00FF93C7H   LINE      CODE     ---       #52
      00FF93C7H   LINE      CODE     ---       #53
      00FF93C9H   LINE      CODE     ---       #55
      00FF93C9H   LINE      CODE     ---       #57
      00FF93D4H   LINE      CODE     ---       #58
      00FF93E4H   LINE      CODE     ---       #60
      00FF93EAH   LINE      CODE     ---       #61
      00FF93F2H   LINE      CODE     ---       #62
      00FF93FAH   LINE      CODE     ---       #63
      00FF93FAH   LINE      CODE     ---       #64
      00FF93FCH   LINE      CODE     ---       #66
      00FF93FCH   LINE      CODE     ---       #68
      00FF9402H   LINE      CODE     ---       #69
      00FF9405H   LINE      CODE     ---       #70
      00FF9410H   LINE      CODE     ---       #72
      00FF9420H   LINE      CODE     ---       #74
      00FF9426H   LINE      CODE     ---       #75
      00FF9430H   LINE      CODE     ---       #76
      00FF9438H   LINE      CODE     ---       #77
      00FF943DH   LINE      CODE     ---       #78
      00FF943DH   LINE      CODE     ---       #79
      00FF943FH   LINE      CODE     ---       #81
      00FF943FH   LINE      CODE     ---       #83
      00FF9442H   LINE      CODE     ---       #84
      00FF9442H   LINE      CODE     ---       #86
      00FF9442H   LINE      CODE     ---       #87
      00FF9442H   LINE      CODE     ---       #89
      ---         BLOCKEND  ---      ---       LVL=0
      WR2         REGSYM    ---      INT       left
      WR4         REGSYM    ---      INT       right

      00FF769CH   BLOCK     CODE     ---       LVL=0
      WR14        REGSYM    ---      INT       temp
      WR2         REGSYM    ---      INT       value
      WR0         REGSYM    ---      INT       ADC_Flag
      00FF76A4H   BLOCK     CODE     NEAR LAB  LVL=1
      00011205H   SYMBOL    XDATA    INT       last_dir
      00011207H   SYMBOL    XDATA    INT       first_double
      WR24        REGSYM    ---      INT       left
      WR6         REGSYM    ---      INT       right
      WR26        REGSYM    ---      INT       target
      00011209H   SYMBOL    XDATA    FLOAT     smooth_temp
      WR10        REGSYM    ---      INT       delta
      0001100AH   SYMBOL    XDATA    FLOAT     smooth
      ---         BLOCKEND  ---      ---       LVL=1
      00FF769CH   LINE      CODE     ---       #116
      00FF76A4H   LINE      CODE     ---       #117
      00FF76A4H   LINE      CODE     ---       #121
      00FF76B2H   LINE      CODE     ---       #122
      00FF76C0H   LINE      CODE     ---       #123
      00FF76C2H   LINE      CODE     ---       #126
      00FF76C6H   LINE      CODE     ---       #127
L251 LINKER/LOCATER V4.66.93.0                                                        10/24/2025  21:07:56  PAGE 144


      00FF76D8H   LINE      CODE     ---       #128
      00FF76E3H   LINE      CODE     ---       #130
      00FF76F1H   LINE      CODE     ---       #132
      00FF76FBH   LINE      CODE     ---       #134
      00FF76FFH   LINE      CODE     ---       #136
      00FF7703H   LINE      CODE     ---       #137
      00FF770DH   LINE      CODE     ---       #138
      00FF770FH   LINE      CODE     ---       #141
      00FF7711H   LINE      CODE     ---       #142
      00FF771BH   LINE      CODE     ---       #143
      00FF771BH   LINE      CODE     ---       #144
      00FF7723H   LINE      CODE     ---       #145
      00FF7726H   LINE      CODE     ---       #148
      00FF773EH   LINE      CODE     ---       #151
      00FF7750H   LINE      CODE     ---       #152
      00FF7760H   LINE      CODE     ---       #153
      00FF7762H   LINE      CODE     ---       #154
      00FF7764H   LINE      CODE     ---       #155
      00FF7768H   LINE      CODE     ---       #157
      00FF776CH   LINE      CODE     ---       #158
      00FF7776H   LINE      CODE     ---       #159
      00FF7778H   LINE      CODE     ---       #162
      00FF777AH   LINE      CODE     ---       #163
      00FF7784H   LINE      CODE     ---       #164
      00FF7784H   LINE      CODE     ---       #165
      00FF7784H   LINE      CODE     ---       #166
      00FF7786H   LINE      CODE     ---       #167
      00FF778AH   LINE      CODE     ---       #169
      00FF778EH   LINE      CODE     ---       #170
      00FF7798H   LINE      CODE     ---       #171
      00FF77A2H   LINE      CODE     ---       #172
      00FF77A4H   LINE      CODE     ---       #175
      00FF77A6H   LINE      CODE     ---       #176
      00FF77B0H   LINE      CODE     ---       #177
      00FF77BAH   LINE      CODE     ---       #178
      00FF77BAH   LINE      CODE     ---       #179
      00FF77FFH   LINE      CODE     ---       #180
      00FF7824H   LINE      CODE     ---       #181
      00FF7827H   LINE      CODE     ---       #184
      00FF7882H   LINE      CODE     ---       #186
      00FF7893H   LINE      CODE     ---       #187
      00FF78A4H   LINE      CODE     ---       #188
      00FF78A6H   LINE      CODE     ---       #191
      00FF78EBH   LINE      CODE     ---       #192
      00FF7910H   LINE      CODE     ---       #193
      00FF7910H   LINE      CODE     ---       #194
      00FF7910H   LINE      CODE     ---       #195
      ---         BLOCKEND  ---      ---       LVL=0
      REG=7       REGSYM    ---      ---       temp
      WR24        REGSYM    ---      INT       value
      WR26        REGSYM    ---      INT       value2
      0001120DH   SYMBOL    XDATA    INT       last_dir
      0001120FH   SYMBOL    XDATA    INT       first_double
      WR16        REGSYM    ---      INT       left
      WR18        REGSYM    ---      INT       right
      DR20        REGSYM    ---      FLOAT     K
      WR6         REGSYM    ---      INT       delta
      WR8         REGSYM    ---      INT       temp
      WR10        REGSYM    ---      INT       value
      WR2         REGSYM    ---      INT       value2
      WR0         REGSYM    ---      INT       ADC_Flag
      WR30        REGSYM    ---      INT       left
      WR4         REGSYM    ---      INT       right

      00FF6B0BH   BLOCK     CODE     ---       LVL=0
L251 LINKER/LOCATER V4.66.93.0                                                        10/24/2025  21:07:56  PAGE 145


      00FF6B0BH   LINE      CODE     ---       #334
      00FF6B0BH   LINE      CODE     ---       #336
      00FF6B28H   LINE      CODE     ---       #338
      00FF6B28H   LINE      CODE     ---       #340
      00FF6B35H   LINE      CODE     ---       #341
      00FF6B67H   LINE      CODE     ---       #343
      00FF6B72H   LINE      CODE     ---       #344
      00FF6B7AH   LINE      CODE     ---       #345
      00FF6B93H   LINE      CODE     ---       #347
      00FF6B9BH   LINE      CODE     ---       #348
      00FF6BA1H   LINE      CODE     ---       #349
      00FF6BA3H   LINE      CODE     ---       #353
      00FF6BABH   LINE      CODE     ---       #354
      00FF6BB6H   LINE      CODE     ---       #356
      00FF6BCFH   LINE      CODE     ---       #358
      00FF6BD7H   LINE      CODE     ---       #359
      00FF6BDDH   LINE      CODE     ---       #360
      00FF6BDDH   LINE      CODE     ---       #362
      00FF6BDDH   LINE      CODE     ---       #363
      00FF6BEDH   LINE      CODE     ---       #364
      00FF6BEDH   LINE      CODE     ---       #366
      00FF6BEDH   LINE      CODE     ---       #368
      00FF6BFAH   LINE      CODE     ---       #369
      00FF6C05H   LINE      CODE     ---       #370
      00FF6C37H   LINE      CODE     ---       #372
      00FF6C42H   LINE      CODE     ---       #373
      00FF6C5BH   LINE      CODE     ---       #375
      00FF6C67H   LINE      CODE     ---       #377
      00FF6C6DH   LINE      CODE     ---       #378
      00FF6C75H   LINE      CODE     ---       #379
      00FF6C77H   LINE      CODE     ---       #382
      00FF6C7DH   LINE      CODE     ---       #383
      00FF6C7DH   LINE      CODE     ---       #384
      00FF6C85H   LINE      CODE     ---       #385
      00FF6C8DH   LINE      CODE     ---       #386
      00FF6C8FH   LINE      CODE     ---       #390
      00FF6C97H   LINE      CODE     ---       #391
      00FF6C97H   LINE      CODE     ---       #392
      00FF6CA7H   LINE      CODE     ---       #393
      00FF6CA7H   LINE      CODE     ---       #395
      00FF6CA7H   LINE      CODE     ---       #397
      00FF6CB4H   LINE      CODE     ---       #398
      00FF6CE6H   LINE      CODE     ---       #400
      00FF6CEEH   LINE      CODE     ---       #401
      00FF6CF0H   LINE      CODE     ---       #404
      00FF6CFBH   LINE      CODE     ---       #405
      00FF6D14H   LINE      CODE     ---       #407
      00FF6D1CH   LINE      CODE     ---       #408
      00FF6D21H   LINE      CODE     ---       #409
      00FF6D21H   LINE      CODE     ---       #411
      00FF6D31H   LINE      CODE     ---       #412
      00FF6D31H   LINE      CODE     ---       #414
      00FF6D31H   LINE      CODE     ---       #416
      00FF6D3CH   LINE      CODE     ---       #417
      00FF6D55H   LINE      CODE     ---       #419
      00FF6D58H   LINE      CODE     ---       #420
      00FF6D65H   LINE      CODE     ---       #421
      00FF6D67H   LINE      CODE     ---       #424
      00FF6D6AH   LINE      CODE     ---       #426
      00FF6D77H   LINE      CODE     ---       #427
      00FF6D77H   LINE      CODE     ---       #429
      00FF6DA9H   LINE      CODE     ---       #431
      00FF6DB4H   LINE      CODE     ---       #432
      00FF6DCDH   LINE      CODE     ---       #434
      00FF6DD0H   LINE      CODE     ---       #435
L251 LINKER/LOCATER V4.66.93.0                                                        10/24/2025  21:07:56  PAGE 146


      00FF6DD8H   LINE      CODE     ---       #436
      00FF6DE0H   LINE      CODE     ---       #437
      00FF6DE5H   LINE      CODE     ---       #438
      00FF6DE7H   LINE      CODE     ---       #443
      00FF6DEFH   LINE      CODE     ---       #444
      00FF6DEFH   LINE      CODE     ---       #445
      00FF6E08H   LINE      CODE     ---       #447
      00FF6E17H   LINE      CODE     ---       #448
      00FF6E17H   LINE      CODE     ---       #451
      00FF6E26H   LINE      CODE     ---       #452
      00FF6E26H   LINE      CODE     ---       #454
      00FF6E26H   LINE      CODE     ---       #456
      00FF6E26H   LINE      CODE     ---       #458
      00FF6E29H   LINE      CODE     ---       #459
      00FF6E2BH   LINE      CODE     ---       #460
      00FF6E2BH   LINE      CODE     ---       #463
      00FF6E2BH   LINE      CODE     ---       #464
      ---         BLOCKEND  ---      ---       LVL=0

      ---         MODULE    ---      ---       Buzzer
      00FF01BEH   PUBLIC    CODE     ---       Buzzer_ON
      00FFBCD3H   PUBLIC    CODE     ---       Buzzer_OFF
      00FFBC92H   PUBLIC    CODE     ---       Buzzer_Init
      000000D0H   SFRSYM    DATA     BYTE      PSW
      0000009DH   SFRSYM    DATA     BYTE      IRCBAND
      00000097H   SFRSYM    DATA     BYTE      AUXR2
      000000EFH   SFRSYM    DATA     BYTE      AUXINTIF
      000000FDH   SFRSYM    DATA     BYTE      S4CON
      000000ACH   SFRSYM    DATA     BYTE      S3CON
      0000009AH   SFRSYM    DATA     BYTE      S2CON
      000000B7H   SFRSYM    DATA     BYTE      IPH
      000000CDH   SFRSYM    DATA     BYTE      SPSTAT
      000000DDH   SFRSYM    DATA     BYTE      T4T3M
      000000C1H   SFRSYM    DATA     BYTE      WDT_CONTR
      000000DFH   SFRSYM    DATA     BYTE      IP3
      000000F4H   SFRSYM    DATA     BYTE      USBCON
      000000B5H   SFRSYM    DATA     BYTE      IP2
      000000FFH   SFRSYM    DATA     BYTE      RSTCFG
      000000C7H   SFRSYM    DATA     BYTE      IAP_CONTR
      0000008EH   SFRSYM    DATA     BYTE      AUXR
      000000AFH   SFRSYM    DATA     BYTE      IE2
      00000088H   SFRSYM    DATA     BYTE      TCON
      00000089H   SFRSYM    DATA     BYTE      TMOD
      00000098H   SFRSYM    DATA     BYTE      SCON
      00000087H   SFRSYM    DATA     BYTE      PCON
      000000BCH   SFRSYM    DATA     BYTE      ADC_CONTR
      000000D1H   SFRSYM    DATA     BYTE      PSW1
      000000E7H   SFRSYM    DATA     BYTE      CMPCR2
      000000E6H   SFRSYM    DATA     BYTE      CMPCR1
      000000DEH   SFRSYM    DATA     BYTE      ADCCFG
      000000B8H   SFRSYM    DATA     BYTE      IP
      0000008FH   SFRSYM    DATA     BYTE      INTCLKO
      000000EEH   SFRSYM    DATA     BYTE      IP3H
      000000B6H   SFRSYM    DATA     BYTE      IP2H
      000000BFH   SFRSYM    DATA     BYTE      P_SW4
      000000A8H   SFRSYM    DATA     BYTE      IE
      000000BBH   SFRSYM    DATA     BYTE      P_SW3
      000000BAH   SFRSYM    DATA     BYTE      P_SW2
      000000A2H   SFRSYM    DATA     BYTE      P_SW1
      000000CEH   SFRSYM    DATA     BYTE      SPCTL
      000000F8H   SFRSYM    DATA     BYTE      P7
      000000E8H   SFRSYM    DATA     BYTE      P6
      000000C8H   SFRSYM    DATA     BYTE      P5
      000000C0H   SFRSYM    DATA     BYTE      P4
      000000ABH   SFRSYM    DATA     BYTE      WKTCH
L251 LINKER/LOCATER V4.66.93.0                                                        10/24/2025  21:07:56  PAGE 147


      000000B0H   SFRSYM    DATA     BYTE      P3
      000000A0H   SFRSYM    DATA     BYTE      P2
      00000090H   SFRSYM    DATA     BYTE      P1
      00000080H   SFRSYM    DATA     BYTE      P0

      00FFBC92H   BLOCK     CODE     ---       LVL=0
      00FFBC92H   LINE      CODE     ---       #2
      00FFBC92H   LINE      CODE     ---       #4
      00FFBCA2H   LINE      CODE     ---       #5
      ---         BLOCKEND  ---      ---       LVL=0

      00FF01BEH   BLOCK     CODE     ---       LVL=0
      00FF01BEH   LINE      CODE     ---       #6
      00FF01BEH   LINE      CODE     ---       #8
      00FF01C7H   LINE      CODE     ---       #9
      ---         BLOCKEND  ---      ---       LVL=0

      00FFBCD3H   BLOCK     CODE     ---       LVL=0
      00FFBCD3H   LINE      CODE     ---       #11
      00FFBCD3H   LINE      CODE     ---       #13
      00FFBCDBH   LINE      CODE     ---       #14
      ---         BLOCKEND  ---      ---       LVL=0

      ---         MODULE    ---      ---       ?C?DPADD
      00FF2225H   PUBLIC    CODE     ---       ?C?DPADD
      00FF2221H   PUBLIC    CODE     ---       ?C?DPSUB

      ---         MODULE    ---      ---       ?C?DPMUL
      00FF2334H   PUBLIC    CODE     ---       ?C?DPMUL

      ---         MODULE    ---      ---       ?C?DPDIV
      00FF2444H   PUBLIC    CODE     ---       ?C?DPDIV

      ---         MODULE    ---      ---       ?C?DPCMP
      00FF24E5H   PUBLIC    CODE     ---       ?C?DPCMP
      00FF24E3H   PUBLIC    CODE     ---       ?C?DPCMP3

      ---         MODULE    ---      ---       ?C?DPNEG
      00FF2544H   PUBLIC    CODE     ---       ?C?DPNEG

      ---         MODULE    ---      ---       ?C?DCAST
      00FF255CH   PUBLIC    CODE     NEAR LAB  ?C?DCASTC
      00FF2557H   PUBLIC    CODE     NEAR LAB  ?C?DCASTI
      00FF2552H   PUBLIC    CODE     NEAR LAB  ?C?DCASTL

      ---         MODULE    ---      ---       ?C?CASTD
      00FF259FH   PUBLIC    CODE     NEAR LAB  ?C?CASTD

      ---         MODULE    ---      ---       ?C?DCASTF
      00FF25FFH   PUBLIC    CODE     NEAR LAB  ?C?DCASTF

      ---         MODULE    ---      ---       ?C?FCASTD
      00FF2641H   PUBLIC    CODE     NEAR LAB  ?C?FCASTD

      ---         MODULE    ---      ---       PRINTF
      00011081H   PUBLIC    XDATA    ---       ?PRINTF?BYTE
      00FF2678H   PUBLIC    CODE     NEAR LAB  PRINTF

      ---         MODULE    ---      ---       SPRINTF
      00011032H   PUBLIC    XDATA    ---       ?SPRINTF?BYTE
      00FF26A4H   PUBLIC    CODE     NEAR LAB  SPRINTF

      ---         MODULE    ---      ---       SQRT?_
      00FF26CAH   PUBLIC    CODE     ---       SQRT?_

L251 LINKER/LOCATER V4.66.93.0                                                        10/24/2025  21:07:56  PAGE 148


      ---         MODULE    ---      ---       pow

      ---         MODULE    ---      ---       SIN?_
      00FF2818H   PUBLIC    CODE     ---       COS?_
      00FF2839H   PUBLIC    CODE     ---       SIN?_
      00FF286EH   PUBLIC    CODE     ---       TAN?_

      ---         MODULE    ---      ---       ATAN?_
      00FF29B0H   PUBLIC    CODE     ---       ATAN?_

      ---         MODULE    ---      ---       ASIN?_
      00FF2ACBH   PUBLIC    CODE     ---       ASIN?_

      ---         MODULE    ---      ---       ?C?DPGETOPN
      00FF2AF5H   PUBLIC    CODE     ---       ?C?DPGETOPN2
      00FF2B40H   PUBLIC    CODE     ---       ?C?DPNANRESULT
      00FF2B4CH   PUBLIC    CODE     ---       ?C?DPOVERFLOW
      00FF2B18H   PUBLIC    CODE     ---       ?C?DPRESULT
      00FF2B31H   PUBLIC    CODE     ---       ?C?DPRESULT2
      00FF2B47H   PUBLIC    CODE     ---       ?C?DPUNDERFLOW

      ---         MODULE    ---      ---       _CHKDOUBLE_?_
      00FF2B5AH   PUBLIC    CODE     ---       _CHKDOUBLE_?_

      ---         MODULE    ---      ---       ?C?PRNFMT
      00FF2BA5H   PUBLIC    CODE     ---       ?C?PRNFMT

      ---         MODULE    ---      ---       ?C?DPSERIES
      00FF2FD3H   PUBLIC    CODE     ---       ?C?DP2SERIES
      00FF2FDEH   PUBLIC    CODE     ---       ?C?DPSERIES

      ---         MODULE    ---      ---       EXP?_
      00FF30BAH   PUBLIC    CODE     ---       EXP?_

      ---         MODULE    ---      ---       LOG?_
      00FF31A3H   PUBLIC    CODE     NEAR LAB  LOG?_

      ---         MODULE    ---      ---       ?C?DPCONVERT
      00FF32BEH   PUBLIC    CODE     ---       ?C?DPCONVERT
      00FF33E5H   PUBLIC    CODE     ---       ?C?DPROUND

      ---         MODULE    ---      ---       ?C?DTNPWR
      00FF34C0H   PUBLIC    CODE     ---       ?C?DTNPWR

      ---         MODULE    ---      ---       ?C?FPGETOPN
      00FF3546H   PUBLIC    CODE     ---       ?C?FPGETOPN2
      00FF3583H   PUBLIC    CODE     ---       ?C?FPNANRESULT
      00FF358BH   PUBLIC    CODE     ---       ?C?FPOVERFLOW
      00FF355FH   PUBLIC    CODE     ---       ?C?FPRESULT
      00FF3575H   PUBLIC    CODE     ---       ?C?FPRESULT2
      00FF3588H   PUBLIC    CODE     ---       ?C?FPUNDERFLOW

      ---         MODULE    ---      ---       ?C?FPADD
      00FF359DH   PUBLIC    CODE     ---       ?C?FPADD
      00FF359AH   PUBLIC    CODE     ---       ?C?FPSUB

      ---         MODULE    ---      ---       ?C?FPMUL
      00FF3655H   PUBLIC    CODE     ---       ?C?FPMUL

      ---         MODULE    ---      ---       ?C?FPDIV
      00FF36F5H   PUBLIC    CODE     ---       ?C?FPDIV

      ---         MODULE    ---      ---       ?C?FPCMP
      00FF3778H   PUBLIC    CODE     ---       ?C?FPCMP
      00FF3776H   PUBLIC    CODE     ---       ?C?FPCMP3
L251 LINKER/LOCATER V4.66.93.0                                                        10/24/2025  21:07:56  PAGE 149



      ---         MODULE    ---      ---       ?C?FPNEG
      00FF37BCH   PUBLIC    CODE     ---       ?C?FPNEG

      ---         MODULE    ---      ---       ?C?FCAST
      00FF37D4H   PUBLIC    CODE     NEAR LAB  ?C?FCASTC
      00FF37CFH   PUBLIC    CODE     NEAR LAB  ?C?FCASTI
      00FF37CAH   PUBLIC    CODE     NEAR LAB  ?C?FCASTL

      ---         MODULE    ---      ---       ?C?CASTF
      00FF3807H   PUBLIC    CODE     NEAR LAB  ?C?CASTF

      ---         MODULE    ---      ---       ?C?INITHDATA
      00FFB249H   PUBLIC    CODE     ---       ?C?INITHDATA

      ---         MODULE    ---      ---       ?C?SIDIV
      00FF3844H   PUBLIC    CODE     ---       ?C?SIDIV

      ---         MODULE    ---      ---       ?C?LMUL
      00FF3876H   PUBLIC    CODE     ---       ?C?LMUL

      ---         MODULE    ---      ---       ?C?LIMUL
      00FF3887H   PUBLIC    CODE     ---       ?C?LIMUL

      ---         MODULE    ---      ---       ?C?ULDIV
      00FF3892H   PUBLIC    CODE     NEAR LAB  ?C?ULDIV
      00FF3890H   PUBLIC    CODE     NEAR LAB  ?C?ULIDIV

      ---         MODULE    ---      ---       ?C?SLDIV
      00FF38E3H   PUBLIC    CODE     NEAR LAB  ?C?SLDIV

      ---         MODULE    ---      ---       ?C?BMOVEPP
      00FF3919H   PUBLIC    CODE     ---       ?C?BMOVEPP
      00FF3917H   PUBLIC    CODE     ---       ?C?BMOVEPP8

      ---         MODULE    ---      ---       STRNCMP

      ---         MODULE    ---      ---       STRNCPY

      ---         MODULE    ---      ---       STRLEN

      ---         MODULE    ---      ---       STRCHR

      ---         MODULE    ---      ---       memcpy
      00FFBB5EH   PUBLIC    CODE     ---       memcpy?_

      ---         MODULE    ---      ---       memset

      ---         MODULE    ---      ---       ?C?INITHDATA_END
      00FFCD4BH   PUBLIC    HCONST   WORD      ?C?INITHDATA_END

Program Size: data=8.1 edata+hdata=1792 xdata=4891 const=8604 code=48316
L251 RUN COMPLETE.  0 WARNING(S),  0 ERROR(S)
