L251 LINKER/LOCATER V4.66.93.0                                                          10/07/2025  14:20:36  PAGE 1


L251 LINKER/LOCATER V4.66.93.0, INVOKED BY:
D:\KEIL\C251\BIN\L251.EXE .\out_file\ai8051u_isr.obj, .\out_file\zf_common_clock.obj, .\out_file\zf_common_debug.obj, .\
>> out_file\zf_common_fifo.obj, .\out_file\zf_common_font.obj, .\out_file\zf_common_function.obj, .\out_file\zf_common_t
>> ypedef.obj, .\out_file\zf_common_interrupt.obj, .\out_file\START251.obj, .\out_file\zf_driver_adc.obj, .\out_file\zf_
>> driver_delay.obj, .\out_file\zf_driver_eeprom.obj, .\out_file\zf_driver_encoder.obj, .\out_file\zf_driver_exti.obj, .
>> \out_file\zf_driver_gpio.obj, .\out_file\zf_driver_pit.obj, .\out_file\zf_driver_pwm.obj, .\out_file\zf_driver_soft_i
>> ic.obj, .\out_file\zf_driver_soft_spi.obj, .\out_file\zf_driver_spi.obj, .\out_file\zf_driver_timer.obj, .\out_file\z
>> f_driver_uart.obj, .\out_file\zf_device_config.obj, .\out_file\zf_device_type.obj, .\out_file\zf_device_tft180.obj, .
>> \out_file\zf_device_ips114.obj, .\out_file\zf_device_ips200.obj, .\out_file\zf_device_dl1a.obj, .\out_file\zf_device_
>> ble6a20.obj, .\out_file\zf_device_wireless_uart.obj, .\out_file\zf_device_icm20602.obj, .\out_file\zf_device_imu660ra
>> .obj, .\out_file\zf_device_imu660rb.obj, .\out_file\zf_device_imu963ra.obj, .\out_file\zf_device_gps_tau1201.obj, .\o
>> ut_file\zf_device_tsl1401.obj, .\out_file\seekfree_assistant.obj, .\out_file\seekfree_assistant_interface.obj, .\out_
>> file\isr.obj, .\out_file\main.obj, .\out_file\ADC_Get.obj, .\out_file\control.obj, .\out_file\eeprom.obj, .\out_file\
>> function.obj, .\out_file\Key.obj, .\out_file\menu.obj, .\out_file\menu_font.obj, .\out_file\Device_Test.obj, .\out_fi
>> le\oled.obj, .\out_file\Strategy.obj, .\out_file\Buzzer.obj TO .\out_file\SEEKFREE PRINT (.\out_file\SEEKFREE.map) CA
>> SE DISABLEWARNING (57, 16) REMOVEUNUSED CLASSES (EDATA (0X0-0X7FF), HDATA (0X0-0X7FF))


CPU MODE:     251 SOURCE MODE
INTR FRAME:   4 BYTES SAVED ON INTERRUPT
MEMORY MODEL: LARGE WITH DOUBLE PRECISION FLOATING POINT ARITHMETIC


INPUT MODULES INCLUDED:
  .\out_file\ai8051u_isr.obj (ai8051u_isr)
         COMMENT TYPE 0: A251 V4.69.13.0
  .\out_file\zf_common_clock.obj (zf_common_clock)
         COMMENT TYPE 0: C251 V5.60.0
  .\out_file\zf_common_debug.obj (zf_common_debug)
         COMMENT TYPE 0: C251 V5.60.0
  .\out_file\zf_common_fifo.obj (zf_common_fifo)
         COMMENT TYPE 0: C251 V5.60.0
  .\out_file\zf_common_font.obj (zf_common_font)
         COMMENT TYPE 0: C251 V5.60.0
  .\out_file\zf_common_function.obj (zf_common_function)
         COMMENT TYPE 0: C251 V5.60.0
  .\out_file\zf_common_typedef.obj (zf_common_typedef)
         COMMENT TYPE 0: C251 V5.60.0
  .\out_file\zf_common_interrupt.obj (zf_common_interrupt)
         COMMENT TYPE 0: C251 V5.60.0
  .\out_file\START251.obj (?C_START)
         COMMENT TYPE 0: A251 V4.69.13.0
  .\out_file\zf_driver_adc.obj (zf_driver_adc)
         COMMENT TYPE 0: C251 V5.60.0
  .\out_file\zf_driver_delay.obj (zf_driver_delay)
         COMMENT TYPE 0: C251 V5.60.0
  .\out_file\zf_driver_eeprom.obj (zf_driver_eeprom)
         COMMENT TYPE 0: C251 V5.60.0
  .\out_file\zf_driver_encoder.obj (zf_driver_encoder)
         COMMENT TYPE 0: C251 V5.60.0
  .\out_file\zf_driver_exti.obj (zf_driver_exti)
         COMMENT TYPE 0: C251 V5.60.0
  .\out_file\zf_driver_gpio.obj (zf_driver_gpio)
         COMMENT TYPE 0: C251 V5.60.0
  .\out_file\zf_driver_pit.obj (zf_driver_pit)
         COMMENT TYPE 0: C251 V5.60.0
  .\out_file\zf_driver_pwm.obj (zf_driver_pwm)
         COMMENT TYPE 0: C251 V5.60.0
  .\out_file\zf_driver_soft_iic.obj (zf_driver_soft_iic)
         COMMENT TYPE 0: C251 V5.60.0
  .\out_file\zf_driver_soft_spi.obj (zf_driver_soft_spi)
         COMMENT TYPE 0: C251 V5.60.0
  .\out_file\zf_driver_spi.obj (zf_driver_spi)
         COMMENT TYPE 0: C251 V5.60.0
  .\out_file\zf_driver_timer.obj (zf_driver_timer)
         COMMENT TYPE 0: C251 V5.60.0
L251 LINKER/LOCATER V4.66.93.0                                                        10/07/2025  14:20:36  PAGE 2


  .\out_file\zf_driver_uart.obj (zf_driver_uart)
         COMMENT TYPE 0: C251 V5.60.0
  .\out_file\zf_device_config.obj (zf_device_config)
         COMMENT TYPE 0: C251 V5.60.0
  .\out_file\zf_device_type.obj (zf_device_type)
         COMMENT TYPE 0: C251 V5.60.0
  .\out_file\zf_device_tft180.obj (zf_device_tft180)
         COMMENT TYPE 0: C251 V5.60.0
  .\out_file\zf_device_ips114.obj (zf_device_ips114)
         COMMENT TYPE 0: C251 V5.60.0
  .\out_file\zf_device_ips200.obj (zf_device_ips200)
         COMMENT TYPE 0: C251 V5.60.0
  .\out_file\zf_device_dl1a.obj (zf_device_dl1a)
         COMMENT TYPE 0: C251 V5.60.0
  .\out_file\zf_device_ble6a20.obj (zf_device_ble6a20)
         COMMENT TYPE 0: C251 V5.60.0
  .\out_file\zf_device_wireless_uart.obj (zf_device_wireless_uart)
         COMMENT TYPE 0: C251 V5.60.0
  .\out_file\zf_device_icm20602.obj (zf_device_icm20602)
         COMMENT TYPE 0: C251 V5.60.0
  .\out_file\zf_device_imu660ra.obj (zf_device_imu660ra)
         COMMENT TYPE 0: C251 V5.60.0
  .\out_file\zf_device_imu660rb.obj (zf_device_imu660rb)
         COMMENT TYPE 0: C251 V5.60.0
  .\out_file\zf_device_imu963ra.obj (zf_device_imu963ra)
         COMMENT TYPE 0: C251 V5.60.0
  .\out_file\zf_device_gps_tau1201.obj (zf_device_gps_tau1201)
         COMMENT TYPE 0: C251 V5.60.0
  .\out_file\zf_device_tsl1401.obj (zf_device_tsl1401)
         COMMENT TYPE 0: C251 V5.60.0
  .\out_file\seekfree_assistant.obj (seekfree_assistant)
         COMMENT TYPE 0: C251 V5.60.0
  .\out_file\seekfree_assistant_interface.obj (seekfree_assistant_interface)
         COMMENT TYPE 0: C251 V5.60.0
  .\out_file\isr.obj (isr)
         COMMENT TYPE 0: C251 V5.60.0
  .\out_file\main.obj (main)
         COMMENT TYPE 0: C251 V5.60.0
  .\out_file\ADC_Get.obj (ADC_Get)
         COMMENT TYPE 0: C251 V5.60.0
  .\out_file\control.obj (control)
         COMMENT TYPE 0: C251 V5.60.0
  .\out_file\eeprom.obj (eeprom)
         COMMENT TYPE 0: C251 V5.60.0
  .\out_file\function.obj (function)
         COMMENT TYPE 0: C251 V5.60.0
  .\out_file\Key.obj (Key)
         COMMENT TYPE 0: C251 V5.60.0
  .\out_file\menu.obj (menu)
         COMMENT TYPE 0: C251 V5.60.0
  .\out_file\menu_font.obj (menu_font)
         COMMENT TYPE 0: C251 V5.60.0
  .\out_file\Device_Test.obj (Device_Test)
         COMMENT TYPE 0: C251 V5.60.0
  .\out_file\oled.obj (oled)
         COMMENT TYPE 0: C251 V5.60.0
  .\out_file\Strategy.obj (Strategy)
         COMMENT TYPE 0: C251 V5.60.0
  .\out_file\Buzzer.obj (Buzzer)
         COMMENT TYPE 0: C251 V5.60.0
  D:\KEIL\C251\LIB\C2SDPL.LIB (?C?DPADD)
         COMMENT TYPE 0: A251 V4.69.6.0
  D:\KEIL\C251\LIB\C2SDPL.LIB (?C?DPMUL)
         COMMENT TYPE 0: A251 V4.69.6.0
  D:\KEIL\C251\LIB\C2SDPL.LIB (?C?DPDIV)
L251 LINKER/LOCATER V4.66.93.0                                                        10/07/2025  14:20:36  PAGE 3


         COMMENT TYPE 0: A251 V4.69.6.0
  D:\KEIL\C251\LIB\C2SDPL.LIB (?C?DPCMP)
         COMMENT TYPE 0: A251 V4.69.6.0
  D:\KEIL\C251\LIB\C2SDPL.LIB (?C?DPNEG)
         COMMENT TYPE 0: A251 V4.69.6.0
  D:\KEIL\C251\LIB\C2SDPL.LIB (?C?DCAST)
         COMMENT TYPE 0: A251 V4.69.6.0
  D:\KEIL\C251\LIB\C2SDPL.LIB (?C?CASTD)
         COMMENT TYPE 0: A251 V4.69.6.0
  D:\KEIL\C251\LIB\C2SDPL.LIB (?C?DCASTF)
         COMMENT TYPE 0: A251 V4.69.6.0
  D:\KEIL\C251\LIB\C2SDPL.LIB (?C?FCASTD)
         COMMENT TYPE 0: A251 V4.69.6.0
  D:\KEIL\C251\LIB\C2SDPL.LIB (PRINTF)
         COMMENT TYPE 0: A251 V4.69.6.0
  D:\KEIL\C251\LIB\C2SDPL.LIB (SPRINTF)
         COMMENT TYPE 0: A251 V4.69.6.0
  D:\KEIL\C251\LIB\C2SDPL.LIB (SQRT?_)
         COMMENT TYPE 0: A251 V4.69.6.0
  D:\KEIL\C251\LIB\C2SDPL.LIB (pow)
         COMMENT TYPE 0: C251 V5.58.7
  D:\KEIL\C251\LIB\C2SDPL.LIB (SIN?_)
         COMMENT TYPE 0: A251 V4.69.6.0
  D:\KEIL\C251\LIB\C2SDPL.LIB (ATAN?_)
         COMMENT TYPE 0: A251 V4.69.6.0
  D:\KEIL\C251\LIB\C2SDPL.LIB (ASIN?_)
         COMMENT TYPE 0: A251 V4.69.6.0
  D:\KEIL\C251\LIB\C2SDPL.LIB (?C?DPGETOPN)
         COMMENT TYPE 0: A251 V4.69.6.0
  D:\KEIL\C251\LIB\C2SDPL.LIB (_CHKDOUBLE_?_)
         COMMENT TYPE 0: A251 V4.69.6.0
  D:\KEIL\C251\LIB\C2SDPL.LIB (?C?PRNFMT)
         COMMENT TYPE 0: A251 V4.69.6.0
  D:\KEIL\C251\LIB\C2SDPL.LIB (?C?DPSERIES)
         COMMENT TYPE 0: A251 V4.69.6.0
  D:\KEIL\C251\LIB\C2SDPL.LIB (EXP?_)
         COMMENT TYPE 0: A251 V4.69.6.0
  D:\KEIL\C251\LIB\C2SDPL.LIB (LOG?_)
         COMMENT TYPE 0: A251 V4.69.6.0
  D:\KEIL\C251\LIB\C2SDPL.LIB (?C?DPCONVERT)
         COMMENT TYPE 0: A251 V4.69.6.0
  D:\KEIL\C251\LIB\C2SDPL.LIB (?C?DTNPWR)
         COMMENT TYPE 0: A251 V4.69.6.0
  D:\KEIL\C251\LIB\C2SFPL.LIB (?C?FPGETOPN)
         COMMENT TYPE 0: A251 V4.69.6.0
  D:\KEIL\C251\LIB\C2SFPL.LIB (?C?FPADD)
         COMMENT TYPE 0: A251 V4.69.6.0
  D:\KEIL\C251\LIB\C2SFPL.LIB (?C?FPMUL)
         COMMENT TYPE 0: A251 V4.69.6.0
  D:\KEIL\C251\LIB\C2SFPL.LIB (?C?FPDIV)
         COMMENT TYPE 0: A251 V4.69.6.0
  D:\KEIL\C251\LIB\C2SFPL.LIB (?C?FPCMP)
         COMMENT TYPE 0: A251 V4.69.6.0
  D:\KEIL\C251\LIB\C2SFPL.LIB (?C?FPNEG)
         COMMENT TYPE 0: A251 V4.69.6.0
  D:\KEIL\C251\LIB\C2SFPL.LIB (?C?FCAST)
         COMMENT TYPE 0: A251 V4.69.6.0
  D:\KEIL\C251\LIB\C2SFPL.LIB (?C?CASTF)
         COMMENT TYPE 0: A251 V4.69.6.0
  D:\KEIL\C251\LIB\C2SL.LIB (?C?INITHDATA)
         COMMENT TYPE 0: A251 V4.69.6.0
  D:\KEIL\C251\LIB\C2SL.LIB (?C?SIDIV)
         COMMENT TYPE 0: A251 V4.69.6.0
  D:\KEIL\C251\LIB\C2SL.LIB (?C?LMUL)
         COMMENT TYPE 0: A251 V4.69.6.0
L251 LINKER/LOCATER V4.66.93.0                                                        10/07/2025  14:20:36  PAGE 4


  D:\KEIL\C251\LIB\C2SL.LIB (?C?LIMUL)
         COMMENT TYPE 0: A251 V4.69.6.0
  D:\KEIL\C251\LIB\C2SL.LIB (?C?ULDIV)
         COMMENT TYPE 0: A251 V4.69.6.0
  D:\KEIL\C251\LIB\C2SL.LIB (?C?SLDIV)
         COMMENT TYPE 0: A251 V4.69.6.0
  D:\KEIL\C251\LIB\C2SL.LIB (?C?BMOVEPP)
         COMMENT TYPE 0: A251 V4.69.6.0
  D:\KEIL\C251\LIB\C2SL.LIB (STRNCMP)
         COMMENT TYPE 0: C251 V5.58.7
  D:\KEIL\C251\LIB\C2SL.LIB (STRNCPY)
         COMMENT TYPE 0: C251 V5.58.7
  D:\KEIL\C251\LIB\C2SL.LIB (STRLEN)
         COMMENT TYPE 0: C251 V5.58.7
  D:\KEIL\C251\LIB\C2SL.LIB (STRCHR)
         COMMENT TYPE 0: C251 V5.58.7
  D:\KEIL\C251\LIB\C2SL.LIB (memcpy)
         COMMENT TYPE 0: C251 V5.58.7
  D:\KEIL\C251\LIB\C2SL.LIB (memset)
         COMMENT TYPE 0: C251 V5.58.7
  D:\KEIL\C251\LIB\C2SL.LIB (?C?INITHDATA_END)
         COMMENT TYPE 0: A251 V4.69.6.0


ACTIVE MEMORY CLASSES OF MODULE:  .\out_file\SEEKFREE (ai8051u_isr)

BASE        START       END         USED      MEMORY CLASS
==========================================================
000000H     000000H     0007FFH     000700H   EDATA
000000H     000000H     0007FFH               HDATA
FF0000H     FF0000H     FFFFFFH     00AD98H   CODE
010000H     010000H     01FFFFH     000D91H   XDATA
000000H     FF0000H     FFFFFFH     001C14H   HCONST
000020H.0   000020H.0   00002FH.7   000000H.1 BIT
FF0000H     FF0000H     FFFFFFH     000004H   CONST
000000H     000000H     00007FH     000008H   DATA


MEMORY MAP OF MODULE:  .\out_file\SEEKFREE (ai8051u_isr)


START     STOP      LENGTH    ALIGN  RELOC    MEMORY CLASS   SEGMENT NAME
=========================================================================
000000H   000007H   000008H   ---    AT..     DATA           "REG BANK 0"
000008H.0 00001FH.7 000018H.0 ---    ---      **GAP**
000020H.0 000020H.0 000000H.1 BIT    UNIT     BIT            ?BI?ADC_GET
000020H.1 000020H   000000H.7 ---    ---      **GAP**
000021H   000720H   000700H   BYTE   UNIT     EDATA          ?STACK
000721H   00FFFFH   00F8DFH   ---    ---      **GAP**
010000H   01054FH   000550H   BYTE   INSEG    XDATA          ?XD?MENU_FONT
010550H   010751H   000202H   BYTE   INSEG    XDATA          ?XD?ZF_DEVICE_TSL1401
010752H   010921H   0001D0H   BYTE   INSEG    XDATA          ?XD?ZF_DEVICE_GPS_TAU1201
010922H   010A5EH   00013DH   BYTE   INSEG    XDATA          ?XD?SEEKFREE_ASSISTANT
010A5FH   010AF3H   000095H   BYTE   UNIT     XDATA          _XDATA_GROUP_
010AF4H   010B4CH   000059H   BYTE   INSEG    XDATA          ?XD?ZF_COMMON_DEBUG
010B4DH   010BA3H   000057H   BYTE   INSEG    XDATA          ?XD?ZF_DEVICE_BLE6A20
010BA4H   010BFAH   000057H   BYTE   INSEG    XDATA          ?XD?ZF_DEVICE_WIRELESS_UART
010BFBH   010C38H   00003EH   BYTE   INSEG    XDATA          ?XD?ADC_GET
010C39H   010C70H   000038H   BYTE   INSEG    XDATA          ?XD?FUNCTION
010C71H   010C95H   000025H   BYTE   INSEG    XDATA          ?XD?STRATEGY
010C96H   010CB3H   00001EH   BYTE   INSEG    XDATA          ?XD?ZF_COMMON_TYPEDEF
010CB4H   010CD1H   00001EH   BYTE   INSEG    XDATA          ?XD?ZF_DEVICE_IMU963RA
010CD2H   010CE5H   000014H   BYTE   INSEG    XDATA          ?XD?ZF_DEVICE_ICM20602
010CE6H   010CF9H   000014H   BYTE   INSEG    XDATA          ?XD?ZF_DEVICE_IMU660RA
010CFAH   010D06H   00000DH   BYTE   INSEG    XDATA          ?XD?ZF_DEVICE_DL1A
L251 LINKER/LOCATER V4.66.93.0                                                        10/07/2025  14:20:36  PAGE 5


010D07H   010D13H   00000DH   BYTE   INSEG    XDATA          ?XD?MENU
010D14H   010D1FH   00000CH   BYTE   INSEG    XDATA          ?XD?ZF_DRIVER_TIMER
010D20H   010D2BH   00000CH   BYTE   INSEG    XDATA          ?XD?ZF_DRIVER_UART
010D2CH   010D37H   00000CH   BYTE   INSEG    XDATA          ?XD?ZF_DEVICE_IMU660RB
010D38H   010D42H   00000BH   BYTE   INSEG    XDATA          ?XD?KEY
010D43H   010D4CH   00000AH   BYTE   INSEG    XDATA          ?XD?ZF_DEVICE_IPS200
010D4DH   010D54H   000008H   BYTE   UNIT     XDATA          ?XD?SOFT_IIC_DELAY?ZF_DRIVER_SOFT_IIC
010D55H   010D5CH   000008H   BYTE   INSEG    XDATA          ?XD?ZF_DEVICE_TYPE
010D5DH   010D64H   000008H   BYTE   INSEG    XDATA          ?XD?ZF_DEVICE_TFT180
010D65H   010D6CH   000008H   BYTE   INSEG    XDATA          ?XD?ZF_DEVICE_IPS114
010D6DH   010D74H   000008H   BYTE   INSEG    XDATA          ?XD?MAIN
010D75H   010D7AH   000006H   BYTE   INSEG    XDATA          ?XD?ZF_DRIVER_ENCODER
010D7BH   010D7EH   000004H   BYTE   INSEG    XDATA          ?XD?ZF_COMMON_CLOCK
010D7FH   010D82H   000004H   BYTE   INSEG    XDATA          ?XD?ZF_DRIVER_DELAY
010D83H   010D86H   000004H   BYTE   INSEG    XDATA          ?XD?SEEKFREE_ASSISTANT_INTERFACE
010D87H   010D89H   000003H   BYTE   UNIT     XDATA          ?XD?SOFT_IIC_READ_DATA?ZF_DRIVER_SOFT_IIC
010D8AH   010D8BH   000002H   BYTE   UNIT     XDATA          ?XD?SOFT_IIC_SEND_DATA?ZF_DRIVER_SOFT_IIC
010D8CH   010D8CH   000001H   BYTE   INSEG    XDATA          ?XD?ZF_DRIVER_ADC
010D8DH   010D8DH   000001H   BYTE   UNIT     XDATA          ?XD?SOFT_IIC_SEND_ACK?ZF_DRIVER_SOFT_IIC
010D8EH   010D8EH   000001H   BYTE   UNIT     XDATA          ?XD?SOFT_IIC_WAIT_ACK?ZF_DRIVER_SOFT_IIC
010D8FH   010D8FH   000001H   BYTE   INSEG    XDATA          ?XD?ISR
010D90H   010D90H   000001H   BYTE   INSEG    XDATA          ?XD?CONTROL
010D91H   FEFFFFH   FDF26FH   ---    ---      **GAP**
FF0000H   FF0002H   000003H   ---    OFFS..   CODE           ?CO?START251?4
FF0003H   FF0008H   000006H   BYTE   INSEG    CODE           ?PR?SPI_WRITE_8BIT?ZF_DRIVER_SPI
FF0009H   FF000AH   000002H   BYTE   UNIT     HCONST         ?HC?MAIN
FF000BH   FF000DH   000003H   ---    OFFS..   CODE           ?PR?IV?1
FF000EH   FF001AH   00000DH   BYTE   INSEG    CODE           ?PR?TFT180_SET_COLOR?ZF_DEVICE_TFT180
FF001BH   FF001DH   000003H   ---    OFFS..   CODE           ?PR?IV?3
FF001EH   FF0020H   000003H   BYTE   INSEG    CODE           ?PR?INTERRUPT_GLOBAL_ENABLE?ZF_COMMON_INTERRUPT
FF0021H   FF0022H   000002H   ---    ---      **GAP**
FF0023H   FF0025H   000003H   ---    OFFS..   CODE           ?PR?IV?4
FF0026H   FF003FH   00001AH   BYTE   INSEG    CODE           ?PR?SERVO_INIT?FUNCTION
FF0040H   FF0042H   000003H   ---    ---      **GAP**
FF0043H   FF0045H   000003H   ---    OFFS..   CODE           ?PR?IV?8
FF0046H   FF005FH   00001AH   BYTE   INSEG    CODE           ?PR?HANDLE_KEY5?MENU
FF0060H   FF0062H   000003H   ---    ---      **GAP**
FF0063H   FF0065H   000003H   ---    OFFS..   CODE           ?PR?IV?12
FF0066H   FF008AH   000025H   BYTE   INSEG    CODE           ?PR?MAIN?MAIN
FF008BH   FF008DH   000003H   ---    OFFS..   CODE           ?PR?IV?17
FF008EH   FF0091H   000004H   BYTE   UNIT     CONST          ?CO?PRINTF
FF0092H   FF0092H   000001H   ---    ---      **GAP**
FF0093H   FF0095H   000003H   ---    OFFS..   CODE           ?PR?IV?18
FF0096H   FF009AH   000005H   ---    ---      **GAP**
FF009BH   FF009DH   000003H   ---    OFFS..   CODE           ?PR?IV?19
FF009EH   FF00A2H   000005H   ---    ---      **GAP**
FF00A3H   FF00A5H   000003H   ---    OFFS..   CODE           ?PR?IV?20
FF00A6H   FF00BBH   000016H   BYTE   INSEG    CODE           ?PR?TFT180_WRITE_INDEX?ZF_DEVICE_TFT180
FF00BCH   FF00C2H   000007H   ---    ---      **GAP**
FF00C3H   FF00C5H   000003H   ---    OFFS..   CODE           ?PR?IV?24
FF00C6H   FF0198H   0000D3H   BYTE   INSEG    CODE           ?PR?GPIO_GET_LEVEL?ZF_DRIVER_GPIO
FF0199H   FF019AH   000002H   ---    ---      **GAP**
FF019BH   FF019DH   000003H   ---    OFFS..   CODE           ?CO?ai8051u_isr?1
FF019EH   FF01A7H   00000AH   BYTE   INSEG    CODE           ?PR?KEY3_HANDLE1?MENU
FF01A8H   FF01AAH   000003H   ---    ---      **GAP**
FF01ABH   FF01ADH   000003H   ---    OFFS..   CODE           ?CO?ai8051u_isr?2
FF01AEH   FF01B7H   00000AH   BYTE   INSEG    CODE           ?PR?BUZZER_ON?BUZZER
FF01B8H   FF01BAH   000003H   ---    ---      **GAP**
FF01BBH   FF01BDH   000003H   ---    OFFS..   CODE           ?CO?ai8051u_isr?3
FF01BEH   FF01C6H   000009H   BYTE   INSEG    CODE           ?PR?BUZZER_OFF?BUZZER
FF01C7H   FF01CAH   000004H   ---    ---      **GAP**
FF01CBH   FF01CDH   000003H   ---    OFFS..   CODE           ?CO?ai8051u_isr?4
FF01CEH   FF021AH   00004DH   BYTE   INSEG    CODE           ?PR?FIFO_HEAD_OFFSET?ZF_COMMON_FIFO
FF021BH   FF021DH   000003H   ---    OFFS..   CODE           ?CO?ai8051u_isr?5
FF021EH   FF221DH   002000H   BYTE   UNIT     CODE           ?CO?ZF_DEVICE_CONFIG
L251 LINKER/LOCATER V4.66.93.0                                                        10/07/2025  14:20:36  PAGE 6


FF221EH   FF393FH   001722H   BYTE   UNIT     CODE           ?C?LIB_CODE
FF3940H   FF4617H   000CD8H   BYTE   UNIT     CODE           ?CO?OLED
FF4618H   FF4E34H   00081DH   BYTE   INSEG    CODE           ?PR?ZF_SPRINTF?ZF_COMMON_FUNCTION
FF4E35H   FF544BH   000617H   BYTE   INSEG    CODE           ?PR?SHOW_PARARM?FUNCTION
FF544CH   FF5A3BH   0005F0H   BYTE   UNIT     CODE           ?CO?ZF_COMMON_FONT
FF5A3CH   FF5F4BH   000510H   BYTE   INSEG    CODE           ?PR?PWM_INIT?ZF_DRIVER_PWM
FF5F4CH   FF63F0H   0004A5H   BYTE   INSEG    CODE           ?PR?SPI_INIT?ZF_DRIVER_SPI
FF63F1H   FF67EDH   0003FDH   BYTE   INSEG    CODE           ?PR?FIFO_WRITE_BUFFER?ZF_COMMON_FIFO
FF67EEH   FF6BBAH   0003CDH   BYTE   INSEG    CODE           ?PR?GPIO_SET_DIR?ZF_DRIVER_GPIO
FF6BBBH   FF6E96H   0002DCH   BYTE   INSEG    CODE           ?PR?TFT180_INIT?ZF_DEVICE_TFT180
FF6E97H   FF7162H   0002CCH   BYTE   INSEG    CODE           ?PR?STATE_OF_ROAD?STRATEGY
FF7163H   FF741BH   0002B9H   BYTE   INSEG    CODE           ?PR?GPIO_SET_LEVEL_SPEED?ZF_DRIVER_GPIO
FF741CH   FF7650H   000235H   BYTE   INSEG    CODE           ?PR?UART_INIT?ZF_DRIVER_UART
FF7651H   FF7876H   000226H   BYTE   INSEG    CODE           ?PR?GPIO_SET_MODE?ZF_DRIVER_GPIO
FF7877H   FF7A51H   0001DBH   BYTE   INSEG    CODE           ?PR?PIT_INIT?ZF_DRIVER_PIT
FF7A52H   FF7C15H   0001C4H   BYTE   INSEG    CODE           ?PR?TFT180_SHOW_FLOAT?ZF_DEVICE_TFT180
FF7C16H   FF7DB5H   0001A0H   BYTE   INSEG    CODE           ?PR?CYCLE_UPDATE?CONTROL
FF7DB6H   FF7F45H   000190H   BYTE   INSEG    CODE           ?PR?PWM_SET_DUTY?ZF_DRIVER_PWM
FF7F46H   FF80B8H   000173H   BYTE   INSEG    CODE           ?PR?GPIO_SET_LEVEL?ZF_DRIVER_GPIO
FF80B9H   FF8225H   00016DH   BYTE   INSEG    CODE           ?PR?TURN_MODE_INIT?FUNCTION
FF8226H   FF836CH   000147H   BYTE   INSEG    CODE           ?PR?UART_DMA_INIT?ZF_DRIVER_UART
FF836DH   FF84B2H   000146H   BYTE   INSEG    CODE           ?PR?GPIO_SET_IMPEDANCE?ZF_DRIVER_GPIO
FF84B3H   FF85F4H   000142H   BYTE   INSEG    CODE           ?PR?MOTOR_UPDATE?CONTROL
FF85F5H   FF8729H   000135H   BYTE   INSEG    CODE           ?PR?MENU_DISPLAY_CONTENT?MENU
FF872AH   FF885CH   000133H   BYTE   INSEG    CODE           ?PR?TFT180_SHOW_INT16?ZF_DEVICE_TFT180
FF885DH   FF897EH   000122H   BYTE   INSEG    CODE           ?PR?TFT180_SET_REGION?ZF_DEVICE_TFT180
FF897FH   FF8A98H   00011AH   BYTE   INSEG    CODE           ?PR?KEY_SCANER?KEY
FF8A99H   FF8B8BH   0000F3H   BYTE   INSEG    CODE           ?PR?IF_CYCLE?STRATEGY
FF8B8CH   FF8C7BH   0000F0H   BYTE   INSEG    CODE           ?PR?PID_UPDATE?CONTROL
FF8C7CH   FF8D67H   0000ECH   BYTE   INSEG    CODE           ?PR?_M?MAIN
FF8D68H   FF8E49H   0000E2H   BYTE   INSEG    CODE           ?PR?UART_WRITE_BUFFER?ZF_DRIVER_UART
FF8E4AH   FF8F2AH   0000E1H   BYTE   INSEG    CODE           ?PR?ADC_SAMPLEANDFILTER?ADC_GET
FF8F2BH   FF900AH   0000E0H   BYTE   INSEG    CODE           ?PR?TFT180_SHOW_CHAR?ZF_DEVICE_TFT180
FF900BH   FF90E9H   0000DFH   BYTE   INSEG    CODE           ?PR?SERVO_TURN_PID?CONTROL
FF90EAH   FF91C7H   0000DEH   BYTE   INSEG    CODE           ?PR?CLOCK_INIT?ZF_COMMON_CLOCK
FF91C8H   FF92A3H   0000DCH   BYTE   INSEG    CODE           ?PR?HANDLE_KEY1?MENU
FF92A4H   FF9373H   0000D0H   BYTE   INSEG    CODE           ?PR?MENU_SETCHILDREN?MENU
FF9374H   FF9441H   0000CEH   BYTE   INSEG    CODE           ?PR?KEY3_HANDLE2?MENU
FF9442H   FF9508H   0000C7H   BYTE   INSEG    CODE           ?PR?HANDLE_KEY4?MENU
FF9509H   FF95C4H   0000BCH   BYTE   INSEG    CODE           ?PR?GPIO_INIT?ZF_DRIVER_GPIO
FF95C5H   FF967FH   0000BBH   BYTE   INSEG    CODE           ?PR?PIT_HANDLER0?MAIN
FF9680H   FF973AH   0000BBH   BYTE   INSEG    CODE           ?PR?TURN_MODE?KEY
FF973BH   FF97EEH   0000B4H   BYTE   INSEG    CODE           ?PR?SOFT_IIC_READ_DATA?ZF_DRIVER_SOFT_IIC
FF97EFH   FF98A1H   0000B3H   BYTE   INSEG    CODE           ?PR?FAST_SQRT?FUNCTION
FF98A2H   FF994AH   0000A9H   BYTE   INSEG    CODE           ?PR?TFT180_SHOW_STRING?ZF_DEVICE_TFT180
FF994BH   FF99F0H   0000A6H   BYTE   INSEG    CODE           ?PR?ADC_FILTER?ADC_GET
FF99F1H   FF9A95H   0000A5H   BYTE   INSEG    CODE           ?PR?DMA_UART1_IRQHANDLER?ISR
FF9A96H   FF9B2CH   000097H   BYTE   INSEG    CODE           ?PR?DEBUG_INIT?ZF_COMMON_DEBUG
FF9B2DH   FF9BC2H   000096H   BYTE   INSEG    CODE           ?PR?INIT_ALL?FUNCTION
FF9BC3H   FF9C56H   000094H   BYTE   INSEG    CODE           ?PR?NUMBER_CONVERSION_ASCII?ZF_COMMON_FUNCTION
FF9C57H   FF9CE7H   000091H   BYTE   INSEG    CODE           ?PR?SOFT_IIC_SEND_DATA?ZF_DRIVER_SOFT_IIC
FF9CE8H   FF9D77H   000090H   BYTE   INSEG    CODE           ?PR?UART_RX_START_BUFF?ZF_DRIVER_UART
FF9D78H   FF9E02H   00008BH   BYTE   INSEG    CODE           ?PR?UNIFICATION?FUNCTION
FF9E03H   FF9E8BH   000089H   BYTE   INSEG    CODE           ?PR?DMA_UART2_IRQHANDLER?ISR
FF9E8CH   FF9F14H   000089H   BYTE   INSEG    CODE           ?PR?DMA_UART3_IRQHANDLER?ISR
FF9F15H   FF9F9DH   000089H   BYTE   INSEG    CODE           ?PR?DMA_UART4_IRQHANDLER?ISR
FF9F9EH   FFA024H   000087H   BYTE   INSEG    CODE           ?PR?ADC_INIT?ZF_DRIVER_ADC
FFA025H   FFA0A7H   000083H   BYTE   INSEG    CODE           ?PR?REFESH_ARROW?MENU
FFA0A8H   FFA128H   000081H   BYTE   INSEG    CODE           ?PR?FIFO_INIT?ZF_COMMON_FIFO
FFA129H   FFA1A1H   000079H   BYTE   INSEG    CODE           ?PR?SOFT_IIC_WAIT_ACK?ZF_DRIVER_SOFT_IIC
FFA1A2H   FFA218H   000077H   BYTE   INSEG    CODE           ?PR?SHOW_BUJIN?MENU
FFA219H   FFA28EH   000076H   BYTE   INSEG    CODE           ?PR?MOTOR_INIT?FUNCTION
FFA28FH   FFA301H   000073H   BYTE   INSEG    CODE           ?PR?SOFT_IIC_SEND_ACK?ZF_DRIVER_SOFT_IIC
FFA302H   FFA36CH   00006BH   BYTE   INSEG    CODE           ?PR?SYSTEM_DELAY_MS?ZF_DRIVER_DELAY
FFA36DH   FFA3D4H   000068H   BYTE   INSEG    CODE           ?PR?DEBUG_ASSERT_HANDLER?ZF_COMMON_DEBUG
L251 LINKER/LOCATER V4.66.93.0                                                        10/07/2025  14:20:36  PAGE 7


FFA3D5H   FFA43BH   000067H   BYTE   INSEG    CODE           ?PR?TFT180_CLEAR?ZF_DEVICE_TFT180
FFA43CH   FFA49DH   000062H   BYTE   INSEG    CODE           ?PR?SOFT_IIC_STOP?ZF_DRIVER_SOFT_IIC
FFA49EH   FFA4FFH   000062H   BYTE   INSEG    CODE           ?PR?UART_QUERY_BYTE?ZF_DRIVER_UART
FFA500H   FFA55CH   00005DH   BYTE   INSEG    CODE           ?PR?SYSTEM_DELAY_INIT?ZF_DRIVER_DELAY
FFA55DH   FFA57DH   000021H   BYTE   UNIT     CODE           ?C_C51STARTUP
FFA57EH   FFA57FH   000002H   BYTE   UNIT     CODE           ?C_C51STARTUP?1
FFA580H   FFA5B0H   000031H   BYTE   UNIT     CODE           ?C_C51STARTUP?2
FFA5B1H   FFA5B3H   000003H   BYTE   UNIT     CODE           ?C_C51STARTUP?3
FFA5B4H   FFA60AH   000057H   BYTE   INSEG    CODE           ?PR?SOFT_IIC_START?ZF_DRIVER_SOFT_IIC
FFA60BH   FFA660H   000056H   BYTE   INSEG    CODE           ?PR?SERVE_TEST?DEVICE_TEST
FFA661H   FFA6B3H   000053H   BYTE   INSEG    CODE           ?PR?HELP_TURN?STRATEGY
FFA6B4H   FFA705H   000052H   BYTE   INSEG    CODE           ?PR?HANDLE_KEY3?MENU
FFA706H   FFA751H   00004CH   BYTE   INSEG    CODE           ?PR?TIMER_FUNCITON_CHECK?ZF_DRIVER_TIMER
FFA752H   FFA79DH   00004CH   BYTE   INSEG    CODE           ?PR?UART_FUNCITON_CHECK?ZF_DRIVER_UART
FFA79EH   FFA7E8H   00004BH   BYTE   INSEG    CODE           ?PR?TM11_IRQHANDLER?ISR
FFA7E9H   FFA830H   000048H   BYTE   INSEG    CODE           ?PR?PRINTF_REVERSE_ORDER?ZF_COMMON_FUNCTION
FFA831H   FFA875H   000045H   BYTE   INSEG    CODE           ?PR?UART_RX_INTERRUPT?ZF_DRIVER_UART
FFA876H   FFA8BAH   000045H   BYTE   INSEG    CODE           ?PR?KEY_NUMBER?KEY
FFA8BBH   FFA8FDH   000043H   BYTE   INSEG    CODE           ?PR?HANDLE_KEY2?MENU
FFA8FEH   FFA93FH   000042H   BYTE   INSEG    CODE           ?PR?SPI_WRITE_DAT?ZF_DRIVER_SPI
FFA940H   FFA97FH   000040H   BYTE   INSEG    CODE           ?PR?PROTECT?FUNCTION
FFA980H   FFA9BDH   00003EH   BYTE   INSEG    CODE           ?PR?TM0_IRQHANDLER?ISR
FFA9BEH   FFA9FBH   00003EH   BYTE   INSEG    CODE           ?PR?TM1_IRQHANDLER?ISR
FFA9FCH   FFAA39H   00003EH   BYTE   INSEG    CODE           ?PR?TM2_IRQHANDLER?ISR
FFAA3AH   FFAA77H   00003EH   BYTE   INSEG    CODE           ?PR?TM3_IRQHANDLER?ISR
FFAA78H   FFAAB5H   00003EH   BYTE   INSEG    CODE           ?PR?TM4_IRQHANDLER?ISR
FFAAB6H   FFAAF2H   00003DH   BYTE   INSEG    CODE           ?PR?MOTORL_SETSPEED?CONTROL
FFAAF3H   FFAB2FH   00003DH   BYTE   INSEG    CODE           ?PR?MOTORR_SETSPEED?CONTROL
FFAB30H   FFAB68H   000039H   BYTE   INSEG    CODE           ?PR?DEBUG_INTERRUPR_HANDLER?ZF_COMMON_DEBUG
FFAB69H   FFABA0H   000038H   BYTE   INSEG    CODE           ?PR?SOFT_IIC_DELAY?ZF_DRIVER_SOFT_IIC
FFABA1H   FFABD3H   000033H   BYTE   INSEG    CODE           ?PR?PWM_TEST?DEVICE_TEST
FFABD4H   FFAC03H   000030H   BYTE   INSEG    CODE           ?PR?ADC_CONVERT?ZF_DRIVER_ADC
FFAC04H   FFAC33H   000030H   BYTE   INSEG    CODE           ?PR?MENU_INIT?MENU
FFAC34H   FFAC61H   00002EH   BYTE   INSEG    CODE           ?PR?SHOW_TEST_INFO?FUNCTION
FFAC62H   FFAC8FH   00002EH   BYTE   INSEG    CODE           ?PR?MENU_HANDLE_KEY?MENU
FFAC90H   FFACBCH   00002DH   BYTE   INSEG    CODE           ?PR?ADC_GETINIT?ADC_GET
FFACBDH   FFACE3H   000027H   BYTE   INSEG    CODE           ?PR?TFT180_SET_DIR?ZF_DEVICE_TFT180
FFACE4H   FFAD08H   000025H   BYTE   INSEG    CODE           ?PR?MEMCPY?_?MEMCPY
FFAD09H   FFAD27H   00001FH   BYTE   INSEG    CODE           ?PR?SPI_WRITE_16BIT?ZF_DRIVER_SPI
FFAD28H   FFAD3BH   000014H   BYTE   INSEG    CODE           ?PR?UART_WRITE_BYTE?ZF_DRIVER_UART
FFAD3CH   FFAD4EH   000013H   BYTE   INSEG    CODE           ?PR?PIT_HANDLER1?MAIN
FFAD4FH   FFAD60H   000012H   BYTE   INSEG    CODE           ?PR?CAR_STOP?FUNCTION
FFAD61H   FFAD71H   000011H   BYTE   INSEG    CODE           ?PR?SHOW_ALL_MENU?MENU
FFAD72H   FFAD82H   000011H   BYTE   INSEG    CODE           ?PR?SET_SEVO?DEVICE_TEST
FFAD83H   FFAD93H   000011H   BYTE   INSEG    CODE           ?PR?BUZZER_INIT?BUZZER
FFAD94H   FFADA3H   000010H   BYTE   INSEG    CODE           ?PR?PUTCHAR?ZF_COMMON_DEBUG
FFADA4H   FFADB3H   000010H   BYTE   INSEG    CODE           ?PR?SER_SERVO_DUTY?CONTROL
FFADB4H   FFADC3H   000010H   BYTE   INSEG    CODE           ?PR?GO_FUNCTION?FUNCTION
FFADC4H   FFB8A3H   000AE0H   BYTE   UNIT     HCONST         ?C_INITHDATA
FFB8A4H   FFBEA3H   000600H   BYTE   UNIT     HCONST         ?HC?EEPROM
FFBEA4H   FFC0A3H   000200H   BYTE   UNIT     HCONST         ?HC?ZF_DRIVER_EEPROM
FFC0A4H   FFC1D2H   00012FH   BYTE   UNIT     HCONST         ?HC?ZF_DEVICE_DL1A
FFC1D3H   FFC2BCH   0000EAH   BYTE   UNIT     HCONST         ?HC?FUNCTION
FFC2BDH   FFC38CH   0000D0H   BYTE   UNIT     HCONST         ?HC?ZF_DEVICE_IMU963RA
FFC38DH   FFC433H   0000A7H   BYTE   UNIT     HCONST         ?HC?ZF_DEVICE_IMU660RA
FFC434H   FFC4D7H   0000A4H   BYTE   UNIT     HCONST         ?HC?SEEKFREE_ASSISTANT
FFC4D8H   FFC579H   0000A2H   BYTE   UNIT     HCONST         ?HC?ZF_DEVICE_GPS_TAU1201
FFC57AH   FFC603H   00008AH   BYTE   UNIT     HCONST         ?HC?ZF_DRIVER_PWM
FFC604H   FFC68BH   000088H   BYTE   UNIT     HCONST         ?HC?ZF_DEVICE_ICM20602
FFC68CH   FFC6CAH   00003FH   BYTE   UNIT     HCONST         ?HC?ZF_COMMON_FUNCTION
FFC6CBH   FFC6FEH   000034H   BYTE   UNIT     HCONST         ?HC?ZF_DEVICE_WIRELESS_UART
FFC6FFH   FFC731H   000033H   BYTE   UNIT     HCONST         ?HC?ZF_DEVICE_TFT180
FFC732H   FFC764H   000033H   BYTE   UNIT     HCONST         ?HC?ZF_DEVICE_IPS114
FFC765H   FFC797H   000033H   BYTE   UNIT     HCONST         ?HC?ZF_DEVICE_IPS200
FFC798H   FFC7C7H   000030H   BYTE   UNIT     HCONST         ?HC?KEY
L251 LINKER/LOCATER V4.66.93.0                                                        10/07/2025  14:20:36  PAGE 8


FFC7C8H   FFC7F6H   00002FH   BYTE   UNIT     HCONST         ?HC?ZF_DRIVER_SOFT_IIC
FFC7F7H   FFC825H   00002FH   BYTE   UNIT     HCONST         ?HC?ZF_DRIVER_SOFT_SPI
FFC826H   FFC853H   00002EH   BYTE   UNIT     HCONST         ?HC?ZF_DRIVER_ENCODER
FFC854H   FFC881H   00002EH   BYTE   UNIT     HCONST         ?HC?ZF_DEVICE_BLE6A20
FFC882H   FFC8ACH   00002BH   BYTE   UNIT     HCONST         ?HC?ZF_COMMON_FIFO
FFC8ADH   FFC8D7H   00002BH   BYTE   UNIT     HCONST         ?HC?ZF_DRIVER_GPIO
FFC8D8H   FFC902H   00002BH   BYTE   UNIT     HCONST         ?HC?ZF_DRIVER_UART
FFC903H   FFC92CH   00002AH   BYTE   UNIT     HCONST         ?HC?ZF_DRIVER_ADC
FFC92DH   FFC956H   00002AH   BYTE   UNIT     HCONST         ?HC?ZF_DRIVER_SPI
FFC957H   FFC97EH   000028H   BYTE   UNIT     HCONST         ?HC?MENU
FFC97FH   FFC9A3H   000025H   BYTE   UNIT     HCONST         ?HC?ZF_COMMON_DEBUG
FFC9A4H   FFC9BEH   00001BH   BYTE   UNIT     HCONST         ?HC?ZF_DEVICE_IMU660RB
FFC9BFH   FFC9D5H   000017H   BYTE   UNIT     HCONST         ?HC?STRATEGY

* * * * * * * * *   R E M O V E D     S E G M E N T S   * * * * * * * *
   *DEL*:           00003EH   BYTE   INSEG    CODE           ?PR?DEBUG_READ_BUFFER?ZF_COMMON_DEBUG
   *DEL*:           000045H   BYTE   INSEG    CODE           ?PR?DEBUG_SEND_BUFFER?ZF_COMMON_DEBUG
   *DEL*:           000004H   BYTE   UNIT     XDATA          ?XD?DEBUG_SEND_BUFFER?ZF_COMMON_DEBUG
   *DEL*:           000004H   BYTE   UNIT     XDATA          ?XD?DEBUG_READ_BUFFER?ZF_COMMON_DEBUG
   *DEL*:           00043DH   BYTE   INSEG    CODE           ?PR?FIFO_READ_BUFFER?ZF_COMMON_FIFO
   *DEL*:           0000C7H   BYTE   INSEG    CODE           ?PR?FIFO_CLEAR?ZF_COMMON_FIFO
   *DEL*:           00004DH   BYTE   INSEG    CODE           ?PR?FIFO_END_OFFSET?ZF_COMMON_FIFO
   *DEL*:           000033H   BYTE   INSEG    CODE           ?PR?FIFO_USED?ZF_COMMON_FIFO
   *DEL*:           000002H   BYTE   UNIT     XDATA          ?XD?FIFO_CLEAR?ZF_COMMON_FIFO
   *DEL*:           000014H   BYTE   UNIT     XDATA          ?XD?FIFO_READ_BUFFER?ZF_COMMON_FIFO
   *DEL*:           0002D1H   BYTE   INSEG    CODE           ?PR?FUNC_DOUBLE_TO_STR?ZF_COMMON_FUNCTION
   *DEL*:           000245H   BYTE   INSEG    CODE           ?PR?FUNC_STR_TO_DOUBLE?ZF_COMMON_FUNCTION
   *DEL*:           000298H   BYTE   INSEG    CODE           ?PR?FUNC_FLOAT_TO_STR?ZF_COMMON_FUNCTION
   *DEL*:           00019DH   BYTE   INSEG    CODE           ?PR?FUNC_STR_TO_FLOAT?ZF_COMMON_FUNCTION
   *DEL*:           000024H   BYTE   INSEG    CODE           ?PR?FUNC_SOFT_DELAY?ZF_COMMON_FUNCTION
   *DEL*:           0000CCH   BYTE   INSEG    CODE           ?PR?FUNC_UINT_TO_STR?ZF_COMMON_FUNCTION
   *DEL*:           000079H   BYTE   INSEG    CODE           ?PR?FUNC_STR_TO_UINT?ZF_COMMON_FUNCTION
   *DEL*:           0000FAH   BYTE   INSEG    CODE           ?PR?FUNC_HEX_TO_STR?ZF_COMMON_FUNCTION
   *DEL*:           00011BH   BYTE   INSEG    CODE           ?PR?FUNC_STR_TO_HEX?ZF_COMMON_FUNCTION
   *DEL*:           000149H   BYTE   INSEG    CODE           ?PR?FUNC_INT_TO_STR?ZF_COMMON_FUNCTION
   *DEL*:           0000BAH   BYTE   INSEG    CODE           ?PR?FUNC_STR_TO_INT?ZF_COMMON_FUNCTION
   *DEL*:           000019H   BYTE   INSEG    CODE           ?PR?FUNC_GET_GREATEST_COMMON_DIVISOR?ZF_COMMON_FUNCTION
   *DEL*:           000004H   BYTE   UNIT     XDATA          ?XD?FUNC_SOFT_DELAY?ZF_COMMON_FUNCTION
   *DEL*:           000005H   BYTE   UNIT     XDATA          ?XD?FUNC_STR_TO_INT?ZF_COMMON_FUNCTION
   *DEL*:           000019H   BYTE   UNIT     XDATA          ?XD?FUNC_INT_TO_STR?ZF_COMMON_FUNCTION
   *DEL*:           000004H   BYTE   UNIT     XDATA          ?XD?FUNC_STR_TO_UINT?ZF_COMMON_FUNCTION
   *DEL*:           000015H   BYTE   UNIT     XDATA          ?XD?FUNC_UINT_TO_STR?ZF_COMMON_FUNCTION
   *DEL*:           00000DH   BYTE   UNIT     XDATA          ?XD?FUNC_STR_TO_FLOAT?ZF_COMMON_FUNCTION
   *DEL*:           000026H   BYTE   UNIT     XDATA          ?XD?FUNC_FLOAT_TO_STR?ZF_COMMON_FUNCTION
   *DEL*:           000019H   BYTE   UNIT     XDATA          ?XD?FUNC_STR_TO_DOUBLE?ZF_COMMON_FUNCTION
   *DEL*:           000038H   BYTE   UNIT     XDATA          ?XD?FUNC_DOUBLE_TO_STR?ZF_COMMON_FUNCTION
   *DEL*:           00000AH   BYTE   UNIT     XDATA          ?XD?FUNC_STR_TO_HEX?ZF_COMMON_FUNCTION
   *DEL*:           000021H   BYTE   UNIT     XDATA          ?XD?FUNC_HEX_TO_STR?ZF_COMMON_FUNCTION
   *DEL*:           000003H   BYTE   INSEG    CODE           ?PR?INTERRUPT_GLOBAL_DISABLE?ZF_COMMON_INTERRUPT
   *DEL*:           0000BAH   BYTE   INSEG    CODE           ?PR?INTERRUPT_SET_PRIORITY?ZF_COMMON_INTERRUPT
   *DEL*:           00006EH   BYTE   INSEG    CODE           ?PR?ADC_MEAN_FILTER_CONVERT?ZF_DRIVER_ADC
   *DEL*:           000004H   BYTE   UNIT     XDATA          ?XD?ADC_MEAN_FILTER_CONVERT?ZF_DRIVER_ADC
   *DEL*:           00006BH   BYTE   INSEG    CODE           ?PR?SYSTEM_DELAY_US?ZF_DRIVER_DELAY
   *DEL*:           00001CH   BYTE   INSEG    CODE           ?PR?IAP_SET_TPS?ZF_DRIVER_EEPROM
   *DEL*:           00000BH   BYTE   INSEG    CODE           ?PR?EEPROM_TRIG?ZF_DRIVER_EEPROM
   *DEL*:           000028H   BYTE   INSEG    CODE           ?PR?IAP_ERASE_PAGE?ZF_DRIVER_EEPROM
   *DEL*:           000004H   BYTE   INSEG    CODE           ?PR?IAP_IDLE?ZF_DRIVER_EEPROM
   *DEL*:           000049H   BYTE   INSEG    CODE           ?PR?IAP_READ_BUFF?ZF_DRIVER_EEPROM
   *DEL*:           0000F8H   BYTE   INSEG    CODE           ?PR?EXTERN_IAP_WRITE_BUFF?ZF_DRIVER_EEPROM
   *DEL*:           000049H   BYTE   INSEG    CODE           ?PR?IAP_WRITE_BUFF?ZF_DRIVER_EEPROM
   *DEL*:           000023H   BYTE   INSEG    CODE           ?PR?IAP_READ_BYTE?ZF_DRIVER_EEPROM
   *DEL*:           000007H   BYTE   INSEG    CODE           ?PR?IAP_INIT?ZF_DRIVER_EEPROM
   *DEL*:           00002AH   BYTE   INSEG    CODE           ?PR?IAP_WRITE_BYTE?ZF_DRIVER_EEPROM
   *DEL*:           00000DH   BYTE   INSEG    CODE           ?PR?IAP_GET_CMD_STATE?ZF_DRIVER_EEPROM
   *DEL*:           000000H.1 BIT    UNIT     BIT            ?BI?IAP_READ_BYTE?ZF_DRIVER_EEPROM
L251 LINKER/LOCATER V4.66.93.0                                                        10/07/2025  14:20:36  PAGE 9


   *DEL*:           000000H.1 BIT    UNIT     BIT            ?BI?IAP_WRITE_BYTE?ZF_DRIVER_EEPROM
   *DEL*:           000006H   BYTE   UNIT     XDATA          ?XD?IAP_READ_BUFF?ZF_DRIVER_EEPROM
   *DEL*:           000006H   BYTE   UNIT     XDATA          ?XD?IAP_WRITE_BUFF?ZF_DRIVER_EEPROM
   *DEL*:           000000H.1 BIT    UNIT     BIT            ?BI?IAP_ERASE_PAGE?ZF_DRIVER_EEPROM
   *DEL*:           000206H   BYTE   UNIT     XDATA          ?XD?EXTERN_IAP_WRITE_BUFF?ZF_DRIVER_EEPROM
   *DEL*:           0000A5H   BYTE   INSEG    CODE           ?PR?ENCODER_GET_COUNT?ZF_DRIVER_ENCODER
   *DEL*:           00010CH   BYTE   INSEG    CODE           ?PR?ENCODER_DIR_INIT?ZF_DRIVER_ENCODER
   *DEL*:           000095H   BYTE   INSEG    CODE           ?PR?ENCODER_CLEAR_COUNT?ZF_DRIVER_ENCODER
   *DEL*:           000002H   BYTE   UNIT     XDATA          ?XD?ENCODER_DIR_INIT?ZF_DRIVER_ENCODER
   *DEL*:           00001BH   BYTE   INSEG    CODE           ?PR?GPIO_TOGGLE_LEVEL?ZF_DRIVER_GPIO
   *DEL*:           00025FH   BYTE   INSEG    CODE           ?PR?PWM_SET_FREQ?ZF_DRIVER_PWM
   *DEL*:           000010H   BYTE   UNIT     XDATA          ?XD?PWM_SET_FREQ?ZF_DRIVER_PWM
   *DEL*:           000052H   BYTE   INSEG    CODE           ?PR?SOFT_IIC_WRITE_8BIT_REGISTER?ZF_DRIVER_SOFT_IIC
   *DEL*:           00010DH   BYTE   INSEG    CODE           ?PR?SOFT_IIC_READ_16BIT_REGISTERS?ZF_DRIVER_SOFT_IIC
   *DEL*:           00006EH   BYTE   INSEG    CODE           ?PR?SOFT_IIC_SCCB_READ_REGISTER?ZF_DRIVER_SOFT_IIC
   *DEL*:           0000A5H   BYTE   INSEG    CODE           ?PR?SOFT_IIC_READ_16BIT_REGISTER?ZF_DRIVER_SOFT_IIC
   *DEL*:           000176H   BYTE   INSEG    CODE           ?PR?SOFT_IIC_TRANSFER_16BIT_ARRAY?ZF_DRIVER_SOFT_IIC
   *DEL*:           0000D0H   BYTE   INSEG    CODE           ?PR?SOFT_IIC_WRITE_16BIT_REGISTERS?ZF_DRIVER_SOFT_IIC
   *DEL*:           000052H   BYTE   INSEG    CODE           ?PR?SOFT_IIC_SCCB_WRITE_REGISTER?ZF_DRIVER_SOFT_IIC
   *DEL*:           00004CH   BYTE   INSEG    CODE           ?PR?SOFT_IIC_READ_8BIT?ZF_DRIVER_SOFT_IIC
   *DEL*:           0000BAH   BYTE   INSEG    CODE           ?PR?SOFT_IIC_READ_8BIT_ARRAY?ZF_DRIVER_SOFT_IIC
   *DEL*:           000082H   BYTE   INSEG    CODE           ?PR?SOFT_IIC_WRITE_16BIT_REGISTER?ZF_DRIVER_SOFT_IIC
   *DEL*:           000043H   BYTE   INSEG    CODE           ?PR?SOFT_IIC_WRITE_8BIT?ZF_DRIVER_SOFT_IIC
   *DEL*:           000098H   BYTE   INSEG    CODE           ?PR?SOFT_IIC_WRITE_8BIT_ARRAY?ZF_DRIVER_SOFT_IIC
   *DEL*:           00006FH   BYTE   INSEG    CODE           ?PR?SOFT_IIC_READ_16BIT?ZF_DRIVER_SOFT_IIC
   *DEL*:           0000E1H   BYTE   INSEG    CODE           ?PR?SOFT_IIC_READ_16BIT_ARRAY?ZF_DRIVER_SOFT_IIC
   *DEL*:           0000A6H   BYTE   INSEG    CODE           ?PR?SOFT_IIC_INIT?ZF_DRIVER_SOFT_IIC
   *DEL*:           0000D7H   BYTE   INSEG    CODE           ?PR?SOFT_IIC_READ_8BIT_REGISTERS?ZF_DRIVER_SOFT_IIC
   *DEL*:           00005CH   BYTE   INSEG    CODE           ?PR?SOFT_IIC_WRITE_16BIT?ZF_DRIVER_SOFT_IIC
   *DEL*:           0000B4H   BYTE   INSEG    CODE           ?PR?SOFT_IIC_WRITE_16BIT_ARRAY?ZF_DRIVER_SOFT_IIC
   *DEL*:           000069H   BYTE   INSEG    CODE           ?PR?SOFT_IIC_READ_8BIT_REGISTER?ZF_DRIVER_SOFT_IIC
   *DEL*:           000130H   BYTE   INSEG    CODE           ?PR?SOFT_IIC_TRANSFER_8BIT_ARRAY?ZF_DRIVER_SOFT_IIC
   *DEL*:           0000A5H   BYTE   INSEG    CODE           ?PR?SOFT_IIC_WRITE_8BIT_REGISTERS?ZF_DRIVER_SOFT_IIC
   *DEL*:           000001H   BYTE   UNIT     XDATA          ?XD?SOFT_IIC_WRITE_8BIT?ZF_DRIVER_SOFT_IIC
   *DEL*:           000008H   BYTE   UNIT     XDATA          ?XD?SOFT_IIC_WRITE_8BIT_ARRAY?ZF_DRIVER_SOFT_IIC
   *DEL*:           000002H   BYTE   UNIT     XDATA          ?XD?SOFT_IIC_WRITE_16BIT?ZF_DRIVER_SOFT_IIC
   *DEL*:           000008H   BYTE   UNIT     XDATA          ?XD?SOFT_IIC_WRITE_16BIT_ARRAY?ZF_DRIVER_SOFT_IIC
   *DEL*:           000002H   BYTE   UNIT     XDATA          ?XD?SOFT_IIC_WRITE_8BIT_REGISTER?ZF_DRIVER_SOFT_IIC
   *DEL*:           000009H   BYTE   UNIT     XDATA          ?XD?SOFT_IIC_WRITE_8BIT_REGISTERS?ZF_DRIVER_SOFT_IIC
   *DEL*:           000004H   BYTE   UNIT     XDATA          ?XD?SOFT_IIC_WRITE_16BIT_REGISTER?ZF_DRIVER_SOFT_IIC
   *DEL*:           00000AH   BYTE   UNIT     XDATA          ?XD?SOFT_IIC_WRITE_16BIT_REGISTERS?ZF_DRIVER_SOFT_IIC
   *DEL*:           000001H   BYTE   UNIT     XDATA          ?XD?SOFT_IIC_READ_8BIT?ZF_DRIVER_SOFT_IIC
   *DEL*:           000008H   BYTE   UNIT     XDATA          ?XD?SOFT_IIC_READ_8BIT_ARRAY?ZF_DRIVER_SOFT_IIC
   *DEL*:           000002H   BYTE   UNIT     XDATA          ?XD?SOFT_IIC_READ_16BIT?ZF_DRIVER_SOFT_IIC
   *DEL*:           000008H   BYTE   UNIT     XDATA          ?XD?SOFT_IIC_READ_16BIT_ARRAY?ZF_DRIVER_SOFT_IIC
   *DEL*:           000002H   BYTE   UNIT     XDATA          ?XD?SOFT_IIC_READ_8BIT_REGISTER?ZF_DRIVER_SOFT_IIC
   *DEL*:           000009H   BYTE   UNIT     XDATA          ?XD?SOFT_IIC_READ_8BIT_REGISTERS?ZF_DRIVER_SOFT_IIC
   *DEL*:           000004H   BYTE   UNIT     XDATA          ?XD?SOFT_IIC_READ_16BIT_REGISTER?ZF_DRIVER_SOFT_IIC
   *DEL*:           00000AH   BYTE   UNIT     XDATA          ?XD?SOFT_IIC_READ_16BIT_REGISTERS?ZF_DRIVER_SOFT_IIC
   *DEL*:           000010H   BYTE   UNIT     XDATA          ?XD?SOFT_IIC_TRANSFER_8BIT_ARRAY?ZF_DRIVER_SOFT_IIC
   *DEL*:           000010H   BYTE   UNIT     XDATA          ?XD?SOFT_IIC_TRANSFER_16BIT_ARRAY?ZF_DRIVER_SOFT_IIC
   *DEL*:           000002H   BYTE   UNIT     XDATA          ?XD?SOFT_IIC_SCCB_WRITE_REGISTER?ZF_DRIVER_SOFT_IIC
   *DEL*:           000002H   BYTE   UNIT     XDATA          ?XD?SOFT_IIC_SCCB_READ_REGISTER?ZF_DRIVER_SOFT_IIC
   *DEL*:           000009H   BYTE   UNIT     XDATA          ?XD?SOFT_IIC_INIT?ZF_DRIVER_SOFT_IIC
   *DEL*:           00023EH   BYTE   INSEG    CODE           ?PR?SOFT_SPI_INIT?ZF_DRIVER_SOFT_SPI
   *DEL*:           0000BBH   BYTE   INSEG    CODE           ?PR?SOFT_SPI_READ_8BIT_REGISTERS?ZF_DRIVER_SOFT_SPI
   *DEL*:           00004FH   BYTE   INSEG    CODE           ?PR?SOFT_SPI_WRITE_16BIT?ZF_DRIVER_SOFT_SPI
   *DEL*:           00010EH   BYTE   INSEG    CODE           ?PR?SOFT_SPI_8BIT_DATA_HANDLER?ZF_DRIVER_SOFT_SPI
   *DEL*:           0000A0H   BYTE   INSEG    CODE           ?PR?SOFT_SPI_WRITE_16BIT_ARRAY?ZF_DRIVER_SOFT_SPI
   *DEL*:           00005EH   BYTE   INSEG    CODE           ?PR?SOFT_SPI_READ_8BIT_REGISTER?ZF_DRIVER_SOFT_SPI
   *DEL*:           000102H   BYTE   INSEG    CODE           ?PR?SOFT_SPI_TRANSFER_8BIT?ZF_DRIVER_SOFT_SPI
   *DEL*:           0000ADH   BYTE   INSEG    CODE           ?PR?SOFT_SPI_WRITE_8BIT_REGISTERS?ZF_DRIVER_SOFT_SPI
   *DEL*:           00005AH   BYTE   INSEG    CODE           ?PR?SOFT_SPI_WRITE_8BIT_REGISTER?ZF_DRIVER_SOFT_SPI
   *DEL*:           0000B8H   BYTE   INSEG    CODE           ?PR?SOFT_SPI_READ_16BIT_REGISTERS?ZF_DRIVER_SOFT_SPI
   *DEL*:           000133H   BYTE   INSEG    CODE           ?PR?SOFT_SPI_16BIT_DATA_HANDLER?ZF_DRIVER_SOFT_SPI
L251 LINKER/LOCATER V4.66.93.0                                                        10/07/2025  14:20:36  PAGE 10


   *DEL*:           00006AH   BYTE   INSEG    CODE           ?PR?SOFT_SPI_READ_16BIT_REGISTER?ZF_DRIVER_SOFT_SPI
   *DEL*:           000104H   BYTE   INSEG    CODE           ?PR?SOFT_SPI_TRANSFER_16BIT?ZF_DRIVER_SOFT_SPI
   *DEL*:           0000A7H   BYTE   INSEG    CODE           ?PR?SOFT_SPI_WRITE_16BIT_REGISTERS?ZF_DRIVER_SOFT_SPI
   *DEL*:           000051H   BYTE   INSEG    CODE           ?PR?SOFT_SPI_READ_8BIT?ZF_DRIVER_SOFT_SPI
   *DEL*:           0000AEH   BYTE   INSEG    CODE           ?PR?SOFT_SPI_READ_8BIT_ARRAY?ZF_DRIVER_SOFT_SPI
   *DEL*:           000060H   BYTE   INSEG    CODE           ?PR?SOFT_SPI_WRITE_16BIT_REGISTER?ZF_DRIVER_SOFT_SPI
   *DEL*:           00004BH   BYTE   INSEG    CODE           ?PR?SOFT_SPI_WRITE_8BIT?ZF_DRIVER_SOFT_SPI
   *DEL*:           0000A0H   BYTE   INSEG    CODE           ?PR?SOFT_SPI_WRITE_8BIT_ARRAY?ZF_DRIVER_SOFT_SPI
   *DEL*:           000026H   BYTE   INSEG    CODE           ?PR?SOFT_SPI_DELAY?ZF_DRIVER_SOFT_SPI
   *DEL*:           000056H   BYTE   INSEG    CODE           ?PR?SOFT_SPI_READ_16BIT?ZF_DRIVER_SOFT_SPI
   *DEL*:           0000B1H   BYTE   INSEG    CODE           ?PR?SOFT_SPI_READ_16BIT_ARRAY?ZF_DRIVER_SOFT_SPI
   *DEL*:           000004H   BYTE   UNIT     XDATA          ?XD?SOFT_SPI_DELAY?ZF_DRIVER_SOFT_SPI
   *DEL*:           000003H   BYTE   UNIT     XDATA          ?XD?SOFT_SPI_8BIT_DATA_HANDLER?ZF_DRIVER_SOFT_SPI
   *DEL*:           000005H   BYTE   UNIT     XDATA          ?XD?SOFT_SPI_16BIT_DATA_HANDLER?ZF_DRIVER_SOFT_SPI
   *DEL*:           000001H   BYTE   UNIT     XDATA          ?XD?SOFT_SPI_WRITE_8BIT?ZF_DRIVER_SOFT_SPI
   *DEL*:           000008H   BYTE   UNIT     XDATA          ?XD?SOFT_SPI_WRITE_8BIT_ARRAY?ZF_DRIVER_SOFT_SPI
   *DEL*:           000002H   BYTE   UNIT     XDATA          ?XD?SOFT_SPI_WRITE_16BIT?ZF_DRIVER_SOFT_SPI
   *DEL*:           000008H   BYTE   UNIT     XDATA          ?XD?SOFT_SPI_WRITE_16BIT_ARRAY?ZF_DRIVER_SOFT_SPI
   *DEL*:           000002H   BYTE   UNIT     XDATA          ?XD?SOFT_SPI_WRITE_8BIT_REGISTER?ZF_DRIVER_SOFT_SPI
   *DEL*:           000009H   BYTE   UNIT     XDATA          ?XD?SOFT_SPI_WRITE_8BIT_REGISTERS?ZF_DRIVER_SOFT_SPI
   *DEL*:           000004H   BYTE   UNIT     XDATA          ?XD?SOFT_SPI_WRITE_16BIT_REGISTER?ZF_DRIVER_SOFT_SPI
   *DEL*:           00000AH   BYTE   UNIT     XDATA          ?XD?SOFT_SPI_WRITE_16BIT_REGISTERS?ZF_DRIVER_SOFT_SPI
   *DEL*:           000001H   BYTE   UNIT     XDATA          ?XD?SOFT_SPI_READ_8BIT?ZF_DRIVER_SOFT_SPI
   *DEL*:           000008H   BYTE   UNIT     XDATA          ?XD?SOFT_SPI_READ_8BIT_ARRAY?ZF_DRIVER_SOFT_SPI
   *DEL*:           000001H   BYTE   UNIT     XDATA          ?XD?SOFT_SPI_READ_16BIT?ZF_DRIVER_SOFT_SPI
   *DEL*:           000008H   BYTE   UNIT     XDATA          ?XD?SOFT_SPI_READ_16BIT_ARRAY?ZF_DRIVER_SOFT_SPI
   *DEL*:           000002H   BYTE   UNIT     XDATA          ?XD?SOFT_SPI_READ_8BIT_REGISTER?ZF_DRIVER_SOFT_SPI
   *DEL*:           000009H   BYTE   UNIT     XDATA          ?XD?SOFT_SPI_READ_8BIT_REGISTERS?ZF_DRIVER_SOFT_SPI
   *DEL*:           000004H   BYTE   UNIT     XDATA          ?XD?SOFT_SPI_READ_16BIT_REGISTER?ZF_DRIVER_SOFT_SPI
   *DEL*:           00000AH   BYTE   UNIT     XDATA          ?XD?SOFT_SPI_READ_16BIT_REGISTERS?ZF_DRIVER_SOFT_SPI
   *DEL*:           00000CH   BYTE   UNIT     XDATA          ?XD?SOFT_SPI_TRANSFER_8BIT?ZF_DRIVER_SOFT_SPI
   *DEL*:           00000CH   BYTE   UNIT     XDATA          ?XD?SOFT_SPI_TRANSFER_16BIT?ZF_DRIVER_SOFT_SPI
   *DEL*:           000011H   BYTE   UNIT     XDATA          ?XD?SOFT_SPI_INIT?ZF_DRIVER_SOFT_SPI
   *DEL*:           00001BH   BYTE   INSEG    CODE           ?PR?SPI_WRITE_8BIT_REGISTER?ZF_DRIVER_SPI
   *DEL*:           00007FH   BYTE   INSEG    CODE           ?PR?SPI_READ_16BIT_REGISTERS?ZF_DRIVER_SPI
   *DEL*:           000057H   BYTE   INSEG    CODE           ?PR?SPI_READ_16BIT_REGISTER?ZF_DRIVER_SPI
   *DEL*:           0000C3H   BYTE   INSEG    CODE           ?PR?SPI_TRANSFER_16BIT?ZF_DRIVER_SPI
   *DEL*:           000060H   BYTE   INSEG    CODE           ?PR?SPI_WRITE_16BIT_REGISTERS?ZF_DRIVER_SPI
   *DEL*:           000005H   BYTE   INSEG    CODE           ?PR?SPI_READ_8BIT?ZF_DRIVER_SPI
   *DEL*:           000037H   BYTE   INSEG    CODE           ?PR?SPI_READ_8BIT_ARRAY?ZF_DRIVER_SPI
   *DEL*:           000045H   BYTE   INSEG    CODE           ?PR?SPI_WRITE_16BIT_REGISTER?ZF_DRIVER_SPI
   *DEL*:           000036H   BYTE   INSEG    CODE           ?PR?SPI_WRITE_8BIT_ARRAY?ZF_DRIVER_SPI
   *DEL*:           000021H   BYTE   INSEG    CODE           ?PR?SPI_READ_16BIT?ZF_DRIVER_SPI
   *DEL*:           000051H   BYTE   INSEG    CODE           ?PR?SPI_READ_16BIT_ARRAY?ZF_DRIVER_SPI
   *DEL*:           000044H   BYTE   INSEG    CODE           ?PR?SPI_READ_8BIT_REGISTERS?ZF_DRIVER_SPI
   *DEL*:           000056H   BYTE   INSEG    CODE           ?PR?SPI_READ_DAT?ZF_DRIVER_SPI
   *DEL*:           00004CH   BYTE   INSEG    CODE           ?PR?SPI_WRITE_16BIT_ARRAY?ZF_DRIVER_SPI
   *DEL*:           000014H   BYTE   INSEG    CODE           ?PR?SPI_READ_8BIT_REGISTER?ZF_DRIVER_SPI
   *DEL*:           000077H   BYTE   INSEG    CODE           ?PR?SPI_TRANSFER_8BIT?ZF_DRIVER_SPI
   *DEL*:           000043H   BYTE   INSEG    CODE           ?PR?SPI_WRITE_8BIT_REGISTERS?ZF_DRIVER_SPI
   *DEL*:           000006H   BYTE   UNIT     XDATA          ?XD?SPI_WRITE_8BIT_ARRAY?ZF_DRIVER_SPI
   *DEL*:           000006H   BYTE   UNIT     XDATA          ?XD?SPI_WRITE_16BIT_ARRAY?ZF_DRIVER_SPI
   *DEL*:           000006H   BYTE   UNIT     XDATA          ?XD?SPI_WRITE_8BIT_REGISTERS?ZF_DRIVER_SPI
   *DEL*:           000002H   BYTE   UNIT     XDATA          ?XD?SPI_WRITE_16BIT_REGISTER?ZF_DRIVER_SPI
   *DEL*:           000008H   BYTE   UNIT     XDATA          ?XD?SPI_WRITE_16BIT_REGISTERS?ZF_DRIVER_SPI
   *DEL*:           000006H   BYTE   UNIT     XDATA          ?XD?SPI_READ_8BIT_ARRAY?ZF_DRIVER_SPI
   *DEL*:           000006H   BYTE   UNIT     XDATA          ?XD?SPI_READ_16BIT_ARRAY?ZF_DRIVER_SPI
   *DEL*:           000006H   BYTE   UNIT     XDATA          ?XD?SPI_READ_8BIT_REGISTERS?ZF_DRIVER_SPI
   *DEL*:           000002H   BYTE   UNIT     XDATA          ?XD?SPI_READ_16BIT_REGISTER?ZF_DRIVER_SPI
   *DEL*:           000008H   BYTE   UNIT     XDATA          ?XD?SPI_READ_16BIT_REGISTERS?ZF_DRIVER_SPI
   *DEL*:           00000AH   BYTE   UNIT     XDATA          ?XD?SPI_TRANSFER_8BIT?ZF_DRIVER_SPI
   *DEL*:           00000AH   BYTE   UNIT     XDATA          ?XD?SPI_TRANSFER_16BIT?ZF_DRIVER_SPI
   *DEL*:           000052H   BYTE   INSEG    CODE           ?PR?UART_WRITE_STRING?ZF_DRIVER_UART
   *DEL*:           000053H   BYTE   INSEG    CODE           ?PR?UART_READ_BYTE?ZF_DRIVER_UART
   *DEL*:           000104H   BYTE   UNIT     XDATA          ?XD?UART_WRITE_STRING?ZF_DRIVER_UART
L251 LINKER/LOCATER V4.66.93.0                                                        10/07/2025  14:20:36  PAGE 11


   *DEL*:           00000FH   BYTE   INSEG    CODE           ?PR?SET_TOF_TYPE?ZF_DEVICE_TYPE
   *DEL*:           000043H   BYTE   INSEG    CODE           ?PR?SET_GPS_TYPE?ZF_DEVICE_TYPE
   *DEL*:           000043H   BYTE   INSEG    CODE           ?PR?SET_WIRELESS_TYPE?ZF_DEVICE_TYPE
   *DEL*:           000061H   BYTE   INSEG    CODE           ?PR?TFT180_DRAW_POINT?ZF_DEVICE_TFT180
   *DEL*:           0000F3H   BYTE   INSEG    CODE           ?PR?TFT180_SHOW_UINT16?ZF_DEVICE_TFT180
   *DEL*:           000109H   BYTE   INSEG    CODE           ?PR?TFT180_SHOW_INT32?ZF_DEVICE_TFT180
   *DEL*:           0001E8H   BYTE   INSEG    CODE           ?PR?TFT180_SHOW_WAVE?ZF_DEVICE_TFT180
   *DEL*:           0000C3H   BYTE   INSEG    CODE           ?PR?TFT180_SHOW_UINT8?ZF_DEVICE_TFT180
   *DEL*:           0000F3H   BYTE   INSEG    CODE           ?PR?TFT180_SHOW_INT8?ZF_DEVICE_TFT180
   *DEL*:           000002H   BYTE   UNIT     XDATA          ?XD?TFT180_DRAW_POINT?ZF_DEVICE_TFT180
   *DEL*:           000005H   BYTE   UNIT     XDATA          ?XD?TFT180_SHOW_INT8?ZF_DEVICE_TFT180
   *DEL*:           000005H   BYTE   UNIT     XDATA          ?XD?TFT180_SHOW_UINT8?ZF_DEVICE_TFT180
   *DEL*:           000008H   BYTE   UNIT     XDATA          ?XD?TFT180_SHOW_UINT16?ZF_DEVICE_TFT180
   *DEL*:           000028H   BYTE   UNIT     XDATA          ?XD?TFT180_SHOW_INT32?ZF_DEVICE_TFT180
   *DEL*:           00001CH   BYTE   UNIT     XDATA          ?XD?TFT180_SHOW_WAVE?ZF_DEVICE_TFT180
   *DEL*:           0001C4H   BYTE   INSEG    CODE           ?PR?IPS114_SHOW_FLOAT?ZF_DEVICE_IPS114
   *DEL*:           000061H   BYTE   INSEG    CODE           ?PR?IPS114_DRAW_POINT?ZF_DEVICE_IPS114
   *DEL*:           0000A9H   BYTE   INSEG    CODE           ?PR?IPS114_SHOW_STRING?ZF_DEVICE_IPS114
   *DEL*:           0000E0H   BYTE   INSEG    CODE           ?PR?IPS114_SHOW_CHAR?ZF_DEVICE_IPS114
   *DEL*:           0000F3H   BYTE   INSEG    CODE           ?PR?IPS114_SHOW_UINT16?ZF_DEVICE_IPS114
   *DEL*:           00000DH   BYTE   INSEG    CODE           ?PR?IPS114_SET_COLOR?ZF_DEVICE_IPS114
   *DEL*:           000109H   BYTE   INSEG    CODE           ?PR?IPS114_SHOW_INT32?ZF_DEVICE_IPS114
   *DEL*:           000133H   BYTE   INSEG    CODE           ?PR?IPS114_SHOW_INT16?ZF_DEVICE_IPS114
   *DEL*:           0001E8H   BYTE   INSEG    CODE           ?PR?IPS114_SHOW_WAVE?ZF_DEVICE_IPS114
   *DEL*:           000027H   BYTE   INSEG    CODE           ?PR?IPS114_SET_DIR?ZF_DEVICE_IPS114
   *DEL*:           0001D0H   BYTE   INSEG    CODE           ?PR?IPS114_SHOW_CHINESE?ZF_DEVICE_IPS114
   *DEL*:           00005AH   BYTE   INSEG    CODE           ?PR?IPS114_CLEAR?ZF_DEVICE_IPS114
   *DEL*:           0000C3H   BYTE   INSEG    CODE           ?PR?IPS114_SHOW_UINT8?ZF_DEVICE_IPS114
   *DEL*:           0000F3H   BYTE   INSEG    CODE           ?PR?IPS114_SHOW_INT8?ZF_DEVICE_IPS114
   *DEL*:           000016H   BYTE   INSEG    CODE           ?PR?IPS114_WRITE_INDEX?ZF_DEVICE_IPS114
   *DEL*:           0001CFH   BYTE   INSEG    CODE           ?PR?IPS114_SET_REGION?ZF_DEVICE_IPS114
   *DEL*:           00025AH   BYTE   INSEG    CODE           ?PR?IPS114_INIT?ZF_DEVICE_IPS114
   *DEL*:           000004H   BYTE   UNIT     XDATA          ?XD?IPS114_SET_REGION?ZF_DEVICE_IPS114
   *DEL*:           000002H   BYTE   UNIT     XDATA          ?XD?IPS114_CLEAR?ZF_DEVICE_IPS114
   *DEL*:           000002H   BYTE   UNIT     XDATA          ?XD?IPS114_DRAW_POINT?ZF_DEVICE_IPS114
   *DEL*:           000004H   BYTE   UNIT     XDATA          ?XD?IPS114_SHOW_CHAR?ZF_DEVICE_IPS114
   *DEL*:           000006H   BYTE   UNIT     XDATA          ?XD?IPS114_SHOW_STRING?ZF_DEVICE_IPS114
   *DEL*:           000005H   BYTE   UNIT     XDATA          ?XD?IPS114_SHOW_INT8?ZF_DEVICE_IPS114
   *DEL*:           000005H   BYTE   UNIT     XDATA          ?XD?IPS114_SHOW_UINT8?ZF_DEVICE_IPS114
   *DEL*:           000008H   BYTE   UNIT     XDATA          ?XD?IPS114_SHOW_INT16?ZF_DEVICE_IPS114
   *DEL*:           000008H   BYTE   UNIT     XDATA          ?XD?IPS114_SHOW_UINT16?ZF_DEVICE_IPS114
   *DEL*:           000028H   BYTE   UNIT     XDATA          ?XD?IPS114_SHOW_INT32?ZF_DEVICE_IPS114
   *DEL*:           000031H   BYTE   UNIT     XDATA          ?XD?IPS114_SHOW_FLOAT?ZF_DEVICE_IPS114
   *DEL*:           00001CH   BYTE   UNIT     XDATA          ?XD?IPS114_SHOW_WAVE?ZF_DEVICE_IPS114
   *DEL*:           000015H   BYTE   UNIT     XDATA          ?XD?IPS114_SHOW_CHINESE?ZF_DEVICE_IPS114
   *DEL*:           0001C4H   BYTE   INSEG    CODE           ?PR?IPS200_SHOW_FLOAT?ZF_DEVICE_IPS200
   *DEL*:           000061H   BYTE   INSEG    CODE           ?PR?IPS200_DRAW_POINT?ZF_DEVICE_IPS200
   *DEL*:           0000A9H   BYTE   INSEG    CODE           ?PR?IPS200_SHOW_STRING?ZF_DEVICE_IPS200
   *DEL*:           0000E0H   BYTE   INSEG    CODE           ?PR?IPS200_SHOW_CHAR?ZF_DEVICE_IPS200
   *DEL*:           0000F3H   BYTE   INSEG    CODE           ?PR?IPS200_SHOW_UINT16?ZF_DEVICE_IPS200
   *DEL*:           00000DH   BYTE   INSEG    CODE           ?PR?IPS200_SET_COLOR?ZF_DEVICE_IPS200
   *DEL*:           000109H   BYTE   INSEG    CODE           ?PR?IPS200_SHOW_INT32?ZF_DEVICE_IPS200
   *DEL*:           000133H   BYTE   INSEG    CODE           ?PR?IPS200_SHOW_INT16?ZF_DEVICE_IPS200
   *DEL*:           0001E8H   BYTE   INSEG    CODE           ?PR?IPS200_SHOW_WAVE?ZF_DEVICE_IPS200
   *DEL*:           000007H   BYTE   INSEG    CODE           ?PR?IPS200_SET_DIR?ZF_DEVICE_IPS200
   *DEL*:           0001D0H   BYTE   INSEG    CODE           ?PR?IPS200_SHOW_CHINESE?ZF_DEVICE_IPS200
   *DEL*:           00005AH   BYTE   INSEG    CODE           ?PR?IPS200_CLEAR?ZF_DEVICE_IPS200
   *DEL*:           0000C3H   BYTE   INSEG    CODE           ?PR?IPS200_SHOW_UINT8?ZF_DEVICE_IPS200
   *DEL*:           0000F3H   BYTE   INSEG    CODE           ?PR?IPS200_SHOW_INT8?ZF_DEVICE_IPS200
   *DEL*:           000016H   BYTE   INSEG    CODE           ?PR?IPS200_WRITE_INDEX?ZF_DEVICE_IPS200
   *DEL*:           0000CCH   BYTE   INSEG    CODE           ?PR?IPS200_SET_REGION?ZF_DEVICE_IPS200
   *DEL*:           00025AH   BYTE   INSEG    CODE           ?PR?IPS200_INIT?ZF_DEVICE_IPS200
   *DEL*:           000004H   BYTE   UNIT     XDATA          ?XD?IPS200_SET_REGION?ZF_DEVICE_IPS200
   *DEL*:           000002H   BYTE   UNIT     XDATA          ?XD?IPS200_CLEAR?ZF_DEVICE_IPS200
   *DEL*:           000002H   BYTE   UNIT     XDATA          ?XD?IPS200_DRAW_POINT?ZF_DEVICE_IPS200
L251 LINKER/LOCATER V4.66.93.0                                                        10/07/2025  14:20:36  PAGE 12


   *DEL*:           000004H   BYTE   UNIT     XDATA          ?XD?IPS200_SHOW_CHAR?ZF_DEVICE_IPS200
   *DEL*:           000006H   BYTE   UNIT     XDATA          ?XD?IPS200_SHOW_STRING?ZF_DEVICE_IPS200
   *DEL*:           000005H   BYTE   UNIT     XDATA          ?XD?IPS200_SHOW_INT8?ZF_DEVICE_IPS200
   *DEL*:           000005H   BYTE   UNIT     XDATA          ?XD?IPS200_SHOW_UINT8?ZF_DEVICE_IPS200
   *DEL*:           000008H   BYTE   UNIT     XDATA          ?XD?IPS200_SHOW_INT16?ZF_DEVICE_IPS200
   *DEL*:           000008H   BYTE   UNIT     XDATA          ?XD?IPS200_SHOW_UINT16?ZF_DEVICE_IPS200
   *DEL*:           000028H   BYTE   UNIT     XDATA          ?XD?IPS200_SHOW_INT32?ZF_DEVICE_IPS200
   *DEL*:           000031H   BYTE   UNIT     XDATA          ?XD?IPS200_SHOW_FLOAT?ZF_DEVICE_IPS200
   *DEL*:           00001CH   BYTE   UNIT     XDATA          ?XD?IPS200_SHOW_WAVE?ZF_DEVICE_IPS200
   *DEL*:           000015H   BYTE   UNIT     XDATA          ?XD?IPS200_SHOW_CHINESE?ZF_DEVICE_IPS200
   *DEL*:           00003FH   BYTE   INSEG    CODE           ?PR?DL1A_TIMEOUT_MICROSECONDS_TO_MCLKS?ZF_DEVICE_DL1A
   *DEL*:           000041H   BYTE   INSEG    CODE           ?PR?DL1A_TIMEOUT_MCLKS_TO_MICROSECONDS?ZF_DEVICE_DL1A
   *DEL*:           000083H   BYTE   INSEG    CODE           ?PR?DL1A_SET_SIGNAL_RATE_LIMIT?ZF_DEVICE_DL1A
   *DEL*:           000018H   BYTE   INSEG    CODE           ?PR?DL1A_DECODE_TIMEOUT?ZF_DEVICE_DL1A
   *DEL*:           000233H   BYTE   INSEG    CODE           ?PR?DL1A_GET_SPAD_INFO?ZF_DEVICE_DL1A
   *DEL*:           000038H   BYTE   INSEG    CODE           ?PR?DL1A_ENCODE_TIMEOUT?ZF_DEVICE_DL1A
   *DEL*:           00006AH   BYTE   INSEG    CODE           ?PR?DL1A_GET_SEQUENCE_STEP_ENABLES?ZF_DEVICE_DL1A
   *DEL*:           0000C7H   BYTE   INSEG    CODE           ?PR?DL1A_GET_DISTANCE?ZF_DEVICE_DL1A
   *DEL*:           0000BAH   BYTE   INSEG    CODE           ?PR?DL1A_PERFORM_SINGLE_REF_CALIBRATION?ZF_DEVICE_DL1A
   *DEL*:           00013CH   BYTE   INSEG    CODE           ?PR?DL1A_GET_SEQUENCE_STEP_TIMEOUTS?ZF_DEVICE_DL1A
   *DEL*:           000001H   BYTE   INSEG    CODE           ?PR?DL1A_INT_HANDLER?ZF_DEVICE_DL1A
   *DEL*:           00009BH   BYTE   INSEG    CODE           ?PR?DL1A_GET_MEASUREMENT_TIMING_BUDGET?ZF_DEVICE_DL1A
   *DEL*:           0001D4H   BYTE   INSEG    CODE           ?PR?DL1A_SET_MEASUREMENT_TIMING_BUDGET?ZF_DEVICE_DL1A
   *DEL*:           0004C9H   BYTE   INSEG    CODE           ?PR?DL1A_INIT?ZF_DEVICE_DL1A
   *DEL*:           000086H   BYTE   INSEG    CODE           ?PR?DL1A_GET_VCSEL_PULSE_PERIOD?ZF_DEVICE_DL1A
   *DEL*:           000008H   BYTE   UNIT     XDATA          ?XD?DL1A_GET_SPAD_INFO?ZF_DEVICE_DL1A
   *DEL*:           000001H   BYTE   UNIT     XDATA          ?XD?DL1A_GET_SEQUENCE_STEP_ENABLES?ZF_DEVICE_DL1A
   *DEL*:           000001H   BYTE   UNIT     XDATA          ?XD?DL1A_GET_VCSEL_PULSE_PERIOD?ZF_DEVICE_DL1A
   *DEL*:           000008H   BYTE   UNIT     XDATA          ?XD?DL1A_GET_SEQUENCE_STEP_TIMEOUTS?ZF_DEVICE_DL1A
   *DEL*:           000003H   BYTE   UNIT     XDATA          ?XD?DL1A_PERFORM_SINGLE_REF_CALIBRATION?ZF_DEVICE_DL1A
   *DEL*:           00002BH   BYTE   UNIT     XDATA          ?XD?DL1A_SET_MEASUREMENT_TIMING_BUDGET?ZF_DEVICE_DL1A
   *DEL*:           00001BH   BYTE   UNIT     XDATA          ?XD?DL1A_GET_MEASUREMENT_TIMING_BUDGET?ZF_DEVICE_DL1A
   *DEL*:           000003H   BYTE   UNIT     XDATA          ?XD?DL1A_SET_SIGNAL_RATE_LIMIT?ZF_DEVICE_DL1A
   *DEL*:           000003H   BYTE   UNIT     XDATA          ?XD?DL1A_GET_DISTANCE?ZF_DEVICE_DL1A
   *DEL*:           0000CAH   BYTE   UNIT     XDATA          ?XD?DL1A_INIT?ZF_DEVICE_DL1A
   *DEL*:           00005EH   BYTE   INSEG    CODE           ?PR?BLE6A20_READ_BUFFER?ZF_DEVICE_BLE6A20
   *DEL*:           0000CFH   BYTE   INSEG    CODE           ?PR?BLE6A20_SEND_BUFFER?ZF_DEVICE_BLE6A20
   *DEL*:           00003FH   BYTE   INSEG    CODE           ?PR?BLE6A20_SEND_STRING?ZF_DEVICE_BLE6A20
   *DEL*:           000026H   BYTE   INSEG    CODE           ?PR?BLE6A20_CALLBACK?ZF_DEVICE_BLE6A20
   *DEL*:           000087H   BYTE   INSEG    CODE           ?PR?BLE6A20_INIT?ZF_DEVICE_BLE6A20
   *DEL*:           000044H   BYTE   INSEG    CODE           ?PR?BLE6A20_SEND_BYTE?ZF_DEVICE_BLE6A20
   *DEL*:           000008H   BYTE   UNIT     XDATA          ?XD?BLE6A20_SEND_BUFFER?ZF_DEVICE_BLE6A20
   *DEL*:           000004H   BYTE   UNIT     XDATA          ?XD?BLE6A20_SEND_STRING?ZF_DEVICE_BLE6A20
   *DEL*:           000004H   BYTE   UNIT     XDATA          ?XD?BLE6A20_READ_BUFFER?ZF_DEVICE_BLE6A20
   *DEL*:           000001H   BYTE   UNIT     XDATA          ?XD?BLE6A20_CALLBACK?ZF_DEVICE_BLE6A20
   *DEL*:           0000CFH   BYTE   INSEG    CODE           ?PR?WIRELESS_UART_SEND_BUFFER?ZF_DEVICE_WIRELESS_UART
   *DEL*:           00003FH   BYTE   INSEG    CODE           ?PR?WIRELESS_UART_SEND_STRING?ZF_DEVICE_WIRELESS_UART
   *DEL*:           000026H   BYTE   INSEG    CODE           ?PR?WIRELESS_UART_CALLBACK?ZF_DEVICE_WIRELESS_UART
   *DEL*:           000080H   BYTE   INSEG    CODE           ?PR?WIRELESS_UART_INIT?ZF_DEVICE_WIRELESS_UART
   *DEL*:           000044H   BYTE   INSEG    CODE           ?PR?WIRELESS_UART_SEND_BYTE?ZF_DEVICE_WIRELESS_UART
   *DEL*:           00005EH   BYTE   INSEG    CODE           ?PR?WIRELESS_UART_READ_BUFFER?ZF_DEVICE_WIRELESS_UART
   *DEL*:           000008H   BYTE   UNIT     XDATA          ?XD?WIRELESS_UART_SEND_BUFFER?ZF_DEVICE_WIRELESS_UART
   *DEL*:           000004H   BYTE   UNIT     XDATA          ?XD?WIRELESS_UART_SEND_STRING?ZF_DEVICE_WIRELESS_UART
   *DEL*:           000004H   BYTE   UNIT     XDATA          ?XD?WIRELESS_UART_READ_BUFFER?ZF_DEVICE_WIRELESS_UART
   *DEL*:           000001H   BYTE   UNIT     XDATA          ?XD?WIRELESS_UART_CALLBACK?ZF_DEVICE_WIRELESS_UART
   *DEL*:           00001AH   BYTE   INSEG    CODE           ?PR?ICM20602_READ_REGISTER?ZF_DEVICE_ICM20602
   *DEL*:           00000CH   BYTE   INSEG    CODE           ?PR?ICM20602_WRITE_REGISTER?ZF_DEVICE_ICM20602
   *DEL*:           000021H   BYTE   INSEG    CODE           ?PR?ICM20602_SIMSPI_WR_BYTE?ZF_DEVICE_ICM20602
   *DEL*:           000031H   BYTE   INSEG    CODE           ?PR?ICM20602_SELF_CHECK?ZF_DEVICE_ICM20602
   *DEL*:           00003FH   BYTE   INSEG    CODE           ?PR?ICM20602_SIMSPI_R_REG_BYTES?ZF_DEVICE_ICM20602
   *DEL*:           000018H   BYTE   INSEG    CODE           ?PR?ICM20602_SIMSPI_R_REG_BYTE?ZF_DEVICE_ICM20602
   *DEL*:           000011H   BYTE   INSEG    CODE           ?PR?ICM20602_SIMSPI_W_REG_BYTE?ZF_DEVICE_ICM20602
   *DEL*:           0001B9H   BYTE   INSEG    CODE           ?PR?ICM20602_INIT?ZF_DEVICE_ICM20602
   *DEL*:           000054H   BYTE   INSEG    CODE           ?PR?ICM20602_GET_ACC?ZF_DEVICE_ICM20602
   *DEL*:           000016H   BYTE   INSEG    CODE           ?PR?ICM20602_READ_REGISTERS?ZF_DEVICE_ICM20602
L251 LINKER/LOCATER V4.66.93.0                                                        10/07/2025  14:20:36  PAGE 13


   *DEL*:           000054H   BYTE   INSEG    CODE           ?PR?ICM20602_GET_GYRO?ZF_DEVICE_ICM20602
   *DEL*:           000004H   BYTE   UNIT     XDATA          ?XD?ICM20602_SIMSPI_R_REG_BYTES?ZF_DEVICE_ICM20602
   *DEL*:           000001H   BYTE   UNIT     XDATA          ?XD?ICM20602_READ_REGISTER?ZF_DEVICE_ICM20602
   *DEL*:           000006H   BYTE   UNIT     XDATA          ?XD?ICM20602_GET_ACC?ZF_DEVICE_ICM20602
   *DEL*:           000006H   BYTE   UNIT     XDATA          ?XD?ICM20602_GET_GYRO?ZF_DEVICE_ICM20602
   *DEL*:           000054H   BYTE   INSEG    CODE           ?PR?IMU660RA_GET_GYRO?ZF_DEVICE_IMU660RA
   *DEL*:           00001EH   BYTE   INSEG    CODE           ?PR?IMU660RA_READ_REGISTER?ZF_DEVICE_IMU660RA
   *DEL*:           000014H   BYTE   INSEG    CODE           ?PR?IMU660RA_WRITE_REGISTERS?ZF_DEVICE_IMU660RA
   *DEL*:           00000CH   BYTE   INSEG    CODE           ?PR?IMU660RA_WRITE_REGISTER?ZF_DEVICE_IMU660RA
   *DEL*:           000023H   BYTE   INSEG    CODE           ?PR?IMU660RA_SIMSPI_WR_BYTE?ZF_DEVICE_IMU660RA
   *DEL*:           000041H   BYTE   INSEG    CODE           ?PR?IMU660RA_SELF_CHECK?ZF_DEVICE_IMU660RA
   *DEL*:           00003FH   BYTE   INSEG    CODE           ?PR?IMU660RA_SIMSPI_R_REG_BYTES?ZF_DEVICE_IMU660RA
   *DEL*:           000039H   BYTE   INSEG    CODE           ?PR?IMU660RA_SIMSPI_W_REG_BYTES?ZF_DEVICE_IMU660RA
   *DEL*:           000011H   BYTE   INSEG    CODE           ?PR?IMU660RA_SIMSPI_W_REG_BYTE?ZF_DEVICE_IMU660RA
   *DEL*:           0001E0H   BYTE   INSEG    CODE           ?PR?IMU660RA_INIT?ZF_DEVICE_IMU660RA
   *DEL*:           000054H   BYTE   INSEG    CODE           ?PR?IMU660RA_GET_ACC?ZF_DEVICE_IMU660RA
   *DEL*:           000079H   BYTE   INSEG    CODE           ?PR?IMU660RA_READ_REGISTERS?ZF_DEVICE_IMU660RA
   *DEL*:           000004H   BYTE   UNIT     XDATA          ?XD?IMU660RA_SIMSPI_W_REG_BYTES?ZF_DEVICE_IMU660RA
   *DEL*:           000004H   BYTE   UNIT     XDATA          ?XD?IMU660RA_SIMSPI_R_REG_BYTES?ZF_DEVICE_IMU660RA
   *DEL*:           000002H   BYTE   UNIT     XDATA          ?XD?IMU660RA_READ_REGISTER?ZF_DEVICE_IMU660RA
   *DEL*:           00000EH   BYTE   UNIT     XDATA          ?XD?IMU660RA_READ_REGISTERS?ZF_DEVICE_IMU660RA
   *DEL*:           000006H   BYTE   UNIT     XDATA          ?XD?IMU660RA_GET_ACC?ZF_DEVICE_IMU660RA
   *DEL*:           000006H   BYTE   UNIT     XDATA          ?XD?IMU660RA_GET_GYRO?ZF_DEVICE_IMU660RA
   *DEL*:           000054H   BYTE   INSEG    CODE           ?PR?IMU660RB_GET_GYRO?ZF_DEVICE_IMU660RB
   *DEL*:           00001AH   BYTE   INSEG    CODE           ?PR?IMU660RB_READ_REGISTER?ZF_DEVICE_IMU660RB
   *DEL*:           0000B1H   BYTE   INSEG    CODE           ?PR?IMU660RB_GYRO_TRANSITION?ZF_DEVICE_IMU660RB
   *DEL*:           00000CH   BYTE   INSEG    CODE           ?PR?IMU660RB_WRITE_REGISTER?ZF_DEVICE_IMU660RB
   *DEL*:           000023H   BYTE   INSEG    CODE           ?PR?IMU660RB_SIMSPI_WR_BYTE?ZF_DEVICE_IMU660RB
   *DEL*:           00002FH   BYTE   INSEG    CODE           ?PR?IMU660RB_SELF_CHECK?ZF_DEVICE_IMU660RB
   *DEL*:           00003FH   BYTE   INSEG    CODE           ?PR?IMU660RB_SIMSPI_R_REG_BYTES?ZF_DEVICE_IMU660RB
   *DEL*:           00001CH   BYTE   INSEG    CODE           ?PR?IMU660RB_SIMSPI_R_REG_BYTE?ZF_DEVICE_IMU660RB
   *DEL*:           000011H   BYTE   INSEG    CODE           ?PR?IMU660RB_SIMSPI_W_REG_BYTE?ZF_DEVICE_IMU660RB
   *DEL*:           00006AH   BYTE   INSEG    CODE           ?PR?IMU660RB_INIT?ZF_DEVICE_IMU660RB
   *DEL*:           000054H   BYTE   INSEG    CODE           ?PR?IMU660RB_GET_ACC?ZF_DEVICE_IMU660RB
   *DEL*:           000075H   BYTE   INSEG    CODE           ?PR?IMU660RB_ACC_TRANSITION?ZF_DEVICE_IMU660RB
   *DEL*:           000016H   BYTE   INSEG    CODE           ?PR?IMU660RB_READ_REGISTERS?ZF_DEVICE_IMU660RB
   *DEL*:           000004H   BYTE   UNIT     XDATA          ?XD?IMU660RB_SIMSPI_R_REG_BYTES?ZF_DEVICE_IMU660RB
   *DEL*:           000001H   BYTE   UNIT     XDATA          ?XD?IMU660RB_READ_REGISTER?ZF_DEVICE_IMU660RB
   *DEL*:           000006H   BYTE   UNIT     XDATA          ?XD?IMU660RB_GET_ACC?ZF_DEVICE_IMU660RB
   *DEL*:           000006H   BYTE   UNIT     XDATA          ?XD?IMU660RB_GET_GYRO?ZF_DEVICE_IMU660RB
   *DEL*:           000054H   BYTE   INSEG    CODE           ?PR?IMU963RA_GET_GYRO?ZF_DEVICE_IMU963RA
   *DEL*:           000023H   BYTE   INSEG    CODE           ?PR?IMU963RA_SIMSPI_WR_BYTE?ZF_DEVICE_IMU963RA
   *DEL*:           000052H   BYTE   INSEG    CODE           ?PR?IMU963RA_READ_MAG_REGISTER?ZF_DEVICE_IMU963RA
   *DEL*:           00002CH   BYTE   INSEG    CODE           ?PR?IMU963RA_CONNECT_MAG?ZF_DEVICE_IMU963RA
   *DEL*:           000016H   BYTE   INSEG    CODE           ?PR?IMU963RA_READ_ACC_GYRO_REGISTERS?ZF_DEVICE_IMU963RA
   *DEL*:           000066H   BYTE   INSEG    CODE           ?PR?IMU963RA_WRITE_MAG_REGISTER?ZF_DEVICE_IMU963RA
   *DEL*:           00001FH   BYTE   INSEG    CODE           ?PR?IMU963RA_READ_ACC_GYRO_REGISTER?ZF_DEVICE_IMU963RA
   *DEL*:           00003FH   BYTE   INSEG    CODE           ?PR?IMU963RA_SIMSPI_R_REG_BYTES?ZF_DEVICE_IMU963RA
   *DEL*:           00001CH   BYTE   INSEG    CODE           ?PR?IMU963RA_SIMSPI_R_REG_BYTE?ZF_DEVICE_IMU963RA
   *DEL*:           000034H   BYTE   INSEG    CODE           ?PR?IMU963RA_MAG_SELF_CHECK?ZF_DEVICE_IMU963RA
   *DEL*:           00000CH   BYTE   INSEG    CODE           ?PR?IMU963RA_WRITE_ACC_GYRO_REGISTER?ZF_DEVICE_IMU963RA
   *DEL*:           000017H   BYTE   INSEG    CODE           ?PR?IMU963RA_SIMSPI_W_REG_BYTE?ZF_DEVICE_IMU963RA
   *DEL*:           0002DBH   BYTE   INSEG    CODE           ?PR?IMU963RA_INIT?ZF_DEVICE_IMU963RA
   *DEL*:           000044H   BYTE   INSEG    CODE           ?PR?IMU963RA_ACC_GYRO_SELF_CHECK?ZF_DEVICE_IMU963RA
   *DEL*:           000054H   BYTE   INSEG    CODE           ?PR?IMU963RA_GET_ACC?ZF_DEVICE_IMU963RA
   *DEL*:           00006BH   BYTE   INSEG    CODE           ?PR?IMU963RA_GET_MAG?ZF_DEVICE_IMU963RA
   *DEL*:           000004H   BYTE   UNIT     XDATA          ?XD?IMU963RA_SIMSPI_R_REG_BYTES?ZF_DEVICE_IMU963RA
   *DEL*:           000001H   BYTE   UNIT     XDATA          ?XD?IMU963RA_READ_ACC_GYRO_REGISTER?ZF_DEVICE_IMU963RA
   *DEL*:           000002H   BYTE   UNIT     XDATA          ?XD?IMU963RA_WRITE_MAG_REGISTER?ZF_DEVICE_IMU963RA
   *DEL*:           000006H   BYTE   UNIT     XDATA          ?XD?IMU963RA_GET_ACC?ZF_DEVICE_IMU963RA
   *DEL*:           000006H   BYTE   UNIT     XDATA          ?XD?IMU963RA_GET_GYRO?ZF_DEVICE_IMU963RA
   *DEL*:           000006H   BYTE   UNIT     XDATA          ?XD?IMU963RA_GET_MAG?ZF_DEVICE_IMU963RA
   *DEL*:           000094H   BYTE   INSEG    CODE           ?PR?GET_DOUBLE_NUMBER?ZF_DEVICE_GPS_TAU1201
   *DEL*:           00007DH   BYTE   INSEG    CODE           ?PR?GET_FLOAT_NUMBER?ZF_DEVICE_GPS_TAU1201
   *DEL*:           0000C5H   BYTE   INSEG    CODE           ?PR?UTC_TO_BTC?ZF_DEVICE_GPS_TAU1201
L251 LINKER/LOCATER V4.66.93.0                                                        10/07/2025  14:20:36  PAGE 14


   *DEL*:           000372H   BYTE   INSEG    CODE           ?PR?GET_TWO_POINTS_DISTANCE?ZF_DEVICE_GPS_TAU1201
   *DEL*:           0000D9H   BYTE   INSEG    CODE           ?PR?GPS_GNGGA_PARSE?ZF_DEVICE_GPS_TAU1201
   *DEL*:           0005A6H   BYTE   INSEG    CODE           ?PR?GPS_GNRMC_PARSE?ZF_DEVICE_GPS_TAU1201
   *DEL*:           000196H   BYTE   INSEG    CODE           ?PR?GPS_DATA_PARSE?ZF_DEVICE_GPS_TAU1201
   *DEL*:           00006EH   BYTE   INSEG    CODE           ?PR?GET_INT_NUMBER?ZF_DEVICE_GPS_TAU1201
   *DEL*:           000290H   BYTE   INSEG    CODE           ?PR?GPS_INIT?ZF_DEVICE_GPS_TAU1201
   *DEL*:           000077H   BYTE   INSEG    CODE           ?PR?GET_PARAMETER_INDEX?ZF_DEVICE_GPS_TAU1201
   *DEL*:           00055CH   BYTE   INSEG    CODE           ?PR?GET_TWO_POINTS_AZIMUTH?ZF_DEVICE_GPS_TAU1201
   *DEL*:           000184H   BYTE   INSEG    CODE           ?PR?GPS_UART_CALLBACK?ZF_DEVICE_GPS_TAU1201
   *DEL*:           000003H   BYTE   UNIT     XDATA          ?XD?GET_PARAMETER_INDEX?ZF_DEVICE_GPS_TAU1201
   *DEL*:           00000DH   BYTE   UNIT     XDATA          ?XD?GET_INT_NUMBER?ZF_DEVICE_GPS_TAU1201
   *DEL*:           000014H   BYTE   UNIT     XDATA          ?XD?GET_FLOAT_NUMBER?ZF_DEVICE_GPS_TAU1201
   *DEL*:           000018H   BYTE   UNIT     XDATA          ?XD?GET_DOUBLE_NUMBER?ZF_DEVICE_GPS_TAU1201
   *DEL*:           00003BH   BYTE   UNIT     XDATA          ?XD?GPS_GNRMC_PARSE?ZF_DEVICE_GPS_TAU1201
   *DEL*:           000009H   BYTE   UNIT     XDATA          ?XD?GPS_GNGGA_PARSE?ZF_DEVICE_GPS_TAU1201
   *DEL*:           000060H   BYTE   UNIT     XDATA          ?XD?GET_TWO_POINTS_DISTANCE?ZF_DEVICE_GPS_TAU1201
   *DEL*:           000038H   BYTE   UNIT     XDATA          ?XD?GET_TWO_POINTS_AZIMUTH?ZF_DEVICE_GPS_TAU1201
   *DEL*:           000008H   BYTE   UNIT     XDATA          ?XD?GPS_DATA_PARSE?ZF_DEVICE_GPS_TAU1201
   *DEL*:           00000BH   BYTE   UNIT     XDATA          ?XD?GPS_UART_CALLBACK?ZF_DEVICE_GPS_TAU1201
   *DEL*:           000095H   BYTE   UNIT     XDATA          ?XD?GPS_INIT?ZF_DEVICE_GPS_TAU1201
   *DEL*:           000075H   BYTE   INSEG    CODE           ?PR?TSL1401_SEND_DATA?ZF_DEVICE_TSL1401
   *DEL*:           00003DH   BYTE   INSEG    CODE           ?PR?TSL1401_INIT?ZF_DEVICE_TSL1401
   *DEL*:           00009BH   BYTE   INSEG    CODE           ?PR?TSL1401_COLLECT_PIT_HANDLER?ZF_DEVICE_TSL1401
   *DEL*:           00034DH   BYTE   INSEG    CODE           ?PR?SEEKFREE_ASSISTANT_CAMERA_BOUNDARY_CONFIG?SEEKFREE_ASS
                                                             -ISTANT
   *DEL*:           000101H   BYTE   INSEG    CODE           ?PR?SEEKFREE_ASSISTANT_CAMERA_DOT_SEND?SEEKFREE_ASSISTANT
   *DEL*:           000102H   BYTE   INSEG    CODE           ?PR?SEEKFREE_ASSISTANT_OSCILLOSCOPE_SEND?SEEKFREE_ASSISTAN
                                                             -T
   *DEL*:           00002EH   BYTE   INSEG    CODE           ?PR?SEEKFREE_ASSISTANT_INIT?SEEKFREE_ASSISTANT
   *DEL*:           000017H   BYTE   INSEG    CODE           ?PR?SEEKFREE_ASSISTANT_SUM?SEEKFREE_ASSISTANT
   *DEL*:           000037H   BYTE   INSEG    CODE           ?PR?SEEKFREE_ASSISTANT_CAMERA_INFORMATION_CONFIG?SEEKFREE_
                                                             -ASSISTANT
   *DEL*:           000265H   BYTE   INSEG    CODE           ?PR?SEEKFREE_ASSISTANT_DATA_ANALYSIS?SEEKFREE_ASSISTANT
   *DEL*:           00012AH   BYTE   INSEG    CODE           ?PR?SEEKFREE_ASSISTANT_CAMERA_DATA_SEND?SEEKFREE_ASSISTANT
   *DEL*:           00003FH   BYTE   INSEG    CODE           ?PR?SEEKFREE_ASSISTANT_CAMERA_SEND?SEEKFREE_ASSISTANT
   *DEL*:           00000AH   BYTE   UNIT     XDATA          ?XD?SEEKFREE_ASSISTANT_CAMERA_DATA_SEND?SEEKFREE_ASSISTANT
   *DEL*:           000002H   BYTE   UNIT     XDATA          ?XD?SEEKFREE_ASSISTANT_CAMERA_INFORMATION_CONFIG?SEEKFREE_
                                                             -ASSISTANT
   *DEL*:           000024H   BYTE   UNIT     XDATA          ?XD?SEEKFREE_ASSISTANT_OSCILLOSCOPE_SEND?SEEKFREE_ASSISTAN
                                                             -T
   *DEL*:           000003H   BYTE   UNIT     XDATA          ?XD?SEEKFREE_ASSISTANT_CAMERA_DOT_SEND?SEEKFREE_ASSISTANT
   *DEL*:           000014H   BYTE   UNIT     XDATA          ?XD?SEEKFREE_ASSISTANT_CAMERA_BOUNDARY_CONFIG?SEEKFREE_ASS
                                                             -ISTANT
   *DEL*:           000088H   BYTE   UNIT     XDATA          ?XD?SEEKFREE_ASSISTANT_DATA_ANALYSIS?SEEKFREE_ASSISTANT
   *DEL*:           000000H.1 BIT    UNIT     BIT            ?BI?SEEKFREE_ASSISTANT_DATA_ANALYSIS?SEEKFREE_ASSISTANT
   *DEL*:           00004DH   BYTE   INSEG    CODE           ?PR?SEEKFREE_ASSISTANT_INTERFACE_INIT?SEEKFREE_ASSISTANT_I
                                                             -NTERFACE
   *DEL*:           00007BH   BYTE   INSEG    CODE           ?PR?BATTERY_GET?ADC_GET
   *DEL*:           000002H   BYTE   UNIT     XDATA          ?XD?BATTERY_GET?ADC_GET
   *DEL*:           000030H   BYTE   INSEG    CODE           ?PR?EEPROM_READ_FLOAT?EEPROM
   *DEL*:           0000D0H   BYTE   INSEG    CODE           ?PR?EEPROM_SAVE_FLOAT?EEPROM
   *DEL*:           000056H   BYTE   INSEG    CODE           ?PR?EEPROM_READ_NUM?EEPROM
   *DEL*:           000089H   BYTE   INSEG    CODE           ?PR?EEPROM_SAVE_NUM?EEPROM
   *DEL*:           000200H   BYTE   UNIT     XDATA          ?XD?EEPROM_SAVE_NUM?EEPROM
   *DEL*:           000000H.1 BIT    UNIT     BIT            ?BI?EEPROM_SAVE_NUM?EEPROM
   *DEL*:           000200H   BYTE   UNIT     XDATA          ?XD?EEPROM_READ_NUM?EEPROM
   *DEL*:           000000H.1 BIT    UNIT     BIT            ?BI?EEPROM_READ_NUM?EEPROM
   *DEL*:           00020AH   BYTE   UNIT     XDATA          ?XD?EEPROM_SAVE_FLOAT?EEPROM
   *DEL*:           000000H.1 BIT    UNIT     BIT            ?BI?EEPROM_SAVE_FLOAT?EEPROM
   *DEL*:           000004H   BYTE   UNIT     XDATA          ?XD?EEPROM_READ_FLOAT?EEPROM
   *DEL*:           000000H.1 BIT    UNIT     BIT            ?BI?EEPROM_READ_FLOAT?EEPROM
   *DEL*:           0000BCH   BYTE   INSEG    CODE           ?PR?NORMAL_PID?FUNCTION
   *DEL*:           000004H   BYTE   UNIT     XDATA          ?XD?NORMAL_PID?FUNCTION
   *DEL*:           00002CH   BYTE   INSEG    CODE           ?PR?OLED_DISPLAYTURN?OLED
   *DEL*:           0000DEH   BYTE   INSEG    CODE           ?PR?OLED_INIT?OLED
L251 LINKER/LOCATER V4.66.93.0                                                        10/07/2025  14:20:36  PAGE 15


   *DEL*:           0000F5H   BYTE   INSEG    CODE           ?PR?OLED_SHOWSTRING?OLED
   *DEL*:           000070H   BYTE   INSEG    CODE           ?PR?OLED_WR_BYTE?OLED
   *DEL*:           0001BEH   BYTE   INSEG    CODE           ?PR?OLED_SHOWCHAR?OLED
   *DEL*:           00001EH   BYTE   INSEG    CODE           ?PR?OLED_COLORTURN?OLED
   *DEL*:           00002BH   BYTE   INSEG    CODE           ?PR?OLED_SET_POS?OLED
   *DEL*:           000017H   BYTE   INSEG    CODE           ?PR?DELAY_MS?OLED
   *DEL*:           0001C9H   BYTE   INSEG    CODE           ?PR?OLED_SHOWNUM?OLED
   *DEL*:           000017H   BYTE   INSEG    CODE           ?PR?OLED_POW?OLED
   *DEL*:           00010AH   BYTE   INSEG    CODE           ?PR?OLED_SHOWCHINESE?OLED
   *DEL*:           00003AH   BYTE   INSEG    CODE           ?PR?OLED_CLEAR?OLED
   *DEL*:           000006H   BYTE   UNIT     XDATA          ?XD?OLED_SHOWCHAR?OLED
   *DEL*:           000007H   BYTE   UNIT     XDATA          ?XD?OLED_SHOWNUM?OLED
   *DEL*:           000005H   BYTE   UNIT     XDATA          ?XD?OLED_SHOWSTRING?OLED
   *DEL*:           000005H   BYTE   UNIT     XDATA          ?XD?OLED_SHOWCHINESE?OLED
   *DEL*:           00019BH   BYTE   INSEG    CODE           ?PR?POW?_?POW
   *DEL*:           000037H   BYTE   INSEG    CODE           ?PR?STRNCMP?_?STRNCMP
   *DEL*:           000030H   BYTE   INSEG    CODE           ?PR?STRNCPY?_?STRNCPY
   *DEL*:           00000EH   BYTE   INSEG    CODE           ?PR?STRLEN?_?STRLEN
   *DEL*:           00001FH   BYTE   INSEG    CODE           ?PR?STRCHR?_?STRCHR
   *DEL*:           00001AH   BYTE   INSEG    CODE           ?PR?MEMSET?_?MEMSET



OVERLAY MAP OF MODULE:   .\out_file\SEEKFREE (ai8051u_isr)


FUNCTION/MODULE                               XDATA_GROUP
--> CALLED FUNCTION/MODULE                    START  STOP
=========================================================
?C_C51STARTUP                                 ----- -----

*** NEW ROOT ********************************

?C_C51STARTUP?3                               ----- -----
  +--> main/main

main/main                                     ----- -----
  +--> _m/main
  +--> SPRINTF/SPRINTF

_m/main                                       ----- -----
  +--> clock_init/zf_common_clock
  +--> debug_init/zf_common_debug
  +--> init_all/function
  +--> pit_handler0/main
  +--> pit_handler1/main
  +--> Turn_mode_Init/function
  +--> menu_handle_key/menu
  +--> GO_Function/function
  +--> PWM_Test/Device_Test
  +--> Serve_Test/Device_Test
  +--> Set_Sevo/Device_Test

clock_init/zf_common_clock                    ----- -----
  +--> system_delay_init/zf_driver_delay
  +--> interrupt_global_enable/zf_common_interrupt

system_delay_init/zf_driver_delay             ----- -----
  +--> ?C?SLDIV/?C?SLDIV

?C?SLDIV/?C?SLDIV                             ----- -----
  +--> ?C?ULIDIV/?C?ULDIV

?C?ULIDIV/?C?ULDIV                            ----- -----

L251 LINKER/LOCATER V4.66.93.0                                                        10/07/2025  14:20:36  PAGE 16


interrupt_global_enable/zf_common_interr+     ----- -----
... upt

debug_init/zf_common_debug                    ----- -----
  +--> uart_init/zf_driver_uart
  +--> fifo_init/zf_common_fifo
  +--> uart_rx_interrupt/zf_driver_uart
  +--> debug_interrupr_handler/zf_common_debug

uart_init/zf_driver_uart                      0A5FH 0A64H
  +--> uart_funciton_check/zf_driver_uart
  +--> debug_assert_handler/zf_common_debug
  +--> timer_funciton_check/zf_driver_timer
  +--> gpio_init/zf_driver_gpio
  +--> ?C?ULIDIV/?C?ULDIV
  +--> uart_dma_init/zf_driver_uart

uart_funciton_check/zf_driver_uart            ----- -----

debug_assert_handler/zf_common_debug          0A9EH 0AADH
  +--> PRINTF/PRINTF
  +--> system_delay_ms/zf_driver_delay

PRINTF/PRINTF                                 0AAEH 0AD5H
  +--> OUT/PRINTF

OUT/PRINTF                                    ----- -----
  +--> PUTCH/PRINTF

PUTCH/PRINTF                                  ----- -----
  +--> putchar/zf_common_debug
  +--> OUT/PRINTF

putchar/zf_common_debug                       ----- -----
  +--> uart_write_byte/zf_driver_uart

uart_write_byte/zf_driver_uart                0AD6H 0AD6H
  +--> uart_write_buffer/zf_driver_uart

uart_write_buffer/zf_driver_uart              ----- -----

system_delay_ms/zf_driver_delay               ----- -----

timer_funciton_check/zf_driver_timer          ----- -----

gpio_init/zf_driver_gpio                      0A6FH 0A71H
  +--> debug_assert_handler/zf_common_debug
  +--> gpio_set_dir/zf_driver_gpio
  +--> gpio_set_mode/zf_driver_gpio
  +--> gpio_set_impedance/zf_driver_gpio
  +--> gpio_set_level/zf_driver_gpio

gpio_set_dir/zf_driver_gpio                   ----- -----
  +--> debug_assert_handler/zf_common_debug

gpio_set_mode/zf_driver_gpio                  ----- -----
  +--> debug_assert_handler/zf_common_debug

gpio_set_impedance/zf_driver_gpio             ----- -----
  +--> debug_assert_handler/zf_common_debug

gpio_set_level/zf_driver_gpio                 ----- -----
  +--> debug_assert_handler/zf_common_debug

uart_dma_init/zf_driver_uart                  ----- -----
L251 LINKER/LOCATER V4.66.93.0                                                        10/07/2025  14:20:36  PAGE 17



fifo_init/zf_common_fifo                      0A5FH 0A68H
  +--> debug_assert_handler/zf_common_debug

uart_rx_interrupt/zf_driver_uart              ----- -----

debug_interrupr_handler/zf_common_debug       0A5FH 0A5FH
  +--> uart_query_byte/zf_driver_uart
  +--> fifo_write_buffer/zf_common_fifo

uart_query_byte/zf_driver_uart                ----- -----
  +--> uart_rx_start_buff/zf_driver_uart

uart_rx_start_buff/zf_driver_uart             ----- -----

fifo_write_buffer/zf_common_fifo              0A60H 0A6DH
  +--> debug_assert_handler/zf_common_debug
  +--> memcpy?_/memcpy
  +--> fifo_head_offset/zf_common_fifo

memcpy?_/memcpy                               ----- -----

fifo_head_offset/zf_common_fifo               ----- -----

init_all/function                             ----- -----
  +--> system_delay_ms/zf_driver_delay
  +--> Motor_Init/function
  +--> Servo_Init/function
  +--> Buzzer_Init/Buzzer
  +--> Buzzer_OFF/Buzzer
  +--> ADC_GetInit/ADC_Get
  +--> tft180_init/zf_device_tft180
  +--> tft180_set_color/zf_device_tft180
  +--> menu_Init/menu
  +--> ?C?SLDIV/?C?SLDIV
  +--> pit_init/zf_driver_pit

Motor_Init/function                           ----- -----
  +--> pwm_init/zf_driver_pwm

pwm_init/zf_driver_pwm                        0A5FH 0A6CH
  +--> debug_assert_handler/zf_common_debug
  +--> gpio_init/zf_driver_gpio
  +--> ?C?ULIDIV/?C?ULDIV

Servo_Init/function                           ----- -----
  +--> pwm_init/zf_driver_pwm

Buzzer_Init/Buzzer                            ----- -----
  +--> gpio_init/zf_driver_gpio

Buzzer_OFF/Buzzer                             ----- -----
  +--> gpio_set_level/zf_driver_gpio

ADC_GetInit/ADC_Get                           ----- -----
  +--> adc_init/zf_driver_adc

adc_init/zf_driver_adc                        ----- -----

tft180_init/zf_device_tft180                  ----- -----
  +--> spi_init/zf_driver_spi
  +--> tft180_set_dir/zf_device_tft180
  +--> tft180_set_color/zf_device_tft180
  +--> system_delay_ms/zf_driver_delay
  +--> tft180_write_index/zf_device_tft180
L251 LINKER/LOCATER V4.66.93.0                                                        10/07/2025  14:20:36  PAGE 18


  +--> spi_write_8bit/zf_driver_spi
  +--> tft180_clear/zf_device_tft180

spi_init/zf_driver_spi                        0A5FH 0A6EH
  +--> debug_assert_handler/zf_common_debug
  +--> gpio_init/zf_driver_gpio
  +--> gpio_set_level_speed/zf_driver_gpio
  +--> ?C?ULIDIV/?C?ULDIV
  +--> uart_funciton_check/zf_driver_uart

gpio_set_level_speed/zf_driver_gpio           ----- -----
  +--> debug_assert_handler/zf_common_debug

tft180_set_dir/zf_device_tft180               ----- -----

tft180_set_color/zf_device_tft180             ----- -----

tft180_write_index/zf_device_tft180           ----- -----
  +--> spi_write_8bit/zf_driver_spi

spi_write_8bit/zf_driver_spi                  ----- -----
  +--> spi_write_dat/zf_driver_spi

spi_write_dat/zf_driver_spi                   ----- -----
  +--> debug_assert_handler/zf_common_debug

tft180_clear/zf_device_tft180                 0A5FH 0A62H
  +--> tft180_set_region/zf_device_tft180
  +--> spi_write_16bit/zf_driver_spi

tft180_set_region/zf_device_tft180            0A9AH 0A9DH
  +--> debug_assert_handler/zf_common_debug
  +--> tft180_write_index/zf_device_tft180
  +--> spi_write_16bit/zf_driver_spi

spi_write_16bit/zf_driver_spi                 ----- -----
  +--> spi_write_dat/zf_driver_spi

menu_Init/menu                                ----- -----
  +--> Menu_SetChildren/menu
  +--> Refesh_arrow/menu
  +--> menu_display_content/menu
  +--> Show_bujin/menu

Menu_SetChildren/menu                         ----- -----

Refesh_arrow/menu                             ----- -----
  +--> tft180_show_string/zf_device_tft180

tft180_show_string/zf_device_tft180           0A90H 0A95H
  +--> debug_assert_handler/zf_common_debug
  +--> tft180_show_char/zf_device_tft180

tft180_show_char/zf_device_tft180             0A96H 0A99H
  +--> debug_assert_handler/zf_common_debug
  +--> tft180_set_region/zf_device_tft180
  +--> spi_write_16bit/zf_driver_spi

menu_display_content/menu                     ----- -----
  +--> tft180_show_string/zf_device_tft180
  +--> tft180_show_float/zf_device_tft180

tft180_show_float/zf_device_tft180            0A5FH 0A8FH
  +--> debug_assert_handler/zf_common_debug
  +--> zf_sprintf/zf_common_function
L251 LINKER/LOCATER V4.66.93.0                                                        10/07/2025  14:20:36  PAGE 19


  +--> tft180_show_string/zf_device_tft180

zf_sprintf/zf_common_function                 0A90H 0AF2H
  +--> number_conversion_ascii/zf_common_function
  +--> printf_reverse_order/zf_common_function
  +--> memcpy?_/memcpy

number_conversion_ascii/zf_common_functi+     0AF3H 0AF3H
... on
  +--> ?C?SLDIV/?C?SLDIV
  +--> ?C?ULIDIV/?C?ULDIV

printf_reverse_order/zf_common_function       ----- -----

Show_bujin/menu                               ----- -----
  +--> tft180_show_string/zf_device_tft180

pit_init/zf_driver_pit                        ----- -----
  +--> ?C?ULIDIV/?C?ULDIV

pit_handler0/main                             ----- -----
  +--> Protect/function
  +--> pwm_set_duty/zf_driver_pwm
  +--> Buzzer_OFF/Buzzer
  +--> Show_pararm/function
  +--> Key_scaner/Key
  +--> State_of_road/Strategy

Protect/function                              ----- -----
  +--> Turn_mode_Init/function

Turn_mode_Init/function                       ----- -----
  +--> CAR_STOP/function
  +--> Buzzer_OFF/Buzzer
  +--> show_test_info/function
  +--> Refesh_arrow/menu
  +--> menu_display_content/menu
  +--> Show_bujin/menu
  +--> Motor_Update/control
  +--> PID_Update/control
  +--> Cycle_Update/control

CAR_STOP/function                             ----- -----
  +--> MotorL_SetSpeed/control
  +--> MotorR_SetSpeed/control
  +--> Ser_Servo_Duty/control

MotorL_SetSpeed/control                       ----- -----
  +--> pwm_set_duty/zf_driver_pwm

pwm_set_duty/zf_driver_pwm                    0A5FH 0A6AH
  +--> debug_assert_handler/zf_common_debug

MotorR_SetSpeed/control                       ----- -----
  +--> pwm_set_duty/zf_driver_pwm

Ser_Servo_Duty/control                        ----- -----
  +--> pwm_set_duty/zf_driver_pwm

show_test_info/function                       ----- -----
  +--> tft180_clear/zf_device_tft180
  +--> system_delay_ms/zf_driver_delay
  +--> tft180_show_string/zf_device_tft180

Motor_Update/control                          ----- -----
L251 LINKER/LOCATER V4.66.93.0                                                        10/07/2025  14:20:36  PAGE 20


  +--> MotorR_SetSpeed/control
  +--> MotorL_SetSpeed/control

PID_Update/control                            ----- -----

Cycle_Update/control                          ----- -----

Show_pararm/function                          ----- -----
  +--> tft180_show_string/zf_device_tft180
  +--> tft180_show_float/zf_device_tft180
  +--> unification/function
  +--> tft180_show_int16/zf_device_tft180

unification/function                          0A5FH 0A64H
  +--> fast_sqrt/function

fast_sqrt/function                            0A65H 0A6CH
  +--> memcpy?_/memcpy

tft180_show_int16/zf_device_tft180            0A5FH 0A66H
  +--> debug_assert_handler/zf_common_debug
  +--> tft180_show_char/zf_device_tft180

Key_scaner/Key                                ----- -----
  +--> Key_Number/Key
  +--> Turn_mode/Key

Key_Number/Key                                ----- -----
  +--> gpio_get_level/zf_driver_gpio

gpio_get_level/zf_driver_gpio                 ----- -----
  +--> debug_assert_handler/zf_common_debug

Turn_mode/Key                                 ----- -----

State_of_road/Strategy                        ----- -----
  +--> Buzzer_OFF/Buzzer
  +--> Motor_Update/control
  +--> tft180_show_string/zf_device_tft180
  +--> Buzzer_ON/Buzzer
  +--> CAR_STOP/function

Buzzer_ON/Buzzer                              ----- -----
  +--> gpio_set_level/zf_driver_gpio

pit_handler1/main                             ----- -----
  +--> ADC_SampleAndFilter/ADC_Get
  +--> unification/function
  +--> Servo_turn_pid/control
  +--> if_Cycle/Strategy

ADC_SampleAndFilter/ADC_Get                   ----- -----
  +--> adc_convert/zf_driver_adc
  +--> adc_filter/ADC_Get

adc_convert/zf_driver_adc                     ----- -----

adc_filter/ADC_Get                            ----- -----
  +--> ?C?ULIDIV/?C?ULDIV

Servo_turn_pid/control                        0A5FH 0A6AH
  +--> Help_turn/Strategy

Help_turn/Strategy                            ----- -----

L251 LINKER/LOCATER V4.66.93.0                                                        10/07/2025  14:20:36  PAGE 21


if_Cycle/Strategy                             ----- -----
  +--> Buzzer_ON/Buzzer
  +--> Buzzer_OFF/Buzzer
  +--> CAR_STOP/function

menu_handle_key/menu                          ----- -----
  +--> handle_key1/menu
  +--> handle_key2/menu
  +--> handle_key3/menu
  +--> handle_key4/menu
  +--> handle_key5/menu

handle_key1/menu                              ----- -----
  +--> tft180_show_string/zf_device_tft180
  +--> tft180_clear/zf_device_tft180
  +--> menu_display_content/menu
  +--> Refesh_arrow/menu

handle_key2/menu                              ----- -----
  +--> Show_bujin/menu

handle_key3/menu                              ----- -----
  +--> Show_bujin/menu

handle_key4/menu                              ----- -----
  +--> menu_display_content/menu
  +--> tft180_show_string/zf_device_tft180
  +--> tft180_clear/zf_device_tft180
  +--> Refesh_arrow/menu

handle_key5/menu                              ----- -----
  +--> Key3_handle1/menu
  +--> Key3_handle2/menu

Key3_handle1/menu                             ----- -----
  +--> Refesh_arrow/menu

Key3_handle2/menu                             ----- -----
  +--> show_all_menu/menu
  +--> Refesh_arrow/menu

show_all_menu/menu                            ----- -----
  +--> tft180_clear/zf_device_tft180
  +--> Refesh_arrow/menu
  +--> menu_display_content/menu
  +--> Show_bujin/menu

GO_Function/function                          ----- -----
  +--> Turn_mode_Init/function

PWM_Test/Device_Test                          ----- -----
  +--> MotorL_SetSpeed/control
  +--> MotorR_SetSpeed/control

Serve_Test/Device_Test                        ----- -----
  +--> Ser_Servo_Duty/control
  +--> system_delay_ms/zf_driver_delay

Set_Sevo/Device_Test                          ----- -----
  +--> Ser_Servo_Duty/control

SPRINTF/SPRINTF                               0A5FH 0A86H
  +--> OUT/SPRINTF

OUT/SPRINTF                                   ----- -----
L251 LINKER/LOCATER V4.66.93.0                                                        10/07/2025  14:20:36  PAGE 22


  +--> PUTCH/SPRINTF

PUTCH/SPRINTF                                 ----- -----

*** NEW ROOT ********************************

TM11_IRQHandler/isr                           ----- -----

*** NEW ROOT ********************************

DMA_UART1_IRQHandler/isr                      ----- -----
  +--> uart_rx_start_buff/zf_driver_uart

*** NEW ROOT ********************************

DMA_UART2_IRQHandler/isr                      ----- -----
  +--> uart_rx_start_buff/zf_driver_uart

*** NEW ROOT ********************************

DMA_UART3_IRQHandler/isr                      ----- -----
  +--> uart_rx_start_buff/zf_driver_uart

*** NEW ROOT ********************************

DMA_UART4_IRQHandler/isr                      ----- -----
  +--> uart_rx_start_buff/zf_driver_uart

*** NEW ROOT ********************************

TM0_IRQHandler/isr                            ----- -----

*** NEW ROOT ********************************

TM1_IRQHandler/isr                            ----- -----

*** NEW ROOT ********************************

TM2_IRQHandler/isr                            ----- -----

*** NEW ROOT ********************************

TM3_IRQHandler/isr                            ----- -----

*** NEW ROOT ********************************

TM4_IRQHandler/isr                            ----- -----

*** NEW ROOT ********************************

?C_C51STARTUP?1                               ----- -----

*** NEW ROOT ********************************

?C_C51STARTUP?2                               ----- -----



PUBLIC SYMBOLS OF MODULE:  .\out_file\SEEKFREE (ai8051u_isr)


      VALUE       CLASS    TYPE      PUBLIC SYMBOL NAME
      =================================================
      00FF3919H   CODE     ---       ?C?BMOVEPP
      00FF3917H   CODE     ---       ?C?BMOVEPP8
L251 LINKER/LOCATER V4.66.93.0                                                        10/07/2025  14:20:36  PAGE 23


      00FF259FH   CODE     NEAR LAB  ?C?CASTD
      00FF3807H   CODE     NEAR LAB  ?C?CASTF
      000000FFH   NUMBER   ---       ?C?CODESEG
      00FF255CH   CODE     NEAR LAB  ?C?DCASTC
      00FF25FFH   CODE     NEAR LAB  ?C?DCASTF
      00FF2557H   CODE     NEAR LAB  ?C?DCASTI
      00FF2552H   CODE     NEAR LAB  ?C?DCASTL
      00FF2FD3H   CODE     ---       ?C?DP2SERIES
      00FF2225H   CODE     ---       ?C?DPADD
      00FF24E5H   CODE     ---       ?C?DPCMP
      00FF24E3H   CODE     ---       ?C?DPCMP3
      00FF32BEH   CODE     ---       ?C?DPCONVERT
      00FF2444H   CODE     ---       ?C?DPDIV
      00FF2AF5H   CODE     ---       ?C?DPGETOPN2
      00FF2334H   CODE     ---       ?C?DPMUL
      00FF2B40H   CODE     ---       ?C?DPNANRESULT
      00FF2544H   CODE     ---       ?C?DPNEG
      00FF2B4CH   CODE     ---       ?C?DPOVERFLOW
      00FF2B18H   CODE     ---       ?C?DPRESULT
      00FF2B31H   CODE     ---       ?C?DPRESULT2
      00FF33E5H   CODE     ---       ?C?DPROUND
      00FF2FDEH   CODE     ---       ?C?DPSERIES
      00FF2221H   CODE     ---       ?C?DPSUB
      00FF2B47H   CODE     ---       ?C?DPUNDERFLOW
      00FF34C0H   CODE     ---       ?C?DTNPWR
      00FF37D4H   CODE     NEAR LAB  ?C?FCASTC
      00FF2641H   CODE     NEAR LAB  ?C?FCASTD
      00FF37CFH   CODE     NEAR LAB  ?C?FCASTI
      00FF37CAH   CODE     NEAR LAB  ?C?FCASTL
      00FF359DH   CODE     ---       ?C?FPADD
      00FF3778H   CODE     ---       ?C?FPCMP
      00FF3776H   CODE     ---       ?C?FPCMP3
      00FF36F5H   CODE     ---       ?C?FPDIV
      00FF3546H   CODE     ---       ?C?FPGETOPN2
      00FF3655H   CODE     ---       ?C?FPMUL
      00FF3583H   CODE     ---       ?C?FPNANRESULT
      00FF37BCH   CODE     ---       ?C?FPNEG
      00FF358BH   CODE     ---       ?C?FPOVERFLOW
      00FF355FH   CODE     ---       ?C?FPRESULT
      00FF3575H   CODE     ---       ?C?FPRESULT2
      00FF359AH   CODE     ---       ?C?FPSUB
      00FF3588H   CODE     ---       ?C?FPUNDERFLOW
      00FFA580H   CODE     ---       ?C?INITHDATA
      00FFB8A2H   HCONST   WORD      ?C?INITHDATA_END
      00FF3887H   CODE     ---       ?C?LIMUL
      00FF3876H   CODE     ---       ?C?LMUL
      00FF2BA5H   CODE     ---       ?C?PRNFMT
      00FF3844H   CODE     ---       ?C?SIDIV
      00FF38E3H   CODE     NEAR LAB  ?C?SLDIV
      00FF0000H   CODE     ---       ?C?STARTUP
      00FF3892H   CODE     NEAR LAB  ?C?ULDIV
      00FF3890H   CODE     NEAR LAB  ?C?ULIDIV
      00000001H   NUMBER   ---       ?C?XDATASEG
      00FF0000H   CODE     ---       ?C_STARTUP
      00010A5BH   XDATA    BYTE      ?fifo_init?BYTE
*DEL*:1FFFFFFCH   XDATA    BYTE      ?fifo_read_buffer?BYTE
      00010A5CH   XDATA    BYTE      ?fifo_write_buffer?BYTE
*DEL*:1FFFFFFCH   XDATA    BYTE      ?func_double_to_str?BYTE
*DEL*:00000000H   XDATA    BYTE      ?get_two_points_azimuth?BYTE
*DEL*:00000000H   XDATA    BYTE      ?get_two_points_distance?BYTE
*DEL*:1FFFFFFCH   XDATA    BYTE      ?iap_read_buff?BYTE
*DEL*:1FFFFFFCH   XDATA    BYTE      ?iap_write_buff?BYTE
*DEL*:1FFFFFFCH   XDATA    BYTE      ?ips114_show_chinese?BYTE
*DEL*:1FFFFFFEH   XDATA    BYTE      ?ips114_show_float?BYTE
*DEL*:1FFFFFFCH   XDATA    BYTE      ?ips114_show_wave?BYTE
L251 LINKER/LOCATER V4.66.93.0                                                        10/07/2025  14:20:36  PAGE 24


*DEL*:1FFFFFFCH   XDATA    BYTE      ?ips200_show_chinese?BYTE
*DEL*:1FFFFFFEH   XDATA    BYTE      ?ips200_show_float?BYTE
*DEL*:1FFFFFFCH   XDATA    BYTE      ?ips200_show_wave?BYTE
*DEL*:1FFFFFF8H   XDATA    BYTE      ?Normal_PID?BYTE
      00010AD6H   XDATA    ---       ?printf?BYTE
      00010A5DH   XDATA    BYTE      ?pwm_init?BYTE
*DEL*:1FFFFFFEH   XDATA    BYTE      ?pwm_set_freq?BYTE
*DEL*:1FFFFFF8H   XDATA    BYTE      ?seekfree_assistant_camera_boundary_config?BYTE
*DEL*:1FFFFFFBH   XDATA    BYTE      ?seekfree_assistant_camera_data_send?BYTE
*DEL*:1FFFFFF8H   XDATA    BYTE      ?seekfree_assistant_camera_information_config?BYTE
*DEL*:1FFFFFFCH   XDATA    BYTE      ?soft_iic_init?BYTE
*DEL*:1FFFFFFCH   XDATA    BYTE      ?soft_iic_read_16bit_array?BYTE
*DEL*:1FFFFFFCH   XDATA    BYTE      ?soft_iic_read_16bit_registers?BYTE
*DEL*:1FFFFFFCH   XDATA    BYTE      ?soft_iic_read_8bit_array?BYTE
*DEL*:1FFFFFFCH   XDATA    BYTE      ?soft_iic_read_8bit_registers?BYTE
*DEL*:1FFFFFFCH   XDATA    BYTE      ?soft_iic_transfer_16bit_array?BYTE
*DEL*:1FFFFFFCH   XDATA    BYTE      ?soft_iic_transfer_8bit_array?BYTE
*DEL*:1FFFFFFCH   XDATA    BYTE      ?soft_iic_write_16bit_array?BYTE
*DEL*:1FFFFFFCH   XDATA    BYTE      ?soft_iic_write_16bit_registers?BYTE
*DEL*:1FFFFFFCH   XDATA    BYTE      ?soft_iic_write_8bit_array?BYTE
*DEL*:1FFFFFFCH   XDATA    BYTE      ?soft_iic_write_8bit_registers?BYTE
*DEL*:1FFFFFFCH   XDATA    BYTE      ?soft_spi_init?BYTE
*DEL*:1FFFFFFCH   XDATA    BYTE      ?soft_spi_read_16bit_array?BYTE
*DEL*:1FFFFFFCH   XDATA    BYTE      ?soft_spi_read_16bit_registers?BYTE
*DEL*:1FFFFFFCH   XDATA    BYTE      ?soft_spi_read_8bit_array?BYTE
*DEL*:1FFFFFFCH   XDATA    BYTE      ?soft_spi_read_8bit_registers?BYTE
*DEL*:1FFFFFFCH   XDATA    BYTE      ?soft_spi_transfer_16bit?BYTE
*DEL*:1FFFFFFCH   XDATA    BYTE      ?soft_spi_transfer_8bit?BYTE
*DEL*:1FFFFFFCH   XDATA    BYTE      ?soft_spi_write_16bit_array?BYTE
*DEL*:1FFFFFFCH   XDATA    BYTE      ?soft_spi_write_16bit_registers?BYTE
*DEL*:1FFFFFFCH   XDATA    BYTE      ?soft_spi_write_8bit_array?BYTE
*DEL*:1FFFFFFCH   XDATA    BYTE      ?soft_spi_write_8bit_registers?BYTE
      00010A5BH   XDATA    BYTE      ?spi_init?BYTE
*DEL*:1FFFFFFCH   XDATA    BYTE      ?spi_read_16bit_array?BYTE
*DEL*:1FFFFFFCH   XDATA    BYTE      ?spi_read_16bit_registers?BYTE
*DEL*:1FFFFFFCH   XDATA    BYTE      ?spi_read_8bit_array?BYTE
*DEL*:1FFFFFFBH   XDATA    BYTE      ?spi_read_8bit_registers?BYTE
*DEL*:1FFFFFFCH   XDATA    BYTE      ?spi_transfer_16bit?BYTE
*DEL*:1FFFFFFCH   XDATA    BYTE      ?spi_transfer_8bit?BYTE
*DEL*:1FFFFFFCH   XDATA    BYTE      ?spi_write_16bit_array?BYTE
*DEL*:1FFFFFFCH   XDATA    BYTE      ?spi_write_16bit_registers?BYTE
*DEL*:1FFFFFFCH   XDATA    BYTE      ?spi_write_8bit_array?BYTE
*DEL*:1FFFFFFBH   XDATA    BYTE      ?spi_write_8bit_registers?BYTE
      00010A87H   XDATA    ---       ?sprintf?BYTE
      00010A5DH   XDATA    BYTE      ?tft180_show_float?BYTE
*DEL*:1FFFFFFCH   XDATA    BYTE      ?tft180_show_wave?BYTE
      00010A5BH   XDATA    BYTE      ?uart_init?BYTE
      00010AB8H   XDATA    BYTE      ?zf_sprintf?BYTE
      00FF2B5AH   CODE     ---       _chkdouble_?_
      00FF8C7CH   CODE     ---       _m
*SFR* 000000D0H.6 DATA     BIT       AC
*SFR* 000000E0H   DATA     BYTE      ACC
      0001052CH   XDATA    WORD      ADC_1
      0001052EH   XDATA    WORD      ADC_2
      00010530H   XDATA    WORD      ADC_3
      00010532H   XDATA    WORD      ADC_4
      00010534H   XDATA    WORD      ADC_5
      00010536H   XDATA    WORD      ADC_6
      00010543H   XDATA    WORD      ADC_8
*SFR* 000000BCH   DATA     BYTE      ADC_CONTR
      00FFABD4H   CODE     ---       adc_convert
      00FF994BH   CODE     ---       adc_filter
      00FFAC90H   CODE     ---       ADC_GetInit
      00FF9F9EH   CODE     ---       adc_init
*DEL*:00000000H   CODE     ---       adc_mean_filter_convert
L251 LINKER/LOCATER V4.66.93.0                                                        10/07/2025  14:20:36  PAGE 25


      00010C23H   XDATA    ---       ADC_Num
*SFR* 000000BDH   DATA     BYTE      ADC_RES
*SFR* 000000BEH   DATA     BYTE      ADC_RESL
      00FF8E4AH   CODE     ---       ADC_SampleAndFilter
      00010C3DH   XDATA    BYTE      ADC_Show_Flag
*SFR* 000000DEH   DATA     BYTE      ADCCFG
      00FF3940H   CODE     ---       asc2_0806
      00FF3B68H   CODE     ---       asc2_1608
      00FF544CH   CODE     ---       ascii_font_8x16
      00FF2ACBH   CODE     ---       asin?_
      00FF29B0H   CODE     ---       atan?_
*SFR* 000000EFH   DATA     BYTE      AUXINTIF
*SFR* 0000008EH   DATA     BYTE      AUXR
*SFR* 00000097H   DATA     BYTE      AUXR2
*SFR* 000000F0H   DATA     BYTE      B
*DEL*:00000000H   CODE     ---       battery_get
      00000020H.0 BIT      BIT       Battery_Init
      00010C93H   XDATA    WORD      Bend_Time
*DEL*:00000000H   CODE     ---       ble6a20_callback
*DEL*:00000000H   CODE     ---       ble6a20_init
*DEL*:00000000H   CODE     ---       ble6a20_read_buffer
*DEL*:00000000H   CODE     ---       ble6a20_send_buffer
*DEL*:00000000H   CODE     ---       ble6a20_send_byte
*DEL*:00000000H   CODE     ---       ble6a20_send_string
      00010D08H   XDATA    FLOAT     bujin
      00FFAD83H   CODE     ---       Buzzer_Init
      00FF01BEH   CODE     ---       Buzzer_OFF
      00FF01AEH   CODE     ---       Buzzer_ON
*SFR* 000000C8H.1 DATA     BIT       C_T2
      00010D90H   XDATA    BYTE      CAR_Mode
      00FFAD4FH   CODE     ---       CAR_STOP
*SFR* 000000FAH   DATA     BYTE      CCAP0H
*SFR* 000000EAH   DATA     BYTE      CCAP0L
*SFR* 000000FBH   DATA     BYTE      CCAP1H
*SFR* 000000EBH   DATA     BYTE      CCAP1L
*SFR* 000000FCH   DATA     BYTE      CCAP2H
*SFR* 000000ECH   DATA     BYTE      CCAP2L
*SFR* 000000FDH   DATA     BYTE      CCAP3H
*SFR* 000000EDH   DATA     BYTE      CCAP3L
*SFR* 000000FEH   DATA     BYTE      CCAP4H
*SFR* 000000EEH   DATA     BYTE      CCAP4L
*SFR* 000000DAH   DATA     BYTE      CCAPM0
*SFR* 000000DBH   DATA     BYTE      CCAPM1
*SFR* 000000DCH   DATA     BYTE      CCAPM2
*SFR* 000000DDH   DATA     BYTE      CCAPM3
*SFR* 000000DEH   DATA     BYTE      CCAPM4
*SFR* 000000D8H.0 DATA     BIT       CCF0
*SFR* 000000D8H.1 DATA     BIT       CCF1
*SFR* 000000D8H.2 DATA     BIT       CCF2
*SFR* 000000D8H.3 DATA     BIT       CCF3
*SFR* 000000D8H.4 DATA     BIT       CCF4
*SFR* 000000D8H   DATA     BYTE      CCON
*SFR* 00000090H.3 DATA     BIT       CEX0
*SFR* 00000090H.4 DATA     BIT       CEX1
*SFR* 00000090H.5 DATA     BIT       CEX2
*SFR* 00000090H.6 DATA     BIT       CEX3
*SFR* 00000090H.7 DATA     BIT       CEX4
*SFR* 000000D8H.7 DATA     BIT       CF
*SFR* 000000F9H   DATA     BYTE      CH
*SFR* 000000EAH   DATA     BYTE      CKCON
*SFR* 000000E9H   DATA     BYTE      CL
      00FF90EAH   CODE     ---       clock_init
*SFR* 000000D9H   DATA     BYTE      CMOD
*SFR* 000000E6H   DATA     BYTE      CMPCR1
*SFR* 000000E7H   DATA     BYTE      CMPCR2
L251 LINKER/LOCATER V4.66.93.0                                                        10/07/2025  14:20:36  PAGE 26


      00010C82H   XDATA    WORD      Continue_Time
      00FF2818H   CODE     ---       cos?_
*SFR* 000000C8H.0 DATA     BIT       CP_RL2
*SFR* 000000D8H.6 DATA     BIT       CR
*SFR* 000000D0H.7 DATA     BIT       CY
      00010C95H   XDATA    BYTE      Cycle_Stat
      00FF7C16H   CODE     ---       Cycle_Update
      00010C6CH   XDATA    INT       dajiao
      00FFA36DH   CODE     ---       debug_assert_handler
      00FF9A96H   CODE     ---       debug_init
      00FFAB30H   CODE     ---       debug_interrupr_handler
*DEL*:00000000H   CODE     ---       debug_read_buffer
*DEL*:00000000H   CODE     ---       debug_send_buffer
      00010AF4H   XDATA    ---       debug_uart_buffer
      00010B35H   XDATA    ---       debug_uart_fifo
*DEL*:00000000H   CODE     ---       delay_ms
      00010D03H   XDATA    WORD      dl1a_distance_mm
      00010D05H   XDATA    BYTE      dl1a_finsh_flag
*DEL*:00000000H   CODE     ---       dl1a_get_distance
*DEL*:00000000H   CODE     ---       dl1a_init
*DEL*:00000000H   CODE     ---       dl1a_int_handler
      00FF99F1H   CODE     ---       DMA_UART1_IRQHandler
      00FF9E03H   CODE     ---       DMA_UART2_IRQHandler
      00FF9E8CH   CODE     ---       DMA_UART3_IRQHandler
      00FF9F15H   CODE     ---       DMA_UART4_IRQHandler
*SFR* 00000083H   DATA     BYTE      DPH
*SFR* 00000082H   DATA     BYTE      DPL
*SFR* 00000084H   DATA     BYTE      DPXL
*SFR* 000000A8H.7 DATA     BIT       EA
*SFR* 000000A8H.6 DATA     BIT       EC
*SFR* 00000090H.2 DATA     BIT       ECI
*DEL*:00000000H   CODE     ---       eeprom_read_float
*DEL*:00000000H   CODE     ---       eeprom_read_Num
*DEL*:00000000H   CODE     ---       eeprom_save_float
*DEL*:00000000H   CODE     ---       eeprom_save_Num
*DEL*:00000000H   CODE     ---       eeprom_trig
*DEL*:00000000H   CODE     ---       encoder_clear_count
*DEL*:00000000H   CODE     ---       encoder_dir_init
*DEL*:00000000H   CODE     ---       encoder_get_count
      00010C86H   XDATA    BYTE      Enter_Flag_Left
      00010C76H   XDATA    WORD      Entern_Continue_Time
      00010C7EH   XDATA    WORD      Entern_Delay_Time
      00010C84H   XDATA    WORD      Entern_Flag_Time
*SFR* 000000A8H.4 DATA     BIT       ES
*SFR* 000000A8H.1 DATA     BIT       ET0
*SFR* 000000A8H.3 DATA     BIT       ET1
*SFR* 000000A8H.5 DATA     BIT       ET2
*SFR* 000000A8H.0 DATA     BIT       EX0
*SFR* 000000A8H.2 DATA     BIT       EX1
*SFR* 000000C8H.3 DATA     BIT       EXEN2
*SFR* 000000C8H.6 DATA     BIT       EXF2
      00FF30BAH   CODE     ---       exp?_
*DEL*:00000000H   CODE     ---       extern_iap_write_buff
*SFR* 000000D0H.5 DATA     BIT       F0
      00FF97EFH   CODE     ---       fast_sqrt
*SFR* 00000098H.7 DATA     BIT       FE
*DEL*:00000000H   CODE     ---       fifo_clear
      00FFA0A8H   CODE     ---       fifo_init
*DEL*:00000000H   CODE     ---       fifo_read_buffer
*DEL*:00000000H   CODE     ---       fifo_used
      00FF63F1H   CODE     ---       fifo_write_buffer
      00010C31H   XDATA    ---       filtered_adc
      00010D13H   XDATA    CHAR      Flag
*DEL*:00000000H   CODE     ---       func_double_to_str
*DEL*:00000000H   CODE     ---       func_float_to_str
L251 LINKER/LOCATER V4.66.93.0                                                        10/07/2025  14:20:36  PAGE 27


*DEL*:00000000H   CODE     ---       func_get_greatest_common_divisor
*DEL*:00000000H   CODE     ---       func_hex_to_str
*DEL*:00000000H   CODE     ---       func_int_to_str
*DEL*:00000000H   CODE     ---       func_soft_delay
*DEL*:00000000H   CODE     ---       func_str_to_double
*DEL*:00000000H   CODE     ---       func_str_to_float
*DEL*:00000000H   CODE     ---       func_str_to_hex
*DEL*:00000000H   CODE     ---       func_str_to_int
*DEL*:00000000H   CODE     ---       func_str_to_uint
*DEL*:00000000H   CODE     ---       func_uint_to_str
*DEL*:00000000H   CODE     ---       get_two_points_azimuth
*DEL*:00000000H   CODE     ---       get_two_points_distance
      00FFADB4H   CODE     ---       GO_Function
      00FF00C6H   CODE     ---       gpio_get_level
      00FF9509H   CODE     ---       gpio_init
      00FF836DH   CODE     ---       gpio_set_impedance
      00FF7F46H   CODE     ---       gpio_set_level
      00FF7163H   CODE     ---       gpio_set_level_speed
*DEL*:00000000H   CODE     ---       gpio_toggle_level
*DEL*:00000000H   CODE     ---       gps_data_parse
      0001091EH   XDATA    INT       gps_gga_state
*DEL*:00000000H   CODE     ---       gps_init
      00010920H   XDATA    INT       gps_rmc_state
      000107EAH   XDATA    ---       gps_tau1201
      00010769H   XDATA    BYTE      gps_tau1201_flag
      00010D5BH   XDATA    INT       gps_type
*DEL*:00000000H   CODE     ---       gps_uart_callback
      00FF91C8H   CODE     ---       handle_key1
      00FFA8BBH   CODE     ---       handle_key2
      00FFA6B4H   CODE     ---       handle_key3
      00FF9442H   CODE     ---       handle_key4
      00FF0046H   CODE     ---       handle_key5
      00FFA661H   CODE     ---       Help_turn
      00FF4158H   CODE     ---       Hzk
      00010D0FH   XDATA    CHAR      i
*SFR* 000000F6H   DATA     BYTE      IAP_ADDRE
*SFR* 000000C3H   DATA     BYTE      IAP_ADDRH
*SFR* 000000C4H   DATA     BYTE      IAP_ADDRL
*SFR* 000000C5H   DATA     BYTE      IAP_CMD
*SFR* 000000C7H   DATA     BYTE      IAP_CONTR
*SFR* 000000C2H   DATA     BYTE      IAP_DATA
*DEL*:00000000H   CODE     ---       iap_erase_page
*DEL*:00000000H   CODE     ---       iap_get_cmd_state
*DEL*:00000000H   CODE     ---       iap_idle
*DEL*:00000000H   CODE     ---       iap_init
*DEL*:00000000H   CODE     ---       iap_read_buff
*DEL*:00000000H   CODE     ---       iap_read_byte
*DEL*:00000000H   CODE     ---       iap_set_tps
*SFR* 000000F5H   DATA     BYTE      IAP_TPS
*SFR* 000000C6H   DATA     BYTE      IAP_TRIG
*DEL*:00000000H   CODE     ---       iap_write_buff
*DEL*:00000000H   CODE     ---       iap_write_byte
      00010CD2H   XDATA    INT       icm20602_acc_x
      00010CD4H   XDATA    INT       icm20602_acc_y
      00010CD6H   XDATA    INT       icm20602_acc_z
*DEL*:00000000H   CODE     ---       icm20602_get_acc
*DEL*:00000000H   CODE     ---       icm20602_get_gyro
      00010CD8H   XDATA    INT       icm20602_gyro_x
      00010CDAH   XDATA    INT       icm20602_gyro_y
      00010CDCH   XDATA    INT       icm20602_gyro_z
*DEL*:00000000H   CODE     ---       icm20602_init
      00010CDEH   XDATA    ---       icm20602_transition_factor
*SFR* 000000A8H   DATA     BYTE      IE
*SFR* 000000A8H   DATA     BYTE      IE0
*SFR* 00000088H.1 DATA     BIT       IE0_
L251 LINKER/LOCATER V4.66.93.0                                                        10/07/2025  14:20:36  PAGE 28


*SFR* 000000B1H   DATA     BYTE      IE1
*SFR* 00000088H.3 DATA     BIT       IE1_
*SFR* 000000AFH   DATA     BYTE      IE2
      00010C78H   XDATA    WORD      if2_time
      00FF8A99H   CODE     ---       if_Cycle
      00010C8BH   XDATA    WORD      if_time
      00010CE6H   XDATA    INT       imu660ra_acc_x
      00010CE8H   XDATA    INT       imu660ra_acc_y
      00010CEAH   XDATA    INT       imu660ra_acc_z
      00FF021EH   CODE     ---       imu660ra_config_file
*DEL*:00000000H   CODE     ---       imu660ra_get_acc
*DEL*:00000000H   CODE     ---       imu660ra_get_gyro
      00010CECH   XDATA    INT       imu660ra_gyro_x
      00010CEEH   XDATA    INT       imu660ra_gyro_y
      00010CF0H   XDATA    INT       imu660ra_gyro_z
*DEL*:00000000H   CODE     ---       imu660ra_init
      00010CF2H   XDATA    ---       imu660ra_transition_factor
*DEL*:00000000H   CODE     ---       imu660rb_acc_transition
      00010D2CH   XDATA    INT       imu660rb_acc_x
      00010D2EH   XDATA    INT       imu660rb_acc_y
      00010D30H   XDATA    INT       imu660rb_acc_z
*DEL*:00000000H   CODE     ---       imu660rb_get_acc
*DEL*:00000000H   CODE     ---       imu660rb_get_gyro
*DEL*:00000000H   CODE     ---       imu660rb_gyro_transition
      00010D32H   XDATA    INT       imu660rb_gyro_x
      00010D34H   XDATA    INT       imu660rb_gyro_y
      00010D36H   XDATA    INT       imu660rb_gyro_z
*DEL*:00000000H   CODE     ---       imu660rb_init
      00010CB4H   XDATA    INT       imu963ra_acc_x
      00010CB6H   XDATA    INT       imu963ra_acc_y
      00010CB8H   XDATA    INT       imu963ra_acc_z
*DEL*:00000000H   CODE     ---       imu963ra_get_acc
*DEL*:00000000H   CODE     ---       imu963ra_get_gyro
*DEL*:00000000H   CODE     ---       imu963ra_get_mag
      00010CC0H   XDATA    INT       imu963ra_gyro_x
      00010CC2H   XDATA    INT       imu963ra_gyro_y
      00010CC4H   XDATA    INT       imu963ra_gyro_z
*DEL*:00000000H   CODE     ---       imu963ra_init
      00010CBAH   XDATA    INT       imu963ra_mag_x
      00010CBCH   XDATA    INT       imu963ra_mag_y
      00010CBEH   XDATA    INT       imu963ra_mag_z
      00010CC6H   XDATA    ---       imu963ra_transition_factor
      00FF9B2DH   CODE     ---       init_all
      00010C3CH   XDATA    BYTE      Init_Fg
      00010D42H   XDATA    BYTE      Init_Flag
      00010D6DH   XDATA    INT       Init_Time
*SFR* 000000B0H.2 DATA     BIT       INT0
      00010CA2H   XDATA    ---       int0_irq_handler
*SFR* 000000B0H.3 DATA     BIT       INT1
      00010CA6H   XDATA    ---       int1_irq_handler
      00010CAAH   XDATA    ---       int2_irq_handler
      00010CAEH   XDATA    ---       int3_irq_handler
      00010CB2H   XDATA    ---       int4_irq_handler
*SFR* 0000008FH   DATA     BYTE      INTCLKO
*DEL*:00000000H   CODE     ---       interrupt_global_disable
      00FF001EH   CODE     ---       interrupt_global_enable
*DEL*:00000000H   CODE     ---       interrupt_set_priority
*SFR* 000000B8H   DATA     BYTE      IP
*SFR* 000000B5H   DATA     BYTE      IP2
*SFR* 000000B6H   DATA     BYTE      IP2H
*SFR* 000000DFH   DATA     BYTE      IP3
*SFR* 000000EEH   DATA     BYTE      IP3H
*SFR* 000000B7H   DATA     BYTE      IPH
*SFR* 000000B7H   DATA     BYTE      IPH0
*SFR* 000000B8H   DATA     BYTE      IPL0
L251 LINKER/LOCATER V4.66.93.0                                                        10/07/2025  14:20:36  PAGE 29


      00010D67H   XDATA    WORD      ips114_bgcolor
*DEL*:00000000H   CODE     ---       ips114_clear
      00010D69H   XDATA    INT       ips114_display_dir
*DEL*:00000000H   CODE     ---       ips114_draw_point
*DEL*:00000000H   CODE     ---       ips114_init
      00010D65H   XDATA    WORD      ips114_pencolor
*DEL*:00000000H   CODE     ---       ips114_set_color
*DEL*:00000000H   CODE     ---       ips114_set_dir
*DEL*:00000000H   CODE     ---       ips114_show_char
*DEL*:00000000H   CODE     ---       ips114_show_chinese
*DEL*:00000000H   CODE     ---       ips114_show_float
*DEL*:00000000H   CODE     ---       ips114_show_int16
*DEL*:00000000H   CODE     ---       ips114_show_int32
*DEL*:00000000H   CODE     ---       ips114_show_int8
*DEL*:00000000H   CODE     ---       ips114_show_string
*DEL*:00000000H   CODE     ---       ips114_show_uint16
*DEL*:00000000H   CODE     ---       ips114_show_uint8
*DEL*:00000000H   CODE     ---       ips114_show_wave
      00010D6BH   XDATA    BYTE      ips114_x_max
      00010D6CH   XDATA    BYTE      ips114_y_max
      00010D45H   XDATA    WORD      ips200_bgcolor
*DEL*:00000000H   CODE     ---       ips200_clear
      00010D47H   XDATA    INT       ips200_display_dir
*DEL*:00000000H   CODE     ---       ips200_draw_point
*DEL*:00000000H   CODE     ---       ips200_init
      00010D43H   XDATA    WORD      ips200_pencolor
*DEL*:00000000H   CODE     ---       ips200_set_color
*DEL*:00000000H   CODE     ---       ips200_set_dir
*DEL*:00000000H   CODE     ---       ips200_show_char
*DEL*:00000000H   CODE     ---       ips200_show_chinese
*DEL*:00000000H   CODE     ---       ips200_show_float
*DEL*:00000000H   CODE     ---       ips200_show_int16
*DEL*:00000000H   CODE     ---       ips200_show_int32
*DEL*:00000000H   CODE     ---       ips200_show_int8
*DEL*:00000000H   CODE     ---       ips200_show_string
*DEL*:00000000H   CODE     ---       ips200_show_uint16
*DEL*:00000000H   CODE     ---       ips200_show_uint8
*DEL*:00000000H   CODE     ---       ips200_show_wave
      00010D49H   XDATA    WORD      ips200_x_max
      00010D4BH   XDATA    WORD      ips200_y_max
*SFR* 0000009DH   DATA     BYTE      IRCBAND
*SFR* 00000088H.0 DATA     BIT       IT0
*SFR* 00000088H.2 DATA     BIT       IT1
      00010D10H   XDATA    CHAR      j
      00010D0DH   XDATA    BYTE      Key
      00010D11H   XDATA    CHAR      Key3_count
      00FF019EH   CODE     ---       Key3_handle1
      00FF9374H   CODE     ---       Key3_handle2
      00010D3DH   XDATA    BYTE      Key_count
      00010C39H   XDATA    BYTE      Key_Flag
      00FFA876H   CODE     ---       Key_Number
      00FF897FH   CODE     ---       Key_scaner
      00010D40H   XDATA    BYTE      keynumber
      00010D41H   XDATA    BYTE      last_keynumber
      00010C8FH   XDATA    FLOAT     last_uni
      00FF31A3H   CODE     NEAR LAB  log?_
      00010C71H   XDATA    WORD      Long_Time
      00FF0066H   CODE     ---       MAIN
      00FFACE4H   CODE     ---       memcpy?_
*DEL*:00000000H   CODE     ---       memset?_
      00FF85F5H   CODE     ---       menu_display_content
      00FFAC62H   CODE     ---       menu_handle_key
      00FFAC04H   CODE     ---       menu_Init
      00FF92A4H   CODE     ---       Menu_SetChildren
      00010D0CH   XDATA    CHAR      mode
L251 LINKER/LOCATER V4.66.93.0                                                        10/07/2025  14:20:36  PAGE 30


      00010C8DH   XDATA    INT       Mode_Flag
      00FFC798H   HCONST   ---       mode_map
      00FFA219H   CODE     ---       Motor_Init
      00FF84B3H   CODE     ---       Motor_Update
      00FFAAB6H   CODE     ---       MotorL_SetSpeed
      00FFAAF3H   CODE     ---       MotorR_SetSpeed
*DEL*:00000000H   CODE     ---       Normal_PID
      00010C7AH   XDATA    WORD      Not_Time
      000103ECH   XDATA    ---       Num
*DEL*:00000000H   CODE     ---       OLED_Clear
*DEL*:00000000H   CODE     ---       OLED_ColorTurn
*DEL*:00000000H   CODE     ---       OLED_DisplayTurn
*DEL*:00000000H   CODE     ---       OLED_Init
*DEL*:00000000H   CODE     ---       oled_pow
*DEL*:00000000H   CODE     ---       OLED_Set_Pos
*DEL*:00000000H   CODE     ---       OLED_ShowChar
*DEL*:00000000H   CODE     ---       OLED_ShowChinese
*DEL*:00000000H   CODE     ---       OLED_ShowNum
*DEL*:00000000H   CODE     ---       OLED_ShowString
*DEL*:00000000H   CODE     ---       OLED_WR_Byte
*SFR* 000000D0H.2 DATA     BIT       OV
*SFR* 000000D0H.0 DATA     BIT       P
*SFR* 00000080H   DATA     BYTE      P0
*SFR* 00000094H   DATA     BYTE      P0M0
*SFR* 00000093H   DATA     BYTE      P0M1
*SFR* 00000090H   DATA     BYTE      P1
*SFR* 00000092H   DATA     BYTE      P1M0
*SFR* 00000091H   DATA     BYTE      P1M1
*SFR* 000000A0H   DATA     BYTE      P2
*SFR* 000000A0H.0 DATA     BIT       P20
*SFR* 000000A0H.1 DATA     BIT       P21
*SFR* 000000A0H.2 DATA     BIT       P22
*SFR* 00000096H   DATA     BYTE      P2M0
*SFR* 00000095H   DATA     BYTE      P2M1
*SFR* 000000B0H   DATA     BYTE      P3
*SFR* 000000B2H   DATA     BYTE      P3M0
*SFR* 000000B1H   DATA     BYTE      P3M1
*SFR* 000000C0H   DATA     BYTE      P4
*SFR* 000000C0H.0 DATA     BIT       P40
*SFR* 000000C0H.1 DATA     BIT       P41
*SFR* 000000C0H.2 DATA     BIT       P42
*SFR* 000000C0H.3 DATA     BIT       P43
*SFR* 000000B4H   DATA     BYTE      P4M0
*SFR* 000000B3H   DATA     BYTE      P4M1
*SFR* 000000C8H   DATA     BYTE      P5
*SFR* 000000CAH   DATA     BYTE      P5M0
*SFR* 000000C9H   DATA     BYTE      P5M1
*SFR* 000000E8H   DATA     BYTE      P6
*SFR* 000000CCH   DATA     BYTE      P6M0
*SFR* 000000CBH   DATA     BYTE      P6M1
*SFR* 000000F8H   DATA     BYTE      P7
*SFR* 000000E2H   DATA     BYTE      P7M0
*SFR* 000000E1H   DATA     BYTE      P7M1
*SFR* 000000A2H   DATA     BYTE      P_SW1
*SFR* 000000BAH   DATA     BYTE      P_SW2
*SFR* 000000BBH   DATA     BYTE      P_SW3
*SFR* 000000BFH   DATA     BYTE      P_SW4
      00010000H   XDATA    ---       Page
      00010538H   XDATA    ---       Page0_children
      00010545H   XDATA    ---       Page5_children
*SFR* 00000087H   DATA     BYTE      PCON
      00FF8B8CH   CODE     ---       PID_Update
      000103E8H   XDATA    ---       Pin
      00010D73H   XDATA    BYTE      PIT0_Flag
      00010D74H   XDATA    BYTE      PIT1_Flag
L251 LINKER/LOCATER V4.66.93.0                                                        10/07/2025  14:20:36  PAGE 31


      00FF95C5H   CODE     ---       pit_handler0
      00FFAD3CH   CODE     ---       pit_handler1
      00FF7877H   CODE     ---       pit_init
*DEL*:00000000H   CODE     ---       pow?_
*SFR* 000000B8H.6 DATA     BIT       PPC
      00010D3BH   XDATA    INT       Press_time
      00FF2678H   CODE     NEAR LAB  printf
      00010C6FH   XDATA    INT       PRO_Set_Time
      00FFA940H   CODE     ---       Protect
*SFR* 000000B8H.4 DATA     BIT       PS
*SFR* 000000D0H   DATA     BYTE      PSW
*SFR* 000000D1H   DATA     BYTE      PSW1
*SFR* 000000B8H.1 DATA     BIT       PT0
*SFR* 000000B7H.1 DATA     BIT       PT0H
*SFR* 000000B8H.3 DATA     BIT       PT1
*SFR* 000000B7H.3 DATA     BIT       PT1H
*SFR* 000000B8H.5 DATA     BIT       PT2
      00FFAD94H   CODE     ---       putchar
      00FFC5CCH   HCONST   ---       PWM_ARR_ADDR
      00FFC5D4H   HCONST   ---       PWM_CCER_ADDR
      00FFC5E4H   HCONST   ---       PWM_CCMR_ADDR
      00FFC5ACH   HCONST   ---       PWM_CCR_ADDR
      00FF5A3CH   CODE     ---       pwm_init
      00FFC5A4H   HCONST   ---       PWM_PSCR_ADDR
      00FF7DB6H   CODE     ---       pwm_set_duty
*DEL*:00000000H   CODE     ---       pwm_set_freq
      00FFABA1H   CODE     ---       PWM_Test
*SFR* 000000B8H.0 DATA     BIT       PX0
*SFR* 000000B8H.2 DATA     BIT       PX1
      00010BFBH   XDATA    ---       raw_adc_data
*SFR* 00000098H.2 DATA     BIT       RB8
*SFR* 000000CBH   DATA     BYTE      RCAP2H
*SFR* 000000CAH   DATA     BYTE      RCAP2L
*SFR* 000000C8H.5 DATA     BIT       RCLK
*SFR* 000000B0H.7 DATA     BIT       RD
      00FFA025H   CODE     ---       Refesh_arrow
*SFR* 00000098H.4 DATA     BIT       REN
*SFR* 00000098H.0 DATA     BIT       RI
      00010C75H   XDATA    BYTE      Road_Stat
*SFR* 000000D0H.3 DATA     BIT       RS0
*SFR* 000000D0H.4 DATA     BIT       RS1
*SFR* 000000FFH   DATA     BYTE      RSTCFG
*SFR* 000000B0H.0 DATA     BIT       RXD
*SFR* 0000009BH   DATA     BYTE      S2BUF
*SFR* 0000009AH   DATA     BYTE      S2CON
*SFR* 0000009AH.1 DATA     BIT       S2TI
*SFR* 000000ACH   DATA     BYTE      S3CON
*SFR* 000000FDH   DATA     BYTE      S4CON
*SFR* 000000A9H   DATA     BYTE      SADDR
*SFR* 000000B9H   DATA     BYTE      SADEN
      00010D12H   XDATA    BYTE      Save_Flag
*SFR* 00000099H   DATA     BYTE      SBUF
*SFR* 00000098H   DATA     BYTE      SCON
*DEL*:00000000H   CODE     ---       seekfree_assistant_camera_boundary_config
*DEL*:00000000H   CODE     ---       seekfree_assistant_camera_data_send
*DEL*:00000000H   CODE     ---       seekfree_assistant_camera_dot_send
*DEL*:00000000H   CODE     ---       seekfree_assistant_camera_information_config
*DEL*:00000000H   CODE     ---       seekfree_assistant_camera_send
*DEL*:00000000H   CODE     ---       seekfree_assistant_data_analysis
*DEL*:00000000H   CODE     ---       seekfree_assistant_init
*DEL*:00000000H   CODE     ---       seekfree_assistant_interface_init
      0001092AH   XDATA    ---       seekfree_assistant_oscilloscope_data
*DEL*:00000000H   CODE     ---       seekfree_assistant_oscilloscope_send
      0001096DH   XDATA    ---       seekfree_assistant_parameter
      00010965H   XDATA    ---       seekfree_assistant_parameter_update_flag
L251 LINKER/LOCATER V4.66.93.0                                                        10/07/2025  14:20:36  PAGE 32


      00010D83H   XDATA    ---       seekfree_assistant_receive_callback
      00010D85H   XDATA    ---       seekfree_assistant_transfer_callback
      00FFADA4H   CODE     ---       Ser_Servo_Duty
      00FFA60BH   CODE     ---       Serve_Test
      00010C6EH   XDATA    BYTE      Servo_Flag
      00FF0026H   CODE     ---       Servo_Init
      00010C3EH   XDATA    ---       servo_pid
      00FF900BH   CODE     ---       Servo_turn_pid
*DEL*:00000000H   CODE     ---       set_gps_type
      00FFAD72H   CODE     ---       Set_Sevo
      00010C6AH   XDATA    INT       Set_T
*DEL*:00000000H   CODE     ---       set_tof_type
*DEL*:00000000H   CODE     ---       set_wireless_type
      00010C73H   XDATA    WORD      Short_Time
      00FFAD61H   CODE     ---       show_all_menu
      00FFA1A2H   CODE     ---       Show_bujin
      00010D07H   XDATA    BYTE      Show_image_mode
      00FF4E35H   CODE     ---       Show_pararm
      00FFAC34H   CODE     ---       show_test_info
      00FF2839H   CODE     ---       sin?_
      00010C80H   XDATA    WORD      slow_Time
*SFR* 00000098H.7 DATA     BIT       SM0
*SFR* 00000098H.6 DATA     BIT       SM1
*SFR* 00000098H.5 DATA     BIT       SM2
      00FFAB69H   CODE     ---       soft_iic_delay
*DEL*:00000000H   CODE     ---       soft_iic_init
*DEL*:00000000H   CODE     ---       soft_iic_read_16bit
*DEL*:00000000H   CODE     ---       soft_iic_read_16bit_array
*DEL*:00000000H   CODE     ---       soft_iic_read_16bit_register
*DEL*:00000000H   CODE     ---       soft_iic_read_16bit_registers
*DEL*:00000000H   CODE     ---       soft_iic_read_8bit
*DEL*:00000000H   CODE     ---       soft_iic_read_8bit_array
*DEL*:00000000H   CODE     ---       soft_iic_read_8bit_register
*DEL*:00000000H   CODE     ---       soft_iic_read_8bit_registers
      00FF973BH   CODE     ---       soft_iic_read_data
*DEL*:00000000H   CODE     ---       soft_iic_sccb_read_register
*DEL*:00000000H   CODE     ---       soft_iic_sccb_write_register
      00FFA28FH   CODE     ---       soft_iic_send_ack
      00FF9C57H   CODE     ---       soft_iic_send_data
      00FFA5B4H   CODE     ---       soft_iic_start
      00FFA43CH   CODE     ---       soft_iic_stop
*DEL*:00000000H   CODE     ---       soft_iic_transfer_16bit_array
*DEL*:00000000H   CODE     ---       soft_iic_transfer_8bit_array
      00FFA129H   CODE     ---       soft_iic_wait_ack
*DEL*:00000000H   CODE     ---       soft_iic_write_16bit
*DEL*:00000000H   CODE     ---       soft_iic_write_16bit_array
*DEL*:00000000H   CODE     ---       soft_iic_write_16bit_register
*DEL*:00000000H   CODE     ---       soft_iic_write_16bit_registers
*DEL*:00000000H   CODE     ---       soft_iic_write_8bit
*DEL*:00000000H   CODE     ---       soft_iic_write_8bit_array
*DEL*:00000000H   CODE     ---       soft_iic_write_8bit_register
*DEL*:00000000H   CODE     ---       soft_iic_write_8bit_registers
*DEL*:00000000H   CODE     ---       soft_spi_delay
*DEL*:00000000H   CODE     ---       soft_spi_init
*DEL*:00000000H   CODE     ---       soft_spi_read_16bit
*DEL*:00000000H   CODE     ---       soft_spi_read_16bit_array
*DEL*:00000000H   CODE     ---       soft_spi_read_16bit_register
*DEL*:00000000H   CODE     ---       soft_spi_read_16bit_registers
*DEL*:00000000H   CODE     ---       soft_spi_read_8bit
*DEL*:00000000H   CODE     ---       soft_spi_read_8bit_array
*DEL*:00000000H   CODE     ---       soft_spi_read_8bit_register
*DEL*:00000000H   CODE     ---       soft_spi_read_8bit_registers
*DEL*:00000000H   CODE     ---       soft_spi_transfer_16bit
*DEL*:00000000H   CODE     ---       soft_spi_transfer_8bit
*DEL*:00000000H   CODE     ---       soft_spi_write_16bit
L251 LINKER/LOCATER V4.66.93.0                                                        10/07/2025  14:20:36  PAGE 33


*DEL*:00000000H   CODE     ---       soft_spi_write_16bit_array
*DEL*:00000000H   CODE     ---       soft_spi_write_16bit_register
*DEL*:00000000H   CODE     ---       soft_spi_write_16bit_registers
*DEL*:00000000H   CODE     ---       soft_spi_write_8bit
*DEL*:00000000H   CODE     ---       soft_spi_write_8bit_array
*DEL*:00000000H   CODE     ---       soft_spi_write_8bit_register
*DEL*:00000000H   CODE     ---       soft_spi_write_8bit_registers
*SFR* 00000081H   DATA     BYTE      SP
*SFR* 000000CEH   DATA     BYTE      SPCTL
*SFR* 000000CFH   DATA     BYTE      SPDAT
*SFR* 000000BEH   DATA     BYTE      SPH
      00FF5F4CH   CODE     ---       spi_init
*DEL*:00000000H   CODE     ---       spi_read_16bit
*DEL*:00000000H   CODE     ---       spi_read_16bit_array
*DEL*:00000000H   CODE     ---       spi_read_16bit_register
*DEL*:00000000H   CODE     ---       spi_read_16bit_registers
*DEL*:00000000H   CODE     ---       spi_read_8bit
*DEL*:00000000H   CODE     ---       spi_read_8bit_array
*DEL*:00000000H   CODE     ---       spi_read_8bit_register
*DEL*:00000000H   CODE     ---       spi_read_8bit_registers
*DEL*:00000000H   CODE     ---       spi_read_dat
*DEL*:00000000H   CODE     ---       spi_transfer_16bit
*DEL*:00000000H   CODE     ---       spi_transfer_8bit
      00FFAD09H   CODE     ---       spi_write_16bit
*DEL*:00000000H   CODE     ---       spi_write_16bit_array
*DEL*:00000000H   CODE     ---       spi_write_16bit_register
*DEL*:00000000H   CODE     ---       spi_write_16bit_registers
      00FF0003H   CODE     ---       spi_write_8bit
*DEL*:00000000H   CODE     ---       spi_write_8bit_array
*DEL*:00000000H   CODE     ---       spi_write_8bit_register
*DEL*:00000000H   CODE     ---       spi_write_8bit_registers
      00FFA8FEH   CODE     ---       spi_write_dat
      00FF26A4H   CODE     NEAR LAB  sprintf
*SFR* 000000CDH   DATA     BYTE      SPSTAT
      00FF26CAH   CODE     ---       sqrt?_
      00010D0EH   XDATA    CHAR      Start_Show_Row
      00010D38H   XDATA    BYTE      State
      00FF6E97H   CODE     ---       State_of_road
*DEL*:00000000H   CODE     ---       strchr?_
*DEL*:00000000H   CODE     ---       strlen?_
*DEL*:00000000H   CODE     ---       strncmp?_
*DEL*:00000000H   CODE     ---       strncpy?_
      00010D7BH   XDATA    LONG      system_clock
      00FFA500H   CODE     ---       system_delay_init
      00FFA302H   CODE     ---       system_delay_ms
*DEL*:00000000H   CODE     ---       system_delay_us
      00010D71H   XDATA    INT       T
*SFR* 000000B0H.4 DATA     BIT       T0
*SFR* 000000B0H.5 DATA     BIT       T1
*SFR* 00000090H.0 DATA     BIT       T2
*SFR* 000000C8H   DATA     BYTE      T2CON
*SFR* 00000090H.1 DATA     BIT       T2EX
*SFR* 000000D6H   DATA     BYTE      T2H
*SFR* 000000D7H   DATA     BYTE      T2L
*SFR* 000000C9H   DATA     BYTE      T2MOD
      00010C3AH   XDATA    INT       T3
*SFR* 000000D4H   DATA     BYTE      T3H
*SFR* 000000D5H   DATA     BYTE      T3L
      00010D6FH   XDATA    INT       T4
*SFR* 000000D2H   DATA     BYTE      T4H
*SFR* 000000D3H   DATA     BYTE      T4L
*SFR* 000000DDH   DATA     BYTE      T4T3M
      00FF286EH   CODE     ---       TAN?_
*SFR* 00000098H.3 DATA     BIT       TB8
*SFR* 000000C8H.4 DATA     BIT       TCLK
L251 LINKER/LOCATER V4.66.93.0                                                        10/07/2025  14:20:36  PAGE 34


*SFR* 00000088H   DATA     BYTE      TCON
*SFR* 00000088H.5 DATA     BIT       TF0
*SFR* 00000088H.7 DATA     BIT       TF1
*SFR* 000000C8H.7 DATA     BIT       TF2
      00010D5FH   XDATA    WORD      tft180_bgcolor
      00FFA3D5H   CODE     ---       tft180_clear
      00010D61H   XDATA    INT       tft180_display_dir
*DEL*:00000000H   CODE     ---       tft180_draw_point
      00FF6BBBH   CODE     ---       tft180_init
      00010D5DH   XDATA    WORD      tft180_pencolor
      00FF000EH   CODE     ---       tft180_set_color
      00FFACBDH   CODE     ---       tft180_set_dir
      00FF8F2BH   CODE     ---       tft180_show_char
      00FF7A52H   CODE     ---       tft180_show_float
      00FF872AH   CODE     ---       tft180_show_int16
*DEL*:00000000H   CODE     ---       tft180_show_int32
*DEL*:00000000H   CODE     ---       tft180_show_int8
      00FF98A2H   CODE     ---       tft180_show_string
*DEL*:00000000H   CODE     ---       tft180_show_uint16
*DEL*:00000000H   CODE     ---       tft180_show_uint8
*DEL*:00000000H   CODE     ---       tft180_show_wave
      00010D63H   XDATA    BYTE      tft180_x_max
      00010D64H   XDATA    BYTE      tft180_y_max
*SFR* 0000008CH   DATA     BYTE      TH0
*SFR* 0000008DH   DATA     BYTE      TH1
*SFR* 000000CDH   DATA     BYTE      TH2
*SFR* 00000098H.1 DATA     BIT       TI
      00010CA0H   XDATA    ---       tim0_irq_handler
      00010C96H   XDATA    ---       tim11_irq_handler
      00010CA4H   XDATA    ---       tim1_irq_handler
      00010CA8H   XDATA    ---       tim2_irq_handler
      00010CACH   XDATA    ---       tim3_irq_handler
      00010CB0H   XDATA    ---       tim4_irq_handler
      00010D3EH   XDATA    WORD      Time_dou
      00FFA706H   CODE     ---       timer_funciton_check
*SFR* 0000008AH   DATA     BYTE      TL0
*SFR* 0000008BH   DATA     BYTE      TL1
*SFR* 000000CCH   DATA     BYTE      TL2
      00FFA980H   CODE     ---       TM0_IRQHandler
      00FFA79EH   CODE     ---       TM11_IRQHandler
      00FFA9BEH   CODE     ---       TM1_IRQHandler
      00FFA9FCH   CODE     ---       TM2_IRQHandler
      00FFAA3AH   CODE     ---       TM3_IRQHandler
      00FFAA78H   CODE     ---       TM4_IRQHandler
*SFR* 00000089H   DATA     BYTE      TMOD
      00010D55H   XDATA    ---       tof_module_exti_handler
      00010D59H   XDATA    INT       tof_type
*SFR* 00000088H.4 DATA     BIT       TR0
*SFR* 00000088H.6 DATA     BIT       TR1
*SFR* 000000C8H.2 DATA     BIT       TR2
      00010D39H   XDATA    INT       Trigg_time
*DEL*:00000000H   CODE     ---       tsl1401_collect_pit_handler
      00010551H   XDATA    ---       tsl1401_data
      00010550H   XDATA    BYTE      tsl1401_finish_flag
*DEL*:00000000H   CODE     ---       tsl1401_init
*DEL*:00000000H   CODE     ---       tsl1401_send_data
      00FF9680H   CODE     ---       Turn_mode
      00FF80B9H   CODE     ---       Turn_mode_Init
      00010C7CH   XDATA    INT       turn_Value
*SFR* 000000B0H.1 DATA     BIT       TXD
      00010C98H   XDATA    ---       uart1_irq_handler
      00010C9AH   XDATA    ---       uart2_irq_handler
      00010C9CH   XDATA    ---       uart3_irq_handler
      00010C9EH   XDATA    ---       uart4_irq_handler
      00FF8226H   CODE     ---       uart_dma_init
L251 LINKER/LOCATER V4.66.93.0                                                        10/07/2025  14:20:36  PAGE 35


      00FFA752H   CODE     ---       uart_funciton_check
      00FF741CH   CODE     ---       uart_init
      00FFA49EH   CODE     ---       uart_query_byte
*DEL*:00000000H   CODE     ---       uart_read_byte
      00010D28H   XDATA    ---       uart_rx_buff
      00FFA831H   CODE     ---       uart_rx_interrupt
      00FF9CE8H   CODE     ---       uart_rx_start_buff
      00FF8D68H   CODE     ---       uart_write_buffer
      00FFAD28H   CODE     ---       uart_write_byte
*DEL*:00000000H   CODE     ---       uart_write_string
      00010C87H   XDATA    FLOAT     uni
      00FF9D78H   CODE     ---       unification
*SFR* 000000F4H   DATA     BYTE      USBCON
*SFR* 000000C1H   DATA     BYTE      WDT_CONTR
*SFR* 000000A6H   DATA     BYTE      WDTRST
      00010D57H   XDATA    INT       wireless_type
*DEL*:00000000H   CODE     ---       wireless_uart_callback
*DEL*:00000000H   CODE     ---       wireless_uart_init
*DEL*:00000000H   CODE     ---       wireless_uart_read_buffer
*DEL*:00000000H   CODE     ---       wireless_uart_send_buffer
*DEL*:00000000H   CODE     ---       wireless_uart_send_byte
*DEL*:00000000H   CODE     ---       wireless_uart_send_string
*SFR* 000000ABH   DATA     BYTE      WKTCH
*SFR* 000000B0H.6 DATA     BIT       WR
*SFR* 000000E9H   DATA     BYTE      WTST
      00FF4618H   CODE     ---       zf_sprintf



SYMBOL TABLE OF MODULE:  .\out_file\SEEKFREE (ai8051u_isr)

      VALUE       REP       CLASS    TYPE      SYMBOL NAME
      ====================================================
      ---         MODULE    ---      ---       ai8051u_isr

      00FF019BH   BLOCK     CODE     NEAR LAB  LVL=0
      00FF019BH   LINE      CODE     ---       #3
      ---         BLOCKEND  ---      ---       LVL=0

      00FF01ABH   BLOCK     CODE     NEAR LAB  LVL=0
      00FF01ABH   LINE      CODE     ---       #6
      ---         BLOCKEND  ---      ---       LVL=0

      00FF01BBH   BLOCK     CODE     NEAR LAB  LVL=0
      00FF01BBH   LINE      CODE     ---       #9
      ---         BLOCKEND  ---      ---       LVL=0

      00FF01CBH   BLOCK     CODE     NEAR LAB  LVL=0
      00FF01CBH   LINE      CODE     ---       #12
      ---         BLOCKEND  ---      ---       LVL=0

      00FF021BH   BLOCK     CODE     NEAR LAB  LVL=0
      00FF021BH   LINE      CODE     ---       #15
      ---         BLOCKEND  ---      ---       LVL=0

      ---         MODULE    ---      ---       zf_common_clock
      00FF90EAH   PUBLIC    CODE     ---       clock_init
      00010D7BH   PUBLIC    XDATA    LONG      system_clock
      00000094H   SFRSYM    DATA     BYTE      P0M0
      000000D0H   SFRSYM    DATA     BYTE      PSW
      0000009DH   SFRSYM    DATA     BYTE      IRCBAND
      00000097H   SFRSYM    DATA     BYTE      AUXR2
      000000EAH   SFRSYM    DATA     BYTE      CKCON
      000000EFH   SFRSYM    DATA     BYTE      AUXINTIF
      000000FDH   SFRSYM    DATA     BYTE      S4CON
L251 LINKER/LOCATER V4.66.93.0                                                        10/07/2025  14:20:36  PAGE 36


      000000ACH   SFRSYM    DATA     BYTE      S3CON
      0000009AH   SFRSYM    DATA     BYTE      S2CON
      000000B7H   SFRSYM    DATA     BYTE      IPH
      000000CDH   SFRSYM    DATA     BYTE      SPSTAT
      000000DDH   SFRSYM    DATA     BYTE      T4T3M
      000000C1H   SFRSYM    DATA     BYTE      WDT_CONTR
      000000E9H   SFRSYM    DATA     BYTE      WTST
      000000DFH   SFRSYM    DATA     BYTE      IP3
      000000F4H   SFRSYM    DATA     BYTE      USBCON
      000000B5H   SFRSYM    DATA     BYTE      IP2
      000000FFH   SFRSYM    DATA     BYTE      RSTCFG
      000000C7H   SFRSYM    DATA     BYTE      IAP_CONTR
      0000008EH   SFRSYM    DATA     BYTE      AUXR
      000000AFH   SFRSYM    DATA     BYTE      IE2
      00000088H   SFRSYM    DATA     BYTE      TCON
      00000089H   SFRSYM    DATA     BYTE      TMOD
      00000098H   SFRSYM    DATA     BYTE      SCON
      00000087H   SFRSYM    DATA     BYTE      PCON
      000000BCH   SFRSYM    DATA     BYTE      ADC_CONTR
      000000D1H   SFRSYM    DATA     BYTE      PSW1
      000000E7H   SFRSYM    DATA     BYTE      CMPCR2
      000000E6H   SFRSYM    DATA     BYTE      CMPCR1
      000000DEH   SFRSYM    DATA     BYTE      ADCCFG
      000000B8H   SFRSYM    DATA     BYTE      IP
      0000008FH   SFRSYM    DATA     BYTE      INTCLKO
      000000EEH   SFRSYM    DATA     BYTE      IP3H
      000000B6H   SFRSYM    DATA     BYTE      IP2H
      000000BFH   SFRSYM    DATA     BYTE      P_SW4
      000000A8H   SFRSYM    DATA     BYTE      IE
      000000BBH   SFRSYM    DATA     BYTE      P_SW3
      000000BAH   SFRSYM    DATA     BYTE      P_SW2
      000000A2H   SFRSYM    DATA     BYTE      P_SW1
      000000CEH   SFRSYM    DATA     BYTE      SPCTL
      000000F8H   SFRSYM    DATA     BYTE      P7
      000000E1H   SFRSYM    DATA     BYTE      P7M1
      000000E8H   SFRSYM    DATA     BYTE      P6
      000000C8H   SFRSYM    DATA     BYTE      P5
      000000CBH   SFRSYM    DATA     BYTE      P6M1
      000000E2H   SFRSYM    DATA     BYTE      P7M0
      000000C0H   SFRSYM    DATA     BYTE      P4
      000000C9H   SFRSYM    DATA     BYTE      P5M1
      000000CCH   SFRSYM    DATA     BYTE      P6M0
      000000ABH   SFRSYM    DATA     BYTE      WKTCH
      000000B0H   SFRSYM    DATA     BYTE      P3
      000000B3H   SFRSYM    DATA     BYTE      P4M1
      000000CAH   SFRSYM    DATA     BYTE      P5M0
      000000A0H   SFRSYM    DATA     BYTE      P2
      000000B1H   SFRSYM    DATA     BYTE      P3M1
      000000B4H   SFRSYM    DATA     BYTE      P4M0
      00000090H   SFRSYM    DATA     BYTE      P1
      00000095H   SFRSYM    DATA     BYTE      P2M1
      000000B2H   SFRSYM    DATA     BYTE      P3M0
      00000080H   SFRSYM    DATA     BYTE      P0
      00000091H   SFRSYM    DATA     BYTE      P1M1
      00000096H   SFRSYM    DATA     BYTE      P2M0
      00000092H   SFRSYM    DATA     BYTE      P1M0
      00000093H   SFRSYM    DATA     BYTE      P0M1

      00FF90EAH   BLOCK     CODE     ---       LVL=0
      DR12        REGSYM    ---      DWORD     clock
      00FF90EAH   LINE      CODE     ---       #47
      00FF90EEH   LINE      CODE     ---       #49
      00FF90F1H   LINE      CODE     ---       #50
      00FF90F4H   LINE      CODE     ---       #51
      00FF90F7H   LINE      CODE     ---       #54
L251 LINKER/LOCATER V4.66.93.0                                                        10/07/2025  14:20:36  PAGE 37


      00FF9104H   LINE      CODE     ---       #55
      00FF9112H   LINE      CODE     ---       #56
      00FF911EH   LINE      CODE     ---       #57
      00FF912BH   LINE      CODE     ---       #58
      00FF9137H   LINE      CODE     ---       #60
      00FF913AH   LINE      CODE     ---       #63
      00FF9144H   LINE      CODE     ---       #65
      00FF9147H   LINE      CODE     ---       #66
      00FF914AH   LINE      CODE     ---       #67
      00FF914DH   LINE      CODE     ---       #68
      00FF9150H   LINE      CODE     ---       #69
      00FF9153H   LINE      CODE     ---       #70
      00FF9156H   LINE      CODE     ---       #71
      00FF9159H   LINE      CODE     ---       #72
      00FF915CH   LINE      CODE     ---       #73
      00FF915FH   LINE      CODE     ---       #74
      00FF9162H   LINE      CODE     ---       #75
      00FF9165H   LINE      CODE     ---       #76
      00FF9168H   LINE      CODE     ---       #77
      00FF916BH   LINE      CODE     ---       #78
      00FF916EH   LINE      CODE     ---       #79
      00FF9171H   LINE      CODE     ---       #80
      00FF9174H   LINE      CODE     ---       #83
      00FF9177H   LINE      CODE     ---       #84
      00FF917AH   LINE      CODE     ---       #85
      00FF917DH   LINE      CODE     ---       #86
      00FF9180H   LINE      CODE     ---       #87
      00FF9183H   LINE      CODE     ---       #88
      00FF9186H   LINE      CODE     ---       #89
      00FF9189H   LINE      CODE     ---       #90
      00FF918CH   LINE      CODE     ---       #91
      00FF918FH   LINE      CODE     ---       #92
      00FF9192H   LINE      CODE     ---       #93
      00FF919EH   LINE      CODE     ---       #94
      00FF91AAH   LINE      CODE     ---       #96
      00FF91B6H   LINE      CODE     ---       #97
      00FF91C2H   LINE      CODE     ---       #100
      00FF91C5H   LINE      CODE     ---       #101
      ---         BLOCKEND  ---      ---       LVL=0

      ---         MODULE    ---      ---       zf_common_debug
      00FFAB30H   PUBLIC    CODE     ---       debug_interrupr_handler
      00FF9A96H   PUBLIC    CODE     ---       debug_init
      00FFA36DH   PUBLIC    CODE     ---       debug_assert_handler
      00FFAD94H   PUBLIC    CODE     ---       putchar
      00010AF4H   PUBLIC    XDATA    ---       debug_uart_buffer
      00010B35H   PUBLIC    XDATA    ---       debug_uart_fifo
      000000D0H   SFRSYM    DATA     BYTE      PSW
      0000009DH   SFRSYM    DATA     BYTE      IRCBAND
      00000097H   SFRSYM    DATA     BYTE      AUXR2
      000000EFH   SFRSYM    DATA     BYTE      AUXINTIF
      000000FDH   SFRSYM    DATA     BYTE      S4CON
      000000ACH   SFRSYM    DATA     BYTE      S3CON
      0000009AH   SFRSYM    DATA     BYTE      S2CON
      000000B7H   SFRSYM    DATA     BYTE      IPH
      000000CDH   SFRSYM    DATA     BYTE      SPSTAT
      000000DDH   SFRSYM    DATA     BYTE      T4T3M
      000000C1H   SFRSYM    DATA     BYTE      WDT_CONTR
      000000DFH   SFRSYM    DATA     BYTE      IP3
      000000F4H   SFRSYM    DATA     BYTE      USBCON
      000000B5H   SFRSYM    DATA     BYTE      IP2
      000000FFH   SFRSYM    DATA     BYTE      RSTCFG
      000000C7H   SFRSYM    DATA     BYTE      IAP_CONTR
      0000008EH   SFRSYM    DATA     BYTE      AUXR
      000000AFH   SFRSYM    DATA     BYTE      IE2
L251 LINKER/LOCATER V4.66.93.0                                                        10/07/2025  14:20:36  PAGE 38


      00000088H   SFRSYM    DATA     BYTE      TCON
      00000089H   SFRSYM    DATA     BYTE      TMOD
      00000098H   SFRSYM    DATA     BYTE      SCON
      00000087H   SFRSYM    DATA     BYTE      PCON
      000000BCH   SFRSYM    DATA     BYTE      ADC_CONTR
      000000D1H   SFRSYM    DATA     BYTE      PSW1
      000000E7H   SFRSYM    DATA     BYTE      CMPCR2
      000000E6H   SFRSYM    DATA     BYTE      CMPCR1
      000000DEH   SFRSYM    DATA     BYTE      ADCCFG
      000000B8H   SFRSYM    DATA     BYTE      IP
      0000008FH   SFRSYM    DATA     BYTE      INTCLKO
      000000EEH   SFRSYM    DATA     BYTE      IP3H
      000000B6H   SFRSYM    DATA     BYTE      IP2H
      000000BFH   SFRSYM    DATA     BYTE      P_SW4
      000000A8H   SFRSYM    DATA     BYTE      IE
      000000BBH   SFRSYM    DATA     BYTE      P_SW3
      000000BAH   SFRSYM    DATA     BYTE      P_SW2
      000000A2H   SFRSYM    DATA     BYTE      P_SW1
      000000CEH   SFRSYM    DATA     BYTE      SPCTL
      000000F8H   SFRSYM    DATA     BYTE      P7
      000000E8H   SFRSYM    DATA     BYTE      P6
      000000C8H   SFRSYM    DATA     BYTE      P5
      000000C0H   SFRSYM    DATA     BYTE      P4
      000000ABH   SFRSYM    DATA     BYTE      WKTCH
      000000B0H   SFRSYM    DATA     BYTE      P3
      000000A0H   SFRSYM    DATA     BYTE      P2
      00000090H   SFRSYM    DATA     BYTE      P1
      00000080H   SFRSYM    DATA     BYTE      P0
      00FFC997H   SYMBOL    HCONST   ---       ?tpl?0001
      00010B34H   SYMBOL    XDATA    BYTE      zf_debug_assert_enable
      00010B4CH   SYMBOL    XDATA    BYTE      zf_debug_init_flag
      DR12        REGSYM    ---      DWORD     len
      REG=2       REGSYM    ---      ---       buff

      00FFAB30H   BLOCK     CODE     ---       LVL=0
      00010A5FH   SYMBOL    XDATA    BYTE      dat
      00FFAB30H   LINE      CODE     ---       #281
      00FFAB34H   LINE      CODE     ---       #283
      00FFAB3AH   LINE      CODE     ---       #285
      00FFAB47H   LINE      CODE     ---       #286
      00FFAB68H   LINE      CODE     ---       #287
      ---         BLOCKEND  ---      ---       LVL=0

      00FFAD94H   BLOCK     CODE     ---       LVL=0
      R15         REGSYM    ---      CHAR      c
      00FFAD94H   LINE      CODE     ---       #303
      00FFAD98H   LINE      CODE     ---       #305
      00FFAD9FH   LINE      CODE     ---       #307
      00FFADA1H   LINE      CODE     ---       #308
      ---         BLOCKEND  ---      ---       LVL=0

      00FFA36DH   BLOCK     CODE     ---       LVL=0
      00010A9EH   SYMBOL    XDATA    BYTE      pass
      REG=3       REGSYM    ---      ---       file
      00010A9FH   SYMBOL    XDATA    INT       line
      00FFA37BH   BLOCK     CODE     NEAR LAB  LVL=1
      00010AA1H   SYMBOL    XDATA    ---       log_str
      ---         BLOCKEND  ---      ---       LVL=1
      00FFA36DH   LINE      CODE     ---       #346
      00FFA37BH   LINE      CODE     ---       #347
      00FFA37BH   LINE      CODE     ---       #348
      00FFA390H   LINE      CODE     ---       #350
      00FFA392H   LINE      CODE     ---       #366
      00FFA3C5H   LINE      CODE     ---       #369
      00FFA3CCH   LINE      CODE     ---       #370
L251 LINKER/LOCATER V4.66.93.0                                                        10/07/2025  14:20:36  PAGE 39


      00FFA3D2H   LINE      CODE     ---       #371
      ---         BLOCKEND  ---      ---       LVL=0

      00FF9A96H   BLOCK     CODE     ---       LVL=0
      00FF9A98H   BLOCK     CODE     NEAR LAB  LVL=1
      R15         REGSYM    ---      BYTE      uartx
      ---         BLOCKEND  ---      ---       LVL=1
      00FF9A96H   LINE      CODE     ---       #453
      00FF9A98H   LINE      CODE     ---       #454
      00FF9A98H   LINE      CODE     ---       #455
      00FF9A9AH   LINE      CODE     ---       #461
      00FF9AB5H   LINE      CODE     ---       #468
      00FF9AE2H   LINE      CODE     ---       #469
      00FF9AE9H   LINE      CODE     ---       #472
      00FF9AEDH   LINE      CODE     ---       #474
      00FF9AF7H   LINE      CODE     ---       #475
      00FF9AF9H   LINE      CODE     ---       #476
      00FF9AFEH   LINE      CODE     ---       #478
      00FF9B08H   LINE      CODE     ---       #479
      00FF9B0AH   LINE      CODE     ---       #480
      00FF9B0FH   LINE      CODE     ---       #482
      00FF9B19H   LINE      CODE     ---       #483
      00FF9B1BH   LINE      CODE     ---       #484
      00FF9B20H   LINE      CODE     ---       #486
      00FF9B2AH   LINE      CODE     ---       #487
      ---         BLOCKEND  ---      ---       LVL=0

      ---         MODULE    ---      ---       zf_common_fifo
      00FF63F1H   PUBLIC    CODE     ---       fifo_write_buffer
      00FFA0A8H   PUBLIC    CODE     ---       fifo_init
      00010A5CH   PUBLIC    XDATA    BYTE      ?fifo_write_buffer?BYTE
      00010A5BH   PUBLIC    XDATA    BYTE      ?fifo_init?BYTE
      000000D0H   SFRSYM    DATA     BYTE      PSW
      0000009DH   SFRSYM    DATA     BYTE      IRCBAND
      00000097H   SFRSYM    DATA     BYTE      AUXR2
      000000EFH   SFRSYM    DATA     BYTE      AUXINTIF
      000000FDH   SFRSYM    DATA     BYTE      S4CON
      000000ACH   SFRSYM    DATA     BYTE      S3CON
      0000009AH   SFRSYM    DATA     BYTE      S2CON
      000000B7H   SFRSYM    DATA     BYTE      IPH
      000000CDH   SFRSYM    DATA     BYTE      SPSTAT
      000000DDH   SFRSYM    DATA     BYTE      T4T3M
      000000C1H   SFRSYM    DATA     BYTE      WDT_CONTR
      000000DFH   SFRSYM    DATA     BYTE      IP3
      000000F4H   SFRSYM    DATA     BYTE      USBCON
      000000B5H   SFRSYM    DATA     BYTE      IP2
      000000FFH   SFRSYM    DATA     BYTE      RSTCFG
      000000C7H   SFRSYM    DATA     BYTE      IAP_CONTR
      0000008EH   SFRSYM    DATA     BYTE      AUXR
      000000AFH   SFRSYM    DATA     BYTE      IE2
      00000088H   SFRSYM    DATA     BYTE      TCON
      00000089H   SFRSYM    DATA     BYTE      TMOD
      00000098H   SFRSYM    DATA     BYTE      SCON
      00000087H   SFRSYM    DATA     BYTE      PCON
      000000BCH   SFRSYM    DATA     BYTE      ADC_CONTR
      000000D1H   SFRSYM    DATA     BYTE      PSW1
      000000E7H   SFRSYM    DATA     BYTE      CMPCR2
      000000E6H   SFRSYM    DATA     BYTE      CMPCR1
      000000DEH   SFRSYM    DATA     BYTE      ADCCFG
      000000B8H   SFRSYM    DATA     BYTE      IP
      0000008FH   SFRSYM    DATA     BYTE      INTCLKO
      000000EEH   SFRSYM    DATA     BYTE      IP3H
      000000B6H   SFRSYM    DATA     BYTE      IP2H
      000000BFH   SFRSYM    DATA     BYTE      P_SW4
      000000A8H   SFRSYM    DATA     BYTE      IE
L251 LINKER/LOCATER V4.66.93.0                                                        10/07/2025  14:20:36  PAGE 40


      000000BBH   SFRSYM    DATA     BYTE      P_SW3
      000000BAH   SFRSYM    DATA     BYTE      P_SW2
      000000A2H   SFRSYM    DATA     BYTE      P_SW1
      000000CEH   SFRSYM    DATA     BYTE      SPCTL
      000000F8H   SFRSYM    DATA     BYTE      P7
      000000E8H   SFRSYM    DATA     BYTE      P6
      000000C8H   SFRSYM    DATA     BYTE      P5
      000000C0H   SFRSYM    DATA     BYTE      P4
      000000ABH   SFRSYM    DATA     BYTE      WKTCH
      000000B0H   SFRSYM    DATA     BYTE      P3
      000000A0H   SFRSYM    DATA     BYTE      P2
      00000090H   SFRSYM    DATA     BYTE      P1
      00000080H   SFRSYM    DATA     BYTE      P0
      00FF01CEH   SYMBOL    CODE     ---       fifo_head_offset

      00FF01CEH   BLOCK     CODE     ---       LVL=0
      REG=7       REGSYM    ---      ---       fifo
      DR24        REGSYM    ---      DWORD     offset
      00FF01CEH   LINE      CODE     ---       #51
      00FF01D2H   LINE      CODE     ---       #53
      00FF01E6H   LINE      CODE     ---       #55
      00FF01E8H   LINE      CODE     ---       #57
      00FF0206H   LINE      CODE     ---       #58
      00FF021AH   LINE      CODE     ---       #59
      ---         BLOCKEND  ---      ---       LVL=0
      REG=7       REGSYM    ---      ---       fifo
      DR24        REGSYM    ---      DWORD     offset
      REG=3       REGSYM    ---      ---       fifo
      REG=3       REGSYM    ---      ---       fifo

      00FF63F1H   BLOCK     CODE     ---       LVL=0
      REG=3       REGSYM    ---      ---       fifo
      00010A60H   SYMBOL    XDATA    ---       dat
      00010A64H   SYMBOL    XDATA    DWORD     length
      00FF63FFH   BLOCK     CODE     NEAR LAB  LVL=1
      00010A68H   SYMBOL    XDATA    INT       return_state
      00010A6AH   SYMBOL    XDATA    DWORD     temp_length
      ---         BLOCKEND  ---      ---       LVL=1
      00FF63F1H   LINE      CODE     ---       #178
      00FF63FFH   LINE      CODE     ---       #179
      00FF63FFH   LINE      CODE     ---       #180
      00FF6407H   LINE      CODE     ---       #181
      00FF6413H   LINE      CODE     ---       #182
      00FF642DH   LINE      CODE     ---       #184
      00FF642DH   LINE      CODE     ---       #186
      00FF643BH   LINE      CODE     ---       #188
      00FF6445H   LINE      CODE     ---       #189
      00FF6448H   LINE      CODE     ---       #190
      00FF6448H   LINE      CODE     ---       #191
      00FF6453H   LINE      CODE     ---       #193
      00FF645DH   LINE      CODE     ---       #194
      00FF6460H   LINE      CODE     ---       #195
      00FF6460H   LINE      CODE     ---       #196
      00FF6468H   LINE      CODE     ---       #198
      00FF6481H   LINE      CODE     ---       #200
      00FF649DH   LINE      CODE     ---       #202
      00FF64B8H   LINE      CODE     ---       #204
      00FF64D1H   LINE      CODE     ---       #206
      00FF64D1H   LINE      CODE     ---       #208
      00FF64FEH   LINE      CODE     ---       #211
      00FF650DH   LINE      CODE     ---       #212
      00FF6558H   LINE      CODE     ---       #216
      00FF6573H   LINE      CODE     ---       #217
      00FF6576H   LINE      CODE     ---       #218
      00FF6576H   LINE      CODE     ---       #220
L251 LINKER/LOCATER V4.66.93.0                                                        10/07/2025  14:20:36  PAGE 41


      00FF65A7H   LINE      CODE     ---       #223
      00FF65B6H   LINE      CODE     ---       #224
      00FF6603H   LINE      CODE     ---       #228
      00FF661EH   LINE      CODE     ---       #229
      00FF6621H   LINE      CODE     ---       #230
      00FF6621H   LINE      CODE     ---       #232
      00FF6656H   LINE      CODE     ---       #235
      00FF6665H   LINE      CODE     ---       #236
      00FF66B8H   LINE      CODE     ---       #240
      00FF66D3H   LINE      CODE     ---       #241
      00FF66D3H   LINE      CODE     ---       #242
      00FF66D3H   LINE      CODE     ---       #243
      00FF66D6H   LINE      CODE     ---       #246
      00FF66ECH   LINE      CODE     ---       #248
      00FF66ECH   LINE      CODE     ---       #250
      00FF6719H   LINE      CODE     ---       #253
      00FF6728H   LINE      CODE     ---       #254
      00FF672BH   LINE      CODE     ---       #255
      00FF672BH   LINE      CODE     ---       #257
      00FF675CH   LINE      CODE     ---       #260
      00FF676BH   LINE      CODE     ---       #261
      00FF676DH   LINE      CODE     ---       #262
      00FF676DH   LINE      CODE     ---       #264
      00FF67A2H   LINE      CODE     ---       #267
      00FF67B1H   LINE      CODE     ---       #268
      00FF67B1H   LINE      CODE     ---       #269
      00FF67B1H   LINE      CODE     ---       #270
      00FF67B1H   LINE      CODE     ---       #272
      00FF67D1H   LINE      CODE     ---       #273
      00FF67D3H   LINE      CODE     ---       #276
      00FF67DDH   LINE      CODE     ---       #277
      00FF67DDH   LINE      CODE     ---       #278
      00FF67E5H   LINE      CODE     ---       #279
      00FF67E5H   LINE      CODE     ---       #281
      00FF67EBH   LINE      CODE     ---       #282
      ---         BLOCKEND  ---      ---       LVL=0
      REG=3       REGSYM    ---      ---       fifo

      00FFA0A8H   BLOCK     CODE     ---       LVL=0
      REG=3       REGSYM    ---      ---       fifo
      00010A5FH   SYMBOL    XDATA    INT       type
      00010A61H   SYMBOL    XDATA    ---       buffer_addr
      00010A65H   SYMBOL    XDATA    DWORD     siz
      00FFA0A8H   LINE      CODE     ---       #549
      00FFA0B2H   LINE      CODE     ---       #551
      00FFA0CCH   LINE      CODE     ---       #552
      00FFA0CCH   LINE      CODE     ---       #554
      00FFA0DEH   LINE      CODE     ---       #555
      00FFA0E2H   LINE      CODE     ---       #556
      00FFA0ECH   LINE      CODE     ---       #557
      00FFA0F6H   LINE      CODE     ---       #558
      00FFA100H   LINE      CODE     ---       #559
      00FFA112H   LINE      CODE     ---       #560
      00FFA124H   LINE      CODE     ---       #561
      00FFA124H   LINE      CODE     ---       #562
      00FFA126H   LINE      CODE     ---       #563
      ---         BLOCKEND  ---      ---       LVL=0

      ---         MODULE    ---      ---       zf_common_font
      00FF544CH   PUBLIC    CODE     ---       ascii_font_8x16
      000000D0H   SFRSYM    DATA     BYTE      PSW
      0000009DH   SFRSYM    DATA     BYTE      IRCBAND
      00000097H   SFRSYM    DATA     BYTE      AUXR2
      000000EFH   SFRSYM    DATA     BYTE      AUXINTIF
      000000FDH   SFRSYM    DATA     BYTE      S4CON
L251 LINKER/LOCATER V4.66.93.0                                                        10/07/2025  14:20:36  PAGE 42


      000000ACH   SFRSYM    DATA     BYTE      S3CON
      0000009AH   SFRSYM    DATA     BYTE      S2CON
      000000B7H   SFRSYM    DATA     BYTE      IPH
      000000CDH   SFRSYM    DATA     BYTE      SPSTAT
      000000DDH   SFRSYM    DATA     BYTE      T4T3M
      000000C1H   SFRSYM    DATA     BYTE      WDT_CONTR
      000000DFH   SFRSYM    DATA     BYTE      IP3
      000000F4H   SFRSYM    DATA     BYTE      USBCON
      000000B5H   SFRSYM    DATA     BYTE      IP2
      000000FFH   SFRSYM    DATA     BYTE      RSTCFG
      000000C7H   SFRSYM    DATA     BYTE      IAP_CONTR
      0000008EH   SFRSYM    DATA     BYTE      AUXR
      000000AFH   SFRSYM    DATA     BYTE      IE2
      00000088H   SFRSYM    DATA     BYTE      TCON
      00000089H   SFRSYM    DATA     BYTE      TMOD
      00000098H   SFRSYM    DATA     BYTE      SCON
      00000087H   SFRSYM    DATA     BYTE      PCON
      000000BCH   SFRSYM    DATA     BYTE      ADC_CONTR
      000000D1H   SFRSYM    DATA     BYTE      PSW1
      000000E7H   SFRSYM    DATA     BYTE      CMPCR2
      000000E6H   SFRSYM    DATA     BYTE      CMPCR1
      000000DEH   SFRSYM    DATA     BYTE      ADCCFG
      000000B8H   SFRSYM    DATA     BYTE      IP
      0000008FH   SFRSYM    DATA     BYTE      INTCLKO
      000000EEH   SFRSYM    DATA     BYTE      IP3H
      000000B6H   SFRSYM    DATA     BYTE      IP2H
      000000BFH   SFRSYM    DATA     BYTE      P_SW4
      000000A8H   SFRSYM    DATA     BYTE      IE
      000000BBH   SFRSYM    DATA     BYTE      P_SW3
      000000BAH   SFRSYM    DATA     BYTE      P_SW2
      000000A2H   SFRSYM    DATA     BYTE      P_SW1
      000000CEH   SFRSYM    DATA     BYTE      SPCTL
      000000F8H   SFRSYM    DATA     BYTE      P7
      000000E8H   SFRSYM    DATA     BYTE      P6
      000000C8H   SFRSYM    DATA     BYTE      P5
      000000C0H   SFRSYM    DATA     BYTE      P4
      000000ABH   SFRSYM    DATA     BYTE      WKTCH
      000000B0H   SFRSYM    DATA     BYTE      P3
      000000A0H   SFRSYM    DATA     BYTE      P2
      00000090H   SFRSYM    DATA     BYTE      P1
      00000080H   SFRSYM    DATA     BYTE      P0

      ---         MODULE    ---      ---       zf_common_function
      00FF4618H   PUBLIC    CODE     ---       zf_sprintf
      00010AB8H   PUBLIC    XDATA    BYTE      ?zf_sprintf?BYTE
      000000D0H   SFRSYM    DATA     BYTE      PSW
      0000009DH   SFRSYM    DATA     BYTE      IRCBAND
      00000097H   SFRSYM    DATA     BYTE      AUXR2
      000000EFH   SFRSYM    DATA     BYTE      AUXINTIF
      000000FDH   SFRSYM    DATA     BYTE      S4CON
      000000ACH   SFRSYM    DATA     BYTE      S3CON
      0000009AH   SFRSYM    DATA     BYTE      S2CON
      000000B7H   SFRSYM    DATA     BYTE      IPH
      000000CDH   SFRSYM    DATA     BYTE      SPSTAT
      000000DDH   SFRSYM    DATA     BYTE      T4T3M
      000000C1H   SFRSYM    DATA     BYTE      WDT_CONTR
      000000DFH   SFRSYM    DATA     BYTE      IP3
      000000F4H   SFRSYM    DATA     BYTE      USBCON
      000000B5H   SFRSYM    DATA     BYTE      IP2
      000000FFH   SFRSYM    DATA     BYTE      RSTCFG
      000000C7H   SFRSYM    DATA     BYTE      IAP_CONTR
      0000008EH   SFRSYM    DATA     BYTE      AUXR
      000000AFH   SFRSYM    DATA     BYTE      IE2
      00000088H   SFRSYM    DATA     BYTE      TCON
      00000089H   SFRSYM    DATA     BYTE      TMOD
L251 LINKER/LOCATER V4.66.93.0                                                        10/07/2025  14:20:36  PAGE 43


      00000098H   SFRSYM    DATA     BYTE      SCON
      00000087H   SFRSYM    DATA     BYTE      PCON
      000000BCH   SFRSYM    DATA     BYTE      ADC_CONTR
      000000D1H   SFRSYM    DATA     BYTE      PSW1
      000000E7H   SFRSYM    DATA     BYTE      CMPCR2
      000000E6H   SFRSYM    DATA     BYTE      CMPCR1
      000000DEH   SFRSYM    DATA     BYTE      ADCCFG
      000000B8H   SFRSYM    DATA     BYTE      IP
      0000008FH   SFRSYM    DATA     BYTE      INTCLKO
      000000EEH   SFRSYM    DATA     BYTE      IP3H
      000000B6H   SFRSYM    DATA     BYTE      IP2H
      000000BFH   SFRSYM    DATA     BYTE      P_SW4
      000000A8H   SFRSYM    DATA     BYTE      IE
      000000BBH   SFRSYM    DATA     BYTE      P_SW3
      000000BAH   SFRSYM    DATA     BYTE      P_SW2
      000000A2H   SFRSYM    DATA     BYTE      P_SW1
      000000CEH   SFRSYM    DATA     BYTE      SPCTL
      000000F8H   SFRSYM    DATA     BYTE      P7
      000000E8H   SFRSYM    DATA     BYTE      P6
      000000C8H   SFRSYM    DATA     BYTE      P5
      000000C0H   SFRSYM    DATA     BYTE      P4
      000000ABH   SFRSYM    DATA     BYTE      WKTCH
      000000B0H   SFRSYM    DATA     BYTE      P3
      000000A0H   SFRSYM    DATA     BYTE      P2
      00000090H   SFRSYM    DATA     BYTE      P1
      00000080H   SFRSYM    DATA     BYTE      P0
      00FFC6BBH   SYMBOL    HCONST   ---       ?tpl?0001
      00FF9BC3H   SYMBOL    CODE     ---       number_conversion_ascii
      00FFA7E9H   SYMBOL    CODE     ---       printf_reverse_order
      DR8         REGSYM    ---      DWORD     num1
      DR28        REGSYM    ---      DWORD     num2
      REG=3       REGSYM    ---      ---       str
      REG=3       REGSYM    ---      ---       str
      REG=3       REGSYM    ---      ---       str
      REG=3       REGSYM    ---      ---       str
      REG=3       REGSYM    ---      ---       str
      REG=3       REGSYM    ---      ---       str
      REG=3       REGSYM    ---      ---       str
      REG=3       REGSYM    ---      ---       str
      REG=3       REGSYM    ---      ---       str
      REG=3       REGSYM    ---      ---       str

      00FF9BC3H   BLOCK     CODE     ---       LVL=0
      DR24        REGSYM    ---      DWORD     dat
      REG=7       REGSYM    ---      ---       p
      R10         REGSYM    ---      BYTE      neg_type
      00010AF3H   SYMBOL    XDATA    BYTE      radix
      00FF9BCBH   BLOCK     CODE     NEAR LAB  LVL=1
      DR20        REGSYM    ---      LONG      neg_dat
      DR24        REGSYM    ---      DWORD     pos_dat
      R14         REGSYM    ---      BYTE      temp_data
      R15         REGSYM    ---      BYTE      valid_num
      ---         BLOCKEND  ---      ---       LVL=1
      00FF9BC3H   LINE      CODE     ---       #647
      00FF9BCBH   LINE      CODE     ---       #648
      00FF9BCBH   LINE      CODE     ---       #651
      00FF9BCDH   LINE      CODE     ---       #652
      00FF9BCFH   LINE      CODE     ---       #654
      00FF9BD3H   LINE      CODE     ---       #656
      00FF9BD5H   LINE      CODE     ---       #657
      00FF9BDBH   LINE      CODE     ---       #659
      00FF9BE5H   LINE      CODE     ---       #660
      00FF9BE5H   LINE      CODE     ---       #661
      00FF9BE5H   LINE      CODE     ---       #663
      00FF9BFBH   LINE      CODE     ---       #664
L251 LINKER/LOCATER V4.66.93.0                                                        10/07/2025  14:20:36  PAGE 44


      00FF9C0AH   LINE      CODE     ---       #665
      00FF9C0CH   LINE      CODE     ---       #667
      00FF9C12H   LINE      CODE     ---       #669
      00FF9C12H   LINE      CODE     ---       #670
      00FF9C12H   LINE      CODE     ---       #671
      00FF9C14H   LINE      CODE     ---       #672
      00FF9C16H   LINE      CODE     ---       #673
      00FF9C18H   LINE      CODE     ---       #676
      00FF9C18H   LINE      CODE     ---       #677
      00FF9C18H   LINE      CODE     ---       #679
      00FF9C27H   LINE      CODE     ---       #680
      00FF9C2CH   LINE      CODE     ---       #682
      00FF9C2FH   LINE      CODE     ---       #683
      00FF9C31H   LINE      CODE     ---       #686
      00FF9C34H   LINE      CODE     ---       #687
      00FF9C34H   LINE      CODE     ---       #689
      00FF9C37H   LINE      CODE     ---       #691
      00FF9C46H   LINE      CODE     ---       #692
      00FF9C48H   LINE      CODE     ---       #694
      00FF9C4EH   LINE      CODE     ---       #696
      00FF9C4EH   LINE      CODE     ---       #697
      00FF9C4EH   LINE      CODE     ---       #698
      00FF9C50H   LINE      CODE     ---       #699
      00FF9C52H   LINE      CODE     ---       #700
      00FF9C52H   LINE      CODE     ---       #701
      00FF9C54H   LINE      CODE     ---       #702
      ---         BLOCKEND  ---      ---       LVL=0

      00FFA7E9H   BLOCK     CODE     ---       LVL=0
      REG=7       REGSYM    ---      ---       d_buff
      DR24        REGSYM    ---      DWORD     len
      00FFA7EDH   BLOCK     CODE     NEAR LAB  LVL=1
      DR4         REGSYM    ---      DWORD     i
      R3          REGSYM    ---      CHAR      temp_data
      ---         BLOCKEND  ---      ---       LVL=1
      00FFA7E9H   LINE      CODE     ---       #712
      00FFA7EDH   LINE      CODE     ---       #713
      00FFA7EDH   LINE      CODE     ---       #716
      00FFA7F1H   LINE      CODE     ---       #718
      00FFA7FEH   LINE      CODE     ---       #719
      00FFA816H   LINE      CODE     ---       #720
      00FFA81FH   LINE      CODE     ---       #721
      00FFA830H   LINE      CODE     ---       #722
      ---         BLOCKEND  ---      ---       LVL=0

      00FF4618H   BLOCK     CODE     ---       LVL=0
      REG=3       REGSYM    ---      ---       buff
      00010ABCH   SYMBOL    XDATA    ---       format
      00FF4626H   BLOCK     CODE     NEAR LAB  LVL=1
      00010AC0H   SYMBOL    XDATA    DWORD     buff_len
      00010AC4H   SYMBOL    XDATA    ---       arg
      00FF4647H   BLOCK     CODE     NEAR LAB  LVL=2
      00010AC8H   SYMBOL    XDATA    CHAR      ret
      00FF4788H   BLOCK     CODE     NEAR LAB  LVL=3
      00010AC9H   SYMBOL    XDATA    CHAR      ch
      ---         BLOCKEND  ---      ---       LVL=3
      00FF47CFH   BLOCK     CODE     NEAR LAB  LVL=3
      00010AC9H   SYMBOL    XDATA    ---       vstr
      00010AEAH   SYMBOL    XDATA    LONG      ival
      00010AEEH   SYMBOL    XDATA    BYTE      vlen
      ---         BLOCKEND  ---      ---       LVL=3
      00FF489AH   BLOCK     CODE     NEAR LAB  LVL=3
      00010AC9H   SYMBOL    XDATA    ---       vstr
      00010AEAH   SYMBOL    XDATA    DOUBLE    ival
      00010AF2H   SYMBOL    XDATA    BYTE      vlen
L251 LINKER/LOCATER V4.66.93.0                                                        10/07/2025  14:20:36  PAGE 45


      ---         BLOCKEND  ---      ---       LVL=3
      00FF4AE5H   BLOCK     CODE     NEAR LAB  LVL=3
      00010AC9H   SYMBOL    XDATA    ---       vstr
      00010AEAH   SYMBOL    XDATA    DWORD     ival
      00010AEEH   SYMBOL    XDATA    BYTE      vlen
      ---         BLOCKEND  ---      ---       LVL=3
      00FF4B83H   BLOCK     CODE     NEAR LAB  LVL=3
      00010AC9H   SYMBOL    XDATA    ---       vstr
      00010AEAH   SYMBOL    XDATA    DWORD     ival
      00010AEEH   SYMBOL    XDATA    BYTE      vlen
      ---         BLOCKEND  ---      ---       LVL=3
      00FF4C21H   BLOCK     CODE     NEAR LAB  LVL=3
      00010AC9H   SYMBOL    XDATA    ---       vstr
      00010AEAH   SYMBOL    XDATA    DWORD     ival
      00010AEEH   SYMBOL    XDATA    BYTE      vlen
      ---         BLOCKEND  ---      ---       LVL=3
      00FF4CBFH   BLOCK     CODE     NEAR LAB  LVL=3
      00010AC9H   SYMBOL    XDATA    ---       pc
      ---         BLOCKEND  ---      ---       LVL=3
      00FF4D39H   BLOCK     CODE     NEAR LAB  LVL=3
      00010AC9H   SYMBOL    XDATA    ---       vstr
      00010AEAH   SYMBOL    XDATA    DWORD     ival
      ---         BLOCKEND  ---      ---       LVL=3
      ---         BLOCKEND  ---      ---       LVL=2
      ---         BLOCKEND  ---      ---       LVL=1
      00FF4618H   LINE      CODE     ---       #733
      00FF4626H   LINE      CODE     ---       #734
      00FF4626H   LINE      CODE     ---       #735
      00FF4632H   LINE      CODE     ---       #737
      00FF4644H   LINE      CODE     ---       #739
      00FF4647H   LINE      CODE     ---       #740
      00FF4647H   LINE      CODE     ---       #741
      00FF4658H   LINE      CODE     ---       #742
      00FF4664H   LINE      CODE     ---       #744
      00FF4788H   LINE      CODE     ---       #746
      00FF4788H   LINE      CODE     ---       #749
      00FF4788H   LINE      CODE     ---       #751
      00FF4788H   LINE      CODE     ---       #752
      00FF4788H   LINE      CODE     ---       #753
      00FF47B0H   LINE      CODE     ---       #754
      00FF47B7H   LINE      CODE     ---       #755
      00FF47B9H   LINE      CODE     ---       #756
      00FF47CCH   LINE      CODE     ---       #758
      00FF47CFH   LINE      CODE     ---       #760
      00FF47CFH   LINE      CODE     ---       #761
      00FF47CFH   LINE      CODE     ---       #762
      00FF47CFH   LINE      CODE     ---       #764
      00FF47FDH   LINE      CODE     ---       #765
      00FF481EH   LINE      CODE     ---       #767
      00FF482EH   LINE      CODE     ---       #769
      00FF4844H   LINE      CODE     ---       #770
      00FF484AH   LINE      CODE     ---       #771
      00FF484AH   LINE      CODE     ---       #772
      00FF485DH   LINE      CODE     ---       #773
      00FF4874H   LINE      CODE     ---       #774
      00FF487CH   LINE      CODE     ---       #775
      00FF4897H   LINE      CODE     ---       #777
      00FF489AH   LINE      CODE     ---       #779
      00FF489AH   LINE      CODE     ---       #780
      00FF489AH   LINE      CODE     ---       #781
      00FF489AH   LINE      CODE     ---       #783
      00FF48DAH   LINE      CODE     ---       #784
      00FF4906H   LINE      CODE     ---       #786
      00FF4921H   LINE      CODE     ---       #788
      00FF4937H   LINE      CODE     ---       #789
L251 LINKER/LOCATER V4.66.93.0                                                        10/07/2025  14:20:36  PAGE 46


      00FF493DH   LINE      CODE     ---       #790
      00FF493DH   LINE      CODE     ---       #791
      00FF4950H   LINE      CODE     ---       #792
      00FF4967H   LINE      CODE     ---       #793
      00FF496FH   LINE      CODE     ---       #794
      00FF498AH   LINE      CODE     ---       #796
      00FF49DCH   LINE      CODE     ---       #797
      00FF49FAH   LINE      CODE     ---       #799
      00FF4A26H   LINE      CODE     ---       #800
      00FF4A28H   LINE      CODE     ---       #803
      00FF4A4CH   LINE      CODE     ---       #804
      00FF4A52H   LINE      CODE     ---       #805
      00FF4A52H   LINE      CODE     ---       #807
      00FF4A54H   LINE      CODE     ---       #809
      00FF4A6AH   LINE      CODE     ---       #810
      00FF4A70H   LINE      CODE     ---       #811
      00FF4A79H   LINE      CODE     ---       #813
      00FF4A8FH   LINE      CODE     ---       #814
      00FF4A95H   LINE      CODE     ---       #816
      00FF4AA8H   LINE      CODE     ---       #817
      00FF4ABFH   LINE      CODE     ---       #818
      00FF4AC7H   LINE      CODE     ---       #819
      00FF4AE2H   LINE      CODE     ---       #821
      00FF4AE5H   LINE      CODE     ---       #823
      00FF4AE5H   LINE      CODE     ---       #824
      00FF4AE5H   LINE      CODE     ---       #826
      00FF4B13H   LINE      CODE     ---       #827
      00FF4B33H   LINE      CODE     ---       #829
      00FF4B46H   LINE      CODE     ---       #830
      00FF4B5DH   LINE      CODE     ---       #831
      00FF4B65H   LINE      CODE     ---       #832
      00FF4B80H   LINE      CODE     ---       #834
      00FF4B83H   LINE      CODE     ---       #836
      00FF4B83H   LINE      CODE     ---       #837
      00FF4B83H   LINE      CODE     ---       #839
      00FF4BB1H   LINE      CODE     ---       #840
      00FF4BD1H   LINE      CODE     ---       #842
      00FF4BE4H   LINE      CODE     ---       #843
      00FF4BFBH   LINE      CODE     ---       #844
      00FF4C03H   LINE      CODE     ---       #845
      00FF4C1EH   LINE      CODE     ---       #848
      00FF4C21H   LINE      CODE     ---       #850
      00FF4C21H   LINE      CODE     ---       #851
      00FF4C21H   LINE      CODE     ---       #852
      00FF4C21H   LINE      CODE     ---       #854
      00FF4C4FH   LINE      CODE     ---       #855
      00FF4C6FH   LINE      CODE     ---       #857
      00FF4C82H   LINE      CODE     ---       #858
      00FF4C99H   LINE      CODE     ---       #859
      00FF4CA1H   LINE      CODE     ---       #860
      00FF4CBCH   LINE      CODE     ---       #862
      00FF4CBFH   LINE      CODE     ---       #864
      00FF4CBFH   LINE      CODE     ---       #865
      00FF4CBFH   LINE      CODE     ---       #866
      00FF4CEDH   LINE      CODE     ---       #867
      00FF4CEFH   LINE      CODE     ---       #869
      00FF4CFFH   LINE      CODE     ---       #870
      00FF4D01H   LINE      CODE     ---       #871
      00FF4D14H   LINE      CODE     ---       #872
      00FF4D27H   LINE      CODE     ---       #873
      00FF4D36H   LINE      CODE     ---       #875
      00FF4D39H   LINE      CODE     ---       #877
      00FF4D39H   LINE      CODE     ---       #878
      00FF4D39H   LINE      CODE     ---       #880
      00FF4D67H   LINE      CODE     ---       #882
L251 LINKER/LOCATER V4.66.93.0                                                        10/07/2025  14:20:36  PAGE 47


      00FF4D83H   LINE      CODE     ---       #883
      00FF4D92H   LINE      CODE     ---       #884
      00FF4DA7H   LINE      CODE     ---       #885
      00FF4DABH   LINE      CODE     ---       #886
      00FF4DC0H   LINE      CODE     ---       #888
      00FF4DC2H   LINE      CODE     ---       #890
      00FF4DC2H   LINE      CODE     ---       #892
      00FF4DC7H   LINE      CODE     ---       #893
      00FF4DC9H   LINE      CODE     ---       #894
      00FF4DDCH   LINE      CODE     ---       #896
      00FF4DDEH   LINE      CODE     ---       #898
      00FF4DDEH   LINE      CODE     ---       #899
      00FF4DDEH   LINE      CODE     ---       #900
      00FF4DDEH   LINE      CODE     ---       #901
      00FF4DDEH   LINE      CODE     ---       #904
      00FF4DEEH   LINE      CODE     ---       #905
      00FF4DF0H   LINE      CODE     ---       #906
      00FF4E03H   LINE      CODE     ---       #907
      00FF4E03H   LINE      CODE     ---       #908
      00FF4E16H   LINE      CODE     ---       #909
      00FF4E28H   LINE      CODE     ---       #912
      00FF4E32H   LINE      CODE     ---       #913
      ---         BLOCKEND  ---      ---       LVL=0

      ---         MODULE    ---      ---       zf_common_typedef
      00010C96H   PUBLIC    XDATA    ---       tim11_irq_handler
      00010C98H   PUBLIC    XDATA    ---       uart1_irq_handler
      00010C9AH   PUBLIC    XDATA    ---       uart2_irq_handler
      00010C9CH   PUBLIC    XDATA    ---       uart3_irq_handler
      00010C9EH   PUBLIC    XDATA    ---       uart4_irq_handler
      00010CA0H   PUBLIC    XDATA    ---       tim0_irq_handler
      00010CA2H   PUBLIC    XDATA    ---       int0_irq_handler
      00010CA4H   PUBLIC    XDATA    ---       tim1_irq_handler
      00010CA6H   PUBLIC    XDATA    ---       int1_irq_handler
      00010CA8H   PUBLIC    XDATA    ---       tim2_irq_handler
      00010CAAH   PUBLIC    XDATA    ---       int2_irq_handler
      00010CACH   PUBLIC    XDATA    ---       tim3_irq_handler
      00010CAEH   PUBLIC    XDATA    ---       int3_irq_handler
      00010CB0H   PUBLIC    XDATA    ---       tim4_irq_handler
      00010CB2H   PUBLIC    XDATA    ---       int4_irq_handler
      000000D0H   SFRSYM    DATA     BYTE      PSW
      0000009DH   SFRSYM    DATA     BYTE      IRCBAND
      00000097H   SFRSYM    DATA     BYTE      AUXR2
      000000EFH   SFRSYM    DATA     BYTE      AUXINTIF
      000000FDH   SFRSYM    DATA     BYTE      S4CON
      000000ACH   SFRSYM    DATA     BYTE      S3CON
      0000009AH   SFRSYM    DATA     BYTE      S2CON
      000000B7H   SFRSYM    DATA     BYTE      IPH
      000000CDH   SFRSYM    DATA     BYTE      SPSTAT
      000000DDH   SFRSYM    DATA     BYTE      T4T3M
      000000C1H   SFRSYM    DATA     BYTE      WDT_CONTR
      000000DFH   SFRSYM    DATA     BYTE      IP3
      000000F4H   SFRSYM    DATA     BYTE      USBCON
      000000B5H   SFRSYM    DATA     BYTE      IP2
      000000FFH   SFRSYM    DATA     BYTE      RSTCFG
      000000C7H   SFRSYM    DATA     BYTE      IAP_CONTR
      0000008EH   SFRSYM    DATA     BYTE      AUXR
      000000AFH   SFRSYM    DATA     BYTE      IE2
      00000088H   SFRSYM    DATA     BYTE      TCON
      00000089H   SFRSYM    DATA     BYTE      TMOD
      00000098H   SFRSYM    DATA     BYTE      SCON
      00000087H   SFRSYM    DATA     BYTE      PCON
      000000BCH   SFRSYM    DATA     BYTE      ADC_CONTR
      000000D1H   SFRSYM    DATA     BYTE      PSW1
      000000E7H   SFRSYM    DATA     BYTE      CMPCR2
L251 LINKER/LOCATER V4.66.93.0                                                        10/07/2025  14:20:36  PAGE 48


      000000E6H   SFRSYM    DATA     BYTE      CMPCR1
      000000DEH   SFRSYM    DATA     BYTE      ADCCFG
      000000B8H   SFRSYM    DATA     BYTE      IP
      0000008FH   SFRSYM    DATA     BYTE      INTCLKO
      000000EEH   SFRSYM    DATA     BYTE      IP3H
      000000B6H   SFRSYM    DATA     BYTE      IP2H
      000000BFH   SFRSYM    DATA     BYTE      P_SW4
      000000A8H   SFRSYM    DATA     BYTE      IE
      000000BBH   SFRSYM    DATA     BYTE      P_SW3
      000000BAH   SFRSYM    DATA     BYTE      P_SW2
      000000A2H   SFRSYM    DATA     BYTE      P_SW1
      000000CEH   SFRSYM    DATA     BYTE      SPCTL
      000000F8H   SFRSYM    DATA     BYTE      P7
      000000E8H   SFRSYM    DATA     BYTE      P6
      000000C8H   SFRSYM    DATA     BYTE      P5
      000000C0H   SFRSYM    DATA     BYTE      P4
      000000ABH   SFRSYM    DATA     BYTE      WKTCH
      000000B0H   SFRSYM    DATA     BYTE      P3
      000000A0H   SFRSYM    DATA     BYTE      P2
      00000090H   SFRSYM    DATA     BYTE      P1
      00000080H   SFRSYM    DATA     BYTE      P0

      ---         MODULE    ---      ---       zf_common_interrupt
      00FF001EH   PUBLIC    CODE     ---       interrupt_global_enable
      000000D0H   SFRSYM    DATA     BYTE      PSW
      0000009DH   SFRSYM    DATA     BYTE      IRCBAND
      00000097H   SFRSYM    DATA     BYTE      AUXR2
      000000EFH   SFRSYM    DATA     BYTE      AUXINTIF
      000000FDH   SFRSYM    DATA     BYTE      S4CON
      000000ACH   SFRSYM    DATA     BYTE      S3CON
      0000009AH   SFRSYM    DATA     BYTE      S2CON
      000000B7H   SFRSYM    DATA     BYTE      IPH
      000000CDH   SFRSYM    DATA     BYTE      SPSTAT
      000000DDH   SFRSYM    DATA     BYTE      T4T3M
      000000C1H   SFRSYM    DATA     BYTE      WDT_CONTR
      000000DFH   SFRSYM    DATA     BYTE      IP3
      000000F4H   SFRSYM    DATA     BYTE      USBCON
      000000B5H   SFRSYM    DATA     BYTE      IP2
      000000FFH   SFRSYM    DATA     BYTE      RSTCFG
      000000C7H   SFRSYM    DATA     BYTE      IAP_CONTR
      0000008EH   SFRSYM    DATA     BYTE      AUXR
      000000AFH   SFRSYM    DATA     BYTE      IE2
      00000088H   SFRSYM    DATA     BYTE      TCON
      00000089H   SFRSYM    DATA     BYTE      TMOD
      00000098H   SFRSYM    DATA     BYTE      SCON
      00000087H   SFRSYM    DATA     BYTE      PCON
      000000BCH   SFRSYM    DATA     BYTE      ADC_CONTR
      000000D1H   SFRSYM    DATA     BYTE      PSW1
      000000E7H   SFRSYM    DATA     BYTE      CMPCR2
      000000E6H   SFRSYM    DATA     BYTE      CMPCR1
      000000DEH   SFRSYM    DATA     BYTE      ADCCFG
      000000B8H   SFRSYM    DATA     BYTE      IP
      0000008FH   SFRSYM    DATA     BYTE      INTCLKO
      000000EEH   SFRSYM    DATA     BYTE      IP3H
      000000B6H   SFRSYM    DATA     BYTE      IP2H
      000000BFH   SFRSYM    DATA     BYTE      P_SW4
      000000A8H   SFRSYM    DATA     BYTE      IE
      000000BBH   SFRSYM    DATA     BYTE      P_SW3
      000000BAH   SFRSYM    DATA     BYTE      P_SW2
      000000A2H   SFRSYM    DATA     BYTE      P_SW1
      000000CEH   SFRSYM    DATA     BYTE      SPCTL
      000000F8H   SFRSYM    DATA     BYTE      P7
      000000A8H.7 SFRSYM    DATA     BIT       EA
      000000E8H   SFRSYM    DATA     BYTE      P6
      000000C8H   SFRSYM    DATA     BYTE      P5
L251 LINKER/LOCATER V4.66.93.0                                                        10/07/2025  14:20:36  PAGE 49


      000000C0H   SFRSYM    DATA     BYTE      P4
      000000ABH   SFRSYM    DATA     BYTE      WKTCH
      000000B0H   SFRSYM    DATA     BYTE      P3
      000000A0H   SFRSYM    DATA     BYTE      P2
      00000090H   SFRSYM    DATA     BYTE      P1
      00000080H   SFRSYM    DATA     BYTE      P0
      WR4         REGSYM    ---      INT       irqn
      R3          REGSYM    ---      BYTE      priority

      00FF001EH   BLOCK     CODE     ---       LVL=0
      00FF001EH   LINE      CODE     ---       #88
      00FF001EH   LINE      CODE     ---       #90
      00FF0020H   LINE      CODE     ---       #91
      ---         BLOCKEND  ---      ---       LVL=0

      ---         MODULE    ---      ---       ?C_START
      00FF0000H   PUBLIC    CODE     ---       ?C?STARTUP
      00FF0000H   PUBLIC    CODE     ---       ?C_STARTUP
      000000D0H.6 SFRSYM    DATA     BIT       AC
      000000E0H   SFRSYM    DATA     BYTE      ACC
      000000F0H   SFRSYM    DATA     BYTE      B
      000000FAH   SFRSYM    DATA     BYTE      CCAP0H
      000000EAH   SFRSYM    DATA     BYTE      CCAP0L
      000000FBH   SFRSYM    DATA     BYTE      CCAP1H
      000000EBH   SFRSYM    DATA     BYTE      CCAP1L
      000000FCH   SFRSYM    DATA     BYTE      CCAP2H
      000000ECH   SFRSYM    DATA     BYTE      CCAP2L
      000000FDH   SFRSYM    DATA     BYTE      CCAP3H
      000000EDH   SFRSYM    DATA     BYTE      CCAP3L
      000000FEH   SFRSYM    DATA     BYTE      CCAP4H
      000000EEH   SFRSYM    DATA     BYTE      CCAP4L
      000000DAH   SFRSYM    DATA     BYTE      CCAPM0
      000000DBH   SFRSYM    DATA     BYTE      CCAPM1
      000000DCH   SFRSYM    DATA     BYTE      CCAPM2
      000000DDH   SFRSYM    DATA     BYTE      CCAPM3
      000000DEH   SFRSYM    DATA     BYTE      CCAPM4
      000000D8H.0 SFRSYM    DATA     BIT       CCF0
      000000D8H.1 SFRSYM    DATA     BIT       CCF1
      000000D8H.2 SFRSYM    DATA     BIT       CCF2
      000000D8H.3 SFRSYM    DATA     BIT       CCF3
      000000D8H.4 SFRSYM    DATA     BIT       CCF4
      000000D8H   SFRSYM    DATA     BYTE      CCON
      00000090H.3 SFRSYM    DATA     BIT       CEX0
      00000090H.4 SFRSYM    DATA     BIT       CEX1
      00000090H.5 SFRSYM    DATA     BIT       CEX2
      00000090H.6 SFRSYM    DATA     BIT       CEX3
      00000090H.7 SFRSYM    DATA     BIT       CEX4
      000000D8H.7 SFRSYM    DATA     BIT       CF
      000000F9H   SFRSYM    DATA     BYTE      CH
      000000E9H   SFRSYM    DATA     BYTE      CL
      000000D9H   SFRSYM    DATA     BYTE      CMOD
      000000C8H.0 SFRSYM    DATA     BIT       CP_RL2
      000000D8H.6 SFRSYM    DATA     BIT       CR
      000000D0H.7 SFRSYM    DATA     BIT       CY
      000000C8H.1 SFRSYM    DATA     BIT       C_T2
      00000083H   SFRSYM    DATA     BYTE      DPH
      00000082H   SFRSYM    DATA     BYTE      DPL
      00000084H   SFRSYM    DATA     BYTE      DPXL
      000000A8H.7 SFRSYM    DATA     BIT       EA
      000000A8H.6 SFRSYM    DATA     BIT       EC
      00000090H.2 SFRSYM    DATA     BIT       ECI
      000000A8H.4 SFRSYM    DATA     BIT       ES
      000000A8H.1 SFRSYM    DATA     BIT       ET0
      000000A8H.3 SFRSYM    DATA     BIT       ET1
      000000A8H.5 SFRSYM    DATA     BIT       ET2
L251 LINKER/LOCATER V4.66.93.0                                                        10/07/2025  14:20:36  PAGE 50


      000000A8H.0 SFRSYM    DATA     BIT       EX0
      000000A8H.2 SFRSYM    DATA     BIT       EX1
      000000C8H.3 SFRSYM    DATA     BIT       EXEN2
      000000C8H.6 SFRSYM    DATA     BIT       EXF2
      000000D0H.5 SFRSYM    DATA     BIT       F0
      00000098H.7 SFRSYM    DATA     BIT       FE
      000000A8H   SFRSYM    DATA     BYTE      IE0
      00000088H.1 SFRSYM    DATA     BIT       IE0_
      000000B1H   SFRSYM    DATA     BYTE      IE1
      00000088H.3 SFRSYM    DATA     BIT       IE1_
      000000B0H.2 SFRSYM    DATA     BIT       INT0
      000000B0H.3 SFRSYM    DATA     BIT       INT1
      000000B7H   SFRSYM    DATA     BYTE      IPH0
      000000B8H   SFRSYM    DATA     BYTE      IPL0
      00000088H.0 SFRSYM    DATA     BIT       IT0
      00000088H.2 SFRSYM    DATA     BIT       IT1
      000000D0H.2 SFRSYM    DATA     BIT       OV
      000000D0H.0 SFRSYM    DATA     BIT       P
      00000080H   SFRSYM    DATA     BYTE      P0
      00000090H   SFRSYM    DATA     BYTE      P1
      000000A0H   SFRSYM    DATA     BYTE      P2
      000000B0H   SFRSYM    DATA     BYTE      P3
      00000087H   SFRSYM    DATA     BYTE      PCON
      000000B8H.6 SFRSYM    DATA     BIT       PPC
      000000B8H.4 SFRSYM    DATA     BIT       PS
      000000D0H   SFRSYM    DATA     BYTE      PSW
      000000D1H   SFRSYM    DATA     BYTE      PSW1
      000000B8H.1 SFRSYM    DATA     BIT       PT0
      000000B8H.3 SFRSYM    DATA     BIT       PT1
      000000B8H.5 SFRSYM    DATA     BIT       PT2
      000000B8H.0 SFRSYM    DATA     BIT       PX0
      000000B8H.2 SFRSYM    DATA     BIT       PX1
      00000098H.2 SFRSYM    DATA     BIT       RB8
      000000CBH   SFRSYM    DATA     BYTE      RCAP2H
      000000CAH   SFRSYM    DATA     BYTE      RCAP2L
      000000C8H.5 SFRSYM    DATA     BIT       RCLK
      000000B0H.7 SFRSYM    DATA     BIT       RD
      00000098H.4 SFRSYM    DATA     BIT       REN
      00000098H.0 SFRSYM    DATA     BIT       RI
      000000D0H.3 SFRSYM    DATA     BIT       RS0
      000000D0H.4 SFRSYM    DATA     BIT       RS1
      000000B0H.0 SFRSYM    DATA     BIT       RXD
      000000A9H   SFRSYM    DATA     BYTE      SADDR
      000000B9H   SFRSYM    DATA     BYTE      SADEN
      00000099H   SFRSYM    DATA     BYTE      SBUF
      00000098H   SFRSYM    DATA     BYTE      SCON
      00000098H.7 SFRSYM    DATA     BIT       SM0
      00000098H.6 SFRSYM    DATA     BIT       SM1
      00000098H.5 SFRSYM    DATA     BIT       SM2
      00000081H   SFRSYM    DATA     BYTE      SP
      000000BEH   SFRSYM    DATA     BYTE      SPH
      000000B0H.4 SFRSYM    DATA     BIT       T0
      000000B0H.5 SFRSYM    DATA     BIT       T1
      00000090H.0 SFRSYM    DATA     BIT       T2
      000000C8H   SFRSYM    DATA     BYTE      T2CON
      00000090H.1 SFRSYM    DATA     BIT       T2EX
      000000C9H   SFRSYM    DATA     BYTE      T2MOD
      00000098H.3 SFRSYM    DATA     BIT       TB8
      000000C8H.4 SFRSYM    DATA     BIT       TCLK
      00000088H   SFRSYM    DATA     BYTE      TCON
      00000088H.5 SFRSYM    DATA     BIT       TF0
      00000088H.7 SFRSYM    DATA     BIT       TF1
      000000C8H.7 SFRSYM    DATA     BIT       TF2
      0000008CH   SFRSYM    DATA     BYTE      TH0
      0000008DH   SFRSYM    DATA     BYTE      TH1
L251 LINKER/LOCATER V4.66.93.0                                                        10/07/2025  14:20:36  PAGE 51


      000000CDH   SFRSYM    DATA     BYTE      TH2
      00000098H.1 SFRSYM    DATA     BIT       TI
      0000008AH   SFRSYM    DATA     BYTE      TL0
      0000008BH   SFRSYM    DATA     BYTE      TL1
      000000CCH   SFRSYM    DATA     BYTE      TL2
      00000089H   SFRSYM    DATA     BYTE      TMOD
      00000088H.4 SFRSYM    DATA     BIT       TR0
      00000088H.6 SFRSYM    DATA     BIT       TR1
      000000C8H.2 SFRSYM    DATA     BIT       TR2
      000000B0H.1 SFRSYM    DATA     BIT       TXD
      000000A6H   SFRSYM    DATA     BYTE      WDTRST
      000000B0H.6 SFRSYM    DATA     BIT       WR
      00000800H   SYMBOL    NUMBER   ---       EDATALEN
      00FFA565H   SYMBOL    CODE     ---       EDATALOOP
      00000001H   SYMBOL    NUMBER   ---       EDF
      00000001H   SYMBOL    NUMBER   ---       EMAP
      00000000H   SYMBOL    NUMBER   ---       HDATALEN
      00010000H   SYMBOL    NUMBER   ---       HDATASTART
      00000000H   SYMBOL    NUMBER   ---       IBPSTACK
      00000100H   SYMBOL    NUMBER   ---       IBPSTACKTOP
      00000001H   SYMBOL    NUMBER   ---       INTR
      00000001H   SYMBOL    NUMBER   ---       PAGM
      00000003H   SYMBOL    NUMBER   ---       RDRG
      00000001H   SYMBOL    NUMBER   ---       SRCM
      00000700H   SYMBOL    NUMBER   ---       STACKSIZE
      00FFA55DH   SYMBOL    CODE     ---       STARTUP1
      00000003H   SYMBOL    NUMBER   ---       WSA
      00000003H   SYMBOL    NUMBER   ---       WSB
      00000001H   SYMBOL    NUMBER   ---       XALE
      00000000H   SYMBOL    NUMBER   ---       XBPSTACK
      00010000H   SYMBOL    NUMBER   ---       XBPSTACKTOP
      00008000H   SYMBOL    NUMBER   ---       XDATALEN
      00FFA574H   SYMBOL    CODE     ---       XDATALOOP
      00010000H   SYMBOL    NUMBER   ---       XDATASTART

      00FF0000H   BLOCK     CODE     NEAR LAB  LVL=0
      00FF0000H   LINE      CODE     ---       #183
      ---         BLOCKEND  ---      ---       LVL=0

      00FFA55DH   BLOCK     CODE     NEAR LAB  LVL=0
      00FFA55DH   LINE      CODE     ---       #188
      00FFA560H   LINE      CODE     ---       #191
      00FFA564H   LINE      CODE     ---       #192
      00FFA565H   LINE      CODE     ---       #193
      00FFA568H   LINE      CODE     ---       #194
      00FFA56AH   LINE      CODE     ---       #195
      00FFA56CH   LINE      CODE     ---       #199
      00FFA56FH   LINE      CODE     ---       #200
      00FFA573H   LINE      CODE     ---       #201
      00FFA574H   LINE      CODE     ---       #202
      00FFA575H   LINE      CODE     ---       #203
      00FFA576H   LINE      CODE     ---       #204
      00FFA578H   LINE      CODE     ---       #205
      00FFA57AH   LINE      CODE     ---       #235
      ---         BLOCKEND  ---      ---       LVL=0

      00FFA5B1H   BLOCK     CODE     NEAR LAB  LVL=0
      00FFA5B1H   LINE      CODE     ---       #238
      ---         BLOCKEND  ---      ---       LVL=0

      ---         MODULE    ---      ---       zf_driver_adc
      00FFABD4H   PUBLIC    CODE     ---       adc_convert
      00FF9F9EH   PUBLIC    CODE     ---       adc_init
      00000094H   SFRSYM    DATA     BYTE      P0M0
      000000D0H   SFRSYM    DATA     BYTE      PSW
L251 LINKER/LOCATER V4.66.93.0                                                        10/07/2025  14:20:36  PAGE 52


      0000009DH   SFRSYM    DATA     BYTE      IRCBAND
      00000097H   SFRSYM    DATA     BYTE      AUXR2
      000000EFH   SFRSYM    DATA     BYTE      AUXINTIF
      000000FDH   SFRSYM    DATA     BYTE      S4CON
      000000ACH   SFRSYM    DATA     BYTE      S3CON
      0000009AH   SFRSYM    DATA     BYTE      S2CON
      000000B7H   SFRSYM    DATA     BYTE      IPH
      000000CDH   SFRSYM    DATA     BYTE      SPSTAT
      000000BEH   SFRSYM    DATA     BYTE      ADC_RESL
      000000DDH   SFRSYM    DATA     BYTE      T4T3M
      000000C1H   SFRSYM    DATA     BYTE      WDT_CONTR
      000000DFH   SFRSYM    DATA     BYTE      IP3
      000000F4H   SFRSYM    DATA     BYTE      USBCON
      000000B5H   SFRSYM    DATA     BYTE      IP2
      000000FFH   SFRSYM    DATA     BYTE      RSTCFG
      000000C7H   SFRSYM    DATA     BYTE      IAP_CONTR
      0000008EH   SFRSYM    DATA     BYTE      AUXR
      000000AFH   SFRSYM    DATA     BYTE      IE2
      00000088H   SFRSYM    DATA     BYTE      TCON
      00000089H   SFRSYM    DATA     BYTE      TMOD
      00000098H   SFRSYM    DATA     BYTE      SCON
      00000087H   SFRSYM    DATA     BYTE      PCON
      000000BCH   SFRSYM    DATA     BYTE      ADC_CONTR
      000000D1H   SFRSYM    DATA     BYTE      PSW1
      000000E7H   SFRSYM    DATA     BYTE      CMPCR2
      000000E6H   SFRSYM    DATA     BYTE      CMPCR1
      000000DEH   SFRSYM    DATA     BYTE      ADCCFG
      000000B8H   SFRSYM    DATA     BYTE      IP
      0000008FH   SFRSYM    DATA     BYTE      INTCLKO
      000000EEH   SFRSYM    DATA     BYTE      IP3H
      000000B6H   SFRSYM    DATA     BYTE      IP2H
      000000BDH   SFRSYM    DATA     BYTE      ADC_RES
      000000BFH   SFRSYM    DATA     BYTE      P_SW4
      000000A8H   SFRSYM    DATA     BYTE      IE
      000000BBH   SFRSYM    DATA     BYTE      P_SW3
      000000BAH   SFRSYM    DATA     BYTE      P_SW2
      000000A2H   SFRSYM    DATA     BYTE      P_SW1
      000000CEH   SFRSYM    DATA     BYTE      SPCTL
      000000F8H   SFRSYM    DATA     BYTE      P7
      000000E8H   SFRSYM    DATA     BYTE      P6
      000000C8H   SFRSYM    DATA     BYTE      P5
      000000C0H   SFRSYM    DATA     BYTE      P4
      000000ABH   SFRSYM    DATA     BYTE      WKTCH
      000000B0H   SFRSYM    DATA     BYTE      P3
      000000A0H   SFRSYM    DATA     BYTE      P2
      00000090H   SFRSYM    DATA     BYTE      P1
      00000080H   SFRSYM    DATA     BYTE      P0
      00000091H   SFRSYM    DATA     BYTE      P1M1
      00000092H   SFRSYM    DATA     BYTE      P1M0
      00000093H   SFRSYM    DATA     BYTE      P0M1
      00010D8CH   SYMBOL    XDATA    BYTE      adc_resolution
      WR14        REGSYM    ---      INT       ch
      R13         REGSYM    ---      BYTE      count
      R12         REGSYM    ---      BYTE      i

      00FFABD4H   BLOCK     CODE     ---       LVL=0
      WR6         REGSYM    ---      INT       ch
      WR6         REGSYM    ---      WORD      adc_value
      00FFABD4H   LINE      CODE     ---       #75
      00FFABD4H   LINE      CODE     ---       #76
      00FFABD4H   LINE      CODE     ---       #79
      00FFABD7H   LINE      CODE     ---       #80
      00FFABDBH   LINE      CODE     ---       #82
      00FFABDEH   LINE      CODE     ---       #84
      00FFABE3H   LINE      CODE     ---       #86
L251 LINKER/LOCATER V4.66.93.0                                                        10/07/2025  14:20:36  PAGE 53


      00FFABE6H   LINE      CODE     ---       #88
      00FFABE8H   LINE      CODE     ---       #89
      00FFABECH   LINE      CODE     ---       #90
      00FFABF2H   LINE      CODE     ---       #92
      00FFABF5H   LINE      CODE     ---       #93
      00FFABF8H   LINE      CODE     ---       #95
      00FFAC03H   LINE      CODE     ---       #98
      00FFAC03H   LINE      CODE     ---       #99
      ---         BLOCKEND  ---      ---       LVL=0

      00FF9F9EH   BLOCK     CODE     ---       LVL=0
      WR4         REGSYM    ---      INT       ch
      WR2         REGSYM    ---      INT       resolution
      00FF9F9EH   LINE      CODE     ---       #108
      00FF9FA2H   LINE      CODE     ---       #110
      00FF9FA5H   LINE      CODE     ---       #112
      00FF9FA8H   LINE      CODE     ---       #113
      00FF9FAEH   LINE      CODE     ---       #115
      00FF9FBCH   LINE      CODE     ---       #118
      00FF9FD1H   LINE      CODE     ---       #119
      00FF9FE4H   LINE      CODE     ---       #120
      00FF9FE6H   LINE      CODE     ---       #121
      00FF9FF0H   LINE      CODE     ---       #124
      00FFA005H   LINE      CODE     ---       #125
      00FFA018H   LINE      CODE     ---       #126
      00FFA018H   LINE      CODE     ---       #128
      00FFA01BH   LINE      CODE     ---       #130
      00FFA01EH   LINE      CODE     ---       #132
      00FFA024H   LINE      CODE     ---       #133
      ---         BLOCKEND  ---      ---       LVL=0

      ---         MODULE    ---      ---       zf_driver_delay
      00FFA500H   PUBLIC    CODE     ---       system_delay_init
      00FFA302H   PUBLIC    CODE     ---       system_delay_ms
      000000D0H   SFRSYM    DATA     BYTE      PSW
      0000009DH   SFRSYM    DATA     BYTE      IRCBAND
      00000097H   SFRSYM    DATA     BYTE      AUXR2
      000000EFH   SFRSYM    DATA     BYTE      AUXINTIF
      000000FDH   SFRSYM    DATA     BYTE      S4CON
      000000ACH   SFRSYM    DATA     BYTE      S3CON
      0000009AH   SFRSYM    DATA     BYTE      S2CON
      000000B7H   SFRSYM    DATA     BYTE      IPH
      000000CDH   SFRSYM    DATA     BYTE      SPSTAT
      000000DDH   SFRSYM    DATA     BYTE      T4T3M
      000000C1H   SFRSYM    DATA     BYTE      WDT_CONTR
      000000DFH   SFRSYM    DATA     BYTE      IP3
      000000F4H   SFRSYM    DATA     BYTE      USBCON
      000000B5H   SFRSYM    DATA     BYTE      IP2
      000000FFH   SFRSYM    DATA     BYTE      RSTCFG
      000000C7H   SFRSYM    DATA     BYTE      IAP_CONTR
      0000008EH   SFRSYM    DATA     BYTE      AUXR
      000000AFH   SFRSYM    DATA     BYTE      IE2
      00000088H   SFRSYM    DATA     BYTE      TCON
      00000089H   SFRSYM    DATA     BYTE      TMOD
      00000098H   SFRSYM    DATA     BYTE      SCON
      00000087H   SFRSYM    DATA     BYTE      PCON
      000000BCH   SFRSYM    DATA     BYTE      ADC_CONTR
      000000D1H   SFRSYM    DATA     BYTE      PSW1
      000000E7H   SFRSYM    DATA     BYTE      CMPCR2
      000000E6H   SFRSYM    DATA     BYTE      CMPCR1
      000000DEH   SFRSYM    DATA     BYTE      ADCCFG
      000000B8H   SFRSYM    DATA     BYTE      IP
      0000008FH   SFRSYM    DATA     BYTE      INTCLKO
      000000EEH   SFRSYM    DATA     BYTE      IP3H
      000000B6H   SFRSYM    DATA     BYTE      IP2H
L251 LINKER/LOCATER V4.66.93.0                                                        10/07/2025  14:20:36  PAGE 54


      000000BFH   SFRSYM    DATA     BYTE      P_SW4
      000000A8H   SFRSYM    DATA     BYTE      IE
      000000BBH   SFRSYM    DATA     BYTE      P_SW3
      000000BAH   SFRSYM    DATA     BYTE      P_SW2
      000000A2H   SFRSYM    DATA     BYTE      P_SW1
      000000CEH   SFRSYM    DATA     BYTE      SPCTL
      000000F8H   SFRSYM    DATA     BYTE      P7
      000000E8H   SFRSYM    DATA     BYTE      P6
      000000C8H   SFRSYM    DATA     BYTE      P5
      000000C0H   SFRSYM    DATA     BYTE      P4
      000000ABH   SFRSYM    DATA     BYTE      WKTCH
      000000B0H   SFRSYM    DATA     BYTE      P3
      000000A0H   SFRSYM    DATA     BYTE      P2
      00000090H   SFRSYM    DATA     BYTE      P1
      00000080H   SFRSYM    DATA     BYTE      P0
      00010D7FH   SYMBOL    XDATA    WORD      pca_delay_1ms
      00010D81H   SYMBOL    XDATA    WORD      pca_delay_1us

      00FFA500H   BLOCK     CODE     ---       LVL=0
      00FFA500H   LINE      CODE     ---       #48
      00FFA500H   LINE      CODE     ---       #50
      00FFA517H   LINE      CODE     ---       #51
      00FFA532H   LINE      CODE     ---       #53
      00FFA53FH   LINE      CODE     ---       #54
      00FFA54CH   LINE      CODE     ---       #55
      00FFA55CH   LINE      CODE     ---       #57
      ---         BLOCKEND  ---      ---       LVL=0

      00FFA302H   BLOCK     CODE     ---       LVL=0
      WR8         REGSYM    ---      WORD      ms
      00FFA304H   BLOCK     CODE     NEAR LAB  LVL=1
      WR6         REGSYM    ---      WORD      temp
      ---         BLOCKEND  ---      ---       LVL=1
      00FFA302H   LINE      CODE     ---       #65
      00FFA304H   LINE      CODE     ---       #66
      00FFA304H   LINE      CODE     ---       #69
      00FFA306H   LINE      CODE     ---       #71
      00FFA32AH   LINE      CODE     ---       #73
      00FFA337H   LINE      CODE     ---       #74
      00FFA346H   LINE      CODE     ---       #76
      00FFA354H   LINE      CODE     ---       #77
      00FFA364H   LINE      CODE     ---       #78
      00FFA36CH   LINE      CODE     ---       #79
      ---         BLOCKEND  ---      ---       LVL=0
      WR8         REGSYM    ---      WORD      ms
      WR6         REGSYM    ---      WORD      temp

      ---         MODULE    ---      ---       zf_driver_eeprom
      000000D0H   SFRSYM    DATA     BYTE      PSW
      0000009DH   SFRSYM    DATA     BYTE      IRCBAND
      00000097H   SFRSYM    DATA     BYTE      AUXR2
      000000C6H   SFRSYM    DATA     BYTE      IAP_TRIG
      000000EFH   SFRSYM    DATA     BYTE      AUXINTIF
      000000FDH   SFRSYM    DATA     BYTE      S4CON
      000000ACH   SFRSYM    DATA     BYTE      S3CON
      0000009AH   SFRSYM    DATA     BYTE      S2CON
      000000B7H   SFRSYM    DATA     BYTE      IPH
      000000CDH   SFRSYM    DATA     BYTE      SPSTAT
      000000DDH   SFRSYM    DATA     BYTE      T4T3M
      000000C1H   SFRSYM    DATA     BYTE      WDT_CONTR
      000000C2H   SFRSYM    DATA     BYTE      IAP_DATA
      000000DFH   SFRSYM    DATA     BYTE      IP3
      000000F4H   SFRSYM    DATA     BYTE      USBCON
      000000B5H   SFRSYM    DATA     BYTE      IP2
      000000FFH   SFRSYM    DATA     BYTE      RSTCFG
L251 LINKER/LOCATER V4.66.93.0                                                        10/07/2025  14:20:36  PAGE 55


      000000C7H   SFRSYM    DATA     BYTE      IAP_CONTR
      0000008EH   SFRSYM    DATA     BYTE      AUXR
      000000AFH   SFRSYM    DATA     BYTE      IE2
      00000088H   SFRSYM    DATA     BYTE      TCON
      00000089H   SFRSYM    DATA     BYTE      TMOD
      00000098H   SFRSYM    DATA     BYTE      SCON
      000000F5H   SFRSYM    DATA     BYTE      IAP_TPS
      00000087H   SFRSYM    DATA     BYTE      PCON
      000000BCH   SFRSYM    DATA     BYTE      ADC_CONTR
      000000D1H   SFRSYM    DATA     BYTE      PSW1
      000000E7H   SFRSYM    DATA     BYTE      CMPCR2
      000000E6H   SFRSYM    DATA     BYTE      CMPCR1
      000000C4H   SFRSYM    DATA     BYTE      IAP_ADDRL
      000000C3H   SFRSYM    DATA     BYTE      IAP_ADDRH
      000000F6H   SFRSYM    DATA     BYTE      IAP_ADDRE
      000000DEH   SFRSYM    DATA     BYTE      ADCCFG
      000000B8H   SFRSYM    DATA     BYTE      IP
      0000008FH   SFRSYM    DATA     BYTE      INTCLKO
      000000EEH   SFRSYM    DATA     BYTE      IP3H
      000000B6H   SFRSYM    DATA     BYTE      IP2H
      000000C5H   SFRSYM    DATA     BYTE      IAP_CMD
      000000BFH   SFRSYM    DATA     BYTE      P_SW4
      000000A8H   SFRSYM    DATA     BYTE      IE
      000000BBH   SFRSYM    DATA     BYTE      P_SW3
      000000BAH   SFRSYM    DATA     BYTE      P_SW2
      000000A2H   SFRSYM    DATA     BYTE      P_SW1
      000000CEH   SFRSYM    DATA     BYTE      SPCTL
      000000F8H   SFRSYM    DATA     BYTE      P7
      000000A8H.7 SFRSYM    DATA     BIT       EA
      000000E8H   SFRSYM    DATA     BYTE      P6
      000000C8H   SFRSYM    DATA     BYTE      P5
      000000C0H   SFRSYM    DATA     BYTE      P4
      000000ABH   SFRSYM    DATA     BYTE      WKTCH
      000000B0H   SFRSYM    DATA     BYTE      P3
      000000A0H   SFRSYM    DATA     BYTE      P2
      00000090H   SFRSYM    DATA     BYTE      P1
      00000080H   SFRSYM    DATA     BYTE      P0
      00FFBEA4H   SYMBOL    HCONST   ---       ?tpl?0001
      R7          REGSYM    ---      BYTE      write_time
      DR0         REGSYM    ---      DWORD     addr
      R11         REGSYM    ---      BYTE      temp
      DR0         REGSYM    ---      DWORD     addr
      R15         REGSYM    ---      BYTE      byte
      REG=3       REGSYM    ---      ---       buf
      REG=3       REGSYM    ---      ---       buf
      DR0         REGSYM    ---      DWORD     addr
      REG=3       REGSYM    ---      ---       buf

      ---         MODULE    ---      ---       zf_driver_encoder
      000000D0H   SFRSYM    DATA     BYTE      PSW
      0000009DH   SFRSYM    DATA     BYTE      IRCBAND
      00000097H   SFRSYM    DATA     BYTE      AUXR2
      000000EFH   SFRSYM    DATA     BYTE      AUXINTIF
      000000FDH   SFRSYM    DATA     BYTE      S4CON
      000000ACH   SFRSYM    DATA     BYTE      S3CON
      0000009AH   SFRSYM    DATA     BYTE      S2CON
      000000B7H   SFRSYM    DATA     BYTE      IPH
      000000CDH   SFRSYM    DATA     BYTE      SPSTAT
      000000DDH   SFRSYM    DATA     BYTE      T4T3M
      000000C1H   SFRSYM    DATA     BYTE      WDT_CONTR
      00000088H.6 SFRSYM    DATA     BIT       TR1
      00000088H.4 SFRSYM    DATA     BIT       TR0
      000000D3H   SFRSYM    DATA     BYTE      T4L
      000000D5H   SFRSYM    DATA     BYTE      T3L
      000000D7H   SFRSYM    DATA     BYTE      T2L
L251 LINKER/LOCATER V4.66.93.0                                                        10/07/2025  14:20:36  PAGE 56


      0000008BH   SFRSYM    DATA     BYTE      TL1
      0000008AH   SFRSYM    DATA     BYTE      TL0
      000000D2H   SFRSYM    DATA     BYTE      T4H
      000000D4H   SFRSYM    DATA     BYTE      T3H
      000000D6H   SFRSYM    DATA     BYTE      T2H
      0000008DH   SFRSYM    DATA     BYTE      TH1
      0000008CH   SFRSYM    DATA     BYTE      TH0
      000000DFH   SFRSYM    DATA     BYTE      IP3
      000000F4H   SFRSYM    DATA     BYTE      USBCON
      000000B5H   SFRSYM    DATA     BYTE      IP2
      000000FFH   SFRSYM    DATA     BYTE      RSTCFG
      000000C7H   SFRSYM    DATA     BYTE      IAP_CONTR
      0000008EH   SFRSYM    DATA     BYTE      AUXR
      000000AFH   SFRSYM    DATA     BYTE      IE2
      00000088H   SFRSYM    DATA     BYTE      TCON
      00000089H   SFRSYM    DATA     BYTE      TMOD
      00000098H   SFRSYM    DATA     BYTE      SCON
      00000087H   SFRSYM    DATA     BYTE      PCON
      000000BCH   SFRSYM    DATA     BYTE      ADC_CONTR
      000000D1H   SFRSYM    DATA     BYTE      PSW1
      000000E7H   SFRSYM    DATA     BYTE      CMPCR2
      000000E6H   SFRSYM    DATA     BYTE      CMPCR1
      000000DEH   SFRSYM    DATA     BYTE      ADCCFG
      000000B8H   SFRSYM    DATA     BYTE      IP
      0000008FH   SFRSYM    DATA     BYTE      INTCLKO
      000000EEH   SFRSYM    DATA     BYTE      IP3H
      000000B6H   SFRSYM    DATA     BYTE      IP2H
      000000BFH   SFRSYM    DATA     BYTE      P_SW4
      000000A8H   SFRSYM    DATA     BYTE      IE
      000000BBH   SFRSYM    DATA     BYTE      P_SW3
      000000BAH   SFRSYM    DATA     BYTE      P_SW2
      000000A2H   SFRSYM    DATA     BYTE      P_SW1
      000000CEH   SFRSYM    DATA     BYTE      SPCTL
      000000F8H   SFRSYM    DATA     BYTE      P7
      000000E8H   SFRSYM    DATA     BYTE      P6
      000000C8H   SFRSYM    DATA     BYTE      P5
      000000C0H   SFRSYM    DATA     BYTE      P4
      000000ABH   SFRSYM    DATA     BYTE      WKTCH
      000000B0H   SFRSYM    DATA     BYTE      P3
      000000A0H   SFRSYM    DATA     BYTE      P2
      00000090H   SFRSYM    DATA     BYTE      P1
      00000080H   SFRSYM    DATA     BYTE      P0
      00010D75H   SYMBOL    XDATA    ---       encoder_dir_pin
      WR2         REGSYM    ---      INT       encoder_n
      WR14        REGSYM    ---      INT       dat
      WR6         REGSYM    ---      INT       encoder_n
      WR14        REGSYM    ---      INT       encoder_n
      WR12        REGSYM    ---      INT       dir_pin

      ---         MODULE    ---      ---       zf_driver_exti
      000000D0H   SFRSYM    DATA     BYTE      PSW
      0000009DH   SFRSYM    DATA     BYTE      IRCBAND
      00000097H   SFRSYM    DATA     BYTE      AUXR2
      000000EFH   SFRSYM    DATA     BYTE      AUXINTIF
      000000FDH   SFRSYM    DATA     BYTE      S4CON
      000000ACH   SFRSYM    DATA     BYTE      S3CON
      0000009AH   SFRSYM    DATA     BYTE      S2CON
      000000B7H   SFRSYM    DATA     BYTE      IPH
      000000CDH   SFRSYM    DATA     BYTE      SPSTAT
      000000DDH   SFRSYM    DATA     BYTE      T4T3M
      000000C1H   SFRSYM    DATA     BYTE      WDT_CONTR
      000000DFH   SFRSYM    DATA     BYTE      IP3
      000000F4H   SFRSYM    DATA     BYTE      USBCON
      000000B5H   SFRSYM    DATA     BYTE      IP2
      000000FFH   SFRSYM    DATA     BYTE      RSTCFG
L251 LINKER/LOCATER V4.66.93.0                                                        10/07/2025  14:20:36  PAGE 57


      000000C7H   SFRSYM    DATA     BYTE      IAP_CONTR
      0000008EH   SFRSYM    DATA     BYTE      AUXR
      000000AFH   SFRSYM    DATA     BYTE      IE2
      00000088H   SFRSYM    DATA     BYTE      TCON
      00000089H   SFRSYM    DATA     BYTE      TMOD
      00000098H   SFRSYM    DATA     BYTE      SCON
      00000087H   SFRSYM    DATA     BYTE      PCON
      000000BCH   SFRSYM    DATA     BYTE      ADC_CONTR
      000000D1H   SFRSYM    DATA     BYTE      PSW1
      000000E7H   SFRSYM    DATA     BYTE      CMPCR2
      000000E6H   SFRSYM    DATA     BYTE      CMPCR1
      000000DEH   SFRSYM    DATA     BYTE      ADCCFG
      000000B8H   SFRSYM    DATA     BYTE      IP
      0000008FH   SFRSYM    DATA     BYTE      INTCLKO
      000000EEH   SFRSYM    DATA     BYTE      IP3H
      000000B6H   SFRSYM    DATA     BYTE      IP2H
      000000BFH   SFRSYM    DATA     BYTE      P_SW4
      000000A8H   SFRSYM    DATA     BYTE      IE
      000000BBH   SFRSYM    DATA     BYTE      P_SW3
      000000BAH   SFRSYM    DATA     BYTE      P_SW2
      000000A2H   SFRSYM    DATA     BYTE      P_SW1
      000000CEH   SFRSYM    DATA     BYTE      SPCTL
      000000F8H   SFRSYM    DATA     BYTE      P7
      000000E8H   SFRSYM    DATA     BYTE      P6
      000000C8H   SFRSYM    DATA     BYTE      P5
      000000C0H   SFRSYM    DATA     BYTE      P4
      000000ABH   SFRSYM    DATA     BYTE      WKTCH
      000000B0H   SFRSYM    DATA     BYTE      P3
      000000A0H   SFRSYM    DATA     BYTE      P2
      00000090H   SFRSYM    DATA     BYTE      P1
      00000080H   SFRSYM    DATA     BYTE      P0

      ---         MODULE    ---      ---       zf_driver_gpio
      00FF9509H   PUBLIC    CODE     ---       gpio_init
      00FF00C6H   PUBLIC    CODE     ---       gpio_get_level
      00FF7163H   PUBLIC    CODE     ---       gpio_set_level_speed
      00FF7F46H   PUBLIC    CODE     ---       gpio_set_level
      00FF836DH   PUBLIC    CODE     ---       gpio_set_impedance
      00000094H   SFRSYM    DATA     BYTE      P0M0
      000000D0H   SFRSYM    DATA     BYTE      PSW
      0000009DH   SFRSYM    DATA     BYTE      IRCBAND
      00000097H   SFRSYM    DATA     BYTE      AUXR2
      000000EFH   SFRSYM    DATA     BYTE      AUXINTIF
      000000FDH   SFRSYM    DATA     BYTE      S4CON
      000000ACH   SFRSYM    DATA     BYTE      S3CON
      0000009AH   SFRSYM    DATA     BYTE      S2CON
      000000B7H   SFRSYM    DATA     BYTE      IPH
      000000CDH   SFRSYM    DATA     BYTE      SPSTAT
      000000DDH   SFRSYM    DATA     BYTE      T4T3M
      000000C1H   SFRSYM    DATA     BYTE      WDT_CONTR
      000000DFH   SFRSYM    DATA     BYTE      IP3
      000000F4H   SFRSYM    DATA     BYTE      USBCON
      000000B5H   SFRSYM    DATA     BYTE      IP2
      000000FFH   SFRSYM    DATA     BYTE      RSTCFG
      000000C7H   SFRSYM    DATA     BYTE      IAP_CONTR
      0000008EH   SFRSYM    DATA     BYTE      AUXR
      000000AFH   SFRSYM    DATA     BYTE      IE2
      00000088H   SFRSYM    DATA     BYTE      TCON
      00000089H   SFRSYM    DATA     BYTE      TMOD
      00000098H   SFRSYM    DATA     BYTE      SCON
      00000087H   SFRSYM    DATA     BYTE      PCON
      000000BCH   SFRSYM    DATA     BYTE      ADC_CONTR
      000000D1H   SFRSYM    DATA     BYTE      PSW1
      000000E7H   SFRSYM    DATA     BYTE      CMPCR2
      000000E6H   SFRSYM    DATA     BYTE      CMPCR1
L251 LINKER/LOCATER V4.66.93.0                                                        10/07/2025  14:20:36  PAGE 58


      000000DEH   SFRSYM    DATA     BYTE      ADCCFG
      000000B8H   SFRSYM    DATA     BYTE      IP
      0000008FH   SFRSYM    DATA     BYTE      INTCLKO
      000000EEH   SFRSYM    DATA     BYTE      IP3H
      000000B6H   SFRSYM    DATA     BYTE      IP2H
      000000BFH   SFRSYM    DATA     BYTE      P_SW4
      000000A8H   SFRSYM    DATA     BYTE      IE
      000000BBH   SFRSYM    DATA     BYTE      P_SW3
      000000BAH   SFRSYM    DATA     BYTE      P_SW2
      000000A2H   SFRSYM    DATA     BYTE      P_SW1
      000000CEH   SFRSYM    DATA     BYTE      SPCTL
      000000F8H   SFRSYM    DATA     BYTE      P7
      000000E8H   SFRSYM    DATA     BYTE      P6
      000000C8H   SFRSYM    DATA     BYTE      P5
      000000C0H   SFRSYM    DATA     BYTE      P4
      000000C9H   SFRSYM    DATA     BYTE      P5M1
      000000ABH   SFRSYM    DATA     BYTE      WKTCH
      000000B0H   SFRSYM    DATA     BYTE      P3
      000000B3H   SFRSYM    DATA     BYTE      P4M1
      000000CAH   SFRSYM    DATA     BYTE      P5M0
      000000A0H   SFRSYM    DATA     BYTE      P2
      000000B1H   SFRSYM    DATA     BYTE      P3M1
      000000B4H   SFRSYM    DATA     BYTE      P4M0
      00000090H   SFRSYM    DATA     BYTE      P1
      00000095H   SFRSYM    DATA     BYTE      P2M1
      000000B2H   SFRSYM    DATA     BYTE      P3M0
      00000080H   SFRSYM    DATA     BYTE      P0
      00000091H   SFRSYM    DATA     BYTE      P1M1
      00000096H   SFRSYM    DATA     BYTE      P2M0
      00000092H   SFRSYM    DATA     BYTE      P1M0
      00000093H   SFRSYM    DATA     BYTE      P0M1
      00FF67EEH   SYMBOL    CODE     ---       gpio_set_dir
      00FF7651H   SYMBOL    CODE     ---       gpio_set_mode

      00FF7651H   BLOCK     CODE     ---       LVL=0
      WR4         REGSYM    ---      INT       pin
      WR8         REGSYM    ---      INT       mode
      00FF7651H   LINE      CODE     ---       #45
      00FF7655H   LINE      CODE     ---       #51
      00FF7661H   LINE      CODE     ---       #53
      00FF7690H   LINE      CODE     ---       #54
      00FF76BFH   LINE      CODE     ---       #55
      00FF76C2H   LINE      CODE     ---       #56
      00FF76C8H   LINE      CODE     ---       #58
      00FF76F5H   LINE      CODE     ---       #59
      00FF76F8H   LINE      CODE     ---       #60
      00FF7704H   LINE      CODE     ---       #62
      00FF7731H   LINE      CODE     ---       #63
      00FF7734H   LINE      CODE     ---       #64
      00FF773DH   LINE      CODE     ---       #66
      00FF7773H   LINE      CODE     ---       #68
      00FF7773H   LINE      CODE     ---       #70
      00FF7786H   LINE      CODE     ---       #71
      00FF7799H   LINE      CODE     ---       #73
      00FF779CH   LINE      CODE     ---       #75
      00FF779CH   LINE      CODE     ---       #77
      00FF77AFH   LINE      CODE     ---       #78
      00FF77C2H   LINE      CODE     ---       #80
      00FF77C5H   LINE      CODE     ---       #82
      00FF77C5H   LINE      CODE     ---       #84
      00FF77D8H   LINE      CODE     ---       #85
      00FF77EBH   LINE      CODE     ---       #87
      00FF77EEH   LINE      CODE     ---       #89
      00FF77EEH   LINE      CODE     ---       #91
      00FF7801H   LINE      CODE     ---       #92
L251 LINKER/LOCATER V4.66.93.0                                                        10/07/2025  14:20:36  PAGE 59


      00FF7814H   LINE      CODE     ---       #94
      00FF7816H   LINE      CODE     ---       #96
      00FF7816H   LINE      CODE     ---       #98
      00FF7829H   LINE      CODE     ---       #99
      00FF783CH   LINE      CODE     ---       #101
      00FF783EH   LINE      CODE     ---       #103
      00FF783EH   LINE      CODE     ---       #105
      00FF7851H   LINE      CODE     ---       #106
      00FF7864H   LINE      CODE     ---       #108
      00FF7866H   LINE      CODE     ---       #109
      00FF7866H   LINE      CODE     ---       #112
      00FF7866H   LINE      CODE     ---       #113
      00FF7866H   LINE      CODE     ---       #114
      00FF7866H   LINE      CODE     ---       #117
      00FF7876H   LINE      CODE     ---       #119
      00FF7876H   LINE      CODE     ---       #120
      ---         BLOCKEND  ---      ---       LVL=0

      00FF7163H   BLOCK     CODE     ---       LVL=0
      WR14        REGSYM    ---      INT       pin
      WR12        REGSYM    ---      INT       speed
      00FF7163H   LINE      CODE     ---       #123
      00FF7169H   LINE      CODE     ---       #125
      00FF71A3H   LINE      CODE     ---       #127
      00FF71A3H   LINE      CODE     ---       #129
      00FF71A7H   LINE      CODE     ---       #131
      00FF71CAH   LINE      CODE     ---       #132
      00FF71CDH   LINE      CODE     ---       #133
      00FF71D3H   LINE      CODE     ---       #135
      00FF71F4H   LINE      CODE     ---       #136
      00FF71F7H   LINE      CODE     ---       #139
      00FF7207H   LINE      CODE     ---       #141
      00FF7207H   LINE      CODE     ---       #143
      00FF720AH   LINE      CODE     ---       #145
      00FF720AH   LINE      CODE     ---       #147
      00FF720EH   LINE      CODE     ---       #149
      00FF7231H   LINE      CODE     ---       #150
      00FF7234H   LINE      CODE     ---       #151
      00FF723AH   LINE      CODE     ---       #153
      00FF725BH   LINE      CODE     ---       #154
      00FF725EH   LINE      CODE     ---       #157
      00FF726EH   LINE      CODE     ---       #159
      00FF726EH   LINE      CODE     ---       #161
      00FF7271H   LINE      CODE     ---       #163
      00FF7271H   LINE      CODE     ---       #165
      00FF7275H   LINE      CODE     ---       #167
      00FF7298H   LINE      CODE     ---       #168
      00FF729BH   LINE      CODE     ---       #169
      00FF72A1H   LINE      CODE     ---       #171
      00FF72C2H   LINE      CODE     ---       #172
      00FF72C5H   LINE      CODE     ---       #175
      00FF72D5H   LINE      CODE     ---       #177
      00FF72D5H   LINE      CODE     ---       #179
      00FF72D8H   LINE      CODE     ---       #181
      00FF72D8H   LINE      CODE     ---       #183
      00FF72DCH   LINE      CODE     ---       #185
      00FF72FFH   LINE      CODE     ---       #186
      00FF7302H   LINE      CODE     ---       #187
      00FF7308H   LINE      CODE     ---       #189
      00FF7329H   LINE      CODE     ---       #190
      00FF732CH   LINE      CODE     ---       #193
      00FF733CH   LINE      CODE     ---       #195
      00FF733CH   LINE      CODE     ---       #197
      00FF733FH   LINE      CODE     ---       #199
      00FF733FH   LINE      CODE     ---       #201
L251 LINKER/LOCATER V4.66.93.0                                                        10/07/2025  14:20:36  PAGE 60


      00FF7343H   LINE      CODE     ---       #203
      00FF7366H   LINE      CODE     ---       #204
      00FF7369H   LINE      CODE     ---       #205
      00FF736FH   LINE      CODE     ---       #207
      00FF7390H   LINE      CODE     ---       #208
      00FF7393H   LINE      CODE     ---       #211
      00FF73A3H   LINE      CODE     ---       #213
      00FF73A3H   LINE      CODE     ---       #215
      00FF73A5H   LINE      CODE     ---       #217
      00FF73A5H   LINE      CODE     ---       #219
      00FF73A9H   LINE      CODE     ---       #221
      00FF73CCH   LINE      CODE     ---       #222
      00FF73CEH   LINE      CODE     ---       #223
      00FF73D4H   LINE      CODE     ---       #225
      00FF73F5H   LINE      CODE     ---       #226
      00FF73F7H   LINE      CODE     ---       #229
      00FF7407H   LINE      CODE     ---       #231
      00FF7407H   LINE      CODE     ---       #233
      00FF7409H   LINE      CODE     ---       #235
      00FF7409H   LINE      CODE     ---       #237
      00FF7419H   LINE      CODE     ---       #239
      00FF7419H   LINE      CODE     ---       #240
      00FF7419H   LINE      CODE     ---       #241
      ---         BLOCKEND  ---      ---       LVL=0

      00FF67EEH   BLOCK     CODE     ---       LVL=0
      WR4         REGSYM    ---      INT       pin
      WR2         REGSYM    ---      INT       dir
      00FF67EEH   LINE      CODE     ---       #245
      00FF67F2H   LINE      CODE     ---       #247
      00FF682CH   LINE      CODE     ---       #249
      00FF682CH   LINE      CODE     ---       #251
      00FF6832H   LINE      CODE     ---       #253
      00FF6847H   LINE      CODE     ---       #254
      00FF685CH   LINE      CODE     ---       #255
      00FF685FH   LINE      CODE     ---       #261
      00FF6865H   LINE      CODE     ---       #263
      00FF687AH   LINE      CODE     ---       #264
      00FF688DH   LINE      CODE     ---       #265
      00FF6890H   LINE      CODE     ---       #266
      00FF6897H   LINE      CODE     ---       #268
      00FF68AAH   LINE      CODE     ---       #269
      00FF68BFH   LINE      CODE     ---       #270
      00FF68BFH   LINE      CODE     ---       #272
      00FF68C2H   LINE      CODE     ---       #274
      00FF68C2H   LINE      CODE     ---       #276
      00FF68C8H   LINE      CODE     ---       #278
      00FF68DDH   LINE      CODE     ---       #279
      00FF68F2H   LINE      CODE     ---       #280
      00FF68F5H   LINE      CODE     ---       #286
      00FF68FBH   LINE      CODE     ---       #288
      00FF6910H   LINE      CODE     ---       #289
      00FF6923H   LINE      CODE     ---       #290
      00FF6926H   LINE      CODE     ---       #291
      00FF692DH   LINE      CODE     ---       #293
      00FF6940H   LINE      CODE     ---       #294
      00FF6955H   LINE      CODE     ---       #295
      00FF6955H   LINE      CODE     ---       #297
      00FF6958H   LINE      CODE     ---       #299
      00FF6958H   LINE      CODE     ---       #301
      00FF695EH   LINE      CODE     ---       #303
      00FF6973H   LINE      CODE     ---       #304
      00FF6988H   LINE      CODE     ---       #305
      00FF698BH   LINE      CODE     ---       #311
      00FF6991H   LINE      CODE     ---       #313
L251 LINKER/LOCATER V4.66.93.0                                                        10/07/2025  14:20:36  PAGE 61


      00FF69A6H   LINE      CODE     ---       #314
      00FF69B9H   LINE      CODE     ---       #315
      00FF69BCH   LINE      CODE     ---       #316
      00FF69C3H   LINE      CODE     ---       #318
      00FF69D6H   LINE      CODE     ---       #319
      00FF69EBH   LINE      CODE     ---       #320
      00FF69EBH   LINE      CODE     ---       #322
      00FF69EEH   LINE      CODE     ---       #324
      00FF69EEH   LINE      CODE     ---       #326
      00FF69F4H   LINE      CODE     ---       #328
      00FF6A09H   LINE      CODE     ---       #329
      00FF6A1EH   LINE      CODE     ---       #330
      00FF6A21H   LINE      CODE     ---       #336
      00FF6A27H   LINE      CODE     ---       #338
      00FF6A3CH   LINE      CODE     ---       #339
      00FF6A4FH   LINE      CODE     ---       #340
      00FF6A52H   LINE      CODE     ---       #341
      00FF6A59H   LINE      CODE     ---       #343
      00FF6A6CH   LINE      CODE     ---       #344
      00FF6A81H   LINE      CODE     ---       #345
      00FF6A81H   LINE      CODE     ---       #347
      00FF6A84H   LINE      CODE     ---       #349
      00FF6A84H   LINE      CODE     ---       #351
      00FF6A8AH   LINE      CODE     ---       #353
      00FF6A9FH   LINE      CODE     ---       #354
      00FF6AB4H   LINE      CODE     ---       #355
      00FF6AB7H   LINE      CODE     ---       #361
      00FF6ABDH   LINE      CODE     ---       #363
      00FF6AD2H   LINE      CODE     ---       #364
      00FF6AE5H   LINE      CODE     ---       #365
      00FF6AE8H   LINE      CODE     ---       #366
      00FF6AEFH   LINE      CODE     ---       #368
      00FF6B02H   LINE      CODE     ---       #369
      00FF6B17H   LINE      CODE     ---       #370
      00FF6B17H   LINE      CODE     ---       #372
      00FF6B1AH   LINE      CODE     ---       #374
      00FF6B1AH   LINE      CODE     ---       #376
      00FF6B20H   LINE      CODE     ---       #378
      00FF6B35H   LINE      CODE     ---       #379
      00FF6B4AH   LINE      CODE     ---       #380
      00FF6B4CH   LINE      CODE     ---       #386
      00FF6B52H   LINE      CODE     ---       #388
      00FF6B67H   LINE      CODE     ---       #389
      00FF6B7AH   LINE      CODE     ---       #390
      00FF6B7CH   LINE      CODE     ---       #391
      00FF6B80H   LINE      CODE     ---       #393
      00FF6B93H   LINE      CODE     ---       #394
      00FF6BA8H   LINE      CODE     ---       #395
      00FF6BA8H   LINE      CODE     ---       #397
      00FF6BAAH   LINE      CODE     ---       #399
      00FF6BAAH   LINE      CODE     ---       #401
      00FF6BBAH   LINE      CODE     ---       #403
      00FF6BBAH   LINE      CODE     ---       #404
      00FF6BBAH   LINE      CODE     ---       #405
      ---         BLOCKEND  ---      ---       LVL=0

      00FF00C6H   BLOCK     CODE     ---       LVL=0
      WR4         REGSYM    ---      INT       pin
      00FF00CAH   BLOCK     CODE     NEAR LAB  LVL=1
      R15         REGSYM    ---      BYTE      status
      ---         BLOCKEND  ---      ---       LVL=1
      00FF00C6H   LINE      CODE     ---       #413
      00FF00CAH   LINE      CODE     ---       #414
      00FF00CAH   LINE      CODE     ---       #415
      00FF00CCH   LINE      CODE     ---       #417
L251 LINKER/LOCATER V4.66.93.0                                                        10/07/2025  14:20:36  PAGE 62


      00FF00F9H   LINE      CODE     ---       #419
      00FF00F9H   LINE      CODE     ---       #421
      00FF010DH   LINE      CODE     ---       #423
      00FF010FH   LINE      CODE     ---       #425
      00FF010FH   LINE      CODE     ---       #427
      00FF0123H   LINE      CODE     ---       #429
      00FF0125H   LINE      CODE     ---       #431
      00FF0125H   LINE      CODE     ---       #433
      00FF0139H   LINE      CODE     ---       #435
      00FF013BH   LINE      CODE     ---       #437
      00FF013BH   LINE      CODE     ---       #439
      00FF014FH   LINE      CODE     ---       #441
      00FF0151H   LINE      CODE     ---       #443
      00FF0151H   LINE      CODE     ---       #445
      00FF0165H   LINE      CODE     ---       #447
      00FF0167H   LINE      CODE     ---       #449
      00FF0167H   LINE      CODE     ---       #451
      00FF017BH   LINE      CODE     ---       #453
      00FF017DH   LINE      CODE     ---       #455
      00FF017DH   LINE      CODE     ---       #457
      00FF018DH   LINE      CODE     ---       #459
      00FF018DH   LINE      CODE     ---       #460
      00FF018DH   LINE      CODE     ---       #462
      00FF0196H   LINE      CODE     ---       #463
      ---         BLOCKEND  ---      ---       LVL=0

      00FF7F46H   BLOCK     CODE     ---       LVL=0
      WR4         REGSYM    ---      INT       pin
      R10         REGSYM    ---      BYTE      dat
      00FF7F46H   LINE      CODE     ---       #472
      00FF7F4AH   LINE      CODE     ---       #474
      00FF7F81H   LINE      CODE     ---       #476
      00FF7F81H   LINE      CODE     ---       #478
      00FF7F85H   LINE      CODE     ---       #480
      00FF7F98H   LINE      CODE     ---       #481
      00FF7F9BH   LINE      CODE     ---       #484
      00FF7FB0H   LINE      CODE     ---       #485
      00FF7FB0H   LINE      CODE     ---       #487
      00FF7FB3H   LINE      CODE     ---       #489
      00FF7FB3H   LINE      CODE     ---       #491
      00FF7FB7H   LINE      CODE     ---       #493
      00FF7FCAH   LINE      CODE     ---       #494
      00FF7FCDH   LINE      CODE     ---       #497
      00FF7FE2H   LINE      CODE     ---       #498
      00FF7FE2H   LINE      CODE     ---       #500
      00FF7FE5H   LINE      CODE     ---       #502
      00FF7FE5H   LINE      CODE     ---       #504
      00FF7FE9H   LINE      CODE     ---       #506
      00FF7FFCH   LINE      CODE     ---       #507
      00FF7FFFH   LINE      CODE     ---       #510
      00FF8014H   LINE      CODE     ---       #511
      00FF8014H   LINE      CODE     ---       #513
      00FF8017H   LINE      CODE     ---       #515
      00FF8017H   LINE      CODE     ---       #517
      00FF801BH   LINE      CODE     ---       #519
      00FF802EH   LINE      CODE     ---       #520
      00FF8031H   LINE      CODE     ---       #523
      00FF8046H   LINE      CODE     ---       #524
      00FF8046H   LINE      CODE     ---       #526
      00FF8048H   LINE      CODE     ---       #528
      00FF8048H   LINE      CODE     ---       #530
      00FF804CH   LINE      CODE     ---       #532
      00FF805FH   LINE      CODE     ---       #533
      00FF8061H   LINE      CODE     ---       #536
      00FF8076H   LINE      CODE     ---       #537
L251 LINKER/LOCATER V4.66.93.0                                                        10/07/2025  14:20:36  PAGE 63


      00FF8076H   LINE      CODE     ---       #539
      00FF8078H   LINE      CODE     ---       #541
      00FF8078H   LINE      CODE     ---       #543
      00FF807CH   LINE      CODE     ---       #545
      00FF808FH   LINE      CODE     ---       #546
      00FF8091H   LINE      CODE     ---       #549
      00FF80A6H   LINE      CODE     ---       #550
      00FF80A6H   LINE      CODE     ---       #552
      00FF80A8H   LINE      CODE     ---       #554
      00FF80A8H   LINE      CODE     ---       #556
      00FF80B8H   LINE      CODE     ---       #558
      00FF80B8H   LINE      CODE     ---       #559
      00FF80B8H   LINE      CODE     ---       #560
      ---         BLOCKEND  ---      ---       LVL=0
      WR14        REGSYM    ---      INT       pin

      00FF836DH   BLOCK     CODE     ---       LVL=0
      WR4         REGSYM    ---      INT       pin
      00FF836DH   LINE      CODE     ---       #587
      00FF836FH   LINE      CODE     ---       #589
      00FF83A3H   LINE      CODE     ---       #591
      00FF83A3H   LINE      CODE     ---       #593
      00FF83B6H   LINE      CODE     ---       #594
      00FF83CBH   LINE      CODE     ---       #596
      00FF83CEH   LINE      CODE     ---       #598
      00FF83CEH   LINE      CODE     ---       #600
      00FF83E1H   LINE      CODE     ---       #601
      00FF83F6H   LINE      CODE     ---       #603
      00FF83F9H   LINE      CODE     ---       #605
      00FF83F9H   LINE      CODE     ---       #607
      00FF840CH   LINE      CODE     ---       #608
      00FF8421H   LINE      CODE     ---       #610
      00FF8424H   LINE      CODE     ---       #612
      00FF8424H   LINE      CODE     ---       #614
      00FF8437H   LINE      CODE     ---       #615
      00FF844CH   LINE      CODE     ---       #617
      00FF844EH   LINE      CODE     ---       #619
      00FF844EH   LINE      CODE     ---       #621
      00FF8461H   LINE      CODE     ---       #622
      00FF8476H   LINE      CODE     ---       #624
      00FF8478H   LINE      CODE     ---       #626
      00FF8478H   LINE      CODE     ---       #628
      00FF848BH   LINE      CODE     ---       #629
      00FF84A0H   LINE      CODE     ---       #631
      00FF84A2H   LINE      CODE     ---       #633
      00FF84A2H   LINE      CODE     ---       #635
      00FF84B2H   LINE      CODE     ---       #637
      00FF84B2H   LINE      CODE     ---       #638
      00FF84B2H   LINE      CODE     ---       #639
      ---         BLOCKEND  ---      ---       LVL=0

      00FF9509H   BLOCK     CODE     ---       LVL=0
      WR14        REGSYM    ---      INT       pin
      00010A6FH   SYMBOL    XDATA    INT       dir
      00010A71H   SYMBOL    XDATA    BYTE      dat
      WR12        REGSYM    ---      INT       mode
      00FF9509H   LINE      CODE     ---       #650
      00FF9519H   LINE      CODE     ---       #652
      00FF9541H   LINE      CODE     ---       #654
      00FF954DH   LINE      CODE     ---       #656
      00FF9556H   LINE      CODE     ---       #657
      00FF955DH   LINE      CODE     ---       #658
      00FF955FH   LINE      CODE     ---       #659
      00FF9569H   LINE      CODE     ---       #661
      00FF956DH   LINE      CODE     ---       #663
L251 LINKER/LOCATER V4.66.93.0                                                        10/07/2025  14:20:36  PAGE 64


      00FF9572H   LINE      CODE     ---       #664
      00FF9574H   LINE      CODE     ---       #667
      00FF957BH   LINE      CODE     ---       #668
      00FF9582H   LINE      CODE     ---       #669
      00FF9582H   LINE      CODE     ---       #670
      00FF9584H   LINE      CODE     ---       #671
      00FF9590H   LINE      CODE     ---       #673
      00FF9596H   LINE      CODE     ---       #675
      00FF959FH   LINE      CODE     ---       #676
      00FF95A8H   LINE      CODE     ---       #677
      00FF95AAH   LINE      CODE     ---       #678
      00FF95B0H   LINE      CODE     ---       #680
      00FF95B9H   LINE      CODE     ---       #681
      00FF95B9H   LINE      CODE     ---       #683
      00FF95C2H   LINE      CODE     ---       #684
      ---         BLOCKEND  ---      ---       LVL=0

      ---         MODULE    ---      ---       zf_driver_pit
      00FF7877H   PUBLIC    CODE     ---       pit_init
      000000D0H   SFRSYM    DATA     BYTE      PSW
      0000009DH   SFRSYM    DATA     BYTE      IRCBAND
      00000097H   SFRSYM    DATA     BYTE      AUXR2
      000000EFH   SFRSYM    DATA     BYTE      AUXINTIF
      000000FDH   SFRSYM    DATA     BYTE      S4CON
      000000ACH   SFRSYM    DATA     BYTE      S3CON
      0000009AH   SFRSYM    DATA     BYTE      S2CON
      000000B7H   SFRSYM    DATA     BYTE      IPH
      000000CDH   SFRSYM    DATA     BYTE      SPSTAT
      000000DDH   SFRSYM    DATA     BYTE      T4T3M
      000000C1H   SFRSYM    DATA     BYTE      WDT_CONTR
      00000088H.6 SFRSYM    DATA     BIT       TR1
      00000088H.4 SFRSYM    DATA     BIT       TR0
      000000D3H   SFRSYM    DATA     BYTE      T4L
      000000D5H   SFRSYM    DATA     BYTE      T3L
      000000D7H   SFRSYM    DATA     BYTE      T2L
      0000008BH   SFRSYM    DATA     BYTE      TL1
      0000008AH   SFRSYM    DATA     BYTE      TL0
      000000D2H   SFRSYM    DATA     BYTE      T4H
      000000D4H   SFRSYM    DATA     BYTE      T3H
      000000D6H   SFRSYM    DATA     BYTE      T2H
      0000008DH   SFRSYM    DATA     BYTE      TH1
      0000008CH   SFRSYM    DATA     BYTE      TH0
      000000DFH   SFRSYM    DATA     BYTE      IP3
      000000F4H   SFRSYM    DATA     BYTE      USBCON
      000000B5H   SFRSYM    DATA     BYTE      IP2
      000000FFH   SFRSYM    DATA     BYTE      RSTCFG
      000000A8H.3 SFRSYM    DATA     BIT       ET1
      000000A8H.1 SFRSYM    DATA     BIT       ET0
      000000C7H   SFRSYM    DATA     BYTE      IAP_CONTR
      0000008EH   SFRSYM    DATA     BYTE      AUXR
      000000AFH   SFRSYM    DATA     BYTE      IE2
      00000088H   SFRSYM    DATA     BYTE      TCON
      00000089H   SFRSYM    DATA     BYTE      TMOD
      00000098H   SFRSYM    DATA     BYTE      SCON
      00000087H   SFRSYM    DATA     BYTE      PCON
      000000BCH   SFRSYM    DATA     BYTE      ADC_CONTR
      000000D1H   SFRSYM    DATA     BYTE      PSW1
      000000E7H   SFRSYM    DATA     BYTE      CMPCR2
      000000E6H   SFRSYM    DATA     BYTE      CMPCR1
      000000DEH   SFRSYM    DATA     BYTE      ADCCFG
      000000B8H   SFRSYM    DATA     BYTE      IP
      0000008FH   SFRSYM    DATA     BYTE      INTCLKO
      000000EEH   SFRSYM    DATA     BYTE      IP3H
      000000B6H   SFRSYM    DATA     BYTE      IP2H
      000000BFH   SFRSYM    DATA     BYTE      P_SW4
L251 LINKER/LOCATER V4.66.93.0                                                        10/07/2025  14:20:36  PAGE 65


      000000A8H   SFRSYM    DATA     BYTE      IE
      000000BBH   SFRSYM    DATA     BYTE      P_SW3
      000000BAH   SFRSYM    DATA     BYTE      P_SW2
      000000A2H   SFRSYM    DATA     BYTE      P_SW1
      000000CEH   SFRSYM    DATA     BYTE      SPCTL
      000000F8H   SFRSYM    DATA     BYTE      P7
      000000E8H   SFRSYM    DATA     BYTE      P6
      000000C8H   SFRSYM    DATA     BYTE      P5
      000000C0H   SFRSYM    DATA     BYTE      P4
      000000ABH   SFRSYM    DATA     BYTE      WKTCH
      000000B0H   SFRSYM    DATA     BYTE      P3
      000000A0H   SFRSYM    DATA     BYTE      P2
      00000090H   SFRSYM    DATA     BYTE      P1
      00000080H   SFRSYM    DATA     BYTE      P0

      00FF7877H   BLOCK     CODE     ---       LVL=0
      WR30        REGSYM    ---      INT       pit_n
      DR24        REGSYM    ---      DWORD     period
      00FF787DH   BLOCK     CODE     NEAR LAB  LVL=1
      R15         REGSYM    ---      BYTE      freq_div
      WR22        REGSYM    ---      WORD      period_temp
      WR28        REGSYM    ---      WORD      temp
      ---         BLOCKEND  ---      ---       LVL=1
      00FF7877H   LINE      CODE     ---       #50
      00FF787DH   LINE      CODE     ---       #51
      00FF787DH   LINE      CODE     ---       #52
      00FF787FH   LINE      CODE     ---       #53
      00FF7881H   LINE      CODE     ---       #54
      00FF7883H   LINE      CODE     ---       #57
      00FF788FH   LINE      CODE     ---       #60
      00FF789AH   LINE      CODE     ---       #62
      00FF789EH   LINE      CODE     ---       #64
      00FF78A1H   LINE      CODE     ---       #65
      00FF78A4H   LINE      CODE     ---       #66
      00FF78AAH   LINE      CODE     ---       #68
      00FF78ADH   LINE      CODE     ---       #69
      00FF78B0H   LINE      CODE     ---       #70
      00FF78B6H   LINE      CODE     ---       #72
      00FF78B9H   LINE      CODE     ---       #73
      00FF78BBH   LINE      CODE     ---       #74
      00FF78C1H   LINE      CODE     ---       #76
      00FF78C4H   LINE      CODE     ---       #77
      00FF78C6H   LINE      CODE     ---       #78
      00FF78CCH   LINE      CODE     ---       #80
      00FF78CFH   LINE      CODE     ---       #81
      00FF78D1H   LINE      CODE     ---       #82
      00FF78D7H   LINE      CODE     ---       #84
      00FF78E7H   LINE      CODE     ---       #85
      00FF78E9H   LINE      CODE     ---       #91
      00FF78EDH   LINE      CODE     ---       #93
      00FF78F0H   LINE      CODE     ---       #94
      00FF78F2H   LINE      CODE     ---       #95
      00FF78F8H   LINE      CODE     ---       #97
      00FF78FBH   LINE      CODE     ---       #98
      00FF78FDH   LINE      CODE     ---       #99
      00FF7903H   LINE      CODE     ---       #101
      00FF7906H   LINE      CODE     ---       #102
      00FF7908H   LINE      CODE     ---       #103
      00FF790EH   LINE      CODE     ---       #105
      00FF7911H   LINE      CODE     ---       #106
      00FF7913H   LINE      CODE     ---       #107
      00FF7919H   LINE      CODE     ---       #109
      00FF791CH   LINE      CODE     ---       #110
      00FF791EH   LINE      CODE     ---       #111
      00FF7924H   LINE      CODE     ---       #113
L251 LINKER/LOCATER V4.66.93.0                                                        10/07/2025  14:20:36  PAGE 66


      00FF7934H   LINE      CODE     ---       #114
      00FF7934H   LINE      CODE     ---       #118
      00FF7944H   LINE      CODE     ---       #119
      00FF7951H   LINE      CODE     ---       #121
      00FF7955H   LINE      CODE     ---       #123
      00FF7959H   LINE      CODE     ---       #125
      00FF7964H   LINE      CODE     ---       #126
      00FF7968H   LINE      CODE     ---       #127
      00FF796EH   LINE      CODE     ---       #128
      00FF7974H   LINE      CODE     ---       #129
      00FF7976H   LINE      CODE     ---       #130
      00FF7978H   LINE      CODE     ---       #131
      00FF797BH   LINE      CODE     ---       #132
      00FF7981H   LINE      CODE     ---       #134
      00FF798CH   LINE      CODE     ---       #135
      00FF7990H   LINE      CODE     ---       #136
      00FF7996H   LINE      CODE     ---       #137
      00FF799CH   LINE      CODE     ---       #138
      00FF799EH   LINE      CODE     ---       #139
      00FF79A0H   LINE      CODE     ---       #140
      00FF79A3H   LINE      CODE     ---       #141
      00FF79A9H   LINE      CODE     ---       #143
      00FF79B4H   LINE      CODE     ---       #144
      00FF79BAH   LINE      CODE     ---       #145
      00FF79C0H   LINE      CODE     ---       #146
      00FF79C3H   LINE      CODE     ---       #147
      00FF79C6H   LINE      CODE     ---       #148
      00FF79C9H   LINE      CODE     ---       #149
      00FF79CFH   LINE      CODE     ---       #151
      00FF79DAH   LINE      CODE     ---       #152
      00FF79E0H   LINE      CODE     ---       #153
      00FF79E6H   LINE      CODE     ---       #154
      00FF79E9H   LINE      CODE     ---       #155
      00FF79ECH   LINE      CODE     ---       #156
      00FF79EEH   LINE      CODE     ---       #157
      00FF79F4H   LINE      CODE     ---       #159
      00FF79FFH   LINE      CODE     ---       #160
      00FF7A05H   LINE      CODE     ---       #161
      00FF7A0BH   LINE      CODE     ---       #162
      00FF7A0EH   LINE      CODE     ---       #163
      00FF7A11H   LINE      CODE     ---       #164
      00FF7A13H   LINE      CODE     ---       #165
      00FF7A19H   LINE      CODE     ---       #167
      00FF7A24H   LINE      CODE     ---       #168
      00FF7A33H   LINE      CODE     ---       #169
      00FF7A42H   LINE      CODE     ---       #170
      00FF7A4FH   LINE      CODE     ---       #172
      ---         BLOCKEND  ---      ---       LVL=0

      ---         MODULE    ---      ---       zf_driver_pwm
      00FFC5A4H   PUBLIC    HCONST   ---       PWM_PSCR_ADDR
      00FFC5ACH   PUBLIC    HCONST   ---       PWM_CCR_ADDR
      00FFC5CCH   PUBLIC    HCONST   ---       PWM_ARR_ADDR
      00FFC5D4H   PUBLIC    HCONST   ---       PWM_CCER_ADDR
      00FFC5E4H   PUBLIC    HCONST   ---       PWM_CCMR_ADDR
      00FF7DB6H   PUBLIC    CODE     ---       pwm_set_duty
      00FF5A3CH   PUBLIC    CODE     ---       pwm_init
      00010A5DH   PUBLIC    XDATA    BYTE      ?pwm_init?BYTE
      000000D0H   SFRSYM    DATA     BYTE      PSW
      0000009DH   SFRSYM    DATA     BYTE      IRCBAND
      00000097H   SFRSYM    DATA     BYTE      AUXR2
      000000EFH   SFRSYM    DATA     BYTE      AUXINTIF
      000000FDH   SFRSYM    DATA     BYTE      S4CON
      000000ACH   SFRSYM    DATA     BYTE      S3CON
      0000009AH   SFRSYM    DATA     BYTE      S2CON
L251 LINKER/LOCATER V4.66.93.0                                                        10/07/2025  14:20:36  PAGE 67


      000000B7H   SFRSYM    DATA     BYTE      IPH
      000000CDH   SFRSYM    DATA     BYTE      SPSTAT
      000000DDH   SFRSYM    DATA     BYTE      T4T3M
      000000C1H   SFRSYM    DATA     BYTE      WDT_CONTR
      000000DFH   SFRSYM    DATA     BYTE      IP3
      000000F4H   SFRSYM    DATA     BYTE      USBCON
      000000B5H   SFRSYM    DATA     BYTE      IP2
      000000FFH   SFRSYM    DATA     BYTE      RSTCFG
      000000C7H   SFRSYM    DATA     BYTE      IAP_CONTR
      0000008EH   SFRSYM    DATA     BYTE      AUXR
      000000AFH   SFRSYM    DATA     BYTE      IE2
      00000088H   SFRSYM    DATA     BYTE      TCON
      00000089H   SFRSYM    DATA     BYTE      TMOD
      00000098H   SFRSYM    DATA     BYTE      SCON
      00000087H   SFRSYM    DATA     BYTE      PCON
      000000BCH   SFRSYM    DATA     BYTE      ADC_CONTR
      000000D1H   SFRSYM    DATA     BYTE      PSW1
      000000E7H   SFRSYM    DATA     BYTE      CMPCR2
      000000E6H   SFRSYM    DATA     BYTE      CMPCR1
      000000DEH   SFRSYM    DATA     BYTE      ADCCFG
      000000B8H   SFRSYM    DATA     BYTE      IP
      0000008FH   SFRSYM    DATA     BYTE      INTCLKO
      000000EEH   SFRSYM    DATA     BYTE      IP3H
      000000B6H   SFRSYM    DATA     BYTE      IP2H
      000000BFH   SFRSYM    DATA     BYTE      P_SW4
      000000A8H   SFRSYM    DATA     BYTE      IE
      000000BBH   SFRSYM    DATA     BYTE      P_SW3
      000000BAH   SFRSYM    DATA     BYTE      P_SW2
      000000A2H   SFRSYM    DATA     BYTE      P_SW1
      000000CEH   SFRSYM    DATA     BYTE      SPCTL
      000000F8H   SFRSYM    DATA     BYTE      P7
      000000E8H   SFRSYM    DATA     BYTE      P6
      000000C8H   SFRSYM    DATA     BYTE      P5
      000000C0H   SFRSYM    DATA     BYTE      P4
      000000ABH   SFRSYM    DATA     BYTE      WKTCH
      000000B0H   SFRSYM    DATA     BYTE      P3
      000000A0H   SFRSYM    DATA     BYTE      P2
      00000090H   SFRSYM    DATA     BYTE      P1
      00000080H   SFRSYM    DATA     BYTE      P0
      WR14        REGSYM    ---      INT       pin
      WR12        REGSYM    ---      WORD      freq_div

      00FF7DB6H   BLOCK     CODE     ---       LVL=0
      WR14        REGSYM    ---      INT       pin
      00010A5FH   SYMBOL    XDATA    DWORD     duty
      00FF7DC4H   BLOCK     CODE     NEAR LAB  LVL=1
      00010A63H   SYMBOL    XDATA    DWORD     match_temp
      00010A67H   SYMBOL    XDATA    DWORD     arr
      ---         BLOCKEND  ---      ---       LVL=1
      00FF7DB6H   LINE      CODE     ---       #132
      00FF7DC4H   LINE      CODE     ---       #133
      00FF7DC4H   LINE      CODE     ---       #135
      00FF7E22H   LINE      CODE     ---       #138
      00FF7E46H   LINE      CODE     ---       #140
      00FF7E56H   LINE      CODE     ---       #142
      00FF7E8FH   LINE      CODE     ---       #143
      00FF7E91H   LINE      CODE     ---       #146
      00FF7EA7H   LINE      CODE     ---       #147
      00FF7EA7H   LINE      CODE     ---       #150
      00FF7EF5H   LINE      CODE     ---       #151
      00FF7F43H   LINE      CODE     ---       #153
      ---         BLOCKEND  ---      ---       LVL=0

      00FF5A3CH   BLOCK     CODE     ---       LVL=0
      WR14        REGSYM    ---      INT       pin
L251 LINKER/LOCATER V4.66.93.0                                                        10/07/2025  14:20:36  PAGE 68


      00010A5FH   SYMBOL    XDATA    DWORD     freq
      00010A63H   SYMBOL    XDATA    DWORD     duty
      00FF5A4AH   BLOCK     CODE     NEAR LAB  LVL=1
      00010A67H   SYMBOL    XDATA    WORD      match_temp
      00010A69H   SYMBOL    XDATA    DWORD     period_temp
      WR12        REGSYM    ---      WORD      freq_div
      ---         BLOCKEND  ---      ---       LVL=1
      00FF5A3CH   LINE      CODE     ---       #164
      00FF5A4AH   LINE      CODE     ---       #165
      00FF5A4AH   LINE      CODE     ---       #167
      00FF5A52H   LINE      CODE     ---       #168
      00FF5A5EH   LINE      CODE     ---       #169
      00FF5A60H   LINE      CODE     ---       #172
      00FF5A84H   LINE      CODE     ---       #174
      00FF5A96H   LINE      CODE     ---       #178
      00FF5AB3H   LINE      CODE     ---       #179
      00FF5AD4H   LINE      CODE     ---       #180
      00FF5AF1H   LINE      CODE     ---       #182
      00FF5B01H   LINE      CODE     ---       #184
      00FF5B36H   LINE      CODE     ---       #185
      00FF5B38H   LINE      CODE     ---       #188
      00FF5B4AH   LINE      CODE     ---       #189
      00FF5B4AH   LINE      CODE     ---       #191
      00FF5B74H   LINE      CODE     ---       #192
      00FF5B9EH   LINE      CODE     ---       #194
      00FF5BD0H   LINE      CODE     ---       #195
      00FF5C02H   LINE      CODE     ---       #197
      00FF5C4EH   LINE      CODE     ---       #198
      00FF5C98H   LINE      CODE     ---       #200
      00FF5CA7H   LINE      CODE     ---       #202
      00FF5CE6H   LINE      CODE     ---       #203
      00FF5D1BH   LINE      CODE     ---       #204
      00FF5D95H   LINE      CODE     ---       #206
      00FF5DA2H   LINE      CODE     ---       #207
      00FF5DAFH   LINE      CODE     ---       #208
      00FF5DB2H   LINE      CODE     ---       #209
      00FF5DC5H   LINE      CODE     ---       #211
      00FF5E04H   LINE      CODE     ---       #212
      00FF5E39H   LINE      CODE     ---       #213
      00FF5EA1H   LINE      CODE     ---       #215
      00FF5EAEH   LINE      CODE     ---       #216
      00FF5EBBH   LINE      CODE     ---       #217
      00FF5EBBH   LINE      CODE     ---       #219
      00FF5F02H   LINE      CODE     ---       #220
      00FF5F49H   LINE      CODE     ---       #221
      ---         BLOCKEND  ---      ---       LVL=0

      ---         MODULE    ---      ---       zf_driver_soft_iic
      00FFA129H   PUBLIC    CODE     ---       soft_iic_wait_ack
      00FFA43CH   PUBLIC    CODE     ---       soft_iic_stop
      00FFAB69H   PUBLIC    CODE     ---       soft_iic_delay
      00FF973BH   PUBLIC    CODE     ---       soft_iic_read_data
      00FF9C57H   PUBLIC    CODE     ---       soft_iic_send_data
      00FFA5B4H   PUBLIC    CODE     ---       soft_iic_start
      00FFA28FH   PUBLIC    CODE     ---       soft_iic_send_ack
      000000D0H   SFRSYM    DATA     BYTE      PSW
      0000009DH   SFRSYM    DATA     BYTE      IRCBAND
      00000097H   SFRSYM    DATA     BYTE      AUXR2
      000000EFH   SFRSYM    DATA     BYTE      AUXINTIF
      000000FDH   SFRSYM    DATA     BYTE      S4CON
      000000ACH   SFRSYM    DATA     BYTE      S3CON
      0000009AH   SFRSYM    DATA     BYTE      S2CON
      000000B7H   SFRSYM    DATA     BYTE      IPH
      000000CDH   SFRSYM    DATA     BYTE      SPSTAT
      000000DDH   SFRSYM    DATA     BYTE      T4T3M
L251 LINKER/LOCATER V4.66.93.0                                                        10/07/2025  14:20:36  PAGE 69


      000000C1H   SFRSYM    DATA     BYTE      WDT_CONTR
      000000DFH   SFRSYM    DATA     BYTE      IP3
      000000F4H   SFRSYM    DATA     BYTE      USBCON
      000000B5H   SFRSYM    DATA     BYTE      IP2
      000000FFH   SFRSYM    DATA     BYTE      RSTCFG
      000000C7H   SFRSYM    DATA     BYTE      IAP_CONTR
      0000008EH   SFRSYM    DATA     BYTE      AUXR
      000000AFH   SFRSYM    DATA     BYTE      IE2
      00000088H   SFRSYM    DATA     BYTE      TCON
      00000089H   SFRSYM    DATA     BYTE      TMOD
      00000098H   SFRSYM    DATA     BYTE      SCON
      00000087H   SFRSYM    DATA     BYTE      PCON
      000000BCH   SFRSYM    DATA     BYTE      ADC_CONTR
      000000D1H   SFRSYM    DATA     BYTE      PSW1
      000000E7H   SFRSYM    DATA     BYTE      CMPCR2
      000000E6H   SFRSYM    DATA     BYTE      CMPCR1
      000000DEH   SFRSYM    DATA     BYTE      ADCCFG
      000000B8H   SFRSYM    DATA     BYTE      IP
      0000008FH   SFRSYM    DATA     BYTE      INTCLKO
      000000EEH   SFRSYM    DATA     BYTE      IP3H
      000000B6H   SFRSYM    DATA     BYTE      IP2H
      000000BFH   SFRSYM    DATA     BYTE      P_SW4
      000000A8H   SFRSYM    DATA     BYTE      IE
      000000BBH   SFRSYM    DATA     BYTE      P_SW3
      000000BAH   SFRSYM    DATA     BYTE      P_SW2
      000000A2H   SFRSYM    DATA     BYTE      P_SW1
      000000CEH   SFRSYM    DATA     BYTE      SPCTL
      000000F8H   SFRSYM    DATA     BYTE      P7
      000000E8H   SFRSYM    DATA     BYTE      P6
      000000C8H   SFRSYM    DATA     BYTE      P5
      000000C0H   SFRSYM    DATA     BYTE      P4
      000000ABH   SFRSYM    DATA     BYTE      WKTCH
      000000B0H   SFRSYM    DATA     BYTE      P3
      000000A0H   SFRSYM    DATA     BYTE      P2
      00000090H   SFRSYM    DATA     BYTE      P1
      00000080H   SFRSYM    DATA     BYTE      P0

      00FFAB69H   BLOCK     CODE     ---       LVL=0
      00010D4DH   SYMBOL    XDATA    DWORD     delay
      00FFAB73H   BLOCK     CODE     NEAR LAB  LVL=1
      00010D51H   SYMBOL    XDATA    DWORD     count
      ---         BLOCKEND  ---      ---       LVL=1
      00FFAB69H   LINE      CODE     ---       #53
      00FFAB73H   LINE      CODE     ---       #54
      00FFAB73H   LINE      CODE     ---       #55
      00FFAB87H   LINE      CODE     ---       #56
      00FFABA0H   LINE      CODE     ---       #57
      ---         BLOCKEND  ---      ---       LVL=0

      00FFA5B4H   BLOCK     CODE     ---       LVL=0
      REG=3       REGSYM    ---      ---       soft_iic_obj
      00FFA5B4H   LINE      CODE     ---       #67
      00FFA5B8H   LINE      CODE     ---       #69
      00FFA5D2H   LINE      CODE     ---       #70
      00FFA5DAH   LINE      CODE     ---       #71
      00FFA5E3H   LINE      CODE     ---       #73
      00FFA5EEH   LINE      CODE     ---       #74
      00FFA5F6H   LINE      CODE     ---       #75
      00FFA601H   LINE      CODE     ---       #76
      00FFA608H   LINE      CODE     ---       #77
      ---         BLOCKEND  ---      ---       LVL=0

      00FFA43CH   BLOCK     CODE     ---       LVL=0
      REG=3       REGSYM    ---      ---       soft_iic_obj
      00FFA43CH   LINE      CODE     ---       #86
L251 LINKER/LOCATER V4.66.93.0                                                        10/07/2025  14:20:36  PAGE 70


      00FFA440H   LINE      CODE     ---       #88
      00FFA45AH   LINE      CODE     ---       #89
      00FFA462H   LINE      CODE     ---       #90
      00FFA469H   LINE      CODE     ---       #92
      00FFA474H   LINE      CODE     ---       #93
      00FFA47CH   LINE      CODE     ---       #94
      00FFA487H   LINE      CODE     ---       #95
      00FFA490H   LINE      CODE     ---       #96
      00FFA49BH   LINE      CODE     ---       #97
      ---         BLOCKEND  ---      ---       LVL=0

      00FFA28FH   BLOCK     CODE     ---       LVL=0
      REG=3       REGSYM    ---      ---       soft_iic_obj
      00010D8DH   SYMBOL    XDATA    BYTE      ack
      00FFA28FH   LINE      CODE     ---       #107
      00FFA297H   LINE      CODE     ---       #109
      00FFA2B1H   LINE      CODE     ---       #110
      00FFA2B8H   LINE      CODE     ---       #112
      00FFA2BEH   LINE      CODE     ---       #114
      00FFA2C7H   LINE      CODE     ---       #115
      00FFA2C9H   LINE      CODE     ---       #118
      00FFA2D1H   LINE      CODE     ---       #119
      00FFA2D1H   LINE      CODE     ---       #121
      00FFA2DCH   LINE      CODE     ---       #122
      00FFA2E4H   LINE      CODE     ---       #123
      00FFA2EFH   LINE      CODE     ---       #124
      00FFA2F6H   LINE      CODE     ---       #125
      00FFA2FFH   LINE      CODE     ---       #126
      ---         BLOCKEND  ---      ---       LVL=0

      00FFA129H   BLOCK     CODE     ---       LVL=0
      REG=3       REGSYM    ---      ---       soft_iic_obj
      00FFA12DH   BLOCK     CODE     NEAR LAB  LVL=1
      00010D8EH   SYMBOL    XDATA    BYTE      temp
      ---         BLOCKEND  ---      ---       LVL=1
      00FFA129H   LINE      CODE     ---       #135
      00FFA12DH   LINE      CODE     ---       #136
      00FFA12DH   LINE      CODE     ---       #137
      00FFA132H   LINE      CODE     ---       #138
      00FFA14CH   LINE      CODE     ---       #140
      00FFA153H   LINE      CODE     ---       #141
      00FFA15CH   LINE      CODE     ---       #145
      00FFA167H   LINE      CODE     ---       #147
      00FFA16FH   LINE      CODE     ---       #148
      00FFA17AH   LINE      CODE     ---       #150
      00FFA183H   LINE      CODE     ---       #152
      00FFA189H   LINE      CODE     ---       #153
      00FFA189H   LINE      CODE     ---       #154
      00FFA190H   LINE      CODE     ---       #158
      00FFA19BH   LINE      CODE     ---       #160
      00FFA19FH   LINE      CODE     ---       #161
      ---         BLOCKEND  ---      ---       LVL=0

      00FF9C57H   BLOCK     CODE     ---       LVL=0
      REG=3       REGSYM    ---      ---       soft_iic_obj
      00010D8AH   SYMBOL    XDATA    BYTE      dat
      00FF9C5FH   BLOCK     CODE     NEAR LAB  LVL=1
      00010D8BH   SYMBOL    XDATA    BYTE      temp
      ---         BLOCKEND  ---      ---       LVL=1
      00FF9C57H   LINE      CODE     ---       #170
      00FF9C5FH   LINE      CODE     ---       #171
      00FF9C5FH   LINE      CODE     ---       #172
      00FF9C65H   LINE      CODE     ---       #174
      00FF9C7FH   LINE      CODE     ---       #176
      00FF9C81H   LINE      CODE     ---       #179
L251 LINKER/LOCATER V4.66.93.0                                                        10/07/2025  14:20:36  PAGE 71


      00FF9CA6H   LINE      CODE     ---       #180
      00FF9CADH   LINE      CODE     ---       #182
      00FF9CB8H   LINE      CODE     ---       #183
      00FF9CC0H   LINE      CODE     ---       #184
      00FF9CCBH   LINE      CODE     ---       #185
      00FF9CD2H   LINE      CODE     ---       #186
      00FF9CD8H   LINE      CODE     ---       #187
      00FF9CE5H   LINE      CODE     ---       #188
      ---         BLOCKEND  ---      ---       LVL=0

      00FF973BH   BLOCK     CODE     ---       LVL=0
      REG=3       REGSYM    ---      ---       soft_iic_obj
      00010D87H   SYMBOL    XDATA    BYTE      ack
      00FF9743H   BLOCK     CODE     NEAR LAB  LVL=1
      00010D88H   SYMBOL    XDATA    BYTE      dat
      00010D89H   SYMBOL    XDATA    BYTE      temp
      ---         BLOCKEND  ---      ---       LVL=1
      00FF973BH   LINE      CODE     ---       #197
      00FF9743H   LINE      CODE     ---       #198
      00FF9743H   LINE      CODE     ---       #199
      00FF9748H   LINE      CODE     ---       #200
      00FF974EH   LINE      CODE     ---       #201
      00FF9768H   LINE      CODE     ---       #202
      00FF976FH   LINE      CODE     ---       #203
      00FF977AH   LINE      CODE     ---       #204
      00FF9783H   LINE      CODE     ---       #209
      00FF9785H   LINE      CODE     ---       #211
      00FF978CH   LINE      CODE     ---       #212
      00FF9797H   LINE      CODE     ---       #213
      00FF979FH   LINE      CODE     ---       #214
      00FF97AAH   LINE      CODE     ---       #215
      00FF97BFH   LINE      CODE     ---       #216
      00FF97CDH   LINE      CODE     ---       #217
      00FF97D4H   LINE      CODE     ---       #221
      00FF97DFH   LINE      CODE     ---       #222
      00FF97E8H   LINE      CODE     ---       #223
      00FF97ECH   LINE      CODE     ---       #224
      ---         BLOCKEND  ---      ---       LVL=0
      REG=3       REGSYM    ---      ---       soft_iic_obj
      REG=3       REGSYM    ---      ---       soft_iic_obj
      REG=3       REGSYM    ---      ---       soft_iic_obj
      REG=3       REGSYM    ---      ---       soft_iic_obj
      REG=3       REGSYM    ---      ---       soft_iic_obj
      REG=3       REGSYM    ---      ---       soft_iic_obj
      REG=3       REGSYM    ---      ---       soft_iic_obj
      REG=3       REGSYM    ---      ---       soft_iic_obj
      REG=3       REGSYM    ---      ---       soft_iic_obj
      REG=3       REGSYM    ---      ---       soft_iic_obj
      REG=3       REGSYM    ---      ---       soft_iic_obj
      REG=3       REGSYM    ---      ---       soft_iic_obj
      REG=3       REGSYM    ---      ---       soft_iic_obj
      REG=3       REGSYM    ---      ---       soft_iic_obj
      REG=3       REGSYM    ---      ---       soft_iic_obj
      REG=3       REGSYM    ---      ---       soft_iic_obj
      REG=3       REGSYM    ---      ---       soft_iic_obj
      REG=3       REGSYM    ---      ---       soft_iic_obj
      REG=3       REGSYM    ---      ---       soft_iic_obj
      REG=3       REGSYM    ---      ---       soft_iic_obj
      REG=3       REGSYM    ---      ---       soft_iic_obj

      ---         MODULE    ---      ---       zf_driver_soft_spi
      000000D0H   SFRSYM    DATA     BYTE      PSW
      0000009DH   SFRSYM    DATA     BYTE      IRCBAND
      00000097H   SFRSYM    DATA     BYTE      AUXR2
      000000EFH   SFRSYM    DATA     BYTE      AUXINTIF
L251 LINKER/LOCATER V4.66.93.0                                                        10/07/2025  14:20:36  PAGE 72


      000000FDH   SFRSYM    DATA     BYTE      S4CON
      000000ACH   SFRSYM    DATA     BYTE      S3CON
      0000009AH   SFRSYM    DATA     BYTE      S2CON
      000000B7H   SFRSYM    DATA     BYTE      IPH
      000000CDH   SFRSYM    DATA     BYTE      SPSTAT
      000000DDH   SFRSYM    DATA     BYTE      T4T3M
      000000C1H   SFRSYM    DATA     BYTE      WDT_CONTR
      000000DFH   SFRSYM    DATA     BYTE      IP3
      000000F4H   SFRSYM    DATA     BYTE      USBCON
      000000B5H   SFRSYM    DATA     BYTE      IP2
      000000FFH   SFRSYM    DATA     BYTE      RSTCFG
      000000C7H   SFRSYM    DATA     BYTE      IAP_CONTR
      0000008EH   SFRSYM    DATA     BYTE      AUXR
      000000AFH   SFRSYM    DATA     BYTE      IE2
      00000088H   SFRSYM    DATA     BYTE      TCON
      00000089H   SFRSYM    DATA     BYTE      TMOD
      00000098H   SFRSYM    DATA     BYTE      SCON
      00000087H   SFRSYM    DATA     BYTE      PCON
      000000BCH   SFRSYM    DATA     BYTE      ADC_CONTR
      000000D1H   SFRSYM    DATA     BYTE      PSW1
      000000E7H   SFRSYM    DATA     BYTE      CMPCR2
      000000E6H   SFRSYM    DATA     BYTE      CMPCR1
      000000DEH   SFRSYM    DATA     BYTE      ADCCFG
      000000B8H   SFRSYM    DATA     BYTE      IP
      0000008FH   SFRSYM    DATA     BYTE      INTCLKO
      000000EEH   SFRSYM    DATA     BYTE      IP3H
      000000B6H   SFRSYM    DATA     BYTE      IP2H
      000000BFH   SFRSYM    DATA     BYTE      P_SW4
      000000A8H   SFRSYM    DATA     BYTE      IE
      000000BBH   SFRSYM    DATA     BYTE      P_SW3
      000000BAH   SFRSYM    DATA     BYTE      P_SW2
      000000A2H   SFRSYM    DATA     BYTE      P_SW1
      000000CEH   SFRSYM    DATA     BYTE      SPCTL
      000000F8H   SFRSYM    DATA     BYTE      P7
      000000E8H   SFRSYM    DATA     BYTE      P6
      000000C8H   SFRSYM    DATA     BYTE      P5
      000000C0H   SFRSYM    DATA     BYTE      P4
      000000ABH   SFRSYM    DATA     BYTE      WKTCH
      000000B0H   SFRSYM    DATA     BYTE      P3
      000000A0H   SFRSYM    DATA     BYTE      P2
      00000090H   SFRSYM    DATA     BYTE      P1
      00000080H   SFRSYM    DATA     BYTE      P0
      DR0         REGSYM    ---      DWORD     x
      REG=3       REGSYM    ---      ---       soft_spi_obj
      R10         REGSYM    ---      BYTE      dat
      REG=3       REGSYM    ---      ---       soft_spi_obj
      WR6         REGSYM    ---      WORD      dat
      REG=3       REGSYM    ---      ---       soft_spi_obj
      REG=3       REGSYM    ---      ---       soft_spi_obj
      REG=3       REGSYM    ---      ---       soft_spi_obj
      REG=3       REGSYM    ---      ---       soft_spi_obj
      REG=3       REGSYM    ---      ---       soft_spi_obj
      REG=3       REGSYM    ---      ---       soft_spi_obj
      REG=3       REGSYM    ---      ---       soft_spi_obj
      REG=3       REGSYM    ---      ---       soft_spi_obj
      REG=3       REGSYM    ---      ---       soft_spi_obj
      REG=3       REGSYM    ---      ---       soft_spi_obj
      REG=3       REGSYM    ---      ---       soft_spi_obj
      REG=3       REGSYM    ---      ---       soft_spi_obj
      REG=3       REGSYM    ---      ---       soft_spi_obj
      REG=3       REGSYM    ---      ---       soft_spi_obj
      REG=3       REGSYM    ---      ---       soft_spi_obj
      REG=3       REGSYM    ---      ---       soft_spi_obj
      REG=3       REGSYM    ---      ---       soft_spi_obj
      REG=3       REGSYM    ---      ---       soft_spi_obj
L251 LINKER/LOCATER V4.66.93.0                                                        10/07/2025  14:20:36  PAGE 73


      REG=3       REGSYM    ---      ---       soft_spi_obj

      ---         MODULE    ---      ---       zf_driver_spi
      00FF0003H   PUBLIC    CODE     ---       spi_write_8bit
      00FF5F4CH   PUBLIC    CODE     ---       spi_init
      00FFAD09H   PUBLIC    CODE     ---       spi_write_16bit
      00FFA8FEH   PUBLIC    CODE     ---       spi_write_dat
      00010A5BH   PUBLIC    XDATA    BYTE      ?spi_init?BYTE
      000000CFH   SFRSYM    DATA     BYTE      SPDAT
      000000D0H   SFRSYM    DATA     BYTE      PSW
      0000009DH   SFRSYM    DATA     BYTE      IRCBAND
      00000097H   SFRSYM    DATA     BYTE      AUXR2
      000000EFH   SFRSYM    DATA     BYTE      AUXINTIF
      000000FDH   SFRSYM    DATA     BYTE      S4CON
      000000ACH   SFRSYM    DATA     BYTE      S3CON
      0000009AH   SFRSYM    DATA     BYTE      S2CON
      0000009BH   SFRSYM    DATA     BYTE      S2BUF
      000000B7H   SFRSYM    DATA     BYTE      IPH
      000000CDH   SFRSYM    DATA     BYTE      SPSTAT
      000000DDH   SFRSYM    DATA     BYTE      T4T3M
      000000C1H   SFRSYM    DATA     BYTE      WDT_CONTR
      000000DFH   SFRSYM    DATA     BYTE      IP3
      000000F4H   SFRSYM    DATA     BYTE      USBCON
      000000B5H   SFRSYM    DATA     BYTE      IP2
      000000FFH   SFRSYM    DATA     BYTE      RSTCFG
      000000C7H   SFRSYM    DATA     BYTE      IAP_CONTR
      0000008EH   SFRSYM    DATA     BYTE      AUXR
      000000AFH   SFRSYM    DATA     BYTE      IE2
      00000088H   SFRSYM    DATA     BYTE      TCON
      00000089H   SFRSYM    DATA     BYTE      TMOD
      00000098H   SFRSYM    DATA     BYTE      SCON
      00000087H   SFRSYM    DATA     BYTE      PCON
      00000099H   SFRSYM    DATA     BYTE      SBUF
      000000BCH   SFRSYM    DATA     BYTE      ADC_CONTR
      000000D1H   SFRSYM    DATA     BYTE      PSW1
      000000E7H   SFRSYM    DATA     BYTE      CMPCR2
      000000E6H   SFRSYM    DATA     BYTE      CMPCR1
      0000009AH.1 SFRSYM    DATA     BIT       S2TI
      00000098H.1 SFRSYM    DATA     BIT       TI
      000000DEH   SFRSYM    DATA     BYTE      ADCCFG
      000000B8H   SFRSYM    DATA     BYTE      IP
      0000008FH   SFRSYM    DATA     BYTE      INTCLKO
      000000EEH   SFRSYM    DATA     BYTE      IP3H
      000000B6H   SFRSYM    DATA     BYTE      IP2H
      000000BFH   SFRSYM    DATA     BYTE      P_SW4
      000000A8H   SFRSYM    DATA     BYTE      IE
      000000BBH   SFRSYM    DATA     BYTE      P_SW3
      000000BAH   SFRSYM    DATA     BYTE      P_SW2
      000000A2H   SFRSYM    DATA     BYTE      P_SW1
      000000CEH   SFRSYM    DATA     BYTE      SPCTL
      000000F8H   SFRSYM    DATA     BYTE      P7
      000000E8H   SFRSYM    DATA     BYTE      P6
      000000C8H   SFRSYM    DATA     BYTE      P5
      000000C0H   SFRSYM    DATA     BYTE      P4
      000000ABH   SFRSYM    DATA     BYTE      WKTCH
      000000B0H   SFRSYM    DATA     BYTE      P3
      000000A0H   SFRSYM    DATA     BYTE      P2
      00000090H   SFRSYM    DATA     BYTE      P1
      00000080H   SFRSYM    DATA     BYTE      P0

      00FFA8FEH   BLOCK     CODE     ---       LVL=0
      WR6         REGSYM    ---      INT       spi_n
      R10         REGSYM    ---      BYTE      dat
      00FFA8FEH   LINE      CODE     ---       #81
      00FFA900H   LINE      CODE     ---       #83
L251 LINKER/LOCATER V4.66.93.0                                                        10/07/2025  14:20:36  PAGE 74


      00FFA90CH   LINE      CODE     ---       #85
      00FFA90CH   LINE      CODE     ---       #86
      00FFA90FH   LINE      CODE     ---       #87
      00FFA912H   LINE      CODE     ---       #88
      00FFA917H   LINE      CODE     ---       #89
      00FFA919H   LINE      CODE     ---       #90
      00FFA919H   LINE      CODE     ---       #91
      00FFA91BH   LINE      CODE     ---       #92
      00FFA91EH   LINE      CODE     ---       #93
      00FFA921H   LINE      CODE     ---       #94
      00FFA923H   LINE      CODE     ---       #95
      00FFA923H   LINE      CODE     ---       #96
      00FFA926H   LINE      CODE     ---       #97
      00FFA929H   LINE      CODE     ---       #98
      00FFA92DH   LINE      CODE     ---       #99
      00FFA92FH   LINE      CODE     ---       #100
      00FFA92FH   LINE      CODE     ---       #101
      00FFA93FH   LINE      CODE     ---       #102
      00FFA93FH   LINE      CODE     ---       #103
      00FFA93FH   LINE      CODE     ---       #104
      ---         BLOCKEND  ---      ---       LVL=0
      WR8         REGSYM    ---      INT       spi_n
      R10         REGSYM    ---      BYTE      dat
      R15         REGSYM    ---      BYTE      ret

      00FF0003H   BLOCK     CODE     ---       LVL=0
      WR6         REGSYM    ---      INT       spi_n
      R5          REGSYM    ---      BYTE      dat
      00FF0003H   LINE      CODE     ---       #147
      00FF0005H   LINE      CODE     ---       #149
      00FF0008H   LINE      CODE     ---       #150
      ---         BLOCKEND  ---      ---       LVL=0
      REG=3       REGSYM    ---      ---       dat

      00FFAD09H   BLOCK     CODE     ---       LVL=0
      WR12        REGSYM    ---      INT       spi_n
      WR14        REGSYM    ---      WORD      dat
      00FFAD09H   LINE      CODE     ---       #175
      00FFAD0FH   LINE      CODE     ---       #177
      00FFAD1BH   LINE      CODE     ---       #178
      00FFAD25H   LINE      CODE     ---       #179
      ---         BLOCKEND  ---      ---       LVL=0
      REG=3       REGSYM    ---      ---       dat
      WR14        REGSYM    ---      INT       spi_n
      R5          REGSYM    ---      BYTE      register_name
      R13         REGSYM    ---      BYTE      dat
      R5          REGSYM    ---      BYTE      register_name
      REG=3       REGSYM    ---      ---       dat
      WR14        REGSYM    ---      INT       spi_n
      WR12        REGSYM    ---      WORD      dat
      WR14        REGSYM    ---      INT       spi_n
      WR12        REGSYM    ---      WORD      register_name
      WR6         REGSYM    ---      INT       spi_n
      REG=3       REGSYM    ---      ---       dat
      WR14        REGSYM    ---      INT       spi_n
      WR12        REGSYM    ---      WORD      dat
      REG=3       REGSYM    ---      ---       dat
      WR14        REGSYM    ---      INT       spi_n
      R5          REGSYM    ---      BYTE      register_name
      R5          REGSYM    ---      BYTE      register_name
      REG=3       REGSYM    ---      ---       dat
      WR14        REGSYM    ---      INT       spi_n
      WR12        REGSYM    ---      WORD      register_name
      REG=3       REGSYM    ---      ---       dat
      REG=3       REGSYM    ---      ---       write_buffer
L251 LINKER/LOCATER V4.66.93.0                                                        10/07/2025  14:20:36  PAGE 75


      REG=3       REGSYM    ---      ---       write_buffer

      00FF5F4CH   BLOCK     CODE     ---       LVL=0
      00010A5FH   SYMBOL    XDATA    INT       spi_n
      00010A61H   SYMBOL    XDATA    INT       mode
      DR12        REGSYM    ---      DWORD     baud
      00010A63H   SYMBOL    XDATA    INT       sck_pin
      00010A65H   SYMBOL    XDATA    INT       mosi_pin
      00010A67H   SYMBOL    XDATA    INT       miso_pin
      00010A69H   SYMBOL    XDATA    INT       cs_pin
      00FF5F5CH   BLOCK     CODE     NEAR LAB  LVL=1
      00010A6BH   SYMBOL    XDATA    DWORD     spi_psc
      ---         BLOCKEND  ---      ---       LVL=1
      00FF5F4CH   LINE      CODE     ---       #465
      00FF5F5CH   LINE      CODE     ---       #466
      00FF5F5CH   LINE      CODE     ---       #467
      00FF5F68H   LINE      CODE     ---       #469
      00FF5F7EH   LINE      CODE     ---       #471
      00FF5F8EH   LINE      CODE     ---       #473
      00FF5F8EH   LINE      CODE     ---       #475
      00FF5FA4H   LINE      CODE     ---       #476
      00FF5FBAH   LINE      CODE     ---       #478
      00FF5FC6H   LINE      CODE     ---       #480
      00FF5FDCH   LINE      CODE     ---       #481
      00FF5FDCH   LINE      CODE     ---       #483
      00FF5FE8H   LINE      CODE     ---       #485
      00FF5FFDH   LINE      CODE     ---       #486
      00FF5FFDH   LINE      CODE     ---       #489
      00FF6003H   LINE      CODE     ---       #491
      00FF6011H   LINE      CODE     ---       #492
      00FF601FH   LINE      CODE     ---       #493
      00FF602BH   LINE      CODE     ---       #495
      00FF6039H   LINE      CODE     ---       #496
      00FF6039H   LINE      CODE     ---       #497
      00FF6045H   LINE      CODE     ---       #499
      00FF6053H   LINE      CODE     ---       #500
      00FF6053H   LINE      CODE     ---       #503
      00FF6060H   LINE      CODE     ---       #505
      00FF6063H   LINE      CODE     ---       #507
      00FF6081H   LINE      CODE     ---       #509
      00FF6081H   LINE      CODE     ---       #510
      00FF6085H   LINE      CODE     ---       #511
      00FF6087H   LINE      CODE     ---       #513
      00FF6087H   LINE      CODE     ---       #514
      00FF608AH   LINE      CODE     ---       #515
      00FF608CH   LINE      CODE     ---       #517
      00FF608CH   LINE      CODE     ---       #518
      00FF608FH   LINE      CODE     ---       #519
      00FF6091H   LINE      CODE     ---       #521
      00FF6091H   LINE      CODE     ---       #522
      00FF6094H   LINE      CODE     ---       #523
      00FF6094H   LINE      CODE     ---       #524
      00FF6094H   LINE      CODE     ---       #526
      00FF6097H   LINE      CODE     ---       #527
      00FF609AH   LINE      CODE     ---       #528
      00FF609DH   LINE      CODE     ---       #531
      00FF60B6H   LINE      CODE     ---       #533
      00FF60B9H   LINE      CODE     ---       #535
      00FF60C9H   LINE      CODE     ---       #537
      00FF60CCH   LINE      CODE     ---       #538
      00FF60CEH   LINE      CODE     ---       #539
      00FF60DEH   LINE      CODE     ---       #541
      00FF60E1H   LINE      CODE     ---       #542
      00FF60E3H   LINE      CODE     ---       #543
      00FF60F3H   LINE      CODE     ---       #545
L251 LINKER/LOCATER V4.66.93.0                                                        10/07/2025  14:20:36  PAGE 76


      00FF60F7H   LINE      CODE     ---       #546
      00FF60F9H   LINE      CODE     ---       #549
      00FF60FCH   LINE      CODE     ---       #550
      00FF60FCH   LINE      CODE     ---       #553
      00FF610EH   LINE      CODE     ---       #555
      00FF610EH   LINE      CODE     ---       #556
      00FF610EH   LINE      CODE     ---       #558
      00FF610EH   LINE      CODE     ---       #559
      00FF6111H   LINE      CODE     ---       #560
      00FF6113H   LINE      CODE     ---       #562
      00FF6113H   LINE      CODE     ---       #563
      00FF6116H   LINE      CODE     ---       #564
      00FF6118H   LINE      CODE     ---       #566
      00FF6118H   LINE      CODE     ---       #567
      00FF611BH   LINE      CODE     ---       #568
      00FF611BH   LINE      CODE     ---       #569
      00FF611BH   LINE      CODE     ---       #571
      00FF611EH   LINE      CODE     ---       #572
      00FF6121H   LINE      CODE     ---       #573
      00FF6130H   LINE      CODE     ---       #582
      00FF6148H   LINE      CODE     ---       #585
      00FF614BH   LINE      CODE     ---       #587
      00FF6169H   LINE      CODE     ---       #589
      00FF6169H   LINE      CODE     ---       #590
      00FF616DH   LINE      CODE     ---       #591
      00FF616FH   LINE      CODE     ---       #593
      00FF616FH   LINE      CODE     ---       #594
      00FF6172H   LINE      CODE     ---       #595
      00FF6174H   LINE      CODE     ---       #597
      00FF6174H   LINE      CODE     ---       #598
      00FF6177H   LINE      CODE     ---       #599
      00FF6179H   LINE      CODE     ---       #601
      00FF6179H   LINE      CODE     ---       #602
      00FF617CH   LINE      CODE     ---       #603
      00FF617CH   LINE      CODE     ---       #604
      00FF617CH   LINE      CODE     ---       #606
      00FF617FH   LINE      CODE     ---       #607
      00FF618CH   LINE      CODE     ---       #611
      00FF61A5H   LINE      CODE     ---       #615
      00FF61B5H   LINE      CODE     ---       #617
      00FF61C5H   LINE      CODE     ---       #618
      00FF61C7H   LINE      CODE     ---       #619
      00FF61D7H   LINE      CODE     ---       #621
      00FF61E7H   LINE      CODE     ---       #622
      00FF61E9H   LINE      CODE     ---       #623
      00FF61F9H   LINE      CODE     ---       #625
      00FF6207H   LINE      CODE     ---       #626
      00FF6209H   LINE      CODE     ---       #629
      00FF6219H   LINE      CODE     ---       #630
      00FF6219H   LINE      CODE     ---       #634
      00FF6231H   LINE      CODE     ---       #636
      00FF6231H   LINE      CODE     ---       #637
      00FF623FH   LINE      CODE     ---       #638
      00FF6241H   LINE      CODE     ---       #640
      00FF6241H   LINE      CODE     ---       #641
      00FF6251H   LINE      CODE     ---       #642
      00FF6253H   LINE      CODE     ---       #644
      00FF6253H   LINE      CODE     ---       #645
      00FF6263H   LINE      CODE     ---       #646
      00FF6265H   LINE      CODE     ---       #648
      00FF6265H   LINE      CODE     ---       #649
      00FF6275H   LINE      CODE     ---       #650
      00FF6275H   LINE      CODE     ---       #651
      00FF6275H   LINE      CODE     ---       #653
      00FF6285H   LINE      CODE     ---       #654
L251 LINKER/LOCATER V4.66.93.0                                                        10/07/2025  14:20:36  PAGE 77


      00FF6288H   LINE      CODE     ---       #655
      00FF6297H   LINE      CODE     ---       #664
      00FF62B1H   LINE      CODE     ---       #666
      00FF62B4H   LINE      CODE     ---       #668
      00FF62D2H   LINE      CODE     ---       #670
      00FF62D2H   LINE      CODE     ---       #671
      00FF62D6H   LINE      CODE     ---       #672
      00FF62D8H   LINE      CODE     ---       #674
      00FF62D8H   LINE      CODE     ---       #675
      00FF62DBH   LINE      CODE     ---       #676
      00FF62DDH   LINE      CODE     ---       #678
      00FF62DDH   LINE      CODE     ---       #679
      00FF62E0H   LINE      CODE     ---       #680
      00FF62E2H   LINE      CODE     ---       #682
      00FF62E2H   LINE      CODE     ---       #683
      00FF62E5H   LINE      CODE     ---       #684
      00FF62E5H   LINE      CODE     ---       #685
      00FF62E5H   LINE      CODE     ---       #687
      00FF62E8H   LINE      CODE     ---       #688
      00FF62F5H   LINE      CODE     ---       #692
      00FF630EH   LINE      CODE     ---       #694
      00FF631EH   LINE      CODE     ---       #696
      00FF632EH   LINE      CODE     ---       #697
      00FF6330H   LINE      CODE     ---       #698
      00FF6340H   LINE      CODE     ---       #700
      00FF6350H   LINE      CODE     ---       #701
      00FF6352H   LINE      CODE     ---       #702
      00FF6362H   LINE      CODE     ---       #704
      00FF6370H   LINE      CODE     ---       #705
      00FF6372H   LINE      CODE     ---       #708
      00FF6382H   LINE      CODE     ---       #709
      00FF6382H   LINE      CODE     ---       #713
      00FF639AH   LINE      CODE     ---       #715
      00FF639AH   LINE      CODE     ---       #716
      00FF63A8H   LINE      CODE     ---       #717
      00FF63AAH   LINE      CODE     ---       #719
      00FF63AAH   LINE      CODE     ---       #720
      00FF63BAH   LINE      CODE     ---       #721
      00FF63BCH   LINE      CODE     ---       #723
      00FF63BCH   LINE      CODE     ---       #724
      00FF63CCH   LINE      CODE     ---       #725
      00FF63CEH   LINE      CODE     ---       #727
      00FF63CEH   LINE      CODE     ---       #728
      00FF63DEH   LINE      CODE     ---       #729
      00FF63DEH   LINE      CODE     ---       #730
      00FF63DEH   LINE      CODE     ---       #732
      00FF63EEH   LINE      CODE     ---       #733
      ---         BLOCKEND  ---      ---       LVL=0

      ---         MODULE    ---      ---       zf_driver_timer
      00FFA706H   PUBLIC    CODE     ---       timer_funciton_check
      000000D0H   SFRSYM    DATA     BYTE      PSW
      0000009DH   SFRSYM    DATA     BYTE      IRCBAND
      00000097H   SFRSYM    DATA     BYTE      AUXR2
      000000EFH   SFRSYM    DATA     BYTE      AUXINTIF
      000000FDH   SFRSYM    DATA     BYTE      S4CON
      000000ACH   SFRSYM    DATA     BYTE      S3CON
      0000009AH   SFRSYM    DATA     BYTE      S2CON
      000000B7H   SFRSYM    DATA     BYTE      IPH
      000000CDH   SFRSYM    DATA     BYTE      SPSTAT
      000000DDH   SFRSYM    DATA     BYTE      T4T3M
      000000C1H   SFRSYM    DATA     BYTE      WDT_CONTR
      000000DFH   SFRSYM    DATA     BYTE      IP3
      000000F4H   SFRSYM    DATA     BYTE      USBCON
      000000B5H   SFRSYM    DATA     BYTE      IP2
L251 LINKER/LOCATER V4.66.93.0                                                        10/07/2025  14:20:36  PAGE 78


      000000FFH   SFRSYM    DATA     BYTE      RSTCFG
      000000C7H   SFRSYM    DATA     BYTE      IAP_CONTR
      0000008EH   SFRSYM    DATA     BYTE      AUXR
      000000AFH   SFRSYM    DATA     BYTE      IE2
      00000088H   SFRSYM    DATA     BYTE      TCON
      00000089H   SFRSYM    DATA     BYTE      TMOD
      00000098H   SFRSYM    DATA     BYTE      SCON
      00000087H   SFRSYM    DATA     BYTE      PCON
      000000BCH   SFRSYM    DATA     BYTE      ADC_CONTR
      000000D1H   SFRSYM    DATA     BYTE      PSW1
      000000E7H   SFRSYM    DATA     BYTE      CMPCR2
      000000E6H   SFRSYM    DATA     BYTE      CMPCR1
      000000DEH   SFRSYM    DATA     BYTE      ADCCFG
      000000B8H   SFRSYM    DATA     BYTE      IP
      0000008FH   SFRSYM    DATA     BYTE      INTCLKO
      000000EEH   SFRSYM    DATA     BYTE      IP3H
      000000B6H   SFRSYM    DATA     BYTE      IP2H
      000000BFH   SFRSYM    DATA     BYTE      P_SW4
      000000A8H   SFRSYM    DATA     BYTE      IE
      000000BBH   SFRSYM    DATA     BYTE      P_SW3
      000000BAH   SFRSYM    DATA     BYTE      P_SW2
      000000A2H   SFRSYM    DATA     BYTE      P_SW1
      000000CEH   SFRSYM    DATA     BYTE      SPCTL
      000000F8H   SFRSYM    DATA     BYTE      P7
      000000E8H   SFRSYM    DATA     BYTE      P6
      000000C8H   SFRSYM    DATA     BYTE      P5
      000000C0H   SFRSYM    DATA     BYTE      P4
      000000ABH   SFRSYM    DATA     BYTE      WKTCH
      000000B0H   SFRSYM    DATA     BYTE      P3
      000000A0H   SFRSYM    DATA     BYTE      P2
      00000090H   SFRSYM    DATA     BYTE      P1
      00000080H   SFRSYM    DATA     BYTE      P0
      00010D14H   SYMBOL    XDATA    ---       timer_function_state

      00FFA706H   BLOCK     CODE     ---       LVL=0
      WR2         REGSYM    ---      INT       index
      WR0         REGSYM    ---      INT       mode
      00FFA70AH   BLOCK     CODE     NEAR LAB  LVL=1
      R10         REGSYM    ---      BYTE      return_state
      ---         BLOCKEND  ---      ---       LVL=1
      00FFA706H   LINE      CODE     ---       #58
      00FFA70AH   LINE      CODE     ---       #59
      00FFA70AH   LINE      CODE     ---       #60
      00FFA70DH   LINE      CODE     ---       #61
      00FFA722H   LINE      CODE     ---       #63
      00FFA733H   LINE      CODE     ---       #64
      00FFA735H   LINE      CODE     ---       #65
      00FFA748H   LINE      CODE     ---       #67
      00FFA74BH   LINE      CODE     ---       #68
      00FFA74DH   LINE      CODE     ---       #71
      00FFA74FH   LINE      CODE     ---       #72
      00FFA74FH   LINE      CODE     ---       #73
      00FFA751H   LINE      CODE     ---       #74
      ---         BLOCKEND  ---      ---       LVL=0

      ---         MODULE    ---      ---       zf_driver_uart
      00FF9CE8H   PUBLIC    CODE     ---       uart_rx_start_buff
      00FF8D68H   PUBLIC    CODE     ---       uart_write_buffer
      00FF741CH   PUBLIC    CODE     ---       uart_init
      00FFA831H   PUBLIC    CODE     ---       uart_rx_interrupt
      00FFAD28H   PUBLIC    CODE     ---       uart_write_byte
      00FF8226H   PUBLIC    CODE     ---       uart_dma_init
      00FFA752H   PUBLIC    CODE     ---       uart_funciton_check
      00FFA49EH   PUBLIC    CODE     ---       uart_query_byte
      00010D28H   PUBLIC    XDATA    ---       uart_rx_buff
L251 LINKER/LOCATER V4.66.93.0                                                        10/07/2025  14:20:36  PAGE 79


      00010A5BH   PUBLIC    XDATA    BYTE      ?uart_init?BYTE
      000000D0H   SFRSYM    DATA     BYTE      PSW
      0000009DH   SFRSYM    DATA     BYTE      IRCBAND
      00000097H   SFRSYM    DATA     BYTE      AUXR2
      000000EFH   SFRSYM    DATA     BYTE      AUXINTIF
      000000FDH   SFRSYM    DATA     BYTE      S4CON
      000000ACH   SFRSYM    DATA     BYTE      S3CON
      0000009AH   SFRSYM    DATA     BYTE      S2CON
      000000B7H   SFRSYM    DATA     BYTE      IPH
      000000CDH   SFRSYM    DATA     BYTE      SPSTAT
      000000DDH   SFRSYM    DATA     BYTE      T4T3M
      000000C1H   SFRSYM    DATA     BYTE      WDT_CONTR
      00000088H.6 SFRSYM    DATA     BIT       TR1
      000000D7H   SFRSYM    DATA     BYTE      T2L
      000000D6H   SFRSYM    DATA     BYTE      T2H
      000000DFH   SFRSYM    DATA     BYTE      IP3
      000000F4H   SFRSYM    DATA     BYTE      USBCON
      000000B5H   SFRSYM    DATA     BYTE      IP2
      000000FFH   SFRSYM    DATA     BYTE      RSTCFG
      000000C7H   SFRSYM    DATA     BYTE      IAP_CONTR
      0000008EH   SFRSYM    DATA     BYTE      AUXR
      000000AFH   SFRSYM    DATA     BYTE      IE2
      00000088H   SFRSYM    DATA     BYTE      TCON
      00000089H   SFRSYM    DATA     BYTE      TMOD
      00000098H   SFRSYM    DATA     BYTE      SCON
      00000087H   SFRSYM    DATA     BYTE      PCON
      000000BCH   SFRSYM    DATA     BYTE      ADC_CONTR
      000000D1H   SFRSYM    DATA     BYTE      PSW1
      000000E7H   SFRSYM    DATA     BYTE      CMPCR2
      000000E6H   SFRSYM    DATA     BYTE      CMPCR1
      000000DEH   SFRSYM    DATA     BYTE      ADCCFG
      000000B8H   SFRSYM    DATA     BYTE      IP
      0000008FH   SFRSYM    DATA     BYTE      INTCLKO
      000000EEH   SFRSYM    DATA     BYTE      IP3H
      000000B6H   SFRSYM    DATA     BYTE      IP2H
      000000BFH   SFRSYM    DATA     BYTE      P_SW4
      000000A8H   SFRSYM    DATA     BYTE      IE
      000000BBH   SFRSYM    DATA     BYTE      P_SW3
      000000BAH   SFRSYM    DATA     BYTE      P_SW2
      000000A2H   SFRSYM    DATA     BYTE      P_SW1
      000000CEH   SFRSYM    DATA     BYTE      SPCTL
      000000F8H   SFRSYM    DATA     BYTE      P7
      000000E8H   SFRSYM    DATA     BYTE      P6
      000000C8H   SFRSYM    DATA     BYTE      P5
      000000C0H   SFRSYM    DATA     BYTE      P4
      000000ABH   SFRSYM    DATA     BYTE      WKTCH
      000000B0H   SFRSYM    DATA     BYTE      P3
      000000A0H   SFRSYM    DATA     BYTE      P2
      00000090H   SFRSYM    DATA     BYTE      P1
      00000080H   SFRSYM    DATA     BYTE      P0
      00010D20H   SYMBOL    XDATA    ---       uart_function_state

      00FFA752H   BLOCK     CODE     ---       LVL=0
      WR2         REGSYM    ---      INT       index
      WR0         REGSYM    ---      INT       mode
      00FFA756H   BLOCK     CODE     NEAR LAB  LVL=1
      R10         REGSYM    ---      BYTE      return_state
      ---         BLOCKEND  ---      ---       LVL=1
      00FFA752H   LINE      CODE     ---       #83
      00FFA756H   LINE      CODE     ---       #84
      00FFA756H   LINE      CODE     ---       #85
      00FFA759H   LINE      CODE     ---       #86
      00FFA76EH   LINE      CODE     ---       #88
      00FFA77FH   LINE      CODE     ---       #89
      00FFA781H   LINE      CODE     ---       #90
L251 LINKER/LOCATER V4.66.93.0                                                        10/07/2025  14:20:36  PAGE 80


      00FFA794H   LINE      CODE     ---       #92
      00FFA797H   LINE      CODE     ---       #93
      00FFA799H   LINE      CODE     ---       #96
      00FFA79BH   LINE      CODE     ---       #97
      00FFA79BH   LINE      CODE     ---       #98
      00FFA79DH   LINE      CODE     ---       #99
      ---         BLOCKEND  ---      ---       LVL=0

      00FF8D68H   BLOCK     CODE     ---       LVL=0
      WR0         REGSYM    ---      INT       uart_n
      REG=7       REGSYM    ---      ---       buff
      WR8         REGSYM    ---      WORD      len
      00FF8D68H   LINE      CODE     ---       #108
      00FF8D6EH   LINE      CODE     ---       #112
      00FF8D88H   LINE      CODE     ---       #113
      00FF8D8AH   LINE      CODE     ---       #114
      00FF8DA4H   LINE      CODE     ---       #115
      00FF8DBDH   LINE      CODE     ---       #116
      00FF8DDDH   LINE      CODE     ---       #117
      00FF8DF9H   LINE      CODE     ---       #118
      00FF8E14H   LINE      CODE     ---       #120
      00FF8E2FH   LINE      CODE     ---       #122
      00FF8E49H   LINE      CODE     ---       #124
      ---         BLOCKEND  ---      ---       LVL=0
      REG=3       REGSYM    ---      ---       str

      00FFAD28H   BLOCK     CODE     ---       LVL=0
      WR6         REGSYM    ---      INT       uart_n
      00010AD6H   SYMBOL    XDATA    BYTE      dat
      00FFAD28H   LINE      CODE     ---       #154
      00FFAD2CH   LINE      CODE     ---       #156
      00FFAD3BH   LINE      CODE     ---       #157
      ---         BLOCKEND  ---      ---       LVL=0

      00FF9CE8H   BLOCK     CODE     ---       LVL=0
      WR8         REGSYM    ---      INT       uart_n
      00FF9CE8H   LINE      CODE     ---       #165
      00FF9CEAH   LINE      CODE     ---       #167
      00FF9D04H   LINE      CODE     ---       #168
      00FF9D1AH   LINE      CODE     ---       #169
      00FF9D3AH   LINE      CODE     ---       #170
      00FF9D5CH   LINE      CODE     ---       #171
      00FF9D77H   LINE      CODE     ---       #172
      ---         BLOCKEND  ---      ---       LVL=0

      00FFA831H   BLOCK     CODE     ---       LVL=0
      WR2         REGSYM    ---      INT       uart_n
      R5          REGSYM    ---      BYTE      status
      00FFA831H   LINE      CODE     ---       #183
      00FFA835H   LINE      CODE     ---       #185
      00FFA839H   LINE      CODE     ---       #187
      00FFA856H   LINE      CODE     ---       #188
      00FFA858H   LINE      CODE     ---       #191
      00FFA875H   LINE      CODE     ---       #192
      00FFA875H   LINE      CODE     ---       #193
      ---         BLOCKEND  ---      ---       LVL=0
      WR8         REGSYM    ---      INT       uart_n
      R15         REGSYM    ---      BYTE      dat

      00FFA49EH   BLOCK     CODE     ---       LVL=0
      WR2         REGSYM    ---      INT       uart_n
      REG=7       REGSYM    ---      ---       dat
      00FFA4A4H   BLOCK     CODE     NEAR LAB  LVL=1
      R15         REGSYM    ---      BYTE      ret
      ---         BLOCKEND  ---      ---       LVL=1
L251 LINKER/LOCATER V4.66.93.0                                                        10/07/2025  14:20:36  PAGE 81


      00FFA49EH   LINE      CODE     ---       #227
      00FFA4A4H   LINE      CODE     ---       #228
      00FFA4A4H   LINE      CODE     ---       #229
      00FFA4A6H   LINE      CODE     ---       #232
      00FFA4B6H   LINE      CODE     ---       #234
      00FFA4D2H   LINE      CODE     ---       #236
      00FFA4D5H   LINE      CODE     ---       #238
      00FFA4F2H   LINE      CODE     ---       #239
      00FFA4F4H   LINE      CODE     ---       #242
      00FFA4F6H   LINE      CODE     ---       #243
      00FFA4F6H   LINE      CODE     ---       #246
      00FFA4FBH   LINE      CODE     ---       #248
      00FFA4FDH   LINE      CODE     ---       #249
      ---         BLOCKEND  ---      ---       LVL=0

      00FF8226H   BLOCK     CODE     ---       LVL=0
      WR8         REGSYM    ---      INT       uart_n
      00FF8226H   LINE      CODE     ---       #257
      00FF8228H   LINE      CODE     ---       #259
      00FF8242H   LINE      CODE     ---       #260
      00FF825CH   LINE      CODE     ---       #261
      00FF8276H   LINE      CODE     ---       #263
      00FF8290H   LINE      CODE     ---       #264
      00FF82AAH   LINE      CODE     ---       #265
      00FF82C4H   LINE      CODE     ---       #267
      00FF82DEH   LINE      CODE     ---       #268
      00FF82F4H   LINE      CODE     ---       #269
      00FF8314H   LINE      CODE     ---       #270
      00FF8336H   LINE      CODE     ---       #271
      00FF8351H   LINE      CODE     ---       #272
      00FF836CH   LINE      CODE     ---       #274
      ---         BLOCKEND  ---      ---       LVL=0

      00FF741CH   BLOCK     CODE     ---       LVL=0
      WR12        REGSYM    ---      INT       uart_n
      00010A5FH   SYMBOL    XDATA    DWORD     baud
      WR14        REGSYM    ---      INT       tx_pin
      00010A63H   SYMBOL    XDATA    INT       rx_pin
      00FF742CH   BLOCK     CODE     NEAR LAB  LVL=1
      WR6         REGSYM    ---      WORD      brt
      ---         BLOCKEND  ---      ---       LVL=1
      00FF741CH   LINE      CODE     ---       #286
      00FF742CH   LINE      CODE     ---       #287
      00FF742CH   LINE      CODE     ---       #296
      00FF7442H   LINE      CODE     ---       #303
      00FF745CH   LINE      CODE     ---       #308
      00FF748AH   LINE      CODE     ---       #311
      00FF749CH   LINE      CODE     ---       #312
      00FF74B0H   LINE      CODE     ---       #314
      00FF74E1H   LINE      CODE     ---       #316
      00FF7501H   LINE      CODE     ---       #318
      00FF7501H   LINE      CODE     ---       #332
      00FF7504H   LINE      CODE     ---       #333
      00FF7508H   LINE      CODE     ---       #334
      00FF750EH   LINE      CODE     ---       #335
      00FF7511H   LINE      CODE     ---       #336
      00FF7513H   LINE      CODE     ---       #339
      00FF7516H   LINE      CODE     ---       #341
      00FF7528H   LINE      CODE     ---       #343
      00FF752CH   LINE      CODE     ---       #344
      00FF752FH   LINE      CODE     ---       #345
      00FF7541H   LINE      CODE     ---       #347
      00FF7544H   LINE      CODE     ---       #348
      00FF7547H   LINE      CODE     ---       #349
      00FF7559H   LINE      CODE     ---       #351
L251 LINKER/LOCATER V4.66.93.0                                                        10/07/2025  14:20:36  PAGE 82


      00FF755CH   LINE      CODE     ---       #352
      00FF755FH   LINE      CODE     ---       #353
      00FF7577H   LINE      CODE     ---       #355
      00FF757AH   LINE      CODE     ---       #356
      00FF757AH   LINE      CODE     ---       #359
      00FF757DH   LINE      CODE     ---       #362
      00FF757DH   LINE      CODE     ---       #366
      00FF7580H   LINE      CODE     ---       #367
      00FF7584H   LINE      CODE     ---       #368
      00FF758AH   LINE      CODE     ---       #369
      00FF758DH   LINE      CODE     ---       #372
      00FF7590H   LINE      CODE     ---       #374
      00FF75A2H   LINE      CODE     ---       #376
      00FF75A6H   LINE      CODE     ---       #377
      00FF75A9H   LINE      CODE     ---       #378
      00FF75C1H   LINE      CODE     ---       #380
      00FF75C4H   LINE      CODE     ---       #381
      00FF75C4H   LINE      CODE     ---       #385
      00FF75C7H   LINE      CODE     ---       #388
      00FF75C7H   LINE      CODE     ---       #392
      00FF75CAH   LINE      CODE     ---       #393
      00FF75CEH   LINE      CODE     ---       #394
      00FF75D4H   LINE      CODE     ---       #395
      00FF75D7H   LINE      CODE     ---       #405
      00FF75DAH   LINE      CODE     ---       #407
      00FF75ECH   LINE      CODE     ---       #409
      00FF75F0H   LINE      CODE     ---       #410
      00FF75F2H   LINE      CODE     ---       #411
      00FF7604H   LINE      CODE     ---       #413
      00FF7607H   LINE      CODE     ---       #414
      00FF7607H   LINE      CODE     ---       #418
      00FF7609H   LINE      CODE     ---       #421
      00FF7609H   LINE      CODE     ---       #425
      00FF760CH   LINE      CODE     ---       #426
      00FF7610H   LINE      CODE     ---       #427
      00FF7616H   LINE      CODE     ---       #428
      00FF7619H   LINE      CODE     ---       #438
      00FF761CH   LINE      CODE     ---       #440
      00FF762EH   LINE      CODE     ---       #442
      00FF7632H   LINE      CODE     ---       #443
      00FF7634H   LINE      CODE     ---       #444
      00FF7646H   LINE      CODE     ---       #448
      00FF7649H   LINE      CODE     ---       #449
      00FF7649H   LINE      CODE     ---       #453
      00FF7649H   LINE      CODE     ---       #456
      00FF7649H   LINE      CODE     ---       #459
      00FF764EH   LINE      CODE     ---       #461
      ---         BLOCKEND  ---      ---       LVL=0

      ---         MODULE    ---      ---       zf_device_config
      00FF021EH   PUBLIC    CODE     ---       imu660ra_config_file

      ---         MODULE    ---      ---       zf_device_type
      00010D55H   PUBLIC    XDATA    ---       tof_module_exti_handler
      00010D57H   PUBLIC    XDATA    INT       wireless_type
      00010D59H   PUBLIC    XDATA    INT       tof_type
      00010D5BH   PUBLIC    XDATA    INT       gps_type
      000000D0H   SFRSYM    DATA     BYTE      PSW
      0000009DH   SFRSYM    DATA     BYTE      IRCBAND
      00000097H   SFRSYM    DATA     BYTE      AUXR2
      000000EFH   SFRSYM    DATA     BYTE      AUXINTIF
      000000FDH   SFRSYM    DATA     BYTE      S4CON
      000000ACH   SFRSYM    DATA     BYTE      S3CON
      0000009AH   SFRSYM    DATA     BYTE      S2CON
      000000B7H   SFRSYM    DATA     BYTE      IPH
L251 LINKER/LOCATER V4.66.93.0                                                        10/07/2025  14:20:36  PAGE 83


      000000CDH   SFRSYM    DATA     BYTE      SPSTAT
      000000DDH   SFRSYM    DATA     BYTE      T4T3M
      000000C1H   SFRSYM    DATA     BYTE      WDT_CONTR
      000000DFH   SFRSYM    DATA     BYTE      IP3
      000000F4H   SFRSYM    DATA     BYTE      USBCON
      000000B5H   SFRSYM    DATA     BYTE      IP2
      000000FFH   SFRSYM    DATA     BYTE      RSTCFG
      000000C7H   SFRSYM    DATA     BYTE      IAP_CONTR
      0000008EH   SFRSYM    DATA     BYTE      AUXR
      000000AFH   SFRSYM    DATA     BYTE      IE2
      00000088H   SFRSYM    DATA     BYTE      TCON
      00000089H   SFRSYM    DATA     BYTE      TMOD
      00000098H   SFRSYM    DATA     BYTE      SCON
      00000087H   SFRSYM    DATA     BYTE      PCON
      000000BCH   SFRSYM    DATA     BYTE      ADC_CONTR
      000000D1H   SFRSYM    DATA     BYTE      PSW1
      000000E7H   SFRSYM    DATA     BYTE      CMPCR2
      000000E6H   SFRSYM    DATA     BYTE      CMPCR1
      000000DEH   SFRSYM    DATA     BYTE      ADCCFG
      000000B8H   SFRSYM    DATA     BYTE      IP
      0000008FH   SFRSYM    DATA     BYTE      INTCLKO
      000000EEH   SFRSYM    DATA     BYTE      IP3H
      000000B6H   SFRSYM    DATA     BYTE      IP2H
      000000BFH   SFRSYM    DATA     BYTE      P_SW4
      000000A8H   SFRSYM    DATA     BYTE      IE
      000000BBH   SFRSYM    DATA     BYTE      P_SW3
      000000BAH   SFRSYM    DATA     BYTE      P_SW2
      000000A2H   SFRSYM    DATA     BYTE      P_SW1
      000000CEH   SFRSYM    DATA     BYTE      SPCTL
      000000F8H   SFRSYM    DATA     BYTE      P7
      000000E8H   SFRSYM    DATA     BYTE      P6
      000000C8H   SFRSYM    DATA     BYTE      P5
      000000C0H   SFRSYM    DATA     BYTE      P4
      000000ABH   SFRSYM    DATA     BYTE      WKTCH
      000000B0H   SFRSYM    DATA     BYTE      P3
      000000A0H   SFRSYM    DATA     BYTE      P2
      00000090H   SFRSYM    DATA     BYTE      P1
      00000080H   SFRSYM    DATA     BYTE      P0
      WR6         REGSYM    ---      INT       type_set
      WR4         REGSYM    ---      INT       uartx
      REG=0       REGSYM    ---      ---       uart_callback
      WR6         REGSYM    ---      INT       type_set
      REG=0       REGSYM    ---      ---       exti_callback
      WR6         REGSYM    ---      INT       type_set
      WR4         REGSYM    ---      INT       uartx
      REG=0       REGSYM    ---      ---       uart_callback

      ---         MODULE    ---      ---       zf_device_tft180
      00FF6BBBH   PUBLIC    CODE     ---       tft180_init
      00FF7A52H   PUBLIC    CODE     ---       tft180_show_float
      00FF98A2H   PUBLIC    CODE     ---       tft180_show_string
      00FF8F2BH   PUBLIC    CODE     ---       tft180_show_char
      00FF000EH   PUBLIC    CODE     ---       tft180_set_color
      00FF872AH   PUBLIC    CODE     ---       tft180_show_int16
      00FFACBDH   PUBLIC    CODE     ---       tft180_set_dir
      00FFA3D5H   PUBLIC    CODE     ---       tft180_clear
      00010D5DH   PUBLIC    XDATA    WORD      tft180_pencolor
      00010D5FH   PUBLIC    XDATA    WORD      tft180_bgcolor
      00010D61H   PUBLIC    XDATA    INT       tft180_display_dir
      00010D63H   PUBLIC    XDATA    BYTE      tft180_x_max
      00010D64H   PUBLIC    XDATA    BYTE      tft180_y_max
      00010A5DH   PUBLIC    XDATA    BYTE      ?tft180_show_float?BYTE
      000000D0H   SFRSYM    DATA     BYTE      PSW
      0000009DH   SFRSYM    DATA     BYTE      IRCBAND
      00000097H   SFRSYM    DATA     BYTE      AUXR2
L251 LINKER/LOCATER V4.66.93.0                                                        10/07/2025  14:20:36  PAGE 84


      000000EFH   SFRSYM    DATA     BYTE      AUXINTIF
      000000FDH   SFRSYM    DATA     BYTE      S4CON
      000000ACH   SFRSYM    DATA     BYTE      S3CON
      0000009AH   SFRSYM    DATA     BYTE      S2CON
      000000B7H   SFRSYM    DATA     BYTE      IPH
      000000CDH   SFRSYM    DATA     BYTE      SPSTAT
      000000DDH   SFRSYM    DATA     BYTE      T4T3M
      000000C1H   SFRSYM    DATA     BYTE      WDT_CONTR
      000000DFH   SFRSYM    DATA     BYTE      IP3
      000000F4H   SFRSYM    DATA     BYTE      USBCON
      000000B5H   SFRSYM    DATA     BYTE      IP2
      000000FFH   SFRSYM    DATA     BYTE      RSTCFG
      000000C7H   SFRSYM    DATA     BYTE      IAP_CONTR
      0000008EH   SFRSYM    DATA     BYTE      AUXR
      000000AFH   SFRSYM    DATA     BYTE      IE2
      00000088H   SFRSYM    DATA     BYTE      TCON
      00000089H   SFRSYM    DATA     BYTE      TMOD
      00000098H   SFRSYM    DATA     BYTE      SCON
      000000A0H.2 SFRSYM    DATA     BIT       P22
      000000A0H.1 SFRSYM    DATA     BIT       P21
      000000A0H.0 SFRSYM    DATA     BIT       P20
      00000087H   SFRSYM    DATA     BYTE      PCON
      000000BCH   SFRSYM    DATA     BYTE      ADC_CONTR
      000000D1H   SFRSYM    DATA     BYTE      PSW1
      000000E7H   SFRSYM    DATA     BYTE      CMPCR2
      000000E6H   SFRSYM    DATA     BYTE      CMPCR1
      000000DEH   SFRSYM    DATA     BYTE      ADCCFG
      000000B8H   SFRSYM    DATA     BYTE      IP
      0000008FH   SFRSYM    DATA     BYTE      INTCLKO
      000000EEH   SFRSYM    DATA     BYTE      IP3H
      000000B6H   SFRSYM    DATA     BYTE      IP2H
      000000BFH   SFRSYM    DATA     BYTE      P_SW4
      000000A8H   SFRSYM    DATA     BYTE      IE
      000000BBH   SFRSYM    DATA     BYTE      P_SW3
      000000BAH   SFRSYM    DATA     BYTE      P_SW2
      000000A2H   SFRSYM    DATA     BYTE      P_SW1
      000000CEH   SFRSYM    DATA     BYTE      SPCTL
      000000F8H   SFRSYM    DATA     BYTE      P7
      000000E8H   SFRSYM    DATA     BYTE      P6
      000000C8H   SFRSYM    DATA     BYTE      P5
      000000C0H   SFRSYM    DATA     BYTE      P4
      000000ABH   SFRSYM    DATA     BYTE      WKTCH
      000000B0H   SFRSYM    DATA     BYTE      P3
      000000A0H   SFRSYM    DATA     BYTE      P2
      00000090H   SFRSYM    DATA     BYTE      P1
      00000080H   SFRSYM    DATA     BYTE      P0
      00FF885DH   SYMBOL    CODE     ---       tft180_set_region
      00FF00A6H   SYMBOL    CODE     ---       tft180_write_index

      00FF00A6H   BLOCK     CODE     ---       LVL=0
      R5          REGSYM    ---      BYTE      dat
      00FF00A6H   LINE      CODE     ---       #80
      00FF00A8H   LINE      CODE     ---       #82
      00FF00AAH   LINE      CODE     ---       #83
      00FF00ACH   LINE      CODE     ---       #84
      00FF00AEH   LINE      CODE     ---       #85
      00FF00B5H   LINE      CODE     ---       #86
      00FF00B7H   LINE      CODE     ---       #87
      00FF00B9H   LINE      CODE     ---       #88
      00FF00BBH   LINE      CODE     ---       #89
      ---         BLOCKEND  ---      ---       LVL=0

      00FF885DH   BLOCK     CODE     ---       LVL=0
      00010A9AH   SYMBOL    XDATA    WORD      x1
      00010A9CH   SYMBOL    XDATA    WORD      y1
L251 LINKER/LOCATER V4.66.93.0                                                        10/07/2025  14:20:36  PAGE 85


      WR12        REGSYM    ---      WORD      x2
      WR14        REGSYM    ---      WORD      y2
      00FF885DH   LINE      CODE     ---       #100
      00FF886FH   LINE      CODE     ---       #102
      00FF8893H   LINE      CODE     ---       #103
      00FF88B7H   LINE      CODE     ---       #104
      00FF88D5H   LINE      CODE     ---       #105
      00FF88F3H   LINE      CODE     ---       #107
      00FF8909H   LINE      CODE     ---       #109
      00FF890EH   LINE      CODE     ---       #110
      00FF891BH   LINE      CODE     ---       #111
      00FF8924H   LINE      CODE     ---       #113
      00FF8929H   LINE      CODE     ---       #114
      00FF8936H   LINE      CODE     ---       #115
      00FF893FH   LINE      CODE     ---       #116
      00FF8941H   LINE      CODE     ---       #119
      00FF8946H   LINE      CODE     ---       #120
      00FF8953H   LINE      CODE     ---       #121
      00FF895CH   LINE      CODE     ---       #123
      00FF8961H   LINE      CODE     ---       #124
      00FF896EH   LINE      CODE     ---       #125
      00FF8977H   LINE      CODE     ---       #126
      00FF8977H   LINE      CODE     ---       #127
      00FF897CH   LINE      CODE     ---       #128
      ---         BLOCKEND  ---      ---       LVL=0

      00FFA3D5H   BLOCK     CODE     ---       LVL=0
      WR14        REGSYM    ---      WORD      color
      00FFA3D9H   BLOCK     CODE     NEAR LAB  LVL=1
      00010A5FH   SYMBOL    XDATA    DWORD     i
      ---         BLOCKEND  ---      ---       LVL=1
      00FFA3D5H   LINE      CODE     ---       #138
      00FFA3D9H   LINE      CODE     ---       #139
      00FFA3D9H   LINE      CODE     ---       #140
      00FFA3F6H   LINE      CODE     ---       #142
      00FFA40DH   LINE      CODE     ---       #143
      00FFA40FH   LINE      CODE     ---       #145
      00FFA416H   LINE      CODE     ---       #146
      00FFA439H   LINE      CODE     ---       #147
      ---         BLOCKEND  ---      ---       LVL=0

      00FFACBDH   BLOCK     CODE     ---       LVL=0
      WR6         REGSYM    ---      INT       dir
      00FFACBDH   LINE      CODE     ---       #155
      00FFACBDH   LINE      CODE     ---       #157
      00FFACC3H   LINE      CODE     ---       #158
      00FFACC9H   LINE      CODE     ---       #160
      00FFACCFH   LINE      CODE     ---       #161
      00FFACD5H   LINE      CODE     ---       #162
      00FFACD7H   LINE      CODE     ---       #165
      00FFACDDH   LINE      CODE     ---       #166
      00FFACE3H   LINE      CODE     ---       #167
      00FFACE3H   LINE      CODE     ---       #168
      ---         BLOCKEND  ---      ---       LVL=0

      00FF000EH   BLOCK     CODE     ---       LVL=0
      WR6         REGSYM    ---      WORD      pen
      WR4         REGSYM    ---      WORD      bgcolor
      00FF000EH   LINE      CODE     ---       #177
      00FF000EH   LINE      CODE     ---       #179
      00FF0014H   LINE      CODE     ---       #180
      00FF001AH   LINE      CODE     ---       #181
      ---         BLOCKEND  ---      ---       LVL=0
      WR12        REGSYM    ---      WORD      x
      WR14        REGSYM    ---      WORD      y
L251 LINKER/LOCATER V4.66.93.0                                                        10/07/2025  14:20:36  PAGE 86



      00FF8F2BH   BLOCK     CODE     ---       LVL=0
      WR12        REGSYM    ---      WORD      x
      WR14        REGSYM    ---      WORD      y
      00010A96H   SYMBOL    XDATA    CHAR      dat
      00FF8F35H   BLOCK     CODE     NEAR LAB  LVL=1
      00010A97H   SYMBOL    XDATA    BYTE      i
      00010A98H   SYMBOL    XDATA    BYTE      j
      00010A99H   SYMBOL    XDATA    BYTE      temp
      ---         BLOCKEND  ---      ---       LVL=1
      00FF8F2BH   LINE      CODE     ---       #208
      00FF8F35H   LINE      CODE     ---       #209
      00FF8F35H   LINE      CODE     ---       #213
      00FF8F53H   LINE      CODE     ---       #214
      00FF8F71H   LINE      CODE     ---       #216
      00FF8F79H   LINE      CODE     ---       #218
      00FF8F94H   LINE      CODE     ---       #219
      00FF8FBAH   LINE      CODE     ---       #220
      00FF8FC1H   LINE      CODE     ---       #222
      00FF8FC8H   LINE      CODE     ---       #223
      00FF8FD5H   LINE      CODE     ---       #225
      00FF8FE0H   LINE      CODE     ---       #226
      00FF8FE7H   LINE      CODE     ---       #227
      00FF8FF6H   LINE      CODE     ---       #228
      00FF9008H   LINE      CODE     ---       #229
      ---         BLOCKEND  ---      ---       LVL=0

      00FF98A2H   BLOCK     CODE     ---       LVL=0
      00010A90H   SYMBOL    XDATA    WORD      x
      00010A92H   SYMBOL    XDATA    WORD      y
      REG=3       REGSYM    ---      ---       dat
      00FF98B2H   BLOCK     CODE     NEAR LAB  LVL=1
      00010A94H   SYMBOL    XDATA    WORD      j
      ---         BLOCKEND  ---      ---       LVL=1
      00FF98A2H   LINE      CODE     ---       #239
      00FF98B2H   LINE      CODE     ---       #240
      00FF98B2H   LINE      CODE     ---       #241
      00FF98BAH   LINE      CODE     ---       #243
      00FF98DEH   LINE      CODE     ---       #244
      00FF9902H   LINE      CODE     ---       #247
      00FF9904H   LINE      CODE     ---       #249
      00FF992EH   LINE      CODE     ---       #250
      00FF9939H   LINE      CODE     ---       #251
      00FF9948H   LINE      CODE     ---       #252
      ---         BLOCKEND  ---      ---       LVL=0
      WR12        REGSYM    ---      WORD      x
      WR14        REGSYM    ---      WORD      y
      WR12        REGSYM    ---      WORD      x
      WR14        REGSYM    ---      WORD      y

      00FF872AH   BLOCK     CODE     ---       LVL=0
      WR12        REGSYM    ---      WORD      x
      WR14        REGSYM    ---      WORD      y
      00010A5FH   SYMBOL    XDATA    INT       dat
      00FF8736H   BLOCK     CODE     NEAR LAB  LVL=1
      00010A61H   SYMBOL    XDATA    ---       a
      00010A66H   SYMBOL    XDATA    BYTE      i
      ---         BLOCKEND  ---      ---       LVL=1
      00FF872AH   LINE      CODE     ---       #326
      00FF8736H   LINE      CODE     ---       #327
      00FF8736H   LINE      CODE     ---       #331
      00FF8754H   LINE      CODE     ---       #332
      00FF8772H   LINE      CODE     ---       #334
      00FF877EH   LINE      CODE     ---       #336
      00FF8787H   LINE      CODE     ---       #337
L251 LINKER/LOCATER V4.66.93.0                                                        10/07/2025  14:20:36  PAGE 87


      00FF8799H   LINE      CODE     ---       #338
      00FF879BH   LINE      CODE     ---       #339
      00FF87A4H   LINE      CODE     ---       #341
      00FF87B7H   LINE      CODE     ---       #342
      00FF87D1H   LINE      CODE     ---       #343
      00FF87EBH   LINE      CODE     ---       #344
      00FF8805H   LINE      CODE     ---       #345
      00FF8818H   LINE      CODE     ---       #347
      00FF881DH   LINE      CODE     ---       #348
      00FF881FH   LINE      CODE     ---       #350
      00FF884BH   LINE      CODE     ---       #351
      00FF8851H   LINE      CODE     ---       #352
      00FF885AH   LINE      CODE     ---       #353
      ---         BLOCKEND  ---      ---       LVL=0
      WR12        REGSYM    ---      WORD      x
      WR14        REGSYM    ---      WORD      y
      WR12        REGSYM    ---      WORD      y
      R15         REGSYM    ---      BYTE      num
      R14         REGSYM    ---      BYTE      length

      00FF7A52H   BLOCK     CODE     ---       LVL=0
      00010A5FH   SYMBOL    XDATA    WORD      x
      WR12        REGSYM    ---      WORD      y
      00010A61H   SYMBOL    XDATA    DOUBLE    dat
      R14         REGSYM    ---      BYTE      num
      R15         REGSYM    ---      BYTE      pointnum
      00FF7A60H   BLOCK     CODE     NEAR LAB  LVL=1
      00010A6BH   SYMBOL    XDATA    BYTE      length
      00010A6CH   SYMBOL    XDATA    ---       buff
      00010A8EH   SYMBOL    XDATA    CHAR      start
      00010A8FH   SYMBOL    XDATA    CHAR      end
      R10         REGSYM    ---      CHAR      point
      ---         BLOCKEND  ---      ---       LVL=1
      00FF7A52H   LINE      CODE     ---       #437
      00FF7A60H   LINE      CODE     ---       #438
      00FF7A60H   LINE      CODE     ---       #443
      00FF7A84H   LINE      CODE     ---       #444
      00FF7AA2H   LINE      CODE     ---       #446
      00FF7AAAH   LINE      CODE     ---       #447
      00FF7AB2H   LINE      CODE     ---       #449
      00FF7B0CH   LINE      CODE     ---       #452
      00FF7B49H   LINE      CODE     ---       #453
      00FF7B4FH   LINE      CODE     ---       #454
      00FF7B4FH   LINE      CODE     ---       #455
      00FF7B5BH   LINE      CODE     ---       #456
      00FF7B69H   LINE      CODE     ---       #457
      00FF7B75H   LINE      CODE     ---       #458
      00FF7B77H   LINE      CODE     ---       #460
      00FF7B8DH   LINE      CODE     ---       #461
      00FF7B93H   LINE      CODE     ---       #462
      00FF7B99H   LINE      CODE     ---       #463
      00FF7BA2H   LINE      CODE     ---       #465
      00FF7BD5H   LINE      CODE     ---       #466
      00FF7BEBH   LINE      CODE     ---       #468
      00FF7C00H   LINE      CODE     ---       #470
      00FF7C13H   LINE      CODE     ---       #471
      ---         BLOCKEND  ---      ---       LVL=0
      REG=3       REGSYM    ---      ---       p

      00FF6BBBH   BLOCK     CODE     ---       LVL=0
      00FF6BBBH   LINE      CODE     ---       #515
      00FF6BBBH   LINE      CODE     ---       #520
      00FF6BF2H   LINE      CODE     ---       #528
      00FF6BFBH   LINE      CODE     ---       #529
      00FF6C0AH   LINE      CODE     ---       #531
L251 LINKER/LOCATER V4.66.93.0                                                        10/07/2025  14:20:36  PAGE 88


      00FF6C0CH   LINE      CODE     ---       #532
      00FF6C13H   LINE      CODE     ---       #534
      00FF6C15H   LINE      CODE     ---       #535
      00FF6C1CH   LINE      CODE     ---       #537
      00FF6C21H   LINE      CODE     ---       #538
      00FF6C28H   LINE      CODE     ---       #540
      00FF6C2DH   LINE      CODE     ---       #541
      00FF6C34H   LINE      CODE     ---       #542
      00FF6C3BH   LINE      CODE     ---       #543
      00FF6C42H   LINE      CODE     ---       #545
      00FF6C47H   LINE      CODE     ---       #546
      00FF6C4EH   LINE      CODE     ---       #547
      00FF6C55H   LINE      CODE     ---       #548
      00FF6C5CH   LINE      CODE     ---       #550
      00FF6C61H   LINE      CODE     ---       #551
      00FF6C68H   LINE      CODE     ---       #552
      00FF6C6FH   LINE      CODE     ---       #553
      00FF6C76H   LINE      CODE     ---       #554
      00FF6C7DH   LINE      CODE     ---       #555
      00FF6C84H   LINE      CODE     ---       #556
      00FF6C8BH   LINE      CODE     ---       #558
      00FF6C90H   LINE      CODE     ---       #559
      00FF6C97H   LINE      CODE     ---       #561
      00FF6C9CH   LINE      CODE     ---       #562
      00FF6CA3H   LINE      CODE     ---       #563
      00FF6CAAH   LINE      CODE     ---       #564
      00FF6CB1H   LINE      CODE     ---       #565
      00FF6CB6H   LINE      CODE     ---       #566
      00FF6CBDH   LINE      CODE     ---       #568
      00FF6CC2H   LINE      CODE     ---       #569
      00FF6CC9H   LINE      CODE     ---       #570
      00FF6CCFH   LINE      CODE     ---       #572
      00FF6CD4H   LINE      CODE     ---       #573
      00FF6CDBH   LINE      CODE     ---       #574
      00FF6CE2H   LINE      CODE     ---       #575
      00FF6CE7H   LINE      CODE     ---       #576
      00FF6CEEH   LINE      CODE     ---       #577
      00FF6CF5H   LINE      CODE     ---       #579
      00FF6CFAH   LINE      CODE     ---       #580
      00FF6D01H   LINE      CODE     ---       #582
      00FF6D06H   LINE      CODE     ---       #583
      00FF6D1EH   LINE      CODE     ---       #585
      00FF6D27H   LINE      CODE     ---       #586
      00FF6D2FH   LINE      CODE     ---       #587
      00FF6D38H   LINE      CODE     ---       #588
      00FF6D3FH   LINE      CODE     ---       #589
      00FF6D3FH   LINE      CODE     ---       #591
      00FF6D44H   LINE      CODE     ---       #592
      00FF6D4BH   LINE      CODE     ---       #593
      00FF6D52H   LINE      CODE     ---       #594
      00FF6D59H   LINE      CODE     ---       #595
      00FF6D60H   LINE      CODE     ---       #596
      00FF6D67H   LINE      CODE     ---       #597
      00FF6D6EH   LINE      CODE     ---       #598
      00FF6D75H   LINE      CODE     ---       #599
      00FF6D7CH   LINE      CODE     ---       #600
      00FF6D83H   LINE      CODE     ---       #601
      00FF6D8AH   LINE      CODE     ---       #602
      00FF6D91H   LINE      CODE     ---       #603
      00FF6D98H   LINE      CODE     ---       #604
      00FF6D9EH   LINE      CODE     ---       #605
      00FF6DA5H   LINE      CODE     ---       #606
      00FF6DACH   LINE      CODE     ---       #607
      00FF6DB3H   LINE      CODE     ---       #609
      00FF6DB8H   LINE      CODE     ---       #610
L251 LINKER/LOCATER V4.66.93.0                                                        10/07/2025  14:20:36  PAGE 89


      00FF6DBFH   LINE      CODE     ---       #611
      00FF6DC6H   LINE      CODE     ---       #612
      00FF6DCDH   LINE      CODE     ---       #613
      00FF6DD4H   LINE      CODE     ---       #614
      00FF6DDBH   LINE      CODE     ---       #615
      00FF6DE2H   LINE      CODE     ---       #616
      00FF6DE9H   LINE      CODE     ---       #617
      00FF6DF0H   LINE      CODE     ---       #618
      00FF6DF7H   LINE      CODE     ---       #619
      00FF6DFEH   LINE      CODE     ---       #620
      00FF6E05H   LINE      CODE     ---       #621
      00FF6E0CH   LINE      CODE     ---       #622
      00FF6E12H   LINE      CODE     ---       #623
      00FF6E19H   LINE      CODE     ---       #624
      00FF6E20H   LINE      CODE     ---       #625
      00FF6E27H   LINE      CODE     ---       #627
      00FF6E2CH   LINE      CODE     ---       #628
      00FF6E32H   LINE      CODE     ---       #629
      00FF6E39H   LINE      CODE     ---       #630
      00FF6E3FH   LINE      CODE     ---       #631
      00FF6E46H   LINE      CODE     ---       #633
      00FF6E4BH   LINE      CODE     ---       #634
      00FF6E51H   LINE      CODE     ---       #635
      00FF6E58H   LINE      CODE     ---       #636
      00FF6E5EH   LINE      CODE     ---       #637
      00FF6E65H   LINE      CODE     ---       #639
      00FF6E6AH   LINE      CODE     ---       #640
      00FF6E71H   LINE      CODE     ---       #641
      00FF6E76H   LINE      CODE     ---       #642
      00FF6E7CH   LINE      CODE     ---       #644
      00FF6E81H   LINE      CODE     ---       #645
      00FF6E88H   LINE      CODE     ---       #646
      00FF6E8DH   LINE      CODE     ---       #648
      00FF6E96H   LINE      CODE     ---       #649
      ---         BLOCKEND  ---      ---       LVL=0

      ---         MODULE    ---      ---       zf_device_ips114
      00010D65H   PUBLIC    XDATA    WORD      ips114_pencolor
      00010D67H   PUBLIC    XDATA    WORD      ips114_bgcolor
      00010D69H   PUBLIC    XDATA    INT       ips114_display_dir
      00010D6BH   PUBLIC    XDATA    BYTE      ips114_x_max
      00010D6CH   PUBLIC    XDATA    BYTE      ips114_y_max
      000000D0H   SFRSYM    DATA     BYTE      PSW
      0000009DH   SFRSYM    DATA     BYTE      IRCBAND
      00000097H   SFRSYM    DATA     BYTE      AUXR2
      000000EFH   SFRSYM    DATA     BYTE      AUXINTIF
      000000FDH   SFRSYM    DATA     BYTE      S4CON
      000000ACH   SFRSYM    DATA     BYTE      S3CON
      0000009AH   SFRSYM    DATA     BYTE      S2CON
      000000B7H   SFRSYM    DATA     BYTE      IPH
      000000CDH   SFRSYM    DATA     BYTE      SPSTAT
      000000DDH   SFRSYM    DATA     BYTE      T4T3M
      000000C1H   SFRSYM    DATA     BYTE      WDT_CONTR
      000000DFH   SFRSYM    DATA     BYTE      IP3
      000000F4H   SFRSYM    DATA     BYTE      USBCON
      000000B5H   SFRSYM    DATA     BYTE      IP2
      000000FFH   SFRSYM    DATA     BYTE      RSTCFG
      000000C7H   SFRSYM    DATA     BYTE      IAP_CONTR
      0000008EH   SFRSYM    DATA     BYTE      AUXR
      000000AFH   SFRSYM    DATA     BYTE      IE2
      00000088H   SFRSYM    DATA     BYTE      TCON
      00000089H   SFRSYM    DATA     BYTE      TMOD
      00000098H   SFRSYM    DATA     BYTE      SCON
      000000A0H.2 SFRSYM    DATA     BIT       P22
      000000A0H.1 SFRSYM    DATA     BIT       P21
L251 LINKER/LOCATER V4.66.93.0                                                        10/07/2025  14:20:36  PAGE 90


      000000A0H.0 SFRSYM    DATA     BIT       P20
      00000087H   SFRSYM    DATA     BYTE      PCON
      000000BCH   SFRSYM    DATA     BYTE      ADC_CONTR
      000000D1H   SFRSYM    DATA     BYTE      PSW1
      000000E7H   SFRSYM    DATA     BYTE      CMPCR2
      000000E6H   SFRSYM    DATA     BYTE      CMPCR1
      000000DEH   SFRSYM    DATA     BYTE      ADCCFG
      000000B8H   SFRSYM    DATA     BYTE      IP
      0000008FH   SFRSYM    DATA     BYTE      INTCLKO
      000000EEH   SFRSYM    DATA     BYTE      IP3H
      000000B6H   SFRSYM    DATA     BYTE      IP2H
      000000BFH   SFRSYM    DATA     BYTE      P_SW4
      000000A8H   SFRSYM    DATA     BYTE      IE
      000000BBH   SFRSYM    DATA     BYTE      P_SW3
      000000BAH   SFRSYM    DATA     BYTE      P_SW2
      000000A2H   SFRSYM    DATA     BYTE      P_SW1
      000000CEH   SFRSYM    DATA     BYTE      SPCTL
      000000F8H   SFRSYM    DATA     BYTE      P7
      000000E8H   SFRSYM    DATA     BYTE      P6
      000000C8H   SFRSYM    DATA     BYTE      P5
      000000C0H   SFRSYM    DATA     BYTE      P4
      000000ABH   SFRSYM    DATA     BYTE      WKTCH
      000000B0H   SFRSYM    DATA     BYTE      P3
      000000A0H   SFRSYM    DATA     BYTE      P2
      00000090H   SFRSYM    DATA     BYTE      P1
      00000080H   SFRSYM    DATA     BYTE      P0
      R5          REGSYM    ---      BYTE      dat
      WR12        REGSYM    ---      WORD      x2
      WR14        REGSYM    ---      WORD      y2
      WR14        REGSYM    ---      WORD      color
      WR12        REGSYM    ---      WORD      i
      WR6         REGSYM    ---      INT       dir
      WR6         REGSYM    ---      WORD      pen
      WR4         REGSYM    ---      WORD      bgcolor
      WR12        REGSYM    ---      WORD      x
      WR14        REGSYM    ---      WORD      y
      WR12        REGSYM    ---      WORD      x
      WR14        REGSYM    ---      WORD      y
      REG=3       REGSYM    ---      ---       dat
      WR12        REGSYM    ---      WORD      x
      WR14        REGSYM    ---      WORD      y
      WR12        REGSYM    ---      WORD      x
      WR14        REGSYM    ---      WORD      y
      WR12        REGSYM    ---      WORD      x
      WR14        REGSYM    ---      WORD      y
      WR12        REGSYM    ---      WORD      x
      WR14        REGSYM    ---      WORD      y
      WR12        REGSYM    ---      WORD      y
      R15         REGSYM    ---      BYTE      num
      R14         REGSYM    ---      BYTE      length
      WR12        REGSYM    ---      WORD      y
      R14         REGSYM    ---      BYTE      num
      R15         REGSYM    ---      BYTE      pointnum
      R10         REGSYM    ---      CHAR      point
      REG=3       REGSYM    ---      ---       p
      REG=3       REGSYM    ---      ---       p

      ---         MODULE    ---      ---       zf_device_ips200
      00010D43H   PUBLIC    XDATA    WORD      ips200_pencolor
      00010D45H   PUBLIC    XDATA    WORD      ips200_bgcolor
      00010D47H   PUBLIC    XDATA    INT       ips200_display_dir
      00010D49H   PUBLIC    XDATA    WORD      ips200_x_max
      00010D4BH   PUBLIC    XDATA    WORD      ips200_y_max
      000000D0H   SFRSYM    DATA     BYTE      PSW
      0000009DH   SFRSYM    DATA     BYTE      IRCBAND
L251 LINKER/LOCATER V4.66.93.0                                                        10/07/2025  14:20:36  PAGE 91


      00000097H   SFRSYM    DATA     BYTE      AUXR2
      000000EFH   SFRSYM    DATA     BYTE      AUXINTIF
      000000FDH   SFRSYM    DATA     BYTE      S4CON
      000000ACH   SFRSYM    DATA     BYTE      S3CON
      0000009AH   SFRSYM    DATA     BYTE      S2CON
      000000B7H   SFRSYM    DATA     BYTE      IPH
      000000CDH   SFRSYM    DATA     BYTE      SPSTAT
      000000DDH   SFRSYM    DATA     BYTE      T4T3M
      000000C1H   SFRSYM    DATA     BYTE      WDT_CONTR
      000000DFH   SFRSYM    DATA     BYTE      IP3
      000000F4H   SFRSYM    DATA     BYTE      USBCON
      000000B5H   SFRSYM    DATA     BYTE      IP2
      000000FFH   SFRSYM    DATA     BYTE      RSTCFG
      000000C7H   SFRSYM    DATA     BYTE      IAP_CONTR
      0000008EH   SFRSYM    DATA     BYTE      AUXR
      000000AFH   SFRSYM    DATA     BYTE      IE2
      00000088H   SFRSYM    DATA     BYTE      TCON
      00000089H   SFRSYM    DATA     BYTE      TMOD
      00000098H   SFRSYM    DATA     BYTE      SCON
      000000A0H.2 SFRSYM    DATA     BIT       P22
      000000A0H.1 SFRSYM    DATA     BIT       P21
      000000A0H.0 SFRSYM    DATA     BIT       P20
      00000087H   SFRSYM    DATA     BYTE      PCON
      000000BCH   SFRSYM    DATA     BYTE      ADC_CONTR
      000000D1H   SFRSYM    DATA     BYTE      PSW1
      000000E7H   SFRSYM    DATA     BYTE      CMPCR2
      000000E6H   SFRSYM    DATA     BYTE      CMPCR1
      000000DEH   SFRSYM    DATA     BYTE      ADCCFG
      000000B8H   SFRSYM    DATA     BYTE      IP
      0000008FH   SFRSYM    DATA     BYTE      INTCLKO
      000000EEH   SFRSYM    DATA     BYTE      IP3H
      000000B6H   SFRSYM    DATA     BYTE      IP2H
      000000BFH   SFRSYM    DATA     BYTE      P_SW4
      000000A8H   SFRSYM    DATA     BYTE      IE
      000000BBH   SFRSYM    DATA     BYTE      P_SW3
      000000BAH   SFRSYM    DATA     BYTE      P_SW2
      000000A2H   SFRSYM    DATA     BYTE      P_SW1
      000000CEH   SFRSYM    DATA     BYTE      SPCTL
      000000F8H   SFRSYM    DATA     BYTE      P7
      000000E8H   SFRSYM    DATA     BYTE      P6
      000000C8H   SFRSYM    DATA     BYTE      P5
      000000C0H   SFRSYM    DATA     BYTE      P4
      000000ABH   SFRSYM    DATA     BYTE      WKTCH
      000000B0H   SFRSYM    DATA     BYTE      P3
      000000A0H   SFRSYM    DATA     BYTE      P2
      00000090H   SFRSYM    DATA     BYTE      P1
      00000080H   SFRSYM    DATA     BYTE      P0
      R5          REGSYM    ---      BYTE      dat
      WR12        REGSYM    ---      WORD      x2
      WR14        REGSYM    ---      WORD      y2
      WR14        REGSYM    ---      WORD      color
      WR12        REGSYM    ---      WORD      i
      WR6         REGSYM    ---      INT       dir
      WR6         REGSYM    ---      WORD      pen
      WR4         REGSYM    ---      WORD      bgcolor
      WR12        REGSYM    ---      WORD      x
      WR14        REGSYM    ---      WORD      y
      WR12        REGSYM    ---      WORD      x
      WR14        REGSYM    ---      WORD      y
      REG=3       REGSYM    ---      ---       dat
      WR12        REGSYM    ---      WORD      x
      WR14        REGSYM    ---      WORD      y
      WR12        REGSYM    ---      WORD      x
      WR14        REGSYM    ---      WORD      y
      WR12        REGSYM    ---      WORD      x
L251 LINKER/LOCATER V4.66.93.0                                                        10/07/2025  14:20:36  PAGE 92


      WR14        REGSYM    ---      WORD      y
      WR12        REGSYM    ---      WORD      x
      WR14        REGSYM    ---      WORD      y
      WR12        REGSYM    ---      WORD      y
      R15         REGSYM    ---      BYTE      num
      R14         REGSYM    ---      BYTE      length
      WR12        REGSYM    ---      WORD      y
      R14         REGSYM    ---      BYTE      num
      R15         REGSYM    ---      BYTE      pointnum
      R10         REGSYM    ---      CHAR      point
      REG=3       REGSYM    ---      ---       p
      REG=3       REGSYM    ---      ---       p

      ---         MODULE    ---      ---       zf_device_dl1a
      00010D03H   PUBLIC    XDATA    WORD      dl1a_distance_mm
      00010D05H   PUBLIC    XDATA    BYTE      dl1a_finsh_flag
      000000D0H   SFRSYM    DATA     BYTE      PSW
      0000009DH   SFRSYM    DATA     BYTE      IRCBAND
      00000097H   SFRSYM    DATA     BYTE      AUXR2
      000000EFH   SFRSYM    DATA     BYTE      AUXINTIF
      000000FDH   SFRSYM    DATA     BYTE      S4CON
      000000ACH   SFRSYM    DATA     BYTE      S3CON
      0000009AH   SFRSYM    DATA     BYTE      S2CON
      000000B7H   SFRSYM    DATA     BYTE      IPH
      000000CDH   SFRSYM    DATA     BYTE      SPSTAT
      000000DDH   SFRSYM    DATA     BYTE      T4T3M
      000000C1H   SFRSYM    DATA     BYTE      WDT_CONTR
      000000DFH   SFRSYM    DATA     BYTE      IP3
      000000F4H   SFRSYM    DATA     BYTE      USBCON
      000000B5H   SFRSYM    DATA     BYTE      IP2
      000000FFH   SFRSYM    DATA     BYTE      RSTCFG
      000000C7H   SFRSYM    DATA     BYTE      IAP_CONTR
      0000008EH   SFRSYM    DATA     BYTE      AUXR
      000000AFH   SFRSYM    DATA     BYTE      IE2
      00000088H   SFRSYM    DATA     BYTE      TCON
      00000089H   SFRSYM    DATA     BYTE      TMOD
      00000098H   SFRSYM    DATA     BYTE      SCON
      00000087H   SFRSYM    DATA     BYTE      PCON
      000000BCH   SFRSYM    DATA     BYTE      ADC_CONTR
      000000D1H   SFRSYM    DATA     BYTE      PSW1
      000000E7H   SFRSYM    DATA     BYTE      CMPCR2
      000000E6H   SFRSYM    DATA     BYTE      CMPCR1
      000000DEH   SFRSYM    DATA     BYTE      ADCCFG
      000000B8H   SFRSYM    DATA     BYTE      IP
      0000008FH   SFRSYM    DATA     BYTE      INTCLKO
      000000EEH   SFRSYM    DATA     BYTE      IP3H
      000000B6H   SFRSYM    DATA     BYTE      IP2H
      000000BFH   SFRSYM    DATA     BYTE      P_SW4
      000000A8H   SFRSYM    DATA     BYTE      IE
      000000BBH   SFRSYM    DATA     BYTE      P_SW3
      000000BAH   SFRSYM    DATA     BYTE      P_SW2
      000000A2H   SFRSYM    DATA     BYTE      P_SW1
      000000CEH   SFRSYM    DATA     BYTE      SPCTL
      000000F8H   SFRSYM    DATA     BYTE      P7
      000000E8H   SFRSYM    DATA     BYTE      P6
      000000C8H   SFRSYM    DATA     BYTE      P5
      000000C0H   SFRSYM    DATA     BYTE      P4
      000000ABH   SFRSYM    DATA     BYTE      WKTCH
      000000B0H   SFRSYM    DATA     BYTE      P3
      000000A0H   SFRSYM    DATA     BYTE      P2
      00000090H   SFRSYM    DATA     BYTE      P1
      00000080H   SFRSYM    DATA     BYTE      P0
      00FFC11BH   SYMBOL    HCONST   ---       ?tpl?0001
      00FFC123H   SYMBOL    HCONST   ---       ?tpl?0002
      00FFC129H   SYMBOL    HCONST   ---       ?tpl?0003
L251 LINKER/LOCATER V4.66.93.0                                                        10/07/2025  14:20:36  PAGE 93


      00FFC133H   SYMBOL    HCONST   ---       ?tpl?0004
      00010CFAH   SYMBOL    XDATA    ---       dl1a_iic_struct
      00010D06H   SYMBOL    XDATA    BYTE      dl1a_init_flag
      REG=3       REGSYM    ---      ---       type_is_aperture
      WR30        REGSYM    ---      WORD      timeout_period_mclks
      R5          REGSYM    ---      BYTE      vcsel_period_pclks
      DR24        REGSYM    ---      DWORD     macro_period_ns
      DR28        REGSYM    ---      DWORD     timeout_period_us
      R3          REGSYM    ---      BYTE      vcsel_period_pclks
      DR8         REGSYM    ---      DWORD     macro_period_ns
      WR4         REGSYM    ---      WORD      reg_val
      WR2         REGSYM    ---      WORD      timeout_mclks
      DR8         REGSYM    ---      DWORD     ls_byte
      WR4         REGSYM    ---      WORD      ms_byte
      WR6         REGSYM    ---      WORD      return_data
      REG=3       REGSYM    ---      ---       enables
      WR14        REGSYM    ---      INT       type
      REG=3       REGSYM    ---      ---       timeouts
      R10         REGSYM    ---      BYTE      vhv_init_byte
      R15         REGSYM    ---      BYTE      return_state
      DR12        REGSYM    ---      DWORD     budget_us
      DR12        REGSYM    ---      DWORD     budget_us
      DR28        REGSYM    ---      FLOAT     limit_mcps
      WR14        REGSYM    ---      WORD      limit_mcps_16bit
      R15         REGSYM    ---      BYTE      return_state
      R14         REGSYM    ---      BYTE      reg_data_buffer
      WR12        REGSYM    ---      WORD      i

      ---         MODULE    ---      ---       zf_device_ble6a20
      000000D0H   SFRSYM    DATA     BYTE      PSW
      0000009DH   SFRSYM    DATA     BYTE      IRCBAND
      00000097H   SFRSYM    DATA     BYTE      AUXR2
      000000EFH   SFRSYM    DATA     BYTE      AUXINTIF
      000000FDH   SFRSYM    DATA     BYTE      S4CON
      000000ACH   SFRSYM    DATA     BYTE      S3CON
      0000009AH   SFRSYM    DATA     BYTE      S2CON
      000000B7H   SFRSYM    DATA     BYTE      IPH
      000000CDH   SFRSYM    DATA     BYTE      SPSTAT
      000000DDH   SFRSYM    DATA     BYTE      T4T3M
      000000C1H   SFRSYM    DATA     BYTE      WDT_CONTR
      000000DFH   SFRSYM    DATA     BYTE      IP3
      000000F4H   SFRSYM    DATA     BYTE      USBCON
      000000B5H   SFRSYM    DATA     BYTE      IP2
      000000FFH   SFRSYM    DATA     BYTE      RSTCFG
      000000C7H   SFRSYM    DATA     BYTE      IAP_CONTR
      0000008EH   SFRSYM    DATA     BYTE      AUXR
      000000AFH   SFRSYM    DATA     BYTE      IE2
      00000088H   SFRSYM    DATA     BYTE      TCON
      00000089H   SFRSYM    DATA     BYTE      TMOD
      00000098H   SFRSYM    DATA     BYTE      SCON
      00000087H   SFRSYM    DATA     BYTE      PCON
      000000BCH   SFRSYM    DATA     BYTE      ADC_CONTR
      000000D1H   SFRSYM    DATA     BYTE      PSW1
      000000E7H   SFRSYM    DATA     BYTE      CMPCR2
      000000E6H   SFRSYM    DATA     BYTE      CMPCR1
      000000DEH   SFRSYM    DATA     BYTE      ADCCFG
      000000B8H   SFRSYM    DATA     BYTE      IP
      0000008FH   SFRSYM    DATA     BYTE      INTCLKO
      000000EEH   SFRSYM    DATA     BYTE      IP3H
      000000B6H   SFRSYM    DATA     BYTE      IP2H
      000000BFH   SFRSYM    DATA     BYTE      P_SW4
      000000A8H   SFRSYM    DATA     BYTE      IE
      000000BBH   SFRSYM    DATA     BYTE      P_SW3
      000000BAH   SFRSYM    DATA     BYTE      P_SW2
      000000A2H   SFRSYM    DATA     BYTE      P_SW1
L251 LINKER/LOCATER V4.66.93.0                                                        10/07/2025  14:20:36  PAGE 94


      000000CEH   SFRSYM    DATA     BYTE      SPCTL
      000000F8H   SFRSYM    DATA     BYTE      P7
      000000E8H   SFRSYM    DATA     BYTE      P6
      000000C8H   SFRSYM    DATA     BYTE      P5
      000000C0H   SFRSYM    DATA     BYTE      P4
      000000ABH   SFRSYM    DATA     BYTE      WKTCH
      000000B0H   SFRSYM    DATA     BYTE      P3
      000000A0H   SFRSYM    DATA     BYTE      P2
      00000090H   SFRSYM    DATA     BYTE      P1
      00000080H   SFRSYM    DATA     BYTE      P0
      00010B4DH   SYMBOL    XDATA    ---       ble6a20_buffer
      00010B8DH   SYMBOL    XDATA    ---       ble6a20_fifo
      R15         REGSYM    ---      BYTE      dat
      WR12        REGSYM    ---      WORD      time_cnt
      DR12        REGSYM    ---      DWORD     len
      REG=3       REGSYM    ---      ---       str
      REG=3       REGSYM    ---      ---       buff
      DR8         REGSYM    ---      DWORD     len
      R15         REGSYM    ---      BYTE      return_state

      ---         MODULE    ---      ---       zf_device_wireless_uart
      000000D0H   SFRSYM    DATA     BYTE      PSW
      0000009DH   SFRSYM    DATA     BYTE      IRCBAND
      00000097H   SFRSYM    DATA     BYTE      AUXR2
      000000EFH   SFRSYM    DATA     BYTE      AUXINTIF
      000000FDH   SFRSYM    DATA     BYTE      S4CON
      000000ACH   SFRSYM    DATA     BYTE      S3CON
      0000009AH   SFRSYM    DATA     BYTE      S2CON
      000000B7H   SFRSYM    DATA     BYTE      IPH
      000000CDH   SFRSYM    DATA     BYTE      SPSTAT
      000000DDH   SFRSYM    DATA     BYTE      T4T3M
      000000C1H   SFRSYM    DATA     BYTE      WDT_CONTR
      000000DFH   SFRSYM    DATA     BYTE      IP3
      000000F4H   SFRSYM    DATA     BYTE      USBCON
      000000B5H   SFRSYM    DATA     BYTE      IP2
      000000FFH   SFRSYM    DATA     BYTE      RSTCFG
      000000C7H   SFRSYM    DATA     BYTE      IAP_CONTR
      0000008EH   SFRSYM    DATA     BYTE      AUXR
      000000AFH   SFRSYM    DATA     BYTE      IE2
      00000088H   SFRSYM    DATA     BYTE      TCON
      00000089H   SFRSYM    DATA     BYTE      TMOD
      00000098H   SFRSYM    DATA     BYTE      SCON
      00000087H   SFRSYM    DATA     BYTE      PCON
      000000BCH   SFRSYM    DATA     BYTE      ADC_CONTR
      000000D1H   SFRSYM    DATA     BYTE      PSW1
      000000E7H   SFRSYM    DATA     BYTE      CMPCR2
      000000E6H   SFRSYM    DATA     BYTE      CMPCR1
      000000DEH   SFRSYM    DATA     BYTE      ADCCFG
      000000B8H   SFRSYM    DATA     BYTE      IP
      0000008FH   SFRSYM    DATA     BYTE      INTCLKO
      000000EEH   SFRSYM    DATA     BYTE      IP3H
      000000B6H   SFRSYM    DATA     BYTE      IP2H
      000000BFH   SFRSYM    DATA     BYTE      P_SW4
      000000A8H   SFRSYM    DATA     BYTE      IE
      000000BBH   SFRSYM    DATA     BYTE      P_SW3
      000000BAH   SFRSYM    DATA     BYTE      P_SW2
      000000A2H   SFRSYM    DATA     BYTE      P_SW1
      000000CEH   SFRSYM    DATA     BYTE      SPCTL
      000000F8H   SFRSYM    DATA     BYTE      P7
      000000E8H   SFRSYM    DATA     BYTE      P6
      000000C8H   SFRSYM    DATA     BYTE      P5
      000000C0H   SFRSYM    DATA     BYTE      P4
      000000ABH   SFRSYM    DATA     BYTE      WKTCH
      000000B0H   SFRSYM    DATA     BYTE      P3
      000000A0H   SFRSYM    DATA     BYTE      P2
L251 LINKER/LOCATER V4.66.93.0                                                        10/07/2025  14:20:36  PAGE 95


      00000090H   SFRSYM    DATA     BYTE      P1
      00000080H   SFRSYM    DATA     BYTE      P0
      00010BA4H   SYMBOL    XDATA    ---       wireless_uart_fifo
      00010BBBH   SYMBOL    XDATA    ---       wireless_uart_buffer
      R15         REGSYM    ---      BYTE      dat
      WR12        REGSYM    ---      WORD      time_cnt
      DR12        REGSYM    ---      DWORD     len
      REG=3       REGSYM    ---      ---       str
      REG=3       REGSYM    ---      ---       buff
      DR8         REGSYM    ---      DWORD     len
      R15         REGSYM    ---      BYTE      return_state

      ---         MODULE    ---      ---       zf_device_icm20602
      00010CD2H   PUBLIC    XDATA    INT       icm20602_acc_x
      00010CD4H   PUBLIC    XDATA    INT       icm20602_acc_y
      00010CD6H   PUBLIC    XDATA    INT       icm20602_acc_z
      00010CD8H   PUBLIC    XDATA    INT       icm20602_gyro_x
      00010CDAH   PUBLIC    XDATA    INT       icm20602_gyro_y
      00010CDCH   PUBLIC    XDATA    INT       icm20602_gyro_z
      00010CDEH   PUBLIC    XDATA    ---       icm20602_transition_factor
      000000D0H   SFRSYM    DATA     BYTE      PSW
      0000009DH   SFRSYM    DATA     BYTE      IRCBAND
      00000097H   SFRSYM    DATA     BYTE      AUXR2
      000000EFH   SFRSYM    DATA     BYTE      AUXINTIF
      000000FDH   SFRSYM    DATA     BYTE      S4CON
      000000ACH   SFRSYM    DATA     BYTE      S3CON
      0000009AH   SFRSYM    DATA     BYTE      S2CON
      000000B7H   SFRSYM    DATA     BYTE      IPH
      000000CDH   SFRSYM    DATA     BYTE      SPSTAT
      000000DDH   SFRSYM    DATA     BYTE      T4T3M
      000000C1H   SFRSYM    DATA     BYTE      WDT_CONTR
      000000DFH   SFRSYM    DATA     BYTE      IP3
      000000F4H   SFRSYM    DATA     BYTE      USBCON
      000000B5H   SFRSYM    DATA     BYTE      IP2
      000000FFH   SFRSYM    DATA     BYTE      RSTCFG
      000000C7H   SFRSYM    DATA     BYTE      IAP_CONTR
      0000008EH   SFRSYM    DATA     BYTE      AUXR
      000000AFH   SFRSYM    DATA     BYTE      IE2
      000000C0H.3 SFRSYM    DATA     BIT       P43
      000000C0H.2 SFRSYM    DATA     BIT       P42
      00000088H   SFRSYM    DATA     BYTE      TCON
      00000089H   SFRSYM    DATA     BYTE      TMOD
      000000C0H.1 SFRSYM    DATA     BIT       P41
      00000098H   SFRSYM    DATA     BYTE      SCON
      000000C0H.0 SFRSYM    DATA     BIT       P40
      00000087H   SFRSYM    DATA     BYTE      PCON
      000000BCH   SFRSYM    DATA     BYTE      ADC_CONTR
      000000D1H   SFRSYM    DATA     BYTE      PSW1
      000000E7H   SFRSYM    DATA     BYTE      CMPCR2
      000000E6H   SFRSYM    DATA     BYTE      CMPCR1
      000000DEH   SFRSYM    DATA     BYTE      ADCCFG
      000000B8H   SFRSYM    DATA     BYTE      IP
      0000008FH   SFRSYM    DATA     BYTE      INTCLKO
      000000EEH   SFRSYM    DATA     BYTE      IP3H
      000000B6H   SFRSYM    DATA     BYTE      IP2H
      000000BFH   SFRSYM    DATA     BYTE      P_SW4
      000000A8H   SFRSYM    DATA     BYTE      IE
      000000BBH   SFRSYM    DATA     BYTE      P_SW3
      000000BAH   SFRSYM    DATA     BYTE      P_SW2
      000000A2H   SFRSYM    DATA     BYTE      P_SW1
      000000CEH   SFRSYM    DATA     BYTE      SPCTL
      000000F8H   SFRSYM    DATA     BYTE      P7
      000000E8H   SFRSYM    DATA     BYTE      P6
      000000C8H   SFRSYM    DATA     BYTE      P5
      000000C0H   SFRSYM    DATA     BYTE      P4
L251 LINKER/LOCATER V4.66.93.0                                                        10/07/2025  14:20:36  PAGE 96


      000000ABH   SFRSYM    DATA     BYTE      WKTCH
      000000B0H   SFRSYM    DATA     BYTE      P3
      000000A0H   SFRSYM    DATA     BYTE      P2
      00000090H   SFRSYM    DATA     BYTE      P1
      00000080H   SFRSYM    DATA     BYTE      P0
      R7          REGSYM    ---      BYTE      byte
      R6          REGSYM    ---      BYTE      i
      R7          REGSYM    ---      BYTE      cmd
      R15         REGSYM    ---      BYTE      val
      R10         REGSYM    ---      BYTE      cmd
      REG=3       REGSYM    ---      ---       val
      R10         REGSYM    ---      BYTE      cmd
      REG=3       REGSYM    ---      ---       val
      R11         REGSYM    ---      BYTE      reg
      R10         REGSYM    ---      BYTE      dat
      R7          REGSYM    ---      BYTE      reg
      R3          REGSYM    ---      BYTE      reg
      REG=1       REGSYM    ---      ---       dat
      DR28        REGSYM    ---      DWORD     len
      R14         REGSYM    ---      BYTE      dat
      R15         REGSYM    ---      BYTE      return_state
      WR12        REGSYM    ---      WORD      timeout_count
      R14         REGSYM    ---      BYTE      val
      R15         REGSYM    ---      BYTE      return_state
      WR12        REGSYM    ---      WORD      timeout_count

      ---         MODULE    ---      ---       zf_device_imu660ra
      00010CE6H   PUBLIC    XDATA    INT       imu660ra_acc_x
      00010CE8H   PUBLIC    XDATA    INT       imu660ra_acc_y
      00010CEAH   PUBLIC    XDATA    INT       imu660ra_acc_z
      00010CECH   PUBLIC    XDATA    INT       imu660ra_gyro_x
      00010CEEH   PUBLIC    XDATA    INT       imu660ra_gyro_y
      00010CF0H   PUBLIC    XDATA    INT       imu660ra_gyro_z
      00010CF2H   PUBLIC    XDATA    ---       imu660ra_transition_factor
      000000D0H   SFRSYM    DATA     BYTE      PSW
      0000009DH   SFRSYM    DATA     BYTE      IRCBAND
      00000097H   SFRSYM    DATA     BYTE      AUXR2
      000000EFH   SFRSYM    DATA     BYTE      AUXINTIF
      000000FDH   SFRSYM    DATA     BYTE      S4CON
      000000ACH   SFRSYM    DATA     BYTE      S3CON
      0000009AH   SFRSYM    DATA     BYTE      S2CON
      000000B7H   SFRSYM    DATA     BYTE      IPH
      000000CDH   SFRSYM    DATA     BYTE      SPSTAT
      000000DDH   SFRSYM    DATA     BYTE      T4T3M
      000000C1H   SFRSYM    DATA     BYTE      WDT_CONTR
      000000DFH   SFRSYM    DATA     BYTE      IP3
      000000F4H   SFRSYM    DATA     BYTE      USBCON
      000000B5H   SFRSYM    DATA     BYTE      IP2
      000000FFH   SFRSYM    DATA     BYTE      RSTCFG
      000000C7H   SFRSYM    DATA     BYTE      IAP_CONTR
      0000008EH   SFRSYM    DATA     BYTE      AUXR
      000000AFH   SFRSYM    DATA     BYTE      IE2
      000000C0H.3 SFRSYM    DATA     BIT       P43
      000000C0H.2 SFRSYM    DATA     BIT       P42
      00000088H   SFRSYM    DATA     BYTE      TCON
      00000089H   SFRSYM    DATA     BYTE      TMOD
      000000C0H.1 SFRSYM    DATA     BIT       P41
      00000098H   SFRSYM    DATA     BYTE      SCON
      000000C0H.0 SFRSYM    DATA     BIT       P40
      00000087H   SFRSYM    DATA     BYTE      PCON
      000000BCH   SFRSYM    DATA     BYTE      ADC_CONTR
      000000D1H   SFRSYM    DATA     BYTE      PSW1
      000000E7H   SFRSYM    DATA     BYTE      CMPCR2
      000000E6H   SFRSYM    DATA     BYTE      CMPCR1
      000000DEH   SFRSYM    DATA     BYTE      ADCCFG
L251 LINKER/LOCATER V4.66.93.0                                                        10/07/2025  14:20:36  PAGE 97


      000000B8H   SFRSYM    DATA     BYTE      IP
      0000008FH   SFRSYM    DATA     BYTE      INTCLKO
      000000EEH   SFRSYM    DATA     BYTE      IP3H
      000000B6H   SFRSYM    DATA     BYTE      IP2H
      000000BFH   SFRSYM    DATA     BYTE      P_SW4
      000000A8H   SFRSYM    DATA     BYTE      IE
      000000BBH   SFRSYM    DATA     BYTE      P_SW3
      000000BAH   SFRSYM    DATA     BYTE      P_SW2
      000000A2H   SFRSYM    DATA     BYTE      P_SW1
      000000CEH   SFRSYM    DATA     BYTE      SPCTL
      000000F8H   SFRSYM    DATA     BYTE      P7
      000000E8H   SFRSYM    DATA     BYTE      P6
      000000C8H   SFRSYM    DATA     BYTE      P5
      000000C0H   SFRSYM    DATA     BYTE      P4
      000000ABH   SFRSYM    DATA     BYTE      WKTCH
      000000B0H   SFRSYM    DATA     BYTE      P3
      000000A0H   SFRSYM    DATA     BYTE      P2
      00000090H   SFRSYM    DATA     BYTE      P1
      00000080H   SFRSYM    DATA     BYTE      P0
      R7          REGSYM    ---      BYTE      byte
      R6          REGSYM    ---      BYTE      i
      R7          REGSYM    ---      BYTE      cmd
      R15         REGSYM    ---      BYTE      val
      R7          REGSYM    ---      BYTE      cmd
      DR12        REGSYM    ---      DWORD     len
      R10         REGSYM    ---      BYTE      cmd
      REG=3       REGSYM    ---      ---       val
      R11         REGSYM    ---      BYTE      reg
      R10         REGSYM    ---      BYTE      dat
      R3          REGSYM    ---      BYTE      reg
      REG=1       REGSYM    ---      ---       dat
      DR28        REGSYM    ---      DWORD     len
      R7          REGSYM    ---      BYTE      reg
      R5          REGSYM    ---      BYTE      reg
      REG=3       REGSYM    ---      ---       dat
      R14         REGSYM    ---      BYTE      dat
      R15         REGSYM    ---      BYTE      return_state
      WR12        REGSYM    ---      WORD      timeout_count
      R15         REGSYM    ---      BYTE      return_state

      ---         MODULE    ---      ---       zf_device_imu660rb
      00010D2CH   PUBLIC    XDATA    INT       imu660rb_acc_x
      00010D2EH   PUBLIC    XDATA    INT       imu660rb_acc_y
      00010D30H   PUBLIC    XDATA    INT       imu660rb_acc_z
      00010D32H   PUBLIC    XDATA    INT       imu660rb_gyro_x
      00010D34H   PUBLIC    XDATA    INT       imu660rb_gyro_y
      00010D36H   PUBLIC    XDATA    INT       imu660rb_gyro_z
      000000D0H   SFRSYM    DATA     BYTE      PSW
      0000009DH   SFRSYM    DATA     BYTE      IRCBAND
      00000097H   SFRSYM    DATA     BYTE      AUXR2
      000000EFH   SFRSYM    DATA     BYTE      AUXINTIF
      000000FDH   SFRSYM    DATA     BYTE      S4CON
      000000ACH   SFRSYM    DATA     BYTE      S3CON
      0000009AH   SFRSYM    DATA     BYTE      S2CON
      000000B7H   SFRSYM    DATA     BYTE      IPH
      000000CDH   SFRSYM    DATA     BYTE      SPSTAT
      000000DDH   SFRSYM    DATA     BYTE      T4T3M
      000000C1H   SFRSYM    DATA     BYTE      WDT_CONTR
      000000DFH   SFRSYM    DATA     BYTE      IP3
      000000F4H   SFRSYM    DATA     BYTE      USBCON
      000000B5H   SFRSYM    DATA     BYTE      IP2
      000000FFH   SFRSYM    DATA     BYTE      RSTCFG
      000000C7H   SFRSYM    DATA     BYTE      IAP_CONTR
      0000008EH   SFRSYM    DATA     BYTE      AUXR
      000000AFH   SFRSYM    DATA     BYTE      IE2
L251 LINKER/LOCATER V4.66.93.0                                                        10/07/2025  14:20:36  PAGE 98


      000000C0H.3 SFRSYM    DATA     BIT       P43
      000000C0H.2 SFRSYM    DATA     BIT       P42
      00000088H   SFRSYM    DATA     BYTE      TCON
      00000089H   SFRSYM    DATA     BYTE      TMOD
      000000C0H.1 SFRSYM    DATA     BIT       P41
      00000098H   SFRSYM    DATA     BYTE      SCON
      000000C0H.0 SFRSYM    DATA     BIT       P40
      00000087H   SFRSYM    DATA     BYTE      PCON
      000000BCH   SFRSYM    DATA     BYTE      ADC_CONTR
      000000D1H   SFRSYM    DATA     BYTE      PSW1
      000000E7H   SFRSYM    DATA     BYTE      CMPCR2
      000000E6H   SFRSYM    DATA     BYTE      CMPCR1
      000000DEH   SFRSYM    DATA     BYTE      ADCCFG
      000000B8H   SFRSYM    DATA     BYTE      IP
      0000008FH   SFRSYM    DATA     BYTE      INTCLKO
      000000EEH   SFRSYM    DATA     BYTE      IP3H
      000000B6H   SFRSYM    DATA     BYTE      IP2H
      000000BFH   SFRSYM    DATA     BYTE      P_SW4
      000000A8H   SFRSYM    DATA     BYTE      IE
      000000BBH   SFRSYM    DATA     BYTE      P_SW3
      000000BAH   SFRSYM    DATA     BYTE      P_SW2
      000000A2H   SFRSYM    DATA     BYTE      P_SW1
      000000CEH   SFRSYM    DATA     BYTE      SPCTL
      000000F8H   SFRSYM    DATA     BYTE      P7
      000000E8H   SFRSYM    DATA     BYTE      P6
      000000C8H   SFRSYM    DATA     BYTE      P5
      000000C0H   SFRSYM    DATA     BYTE      P4
      000000ABH   SFRSYM    DATA     BYTE      WKTCH
      000000B0H   SFRSYM    DATA     BYTE      P3
      000000A0H   SFRSYM    DATA     BYTE      P2
      00000090H   SFRSYM    DATA     BYTE      P1
      00000080H   SFRSYM    DATA     BYTE      P0
      R7          REGSYM    ---      BYTE      byte
      R6          REGSYM    ---      BYTE      i
      R7          REGSYM    ---      BYTE      cmd
      R15         REGSYM    ---      BYTE      val
      R10         REGSYM    ---      BYTE      cmd
      REG=3       REGSYM    ---      ---       val
      R10         REGSYM    ---      BYTE      cmd
      REG=3       REGSYM    ---      ---       val
      R11         REGSYM    ---      BYTE      reg
      R10         REGSYM    ---      BYTE      dat
      R7          REGSYM    ---      BYTE      reg
      R3          REGSYM    ---      BYTE      reg
      REG=1       REGSYM    ---      ---       dat
      DR28        REGSYM    ---      DWORD     len
      R14         REGSYM    ---      BYTE      dat
      R15         REGSYM    ---      BYTE      return_state
      WR12        REGSYM    ---      WORD      timeout_count
      WR30        REGSYM    ---      INT       acc_value
      DR24        REGSYM    ---      FLOAT     acc_data
      WR30        REGSYM    ---      INT       gyro_value
      DR24        REGSYM    ---      FLOAT     gyro_data
      R15         REGSYM    ---      BYTE      return_state

      ---         MODULE    ---      ---       zf_device_imu963ra
      00010CB4H   PUBLIC    XDATA    INT       imu963ra_acc_x
      00010CB6H   PUBLIC    XDATA    INT       imu963ra_acc_y
      00010CB8H   PUBLIC    XDATA    INT       imu963ra_acc_z
      00010CBAH   PUBLIC    XDATA    INT       imu963ra_mag_x
      00010CBCH   PUBLIC    XDATA    INT       imu963ra_mag_y
      00010CBEH   PUBLIC    XDATA    INT       imu963ra_mag_z
      00010CC0H   PUBLIC    XDATA    INT       imu963ra_gyro_x
      00010CC2H   PUBLIC    XDATA    INT       imu963ra_gyro_y
      00010CC4H   PUBLIC    XDATA    INT       imu963ra_gyro_z
L251 LINKER/LOCATER V4.66.93.0                                                        10/07/2025  14:20:36  PAGE 99


      00010CC6H   PUBLIC    XDATA    ---       imu963ra_transition_factor
      000000D0H   SFRSYM    DATA     BYTE      PSW
      0000009DH   SFRSYM    DATA     BYTE      IRCBAND
      00000097H   SFRSYM    DATA     BYTE      AUXR2
      000000EFH   SFRSYM    DATA     BYTE      AUXINTIF
      000000FDH   SFRSYM    DATA     BYTE      S4CON
      000000ACH   SFRSYM    DATA     BYTE      S3CON
      0000009AH   SFRSYM    DATA     BYTE      S2CON
      000000B7H   SFRSYM    DATA     BYTE      IPH
      000000CDH   SFRSYM    DATA     BYTE      SPSTAT
      000000DDH   SFRSYM    DATA     BYTE      T4T3M
      000000C1H   SFRSYM    DATA     BYTE      WDT_CONTR
      000000DFH   SFRSYM    DATA     BYTE      IP3
      000000F4H   SFRSYM    DATA     BYTE      USBCON
      000000B5H   SFRSYM    DATA     BYTE      IP2
      000000FFH   SFRSYM    DATA     BYTE      RSTCFG
      000000C7H   SFRSYM    DATA     BYTE      IAP_CONTR
      0000008EH   SFRSYM    DATA     BYTE      AUXR
      000000AFH   SFRSYM    DATA     BYTE      IE2
      000000C0H.3 SFRSYM    DATA     BIT       P43
      000000C0H.2 SFRSYM    DATA     BIT       P42
      00000088H   SFRSYM    DATA     BYTE      TCON
      00000089H   SFRSYM    DATA     BYTE      TMOD
      000000C0H.1 SFRSYM    DATA     BIT       P41
      00000098H   SFRSYM    DATA     BYTE      SCON
      000000C0H.0 SFRSYM    DATA     BIT       P40
      00000087H   SFRSYM    DATA     BYTE      PCON
      000000BCH   SFRSYM    DATA     BYTE      ADC_CONTR
      000000D1H   SFRSYM    DATA     BYTE      PSW1
      000000E7H   SFRSYM    DATA     BYTE      CMPCR2
      000000E6H   SFRSYM    DATA     BYTE      CMPCR1
      000000DEH   SFRSYM    DATA     BYTE      ADCCFG
      000000B8H   SFRSYM    DATA     BYTE      IP
      0000008FH   SFRSYM    DATA     BYTE      INTCLKO
      000000EEH   SFRSYM    DATA     BYTE      IP3H
      000000B6H   SFRSYM    DATA     BYTE      IP2H
      000000BFH   SFRSYM    DATA     BYTE      P_SW4
      000000A8H   SFRSYM    DATA     BYTE      IE
      000000BBH   SFRSYM    DATA     BYTE      P_SW3
      000000BAH   SFRSYM    DATA     BYTE      P_SW2
      000000A2H   SFRSYM    DATA     BYTE      P_SW1
      000000CEH   SFRSYM    DATA     BYTE      SPCTL
      000000F8H   SFRSYM    DATA     BYTE      P7
      000000E8H   SFRSYM    DATA     BYTE      P6
      000000C8H   SFRSYM    DATA     BYTE      P5
      000000C0H   SFRSYM    DATA     BYTE      P4
      000000ABH   SFRSYM    DATA     BYTE      WKTCH
      000000B0H   SFRSYM    DATA     BYTE      P3
      000000A0H   SFRSYM    DATA     BYTE      P2
      00000090H   SFRSYM    DATA     BYTE      P1
      00000080H   SFRSYM    DATA     BYTE      P0
      R7          REGSYM    ---      BYTE      byte
      R6          REGSYM    ---      BYTE      i
      R7          REGSYM    ---      BYTE      cmd
      R15         REGSYM    ---      BYTE      val
      R10         REGSYM    ---      BYTE      cmd
      REG=3       REGSYM    ---      ---       val
      R10         REGSYM    ---      BYTE      cmd
      REG=3       REGSYM    ---      ---       val
      R11         REGSYM    ---      BYTE      reg
      R10         REGSYM    ---      BYTE      dat
      R10         REGSYM    ---      BYTE      reg
      R3          REGSYM    ---      BYTE      reg
      REG=1       REGSYM    ---      ---       dat
      DR28        REGSYM    ---      DWORD     len
L251 LINKER/LOCATER V4.66.93.0                                                        10/07/2025  14:20:36  PAGE 100


      R15         REGSYM    ---      BYTE      addr
      R13         REGSYM    ---      BYTE      reg
      R14         REGSYM    ---      BYTE      dat
      R12         REGSYM    ---      BYTE      return_state
      R10         REGSYM    ---      BYTE      addr
      R15         REGSYM    ---      BYTE      reg
      WR12        REGSYM    ---      WORD      timeout_count
      R10         REGSYM    ---      BYTE      addr
      R15         REGSYM    ---      BYTE      reg
      R15         REGSYM    ---      BYTE      return_state
      R14         REGSYM    ---      BYTE      dat
      WR12        REGSYM    ---      WORD      timeout_count
      R15         REGSYM    ---      BYTE      return_state
      R14         REGSYM    ---      BYTE      dat
      WR12        REGSYM    ---      WORD      timeout_count
      R11         REGSYM    ---      BYTE      temp_status
      R15         REGSYM    ---      BYTE      return_state

      ---         MODULE    ---      ---       zf_device_gps_tau1201
      00010769H   PUBLIC    XDATA    BYTE      gps_tau1201_flag
      000107EAH   PUBLIC    XDATA    ---       gps_tau1201
      0001091EH   PUBLIC    XDATA    INT       gps_gga_state
      00010920H   PUBLIC    XDATA    INT       gps_rmc_state
      000000D0H   SFRSYM    DATA     BYTE      PSW
      0000009DH   SFRSYM    DATA     BYTE      IRCBAND
      00000097H   SFRSYM    DATA     BYTE      AUXR2
      000000EFH   SFRSYM    DATA     BYTE      AUXINTIF
      000000FDH   SFRSYM    DATA     BYTE      S4CON
      000000ACH   SFRSYM    DATA     BYTE      S3CON
      0000009AH   SFRSYM    DATA     BYTE      S2CON
      000000B7H   SFRSYM    DATA     BYTE      IPH
      000000CDH   SFRSYM    DATA     BYTE      SPSTAT
      000000DDH   SFRSYM    DATA     BYTE      T4T3M
      000000C1H   SFRSYM    DATA     BYTE      WDT_CONTR
      000000DFH   SFRSYM    DATA     BYTE      IP3
      000000F4H   SFRSYM    DATA     BYTE      USBCON
      000000B5H   SFRSYM    DATA     BYTE      IP2
      000000FFH   SFRSYM    DATA     BYTE      RSTCFG
      000000C7H   SFRSYM    DATA     BYTE      IAP_CONTR
      0000008EH   SFRSYM    DATA     BYTE      AUXR
      000000AFH   SFRSYM    DATA     BYTE      IE2
      00000088H   SFRSYM    DATA     BYTE      TCON
      00000089H   SFRSYM    DATA     BYTE      TMOD
      00000098H   SFRSYM    DATA     BYTE      SCON
      00000087H   SFRSYM    DATA     BYTE      PCON
      000000BCH   SFRSYM    DATA     BYTE      ADC_CONTR
      000000D1H   SFRSYM    DATA     BYTE      PSW1
      000000E7H   SFRSYM    DATA     BYTE      CMPCR2
      000000E6H   SFRSYM    DATA     BYTE      CMPCR1
      000000DEH   SFRSYM    DATA     BYTE      ADCCFG
      000000B8H   SFRSYM    DATA     BYTE      IP
      0000008FH   SFRSYM    DATA     BYTE      INTCLKO
      000000EEH   SFRSYM    DATA     BYTE      IP3H
      000000B6H   SFRSYM    DATA     BYTE      IP2H
      000000BFH   SFRSYM    DATA     BYTE      P_SW4
      000000A8H   SFRSYM    DATA     BYTE      IE
      000000BBH   SFRSYM    DATA     BYTE      P_SW3
      000000BAH   SFRSYM    DATA     BYTE      P_SW2
      000000A2H   SFRSYM    DATA     BYTE      P_SW1
      000000CEH   SFRSYM    DATA     BYTE      SPCTL
      000000F8H   SFRSYM    DATA     BYTE      P7
      000000E8H   SFRSYM    DATA     BYTE      P6
      000000C8H   SFRSYM    DATA     BYTE      P5
      000000C0H   SFRSYM    DATA     BYTE      P4
      000000ABH   SFRSYM    DATA     BYTE      WKTCH
L251 LINKER/LOCATER V4.66.93.0                                                        10/07/2025  14:20:36  PAGE 101


      000000B0H   SFRSYM    DATA     BYTE      P3
      000000A0H   SFRSYM    DATA     BYTE      P2
      00000090H   SFRSYM    DATA     BYTE      P1
      00000080H   SFRSYM    DATA     BYTE      P0
      00FFC4E0H   SYMBOL    HCONST   ---       ?tpl?0001
      00FFC4E5H   SYMBOL    HCONST   ---       ?tpl?0002
      00FFC501H   SYMBOL    HCONST   ---       ?tpl?0003
      00FFC50CH   SYMBOL    HCONST   ---       ?tpl?0004
      00FFC517H   SYMBOL    HCONST   ---       ?tpl?0005
      00FFC522H   SYMBOL    HCONST   ---       ?tpl?0006
      00FFC52DH   SYMBOL    HCONST   ---       ?tpl?0007
      00FFC538H   SYMBOL    HCONST   ---       ?tpl?0008
      00FFC543H   SYMBOL    HCONST   ---       ?tpl?0009
      00FFC54EH   SYMBOL    HCONST   ---       ?tpl?000A
      00FFC559H   SYMBOL    HCONST   ---       ?tpl?000B
      00FFC564H   SYMBOL    HCONST   ---       ?tpl?000C
      00FFC56FH   SYMBOL    HCONST   ---       ?tpl?000D
      00010752H   SYMBOL    XDATA    ---       gps_tau1201_receiver_fifo
      0001076AH   SYMBOL    XDATA    ---       gps_gga_buffer
      0001081DH   SYMBOL    XDATA    BYTE      gps_tau1201_state
      0001081EH   SYMBOL    XDATA    ---       gps_rmc_buffer
      0001089EH   SYMBOL    XDATA    ---       gps_tau1201_receiver_buffer
      REG=3       REGSYM    ---      ---       str
      REG=7       REGSYM    ---      ---       temp
      R7          REGSYM    ---      BYTE      len
      R10         REGSYM    ---      BYTE      len1
      REG=3       REGSYM    ---      ---       s
      REG=3       REGSYM    ---      ---       s
      REG=3       REGSYM    ---      ---       s
      REG=7       REGSYM    ---      ---       time
      R6          REGSYM    ---      BYTE      day_num
      REG=7       REGSYM    ---      ---       line
      REG=3       REGSYM    ---      ---       gps
      REG=0       REGSYM    ---      ---       line
      R15         REGSYM    ---      BYTE      state
      DR12        REGSYM    ---      DWORD     data_len

      ---         MODULE    ---      ---       zf_device_tsl1401
      00010550H   PUBLIC    XDATA    BYTE      tsl1401_finish_flag
      00010551H   PUBLIC    XDATA    ---       tsl1401_data
      000000D0H   SFRSYM    DATA     BYTE      PSW
      0000009DH   SFRSYM    DATA     BYTE      IRCBAND
      00000097H   SFRSYM    DATA     BYTE      AUXR2
      000000EFH   SFRSYM    DATA     BYTE      AUXINTIF
      000000FDH   SFRSYM    DATA     BYTE      S4CON
      000000ACH   SFRSYM    DATA     BYTE      S3CON
      0000009AH   SFRSYM    DATA     BYTE      S2CON
      000000B7H   SFRSYM    DATA     BYTE      IPH
      000000CDH   SFRSYM    DATA     BYTE      SPSTAT
      000000DDH   SFRSYM    DATA     BYTE      T4T3M
      000000C1H   SFRSYM    DATA     BYTE      WDT_CONTR
      000000DFH   SFRSYM    DATA     BYTE      IP3
      000000F4H   SFRSYM    DATA     BYTE      USBCON
      000000B5H   SFRSYM    DATA     BYTE      IP2
      000000FFH   SFRSYM    DATA     BYTE      RSTCFG
      000000C7H   SFRSYM    DATA     BYTE      IAP_CONTR
      0000008EH   SFRSYM    DATA     BYTE      AUXR
      000000AFH   SFRSYM    DATA     BYTE      IE2
      00000088H   SFRSYM    DATA     BYTE      TCON
      00000089H   SFRSYM    DATA     BYTE      TMOD
      00000098H   SFRSYM    DATA     BYTE      SCON
      00000087H   SFRSYM    DATA     BYTE      PCON
      000000BCH   SFRSYM    DATA     BYTE      ADC_CONTR
      000000D1H   SFRSYM    DATA     BYTE      PSW1
      000000E7H   SFRSYM    DATA     BYTE      CMPCR2
L251 LINKER/LOCATER V4.66.93.0                                                        10/07/2025  14:20:36  PAGE 102


      000000E6H   SFRSYM    DATA     BYTE      CMPCR1
      000000DEH   SFRSYM    DATA     BYTE      ADCCFG
      000000B8H   SFRSYM    DATA     BYTE      IP
      0000008FH   SFRSYM    DATA     BYTE      INTCLKO
      000000EEH   SFRSYM    DATA     BYTE      IP3H
      000000B6H   SFRSYM    DATA     BYTE      IP2H
      000000BFH   SFRSYM    DATA     BYTE      P_SW4
      000000A8H   SFRSYM    DATA     BYTE      IE
      000000BBH   SFRSYM    DATA     BYTE      P_SW3
      000000BAH   SFRSYM    DATA     BYTE      P_SW2
      000000A2H   SFRSYM    DATA     BYTE      P_SW1
      000000CEH   SFRSYM    DATA     BYTE      SPCTL
      000000F8H   SFRSYM    DATA     BYTE      P7
      000000E8H   SFRSYM    DATA     BYTE      P6
      000000C8H   SFRSYM    DATA     BYTE      P5
      000000C0H   SFRSYM    DATA     BYTE      P4
      000000ABH   SFRSYM    DATA     BYTE      WKTCH
      000000B0H   SFRSYM    DATA     BYTE      P3
      000000A0H   SFRSYM    DATA     BYTE      P2
      00000090H   SFRSYM    DATA     BYTE      P1
      00000080H   SFRSYM    DATA     BYTE      P0
      00010751H   SYMBOL    XDATA    BYTE      tsl1401_init_state
      R15         REGSYM    ---      BYTE      i
      WR14        REGSYM    ---      INT       uart_n
      R13         REGSYM    ---      BYTE      index
      R12         REGSYM    ---      BYTE      i

      ---         MODULE    ---      ---       seekfree_assistant
      0001092AH   PUBLIC    XDATA    ---       seekfree_assistant_oscilloscope_data
      00010965H   PUBLIC    XDATA    ---       seekfree_assistant_parameter_update_flag
      0001096DH   PUBLIC    XDATA    ---       seekfree_assistant_parameter
      000000D0H   SFRSYM    DATA     BYTE      PSW
      0000009DH   SFRSYM    DATA     BYTE      IRCBAND
      00000097H   SFRSYM    DATA     BYTE      AUXR2
      000000EFH   SFRSYM    DATA     BYTE      AUXINTIF
      000000FDH   SFRSYM    DATA     BYTE      S4CON
      000000ACH   SFRSYM    DATA     BYTE      S3CON
      0000009AH   SFRSYM    DATA     BYTE      S2CON
      000000B7H   SFRSYM    DATA     BYTE      IPH
      000000CDH   SFRSYM    DATA     BYTE      SPSTAT
      000000DDH   SFRSYM    DATA     BYTE      T4T3M
      000000C1H   SFRSYM    DATA     BYTE      WDT_CONTR
      000000DFH   SFRSYM    DATA     BYTE      IP3
      000000F4H   SFRSYM    DATA     BYTE      USBCON
      000000B5H   SFRSYM    DATA     BYTE      IP2
      000000FFH   SFRSYM    DATA     BYTE      RSTCFG
      000000C7H   SFRSYM    DATA     BYTE      IAP_CONTR
      0000008EH   SFRSYM    DATA     BYTE      AUXR
      000000AFH   SFRSYM    DATA     BYTE      IE2
      00000088H   SFRSYM    DATA     BYTE      TCON
      00000089H   SFRSYM    DATA     BYTE      TMOD
      00000098H   SFRSYM    DATA     BYTE      SCON
      00000087H   SFRSYM    DATA     BYTE      PCON
      000000BCH   SFRSYM    DATA     BYTE      ADC_CONTR
      000000D1H   SFRSYM    DATA     BYTE      PSW1
      000000E7H   SFRSYM    DATA     BYTE      CMPCR2
      000000E6H   SFRSYM    DATA     BYTE      CMPCR1
      000000DEH   SFRSYM    DATA     BYTE      ADCCFG
      000000B8H   SFRSYM    DATA     BYTE      IP
      0000008FH   SFRSYM    DATA     BYTE      INTCLKO
      000000EEH   SFRSYM    DATA     BYTE      IP3H
      000000B6H   SFRSYM    DATA     BYTE      IP2H
      000000BFH   SFRSYM    DATA     BYTE      P_SW4
      000000A8H   SFRSYM    DATA     BYTE      IE
      000000BBH   SFRSYM    DATA     BYTE      P_SW3
L251 LINKER/LOCATER V4.66.93.0                                                        10/07/2025  14:20:36  PAGE 103


      000000BAH   SFRSYM    DATA     BYTE      P_SW2
      000000A2H   SFRSYM    DATA     BYTE      P_SW1
      000000CEH   SFRSYM    DATA     BYTE      SPCTL
      000000F8H   SFRSYM    DATA     BYTE      P7
      000000A8H.7 SFRSYM    DATA     BIT       EA
      000000E8H   SFRSYM    DATA     BYTE      P6
      000000C8H   SFRSYM    DATA     BYTE      P5
      000000C0H   SFRSYM    DATA     BYTE      P4
      000000ABH   SFRSYM    DATA     BYTE      WKTCH
      000000B0H   SFRSYM    DATA     BYTE      P3
      000000A0H   SFRSYM    DATA     BYTE      P2
      00000090H   SFRSYM    DATA     BYTE      P1
      00000080H   SFRSYM    DATA     BYTE      P0
      00010922H   SYMBOL    XDATA    ---       seekfree_assistant_camera_dot_data
      0001094EH   SYMBOL    XDATA    ---       seekfree_assistant_fifo
      0001098DH   SYMBOL    XDATA    ---       seekfree_assistant_camera_buffer
      000109D7H   SYMBOL    XDATA    ---       seekfree_assistant_camera_data
      000109DFH   SYMBOL    XDATA    ---       seekfree_assistant_buffer
      00FFC434H   SYMBOL    HCONST   ---       ?tpl?0001
      00FFC458H   SYMBOL    HCONST   ---       ?tpl?0002
      REG=6       REGSYM    ---      ---       buffer
      DR28        REGSYM    ---      DWORD     length
      R11         REGSYM    ---      BYTE      temp_sum
      WR12        REGSYM    ---      INT       camera_type
      R9          REGSYM    ---      BYTE      boundary_num
      WR14        REGSYM    ---      WORD      width
      WR6         REGSYM    ---      INT       camera_type
      REG=0       REGSYM    ---      ---       image_addr
      WR8         REGSYM    ---      WORD      width
      REG=7       REGSYM    ---      ---       seekfree_assistant_oscilloscope
      R15         REGSYM    ---      BYTE      packet_size
      R14         REGSYM    ---      BYTE      i
      REG=3       REGSYM    ---      ---       buffer
      WR8         REGSYM    ---      INT       boundary_type
      WR2         REGSYM    ---      WORD      dot_num
      REG=7       REGSYM    ---      ---       dot_x1
      R6          REGSYM    ---      BYTE      i
      R7          REGSYM    ---      BYTE      boundary_num
      R5          REGSYM    ---      BYTE      boundary_data_type
      R15         REGSYM    ---      BYTE      temp_sum
      WR12        REGSYM    ---      WORD      struct_len

      ---         MODULE    ---      ---       seekfree_assistant_interface
      00010D83H   PUBLIC    XDATA    ---       seekfree_assistant_receive_callback
      00010D85H   PUBLIC    XDATA    ---       seekfree_assistant_transfer_callback
      000000D0H   SFRSYM    DATA     BYTE      PSW
      0000009DH   SFRSYM    DATA     BYTE      IRCBAND
      00000097H   SFRSYM    DATA     BYTE      AUXR2
      000000EFH   SFRSYM    DATA     BYTE      AUXINTIF
      000000FDH   SFRSYM    DATA     BYTE      S4CON
      000000ACH   SFRSYM    DATA     BYTE      S3CON
      0000009AH   SFRSYM    DATA     BYTE      S2CON
      000000B7H   SFRSYM    DATA     BYTE      IPH
      000000CDH   SFRSYM    DATA     BYTE      SPSTAT
      000000DDH   SFRSYM    DATA     BYTE      T4T3M
      000000C1H   SFRSYM    DATA     BYTE      WDT_CONTR
      000000DFH   SFRSYM    DATA     BYTE      IP3
      000000F4H   SFRSYM    DATA     BYTE      USBCON
      000000B5H   SFRSYM    DATA     BYTE      IP2
      000000FFH   SFRSYM    DATA     BYTE      RSTCFG
      000000C7H   SFRSYM    DATA     BYTE      IAP_CONTR
      0000008EH   SFRSYM    DATA     BYTE      AUXR
      000000AFH   SFRSYM    DATA     BYTE      IE2
      00000088H   SFRSYM    DATA     BYTE      TCON
      00000089H   SFRSYM    DATA     BYTE      TMOD
L251 LINKER/LOCATER V4.66.93.0                                                        10/07/2025  14:20:36  PAGE 104


      00000098H   SFRSYM    DATA     BYTE      SCON
      00000087H   SFRSYM    DATA     BYTE      PCON
      000000BCH   SFRSYM    DATA     BYTE      ADC_CONTR
      000000D1H   SFRSYM    DATA     BYTE      PSW1
      000000E7H   SFRSYM    DATA     BYTE      CMPCR2
      000000E6H   SFRSYM    DATA     BYTE      CMPCR1
      000000DEH   SFRSYM    DATA     BYTE      ADCCFG
      000000B8H   SFRSYM    DATA     BYTE      IP
      0000008FH   SFRSYM    DATA     BYTE      INTCLKO
      000000EEH   SFRSYM    DATA     BYTE      IP3H
      000000B6H   SFRSYM    DATA     BYTE      IP2H
      000000BFH   SFRSYM    DATA     BYTE      P_SW4
      000000A8H   SFRSYM    DATA     BYTE      IE
      000000BBH   SFRSYM    DATA     BYTE      P_SW3
      000000BAH   SFRSYM    DATA     BYTE      P_SW2
      000000A2H   SFRSYM    DATA     BYTE      P_SW1
      000000CEH   SFRSYM    DATA     BYTE      SPCTL
      000000F8H   SFRSYM    DATA     BYTE      P7
      000000E8H   SFRSYM    DATA     BYTE      P6
      000000C8H   SFRSYM    DATA     BYTE      P5
      000000C0H   SFRSYM    DATA     BYTE      P4
      000000ABH   SFRSYM    DATA     BYTE      WKTCH
      000000B0H   SFRSYM    DATA     BYTE      P3
      000000A0H   SFRSYM    DATA     BYTE      P2
      00000090H   SFRSYM    DATA     BYTE      P1
      00000080H   SFRSYM    DATA     BYTE      P0
      WR6         REGSYM    ---      INT       transfer_device

      ---         MODULE    ---      ---       isr
      00FFA79EH   PUBLIC    CODE     ---       TM11_IRQHandler
      00FF99F1H   PUBLIC    CODE     ---       DMA_UART1_IRQHandler
      00FF9E03H   PUBLIC    CODE     ---       DMA_UART2_IRQHandler
      00FF9E8CH   PUBLIC    CODE     ---       DMA_UART3_IRQHandler
      00FF9F15H   PUBLIC    CODE     ---       DMA_UART4_IRQHandler
      00FFA980H   PUBLIC    CODE     ---       TM0_IRQHandler
      00FFA9BEH   PUBLIC    CODE     ---       TM1_IRQHandler
      00FFA9FCH   PUBLIC    CODE     ---       TM2_IRQHandler
      00FFAA3AH   PUBLIC    CODE     ---       TM3_IRQHandler
      00FFAA78H   PUBLIC    CODE     ---       TM4_IRQHandler
      000000D0H   SFRSYM    DATA     BYTE      PSW
      0000009DH   SFRSYM    DATA     BYTE      IRCBAND
      00000097H   SFRSYM    DATA     BYTE      AUXR2
      000000EFH   SFRSYM    DATA     BYTE      AUXINTIF
      000000FDH   SFRSYM    DATA     BYTE      S4CON
      000000ACH   SFRSYM    DATA     BYTE      S3CON
      0000009AH   SFRSYM    DATA     BYTE      S2CON
      000000B7H   SFRSYM    DATA     BYTE      IPH
      000000CDH   SFRSYM    DATA     BYTE      SPSTAT
      000000DDH   SFRSYM    DATA     BYTE      T4T3M
      000000C1H   SFRSYM    DATA     BYTE      WDT_CONTR
      000000DFH   SFRSYM    DATA     BYTE      IP3
      000000F4H   SFRSYM    DATA     BYTE      USBCON
      000000B5H   SFRSYM    DATA     BYTE      IP2
      000000FFH   SFRSYM    DATA     BYTE      RSTCFG
      000000C7H   SFRSYM    DATA     BYTE      IAP_CONTR
      0000008EH   SFRSYM    DATA     BYTE      AUXR
      000000AFH   SFRSYM    DATA     BYTE      IE2
      00000088H   SFRSYM    DATA     BYTE      TCON
      00000089H   SFRSYM    DATA     BYTE      TMOD
      00000098H   SFRSYM    DATA     BYTE      SCON
      00000087H   SFRSYM    DATA     BYTE      PCON
      000000BCH   SFRSYM    DATA     BYTE      ADC_CONTR
      000000D1H   SFRSYM    DATA     BYTE      PSW1
      000000E7H   SFRSYM    DATA     BYTE      CMPCR2
      000000E6H   SFRSYM    DATA     BYTE      CMPCR1
L251 LINKER/LOCATER V4.66.93.0                                                        10/07/2025  14:20:36  PAGE 105


      000000DEH   SFRSYM    DATA     BYTE      ADCCFG
      000000B8H   SFRSYM    DATA     BYTE      IP
      0000008FH   SFRSYM    DATA     BYTE      INTCLKO
      000000EEH   SFRSYM    DATA     BYTE      IP3H
      000000B6H   SFRSYM    DATA     BYTE      IP2H
      000000BFH   SFRSYM    DATA     BYTE      P_SW4
      000000A8H   SFRSYM    DATA     BYTE      IE
      000000BBH   SFRSYM    DATA     BYTE      P_SW3
      000000BAH   SFRSYM    DATA     BYTE      P_SW2
      000000A2H   SFRSYM    DATA     BYTE      P_SW1
      000000CEH   SFRSYM    DATA     BYTE      SPCTL
      000000F8H   SFRSYM    DATA     BYTE      P7
      000000E8H   SFRSYM    DATA     BYTE      P6
      000000C8H   SFRSYM    DATA     BYTE      P5
      000000C0H   SFRSYM    DATA     BYTE      P4
      000000ABH   SFRSYM    DATA     BYTE      WKTCH
      000000B0H   SFRSYM    DATA     BYTE      P3
      000000A0H   SFRSYM    DATA     BYTE      P2
      00000090H   SFRSYM    DATA     BYTE      P1
      00000080H   SFRSYM    DATA     BYTE      P0

      00FF99F1H   BLOCK     CODE     ---       LVL=0
      00FF9A05H   BLOCK     CODE     NEAR LAB  LVL=1
      00010D8FH   SYMBOL    XDATA    BYTE      dwon_count
      ---         BLOCKEND  ---      ---       LVL=1
      00FF99F1H   LINE      CODE     ---       #40
      00FF9A05H   LINE      CODE     ---       #41
      00FF9A05H   LINE      CODE     ---       #43
      00FF9A13H   LINE      CODE     ---       #45
      00FF9A23H   LINE      CODE     ---       #46
      00FF9A28H   LINE      CODE     ---       #49
      00FF9A2FH   LINE      CODE     ---       #51
      00FF9A3EH   LINE      CODE     ---       #53
      00FF9A41H   LINE      CODE     ---       #54
      00FF9A43H   LINE      CODE     ---       #58
      00FF9A48H   LINE      CODE     ---       #59
      00FF9A48H   LINE      CODE     ---       #61
      00FF9A52H   LINE      CODE     ---       #63
      00FF9A5EH   LINE      CODE     ---       #64
      00FF9A5EH   LINE      CODE     ---       #67
      00FF9A6CH   LINE      CODE     ---       #69
      00FF9A7CH   LINE      CODE     ---       #70
      00FF9A81H   LINE      CODE     ---       #74
      ---         BLOCKEND  ---      ---       LVL=0

      00FF9E03H   BLOCK     CODE     ---       LVL=0
      00FF9E03H   LINE      CODE     ---       #79
      00FF9E17H   LINE      CODE     ---       #82
      00FF9E25H   LINE      CODE     ---       #84
      00FF9E35H   LINE      CODE     ---       #85
      00FF9E3CH   LINE      CODE     ---       #87
      00FF9E46H   LINE      CODE     ---       #89
      00FF9E52H   LINE      CODE     ---       #90
      00FF9E52H   LINE      CODE     ---       #93
      00FF9E60H   LINE      CODE     ---       #95
      00FF9E70H   LINE      CODE     ---       #96
      00FF9E77H   LINE      CODE     ---       #101
      ---         BLOCKEND  ---      ---       LVL=0

      00FF9E8CH   BLOCK     CODE     ---       LVL=0
      00FF9E8CH   LINE      CODE     ---       #104
      00FF9EA0H   LINE      CODE     ---       #107
      00FF9EAEH   LINE      CODE     ---       #109
      00FF9EBEH   LINE      CODE     ---       #110
      00FF9EC5H   LINE      CODE     ---       #112
L251 LINKER/LOCATER V4.66.93.0                                                        10/07/2025  14:20:36  PAGE 106


      00FF9ECFH   LINE      CODE     ---       #115
      00FF9EDBH   LINE      CODE     ---       #117
      00FF9EDBH   LINE      CODE     ---       #120
      00FF9EE9H   LINE      CODE     ---       #122
      00FF9EF9H   LINE      CODE     ---       #123
      00FF9F00H   LINE      CODE     ---       #128
      ---         BLOCKEND  ---      ---       LVL=0

      00FF9F15H   BLOCK     CODE     ---       LVL=0
      00FF9F15H   LINE      CODE     ---       #131
      00FF9F29H   LINE      CODE     ---       #134
      00FF9F37H   LINE      CODE     ---       #136
      00FF9F47H   LINE      CODE     ---       #137
      00FF9F4EH   LINE      CODE     ---       #139
      00FF9F58H   LINE      CODE     ---       #141
      00FF9F64H   LINE      CODE     ---       #143
      00FF9F64H   LINE      CODE     ---       #146
      00FF9F72H   LINE      CODE     ---       #148
      00FF9F82H   LINE      CODE     ---       #149
      00FF9F89H   LINE      CODE     ---       #154
      ---         BLOCKEND  ---      ---       LVL=0

      00FFA980H   BLOCK     CODE     ---       LVL=0
      00FFA980H   LINE      CODE     ---       #158
      00FFA994H   LINE      CODE     ---       #160
      00FFA997H   LINE      CODE     ---       #162
      00FFA9A1H   LINE      CODE     ---       #164
      00FFA9A9H   LINE      CODE     ---       #165
      ---         BLOCKEND  ---      ---       LVL=0

      00FFA9BEH   BLOCK     CODE     ---       LVL=0
      00FFA9BEH   LINE      CODE     ---       #167
      00FFA9D2H   LINE      CODE     ---       #169
      00FFA9D5H   LINE      CODE     ---       #171
      00FFA9DFH   LINE      CODE     ---       #173
      00FFA9E7H   LINE      CODE     ---       #174
      ---         BLOCKEND  ---      ---       LVL=0

      00FFA9FCH   BLOCK     CODE     ---       LVL=0
      00FFA9FCH   LINE      CODE     ---       #176
      00FFAA10H   LINE      CODE     ---       #178
      00FFAA13H   LINE      CODE     ---       #180
      00FFAA1DH   LINE      CODE     ---       #182
      00FFAA25H   LINE      CODE     ---       #183
      ---         BLOCKEND  ---      ---       LVL=0

      00FFAA3AH   BLOCK     CODE     ---       LVL=0
      00FFAA3AH   LINE      CODE     ---       #185
      00FFAA4EH   LINE      CODE     ---       #187
      00FFAA51H   LINE      CODE     ---       #189
      00FFAA5BH   LINE      CODE     ---       #191
      00FFAA63H   LINE      CODE     ---       #192
      ---         BLOCKEND  ---      ---       LVL=0

      00FFAA78H   BLOCK     CODE     ---       LVL=0
      00FFAA78H   LINE      CODE     ---       #195
      00FFAA8CH   LINE      CODE     ---       #197
      00FFAA8FH   LINE      CODE     ---       #199
      00FFAA99H   LINE      CODE     ---       #201
      00FFAAA1H   LINE      CODE     ---       #202
      ---         BLOCKEND  ---      ---       LVL=0

      00FFA79EH   BLOCK     CODE     ---       LVL=0
      00FFA79EH   LINE      CODE     ---       #205
      00FFA7B2H   LINE      CODE     ---       #207
L251 LINKER/LOCATER V4.66.93.0                                                        10/07/2025  14:20:36  PAGE 107


      00FFA7C2H   LINE      CODE     ---       #209
      00FFA7CCH   LINE      CODE     ---       #211
      00FFA7D4H   LINE      CODE     ---       #212
      ---         BLOCKEND  ---      ---       LVL=0

      ---         MODULE    ---      ---       main
      00FF0066H   PUBLIC    CODE     ---       main
      00FF95C5H   PUBLIC    CODE     ---       pit_handler0
      00FFAD3CH   PUBLIC    CODE     ---       pit_handler1
      00FF8C7CH   PUBLIC    CODE     ---       _m
      00010D6DH   PUBLIC    XDATA    INT       Init_Time
      00010D6FH   PUBLIC    XDATA    INT       T4
      00010D71H   PUBLIC    XDATA    INT       T
      00010D73H   PUBLIC    XDATA    BYTE      PIT0_Flag
      00010D74H   PUBLIC    XDATA    BYTE      PIT1_Flag
      000000D0H   SFRSYM    DATA     BYTE      PSW
      0000009DH   SFRSYM    DATA     BYTE      IRCBAND
      00000097H   SFRSYM    DATA     BYTE      AUXR2
      000000EFH   SFRSYM    DATA     BYTE      AUXINTIF
      000000FDH   SFRSYM    DATA     BYTE      S4CON
      000000ACH   SFRSYM    DATA     BYTE      S3CON
      0000009AH   SFRSYM    DATA     BYTE      S2CON
      000000B7H   SFRSYM    DATA     BYTE      IPH
      000000CDH   SFRSYM    DATA     BYTE      SPSTAT
      000000DDH   SFRSYM    DATA     BYTE      T4T3M
      000000C1H   SFRSYM    DATA     BYTE      WDT_CONTR
      000000DFH   SFRSYM    DATA     BYTE      IP3
      000000F4H   SFRSYM    DATA     BYTE      USBCON
      000000B5H   SFRSYM    DATA     BYTE      IP2
      000000FFH   SFRSYM    DATA     BYTE      RSTCFG
      000000C7H   SFRSYM    DATA     BYTE      IAP_CONTR
      0000008EH   SFRSYM    DATA     BYTE      AUXR
      000000AFH   SFRSYM    DATA     BYTE      IE2
      00000088H   SFRSYM    DATA     BYTE      TCON
      00000089H   SFRSYM    DATA     BYTE      TMOD
      00000098H   SFRSYM    DATA     BYTE      SCON
      00000087H   SFRSYM    DATA     BYTE      PCON
      000000BCH   SFRSYM    DATA     BYTE      ADC_CONTR
      000000D1H   SFRSYM    DATA     BYTE      PSW1
      000000E7H   SFRSYM    DATA     BYTE      CMPCR2
      000000E6H   SFRSYM    DATA     BYTE      CMPCR1
      000000DEH   SFRSYM    DATA     BYTE      ADCCFG
      000000B8H   SFRSYM    DATA     BYTE      IP
      0000008FH   SFRSYM    DATA     BYTE      INTCLKO
      000000EEH   SFRSYM    DATA     BYTE      IP3H
      000000B6H   SFRSYM    DATA     BYTE      IP2H
      000000BFH   SFRSYM    DATA     BYTE      P_SW4
      000000A8H   SFRSYM    DATA     BYTE      IE
      000000BBH   SFRSYM    DATA     BYTE      P_SW3
      000000BAH   SFRSYM    DATA     BYTE      P_SW2
      000000A2H   SFRSYM    DATA     BYTE      P_SW1
      000000CEH   SFRSYM    DATA     BYTE      SPCTL
      000000F8H   SFRSYM    DATA     BYTE      P7
      000000A8H.7 SFRSYM    DATA     BIT       EA
      000000E8H   SFRSYM    DATA     BYTE      P6
      000000C8H   SFRSYM    DATA     BYTE      P5
      000000C0H   SFRSYM    DATA     BYTE      P4
      000000ABH   SFRSYM    DATA     BYTE      WKTCH
      000000B0H   SFRSYM    DATA     BYTE      P3
      000000A0H   SFRSYM    DATA     BYTE      P2
      00000090H   SFRSYM    DATA     BYTE      P1
      00000080H   SFRSYM    DATA     BYTE      P0

      00FF0066H   BLOCK     CODE     ---       LVL=0
      00FF0066H   LINE      CODE     ---       #11
L251 LINKER/LOCATER V4.66.93.0                                                        10/07/2025  14:20:36  PAGE 108


      ---         BLOCKEND  ---      ---       LVL=0

      00FF8C7CH   BLOCK     CODE     ---       LVL=0
      00FF8C7CH   LINE      CODE     ---       #11
      00FF8C7CH   LINE      CODE     ---       #13
      00FF8C87H   LINE      CODE     ---       #14
      00FF8C8AH   LINE      CODE     ---       #16
      00FF8C8DH   LINE      CODE     ---       #17
      00FF8C97H   LINE      CODE     ---       #18
      00FF8CA1H   LINE      CODE     ---       #19
      00FF8CA1H   LINE      CODE     ---       #21
      00FF8CCDH   LINE      CODE     ---       #23
      00FF8CCDH   LINE      CODE     ---       #25
      00FF8CD4H   LINE      CODE     ---       #27
      00FF8CD7H   LINE      CODE     ---       #28
      00FF8CDCH   LINE      CODE     ---       #29
      00FF8CDCH   LINE      CODE     ---       #30
      00FF8CE2H   LINE      CODE     ---       #32
      00FF8CE4H   LINE      CODE     ---       #33
      00FF8CEBH   LINE      CODE     ---       #34
      00FF8CF0H   LINE      CODE     ---       #35
      00FF8CF2H   LINE      CODE     ---       #36
      00FF8CF2H   LINE      CODE     ---       #37
      00FF8CF4H   LINE      CODE     ---       #39
      00FF8CF4H   LINE      CODE     ---       #41
      00FF8CF7H   LINE      CODE     ---       #42
      00FF8CF9H   LINE      CODE     ---       #44
      00FF8CF9H   LINE      CODE     ---       #46
      00FF8CFCH   LINE      CODE     ---       #47
      00FF8CFEH   LINE      CODE     ---       #49
      00FF8CFEH   LINE      CODE     ---       #51
      00FF8D01H   LINE      CODE     ---       #52
      00FF8D03H   LINE      CODE     ---       #54
      00FF8D03H   LINE      CODE     ---       #56
      00FF8D06H   LINE      CODE     ---       #57
      00FF8D08H   LINE      CODE     ---       #59
      00FF8D08H   LINE      CODE     ---       #61
      00FF8D0FH   LINE      CODE     ---       #63
      00FF8D11H   LINE      CODE     ---       #64
      00FF8D14H   LINE      CODE     ---       #65
      00FF8D19H   LINE      CODE     ---       #66
      00FF8D1BH   LINE      CODE     ---       #67
      00FF8D1BH   LINE      CODE     ---       #68
      00FF8D1EH   LINE      CODE     ---       #69
      00FF8D20H   LINE      CODE     ---       #71
      00FF8D20H   LINE      CODE     ---       #73
      00FF8D27H   LINE      CODE     ---       #75
      00FF8D29H   LINE      CODE     ---       #76
      00FF8D2CH   LINE      CODE     ---       #77
      00FF8D31H   LINE      CODE     ---       #78
      00FF8D33H   LINE      CODE     ---       #79
      00FF8D33H   LINE      CODE     ---       #80
      00FF8D36H   LINE      CODE     ---       #81
      00FF8D39H   LINE      CODE     ---       #83
      00FF8D39H   LINE      CODE     ---       #85
      00FF8D45H   LINE      CODE     ---       #87
      00FF8D48H   LINE      CODE     ---       #88
      00FF8D4DH   LINE      CODE     ---       #89
      00FF8D4DH   LINE      CODE     ---       #90
      00FF8D50H   LINE      CODE     ---       #92
      00FF8D50H   LINE      CODE     ---       #94
      00FF8D57H   LINE      CODE     ---       #96
      00FF8D5AH   LINE      CODE     ---       #97
      00FF8D5FH   LINE      CODE     ---       #98
      00FF8D62H   LINE      CODE     ---       #101
L251 LINKER/LOCATER V4.66.93.0                                                        10/07/2025  14:20:36  PAGE 109


      00FF8D65H   LINE      CODE     ---       #102
      00FF8D65H   LINE      CODE     ---       #103
      ---         BLOCKEND  ---      ---       LVL=0

      00FF95C5H   BLOCK     CODE     ---       LVL=0
      00FF95C5H   LINE      CODE     ---       #108
      00FF95C5H   LINE      CODE     ---       #110
      00FF95C8H   LINE      CODE     ---       #111
      00FF95CEH   LINE      CODE     ---       #113
      00FF95D4H   LINE      CODE     ---       #115
      00FF95E0H   LINE      CODE     ---       #117
      00FF95F5H   LINE      CODE     ---       #118
      00FF95F7H   LINE      CODE     ---       #119
      00FF9603H   LINE      CODE     ---       #121
      00FF961AH   LINE      CODE     ---       #122
      00FF961CH   LINE      CODE     ---       #125
      00FF9631H   LINE      CODE     ---       #126
      00FF9631H   LINE      CODE     ---       #127
      00FF9633H   LINE      CODE     ---       #130
      00FF9648H   LINE      CODE     ---       #131
      00FF9648H   LINE      CODE     ---       #133
      00FF9648H   LINE      CODE     ---       #134
      00FF964EH   LINE      CODE     ---       #136
      00FF965FH   LINE      CODE     ---       #138
      00FF9662H   LINE      CODE     ---       #139
      00FF966AH   LINE      CODE     ---       #140
      00FF966DH   LINE      CODE     ---       #141
      00FF966DH   LINE      CODE     ---       #143
      00FF9673H   LINE      CODE     ---       #145
      00FF9676H   LINE      CODE     ---       #146
      00FF9676H   LINE      CODE     ---       #147
      00FF967CH   LINE      CODE     ---       #149
      00FF967FH   LINE      CODE     ---       #150
      ---         BLOCKEND  ---      ---       LVL=0

      00FFAD3CH   BLOCK     CODE     ---       LVL=0
      00FFAD3CH   LINE      CODE     ---       #154
      00FFAD3CH   LINE      CODE     ---       #156
      00FFAD3FH   LINE      CODE     ---       #157
      00FFAD4BH   LINE      CODE     ---       #158
      00FFAD4EH   LINE      CODE     ---       #160
      ---         BLOCKEND  ---      ---       LVL=0

      ---         MODULE    ---      ---       ADC_Get
      00FF8E4AH   PUBLIC    CODE     ---       ADC_SampleAndFilter
      00FF994BH   PUBLIC    CODE     ---       adc_filter
      00FFAC90H   PUBLIC    CODE     ---       ADC_GetInit
      00010BFBH   PUBLIC    XDATA    ---       raw_adc_data
      00010C23H   PUBLIC    XDATA    ---       ADC_Num
      00010C31H   PUBLIC    XDATA    ---       filtered_adc
      00000020H.0 PUBLIC    BIT      BIT       Battery_Init
      000000D0H   SFRSYM    DATA     BYTE      PSW
      0000009DH   SFRSYM    DATA     BYTE      IRCBAND
      00000097H   SFRSYM    DATA     BYTE      AUXR2
      000000EFH   SFRSYM    DATA     BYTE      AUXINTIF
      000000FDH   SFRSYM    DATA     BYTE      S4CON
      000000ACH   SFRSYM    DATA     BYTE      S3CON
      0000009AH   SFRSYM    DATA     BYTE      S2CON
      000000B7H   SFRSYM    DATA     BYTE      IPH
      000000CDH   SFRSYM    DATA     BYTE      SPSTAT
      000000DDH   SFRSYM    DATA     BYTE      T4T3M
      000000C1H   SFRSYM    DATA     BYTE      WDT_CONTR
      000000DFH   SFRSYM    DATA     BYTE      IP3
      000000F4H   SFRSYM    DATA     BYTE      USBCON
      000000B5H   SFRSYM    DATA     BYTE      IP2
L251 LINKER/LOCATER V4.66.93.0                                                        10/07/2025  14:20:36  PAGE 110


      000000FFH   SFRSYM    DATA     BYTE      RSTCFG
      000000C7H   SFRSYM    DATA     BYTE      IAP_CONTR
      0000008EH   SFRSYM    DATA     BYTE      AUXR
      000000AFH   SFRSYM    DATA     BYTE      IE2
      00000088H   SFRSYM    DATA     BYTE      TCON
      00000089H   SFRSYM    DATA     BYTE      TMOD
      00000098H   SFRSYM    DATA     BYTE      SCON
      00000087H   SFRSYM    DATA     BYTE      PCON
      000000BCH   SFRSYM    DATA     BYTE      ADC_CONTR
      000000D1H   SFRSYM    DATA     BYTE      PSW1
      000000E7H   SFRSYM    DATA     BYTE      CMPCR2
      000000E6H   SFRSYM    DATA     BYTE      CMPCR1
      000000DEH   SFRSYM    DATA     BYTE      ADCCFG
      000000B8H   SFRSYM    DATA     BYTE      IP
      0000008FH   SFRSYM    DATA     BYTE      INTCLKO
      000000EEH   SFRSYM    DATA     BYTE      IP3H
      000000B6H   SFRSYM    DATA     BYTE      IP2H
      000000BFH   SFRSYM    DATA     BYTE      P_SW4
      000000A8H   SFRSYM    DATA     BYTE      IE
      000000BBH   SFRSYM    DATA     BYTE      P_SW3
      000000BAH   SFRSYM    DATA     BYTE      P_SW2
      000000A2H   SFRSYM    DATA     BYTE      P_SW1
      000000CEH   SFRSYM    DATA     BYTE      SPCTL
      000000F8H   SFRSYM    DATA     BYTE      P7
      000000E8H   SFRSYM    DATA     BYTE      P6
      000000C8H   SFRSYM    DATA     BYTE      P5
      000000C0H   SFRSYM    DATA     BYTE      P4
      000000ABH   SFRSYM    DATA     BYTE      WKTCH
      000000B0H   SFRSYM    DATA     BYTE      P3
      000000A0H   SFRSYM    DATA     BYTE      P2
      00000090H   SFRSYM    DATA     BYTE      P1
      00000080H   SFRSYM    DATA     BYTE      P0

      00FFAC90H   BLOCK     CODE     ---       LVL=0
      00FFAC90H   LINE      CODE     ---       #7
      00FFAC90H   LINE      CODE     ---       #9
      00FFAC9BH   LINE      CODE     ---       #10
      00FFACA6H   LINE      CODE     ---       #11
      00FFACB1H   LINE      CODE     ---       #12
      00FFACBCH   LINE      CODE     ---       #17
      ---         BLOCKEND  ---      ---       LVL=0

      00FF994BH   BLOCK     CODE     ---       LVL=0
      REG=7       REGSYM    ---      ---       samples
      R15         REGSYM    ---      BYTE      count
      00FF9951H   BLOCK     CODE     NEAR LAB  LVL=1
      R14         REGSYM    ---      BYTE      i
      DR20        REGSYM    ---      DWORD     sum
      WR24        REGSYM    ---      WORD      max
      WR26        REGSYM    ---      WORD      min
      ---         BLOCKEND  ---      ---       LVL=1
      00FF994BH   LINE      CODE     ---       #20
      00FF9951H   LINE      CODE     ---       #21
      00FF9951H   LINE      CODE     ---       #23
      00FF9953H   LINE      CODE     ---       #24
      00FF9956H   LINE      CODE     ---       #25
      00FF9959H   LINE      CODE     ---       #27
      00FF995EH   LINE      CODE     ---       #29
      00FF9962H   LINE      CODE     ---       #31
      00FF9971H   LINE      CODE     ---       #32
      00FF9977H   LINE      CODE     ---       #33
      00FF9982H   LINE      CODE     ---       #34
      00FF9982H   LINE      CODE     ---       #35
      00FF9986H   LINE      CODE     ---       #37
      00FF99A4H   LINE      CODE     ---       #38
L251 LINKER/LOCATER V4.66.93.0                                                        10/07/2025  14:20:36  PAGE 111


      00FF99C2H   LINE      CODE     ---       #39
      00FF99D1H   LINE      CODE     ---       #40
      00FF99D7H   LINE      CODE     ---       #41
      00FF99EEH   LINE      CODE     ---       #42
      ---         BLOCKEND  ---      ---       LVL=0

      00FF8E4AH   BLOCK     CODE     ---       LVL=0
      00FF8E4CH   BLOCK     CODE     NEAR LAB  LVL=1
      R14         REGSYM    ---      BYTE      sample_index
      R15         REGSYM    ---      BYTE      channel_index
      ---         BLOCKEND  ---      ---       LVL=1
      00FF8E4AH   LINE      CODE     ---       #45
      00FF8E4CH   LINE      CODE     ---       #46
      00FF8E4CH   LINE      CODE     ---       #47
      00FF8E4EH   LINE      CODE     ---       #48
      00FF8E50H   LINE      CODE     ---       #51
      00FF8E54H   LINE      CODE     ---       #53
      00FF8E6FH   LINE      CODE     ---       #54
      00FF8E8AH   LINE      CODE     ---       #55
      00FF8EA5H   LINE      CODE     ---       #56
      00FF8EC0H   LINE      CODE     ---       #57
      00FF8EC7H   LINE      CODE     ---       #60
      00FF8ECBH   LINE      CODE     ---       #62
      00FF8EF1H   LINE      CODE     ---       #63
      00FF8EF8H   LINE      CODE     ---       #64
      00FF8F04H   LINE      CODE     ---       #65
      00FF8F10H   LINE      CODE     ---       #66
      00FF8F1CH   LINE      CODE     ---       #67
      00FF8F28H   LINE      CODE     ---       #68
      ---         BLOCKEND  ---      ---       LVL=0
      WR14        REGSYM    ---      WORD      battery_adc
      WR2         REGSYM    ---      WORD      ref_adc
      WR6         REGSYM    ---      WORD      battery_v
      R13         REGSYM    ---      BYTE      i

      ---         MODULE    ---      ---       control
      00FF8B8CH   PUBLIC    CODE     ---       PID_Update
      00FFADA4H   PUBLIC    CODE     ---       Ser_Servo_Duty
      00FF7C16H   PUBLIC    CODE     ---       Cycle_Update
      00FF84B3H   PUBLIC    CODE     ---       Motor_Update
      00FF900BH   PUBLIC    CODE     ---       Servo_turn_pid
      00FFAAB6H   PUBLIC    CODE     ---       MotorL_SetSpeed
      00FFAAF3H   PUBLIC    CODE     ---       MotorR_SetSpeed
      00010D90H   PUBLIC    XDATA    BYTE      CAR_Mode
      000000D0H   SFRSYM    DATA     BYTE      PSW
      0000009DH   SFRSYM    DATA     BYTE      IRCBAND
      00000097H   SFRSYM    DATA     BYTE      AUXR2
      000000EFH   SFRSYM    DATA     BYTE      AUXINTIF
      000000FDH   SFRSYM    DATA     BYTE      S4CON
      000000ACH   SFRSYM    DATA     BYTE      S3CON
      0000009AH   SFRSYM    DATA     BYTE      S2CON
      000000B7H   SFRSYM    DATA     BYTE      IPH
      000000CDH   SFRSYM    DATA     BYTE      SPSTAT
      000000DDH   SFRSYM    DATA     BYTE      T4T3M
      000000C1H   SFRSYM    DATA     BYTE      WDT_CONTR
      000000DFH   SFRSYM    DATA     BYTE      IP3
      000000F4H   SFRSYM    DATA     BYTE      USBCON
      000000B5H   SFRSYM    DATA     BYTE      IP2
      000000FFH   SFRSYM    DATA     BYTE      RSTCFG
      000000C7H   SFRSYM    DATA     BYTE      IAP_CONTR
      0000008EH   SFRSYM    DATA     BYTE      AUXR
      000000AFH   SFRSYM    DATA     BYTE      IE2
      00000088H   SFRSYM    DATA     BYTE      TCON
      00000089H   SFRSYM    DATA     BYTE      TMOD
      00000098H   SFRSYM    DATA     BYTE      SCON
L251 LINKER/LOCATER V4.66.93.0                                                        10/07/2025  14:20:36  PAGE 112


      00000087H   SFRSYM    DATA     BYTE      PCON
      000000BCH   SFRSYM    DATA     BYTE      ADC_CONTR
      000000D1H   SFRSYM    DATA     BYTE      PSW1
      000000E7H   SFRSYM    DATA     BYTE      CMPCR2
      000000E6H   SFRSYM    DATA     BYTE      CMPCR1
      000000DEH   SFRSYM    DATA     BYTE      ADCCFG
      000000B8H   SFRSYM    DATA     BYTE      IP
      0000008FH   SFRSYM    DATA     BYTE      INTCLKO
      000000EEH   SFRSYM    DATA     BYTE      IP3H
      000000B6H   SFRSYM    DATA     BYTE      IP2H
      000000BFH   SFRSYM    DATA     BYTE      P_SW4
      000000A8H   SFRSYM    DATA     BYTE      IE
      000000BBH   SFRSYM    DATA     BYTE      P_SW3
      000000BAH   SFRSYM    DATA     BYTE      P_SW2
      000000A2H   SFRSYM    DATA     BYTE      P_SW1
      000000CEH   SFRSYM    DATA     BYTE      SPCTL
      000000F8H   SFRSYM    DATA     BYTE      P7
      000000E8H   SFRSYM    DATA     BYTE      P6
      000000C8H   SFRSYM    DATA     BYTE      P5
      000000C0H   SFRSYM    DATA     BYTE      P4
      000000ABH   SFRSYM    DATA     BYTE      WKTCH
      000000B0H   SFRSYM    DATA     BYTE      P3
      000000A0H   SFRSYM    DATA     BYTE      P2
      00000090H   SFRSYM    DATA     BYTE      P1
      00000080H   SFRSYM    DATA     BYTE      P0

      00FFADA4H   BLOCK     CODE     ---       LVL=0
      WR4         REGSYM    ---      INT       value
      00FFADA4H   LINE      CODE     ---       #4
      00FFADA6H   LINE      CODE     ---       #6
      00FFADB3H   LINE      CODE     ---       #7
      ---         BLOCKEND  ---      ---       LVL=0

      00FF900BH   BLOCK     CODE     ---       LVL=0
      DR0         REGSYM    ---      FLOAT     Current
      00FF900FH   BLOCK     CODE     NEAR LAB  LVL=1
      00010A5FH   SYMBOL    XDATA    FLOAT     kp
      00010A63H   SYMBOL    XDATA    FLOAT     kd
      00010A67H   SYMBOL    XDATA    FLOAT     last_error
      DR12        REGSYM    ---      FLOAT     error
      DR28        REGSYM    ---      FLOAT     temp
      DR24        REGSYM    ---      FLOAT     out
      ---         BLOCKEND  ---      ---       LVL=1
      00FF900BH   LINE      CODE     ---       #16
      00FF900FH   LINE      CODE     ---       #17
      00FF900FH   LINE      CODE     ---       #19
      00FF9023H   LINE      CODE     ---       #20
      00FF9037H   LINE      CODE     ---       #21
      00FF904BH   LINE      CODE     ---       #22
      00FF904DH   LINE      CODE     ---       #26
      00FF9092H   LINE      CODE     ---       #29
      00FF909CH   LINE      CODE     ---       #31
      00FF90C8H   LINE      CODE     ---       #32
      00FF90E7H   LINE      CODE     ---       #33
      ---         BLOCKEND  ---      ---       LVL=0

      00FFAAB6H   BLOCK     CODE     ---       LVL=0
      WR14        REGSYM    ---      INT       pwm
      00FFAAB6H   LINE      CODE     ---       #64
      00FFAABAH   LINE      CODE     ---       #66
      00FFAAC0H   LINE      CODE     ---       #68
      00FFAACDH   LINE      CODE     ---       #69
      00FFAAD6H   LINE      CODE     ---       #70
      00FFAAD8H   LINE      CODE     ---       #73
      00FFAAE7H   LINE      CODE     ---       #74
L251 LINKER/LOCATER V4.66.93.0                                                        10/07/2025  14:20:36  PAGE 113


      00FFAAF0H   LINE      CODE     ---       #75
      00FFAAF0H   LINE      CODE     ---       #76
      ---         BLOCKEND  ---      ---       LVL=0

      00FFAAF3H   BLOCK     CODE     ---       LVL=0
      WR14        REGSYM    ---      INT       pwm
      00FFAAF3H   LINE      CODE     ---       #83
      00FFAAF7H   LINE      CODE     ---       #85
      00FFAAFDH   LINE      CODE     ---       #87
      00FFAB0AH   LINE      CODE     ---       #88
      00FFAB13H   LINE      CODE     ---       #89
      00FFAB15H   LINE      CODE     ---       #92
      00FFAB24H   LINE      CODE     ---       #93
      00FFAB2DH   LINE      CODE     ---       #94
      00FFAB2DH   LINE      CODE     ---       #95
      ---         BLOCKEND  ---      ---       LVL=0

      00FF84B3H   BLOCK     CODE     ---       LVL=0
      R15         REGSYM    ---      CHAR      X
      00FF84B3H   LINE      CODE     ---       #103
      00FF84B7H   LINE      CODE     ---       #105
      00FF84D2H   LINE      CODE     ---       #107
      00FF84D2H   LINE      CODE     ---       #109
      00FF84F5H   LINE      CODE     ---       #110
      00FF8518H   LINE      CODE     ---       #111
      00FF851BH   LINE      CODE     ---       #112
      00FF851BH   LINE      CODE     ---       #114
      00FF853EH   LINE      CODE     ---       #115
      00FF8561H   LINE      CODE     ---       #116
      00FF8564H   LINE      CODE     ---       #117
      00FF8564H   LINE      CODE     ---       #119
      00FF8587H   LINE      CODE     ---       #120
      00FF85AAH   LINE      CODE     ---       #121
      00FF85ACH   LINE      CODE     ---       #122
      00FF85ACH   LINE      CODE     ---       #124
      00FF85CFH   LINE      CODE     ---       #125
      00FF85F2H   LINE      CODE     ---       #126
      00FF85F2H   LINE      CODE     ---       #127
      00FF85F2H   LINE      CODE     ---       #129
      ---         BLOCKEND  ---      ---       LVL=0

      00FF8B8CH   BLOCK     CODE     ---       LVL=0
      00FF8B8CH   LINE      CODE     ---       #130
      00FF8B8CH   LINE      CODE     ---       #132
      00FF8BA4H   LINE      CODE     ---       #134
      00FF8BA4H   LINE      CODE     ---       #136
      00FF8BB8H   LINE      CODE     ---       #137
      00FF8BC4H   LINE      CODE     ---       #138
      00FF8BD8H   LINE      CODE     ---       #139
      00FF8BDBH   LINE      CODE     ---       #140
      00FF8BDBH   LINE      CODE     ---       #142
      00FF8BEFH   LINE      CODE     ---       #143
      00FF8BFBH   LINE      CODE     ---       #144
      00FF8C0FH   LINE      CODE     ---       #145
      00FF8C11H   LINE      CODE     ---       #146
      00FF8C11H   LINE      CODE     ---       #148
      00FF8C25H   LINE      CODE     ---       #149
      00FF8C31H   LINE      CODE     ---       #150
      00FF8C45H   LINE      CODE     ---       #151
      00FF8C47H   LINE      CODE     ---       #152
      00FF8C47H   LINE      CODE     ---       #154
      00FF8C5BH   LINE      CODE     ---       #155
      00FF8C67H   LINE      CODE     ---       #156
      00FF8C7BH   LINE      CODE     ---       #157
      00FF8C7BH   LINE      CODE     ---       #158
L251 LINKER/LOCATER V4.66.93.0                                                        10/07/2025  14:20:36  PAGE 114


      00FF8C7BH   LINE      CODE     ---       #160
      ---         BLOCKEND  ---      ---       LVL=0

      00FF7C16H   BLOCK     CODE     ---       LVL=0
      00FF7C16H   LINE      CODE     ---       #162
      00FF7C16H   LINE      CODE     ---       #164
      00FF7C31H   LINE      CODE     ---       #166
      00FF7C31H   LINE      CODE     ---       #168
      00FF7C44H   LINE      CODE     ---       #169
      00FF7C57H   LINE      CODE     ---       #170
      00FF7C6AH   LINE      CODE     ---       #171
      00FF7C7DH   LINE      CODE     ---       #172
      00FF7C90H   LINE      CODE     ---       #173
      00FF7C93H   LINE      CODE     ---       #174
      00FF7C93H   LINE      CODE     ---       #176
      00FF7CA6H   LINE      CODE     ---       #177
      00FF7CB9H   LINE      CODE     ---       #178
      00FF7CCCH   LINE      CODE     ---       #179
      00FF7CDFH   LINE      CODE     ---       #180
      00FF7CF2H   LINE      CODE     ---       #181
      00FF7CF5H   LINE      CODE     ---       #182
      00FF7CF5H   LINE      CODE     ---       #184
      00FF7D08H   LINE      CODE     ---       #185
      00FF7D1BH   LINE      CODE     ---       #186
      00FF7D2EH   LINE      CODE     ---       #187
      00FF7D41H   LINE      CODE     ---       #188
      00FF7D54H   LINE      CODE     ---       #189
      00FF7D56H   LINE      CODE     ---       #190
      00FF7D56H   LINE      CODE     ---       #192
      00FF7D69H   LINE      CODE     ---       #193
      00FF7D7CH   LINE      CODE     ---       #194
      00FF7D8FH   LINE      CODE     ---       #195
      00FF7DA2H   LINE      CODE     ---       #196
      00FF7DB5H   LINE      CODE     ---       #197
      00FF7DB5H   LINE      CODE     ---       #198
      00FF7DB5H   LINE      CODE     ---       #199
      ---         BLOCKEND  ---      ---       LVL=0

      ---         MODULE    ---      ---       eeprom
      000000D0H   SFRSYM    DATA     BYTE      PSW
      0000009DH   SFRSYM    DATA     BYTE      IRCBAND
      00000097H   SFRSYM    DATA     BYTE      AUXR2
      000000EFH   SFRSYM    DATA     BYTE      AUXINTIF
      000000FDH   SFRSYM    DATA     BYTE      S4CON
      000000ACH   SFRSYM    DATA     BYTE      S3CON
      0000009AH   SFRSYM    DATA     BYTE      S2CON
      000000B7H   SFRSYM    DATA     BYTE      IPH
      000000CDH   SFRSYM    DATA     BYTE      SPSTAT
      000000DDH   SFRSYM    DATA     BYTE      T4T3M
      000000C1H   SFRSYM    DATA     BYTE      WDT_CONTR
      000000DFH   SFRSYM    DATA     BYTE      IP3
      000000F4H   SFRSYM    DATA     BYTE      USBCON
      000000B5H   SFRSYM    DATA     BYTE      IP2
      000000FFH   SFRSYM    DATA     BYTE      RSTCFG
      000000C7H   SFRSYM    DATA     BYTE      IAP_CONTR
      0000008EH   SFRSYM    DATA     BYTE      AUXR
      000000AFH   SFRSYM    DATA     BYTE      IE2
      00000088H   SFRSYM    DATA     BYTE      TCON
      00000089H   SFRSYM    DATA     BYTE      TMOD
      00000098H   SFRSYM    DATA     BYTE      SCON
      00000087H   SFRSYM    DATA     BYTE      PCON
      000000BCH   SFRSYM    DATA     BYTE      ADC_CONTR
      000000D1H   SFRSYM    DATA     BYTE      PSW1
      000000E7H   SFRSYM    DATA     BYTE      CMPCR2
      000000E6H   SFRSYM    DATA     BYTE      CMPCR1
L251 LINKER/LOCATER V4.66.93.0                                                        10/07/2025  14:20:36  PAGE 115


      000000DEH   SFRSYM    DATA     BYTE      ADCCFG
      000000B8H   SFRSYM    DATA     BYTE      IP
      0000008FH   SFRSYM    DATA     BYTE      INTCLKO
      000000EEH   SFRSYM    DATA     BYTE      IP3H
      000000B6H   SFRSYM    DATA     BYTE      IP2H
      000000BFH   SFRSYM    DATA     BYTE      P_SW4
      000000A8H   SFRSYM    DATA     BYTE      IE
      000000BBH   SFRSYM    DATA     BYTE      P_SW3
      000000BAH   SFRSYM    DATA     BYTE      P_SW2
      000000A2H   SFRSYM    DATA     BYTE      P_SW1
      000000CEH   SFRSYM    DATA     BYTE      SPCTL
      000000F8H   SFRSYM    DATA     BYTE      P7
      000000A8H.7 SFRSYM    DATA     BIT       EA
      000000E8H   SFRSYM    DATA     BYTE      P6
      000000C8H   SFRSYM    DATA     BYTE      P5
      000000C0H   SFRSYM    DATA     BYTE      P4
      000000ABH   SFRSYM    DATA     BYTE      WKTCH
      000000B0H   SFRSYM    DATA     BYTE      P3
      000000A0H   SFRSYM    DATA     BYTE      P2
      00000090H   SFRSYM    DATA     BYTE      P1
      00000080H   SFRSYM    DATA     BYTE      P0
      00FFB8A4H   SYMBOL    HCONST   ---       ?tpl?0001
      00FFBAA4H   SYMBOL    HCONST   ---       ?tpl?0002
      00FFBCA4H   SYMBOL    HCONST   ---       ?tpl?0003
      DR12        REGSYM    ---      DWORD     sector_start
      DR4         REGSYM    ---      DWORD     array_size
      DR4         REGSYM    ---      DWORD     sector_start
      DR28        REGSYM    ---      DWORD     addr
      REG=3       REGSYM    ---      ---       float_ptr
      R10         REGSYM    ---      BYTE      i
      DR0         REGSYM    ---      DWORD     addr
      REG=2       REGSYM    ---      ---       float_ptr

      ---         MODULE    ---      ---       function
      00FFAD4FH   PUBLIC    CODE     ---       CAR_STOP
      00FF0026H   PUBLIC    CODE     ---       Servo_Init
      00FFA219H   PUBLIC    CODE     ---       Motor_Init
      00FF4E35H   PUBLIC    CODE     ---       Show_pararm
      00FF9D78H   PUBLIC    CODE     ---       unification
      00FF80B9H   PUBLIC    CODE     ---       Turn_mode_Init
      00FFADB4H   PUBLIC    CODE     ---       GO_Function
      00FF9B2DH   PUBLIC    CODE     ---       init_all
      00FF97EFH   PUBLIC    CODE     ---       fast_sqrt
      00FFA940H   PUBLIC    CODE     ---       Protect
      00FFAC34H   PUBLIC    CODE     ---       show_test_info
      00010C39H   PUBLIC    XDATA    BYTE      Key_Flag
      00010C3AH   PUBLIC    XDATA    INT       T3
      00010C3CH   PUBLIC    XDATA    BYTE      Init_Fg
      00010C3DH   PUBLIC    XDATA    BYTE      ADC_Show_Flag
      00010C3EH   PUBLIC    XDATA    ---       servo_pid
      00010C6AH   PUBLIC    XDATA    INT       Set_T
      00010C6CH   PUBLIC    XDATA    INT       dajiao
      00010C6EH   PUBLIC    XDATA    BYTE      Servo_Flag
      00010C6FH   PUBLIC    XDATA    INT       PRO_Set_Time
      000000D0H   SFRSYM    DATA     BYTE      PSW
      0000009DH   SFRSYM    DATA     BYTE      IRCBAND
      00000097H   SFRSYM    DATA     BYTE      AUXR2
      000000EFH   SFRSYM    DATA     BYTE      AUXINTIF
      000000FDH   SFRSYM    DATA     BYTE      S4CON
      000000ACH   SFRSYM    DATA     BYTE      S3CON
      0000009AH   SFRSYM    DATA     BYTE      S2CON
      000000B7H   SFRSYM    DATA     BYTE      IPH
      000000CDH   SFRSYM    DATA     BYTE      SPSTAT
      000000DDH   SFRSYM    DATA     BYTE      T4T3M
      000000C1H   SFRSYM    DATA     BYTE      WDT_CONTR
L251 LINKER/LOCATER V4.66.93.0                                                        10/07/2025  14:20:36  PAGE 116


      000000DFH   SFRSYM    DATA     BYTE      IP3
      000000F4H   SFRSYM    DATA     BYTE      USBCON
      000000B5H   SFRSYM    DATA     BYTE      IP2
      000000FFH   SFRSYM    DATA     BYTE      RSTCFG
      000000C7H   SFRSYM    DATA     BYTE      IAP_CONTR
      0000008EH   SFRSYM    DATA     BYTE      AUXR
      000000AFH   SFRSYM    DATA     BYTE      IE2
      00000088H   SFRSYM    DATA     BYTE      TCON
      00000089H   SFRSYM    DATA     BYTE      TMOD
      00000098H   SFRSYM    DATA     BYTE      SCON
      00000087H   SFRSYM    DATA     BYTE      PCON
      000000BCH   SFRSYM    DATA     BYTE      ADC_CONTR
      000000D1H   SFRSYM    DATA     BYTE      PSW1
      000000E7H   SFRSYM    DATA     BYTE      CMPCR2
      000000E6H   SFRSYM    DATA     BYTE      CMPCR1
      000000B7H.3 SFRSYM    DATA     BIT       PT1H
      000000B7H.1 SFRSYM    DATA     BIT       PT0H
      000000DEH   SFRSYM    DATA     BYTE      ADCCFG
      000000B8H   SFRSYM    DATA     BYTE      IP
      0000008FH   SFRSYM    DATA     BYTE      INTCLKO
      000000EEH   SFRSYM    DATA     BYTE      IP3H
      000000B6H   SFRSYM    DATA     BYTE      IP2H
      000000BFH   SFRSYM    DATA     BYTE      P_SW4
      000000A8H   SFRSYM    DATA     BYTE      IE
      000000BBH   SFRSYM    DATA     BYTE      P_SW3
      000000BAH   SFRSYM    DATA     BYTE      P_SW2
      000000A2H   SFRSYM    DATA     BYTE      P_SW1
      000000CEH   SFRSYM    DATA     BYTE      SPCTL
      000000F8H   SFRSYM    DATA     BYTE      P7
      000000A8H.7 SFRSYM    DATA     BIT       EA
      000000E8H   SFRSYM    DATA     BYTE      P6
      000000C8H   SFRSYM    DATA     BYTE      P5
      000000C0H   SFRSYM    DATA     BYTE      P4
      000000ABH   SFRSYM    DATA     BYTE      WKTCH
      000000B0H   SFRSYM    DATA     BYTE      P3
      000000A0H   SFRSYM    DATA     BYTE      P2
      00000090H   SFRSYM    DATA     BYTE      P1
      00000080H   SFRSYM    DATA     BYTE      P0
      REG=6       REGSYM    ---      ---       PID
      DR28        REGSYM    ---      FLOAT     NowData

      00FF9D78H   BLOCK     CODE     ---       LVL=0
      00FF9D7AH   BLOCK     CODE     NEAR LAB  LVL=1
      00010A5FH   SYMBOL    XDATA    INT       left_1
      WR6         REGSYM    ---      INT       left_2
      WR10        REGSYM    ---      INT       right_2
      WR2         REGSYM    ---      INT       right_1
      00010A61H   SYMBOL    XDATA    LONG      he
      ---         BLOCKEND  ---      ---       LVL=1
      00FF9D78H   LINE      CODE     ---       #35
      00FF9D7AH   LINE      CODE     ---       #36
      00FF9D7AH   LINE      CODE     ---       #37
      00FF9D86H   LINE      CODE     ---       #38
      00FF9D8CH   LINE      CODE     ---       #39
      00FF9D92H   LINE      CODE     ---       #40
      00FF9D98H   LINE      CODE     ---       #42
      00FF9DACH   LINE      CODE     ---       #43
      00FF9DC0H   LINE      CODE     ---       #44
      00FF9E00H   LINE      CODE     ---       #45
      ---         BLOCKEND  ---      ---       LVL=0

      00FF97EFH   BLOCK     CODE     ---       LVL=0
      DR12        REGSYM    ---      FLOAT     number
      00FF97F3H   BLOCK     CODE     NEAR LAB  LVL=1
      00010A65H   SYMBOL    XDATA    DWORD     i
L251 LINKER/LOCATER V4.66.93.0                                                        10/07/2025  14:20:36  PAGE 117


      00010A69H   SYMBOL    XDATA    FLOAT     x
      ---         BLOCKEND  ---      ---       LVL=1
      00FF97EFH   LINE      CODE     ---       #47
      00FF97F3H   LINE      CODE     ---       #48
      00FF97F3H   LINE      CODE     ---       #50
      00FF97FDH   LINE      CODE     ---       #52
      00FF980BH   LINE      CODE     ---       #54
      00FF9826H   LINE      CODE     ---       #56
      00FF984BH   LINE      CODE     ---       #58
      00FF9866H   LINE      CODE     ---       #60
      00FF9895H   LINE      CODE     ---       #61
      00FF989FH   LINE      CODE     ---       #62
      ---         BLOCKEND  ---      ---       LVL=0

      00FFA219H   BLOCK     CODE     ---       LVL=0
      00FFA219H   LINE      CODE     ---       #64
      00FFA219H   LINE      CODE     ---       #66
      00FFA232H   LINE      CODE     ---       #67
      00FFA249H   LINE      CODE     ---       #68
      00FFA260H   LINE      CODE     ---       #69
      00FFA277H   LINE      CODE     ---       #70
      00FFA28EH   LINE      CODE     ---       #71
      ---         BLOCKEND  ---      ---       LVL=0

      00FF0026H   BLOCK     CODE     ---       LVL=0
      00FF0026H   LINE      CODE     ---       #74
      00FF0026H   LINE      CODE     ---       #76
      00FF003FH   LINE      CODE     ---       #77
      ---         BLOCKEND  ---      ---       LVL=0

      00FFAD4FH   BLOCK     CODE     ---       LVL=0
      00FFAD4FH   LINE      CODE     ---       #78
      00FFAD4FH   LINE      CODE     ---       #80
      00FFAD54H   LINE      CODE     ---       #81
      00FFAD59H   LINE      CODE     ---       #82
      00FFAD60H   LINE      CODE     ---       #83
      ---         BLOCKEND  ---      ---       LVL=0

      00FFA940H   BLOCK     CODE     ---       LVL=0
      00FFA940H   LINE      CODE     ---       #86
      00FFA940H   LINE      CODE     ---       #88
      00FFA946H   LINE      CODE     ---       #90
      00FFA977H   LINE      CODE     ---       #92
      00FFA97CH   LINE      CODE     ---       #93
      00FFA97FH   LINE      CODE     ---       #94
      00FFA97FH   LINE      CODE     ---       #96
      ---         BLOCKEND  ---      ---       LVL=0

      00FF9B2DH   BLOCK     CODE     ---       LVL=0
      00FF9B2DH   LINE      CODE     ---       #98
      00FF9B2DH   LINE      CODE     ---       #100
      00FF9B2FH   LINE      CODE     ---       #101
      00FF9B36H   LINE      CODE     ---       #102
      00FF9B39H   LINE      CODE     ---       #103
      00FF9B3CH   LINE      CODE     ---       #104
      00FF9B3FH   LINE      CODE     ---       #105
      00FF9B42H   LINE      CODE     ---       #106
      00FF9B49H   LINE      CODE     ---       #107
      00FF9B4CH   LINE      CODE     ---       #108
      00FF9B4FH   LINE      CODE     ---       #110
      00FF9B52H   LINE      CODE     ---       #111
      00FF9B55H   LINE      CODE     ---       #112
      00FF9B5CH   LINE      CODE     ---       #113
      00FF9B67H   LINE      CODE     ---       #115
      00FF9B6AH   LINE      CODE     ---       #116
L251 LINKER/LOCATER V4.66.93.0                                                        10/07/2025  14:20:36  PAGE 118


      00FF9B71H   LINE      CODE     ---       #118
      00FF9B94H   LINE      CODE     ---       #119
      00FF9BB9H   LINE      CODE     ---       #120
      00FF9BC0H   LINE      CODE     ---       #121
      00FF9BC2H   LINE      CODE     ---       #123
      ---         BLOCKEND  ---      ---       LVL=0

      00FFAC34H   BLOCK     CODE     ---       LVL=0
      REG=3       REGSYM    ---      ---       info
      00FFAC34H   LINE      CODE     ---       #124
      00FFAC38H   LINE      CODE     ---       #126
      00FFAC3FH   LINE      CODE     ---       #127
      00FFAC46H   LINE      CODE     ---       #128
      00FFAC51H   LINE      CODE     ---       #129
      00FFAC58H   LINE      CODE     ---       #130
      00FFAC5FH   LINE      CODE     ---       #131
      ---         BLOCKEND  ---      ---       LVL=0

      00FF80B9H   BLOCK     CODE     ---       LVL=0
      00FF80B9H   LINE      CODE     ---       #133
      00FF80B9H   LINE      CODE     ---       #135
      00FF80BBH   LINE      CODE     ---       #136
      00FF80C3H   LINE      CODE     ---       #137
      00FF80F2H   LINE      CODE     ---       #139
      00FF80F2H   LINE      CODE     ---       #141
      00FF80F5H   LINE      CODE     ---       #142
      00FF80F8H   LINE      CODE     ---       #143
      00FF80FDH   LINE      CODE     ---       #144
      00FF8103H   LINE      CODE     ---       #145
      00FF8108H   LINE      CODE     ---       #146
      00FF8113H   LINE      CODE     ---       #147
      00FF8116H   LINE      CODE     ---       #148
      00FF8119H   LINE      CODE     ---       #149
      00FF811CH   LINE      CODE     ---       #150
      00FF811FH   LINE      CODE     ---       #152
      00FF811FH   LINE      CODE     ---       #154
      00FF8124H   LINE      CODE     ---       #155
      00FF8129H   LINE      CODE     ---       #156
      00FF812FH   LINE      CODE     ---       #157
      00FF813AH   LINE      CODE     ---       #160
      00FF813EH   LINE      CODE     ---       #161
      00FF8141H   LINE      CODE     ---       #162
      00FF8144H   LINE      CODE     ---       #163
      00FF8147H   LINE      CODE     ---       #165
      00FF8147H   LINE      CODE     ---       #167
      00FF814CH   LINE      CODE     ---       #168
      00FF8151H   LINE      CODE     ---       #169
      00FF8157H   LINE      CODE     ---       #170
      00FF8162H   LINE      CODE     ---       #172
      00FF8166H   LINE      CODE     ---       #173
      00FF8169H   LINE      CODE     ---       #174
      00FF816CH   LINE      CODE     ---       #175
      00FF816FH   LINE      CODE     ---       #177
      00FF816FH   LINE      CODE     ---       #179
      00FF8174H   LINE      CODE     ---       #180
      00FF8179H   LINE      CODE     ---       #181
      00FF817FH   LINE      CODE     ---       #182
      00FF818AH   LINE      CODE     ---       #184
      00FF818EH   LINE      CODE     ---       #185
      00FF8191H   LINE      CODE     ---       #186
      00FF8194H   LINE      CODE     ---       #187
      00FF8197H   LINE      CODE     ---       #189
      00FF8197H   LINE      CODE     ---       #191
      00FF819CH   LINE      CODE     ---       #192
      00FF81A1H   LINE      CODE     ---       #193
L251 LINKER/LOCATER V4.66.93.0                                                        10/07/2025  14:20:36  PAGE 119


      00FF81A7H   LINE      CODE     ---       #194
      00FF81B2H   LINE      CODE     ---       #196
      00FF81B6H   LINE      CODE     ---       #197
      00FF81B9H   LINE      CODE     ---       #198
      00FF81BCH   LINE      CODE     ---       #199
      00FF81BEH   LINE      CODE     ---       #201
      00FF81BEH   LINE      CODE     ---       #203
      00FF81C4H   LINE      CODE     ---       #204
      00FF81C9H   LINE      CODE     ---       #205
      00FF81D4H   LINE      CODE     ---       #207
      00FF81D6H   LINE      CODE     ---       #209
      00FF81D6H   LINE      CODE     ---       #211
      00FF81DCH   LINE      CODE     ---       #212
      00FF81E1H   LINE      CODE     ---       #213
      00FF81ECH   LINE      CODE     ---       #214
      00FF81EEH   LINE      CODE     ---       #216
      00FF81EEH   LINE      CODE     ---       #218
      00FF81F4H   LINE      CODE     ---       #219
      00FF81FAH   LINE      CODE     ---       #220
      00FF8200H   LINE      CODE     ---       #221
      00FF820BH   LINE      CODE     ---       #222
      00FF820DH   LINE      CODE     ---       #224
      00FF820DH   LINE      CODE     ---       #226
      00FF8213H   LINE      CODE     ---       #227
      00FF8218H   LINE      CODE     ---       #228
      00FF8223H   LINE      CODE     ---       #229
      00FF8223H   LINE      CODE     ---       #231
      00FF8223H   LINE      CODE     ---       #232
      00FF8225H   LINE      CODE     ---       #233
      ---         BLOCKEND  ---      ---       LVL=0

      00FF4E35H   BLOCK     CODE     ---       LVL=0
      00FF4E35H   LINE      CODE     ---       #235
      00FF4E35H   LINE      CODE     ---       #237
      00FF4E65H   LINE      CODE     ---       #239
      00FF4E65H   LINE      CODE     ---       #240
      00FF4E65H   LINE      CODE     ---       #242
      00FF4EA5H   LINE      CODE     ---       #243
      00FF4EE5H   LINE      CODE     ---       #244
      00FF4EE8H   LINE      CODE     ---       #245
      00FF4EE8H   LINE      CODE     ---       #247
      00FF4F26H   LINE      CODE     ---       #248
      00FF4F63H   LINE      CODE     ---       #249
      00FF4FA3H   LINE      CODE     ---       #250
      00FF4FE3H   LINE      CODE     ---       #251
      00FF5020H   LINE      CODE     ---       #252
      00FF5023H   LINE      CODE     ---       #253
      00FF5023H   LINE      CODE     ---       #254
      00FF5023H   LINE      CODE     ---       #256
      00FF5061H   LINE      CODE     ---       #257
      00FF509EH   LINE      CODE     ---       #258
      00FF50DEH   LINE      CODE     ---       #259
      00FF511EH   LINE      CODE     ---       #260
      00FF515BH   LINE      CODE     ---       #261
      00FF515EH   LINE      CODE     ---       #262
      00FF515EH   LINE      CODE     ---       #264
      00FF519CH   LINE      CODE     ---       #265
      00FF51D9H   LINE      CODE     ---       #266
      00FF5219H   LINE      CODE     ---       #267
      00FF5259H   LINE      CODE     ---       #268
      00FF5296H   LINE      CODE     ---       #269
      00FF5299H   LINE      CODE     ---       #270
      00FF5299H   LINE      CODE     ---       #272
      00FF52D6H   LINE      CODE     ---       #273
      00FF5316H   LINE      CODE     ---       #274
L251 LINKER/LOCATER V4.66.93.0                                                        10/07/2025  14:20:36  PAGE 120


      00FF5356H   LINE      CODE     ---       #275
      00FF5393H   LINE      CODE     ---       #276
      00FF5396H   LINE      CODE     ---       #277
      00FF5396H   LINE      CODE     ---       #279
      00FF53B4H   LINE      CODE     ---       #280
      00FF53D6H   LINE      CODE     ---       #281
      00FF53F8H   LINE      CODE     ---       #282
      00FF541AH   LINE      CODE     ---       #283
      00FF541CH   LINE      CODE     ---       #284
      00FF541CH   LINE      CODE     ---       #286
      00FF544BH   LINE      CODE     ---       #287
      00FF544BH   LINE      CODE     ---       #288
      00FF544BH   LINE      CODE     ---       #290
      ---         BLOCKEND  ---      ---       LVL=0

      00FFADB4H   BLOCK     CODE     ---       LVL=0
      00FFADB4H   LINE      CODE     ---       #300
      00FFADB4H   LINE      CODE     ---       #302
      00FFADBBH   LINE      CODE     ---       #304
      00FFADBEH   LINE      CODE     ---       #305
      00FFADC3H   LINE      CODE     ---       #306
      ---         BLOCKEND  ---      ---       LVL=0

      ---         MODULE    ---      ---       Key
      00FF897FH   PUBLIC    CODE     ---       Key_scaner
      00FF9680H   PUBLIC    CODE     ---       Turn_mode
      00FFA876H   PUBLIC    CODE     ---       Key_Number
      00010D38H   PUBLIC    XDATA    BYTE      State
      00010D39H   PUBLIC    XDATA    INT       Trigg_time
      00010D3BH   PUBLIC    XDATA    INT       Press_time
      00010D3DH   PUBLIC    XDATA    BYTE      Key_count
      00010D3EH   PUBLIC    XDATA    WORD      Time_dou
      00010D40H   PUBLIC    XDATA    BYTE      keynumber
      00010D41H   PUBLIC    XDATA    BYTE      last_keynumber
      00010D42H   PUBLIC    XDATA    BYTE      Init_Flag
      00FFC798H   PUBLIC    HCONST   ---       mode_map
      000000D0H   SFRSYM    DATA     BYTE      PSW
      0000009DH   SFRSYM    DATA     BYTE      IRCBAND
      00000097H   SFRSYM    DATA     BYTE      AUXR2
      000000EFH   SFRSYM    DATA     BYTE      AUXINTIF
      000000FDH   SFRSYM    DATA     BYTE      S4CON
      000000ACH   SFRSYM    DATA     BYTE      S3CON
      0000009AH   SFRSYM    DATA     BYTE      S2CON
      000000B7H   SFRSYM    DATA     BYTE      IPH
      000000CDH   SFRSYM    DATA     BYTE      SPSTAT
      000000DDH   SFRSYM    DATA     BYTE      T4T3M
      000000C1H   SFRSYM    DATA     BYTE      WDT_CONTR
      000000DFH   SFRSYM    DATA     BYTE      IP3
      000000F4H   SFRSYM    DATA     BYTE      USBCON
      000000B5H   SFRSYM    DATA     BYTE      IP2
      000000FFH   SFRSYM    DATA     BYTE      RSTCFG
      000000C7H   SFRSYM    DATA     BYTE      IAP_CONTR
      0000008EH   SFRSYM    DATA     BYTE      AUXR
      000000AFH   SFRSYM    DATA     BYTE      IE2
      00000088H   SFRSYM    DATA     BYTE      TCON
      00000089H   SFRSYM    DATA     BYTE      TMOD
      00000098H   SFRSYM    DATA     BYTE      SCON
      00000087H   SFRSYM    DATA     BYTE      PCON
      000000BCH   SFRSYM    DATA     BYTE      ADC_CONTR
      000000D1H   SFRSYM    DATA     BYTE      PSW1
      000000E7H   SFRSYM    DATA     BYTE      CMPCR2
      000000E6H   SFRSYM    DATA     BYTE      CMPCR1
      000000DEH   SFRSYM    DATA     BYTE      ADCCFG
      000000B8H   SFRSYM    DATA     BYTE      IP
      0000008FH   SFRSYM    DATA     BYTE      INTCLKO
L251 LINKER/LOCATER V4.66.93.0                                                        10/07/2025  14:20:36  PAGE 121


      000000EEH   SFRSYM    DATA     BYTE      IP3H
      000000B6H   SFRSYM    DATA     BYTE      IP2H
      000000BFH   SFRSYM    DATA     BYTE      P_SW4
      000000A8H   SFRSYM    DATA     BYTE      IE
      000000BBH   SFRSYM    DATA     BYTE      P_SW3
      000000BAH   SFRSYM    DATA     BYTE      P_SW2
      000000A2H   SFRSYM    DATA     BYTE      P_SW1
      000000CEH   SFRSYM    DATA     BYTE      SPCTL
      000000F8H   SFRSYM    DATA     BYTE      P7
      000000E8H   SFRSYM    DATA     BYTE      P6
      000000C8H   SFRSYM    DATA     BYTE      P5
      000000C0H   SFRSYM    DATA     BYTE      P4
      000000ABH   SFRSYM    DATA     BYTE      WKTCH
      000000B0H   SFRSYM    DATA     BYTE      P3
      000000A0H   SFRSYM    DATA     BYTE      P2
      00000090H   SFRSYM    DATA     BYTE      P1
      00000080H   SFRSYM    DATA     BYTE      P0

      00FFA876H   BLOCK     CODE     ---       LVL=0
      00FFA878H   BLOCK     CODE     NEAR LAB  LVL=1
      R15         REGSYM    ---      BYTE      KeyNumber
      ---         BLOCKEND  ---      ---       LVL=1
      00FFA876H   LINE      CODE     ---       #26
      00FFA878H   LINE      CODE     ---       #27
      00FFA878H   LINE      CODE     ---       #28
      00FFA87AH   LINE      CODE     ---       #35
      00FFA886H   LINE      CODE     ---       #36
      00FFA892H   LINE      CODE     ---       #37
      00FFA89EH   LINE      CODE     ---       #38
      00FFA8AAH   LINE      CODE     ---       #39
      00FFA8B6H   LINE      CODE     ---       #40
      00FFA8B8H   LINE      CODE     ---       #41
      ---         BLOCKEND  ---      ---       LVL=0

      00FF9680H   BLOCK     CODE     ---       LVL=0
      WR8         REGSYM    ---      INT       i
      00FF9680H   LINE      CODE     ---       #42
      00FF9680H   LINE      CODE     ---       #43
      00FF9680H   LINE      CODE     ---       #45
      00FF9685H   LINE      CODE     ---       #47
      00FF96B5H   LINE      CODE     ---       #49
      00FF96ECH   LINE      CODE     ---       #50
      00FF9727H   LINE      CODE     ---       #51
      00FF972DH   LINE      CODE     ---       #52
      00FF972FH   LINE      CODE     ---       #53
      00FF972FH   LINE      CODE     ---       #55
      00FF973AH   LINE      CODE     ---       #56
      ---         BLOCKEND  ---      ---       LVL=0

      00FF897FH   BLOCK     CODE     ---       LVL=0
      00FF897FH   LINE      CODE     ---       #57
      00FF897FH   LINE      CODE     ---       #59
      00FF8986H   LINE      CODE     ---       #60
      00FF899DH   LINE      CODE     ---       #62
      00FF899DH   LINE      CODE     ---       #64
      00FF89A6H   LINE      CODE     ---       #66
      00FF89ACH   LINE      CODE     ---       #67
      00FF89B1H   LINE      CODE     ---       #68
      00FF89B1H   LINE      CODE     ---       #69
      00FF89B4H   LINE      CODE     ---       #71
      00FF89B4H   LINE      CODE     ---       #73
      00FF89BAH   LINE      CODE     ---       #75
      00FF89BFH   LINE      CODE     ---       #76
      00FF89C2H   LINE      CODE     ---       #79
      00FF89C8H   LINE      CODE     ---       #80
L251 LINKER/LOCATER V4.66.93.0                                                        10/07/2025  14:20:36  PAGE 122


      00FF89DBH   LINE      CODE     ---       #82
      00FF89E1H   LINE      CODE     ---       #83
      00FF89E9H   LINE      CODE     ---       #85
      00FF89E9H   LINE      CODE     ---       #87
      00FF89ECH   LINE      CODE     ---       #89
      00FF89ECH   LINE      CODE     ---       #91
      00FF89F2H   LINE      CODE     ---       #94
      00FF89F8H   LINE      CODE     ---       #95
      00FF89FDH   LINE      CODE     ---       #96
      00FF8A05H   LINE      CODE     ---       #97
      00FF8A08H   LINE      CODE     ---       #100
      00FF8A13H   LINE      CODE     ---       #101
      00FF8A1FH   LINE      CODE     ---       #103
      00FF8A2AH   LINE      CODE     ---       #104
      00FF8A31H   LINE      CODE     ---       #106
      00FF8A34H   LINE      CODE     ---       #107
      00FF8A3AH   LINE      CODE     ---       #108
      00FF8A42H   LINE      CODE     ---       #109
      00FF8A47H   LINE      CODE     ---       #110
      00FF8A49H   LINE      CODE     ---       #111
      00FF8A55H   LINE      CODE     ---       #113
      00FF8A5DH   LINE      CODE     ---       #114
      00FF8A65H   LINE      CODE     ---       #116
      00FF8A65H   LINE      CODE     ---       #118
      00FF8A65H   LINE      CODE     ---       #119
      00FF8A67H   LINE      CODE     ---       #121
      00FF8A67H   LINE      CODE     ---       #123
      00FF8A6DH   LINE      CODE     ---       #125
      00FF8A73H   LINE      CODE     ---       #126
      00FF8A83H   LINE      CODE     ---       #128
      00FF8A88H   LINE      CODE     ---       #129
      00FF8A90H   LINE      CODE     ---       #130
      00FF8A92H   LINE      CODE     ---       #134
      00FF8A98H   LINE      CODE     ---       #135
      00FF8A98H   LINE      CODE     ---       #136
      00FF8A98H   LINE      CODE     ---       #138
      00FF8A98H   LINE      CODE     ---       #139
      ---         BLOCKEND  ---      ---       LVL=0

      ---         MODULE    ---      ---       menu
      00FFA1A2H   PUBLIC    CODE     ---       Show_bujin
      00FFAC04H   PUBLIC    CODE     ---       menu_Init
      00FFAC62H   PUBLIC    CODE     ---       menu_handle_key
      00FF91C8H   PUBLIC    CODE     ---       handle_key1
      00FFA8BBH   PUBLIC    CODE     ---       handle_key2
      00FFA6B4H   PUBLIC    CODE     ---       handle_key3
      00FF9442H   PUBLIC    CODE     ---       handle_key4
      00FF0046H   PUBLIC    CODE     ---       handle_key5
      00FF92A4H   PUBLIC    CODE     ---       Menu_SetChildren
      00FF019EH   PUBLIC    CODE     ---       Key3_handle1
      00FF9374H   PUBLIC    CODE     ---       Key3_handle2
      00FFA025H   PUBLIC    CODE     ---       Refesh_arrow
      00FF85F5H   PUBLIC    CODE     ---       menu_display_content
      00FFAD61H   PUBLIC    CODE     ---       show_all_menu
      00010D07H   PUBLIC    XDATA    BYTE      Show_image_mode
      00010D08H   PUBLIC    XDATA    FLOAT     bujin
      00010D0CH   PUBLIC    XDATA    CHAR      mode
      00010D0DH   PUBLIC    XDATA    BYTE      Key
      00010D0EH   PUBLIC    XDATA    CHAR      Start_Show_Row
      00010D0FH   PUBLIC    XDATA    CHAR      i
      00010D10H   PUBLIC    XDATA    CHAR      j
      00010D11H   PUBLIC    XDATA    CHAR      Key3_count
      00010D12H   PUBLIC    XDATA    BYTE      Save_Flag
      00010D13H   PUBLIC    XDATA    CHAR      Flag
      000000D0H   SFRSYM    DATA     BYTE      PSW
L251 LINKER/LOCATER V4.66.93.0                                                        10/07/2025  14:20:36  PAGE 123


      0000009DH   SFRSYM    DATA     BYTE      IRCBAND
      00000097H   SFRSYM    DATA     BYTE      AUXR2
      000000EFH   SFRSYM    DATA     BYTE      AUXINTIF
      000000FDH   SFRSYM    DATA     BYTE      S4CON
      000000ACH   SFRSYM    DATA     BYTE      S3CON
      0000009AH   SFRSYM    DATA     BYTE      S2CON
      000000B7H   SFRSYM    DATA     BYTE      IPH
      000000CDH   SFRSYM    DATA     BYTE      SPSTAT
      000000DDH   SFRSYM    DATA     BYTE      T4T3M
      000000C1H   SFRSYM    DATA     BYTE      WDT_CONTR
      000000DFH   SFRSYM    DATA     BYTE      IP3
      000000F4H   SFRSYM    DATA     BYTE      USBCON
      000000B5H   SFRSYM    DATA     BYTE      IP2
      000000FFH   SFRSYM    DATA     BYTE      RSTCFG
      000000C7H   SFRSYM    DATA     BYTE      IAP_CONTR
      0000008EH   SFRSYM    DATA     BYTE      AUXR
      000000AFH   SFRSYM    DATA     BYTE      IE2
      00000088H   SFRSYM    DATA     BYTE      TCON
      00000089H   SFRSYM    DATA     BYTE      TMOD
      00000098H   SFRSYM    DATA     BYTE      SCON
      00000087H   SFRSYM    DATA     BYTE      PCON
      000000BCH   SFRSYM    DATA     BYTE      ADC_CONTR
      000000D1H   SFRSYM    DATA     BYTE      PSW1
      000000E7H   SFRSYM    DATA     BYTE      CMPCR2
      000000E6H   SFRSYM    DATA     BYTE      CMPCR1
      000000DEH   SFRSYM    DATA     BYTE      ADCCFG
      000000B8H   SFRSYM    DATA     BYTE      IP
      0000008FH   SFRSYM    DATA     BYTE      INTCLKO
      000000EEH   SFRSYM    DATA     BYTE      IP3H
      000000B6H   SFRSYM    DATA     BYTE      IP2H
      000000BFH   SFRSYM    DATA     BYTE      P_SW4
      000000A8H   SFRSYM    DATA     BYTE      IE
      000000BBH   SFRSYM    DATA     BYTE      P_SW3
      000000BAH   SFRSYM    DATA     BYTE      P_SW2
      000000A2H   SFRSYM    DATA     BYTE      P_SW1
      000000CEH   SFRSYM    DATA     BYTE      SPCTL
      000000F8H   SFRSYM    DATA     BYTE      P7
      000000E8H   SFRSYM    DATA     BYTE      P6
      000000C8H   SFRSYM    DATA     BYTE      P5
      000000C0H   SFRSYM    DATA     BYTE      P4
      000000ABH   SFRSYM    DATA     BYTE      WKTCH
      000000B0H   SFRSYM    DATA     BYTE      P3
      000000A0H   SFRSYM    DATA     BYTE      P2
      00000090H   SFRSYM    DATA     BYTE      P1
      00000080H   SFRSYM    DATA     BYTE      P0

      00FF92A4H   BLOCK     CODE     ---       LVL=0
      REG=6       REGSYM    ---      ---       parent
      REG=7       REGSYM    ---      ---       child_indices
      00FF92A4H   LINE      CODE     ---       #19
      00FF92A8H   LINE      CODE     ---       #22
      00FF92AFH   LINE      CODE     ---       #23
      00FF92C7H   LINE      CODE     ---       #24
      00FF92D6H   LINE      CODE     ---       #27
      00FF92DDH   LINE      CODE     ---       #29
      00FF9301H   LINE      CODE     ---       #31
      00FF9331H   LINE      CODE     ---       #32
      00FF934FH   LINE      CODE     ---       #33
      00FF9373H   LINE      CODE     ---       #36
      ---         BLOCKEND  ---      ---       LVL=0

      00FFA025H   BLOCK     CODE     ---       LVL=0
      00FFA025H   LINE      CODE     ---       #38
      00FFA025H   LINE      CODE     ---       #40
      00FFA02BH   LINE      CODE     ---       #42
L251 LINKER/LOCATER V4.66.93.0                                                        10/07/2025  14:20:36  PAGE 124


      00FFA034H   LINE      CODE     ---       #44
      00FFA053H   LINE      CODE     ---       #45
      00FFA055H   LINE      CODE     ---       #48
      00FFA068H   LINE      CODE     ---       #49
      00FFA068H   LINE      CODE     ---       #50
      00FFA06AH   LINE      CODE     ---       #53
      00FFA073H   LINE      CODE     ---       #55
      00FFA092H   LINE      CODE     ---       #56
      00FFA094H   LINE      CODE     ---       #59
      00FFA0A7H   LINE      CODE     ---       #60
      00FFA0A7H   LINE      CODE     ---       #61
      00FFA0A7H   LINE      CODE     ---       #62
      ---         BLOCKEND  ---      ---       LVL=0

      00FF85F5H   BLOCK     CODE     ---       LVL=0
      00FF85F5H   LINE      CODE     ---       #64
      00FF85F5H   LINE      CODE     ---       #66
      00FF85FDH   LINE      CODE     ---       #68
      00FF8632H   LINE      CODE     ---       #69
      00FF86B1H   LINE      CODE     ---       #71
      00FF8717H   LINE      CODE     ---       #72
      00FF8729H   LINE      CODE     ---       #74
      ---         BLOCKEND  ---      ---       LVL=0

      00FFA1A2H   BLOCK     CODE     ---       LVL=0
      00FFA1A2H   LINE      CODE     ---       #75
      00FFA1A2H   LINE      CODE     ---       #77
      00FFA1CEH   LINE      CODE     ---       #79
      00FFA1E1H   LINE      CODE     ---       #80
      00FFA1F4H   LINE      CODE     ---       #81
      00FFA207H   LINE      CODE     ---       #82
      00FFA218H   LINE      CODE     ---       #83
      00FFA218H   LINE      CODE     ---       #84
      ---         BLOCKEND  ---      ---       LVL=0

      00FFAD61H   BLOCK     CODE     ---       LVL=0
      00FFAD61H   LINE      CODE     ---       #86
      00FFAD61H   LINE      CODE     ---       #88
      00FFAD68H   LINE      CODE     ---       #89
      00FFAD6BH   LINE      CODE     ---       #90
      00FFAD6EH   LINE      CODE     ---       #91
      00FFAD71H   LINE      CODE     ---       #92
      ---         BLOCKEND  ---      ---       LVL=0

      00FF91C8H   BLOCK     CODE     ---       LVL=0
      00FF91C8H   LINE      CODE     ---       #93
      00FF91CAH   LINE      CODE     ---       #95
      00FF91D0H   LINE      CODE     ---       #97
      00FF91D9H   LINE      CODE     ---       #99
      00FF91DFH   LINE      CODE     ---       #100
      00FF91DFH   LINE      CODE     ---       #101
      00FF91E8H   LINE      CODE     ---       #103
      00FF9207H   LINE      CODE     ---       #104
      00FF9209H   LINE      CODE     ---       #107
      00FF9218H   LINE      CODE     ---       #108
      00FF9227H   LINE      CODE     ---       #109
      00FF9236H   LINE      CODE     ---       #110
      00FF923DH   LINE      CODE     ---       #111
      00FF9240H   LINE      CODE     ---       #112
      00FF9240H   LINE      CODE     ---       #113
      00FF9243H   LINE      CODE     ---       #114
      00FF9245H   LINE      CODE     ---       #115
      00FF924CH   LINE      CODE     ---       #117
      00FF9295H   LINE      CODE     ---       #118
      00FF929BH   LINE      CODE     ---       #119
L251 LINKER/LOCATER V4.66.93.0                                                        10/07/2025  14:20:36  PAGE 125


      00FF929EH   LINE      CODE     ---       #120
      00FF92A1H   LINE      CODE     ---       #121
      ---         BLOCKEND  ---      ---       LVL=0

      00FFA8BBH   BLOCK     CODE     ---       LVL=0
      00FFA8BBH   LINE      CODE     ---       #124
      00FFA8BBH   LINE      CODE     ---       #126
      00FFA8D5H   LINE      CODE     ---       #127
      00FFA8EAH   LINE      CODE     ---       #129
      00FFA8FAH   LINE      CODE     ---       #130
      00FFA8FAH   LINE      CODE     ---       #131
      00FFA8FDH   LINE      CODE     ---       #133
      ---         BLOCKEND  ---      ---       LVL=0

      00FFA6B4H   BLOCK     CODE     ---       LVL=0
      00FFA6B4H   LINE      CODE     ---       #135
      00FFA6B4H   LINE      CODE     ---       #137
      00FFA6CEH   LINE      CODE     ---       #138
      00FFA6F0H   LINE      CODE     ---       #140
      00FFA702H   LINE      CODE     ---       #141
      00FFA702H   LINE      CODE     ---       #142
      00FFA705H   LINE      CODE     ---       #143
      ---         BLOCKEND  ---      ---       LVL=0

      00FF9442H   BLOCK     CODE     ---       LVL=0
      00FF9442H   LINE      CODE     ---       #144
      00FF9444H   LINE      CODE     ---       #146
      00FF944BH   LINE      CODE     ---       #148
      00FF9494H   LINE      CODE     ---       #149
      00FF949AH   LINE      CODE     ---       #150
      00FF949DH   LINE      CODE     ---       #151
      00FF949FH   LINE      CODE     ---       #152
      00FF94A5H   LINE      CODE     ---       #154
      00FF94AEH   LINE      CODE     ---       #156
      00FF94B4H   LINE      CODE     ---       #157
      00FF94B4H   LINE      CODE     ---       #158
      00FF94BDH   LINE      CODE     ---       #160
      00FF94C6H   LINE      CODE     ---       #161
      00FF94CBH   LINE      CODE     ---       #162
      00FF94E8H   LINE      CODE     ---       #163
      00FF94EAH   LINE      CODE     ---       #166
      00FF94F9H   LINE      CODE     ---       #167
      00FF9500H   LINE      CODE     ---       #168
      00FF9503H   LINE      CODE     ---       #169
      00FF9503H   LINE      CODE     ---       #170
      00FF9506H   LINE      CODE     ---       #171
      ---         BLOCKEND  ---      ---       LVL=0

      00FF0046H   BLOCK     CODE     ---       LVL=0
      00FF0046H   LINE      CODE     ---       #173
      00FF0046H   LINE      CODE     ---       #175
      00FF004CH   LINE      CODE     ---       #178
      00FF0057H   LINE      CODE     ---       #180
      00FF005CH   LINE      CODE     ---       #181
      00FF005FH   LINE      CODE     ---       #182
      00FF005FH   LINE      CODE     ---       #183
      00FF005FH   LINE      CODE     ---       #184
      ---         BLOCKEND  ---      ---       LVL=0

      00FF019EH   BLOCK     CODE     ---       LVL=0
      00FF019EH   LINE      CODE     ---       #185
      00FF019EH   LINE      CODE     ---       #187
      00FF01A4H   LINE      CODE     ---       #188
      00FF01A7H   LINE      CODE     ---       #189
      ---         BLOCKEND  ---      ---       LVL=0
L251 LINKER/LOCATER V4.66.93.0                                                        10/07/2025  14:20:36  PAGE 126



      00FF9374H   BLOCK     CODE     ---       LVL=0
      00FF9374H   LINE      CODE     ---       #190
      00FF9374H   LINE      CODE     ---       #192
      00FF937AH   LINE      CODE     ---       #195
      00FF937FH   LINE      CODE     ---       #196
      00FF937FH   LINE      CODE     ---       #197
      00FF93A1H   LINE      CODE     ---       #199
      00FF93C9H   LINE      CODE     ---       #200
      00FF93CFH   LINE      CODE     ---       #201
      00FF93D4H   LINE      CODE     ---       #202
      00FF93DEH   LINE      CODE     ---       #203
      00FF93E1H   LINE      CODE     ---       #204
      00FF93E3H   LINE      CODE     ---       #205
      00FF9400H   LINE      CODE     ---       #207
      00FF941CH   LINE      CODE     ---       #208
      00FF9422H   LINE      CODE     ---       #209
      00FF9427H   LINE      CODE     ---       #210
      00FF9431H   LINE      CODE     ---       #211
      00FF9434H   LINE      CODE     ---       #212
      00FF9434H   LINE      CODE     ---       #213
      00FF943EH   LINE      CODE     ---       #214
      00FF9441H   LINE      CODE     ---       #215
      ---         BLOCKEND  ---      ---       LVL=0

      00FFAC62H   BLOCK     CODE     ---       LVL=0
      R7          REGSYM    ---      BYTE      Flag_Key
      00FFAC62H   LINE      CODE     ---       #221
      00FFAC64H   LINE      CODE     ---       #224
      00FFAC78H   LINE      CODE     ---       #226
      00FFAC7DH   LINE      CODE     ---       #227
      00FFAC82H   LINE      CODE     ---       #228
      00FFAC87H   LINE      CODE     ---       #229
      00FFAC8CH   LINE      CODE     ---       #230
      00FFAC8FH   LINE      CODE     ---       #231
      00FFAC8FH   LINE      CODE     ---       #232
      ---         BLOCKEND  ---      ---       LVL=0

      00FFAC04H   BLOCK     CODE     ---       LVL=0
      00FFAC04H   LINE      CODE     ---       #237
      00FFAC04H   LINE      CODE     ---       #239
      00FFAC17H   LINE      CODE     ---       #240
      00FFAC2AH   LINE      CODE     ---       #241
      00FFAC2DH   LINE      CODE     ---       #242
      00FFAC30H   LINE      CODE     ---       #243
      00FFAC33H   LINE      CODE     ---       #245
      ---         BLOCKEND  ---      ---       LVL=0

      ---         MODULE    ---      ---       menu_font
      00010000H   PUBLIC    XDATA    ---       Page
      000103E8H   PUBLIC    XDATA    ---       Pin
      000103ECH   PUBLIC    XDATA    ---       Num
      0001052CH   PUBLIC    XDATA    WORD      ADC_1
      0001052EH   PUBLIC    XDATA    WORD      ADC_2
      00010530H   PUBLIC    XDATA    WORD      ADC_3
      00010532H   PUBLIC    XDATA    WORD      ADC_4
      00010534H   PUBLIC    XDATA    WORD      ADC_5
      00010536H   PUBLIC    XDATA    WORD      ADC_6
      00010538H   PUBLIC    XDATA    ---       Page0_children
      00010543H   PUBLIC    XDATA    WORD      ADC_8
      00010545H   PUBLIC    XDATA    ---       Page5_children
      000000D0H   SFRSYM    DATA     BYTE      PSW
      0000009DH   SFRSYM    DATA     BYTE      IRCBAND
      00000097H   SFRSYM    DATA     BYTE      AUXR2
      000000EFH   SFRSYM    DATA     BYTE      AUXINTIF
L251 LINKER/LOCATER V4.66.93.0                                                        10/07/2025  14:20:36  PAGE 127


      000000FDH   SFRSYM    DATA     BYTE      S4CON
      000000ACH   SFRSYM    DATA     BYTE      S3CON
      0000009AH   SFRSYM    DATA     BYTE      S2CON
      000000B7H   SFRSYM    DATA     BYTE      IPH
      000000CDH   SFRSYM    DATA     BYTE      SPSTAT
      000000DDH   SFRSYM    DATA     BYTE      T4T3M
      000000C1H   SFRSYM    DATA     BYTE      WDT_CONTR
      000000DFH   SFRSYM    DATA     BYTE      IP3
      000000F4H   SFRSYM    DATA     BYTE      USBCON
      000000B5H   SFRSYM    DATA     BYTE      IP2
      000000FFH   SFRSYM    DATA     BYTE      RSTCFG
      000000C7H   SFRSYM    DATA     BYTE      IAP_CONTR
      0000008EH   SFRSYM    DATA     BYTE      AUXR
      000000AFH   SFRSYM    DATA     BYTE      IE2
      00000088H   SFRSYM    DATA     BYTE      TCON
      00000089H   SFRSYM    DATA     BYTE      TMOD
      00000098H   SFRSYM    DATA     BYTE      SCON
      00000087H   SFRSYM    DATA     BYTE      PCON
      000000BCH   SFRSYM    DATA     BYTE      ADC_CONTR
      000000D1H   SFRSYM    DATA     BYTE      PSW1
      000000E7H   SFRSYM    DATA     BYTE      CMPCR2
      000000E6H   SFRSYM    DATA     BYTE      CMPCR1
      000000DEH   SFRSYM    DATA     BYTE      ADCCFG
      000000B8H   SFRSYM    DATA     BYTE      IP
      0000008FH   SFRSYM    DATA     BYTE      INTCLKO
      000000EEH   SFRSYM    DATA     BYTE      IP3H
      000000B6H   SFRSYM    DATA     BYTE      IP2H
      000000BFH   SFRSYM    DATA     BYTE      P_SW4
      000000A8H   SFRSYM    DATA     BYTE      IE
      000000BBH   SFRSYM    DATA     BYTE      P_SW3
      000000BAH   SFRSYM    DATA     BYTE      P_SW2
      000000A2H   SFRSYM    DATA     BYTE      P_SW1
      000000CEH   SFRSYM    DATA     BYTE      SPCTL
      000000F8H   SFRSYM    DATA     BYTE      P7
      000000E8H   SFRSYM    DATA     BYTE      P6
      000000C8H   SFRSYM    DATA     BYTE      P5
      000000C0H   SFRSYM    DATA     BYTE      P4
      000000ABH   SFRSYM    DATA     BYTE      WKTCH
      000000B0H   SFRSYM    DATA     BYTE      P3
      000000A0H   SFRSYM    DATA     BYTE      P2
      00000090H   SFRSYM    DATA     BYTE      P1
      00000080H   SFRSYM    DATA     BYTE      P0

      ---         MODULE    ---      ---       Device_Test
      00FFA60BH   PUBLIC    CODE     ---       Serve_Test
      00FFAD72H   PUBLIC    CODE     ---       Set_Sevo
      00FFABA1H   PUBLIC    CODE     ---       PWM_Test
      000000D0H   SFRSYM    DATA     BYTE      PSW
      0000009DH   SFRSYM    DATA     BYTE      IRCBAND
      00000097H   SFRSYM    DATA     BYTE      AUXR2
      000000EFH   SFRSYM    DATA     BYTE      AUXINTIF
      000000FDH   SFRSYM    DATA     BYTE      S4CON
      000000ACH   SFRSYM    DATA     BYTE      S3CON
      0000009AH   SFRSYM    DATA     BYTE      S2CON
      000000B7H   SFRSYM    DATA     BYTE      IPH
      000000CDH   SFRSYM    DATA     BYTE      SPSTAT
      000000DDH   SFRSYM    DATA     BYTE      T4T3M
      000000C1H   SFRSYM    DATA     BYTE      WDT_CONTR
      000000DFH   SFRSYM    DATA     BYTE      IP3
      000000F4H   SFRSYM    DATA     BYTE      USBCON
      000000B5H   SFRSYM    DATA     BYTE      IP2
      000000FFH   SFRSYM    DATA     BYTE      RSTCFG
      000000C7H   SFRSYM    DATA     BYTE      IAP_CONTR
      0000008EH   SFRSYM    DATA     BYTE      AUXR
      000000AFH   SFRSYM    DATA     BYTE      IE2
L251 LINKER/LOCATER V4.66.93.0                                                        10/07/2025  14:20:36  PAGE 128


      00000088H   SFRSYM    DATA     BYTE      TCON
      00000089H   SFRSYM    DATA     BYTE      TMOD
      00000098H   SFRSYM    DATA     BYTE      SCON
      00000087H   SFRSYM    DATA     BYTE      PCON
      000000BCH   SFRSYM    DATA     BYTE      ADC_CONTR
      000000D1H   SFRSYM    DATA     BYTE      PSW1
      000000E7H   SFRSYM    DATA     BYTE      CMPCR2
      000000E6H   SFRSYM    DATA     BYTE      CMPCR1
      000000DEH   SFRSYM    DATA     BYTE      ADCCFG
      000000B8H   SFRSYM    DATA     BYTE      IP
      0000008FH   SFRSYM    DATA     BYTE      INTCLKO
      000000EEH   SFRSYM    DATA     BYTE      IP3H
      000000B6H   SFRSYM    DATA     BYTE      IP2H
      000000BFH   SFRSYM    DATA     BYTE      P_SW4
      000000A8H   SFRSYM    DATA     BYTE      IE
      000000BBH   SFRSYM    DATA     BYTE      P_SW3
      000000BAH   SFRSYM    DATA     BYTE      P_SW2
      000000A2H   SFRSYM    DATA     BYTE      P_SW1
      000000CEH   SFRSYM    DATA     BYTE      SPCTL
      000000F8H   SFRSYM    DATA     BYTE      P7
      000000E8H   SFRSYM    DATA     BYTE      P6
      000000C8H   SFRSYM    DATA     BYTE      P5
      000000C0H   SFRSYM    DATA     BYTE      P4
      000000ABH   SFRSYM    DATA     BYTE      WKTCH
      000000B0H   SFRSYM    DATA     BYTE      P3
      000000A0H   SFRSYM    DATA     BYTE      P2
      00000090H   SFRSYM    DATA     BYTE      P1
      00000080H   SFRSYM    DATA     BYTE      P0

      00FFA60BH   BLOCK     CODE     ---       LVL=0
      00FFA60DH   BLOCK     CODE     NEAR LAB  LVL=1
      R14         REGSYM    ---      BYTE      a
      R15         REGSYM    ---      BYTE      j
      ---         BLOCKEND  ---      ---       LVL=1
      00FFA60BH   LINE      CODE     ---       #3
      00FFA60DH   LINE      CODE     ---       #4
      00FFA60DH   LINE      CODE     ---       #8
      00FFA611H   LINE      CODE     ---       #10
      00FFA615H   LINE      CODE     ---       #12
      00FFA61EH   LINE      CODE     ---       #13
      00FFA625H   LINE      CODE     ---       #14
      00FFA633H   LINE      CODE     ---       #16
      00FFA637H   LINE      CODE     ---       #18
      00FFA642H   LINE      CODE     ---       #19
      00FFA649H   LINE      CODE     ---       #20
      00FFA657H   LINE      CODE     ---       #22
      00FFA65EH   LINE      CODE     ---       #23
      ---         BLOCKEND  ---      ---       LVL=0

      00FFABA1H   BLOCK     CODE     ---       LVL=0
      00FFABA1H   LINE      CODE     ---       #25
      00FFABA1H   LINE      CODE     ---       #27
      00FFABBAH   LINE      CODE     ---       #28
      00FFABD3H   LINE      CODE     ---       #29
      ---         BLOCKEND  ---      ---       LVL=0

      00FFAD72H   BLOCK     CODE     ---       LVL=0
      00FFAD72H   LINE      CODE     ---       #31
      00FFAD72H   LINE      CODE     ---       #33
      00FFAD82H   LINE      CODE     ---       #34
      ---         BLOCKEND  ---      ---       LVL=0

      ---         MODULE    ---      ---       oled
      00FF3940H   PUBLIC    CODE     ---       asc2_0806
      00FF3B68H   PUBLIC    CODE     ---       asc2_1608
L251 LINKER/LOCATER V4.66.93.0                                                        10/07/2025  14:20:36  PAGE 129


      00FF4158H   PUBLIC    CODE     ---       Hzk
      000000D0H   SFRSYM    DATA     BYTE      PSW
      0000009DH   SFRSYM    DATA     BYTE      IRCBAND
      00000097H   SFRSYM    DATA     BYTE      AUXR2
      000000EFH   SFRSYM    DATA     BYTE      AUXINTIF
      000000FDH   SFRSYM    DATA     BYTE      S4CON
      000000ACH   SFRSYM    DATA     BYTE      S3CON
      0000009AH   SFRSYM    DATA     BYTE      S2CON
      000000B7H   SFRSYM    DATA     BYTE      IPH
      000000CDH   SFRSYM    DATA     BYTE      SPSTAT
      000000DDH   SFRSYM    DATA     BYTE      T4T3M
      000000C1H   SFRSYM    DATA     BYTE      WDT_CONTR
      000000DFH   SFRSYM    DATA     BYTE      IP3
      000000F4H   SFRSYM    DATA     BYTE      USBCON
      000000B5H   SFRSYM    DATA     BYTE      IP2
      000000FFH   SFRSYM    DATA     BYTE      RSTCFG
      000000C7H   SFRSYM    DATA     BYTE      IAP_CONTR
      0000008EH   SFRSYM    DATA     BYTE      AUXR
      000000AFH   SFRSYM    DATA     BYTE      IE2
      00000088H   SFRSYM    DATA     BYTE      TCON
      00000089H   SFRSYM    DATA     BYTE      TMOD
      00000098H   SFRSYM    DATA     BYTE      SCON
      00000087H   SFRSYM    DATA     BYTE      PCON
      000000BCH   SFRSYM    DATA     BYTE      ADC_CONTR
      000000D1H   SFRSYM    DATA     BYTE      PSW1
      000000E7H   SFRSYM    DATA     BYTE      CMPCR2
      000000E6H   SFRSYM    DATA     BYTE      CMPCR1
      000000DEH   SFRSYM    DATA     BYTE      ADCCFG
      000000B8H   SFRSYM    DATA     BYTE      IP
      0000008FH   SFRSYM    DATA     BYTE      INTCLKO
      000000EEH   SFRSYM    DATA     BYTE      IP3H
      000000B6H   SFRSYM    DATA     BYTE      IP2H
      000000BFH   SFRSYM    DATA     BYTE      P_SW4
      000000A8H   SFRSYM    DATA     BYTE      IE
      000000BBH   SFRSYM    DATA     BYTE      P_SW3
      000000BAH   SFRSYM    DATA     BYTE      P_SW2
      000000A2H   SFRSYM    DATA     BYTE      P_SW1
      000000CEH   SFRSYM    DATA     BYTE      SPCTL
      000000F8H   SFRSYM    DATA     BYTE      P7
      000000E8H   SFRSYM    DATA     BYTE      P6
      000000C8H   SFRSYM    DATA     BYTE      P5
      000000C0H   SFRSYM    DATA     BYTE      P4
      000000ABH   SFRSYM    DATA     BYTE      WKTCH
      000000B0H   SFRSYM    DATA     BYTE      P3
      000000A0H   SFRSYM    DATA     BYTE      P2
      00000090H   SFRSYM    DATA     BYTE      P1
      00000080H   SFRSYM    DATA     BYTE      P0
      WR2         REGSYM    ---      WORD      ms
      WR0         REGSYM    ---      WORD      a
      R15         REGSYM    ---      BYTE      i
      R15         REGSYM    ---      BYTE      i
      R15         REGSYM    ---      BYTE      dat
      R10         REGSYM    ---      BYTE      cmd
      R14         REGSYM    ---      BYTE      i
      R15         REGSYM    ---      BYTE      x
      R10         REGSYM    ---      BYTE      y
      R15         REGSYM    ---      BYTE      i
      R14         REGSYM    ---      BYTE      n
      R13         REGSYM    ---      BYTE      x
      R14         REGSYM    ---      BYTE      y
      R3          REGSYM    ---      BYTE      chr
      R15         REGSYM    ---      BYTE      sizey
      R12         REGSYM    ---      BYTE      facial
      R3          REGSYM    ---      BYTE      m
      R10         REGSYM    ---      BYTE      n
L251 LINKER/LOCATER V4.66.93.0                                                        10/07/2025  14:20:36  PAGE 130


      WR6         REGSYM    ---      WORD      result
      WR14        REGSYM    ---      WORD      num
      R12         REGSYM    ---      BYTE      len
      R13         REGSYM    ---      BYTE      sizey
      REG=3       REGSYM    ---      ---       chr
      R12         REGSYM    ---      BYTE      x
      R13         REGSYM    ---      BYTE      y
      R14         REGSYM    ---      BYTE      no
      R15         REGSYM    ---      BYTE      sizey

      ---         MODULE    ---      ---       Strategy
      00FF8A99H   PUBLIC    CODE     ---       if_Cycle
      00FFA661H   PUBLIC    CODE     ---       Help_turn
      00FF6E97H   PUBLIC    CODE     ---       State_of_road
      00010C71H   PUBLIC    XDATA    WORD      Long_Time
      00010C73H   PUBLIC    XDATA    WORD      Short_Time
      00010C75H   PUBLIC    XDATA    BYTE      Road_Stat
      00010C76H   PUBLIC    XDATA    WORD      Entern_Continue_Time
      00010C78H   PUBLIC    XDATA    WORD      if2_time
      00010C7AH   PUBLIC    XDATA    WORD      Not_Time
      00010C7CH   PUBLIC    XDATA    INT       turn_Value
      00010C7EH   PUBLIC    XDATA    WORD      Entern_Delay_Time
      00010C80H   PUBLIC    XDATA    WORD      slow_Time
      00010C82H   PUBLIC    XDATA    WORD      Continue_Time
      00010C84H   PUBLIC    XDATA    WORD      Entern_Flag_Time
      00010C86H   PUBLIC    XDATA    BYTE      Enter_Flag_Left
      00010C87H   PUBLIC    XDATA    FLOAT     uni
      00010C8BH   PUBLIC    XDATA    WORD      if_time
      00010C8DH   PUBLIC    XDATA    INT       Mode_Flag
      00010C8FH   PUBLIC    XDATA    FLOAT     last_uni
      00010C93H   PUBLIC    XDATA    WORD      Bend_Time
      00010C95H   PUBLIC    XDATA    BYTE      Cycle_Stat
      000000D0H   SFRSYM    DATA     BYTE      PSW
      0000009DH   SFRSYM    DATA     BYTE      IRCBAND
      00000097H   SFRSYM    DATA     BYTE      AUXR2
      000000EFH   SFRSYM    DATA     BYTE      AUXINTIF
      000000FDH   SFRSYM    DATA     BYTE      S4CON
      000000ACH   SFRSYM    DATA     BYTE      S3CON
      0000009AH   SFRSYM    DATA     BYTE      S2CON
      000000B7H   SFRSYM    DATA     BYTE      IPH
      000000CDH   SFRSYM    DATA     BYTE      SPSTAT
      000000DDH   SFRSYM    DATA     BYTE      T4T3M
      000000C1H   SFRSYM    DATA     BYTE      WDT_CONTR
      000000DFH   SFRSYM    DATA     BYTE      IP3
      000000F4H   SFRSYM    DATA     BYTE      USBCON
      000000B5H   SFRSYM    DATA     BYTE      IP2
      000000FFH   SFRSYM    DATA     BYTE      RSTCFG
      000000C7H   SFRSYM    DATA     BYTE      IAP_CONTR
      0000008EH   SFRSYM    DATA     BYTE      AUXR
      000000AFH   SFRSYM    DATA     BYTE      IE2
      00000088H   SFRSYM    DATA     BYTE      TCON
      00000089H   SFRSYM    DATA     BYTE      TMOD
      00000098H   SFRSYM    DATA     BYTE      SCON
      00000087H   SFRSYM    DATA     BYTE      PCON
      000000BCH   SFRSYM    DATA     BYTE      ADC_CONTR
      000000D1H   SFRSYM    DATA     BYTE      PSW1
      000000E7H   SFRSYM    DATA     BYTE      CMPCR2
      000000E6H   SFRSYM    DATA     BYTE      CMPCR1
      000000DEH   SFRSYM    DATA     BYTE      ADCCFG
      000000B8H   SFRSYM    DATA     BYTE      IP
      0000008FH   SFRSYM    DATA     BYTE      INTCLKO
      000000EEH   SFRSYM    DATA     BYTE      IP3H
      000000B6H   SFRSYM    DATA     BYTE      IP2H
      000000BFH   SFRSYM    DATA     BYTE      P_SW4
      000000A8H   SFRSYM    DATA     BYTE      IE
L251 LINKER/LOCATER V4.66.93.0                                                        10/07/2025  14:20:36  PAGE 131


      000000BBH   SFRSYM    DATA     BYTE      P_SW3
      000000BAH   SFRSYM    DATA     BYTE      P_SW2
      000000A2H   SFRSYM    DATA     BYTE      P_SW1
      000000CEH   SFRSYM    DATA     BYTE      SPCTL
      000000F8H   SFRSYM    DATA     BYTE      P7
      000000E8H   SFRSYM    DATA     BYTE      P6
      000000C8H   SFRSYM    DATA     BYTE      P5
      000000C0H   SFRSYM    DATA     BYTE      P4
      000000ABH   SFRSYM    DATA     BYTE      WKTCH
      000000B0H   SFRSYM    DATA     BYTE      P3
      000000A0H   SFRSYM    DATA     BYTE      P2
      00000090H   SFRSYM    DATA     BYTE      P1
      00000080H   SFRSYM    DATA     BYTE      P0

      00FF8A99H   BLOCK     CODE     ---       LVL=0
      00FF8A99H   LINE      CODE     ---       #24
      00FF8A99H   LINE      CODE     ---       #26
      00FF8AAEH   LINE      CODE     ---       #28
      00FF8AAEH   LINE      CODE     ---       #31
      00FF8AC6H   LINE      CODE     ---       #33
      00FF8AD1H   LINE      CODE     ---       #34
      00FF8AE4H   LINE      CODE     ---       #36
      00FF8AE9H   LINE      CODE     ---       #37
      00FF8AF1H   LINE      CODE     ---       #38
      00FF8AF4H   LINE      CODE     ---       #42
      00FF8AFCH   LINE      CODE     ---       #43
      00FF8AFCH   LINE      CODE     ---       #44
      00FF8AFFH   LINE      CODE     ---       #46
      00FF8AFFH   LINE      CODE     ---       #48
      00FF8B17H   LINE      CODE     ---       #50
      00FF8B22H   LINE      CODE     ---       #51
      00FF8B32H   LINE      CODE     ---       #53
      00FF8B38H   LINE      CODE     ---       #54
      00FF8B40H   LINE      CODE     ---       #55
      00FF8B42H   LINE      CODE     ---       #59
      00FF8B4AH   LINE      CODE     ---       #60
      00FF8B4AH   LINE      CODE     ---       #61
      00FF8B4CH   LINE      CODE     ---       #63
      00FF8B4CH   LINE      CODE     ---       #65
      00FF8B52H   LINE      CODE     ---       #66
      00FF8B55H   LINE      CODE     ---       #67
      00FF8B60H   LINE      CODE     ---       #68
      00FF8B70H   LINE      CODE     ---       #70
      00FF8B76H   LINE      CODE     ---       #71
      00FF8B7EH   LINE      CODE     ---       #72
      00FF8B83H   LINE      CODE     ---       #73
      00FF8B86H   LINE      CODE     ---       #74
      00FF8B86H   LINE      CODE     ---       #75
      00FF8B88H   LINE      CODE     ---       #77
      00FF8B88H   LINE      CODE     ---       #79
      00FF8B8BH   LINE      CODE     ---       #80
      00FF8B8BH   LINE      CODE     ---       #82
      00FF8B8BH   LINE      CODE     ---       #84
      ---         BLOCKEND  ---      ---       LVL=0

      00FFA661H   BLOCK     CODE     ---       LVL=0
      WR2         REGSYM    ---      INT       left
      WR4         REGSYM    ---      INT       right
      00FFA661H   LINE      CODE     ---       #86
      00FFA661H   LINE      CODE     ---       #87
      00FFA661H   LINE      CODE     ---       #88
      00FFA66FH   LINE      CODE     ---       #89
      00FFA67DH   LINE      CODE     ---       #90
      00FFA689H   LINE      CODE     ---       #93
      00FFA68DH   LINE      CODE     ---       #94
L251 LINKER/LOCATER V4.66.93.0                                                        10/07/2025  14:20:36  PAGE 132


      00FFA693H   LINE      CODE     ---       #96
      00FFA699H   LINE      CODE     ---       #97
      00FFA699H   LINE      CODE     ---       #98
      00FFA69FH   LINE      CODE     ---       #100
      00FFA6A5H   LINE      CODE     ---       #101
      00FFA6A5H   LINE      CODE     ---       #102
      00FFA6ABH   LINE      CODE     ---       #104
      00FFA6B1H   LINE      CODE     ---       #105
      00FFA6B1H   LINE      CODE     ---       #108
      00FFA6B3H   LINE      CODE     ---       #109
      00FFA6B3H   LINE      CODE     ---       #110
      ---         BLOCKEND  ---      ---       LVL=0

      00FF6E97H   BLOCK     CODE     ---       LVL=0
      00FF6E97H   LINE      CODE     ---       #112
      00FF6E97H   LINE      CODE     ---       #114
      00FF6EB4H   LINE      CODE     ---       #116
      00FF6EB4H   LINE      CODE     ---       #118
      00FF6EEDH   LINE      CODE     ---       #120
      00FF6EF8H   LINE      CODE     ---       #121
      00FF6F14H   LINE      CODE     ---       #123
      00FF6F17H   LINE      CODE     ---       #124
      00FF6F1FH   LINE      CODE     ---       #125
      00FF6F25H   LINE      CODE     ---       #126
      00FF6F37H   LINE      CODE     ---       #127
      00FF6F46H   LINE      CODE     ---       #128
      00FF6F49H   LINE      CODE     ---       #132
      00FF6F51H   LINE      CODE     ---       #133
      00FF6F51H   LINE      CODE     ---       #134
      00FF6F54H   LINE      CODE     ---       #136
      00FF6F54H   LINE      CODE     ---       #138
      00FF6F90H   LINE      CODE     ---       #140
      00FF6F9BH   LINE      CODE     ---       #141
      00FF6FA3H   LINE      CODE     ---       #142
      00FF6FBFH   LINE      CODE     ---       #144
      00FF6FC2H   LINE      CODE     ---       #145
      00FF6FCAH   LINE      CODE     ---       #146
      00FF6FD0H   LINE      CODE     ---       #147
      00FF6FE2H   LINE      CODE     ---       #148
      00FF6FF1H   LINE      CODE     ---       #149
      00FF6FF4H   LINE      CODE     ---       #153
      00FF6FFCH   LINE      CODE     ---       #154
      00FF7007H   LINE      CODE     ---       #156
      00FF7016H   LINE      CODE     ---       #158
      00FF701EH   LINE      CODE     ---       #159
      00FF7023H   LINE      CODE     ---       #160
      00FF7032H   LINE      CODE     ---       #161
      00FF7032H   LINE      CODE     ---       #163
      00FF7032H   LINE      CODE     ---       #164
      00FF7035H   LINE      CODE     ---       #166
      00FF7035H   LINE      CODE     ---       #168
      00FF706EH   LINE      CODE     ---       #170
      00FF7079H   LINE      CODE     ---       #171
      00FF7088H   LINE      CODE     ---       #173
      00FF708BH   LINE      CODE     ---       #174
      00FF7093H   LINE      CODE     ---       #175
      00FF7099H   LINE      CODE     ---       #176
      00FF709DH   LINE      CODE     ---       #177
      00FF70ACH   LINE      CODE     ---       #178
      00FF70AFH   LINE      CODE     ---       #183
      00FF70B7H   LINE      CODE     ---       #184
      00FF70B7H   LINE      CODE     ---       #185
      00FF70BAH   LINE      CODE     ---       #187
      00FF70BAH   LINE      CODE     ---       #189
      00FF70C5H   LINE      CODE     ---       #190
L251 LINKER/LOCATER V4.66.93.0                                                        10/07/2025  14:20:36  PAGE 133


      00FF70DEH   LINE      CODE     ---       #192
      00FF70F0H   LINE      CODE     ---       #193
      00FF70F2H   LINE      CODE     ---       #196
      00FF710CH   LINE      CODE     ---       #198
      00FF7110H   LINE      CODE     ---       #199
      00FF7112H   LINE      CODE     ---       #200
      00FF7131H   LINE      CODE     ---       #202
      00FF7135H   LINE      CODE     ---       #203
      00FF7137H   LINE      CODE     ---       #206
      00FF713AH   LINE      CODE     ---       #207
      00FF7142H   LINE      CODE     ---       #208
      00FF7147H   LINE      CODE     ---       #209
      00FF714BH   LINE      CODE     ---       #210
      00FF715AH   LINE      CODE     ---       #211
      00FF715AH   LINE      CODE     ---       #212
      00FF715AH   LINE      CODE     ---       #213
      00FF715CH   LINE      CODE     ---       #215
      00FF715CH   LINE      CODE     ---       #217
      00FF715FH   LINE      CODE     ---       #218
      00FF7162H   LINE      CODE     ---       #219
      00FF7162H   LINE      CODE     ---       #222
      00FF7162H   LINE      CODE     ---       #224
      ---         BLOCKEND  ---      ---       LVL=0

      ---         MODULE    ---      ---       Buzzer
      00FF01AEH   PUBLIC    CODE     ---       Buzzer_ON
      00FF01BEH   PUBLIC    CODE     ---       Buzzer_OFF
      00FFAD83H   PUBLIC    CODE     ---       Buzzer_Init
      000000D0H   SFRSYM    DATA     BYTE      PSW
      0000009DH   SFRSYM    DATA     BYTE      IRCBAND
      00000097H   SFRSYM    DATA     BYTE      AUXR2
      000000EFH   SFRSYM    DATA     BYTE      AUXINTIF
      000000FDH   SFRSYM    DATA     BYTE      S4CON
      000000ACH   SFRSYM    DATA     BYTE      S3CON
      0000009AH   SFRSYM    DATA     BYTE      S2CON
      000000B7H   SFRSYM    DATA     BYTE      IPH
      000000CDH   SFRSYM    DATA     BYTE      SPSTAT
      000000DDH   SFRSYM    DATA     BYTE      T4T3M
      000000C1H   SFRSYM    DATA     BYTE      WDT_CONTR
      000000DFH   SFRSYM    DATA     BYTE      IP3
      000000F4H   SFRSYM    DATA     BYTE      USBCON
      000000B5H   SFRSYM    DATA     BYTE      IP2
      000000FFH   SFRSYM    DATA     BYTE      RSTCFG
      000000C7H   SFRSYM    DATA     BYTE      IAP_CONTR
      0000008EH   SFRSYM    DATA     BYTE      AUXR
      000000AFH   SFRSYM    DATA     BYTE      IE2
      00000088H   SFRSYM    DATA     BYTE      TCON
      00000089H   SFRSYM    DATA     BYTE      TMOD
      00000098H   SFRSYM    DATA     BYTE      SCON
      00000087H   SFRSYM    DATA     BYTE      PCON
      000000BCH   SFRSYM    DATA     BYTE      ADC_CONTR
      000000D1H   SFRSYM    DATA     BYTE      PSW1
      000000E7H   SFRSYM    DATA     BYTE      CMPCR2
      000000E6H   SFRSYM    DATA     BYTE      CMPCR1
      000000DEH   SFRSYM    DATA     BYTE      ADCCFG
      000000B8H   SFRSYM    DATA     BYTE      IP
      0000008FH   SFRSYM    DATA     BYTE      INTCLKO
      000000EEH   SFRSYM    DATA     BYTE      IP3H
      000000B6H   SFRSYM    DATA     BYTE      IP2H
      000000BFH   SFRSYM    DATA     BYTE      P_SW4
      000000A8H   SFRSYM    DATA     BYTE      IE
      000000BBH   SFRSYM    DATA     BYTE      P_SW3
      000000BAH   SFRSYM    DATA     BYTE      P_SW2
      000000A2H   SFRSYM    DATA     BYTE      P_SW1
      000000CEH   SFRSYM    DATA     BYTE      SPCTL
L251 LINKER/LOCATER V4.66.93.0                                                        10/07/2025  14:20:36  PAGE 134


      000000F8H   SFRSYM    DATA     BYTE      P7
      000000E8H   SFRSYM    DATA     BYTE      P6
      000000C8H   SFRSYM    DATA     BYTE      P5
      000000C0H   SFRSYM    DATA     BYTE      P4
      000000ABH   SFRSYM    DATA     BYTE      WKTCH
      000000B0H   SFRSYM    DATA     BYTE      P3
      000000A0H   SFRSYM    DATA     BYTE      P2
      00000090H   SFRSYM    DATA     BYTE      P1
      00000080H   SFRSYM    DATA     BYTE      P0

      00FFAD83H   BLOCK     CODE     ---       LVL=0
      00FFAD83H   LINE      CODE     ---       #2
      00FFAD83H   LINE      CODE     ---       #4
      00FFAD93H   LINE      CODE     ---       #5
      ---         BLOCKEND  ---      ---       LVL=0

      00FF01AEH   BLOCK     CODE     ---       LVL=0
      00FF01AEH   LINE      CODE     ---       #6
      00FF01AEH   LINE      CODE     ---       #8
      00FF01B7H   LINE      CODE     ---       #9
      ---         BLOCKEND  ---      ---       LVL=0

      00FF01BEH   BLOCK     CODE     ---       LVL=0
      00FF01BEH   LINE      CODE     ---       #11
      00FF01BEH   LINE      CODE     ---       #13
      00FF01C6H   LINE      CODE     ---       #14
      ---         BLOCKEND  ---      ---       LVL=0

      ---         MODULE    ---      ---       ?C?DPADD
      00FF2225H   PUBLIC    CODE     ---       ?C?DPADD
      00FF2221H   PUBLIC    CODE     ---       ?C?DPSUB

      ---         MODULE    ---      ---       ?C?DPMUL
      00FF2334H   PUBLIC    CODE     ---       ?C?DPMUL

      ---         MODULE    ---      ---       ?C?DPDIV
      00FF2444H   PUBLIC    CODE     ---       ?C?DPDIV

      ---         MODULE    ---      ---       ?C?DPCMP
      00FF24E5H   PUBLIC    CODE     ---       ?C?DPCMP
      00FF24E3H   PUBLIC    CODE     ---       ?C?DPCMP3

      ---         MODULE    ---      ---       ?C?DPNEG
      00FF2544H   PUBLIC    CODE     ---       ?C?DPNEG

      ---         MODULE    ---      ---       ?C?DCAST
      00FF255CH   PUBLIC    CODE     NEAR LAB  ?C?DCASTC
      00FF2557H   PUBLIC    CODE     NEAR LAB  ?C?DCASTI
      00FF2552H   PUBLIC    CODE     NEAR LAB  ?C?DCASTL

      ---         MODULE    ---      ---       ?C?CASTD
      00FF259FH   PUBLIC    CODE     NEAR LAB  ?C?CASTD

      ---         MODULE    ---      ---       ?C?DCASTF
      00FF25FFH   PUBLIC    CODE     NEAR LAB  ?C?DCASTF

      ---         MODULE    ---      ---       ?C?FCASTD
      00FF2641H   PUBLIC    CODE     NEAR LAB  ?C?FCASTD

      ---         MODULE    ---      ---       PRINTF
      00010AD6H   PUBLIC    XDATA    ---       ?PRINTF?BYTE
      00FF2678H   PUBLIC    CODE     NEAR LAB  PRINTF

      ---         MODULE    ---      ---       SPRINTF
      00010A87H   PUBLIC    XDATA    ---       ?SPRINTF?BYTE
L251 LINKER/LOCATER V4.66.93.0                                                        10/07/2025  14:20:36  PAGE 135


      00FF26A4H   PUBLIC    CODE     NEAR LAB  SPRINTF

      ---         MODULE    ---      ---       SQRT?_
      00FF26CAH   PUBLIC    CODE     ---       SQRT?_

      ---         MODULE    ---      ---       pow

      ---         MODULE    ---      ---       SIN?_
      00FF2818H   PUBLIC    CODE     ---       COS?_
      00FF2839H   PUBLIC    CODE     ---       SIN?_
      00FF286EH   PUBLIC    CODE     ---       TAN?_

      ---         MODULE    ---      ---       ATAN?_
      00FF29B0H   PUBLIC    CODE     ---       ATAN?_

      ---         MODULE    ---      ---       ASIN?_
      00FF2ACBH   PUBLIC    CODE     ---       ASIN?_

      ---         MODULE    ---      ---       ?C?DPGETOPN
      00FF2AF5H   PUBLIC    CODE     ---       ?C?DPGETOPN2
      00FF2B40H   PUBLIC    CODE     ---       ?C?DPNANRESULT
      00FF2B4CH   PUBLIC    CODE     ---       ?C?DPOVERFLOW
      00FF2B18H   PUBLIC    CODE     ---       ?C?DPRESULT
      00FF2B31H   PUBLIC    CODE     ---       ?C?DPRESULT2
      00FF2B47H   PUBLIC    CODE     ---       ?C?DPUNDERFLOW

      ---         MODULE    ---      ---       _CHKDOUBLE_?_
      00FF2B5AH   PUBLIC    CODE     ---       _CHKDOUBLE_?_

      ---         MODULE    ---      ---       ?C?PRNFMT
      00FF2BA5H   PUBLIC    CODE     ---       ?C?PRNFMT

      ---         MODULE    ---      ---       ?C?DPSERIES
      00FF2FD3H   PUBLIC    CODE     ---       ?C?DP2SERIES
      00FF2FDEH   PUBLIC    CODE     ---       ?C?DPSERIES

      ---         MODULE    ---      ---       EXP?_
      00FF30BAH   PUBLIC    CODE     ---       EXP?_

      ---         MODULE    ---      ---       LOG?_
      00FF31A3H   PUBLIC    CODE     NEAR LAB  LOG?_

      ---         MODULE    ---      ---       ?C?DPCONVERT
      00FF32BEH   PUBLIC    CODE     ---       ?C?DPCONVERT
      00FF33E5H   PUBLIC    CODE     ---       ?C?DPROUND

      ---         MODULE    ---      ---       ?C?DTNPWR
      00FF34C0H   PUBLIC    CODE     ---       ?C?DTNPWR

      ---         MODULE    ---      ---       ?C?FPGETOPN
      00FF3546H   PUBLIC    CODE     ---       ?C?FPGETOPN2
      00FF3583H   PUBLIC    CODE     ---       ?C?FPNANRESULT
      00FF358BH   PUBLIC    CODE     ---       ?C?FPOVERFLOW
      00FF355FH   PUBLIC    CODE     ---       ?C?FPRESULT
      00FF3575H   PUBLIC    CODE     ---       ?C?FPRESULT2
      00FF3588H   PUBLIC    CODE     ---       ?C?FPUNDERFLOW

      ---         MODULE    ---      ---       ?C?FPADD
      00FF359DH   PUBLIC    CODE     ---       ?C?FPADD
      00FF359AH   PUBLIC    CODE     ---       ?C?FPSUB

      ---         MODULE    ---      ---       ?C?FPMUL
      00FF3655H   PUBLIC    CODE     ---       ?C?FPMUL

      ---         MODULE    ---      ---       ?C?FPDIV
L251 LINKER/LOCATER V4.66.93.0                                                        10/07/2025  14:20:36  PAGE 136


      00FF36F5H   PUBLIC    CODE     ---       ?C?FPDIV

      ---         MODULE    ---      ---       ?C?FPCMP
      00FF3778H   PUBLIC    CODE     ---       ?C?FPCMP
      00FF3776H   PUBLIC    CODE     ---       ?C?FPCMP3

      ---         MODULE    ---      ---       ?C?FPNEG
      00FF37BCH   PUBLIC    CODE     ---       ?C?FPNEG

      ---         MODULE    ---      ---       ?C?FCAST
      00FF37D4H   PUBLIC    CODE     NEAR LAB  ?C?FCASTC
      00FF37CFH   PUBLIC    CODE     NEAR LAB  ?C?FCASTI
      00FF37CAH   PUBLIC    CODE     NEAR LAB  ?C?FCASTL

      ---         MODULE    ---      ---       ?C?CASTF
      00FF3807H   PUBLIC    CODE     NEAR LAB  ?C?CASTF

      ---         MODULE    ---      ---       ?C?INITHDATA
      00FFA580H   PUBLIC    CODE     ---       ?C?INITHDATA

      ---         MODULE    ---      ---       ?C?SIDIV
      00FF3844H   PUBLIC    CODE     ---       ?C?SIDIV

      ---         MODULE    ---      ---       ?C?LMUL
      00FF3876H   PUBLIC    CODE     ---       ?C?LMUL

      ---         MODULE    ---      ---       ?C?LIMUL
      00FF3887H   PUBLIC    CODE     ---       ?C?LIMUL

      ---         MODULE    ---      ---       ?C?ULDIV
      00FF3892H   PUBLIC    CODE     NEAR LAB  ?C?ULDIV
      00FF3890H   PUBLIC    CODE     NEAR LAB  ?C?ULIDIV

      ---         MODULE    ---      ---       ?C?SLDIV
      00FF38E3H   PUBLIC    CODE     NEAR LAB  ?C?SLDIV

      ---         MODULE    ---      ---       ?C?BMOVEPP
      00FF3919H   PUBLIC    CODE     ---       ?C?BMOVEPP
      00FF3917H   PUBLIC    CODE     ---       ?C?BMOVEPP8

      ---         MODULE    ---      ---       STRNCMP

      ---         MODULE    ---      ---       STRNCPY

      ---         MODULE    ---      ---       STRLEN

      ---         MODULE    ---      ---       STRCHR

      ---         MODULE    ---      ---       memcpy
      00FFACE4H   PUBLIC    CODE     ---       memcpy?_

      ---         MODULE    ---      ---       memset

      ---         MODULE    ---      ---       ?C?INITHDATA_END
      00FFB8A2H   PUBLIC    HCONST   WORD      ?C?INITHDATA_END

Program Size: data=8.1 edata+hdata=1792 xdata=3473 const=7192 code=44440
L251 RUN COMPLETE.  0 WARNING(S),  0 ERROR(S)
