L251 LINKER/LOCATER V4.66.93.0                                                          11/08/2025  20:32:40  PAGE 1


L251 LINKER/LOCATER V4.66.93.0, INVOKED BY:
D:\KEIL\C251\BIN\L251.EXE .\out_file\ai8051u_isr.obj, .\out_file\zf_common_clock.obj, .\out_file\zf_common_debug.obj, .\
>> out_file\zf_common_fifo.obj, .\out_file\zf_common_font.obj, .\out_file\zf_common_function.obj, .\out_file\zf_common_t
>> ypedef.obj, .\out_file\zf_common_interrupt.obj, .\out_file\START251.obj, .\out_file\zf_driver_adc.obj, .\out_file\zf_
>> driver_delay.obj, .\out_file\zf_driver_eeprom.obj, .\out_file\zf_driver_encoder.obj, .\out_file\zf_driver_exti.obj, .
>> \out_file\zf_driver_gpio.obj, .\out_file\zf_driver_pit.obj, .\out_file\zf_driver_pwm.obj, .\out_file\zf_driver_soft_i
>> ic.obj, .\out_file\zf_driver_soft_spi.obj, .\out_file\zf_driver_spi.obj, .\out_file\zf_driver_timer.obj, .\out_file\z
>> f_driver_uart.obj, .\out_file\zf_device_config.obj, .\out_file\zf_device_type.obj, .\out_file\zf_device_tft180.obj, .
>> \out_file\zf_device_ips114.obj, .\out_file\zf_device_ips200.obj, .\out_file\zf_device_dl1a.obj, .\out_file\zf_device_
>> ble6a20.obj, .\out_file\zf_device_wireless_uart.obj, .\out_file\zf_device_icm20602.obj, .\out_file\zf_device_imu660ra
>> .obj, .\out_file\zf_device_imu660rb.obj, .\out_file\zf_device_imu963ra.obj, .\out_file\zf_device_gps_tau1201.obj, .\o
>> ut_file\zf_device_tsl1401.obj, .\out_file\seekfree_assistant.obj, .\out_file\seekfree_assistant_interface.obj, .\out_
>> file\isr.obj, .\out_file\main.obj, .\out_file\ADC_Get.obj, .\out_file\control.obj, .\out_file\eeprom.obj, .\out_file\
>> function.obj, .\out_file\Key.obj, .\out_file\menu.obj, .\out_file\menu_font.obj, .\out_file\Device_Test.obj, .\out_fi
>> le\oled.obj, .\out_file\Strategy.obj, .\out_file\Buzzer.obj TO .\out_file\SEEKFREE PRINT (.\out_file\SEEKFREE.map) CA
>> SE DISABLEWARNING (57, 16) REMOVEUNUSED CLASSES (EDATA (0X0-0X7FF), HDATA (0X0-0X7FF))


CPU MODE:     251 SOURCE MODE
INTR FRAME:   4 BYTES SAVED ON INTERRUPT
MEMORY MODEL: LARGE WITH DOUBLE PRECISION FLOATING POINT ARITHMETIC


INPUT MODULES INCLUDED:
  .\out_file\ai8051u_isr.obj (ai8051u_isr)
         COMMENT TYPE 0: A251 V4.69.13.0
  .\out_file\zf_common_clock.obj (zf_common_clock)
         COMMENT TYPE 0: C251 V5.60.0
  .\out_file\zf_common_debug.obj (zf_common_debug)
         COMMENT TYPE 0: C251 V5.60.0
  .\out_file\zf_common_fifo.obj (zf_common_fifo)
         COMMENT TYPE 0: C251 V5.60.0
  .\out_file\zf_common_font.obj (zf_common_font)
         COMMENT TYPE 0: C251 V5.60.0
  .\out_file\zf_common_function.obj (zf_common_function)
         COMMENT TYPE 0: C251 V5.60.0
  .\out_file\zf_common_typedef.obj (zf_common_typedef)
         COMMENT TYPE 0: C251 V5.60.0
  .\out_file\zf_common_interrupt.obj (zf_common_interrupt)
         COMMENT TYPE 0: C251 V5.60.0
  .\out_file\START251.obj (?C_START)
         COMMENT TYPE 0: A251 V4.69.13.0
  .\out_file\zf_driver_adc.obj (zf_driver_adc)
         COMMENT TYPE 0: C251 V5.60.0
  .\out_file\zf_driver_delay.obj (zf_driver_delay)
         COMMENT TYPE 0: C251 V5.60.0
  .\out_file\zf_driver_eeprom.obj (zf_driver_eeprom)
         COMMENT TYPE 0: C251 V5.60.0
  .\out_file\zf_driver_encoder.obj (zf_driver_encoder)
         COMMENT TYPE 0: C251 V5.60.0
  .\out_file\zf_driver_exti.obj (zf_driver_exti)
         COMMENT TYPE 0: C251 V5.60.0
  .\out_file\zf_driver_gpio.obj (zf_driver_gpio)
         COMMENT TYPE 0: C251 V5.60.0
  .\out_file\zf_driver_pit.obj (zf_driver_pit)
         COMMENT TYPE 0: C251 V5.60.0
  .\out_file\zf_driver_pwm.obj (zf_driver_pwm)
         COMMENT TYPE 0: C251 V5.60.0
  .\out_file\zf_driver_soft_iic.obj (zf_driver_soft_iic)
         COMMENT TYPE 0: C251 V5.60.0
  .\out_file\zf_driver_soft_spi.obj (zf_driver_soft_spi)
         COMMENT TYPE 0: C251 V5.60.0
  .\out_file\zf_driver_spi.obj (zf_driver_spi)
         COMMENT TYPE 0: C251 V5.60.0
  .\out_file\zf_driver_timer.obj (zf_driver_timer)
         COMMENT TYPE 0: C251 V5.60.0
L251 LINKER/LOCATER V4.66.93.0                                                        11/08/2025  20:32:40  PAGE 2


  .\out_file\zf_driver_uart.obj (zf_driver_uart)
         COMMENT TYPE 0: C251 V5.60.0
  .\out_file\zf_device_config.obj (zf_device_config)
         COMMENT TYPE 0: C251 V5.60.0
  .\out_file\zf_device_type.obj (zf_device_type)
         COMMENT TYPE 0: C251 V5.60.0
  .\out_file\zf_device_tft180.obj (zf_device_tft180)
         COMMENT TYPE 0: C251 V5.60.0
  .\out_file\zf_device_ips114.obj (zf_device_ips114)
         COMMENT TYPE 0: C251 V5.60.0
  .\out_file\zf_device_ips200.obj (zf_device_ips200)
         COMMENT TYPE 0: C251 V5.60.0
  .\out_file\zf_device_dl1a.obj (zf_device_dl1a)
         COMMENT TYPE 0: C251 V5.60.0
  .\out_file\zf_device_ble6a20.obj (zf_device_ble6a20)
         COMMENT TYPE 0: C251 V5.60.0
  .\out_file\zf_device_wireless_uart.obj (zf_device_wireless_uart)
         COMMENT TYPE 0: C251 V5.60.0
  .\out_file\zf_device_icm20602.obj (zf_device_icm20602)
         COMMENT TYPE 0: C251 V5.60.0
  .\out_file\zf_device_imu660ra.obj (zf_device_imu660ra)
         COMMENT TYPE 0: C251 V5.60.0
  .\out_file\zf_device_imu660rb.obj (zf_device_imu660rb)
         COMMENT TYPE 0: C251 V5.60.0
  .\out_file\zf_device_imu963ra.obj (zf_device_imu963ra)
         COMMENT TYPE 0: C251 V5.60.0
  .\out_file\zf_device_gps_tau1201.obj (zf_device_gps_tau1201)
         COMMENT TYPE 0: C251 V5.60.0
  .\out_file\zf_device_tsl1401.obj (zf_device_tsl1401)
         COMMENT TYPE 0: C251 V5.60.0
  .\out_file\seekfree_assistant.obj (seekfree_assistant)
         COMMENT TYPE 0: C251 V5.60.0
  .\out_file\seekfree_assistant_interface.obj (seekfree_assistant_interface)
         COMMENT TYPE 0: C251 V5.60.0
  .\out_file\isr.obj (isr)
         COMMENT TYPE 0: C251 V5.60.0
  .\out_file\main.obj (main)
         COMMENT TYPE 0: C251 V5.60.0
  .\out_file\ADC_Get.obj (ADC_Get)
         COMMENT TYPE 0: C251 V5.60.0
  .\out_file\control.obj (control)
         COMMENT TYPE 0: C251 V5.60.0
  .\out_file\eeprom.obj (eeprom)
         COMMENT TYPE 0: C251 V5.60.0
  .\out_file\function.obj (function)
         COMMENT TYPE 0: C251 V5.60.0
  .\out_file\Key.obj (Key)
         COMMENT TYPE 0: C251 V5.60.0
  .\out_file\menu.obj (menu)
         COMMENT TYPE 0: C251 V5.60.0
  .\out_file\menu_font.obj (menu_font)
         COMMENT TYPE 0: C251 V5.60.0
  .\out_file\Device_Test.obj (Device_Test)
         COMMENT TYPE 0: C251 V5.60.0
  .\out_file\oled.obj (oled)
         COMMENT TYPE 0: C251 V5.60.0
  .\out_file\Strategy.obj (Strategy)
         COMMENT TYPE 0: C251 V5.60.0
  .\out_file\Buzzer.obj (Buzzer)
         COMMENT TYPE 0: C251 V5.60.0
  D:\KEIL\C251\LIB\C2SDPL.LIB (?C?DPADD)
         COMMENT TYPE 0: A251 V4.69.6.0
  D:\KEIL\C251\LIB\C2SDPL.LIB (?C?DPMUL)
         COMMENT TYPE 0: A251 V4.69.6.0
  D:\KEIL\C251\LIB\C2SDPL.LIB (?C?DPDIV)
L251 LINKER/LOCATER V4.66.93.0                                                        11/08/2025  20:32:40  PAGE 3


         COMMENT TYPE 0: A251 V4.69.6.0
  D:\KEIL\C251\LIB\C2SDPL.LIB (?C?DPCMP)
         COMMENT TYPE 0: A251 V4.69.6.0
  D:\KEIL\C251\LIB\C2SDPL.LIB (?C?DPNEG)
         COMMENT TYPE 0: A251 V4.69.6.0
  D:\KEIL\C251\LIB\C2SDPL.LIB (?C?DCAST)
         COMMENT TYPE 0: A251 V4.69.6.0
  D:\KEIL\C251\LIB\C2SDPL.LIB (?C?CASTD)
         COMMENT TYPE 0: A251 V4.69.6.0
  D:\KEIL\C251\LIB\C2SDPL.LIB (?C?DCASTF)
         COMMENT TYPE 0: A251 V4.69.6.0
  D:\KEIL\C251\LIB\C2SDPL.LIB (?C?FCASTD)
         COMMENT TYPE 0: A251 V4.69.6.0
  D:\KEIL\C251\LIB\C2SDPL.LIB (PRINTF)
         COMMENT TYPE 0: A251 V4.69.6.0
  D:\KEIL\C251\LIB\C2SDPL.LIB (SPRINTF)
         COMMENT TYPE 0: A251 V4.69.6.0
  D:\KEIL\C251\LIB\C2SDPL.LIB (SQRT?_)
         COMMENT TYPE 0: A251 V4.69.6.0
  D:\KEIL\C251\LIB\C2SDPL.LIB (pow)
         COMMENT TYPE 0: C251 V5.58.7
  D:\KEIL\C251\LIB\C2SDPL.LIB (SIN?_)
         COMMENT TYPE 0: A251 V4.69.6.0
  D:\KEIL\C251\LIB\C2SDPL.LIB (ATAN?_)
         COMMENT TYPE 0: A251 V4.69.6.0
  D:\KEIL\C251\LIB\C2SDPL.LIB (ASIN?_)
         COMMENT TYPE 0: A251 V4.69.6.0
  D:\KEIL\C251\LIB\C2SDPL.LIB (?C?DPGETOPN)
         COMMENT TYPE 0: A251 V4.69.6.0
  D:\KEIL\C251\LIB\C2SDPL.LIB (_CHKDOUBLE_?_)
         COMMENT TYPE 0: A251 V4.69.6.0
  D:\KEIL\C251\LIB\C2SDPL.LIB (?C?PRNFMT)
         COMMENT TYPE 0: A251 V4.69.6.0
  D:\KEIL\C251\LIB\C2SDPL.LIB (?C?DPSERIES)
         COMMENT TYPE 0: A251 V4.69.6.0
  D:\KEIL\C251\LIB\C2SDPL.LIB (EXP?_)
         COMMENT TYPE 0: A251 V4.69.6.0
  D:\KEIL\C251\LIB\C2SDPL.LIB (LOG?_)
         COMMENT TYPE 0: A251 V4.69.6.0
  D:\KEIL\C251\LIB\C2SDPL.LIB (?C?DPCONVERT)
         COMMENT TYPE 0: A251 V4.69.6.0
  D:\KEIL\C251\LIB\C2SDPL.LIB (?C?DTNPWR)
         COMMENT TYPE 0: A251 V4.69.6.0
  D:\KEIL\C251\LIB\C2SFPL.LIB (?C?FPGETOPN)
         COMMENT TYPE 0: A251 V4.69.6.0
  D:\KEIL\C251\LIB\C2SFPL.LIB (?C?FPADD)
         COMMENT TYPE 0: A251 V4.69.6.0
  D:\KEIL\C251\LIB\C2SFPL.LIB (?C?FPMUL)
         COMMENT TYPE 0: A251 V4.69.6.0
  D:\KEIL\C251\LIB\C2SFPL.LIB (?C?FPDIV)
         COMMENT TYPE 0: A251 V4.69.6.0
  D:\KEIL\C251\LIB\C2SFPL.LIB (?C?FPCMP)
         COMMENT TYPE 0: A251 V4.69.6.0
  D:\KEIL\C251\LIB\C2SFPL.LIB (?C?FPNEG)
         COMMENT TYPE 0: A251 V4.69.6.0
  D:\KEIL\C251\LIB\C2SFPL.LIB (?C?FCAST)
         COMMENT TYPE 0: A251 V4.69.6.0
  D:\KEIL\C251\LIB\C2SFPL.LIB (?C?CASTF)
         COMMENT TYPE 0: A251 V4.69.6.0
  D:\KEIL\C251\LIB\C2SL.LIB (?C?INITHDATA)
         COMMENT TYPE 0: A251 V4.69.6.0
  D:\KEIL\C251\LIB\C2SL.LIB (?C?SIDIV)
         COMMENT TYPE 0: A251 V4.69.6.0
  D:\KEIL\C251\LIB\C2SL.LIB (?C?LMUL)
         COMMENT TYPE 0: A251 V4.69.6.0
L251 LINKER/LOCATER V4.66.93.0                                                        11/08/2025  20:32:40  PAGE 4


  D:\KEIL\C251\LIB\C2SL.LIB (?C?LIMUL)
         COMMENT TYPE 0: A251 V4.69.6.0
  D:\KEIL\C251\LIB\C2SL.LIB (?C?ULDIV)
         COMMENT TYPE 0: A251 V4.69.6.0
  D:\KEIL\C251\LIB\C2SL.LIB (?C?SLDIV)
         COMMENT TYPE 0: A251 V4.69.6.0
  D:\KEIL\C251\LIB\C2SL.LIB (?C?BMOVEPP)
         COMMENT TYPE 0: A251 V4.69.6.0
  D:\KEIL\C251\LIB\C2SL.LIB (STRNCMP)
         COMMENT TYPE 0: C251 V5.58.7
  D:\KEIL\C251\LIB\C2SL.LIB (STRNCPY)
         COMMENT TYPE 0: C251 V5.58.7
  D:\KEIL\C251\LIB\C2SL.LIB (STRLEN)
         COMMENT TYPE 0: C251 V5.58.7
  D:\KEIL\C251\LIB\C2SL.LIB (STRCHR)
         COMMENT TYPE 0: C251 V5.58.7
  D:\KEIL\C251\LIB\C2SL.LIB (memcpy)
         COMMENT TYPE 0: C251 V5.58.7
  D:\KEIL\C251\LIB\C2SL.LIB (memset)
         COMMENT TYPE 0: C251 V5.58.7
  D:\KEIL\C251\LIB\C2SL.LIB (?C?INITHDATA_END)
         COMMENT TYPE 0: A251 V4.69.6.0


ACTIVE MEMORY CLASSES OF MODULE:  .\out_file\SEEKFREE (ai8051u_isr)

BASE        START       END         USED      MEMORY CLASS
==========================================================
000000H     000000H     0007FFH     000700H   EDATA
000000H     000000H     0007FFH               HDATA
FF0000H     FF0000H     FFFFFFH     00C972H   CODE
010000H     010000H     01FFFFH     001987H   XDATA
000000H     FF0000H     FFFFFFH     002957H   HCONST
000020H.0   000020H.0   00002FH.7   000000H.1 BIT
FF0000H     FF0000H     FFFFFFH     000004H   CONST
000000H     000000H     00007FH     000008H   DATA


MEMORY MAP OF MODULE:  .\out_file\SEEKFREE (ai8051u_isr)


START     STOP      LENGTH    ALIGN  RELOC    MEMORY CLASS   SEGMENT NAME
=========================================================================
000000H   000007H   000008H   ---    AT..     DATA           "REG BANK 0"
000008H.0 00001FH.7 000018H.0 ---    ---      **GAP**
000020H.0 000020H.0 000000H.1 BIT    UNIT     BIT            ?BI?ADC_GET
000020H.1 000020H   000000H.7 ---    ---      **GAP**
000021H   000720H   000700H   BYTE   UNIT     EDATA          ?STACK
000721H   00FFFFH   00F8DFH   ---    ---      **GAP**
010000H   010B36H   000B37H   BYTE   INSEG    XDATA          ?XD?MENU_FONT
010B37H   0110EAH   0005B4H   BYTE   INSEG    XDATA          ?XD?STRATEGY
0110EBH   0112ECH   000202H   BYTE   INSEG    XDATA          ?XD?ZF_DEVICE_TSL1401
0112EDH   0114BCH   0001D0H   BYTE   INSEG    XDATA          ?XD?ZF_DEVICE_GPS_TAU1201
0114BDH   0115F9H   00013DH   BYTE   INSEG    XDATA          ?XD?SEEKFREE_ASSISTANT
0115FAH   011694H   00009BH   BYTE   INSEG    XDATA          ?XD?FUNCTION
011695H   011729H   000095H   BYTE   UNIT     XDATA          _XDATA_GROUP_
01172AH   011782H   000059H   BYTE   INSEG    XDATA          ?XD?ZF_COMMON_DEBUG
011783H   0117D9H   000057H   BYTE   INSEG    XDATA          ?XD?ZF_DEVICE_BLE6A20
0117DAH   011830H   000057H   BYTE   INSEG    XDATA          ?XD?ZF_DEVICE_WIRELESS_UART
011831H   01186EH   00003EH   BYTE   INSEG    XDATA          ?XD?ADC_GET
01186FH   01188CH   00001EH   BYTE   INSEG    XDATA          ?XD?ZF_COMMON_TYPEDEF
01188DH   0118AAH   00001EH   BYTE   INSEG    XDATA          ?XD?ZF_DEVICE_IMU963RA
0118ABH   0118BFH   000015H   BYTE   INSEG    XDATA          ?XD?CONTROL
0118C0H   0118D3H   000014H   BYTE   INSEG    XDATA          ?XD?ZF_DEVICE_ICM20602
0118D4H   0118E7H   000014H   BYTE   INSEG    XDATA          ?XD?ZF_DEVICE_IMU660RA
L251 LINKER/LOCATER V4.66.93.0                                                        11/08/2025  20:32:40  PAGE 5


0118E8H   0118F8H   000011H   BYTE   INSEG    XDATA          ?XD?MAIN
0118F9H   011905H   00000DH   BYTE   INSEG    XDATA          ?XD?ZF_DEVICE_DL1A
011906H   011912H   00000DH   BYTE   INSEG    XDATA          ?XD?MENU
011913H   01191EH   00000CH   BYTE   INSEG    XDATA          ?XD?ZF_DRIVER_TIMER
01191FH   01192AH   00000CH   BYTE   INSEG    XDATA          ?XD?ZF_DRIVER_UART
01192BH   011936H   00000CH   BYTE   INSEG    XDATA          ?XD?ZF_DEVICE_IMU660RB
011937H   011941H   00000BH   BYTE   INSEG    XDATA          ?XD?KEY
011942H   01194BH   00000AH   BYTE   INSEG    XDATA          ?XD?ZF_DEVICE_IPS200
01194CH   011953H   000008H   BYTE   UNIT     XDATA          ?XD?SOFT_IIC_DELAY?ZF_DRIVER_SOFT_IIC
011954H   01195BH   000008H   BYTE   INSEG    XDATA          ?XD?ZF_DEVICE_TYPE
01195CH   011963H   000008H   BYTE   INSEG    XDATA          ?XD?ZF_DEVICE_TFT180
011964H   01196BH   000008H   BYTE   INSEG    XDATA          ?XD?ZF_DEVICE_IPS114
01196CH   011971H   000006H   BYTE   INSEG    XDATA          ?XD?ZF_DRIVER_ENCODER
011972H   011975H   000004H   BYTE   INSEG    XDATA          ?XD?ZF_COMMON_CLOCK
011976H   011979H   000004H   BYTE   INSEG    XDATA          ?XD?ZF_DRIVER_DELAY
01197AH   01197DH   000004H   BYTE   INSEG    XDATA          ?XD?SEEKFREE_ASSISTANT_INTERFACE
01197EH   011980H   000003H   BYTE   UNIT     XDATA          ?XD?SOFT_IIC_READ_DATA?ZF_DRIVER_SOFT_IIC
011981H   011982H   000002H   BYTE   UNIT     XDATA          ?XD?SOFT_IIC_SEND_DATA?ZF_DRIVER_SOFT_IIC
011983H   011983H   000001H   BYTE   INSEG    XDATA          ?XD?ZF_DRIVER_ADC
011984H   011984H   000001H   BYTE   UNIT     XDATA          ?XD?SOFT_IIC_SEND_ACK?ZF_DRIVER_SOFT_IIC
011985H   011985H   000001H   BYTE   UNIT     XDATA          ?XD?SOFT_IIC_WAIT_ACK?ZF_DRIVER_SOFT_IIC
011986H   011986H   000001H   BYTE   INSEG    XDATA          ?XD?ISR
011987H   FEFFFFH   FDE679H   ---    ---      **GAP**
FF0000H   FF0002H   000003H   ---    OFFS..   CODE           ?CO?START251?4
FF0003H   FF0008H   000006H   BYTE   INSEG    CODE           ?PR?SPI_WRITE_8BIT?ZF_DRIVER_SPI
FF0009H   FF000AH   000002H   ---    ---      **GAP**
FF000BH   FF000DH   000003H   ---    OFFS..   CODE           ?PR?IV?1
FF000EH   FF001AH   00000DH   BYTE   INSEG    CODE           ?PR?TFT180_SET_COLOR?ZF_DEVICE_TFT180
FF001BH   FF001DH   000003H   ---    OFFS..   CODE           ?PR?IV?3
FF001EH   FF0020H   000003H   BYTE   INSEG    CODE           ?PR?INTERRUPT_GLOBAL_ENABLE?ZF_COMMON_INTERRUPT
FF0021H   FF0022H   000002H   ---    ---      **GAP**
FF0023H   FF0025H   000003H   ---    OFFS..   CODE           ?PR?IV?4
FF0026H   FF0042H   00001DH   BYTE   INSEG    CODE           ?PR?ENCONDER_INIT?FUNCTION
FF0043H   FF0045H   000003H   ---    OFFS..   CODE           ?PR?IV?8
FF0046H   FF0061H   00001CH   BYTE   INSEG    CODE           ?PR?IMU963RA_SIMSPI_R_REG_BYTE?ZF_DEVICE_IMU963RA
FF0062H   FF0062H   000001H   ---    ---      **GAP**
FF0063H   FF0065H   000003H   ---    OFFS..   CODE           ?PR?IV?12
FF0066H   FF008AH   000025H   BYTE   INSEG    CODE           ?PR?MAIN?MAIN
FF008BH   FF008DH   000003H   ---    OFFS..   CODE           ?PR?IV?17
FF008EH   FF0091H   000004H   BYTE   UNIT     CONST          ?CO?PRINTF
FF0092H   FF0092H   000001H   ---    ---      **GAP**
FF0093H   FF0095H   000003H   ---    OFFS..   CODE           ?PR?IV?18
FF0096H   FF009AH   000005H   ---    ---      **GAP**
FF009BH   FF009DH   000003H   ---    OFFS..   CODE           ?PR?IV?19
FF009EH   FF00A2H   000005H   ---    ---      **GAP**
FF00A3H   FF00A5H   000003H   ---    OFFS..   CODE           ?PR?IV?20
FF00A6H   FF00BFH   00001AH   BYTE   INSEG    CODE           ?PR?SERVO_INIT?FUNCTION
FF00C0H   FF00C2H   000003H   ---    ---      **GAP**
FF00C3H   FF00C5H   000003H   ---    OFFS..   CODE           ?PR?IV?24
FF00C6H   FF0198H   0000D3H   BYTE   INSEG    CODE           ?PR?GPIO_GET_LEVEL?ZF_DRIVER_GPIO
FF0199H   FF019AH   000002H   ---    ---      **GAP**
FF019BH   FF019DH   000003H   ---    OFFS..   CODE           ?CO?ai8051u_isr?1
FF019EH   FF01A9H   00000CH   BYTE   INSEG    CODE           ?PR?IMU963RA_WRITE_ACC_GYRO_REGISTER?ZF_DEVICE_IMU963RA
FF01AAH   FF01AAH   000001H   ---    ---      **GAP**
FF01ABH   FF01ADH   000003H   ---    OFFS..   CODE           ?CO?ai8051u_isr?2
FF01AEH   FF01B7H   00000AH   BYTE   INSEG    CODE           ?PR?KEY3_HANDLE1?MENU
FF01B8H   FF01BAH   000003H   ---    ---      **GAP**
FF01BBH   FF01BDH   000003H   ---    OFFS..   CODE           ?CO?ai8051u_isr?3
FF01BEH   FF01C7H   00000AH   BYTE   INSEG    CODE           ?PR?BUZZER_ON?BUZZER
FF01C8H   FF01CAH   000003H   ---    ---      **GAP**
FF01CBH   FF01CDH   000003H   ---    OFFS..   CODE           ?CO?ai8051u_isr?4
FF01CEH   FF021AH   00004DH   BYTE   INSEG    CODE           ?PR?FIFO_HEAD_OFFSET?ZF_COMMON_FIFO
FF021BH   FF021DH   000003H   ---    OFFS..   CODE           ?CO?ai8051u_isr?5
FF021EH   FF221DH   002000H   BYTE   UNIT     CODE           ?CO?ZF_DEVICE_CONFIG
FF221EH   FF393FH   001722H   BYTE   UNIT     CODE           ?C?LIB_CODE
L251 LINKER/LOCATER V4.66.93.0                                                        11/08/2025  20:32:40  PAGE 6


FF3940H   FF4617H   000CD8H   BYTE   UNIT     CODE           ?CO?OLED
FF4618H   FF4E34H   00081DH   BYTE   INSEG    CODE           ?PR?ZF_SPRINTF?ZF_COMMON_FUNCTION
FF4E35H   FF5424H   0005F0H   BYTE   UNIT     CODE           ?CO?ZF_COMMON_FONT
FF5425H   FF5971H   00054DH   BYTE   INSEG    CODE           ?PR?SHOW_PARARM?FUNCTION
FF5972H   FF5E81H   000510H   BYTE   INSEG    CODE           ?PR?PWM_INIT?ZF_DRIVER_PWM
FF5E82H   FF633AH   0004B9H   BYTE   INSEG    CODE           ?PR?INERTIAL_NAVIGATION?STRATEGY
FF633BH   FF67DFH   0004A5H   BYTE   INSEG    CODE           ?PR?SPI_INIT?ZF_DRIVER_SPI
FF67E0H   FF6C83H   0004A4H   BYTE   INSEG    CODE           ?PR?HALF_STATE_OF_ROAD?STRATEGY
FF6C84H   FF7080H   0003FDH   BYTE   INSEG    CODE           ?PR?FIFO_WRITE_BUFFER?ZF_COMMON_FIFO
FF7081H   FF744DH   0003CDH   BYTE   INSEG    CODE           ?PR?GPIO_SET_DIR?ZF_DRIVER_GPIO
FF744EH   FF77C3H   000376H   BYTE   INSEG    CODE           ?PR?STATE_OF_ROAD?STRATEGY
FF77C4H   FF7AF0H   00032DH   BYTE   INSEG    CODE           ?PR?HELP_TURN2?STRATEGY
FF7AF1H   FF7DCCH   0002DCH   BYTE   INSEG    CODE           ?PR?TFT180_INIT?ZF_DEVICE_TFT180
FF7DCDH   FF80A7H   0002DBH   BYTE   INSEG    CODE           ?PR?IMU963RA_INIT?ZF_DEVICE_IMU963RA
FF80A8H   FF8360H   0002B9H   BYTE   INSEG    CODE           ?PR?GPIO_SET_LEVEL_SPEED?ZF_DRIVER_GPIO
FF8361H   FF8598H   000238H   BYTE   INSEG    CODE           ?PR?PID_UPDATE?CONTROL
FF8599H   FF87CDH   000235H   BYTE   INSEG    CODE           ?PR?UART_INIT?ZF_DRIVER_UART
FF87CEH   FF89F3H   000226H   BYTE   INSEG    CODE           ?PR?GPIO_SET_MODE?ZF_DRIVER_GPIO
FF89F4H   FF8BFDH   00020AH   BYTE   INSEG    CODE           ?PR?TURN_MODE_INIT?FUNCTION
FF8BFEH   FF8DD8H   0001DBH   BYTE   INSEG    CODE           ?PR?PIT_INIT?ZF_DRIVER_PIT
FF8DD9H   FF8FB3H   0001DBH   BYTE   INSEG    CODE           ?PR?PIT_HANDLER1?MAIN
FF8FB4H   FF9177H   0001C4H   BYTE   INSEG    CODE           ?PR?TFT180_SHOW_FLOAT?ZF_DEVICE_TFT180
FF9178H   FF9317H   0001A0H   BYTE   INSEG    CODE           ?PR?CYCLE_UPDATE?CONTROL
FF9318H   FF94A7H   000190H   BYTE   INSEG    CODE           ?PR?PWM_SET_DUTY?ZF_DRIVER_PWM
FF94A8H   FF961AH   000173H   BYTE   INSEG    CODE           ?PR?GPIO_SET_LEVEL?ZF_DRIVER_GPIO
FF961BH   FF976CH   000152H   BYTE   INSEG    CODE           ?PR?SPEED_DIFF?CONTROL
FF976DH   FF98B4H   000148H   BYTE   INSEG    CODE           ?PR?_M?MAIN
FF98B5H   FF99FBH   000147H   BYTE   INSEG    CODE           ?PR?UART_DMA_INIT?ZF_DRIVER_UART
FF99FCH   FF9B41H   000146H   BYTE   INSEG    CODE           ?PR?GPIO_SET_IMPEDANCE?ZF_DRIVER_GPIO
FF9B42H   FF9C76H   000135H   BYTE   INSEG    CODE           ?PR?MENU_DISPLAY_CONTENT?MENU
FF9C77H   FF9DA9H   000133H   BYTE   INSEG    CODE           ?PR?TFT180_SHOW_INT16?ZF_DEVICE_TFT180
FF9DAAH   FF9ECBH   000122H   BYTE   INSEG    CODE           ?PR?TFT180_SET_REGION?ZF_DEVICE_TFT180
FF9ECCH   FF9FE5H   00011AH   BYTE   INSEG    CODE           ?PR?KEY_SCANER?KEY
FF9FE6H   FFA0F1H   00010CH   BYTE   INSEG    CODE           ?PR?ENCODER_DIR_INIT?ZF_DRIVER_ENCODER
FFA0F2H   FFA1F0H   0000FFH   BYTE   INSEG    CODE           ?PR?IF_CYCLE?STRATEGY
FFA1F1H   FFA2D2H   0000E2H   BYTE   INSEG    CODE           ?PR?UART_WRITE_BUFFER?ZF_DRIVER_UART
FFA2D3H   FFA3B3H   0000E1H   BYTE   INSEG    CODE           ?PR?ADC_SAMPLEANDFILTER?ADC_GET
FFA3B4H   FFA493H   0000E0H   BYTE   INSEG    CODE           ?PR?TFT180_SHOW_CHAR?ZF_DEVICE_TFT180
FFA494H   FFA571H   0000DEH   BYTE   INSEG    CODE           ?PR?CLOCK_INIT?ZF_COMMON_CLOCK
FFA572H   FFA64DH   0000DCH   BYTE   INSEG    CODE           ?PR?HANDLE_KEY1?MENU
FFA64EH   FFA725H   0000D8H   BYTE   INSEG    CODE           ?PR?MOTOR_RIGHT_PI_CONTROL?CONTROL
FFA726H   FFA7FDH   0000D8H   BYTE   INSEG    CODE           ?PR?MOTOR_LEFT_PI_CONTROL?CONTROL
FFA7FEH   FFA8CDH   0000D0H   BYTE   INSEG    CODE           ?PR?MENU_SETCHILDREN?MENU
FFA8CEH   FFA99BH   0000CEH   BYTE   INSEG    CODE           ?PR?KEY3_HANDLE2?MENU
FFA99CH   FFAA62H   0000C7H   BYTE   INSEG    CODE           ?PR?HANDLE_KEY4?MENU
FFAA63H   FFAB1EH   0000BCH   BYTE   INSEG    CODE           ?PR?GPIO_INIT?ZF_DRIVER_GPIO
FFAB1FH   FFABD9H   0000BBH   BYTE   INSEG    CODE           ?PR?TURN_MODE?KEY
FFABDAH   FFAC93H   0000BAH   BYTE   INSEG    CODE           ?PR?INTERRUPT_SET_PRIORITY?ZF_COMMON_INTERRUPT
FFAC94H   FFAD47H   0000B4H   BYTE   INSEG    CODE           ?PR?SOFT_IIC_READ_DATA?ZF_DRIVER_SOFT_IIC
FFAD48H   FFADFAH   0000B3H   BYTE   INSEG    CODE           ?PR?FAST_SQRT?FUNCTION
FFADFBH   FFAEA6H   0000ACH   BYTE   INSEG    CODE           ?PR?SERVO_CONTROL?FUNCTION
FFAEA7H   FFAF4FH   0000A9H   BYTE   INSEG    CODE           ?PR?TFT180_SHOW_STRING?ZF_DEVICE_TFT180
FFAF50H   FFAFF5H   0000A6H   BYTE   INSEG    CODE           ?PR?ADC_FILTER?ADC_GET
FFAFF6H   FFB09BH   0000A6H   BYTE   INSEG    CODE           ?PR?MOTOR_UPDATE_SMOOTH?CONTROL
FFB09CH   FFB140H   0000A5H   BYTE   INSEG    CODE           ?PR?ENCODER_GET_COUNT?ZF_DRIVER_ENCODER
FFB141H   FFB1E5H   0000A5H   BYTE   INSEG    CODE           ?PR?DMA_UART1_IRQHANDLER?ISR
FFB1E6H   FFB27CH   000097H   BYTE   INSEG    CODE           ?PR?DEBUG_INIT?ZF_COMMON_DEBUG
FFB27DH   FFB311H   000095H   BYTE   INSEG    CODE           ?PR?ENCODER_CLEAR_COUNT?ZF_DRIVER_ENCODER
FFB312H   FFB3A5H   000094H   BYTE   INSEG    CODE           ?PR?NUMBER_CONVERSION_ASCII?ZF_COMMON_FUNCTION
FFB3A6H   FFB439H   000094H   BYTE   INSEG    CODE           ?PR?SERVO_TURN_PID?CONTROL
FFB43AH   FFB4CAH   000091H   BYTE   INSEG    CODE           ?PR?SOFT_IIC_SEND_DATA?ZF_DRIVER_SOFT_IIC
FFB4CBH   FFB55AH   000090H   BYTE   INSEG    CODE           ?PR?UART_RX_START_BUFF?ZF_DRIVER_UART
FFB55BH   FFB5E5H   00008BH   BYTE   INSEG    CODE           ?PR?UNIFICATION?FUNCTION
FFB5E6H   FFB66EH   000089H   BYTE   INSEG    CODE           ?PR?DMA_UART2_IRQHANDLER?ISR
FFB66FH   FFB6F7H   000089H   BYTE   INSEG    CODE           ?PR?DMA_UART3_IRQHANDLER?ISR
L251 LINKER/LOCATER V4.66.93.0                                                        11/08/2025  20:32:40  PAGE 7


FFB6F8H   FFB780H   000089H   BYTE   INSEG    CODE           ?PR?DMA_UART4_IRQHANDLER?ISR
FFB781H   FFB808H   000088H   BYTE   INSEG    CODE           ?PR?ADC_INIT?ZF_DRIVER_ADC
FFB809H   FFB88BH   000083H   BYTE   INSEG    CODE           ?PR?REFESH_ARROW?MENU
FFB88CH   FFB90CH   000081H   BYTE   INSEG    CODE           ?PR?FIFO_INIT?ZF_COMMON_FIFO
FFB90DH   FFB988H   00007CH   BYTE   INSEG    CODE           ?PR?MENU_INIT?MENU
FFB989H   FFBA01H   000079H   BYTE   INSEG    CODE           ?PR?SOFT_IIC_WAIT_ACK?ZF_DRIVER_SOFT_IIC
FFBA02H   FFBA78H   000077H   BYTE   INSEG    CODE           ?PR?SHOW_BUJIN?MENU
FFBA79H   FFBAEDH   000075H   BYTE   INSEG    CODE           ?PR?INIT_ALL?FUNCTION
FFBAEEH   FFBB60H   000073H   BYTE   INSEG    CODE           ?PR?SOFT_IIC_SEND_ACK?ZF_DRIVER_SOFT_IIC
FFBB61H   FFBBCBH   00006BH   BYTE   INSEG    CODE           ?PR?SYSTEM_DELAY_MS?ZF_DRIVER_DELAY
FFBBCCH   FFBC33H   000068H   BYTE   INSEG    CODE           ?PR?DEBUG_ASSERT_HANDLER?ZF_COMMON_DEBUG
FFBC34H   FFBC9AH   000067H   BYTE   INSEG    CODE           ?PR?TFT180_CLEAR?ZF_DEVICE_TFT180
FFBC9BH   FFBD00H   000066H   BYTE   INSEG    CODE           ?PR?IMU963RA_WRITE_MAG_REGISTER?ZF_DEVICE_IMU963RA
FFBD01H   FFBD62H   000062H   BYTE   INSEG    CODE           ?PR?SOFT_IIC_STOP?ZF_DRIVER_SOFT_IIC
FFBD63H   FFBDC4H   000062H   BYTE   INSEG    CODE           ?PR?UART_QUERY_BYTE?ZF_DRIVER_UART
FFBDC5H   FFBE21H   00005DH   BYTE   INSEG    CODE           ?PR?SYSTEM_DELAY_INIT?ZF_DRIVER_DELAY
FFBE22H   FFBE7EH   00005DH   BYTE   INSEG    CODE           ?PR?MOTOR_INIT?FUNCTION
FFBE7FH   FFBEDBH   00005DH   BYTE   INSEG    CODE           ?PR?ANGLE_GET?STRATEGY
FFBEDCH   FFBEFCH   000021H   BYTE   UNIT     CODE           ?C_C51STARTUP
FFBEFDH   FFBEFEH   000002H   BYTE   UNIT     CODE           ?C_C51STARTUP?1
FFBEFFH   FFBF2FH   000031H   BYTE   UNIT     CODE           ?C_C51STARTUP?2
FFBF30H   FFBF32H   000003H   BYTE   UNIT     CODE           ?C_C51STARTUP?3
FFBF33H   FFBF89H   000057H   BYTE   INSEG    CODE           ?PR?SOFT_IIC_START?ZF_DRIVER_SOFT_IIC
FFBF8AH   FFBFDFH   000056H   BYTE   INSEG    CODE           ?PR?SERVE_TEST?DEVICE_TEST
FFBFE0H   FFC033H   000054H   BYTE   INSEG    CODE           ?PR?IMU963RA_GET_GYRO?ZF_DEVICE_IMU963RA
FFC034H   FFC085H   000052H   BYTE   INSEG    CODE           ?PR?IMU963RA_READ_MAG_REGISTER?ZF_DEVICE_IMU963RA
FFC086H   FFC0D7H   000052H   BYTE   INSEG    CODE           ?PR?HANDLE_KEY3?MENU
FFC0D8H   FFC123H   00004CH   BYTE   INSEG    CODE           ?PR?TIMER_FUNCITON_CHECK?ZF_DRIVER_TIMER
FFC124H   FFC16FH   00004CH   BYTE   INSEG    CODE           ?PR?UART_FUNCITON_CHECK?ZF_DRIVER_UART
FFC170H   FFC1BAH   00004BH   BYTE   INSEG    CODE           ?PR?TM11_IRQHANDLER?ISR
FFC1BBH   FFC203H   000049H   BYTE   INSEG    CODE           ?PR?MOTOR_UPDATE?CONTROL
FFC204H   FFC24BH   000048H   BYTE   INSEG    CODE           ?PR?PRINTF_REVERSE_ORDER?ZF_COMMON_FUNCTION
FFC24CH   FFC290H   000045H   BYTE   INSEG    CODE           ?PR?UART_RX_INTERRUPT?ZF_DRIVER_UART
FFC291H   FFC2D5H   000045H   BYTE   INSEG    CODE           ?PR?KEY_NUMBER?KEY
FFC2D6H   FFC319H   000044H   BYTE   INSEG    CODE           ?PR?IMU963RA_ACC_GYRO_SELF_CHECK?ZF_DEVICE_IMU963RA
FFC31AH   FFC35CH   000043H   BYTE   INSEG    CODE           ?PR?HANDLE_KEY2?MENU
FFC35DH   FFC39EH   000042H   BYTE   INSEG    CODE           ?PR?SPI_WRITE_DAT?ZF_DRIVER_SPI
FFC39FH   FFC3DDH   00003FH   BYTE   INSEG    CODE           ?PR?IMU963RA_SIMSPI_R_REG_BYTES?ZF_DEVICE_IMU963RA
FFC3DEH   FFC41BH   00003EH   BYTE   INSEG    CODE           ?PR?TM0_IRQHANDLER?ISR
FFC41CH   FFC459H   00003EH   BYTE   INSEG    CODE           ?PR?TM1_IRQHANDLER?ISR
FFC45AH   FFC497H   00003EH   BYTE   INSEG    CODE           ?PR?TM2_IRQHANDLER?ISR
FFC498H   FFC4D5H   00003EH   BYTE   INSEG    CODE           ?PR?TM3_IRQHANDLER?ISR
FFC4D6H   FFC513H   00003EH   BYTE   INSEG    CODE           ?PR?TM4_IRQHANDLER?ISR
FFC514H   FFC551H   00003EH   BYTE   INSEG    CODE           ?PR?PROTECT?FUNCTION
FFC552H   FFC58EH   00003DH   BYTE   INSEG    CODE           ?PR?MOTORL_SETSPEED?CONTROL
FFC58FH   FFC5CBH   00003DH   BYTE   INSEG    CODE           ?PR?MOTORR_SETSPEED?CONTROL
FFC5CCH   FFC604H   000039H   BYTE   INSEG    CODE           ?PR?DEBUG_INTERRUPR_HANDLER?ZF_COMMON_DEBUG
FFC605H   FFC63DH   000039H   BYTE   INSEG    CODE           ?PR?SPEED_CONTROL?FUNCTION
FFC63EH   FFC675H   000038H   BYTE   INSEG    CODE           ?PR?SOFT_IIC_DELAY?ZF_DRIVER_SOFT_IIC
FFC676H   FFC6A9H   000034H   BYTE   INSEG    CODE           ?PR?IMU963RA_MAG_SELF_CHECK?ZF_DEVICE_IMU963RA
FFC6AAH   FFC6DCH   000033H   BYTE   INSEG    CODE           ?PR?PWM_TEST?DEVICE_TEST
FFC6DDH   FFC70CH   000030H   BYTE   INSEG    CODE           ?PR?ADC_CONVERT?ZF_DRIVER_ADC
FFC70DH   FFC73AH   00002EH   BYTE   INSEG    CODE           ?PR?SHOW_TEST_INFO?FUNCTION
FFC73BH   FFC768H   00002EH   BYTE   INSEG    CODE           ?PR?MENU_HANDLE_KEY?MENU
FFC769H   FFC795H   00002DH   BYTE   INSEG    CODE           ?PR?ADC_GETINIT?ADC_GET
FFC796H   FFC7C1H   00002CH   BYTE   INSEG    CODE           ?PR?IMU963RA_CONNECT_MAG?ZF_DEVICE_IMU963RA
FFC7C2H   FFC7ECH   00002BH   BYTE   INSEG    CODE           ?PR?SPEED_CONTROL_RING?FUNCTION
FFC7EDH   FFC813H   000027H   BYTE   INSEG    CODE           ?PR?TFT180_SET_DIR?ZF_DEVICE_TFT180
FFC814H   FFC838H   000025H   BYTE   INSEG    CODE           ?PR?MEMCPY?_?MEMCPY
FFC839H   FFC85BH   000023H   BYTE   INSEG    CODE           ?PR?IMU963RA_SIMSPI_WR_BYTE?ZF_DEVICE_IMU963RA
FFC85CH   FFC87AH   00001FH   BYTE   INSEG    CODE           ?PR?SPI_WRITE_16BIT?ZF_DRIVER_SPI
FFC87BH   FFC899H   00001FH   BYTE   INSEG    CODE           ?PR?IMU963RA_READ_ACC_GYRO_REGISTER?ZF_DEVICE_IMU963RA
FFC89AH   FFC8B3H   00001AH   BYTE   INSEG    CODE           ?PR?HANDLE_KEY5?MENU
FFC8B4H   FFC8CDH   00001AH   BYTE   INSEG    CODE           ?PR?SET_SEVO?DEVICE_TEST
FFC8CEH   FFC8E4H   000017H   BYTE   INSEG    CODE           ?PR?IMU963RA_SIMSPI_W_REG_BYTE?ZF_DEVICE_IMU963RA
L251 LINKER/LOCATER V4.66.93.0                                                        11/08/2025  20:32:40  PAGE 8


FFC8E5H   FFC8FAH   000016H   BYTE   INSEG    CODE           ?PR?TFT180_WRITE_INDEX?ZF_DEVICE_TFT180
FFC8FBH   FFC910H   000016H   BYTE   INSEG    CODE           ?PR?IMU963RA_READ_ACC_GYRO_REGISTERS?ZF_DEVICE_IMU963RA
FFC911H   FFC924H   000014H   BYTE   INSEG    CODE           ?PR?UART_WRITE_BYTE?ZF_DRIVER_UART
FFC925H   FFC936H   000012H   BYTE   INSEG    CODE           ?PR?CAR_STOP?FUNCTION
FFC937H   FFC947H   000011H   BYTE   INSEG    CODE           ?PR?SHOW_ALL_MENU?MENU
FFC948H   FFC958H   000011H   BYTE   INSEG    CODE           ?PR?BUZZER_INIT?BUZZER
FFC959H   FFC968H   000010H   BYTE   INSEG    CODE           ?PR?PUTCHAR?ZF_COMMON_DEBUG
FFC969H   FFC978H   000010H   BYTE   INSEG    CODE           ?PR?SER_SERVO_DUTY?CONTROL
FFC979H   FFC988H   000010H   BYTE   INSEG    CODE           ?PR?GO_FUNCTION?FUNCTION
FFC989H   FFC991H   000009H   BYTE   INSEG    CODE           ?PR?BUZZER_OFF?BUZZER
FFC992H   FFE0EDH   00175CH   BYTE   UNIT     HCONST         ?C_INITHDATA
FFE0EEH   FFE6EDH   000600H   BYTE   UNIT     HCONST         ?HC?EEPROM
FFE6EEH   FFE8EDH   000200H   BYTE   UNIT     HCONST         ?HC?ZF_DRIVER_EEPROM
FFE8EEH   FFEA1CH   00012FH   BYTE   UNIT     HCONST         ?HC?ZF_DEVICE_DL1A
FFEA1DH   FFEB10H   0000F4H   BYTE   UNIT     HCONST         ?HC?FUNCTION
FFEB11H   FFEBE0H   0000D0H   BYTE   UNIT     HCONST         ?HC?ZF_DEVICE_IMU963RA
FFEBE1H   FFEC87H   0000A7H   BYTE   UNIT     HCONST         ?HC?ZF_DEVICE_IMU660RA
FFEC88H   FFED2EH   0000A7H   BYTE   UNIT     HCONST         ?HC?STRATEGY
FFED2FH   FFEDD2H   0000A4H   BYTE   UNIT     HCONST         ?HC?SEEKFREE_ASSISTANT
FFEDD3H   FFEE74H   0000A2H   BYTE   UNIT     HCONST         ?HC?ZF_DEVICE_GPS_TAU1201
FFEE75H   FFEEFEH   00008AH   BYTE   UNIT     HCONST         ?HC?ZF_DRIVER_PWM
FFEEFFH   FFEF86H   000088H   BYTE   UNIT     HCONST         ?HC?ZF_DEVICE_ICM20602
FFEF87H   FFEFC5H   00003FH   BYTE   UNIT     HCONST         ?HC?ZF_COMMON_FUNCTION
FFEFC6H   FFEFF9H   000034H   BYTE   UNIT     HCONST         ?HC?ZF_DEVICE_WIRELESS_UART
FFEFFAH   FFF02CH   000033H   BYTE   UNIT     HCONST         ?HC?ZF_DEVICE_TFT180
FFF02DH   FFF05FH   000033H   BYTE   UNIT     HCONST         ?HC?ZF_DEVICE_IPS114
FFF060H   FFF092H   000033H   BYTE   UNIT     HCONST         ?HC?ZF_DEVICE_IPS200
FFF093H   FFF0C2H   000030H   BYTE   UNIT     HCONST         ?HC?KEY
FFF0C3H   FFF0F1H   00002FH   BYTE   UNIT     HCONST         ?HC?ZF_DRIVER_SOFT_IIC
FFF0F2H   FFF120H   00002FH   BYTE   UNIT     HCONST         ?HC?ZF_DRIVER_SOFT_SPI
FFF121H   FFF14FH   00002FH   BYTE   UNIT     HCONST         ?HC?MAIN
FFF150H   FFF17DH   00002EH   BYTE   UNIT     HCONST         ?HC?ZF_DRIVER_ENCODER
FFF17EH   FFF1ABH   00002EH   BYTE   UNIT     HCONST         ?HC?ZF_DEVICE_BLE6A20
FFF1ACH   FFF1D6H   00002BH   BYTE   UNIT     HCONST         ?HC?ZF_COMMON_FIFO
FFF1D7H   FFF201H   00002BH   BYTE   UNIT     HCONST         ?HC?ZF_DRIVER_GPIO
FFF202H   FFF22CH   00002BH   BYTE   UNIT     HCONST         ?HC?ZF_DRIVER_UART
FFF22DH   FFF256H   00002AH   BYTE   UNIT     HCONST         ?HC?ZF_DRIVER_ADC
FFF257H   FFF280H   00002AH   BYTE   UNIT     HCONST         ?HC?ZF_DRIVER_SPI
FFF281H   FFF2A8H   000028H   BYTE   UNIT     HCONST         ?HC?MENU
FFF2A9H   FFF2CDH   000025H   BYTE   UNIT     HCONST         ?HC?ZF_COMMON_DEBUG
FFF2CEH   FFF2E8H   00001BH   BYTE   UNIT     HCONST         ?HC?ZF_DEVICE_IMU660RB

* * * * * * * * *   R E M O V E D     S E G M E N T S   * * * * * * * *
   *DEL*:           00003EH   BYTE   INSEG    CODE           ?PR?DEBUG_READ_BUFFER?ZF_COMMON_DEBUG
   *DEL*:           000045H   BYTE   INSEG    CODE           ?PR?DEBUG_SEND_BUFFER?ZF_COMMON_DEBUG
   *DEL*:           000004H   BYTE   UNIT     XDATA          ?XD?DEBUG_SEND_BUFFER?ZF_COMMON_DEBUG
   *DEL*:           000004H   BYTE   UNIT     XDATA          ?XD?DEBUG_READ_BUFFER?ZF_COMMON_DEBUG
   *DEL*:           00043DH   BYTE   INSEG    CODE           ?PR?FIFO_READ_BUFFER?ZF_COMMON_FIFO
   *DEL*:           0000C7H   BYTE   INSEG    CODE           ?PR?FIFO_CLEAR?ZF_COMMON_FIFO
   *DEL*:           00004DH   BYTE   INSEG    CODE           ?PR?FIFO_END_OFFSET?ZF_COMMON_FIFO
   *DEL*:           000033H   BYTE   INSEG    CODE           ?PR?FIFO_USED?ZF_COMMON_FIFO
   *DEL*:           000002H   BYTE   UNIT     XDATA          ?XD?FIFO_CLEAR?ZF_COMMON_FIFO
   *DEL*:           000014H   BYTE   UNIT     XDATA          ?XD?FIFO_READ_BUFFER?ZF_COMMON_FIFO
   *DEL*:           0002D1H   BYTE   INSEG    CODE           ?PR?FUNC_DOUBLE_TO_STR?ZF_COMMON_FUNCTION
   *DEL*:           000245H   BYTE   INSEG    CODE           ?PR?FUNC_STR_TO_DOUBLE?ZF_COMMON_FUNCTION
   *DEL*:           000298H   BYTE   INSEG    CODE           ?PR?FUNC_FLOAT_TO_STR?ZF_COMMON_FUNCTION
   *DEL*:           00019DH   BYTE   INSEG    CODE           ?PR?FUNC_STR_TO_FLOAT?ZF_COMMON_FUNCTION
   *DEL*:           000024H   BYTE   INSEG    CODE           ?PR?FUNC_SOFT_DELAY?ZF_COMMON_FUNCTION
   *DEL*:           0000CCH   BYTE   INSEG    CODE           ?PR?FUNC_UINT_TO_STR?ZF_COMMON_FUNCTION
   *DEL*:           000079H   BYTE   INSEG    CODE           ?PR?FUNC_STR_TO_UINT?ZF_COMMON_FUNCTION
   *DEL*:           0000FAH   BYTE   INSEG    CODE           ?PR?FUNC_HEX_TO_STR?ZF_COMMON_FUNCTION
   *DEL*:           00011BH   BYTE   INSEG    CODE           ?PR?FUNC_STR_TO_HEX?ZF_COMMON_FUNCTION
   *DEL*:           000149H   BYTE   INSEG    CODE           ?PR?FUNC_INT_TO_STR?ZF_COMMON_FUNCTION
   *DEL*:           0000BAH   BYTE   INSEG    CODE           ?PR?FUNC_STR_TO_INT?ZF_COMMON_FUNCTION
   *DEL*:           000019H   BYTE   INSEG    CODE           ?PR?FUNC_GET_GREATEST_COMMON_DIVISOR?ZF_COMMON_FUNCTION
L251 LINKER/LOCATER V4.66.93.0                                                        11/08/2025  20:32:40  PAGE 9


   *DEL*:           000004H   BYTE   UNIT     XDATA          ?XD?FUNC_SOFT_DELAY?ZF_COMMON_FUNCTION
   *DEL*:           000005H   BYTE   UNIT     XDATA          ?XD?FUNC_STR_TO_INT?ZF_COMMON_FUNCTION
   *DEL*:           000019H   BYTE   UNIT     XDATA          ?XD?FUNC_INT_TO_STR?ZF_COMMON_FUNCTION
   *DEL*:           000004H   BYTE   UNIT     XDATA          ?XD?FUNC_STR_TO_UINT?ZF_COMMON_FUNCTION
   *DEL*:           000015H   BYTE   UNIT     XDATA          ?XD?FUNC_UINT_TO_STR?ZF_COMMON_FUNCTION
   *DEL*:           00000DH   BYTE   UNIT     XDATA          ?XD?FUNC_STR_TO_FLOAT?ZF_COMMON_FUNCTION
   *DEL*:           000026H   BYTE   UNIT     XDATA          ?XD?FUNC_FLOAT_TO_STR?ZF_COMMON_FUNCTION
   *DEL*:           000019H   BYTE   UNIT     XDATA          ?XD?FUNC_STR_TO_DOUBLE?ZF_COMMON_FUNCTION
   *DEL*:           000038H   BYTE   UNIT     XDATA          ?XD?FUNC_DOUBLE_TO_STR?ZF_COMMON_FUNCTION
   *DEL*:           00000AH   BYTE   UNIT     XDATA          ?XD?FUNC_STR_TO_HEX?ZF_COMMON_FUNCTION
   *DEL*:           000021H   BYTE   UNIT     XDATA          ?XD?FUNC_HEX_TO_STR?ZF_COMMON_FUNCTION
   *DEL*:           000003H   BYTE   INSEG    CODE           ?PR?INTERRUPT_GLOBAL_DISABLE?ZF_COMMON_INTERRUPT
   *DEL*:           00006EH   BYTE   INSEG    CODE           ?PR?ADC_MEAN_FILTER_CONVERT?ZF_DRIVER_ADC
   *DEL*:           000004H   BYTE   UNIT     XDATA          ?XD?ADC_MEAN_FILTER_CONVERT?ZF_DRIVER_ADC
   *DEL*:           00006BH   BYTE   INSEG    CODE           ?PR?SYSTEM_DELAY_US?ZF_DRIVER_DELAY
   *DEL*:           00001CH   BYTE   INSEG    CODE           ?PR?IAP_SET_TPS?ZF_DRIVER_EEPROM
   *DEL*:           00000BH   BYTE   INSEG    CODE           ?PR?EEPROM_TRIG?ZF_DRIVER_EEPROM
   *DEL*:           000028H   BYTE   INSEG    CODE           ?PR?IAP_ERASE_PAGE?ZF_DRIVER_EEPROM
   *DEL*:           000004H   BYTE   INSEG    CODE           ?PR?IAP_IDLE?ZF_DRIVER_EEPROM
   *DEL*:           000049H   BYTE   INSEG    CODE           ?PR?IAP_READ_BUFF?ZF_DRIVER_EEPROM
   *DEL*:           0000F8H   BYTE   INSEG    CODE           ?PR?EXTERN_IAP_WRITE_BUFF?ZF_DRIVER_EEPROM
   *DEL*:           000049H   BYTE   INSEG    CODE           ?PR?IAP_WRITE_BUFF?ZF_DRIVER_EEPROM
   *DEL*:           000023H   BYTE   INSEG    CODE           ?PR?IAP_READ_BYTE?ZF_DRIVER_EEPROM
   *DEL*:           000007H   BYTE   INSEG    CODE           ?PR?IAP_INIT?ZF_DRIVER_EEPROM
   *DEL*:           00002AH   BYTE   INSEG    CODE           ?PR?IAP_WRITE_BYTE?ZF_DRIVER_EEPROM
   *DEL*:           00000DH   BYTE   INSEG    CODE           ?PR?IAP_GET_CMD_STATE?ZF_DRIVER_EEPROM
   *DEL*:           000000H.1 BIT    UNIT     BIT            ?BI?IAP_READ_BYTE?ZF_DRIVER_EEPROM
   *DEL*:           000000H.1 BIT    UNIT     BIT            ?BI?IAP_WRITE_BYTE?ZF_DRIVER_EEPROM
   *DEL*:           000006H   BYTE   UNIT     XDATA          ?XD?IAP_READ_BUFF?ZF_DRIVER_EEPROM
   *DEL*:           000006H   BYTE   UNIT     XDATA          ?XD?IAP_WRITE_BUFF?ZF_DRIVER_EEPROM
   *DEL*:           000000H.1 BIT    UNIT     BIT            ?BI?IAP_ERASE_PAGE?ZF_DRIVER_EEPROM
   *DEL*:           000206H   BYTE   UNIT     XDATA          ?XD?EXTERN_IAP_WRITE_BUFF?ZF_DRIVER_EEPROM
   *DEL*:           00001BH   BYTE   INSEG    CODE           ?PR?GPIO_TOGGLE_LEVEL?ZF_DRIVER_GPIO
   *DEL*:           00025FH   BYTE   INSEG    CODE           ?PR?PWM_SET_FREQ?ZF_DRIVER_PWM
   *DEL*:           000010H   BYTE   UNIT     XDATA          ?XD?PWM_SET_FREQ?ZF_DRIVER_PWM
   *DEL*:           000052H   BYTE   INSEG    CODE           ?PR?SOFT_IIC_WRITE_8BIT_REGISTER?ZF_DRIVER_SOFT_IIC
   *DEL*:           00010DH   BYTE   INSEG    CODE           ?PR?SOFT_IIC_READ_16BIT_REGISTERS?ZF_DRIVER_SOFT_IIC
   *DEL*:           00006EH   BYTE   INSEG    CODE           ?PR?SOFT_IIC_SCCB_READ_REGISTER?ZF_DRIVER_SOFT_IIC
   *DEL*:           0000A5H   BYTE   INSEG    CODE           ?PR?SOFT_IIC_READ_16BIT_REGISTER?ZF_DRIVER_SOFT_IIC
   *DEL*:           000176H   BYTE   INSEG    CODE           ?PR?SOFT_IIC_TRANSFER_16BIT_ARRAY?ZF_DRIVER_SOFT_IIC
   *DEL*:           0000D0H   BYTE   INSEG    CODE           ?PR?SOFT_IIC_WRITE_16BIT_REGISTERS?ZF_DRIVER_SOFT_IIC
   *DEL*:           000052H   BYTE   INSEG    CODE           ?PR?SOFT_IIC_SCCB_WRITE_REGISTER?ZF_DRIVER_SOFT_IIC
   *DEL*:           00004CH   BYTE   INSEG    CODE           ?PR?SOFT_IIC_READ_8BIT?ZF_DRIVER_SOFT_IIC
   *DEL*:           0000BAH   BYTE   INSEG    CODE           ?PR?SOFT_IIC_READ_8BIT_ARRAY?ZF_DRIVER_SOFT_IIC
   *DEL*:           000082H   BYTE   INSEG    CODE           ?PR?SOFT_IIC_WRITE_16BIT_REGISTER?ZF_DRIVER_SOFT_IIC
   *DEL*:           000043H   BYTE   INSEG    CODE           ?PR?SOFT_IIC_WRITE_8BIT?ZF_DRIVER_SOFT_IIC
   *DEL*:           000098H   BYTE   INSEG    CODE           ?PR?SOFT_IIC_WRITE_8BIT_ARRAY?ZF_DRIVER_SOFT_IIC
   *DEL*:           00006FH   BYTE   INSEG    CODE           ?PR?SOFT_IIC_READ_16BIT?ZF_DRIVER_SOFT_IIC
   *DEL*:           0000E1H   BYTE   INSEG    CODE           ?PR?SOFT_IIC_READ_16BIT_ARRAY?ZF_DRIVER_SOFT_IIC
   *DEL*:           0000A6H   BYTE   INSEG    CODE           ?PR?SOFT_IIC_INIT?ZF_DRIVER_SOFT_IIC
   *DEL*:           0000D7H   BYTE   INSEG    CODE           ?PR?SOFT_IIC_READ_8BIT_REGISTERS?ZF_DRIVER_SOFT_IIC
   *DEL*:           00005CH   BYTE   INSEG    CODE           ?PR?SOFT_IIC_WRITE_16BIT?ZF_DRIVER_SOFT_IIC
   *DEL*:           0000B4H   BYTE   INSEG    CODE           ?PR?SOFT_IIC_WRITE_16BIT_ARRAY?ZF_DRIVER_SOFT_IIC
   *DEL*:           000069H   BYTE   INSEG    CODE           ?PR?SOFT_IIC_READ_8BIT_REGISTER?ZF_DRIVER_SOFT_IIC
   *DEL*:           000130H   BYTE   INSEG    CODE           ?PR?SOFT_IIC_TRANSFER_8BIT_ARRAY?ZF_DRIVER_SOFT_IIC
   *DEL*:           0000A5H   BYTE   INSEG    CODE           ?PR?SOFT_IIC_WRITE_8BIT_REGISTERS?ZF_DRIVER_SOFT_IIC
   *DEL*:           000001H   BYTE   UNIT     XDATA          ?XD?SOFT_IIC_WRITE_8BIT?ZF_DRIVER_SOFT_IIC
   *DEL*:           000008H   BYTE   UNIT     XDATA          ?XD?SOFT_IIC_WRITE_8BIT_ARRAY?ZF_DRIVER_SOFT_IIC
   *DEL*:           000002H   BYTE   UNIT     XDATA          ?XD?SOFT_IIC_WRITE_16BIT?ZF_DRIVER_SOFT_IIC
   *DEL*:           000008H   BYTE   UNIT     XDATA          ?XD?SOFT_IIC_WRITE_16BIT_ARRAY?ZF_DRIVER_SOFT_IIC
   *DEL*:           000002H   BYTE   UNIT     XDATA          ?XD?SOFT_IIC_WRITE_8BIT_REGISTER?ZF_DRIVER_SOFT_IIC
   *DEL*:           000009H   BYTE   UNIT     XDATA          ?XD?SOFT_IIC_WRITE_8BIT_REGISTERS?ZF_DRIVER_SOFT_IIC
   *DEL*:           000004H   BYTE   UNIT     XDATA          ?XD?SOFT_IIC_WRITE_16BIT_REGISTER?ZF_DRIVER_SOFT_IIC
   *DEL*:           00000AH   BYTE   UNIT     XDATA          ?XD?SOFT_IIC_WRITE_16BIT_REGISTERS?ZF_DRIVER_SOFT_IIC
   *DEL*:           000001H   BYTE   UNIT     XDATA          ?XD?SOFT_IIC_READ_8BIT?ZF_DRIVER_SOFT_IIC
L251 LINKER/LOCATER V4.66.93.0                                                        11/08/2025  20:32:40  PAGE 10


   *DEL*:           000008H   BYTE   UNIT     XDATA          ?XD?SOFT_IIC_READ_8BIT_ARRAY?ZF_DRIVER_SOFT_IIC
   *DEL*:           000002H   BYTE   UNIT     XDATA          ?XD?SOFT_IIC_READ_16BIT?ZF_DRIVER_SOFT_IIC
   *DEL*:           000008H   BYTE   UNIT     XDATA          ?XD?SOFT_IIC_READ_16BIT_ARRAY?ZF_DRIVER_SOFT_IIC
   *DEL*:           000002H   BYTE   UNIT     XDATA          ?XD?SOFT_IIC_READ_8BIT_REGISTER?ZF_DRIVER_SOFT_IIC
   *DEL*:           000009H   BYTE   UNIT     XDATA          ?XD?SOFT_IIC_READ_8BIT_REGISTERS?ZF_DRIVER_SOFT_IIC
   *DEL*:           000004H   BYTE   UNIT     XDATA          ?XD?SOFT_IIC_READ_16BIT_REGISTER?ZF_DRIVER_SOFT_IIC
   *DEL*:           00000AH   BYTE   UNIT     XDATA          ?XD?SOFT_IIC_READ_16BIT_REGISTERS?ZF_DRIVER_SOFT_IIC
   *DEL*:           000010H   BYTE   UNIT     XDATA          ?XD?SOFT_IIC_TRANSFER_8BIT_ARRAY?ZF_DRIVER_SOFT_IIC
   *DEL*:           000010H   BYTE   UNIT     XDATA          ?XD?SOFT_IIC_TRANSFER_16BIT_ARRAY?ZF_DRIVER_SOFT_IIC
   *DEL*:           000002H   BYTE   UNIT     XDATA          ?XD?SOFT_IIC_SCCB_WRITE_REGISTER?ZF_DRIVER_SOFT_IIC
   *DEL*:           000002H   BYTE   UNIT     XDATA          ?XD?SOFT_IIC_SCCB_READ_REGISTER?ZF_DRIVER_SOFT_IIC
   *DEL*:           000009H   BYTE   UNIT     XDATA          ?XD?SOFT_IIC_INIT?ZF_DRIVER_SOFT_IIC
   *DEL*:           00023EH   BYTE   INSEG    CODE           ?PR?SOFT_SPI_INIT?ZF_DRIVER_SOFT_SPI
   *DEL*:           0000BBH   BYTE   INSEG    CODE           ?PR?SOFT_SPI_READ_8BIT_REGISTERS?ZF_DRIVER_SOFT_SPI
   *DEL*:           00004FH   BYTE   INSEG    CODE           ?PR?SOFT_SPI_WRITE_16BIT?ZF_DRIVER_SOFT_SPI
   *DEL*:           00010EH   BYTE   INSEG    CODE           ?PR?SOFT_SPI_8BIT_DATA_HANDLER?ZF_DRIVER_SOFT_SPI
   *DEL*:           0000A0H   BYTE   INSEG    CODE           ?PR?SOFT_SPI_WRITE_16BIT_ARRAY?ZF_DRIVER_SOFT_SPI
   *DEL*:           00005EH   BYTE   INSEG    CODE           ?PR?SOFT_SPI_READ_8BIT_REGISTER?ZF_DRIVER_SOFT_SPI
   *DEL*:           000102H   BYTE   INSEG    CODE           ?PR?SOFT_SPI_TRANSFER_8BIT?ZF_DRIVER_SOFT_SPI
   *DEL*:           0000ADH   BYTE   INSEG    CODE           ?PR?SOFT_SPI_WRITE_8BIT_REGISTERS?ZF_DRIVER_SOFT_SPI
   *DEL*:           00005AH   BYTE   INSEG    CODE           ?PR?SOFT_SPI_WRITE_8BIT_REGISTER?ZF_DRIVER_SOFT_SPI
   *DEL*:           0000B8H   BYTE   INSEG    CODE           ?PR?SOFT_SPI_READ_16BIT_REGISTERS?ZF_DRIVER_SOFT_SPI
   *DEL*:           000133H   BYTE   INSEG    CODE           ?PR?SOFT_SPI_16BIT_DATA_HANDLER?ZF_DRIVER_SOFT_SPI
   *DEL*:           00006AH   BYTE   INSEG    CODE           ?PR?SOFT_SPI_READ_16BIT_REGISTER?ZF_DRIVER_SOFT_SPI
   *DEL*:           000104H   BYTE   INSEG    CODE           ?PR?SOFT_SPI_TRANSFER_16BIT?ZF_DRIVER_SOFT_SPI
   *DEL*:           0000A7H   BYTE   INSEG    CODE           ?PR?SOFT_SPI_WRITE_16BIT_REGISTERS?ZF_DRIVER_SOFT_SPI
   *DEL*:           000051H   BYTE   INSEG    CODE           ?PR?SOFT_SPI_READ_8BIT?ZF_DRIVER_SOFT_SPI
   *DEL*:           0000AEH   BYTE   INSEG    CODE           ?PR?SOFT_SPI_READ_8BIT_ARRAY?ZF_DRIVER_SOFT_SPI
   *DEL*:           000060H   BYTE   INSEG    CODE           ?PR?SOFT_SPI_WRITE_16BIT_REGISTER?ZF_DRIVER_SOFT_SPI
   *DEL*:           00004BH   BYTE   INSEG    CODE           ?PR?SOFT_SPI_WRITE_8BIT?ZF_DRIVER_SOFT_SPI
   *DEL*:           0000A0H   BYTE   INSEG    CODE           ?PR?SOFT_SPI_WRITE_8BIT_ARRAY?ZF_DRIVER_SOFT_SPI
   *DEL*:           000026H   BYTE   INSEG    CODE           ?PR?SOFT_SPI_DELAY?ZF_DRIVER_SOFT_SPI
   *DEL*:           000056H   BYTE   INSEG    CODE           ?PR?SOFT_SPI_READ_16BIT?ZF_DRIVER_SOFT_SPI
   *DEL*:           0000B1H   BYTE   INSEG    CODE           ?PR?SOFT_SPI_READ_16BIT_ARRAY?ZF_DRIVER_SOFT_SPI
   *DEL*:           000004H   BYTE   UNIT     XDATA          ?XD?SOFT_SPI_DELAY?ZF_DRIVER_SOFT_SPI
   *DEL*:           000003H   BYTE   UNIT     XDATA          ?XD?SOFT_SPI_8BIT_DATA_HANDLER?ZF_DRIVER_SOFT_SPI
   *DEL*:           000005H   BYTE   UNIT     XDATA          ?XD?SOFT_SPI_16BIT_DATA_HANDLER?ZF_DRIVER_SOFT_SPI
   *DEL*:           000001H   BYTE   UNIT     XDATA          ?XD?SOFT_SPI_WRITE_8BIT?ZF_DRIVER_SOFT_SPI
   *DEL*:           000008H   BYTE   UNIT     XDATA          ?XD?SOFT_SPI_WRITE_8BIT_ARRAY?ZF_DRIVER_SOFT_SPI
   *DEL*:           000002H   BYTE   UNIT     XDATA          ?XD?SOFT_SPI_WRITE_16BIT?ZF_DRIVER_SOFT_SPI
   *DEL*:           000008H   BYTE   UNIT     XDATA          ?XD?SOFT_SPI_WRITE_16BIT_ARRAY?ZF_DRIVER_SOFT_SPI
   *DEL*:           000002H   BYTE   UNIT     XDATA          ?XD?SOFT_SPI_WRITE_8BIT_REGISTER?ZF_DRIVER_SOFT_SPI
   *DEL*:           000009H   BYTE   UNIT     XDATA          ?XD?SOFT_SPI_WRITE_8BIT_REGISTERS?ZF_DRIVER_SOFT_SPI
   *DEL*:           000004H   BYTE   UNIT     XDATA          ?XD?SOFT_SPI_WRITE_16BIT_REGISTER?ZF_DRIVER_SOFT_SPI
   *DEL*:           00000AH   BYTE   UNIT     XDATA          ?XD?SOFT_SPI_WRITE_16BIT_REGISTERS?ZF_DRIVER_SOFT_SPI
   *DEL*:           000001H   BYTE   UNIT     XDATA          ?XD?SOFT_SPI_READ_8BIT?ZF_DRIVER_SOFT_SPI
   *DEL*:           000008H   BYTE   UNIT     XDATA          ?XD?SOFT_SPI_READ_8BIT_ARRAY?ZF_DRIVER_SOFT_SPI
   *DEL*:           000001H   BYTE   UNIT     XDATA          ?XD?SOFT_SPI_READ_16BIT?ZF_DRIVER_SOFT_SPI
   *DEL*:           000008H   BYTE   UNIT     XDATA          ?XD?SOFT_SPI_READ_16BIT_ARRAY?ZF_DRIVER_SOFT_SPI
   *DEL*:           000002H   BYTE   UNIT     XDATA          ?XD?SOFT_SPI_READ_8BIT_REGISTER?ZF_DRIVER_SOFT_SPI
   *DEL*:           000009H   BYTE   UNIT     XDATA          ?XD?SOFT_SPI_READ_8BIT_REGISTERS?ZF_DRIVER_SOFT_SPI
   *DEL*:           000004H   BYTE   UNIT     XDATA          ?XD?SOFT_SPI_READ_16BIT_REGISTER?ZF_DRIVER_SOFT_SPI
   *DEL*:           00000AH   BYTE   UNIT     XDATA          ?XD?SOFT_SPI_READ_16BIT_REGISTERS?ZF_DRIVER_SOFT_SPI
   *DEL*:           00000CH   BYTE   UNIT     XDATA          ?XD?SOFT_SPI_TRANSFER_8BIT?ZF_DRIVER_SOFT_SPI
   *DEL*:           00000CH   BYTE   UNIT     XDATA          ?XD?SOFT_SPI_TRANSFER_16BIT?ZF_DRIVER_SOFT_SPI
   *DEL*:           000011H   BYTE   UNIT     XDATA          ?XD?SOFT_SPI_INIT?ZF_DRIVER_SOFT_SPI
   *DEL*:           00001BH   BYTE   INSEG    CODE           ?PR?SPI_WRITE_8BIT_REGISTER?ZF_DRIVER_SPI
   *DEL*:           00007FH   BYTE   INSEG    CODE           ?PR?SPI_READ_16BIT_REGISTERS?ZF_DRIVER_SPI
   *DEL*:           000057H   BYTE   INSEG    CODE           ?PR?SPI_READ_16BIT_REGISTER?ZF_DRIVER_SPI
   *DEL*:           0000C3H   BYTE   INSEG    CODE           ?PR?SPI_TRANSFER_16BIT?ZF_DRIVER_SPI
   *DEL*:           000060H   BYTE   INSEG    CODE           ?PR?SPI_WRITE_16BIT_REGISTERS?ZF_DRIVER_SPI
   *DEL*:           000005H   BYTE   INSEG    CODE           ?PR?SPI_READ_8BIT?ZF_DRIVER_SPI
   *DEL*:           000037H   BYTE   INSEG    CODE           ?PR?SPI_READ_8BIT_ARRAY?ZF_DRIVER_SPI
   *DEL*:           000045H   BYTE   INSEG    CODE           ?PR?SPI_WRITE_16BIT_REGISTER?ZF_DRIVER_SPI
   *DEL*:           000036H   BYTE   INSEG    CODE           ?PR?SPI_WRITE_8BIT_ARRAY?ZF_DRIVER_SPI
L251 LINKER/LOCATER V4.66.93.0                                                        11/08/2025  20:32:40  PAGE 11


   *DEL*:           000021H   BYTE   INSEG    CODE           ?PR?SPI_READ_16BIT?ZF_DRIVER_SPI
   *DEL*:           000051H   BYTE   INSEG    CODE           ?PR?SPI_READ_16BIT_ARRAY?ZF_DRIVER_SPI
   *DEL*:           000044H   BYTE   INSEG    CODE           ?PR?SPI_READ_8BIT_REGISTERS?ZF_DRIVER_SPI
   *DEL*:           000056H   BYTE   INSEG    CODE           ?PR?SPI_READ_DAT?ZF_DRIVER_SPI
   *DEL*:           00004CH   BYTE   INSEG    CODE           ?PR?SPI_WRITE_16BIT_ARRAY?ZF_DRIVER_SPI
   *DEL*:           000014H   BYTE   INSEG    CODE           ?PR?SPI_READ_8BIT_REGISTER?ZF_DRIVER_SPI
   *DEL*:           000077H   BYTE   INSEG    CODE           ?PR?SPI_TRANSFER_8BIT?ZF_DRIVER_SPI
   *DEL*:           000043H   BYTE   INSEG    CODE           ?PR?SPI_WRITE_8BIT_REGISTERS?ZF_DRIVER_SPI
   *DEL*:           000006H   BYTE   UNIT     XDATA          ?XD?SPI_WRITE_8BIT_ARRAY?ZF_DRIVER_SPI
   *DEL*:           000006H   BYTE   UNIT     XDATA          ?XD?SPI_WRITE_16BIT_ARRAY?ZF_DRIVER_SPI
   *DEL*:           000006H   BYTE   UNIT     XDATA          ?XD?SPI_WRITE_8BIT_REGISTERS?ZF_DRIVER_SPI
   *DEL*:           000002H   BYTE   UNIT     XDATA          ?XD?SPI_WRITE_16BIT_REGISTER?ZF_DRIVER_SPI
   *DEL*:           000008H   BYTE   UNIT     XDATA          ?XD?SPI_WRITE_16BIT_REGISTERS?ZF_DRIVER_SPI
   *DEL*:           000006H   BYTE   UNIT     XDATA          ?XD?SPI_READ_8BIT_ARRAY?ZF_DRIVER_SPI
   *DEL*:           000006H   BYTE   UNIT     XDATA          ?XD?SPI_READ_16BIT_ARRAY?ZF_DRIVER_SPI
   *DEL*:           000006H   BYTE   UNIT     XDATA          ?XD?SPI_READ_8BIT_REGISTERS?ZF_DRIVER_SPI
   *DEL*:           000002H   BYTE   UNIT     XDATA          ?XD?SPI_READ_16BIT_REGISTER?ZF_DRIVER_SPI
   *DEL*:           000008H   BYTE   UNIT     XDATA          ?XD?SPI_READ_16BIT_REGISTERS?ZF_DRIVER_SPI
   *DEL*:           00000AH   BYTE   UNIT     XDATA          ?XD?SPI_TRANSFER_8BIT?ZF_DRIVER_SPI
   *DEL*:           00000AH   BYTE   UNIT     XDATA          ?XD?SPI_TRANSFER_16BIT?ZF_DRIVER_SPI
   *DEL*:           000052H   BYTE   INSEG    CODE           ?PR?UART_WRITE_STRING?ZF_DRIVER_UART
   *DEL*:           000053H   BYTE   INSEG    CODE           ?PR?UART_READ_BYTE?ZF_DRIVER_UART
   *DEL*:           000104H   BYTE   UNIT     XDATA          ?XD?UART_WRITE_STRING?ZF_DRIVER_UART
   *DEL*:           00000FH   BYTE   INSEG    CODE           ?PR?SET_TOF_TYPE?ZF_DEVICE_TYPE
   *DEL*:           000043H   BYTE   INSEG    CODE           ?PR?SET_GPS_TYPE?ZF_DEVICE_TYPE
   *DEL*:           000043H   BYTE   INSEG    CODE           ?PR?SET_WIRELESS_TYPE?ZF_DEVICE_TYPE
   *DEL*:           000061H   BYTE   INSEG    CODE           ?PR?TFT180_DRAW_POINT?ZF_DEVICE_TFT180
   *DEL*:           0000F3H   BYTE   INSEG    CODE           ?PR?TFT180_SHOW_UINT16?ZF_DEVICE_TFT180
   *DEL*:           000109H   BYTE   INSEG    CODE           ?PR?TFT180_SHOW_INT32?ZF_DEVICE_TFT180
   *DEL*:           0001E8H   BYTE   INSEG    CODE           ?PR?TFT180_SHOW_WAVE?ZF_DEVICE_TFT180
   *DEL*:           0000C3H   BYTE   INSEG    CODE           ?PR?TFT180_SHOW_UINT8?ZF_DEVICE_TFT180
   *DEL*:           0000F3H   BYTE   INSEG    CODE           ?PR?TFT180_SHOW_INT8?ZF_DEVICE_TFT180
   *DEL*:           000002H   BYTE   UNIT     XDATA          ?XD?TFT180_DRAW_POINT?ZF_DEVICE_TFT180
   *DEL*:           000005H   BYTE   UNIT     XDATA          ?XD?TFT180_SHOW_INT8?ZF_DEVICE_TFT180
   *DEL*:           000005H   BYTE   UNIT     XDATA          ?XD?TFT180_SHOW_UINT8?ZF_DEVICE_TFT180
   *DEL*:           000008H   BYTE   UNIT     XDATA          ?XD?TFT180_SHOW_UINT16?ZF_DEVICE_TFT180
   *DEL*:           000028H   BYTE   UNIT     XDATA          ?XD?TFT180_SHOW_INT32?ZF_DEVICE_TFT180
   *DEL*:           00001CH   BYTE   UNIT     XDATA          ?XD?TFT180_SHOW_WAVE?ZF_DEVICE_TFT180
   *DEL*:           0001C4H   BYTE   INSEG    CODE           ?PR?IPS114_SHOW_FLOAT?ZF_DEVICE_IPS114
   *DEL*:           000061H   BYTE   INSEG    CODE           ?PR?IPS114_DRAW_POINT?ZF_DEVICE_IPS114
   *DEL*:           0000A9H   BYTE   INSEG    CODE           ?PR?IPS114_SHOW_STRING?ZF_DEVICE_IPS114
   *DEL*:           0000E0H   BYTE   INSEG    CODE           ?PR?IPS114_SHOW_CHAR?ZF_DEVICE_IPS114
   *DEL*:           0000F3H   BYTE   INSEG    CODE           ?PR?IPS114_SHOW_UINT16?ZF_DEVICE_IPS114
   *DEL*:           00000DH   BYTE   INSEG    CODE           ?PR?IPS114_SET_COLOR?ZF_DEVICE_IPS114
   *DEL*:           000109H   BYTE   INSEG    CODE           ?PR?IPS114_SHOW_INT32?ZF_DEVICE_IPS114
   *DEL*:           000133H   BYTE   INSEG    CODE           ?PR?IPS114_SHOW_INT16?ZF_DEVICE_IPS114
   *DEL*:           0001E8H   BYTE   INSEG    CODE           ?PR?IPS114_SHOW_WAVE?ZF_DEVICE_IPS114
   *DEL*:           000027H   BYTE   INSEG    CODE           ?PR?IPS114_SET_DIR?ZF_DEVICE_IPS114
   *DEL*:           0001D0H   BYTE   INSEG    CODE           ?PR?IPS114_SHOW_CHINESE?ZF_DEVICE_IPS114
   *DEL*:           00005AH   BYTE   INSEG    CODE           ?PR?IPS114_CLEAR?ZF_DEVICE_IPS114
   *DEL*:           0000C3H   BYTE   INSEG    CODE           ?PR?IPS114_SHOW_UINT8?ZF_DEVICE_IPS114
   *DEL*:           0000F3H   BYTE   INSEG    CODE           ?PR?IPS114_SHOW_INT8?ZF_DEVICE_IPS114
   *DEL*:           000016H   BYTE   INSEG    CODE           ?PR?IPS114_WRITE_INDEX?ZF_DEVICE_IPS114
   *DEL*:           0001CFH   BYTE   INSEG    CODE           ?PR?IPS114_SET_REGION?ZF_DEVICE_IPS114
   *DEL*:           00025AH   BYTE   INSEG    CODE           ?PR?IPS114_INIT?ZF_DEVICE_IPS114
   *DEL*:           000004H   BYTE   UNIT     XDATA          ?XD?IPS114_SET_REGION?ZF_DEVICE_IPS114
   *DEL*:           000002H   BYTE   UNIT     XDATA          ?XD?IPS114_CLEAR?ZF_DEVICE_IPS114
   *DEL*:           000002H   BYTE   UNIT     XDATA          ?XD?IPS114_DRAW_POINT?ZF_DEVICE_IPS114
   *DEL*:           000004H   BYTE   UNIT     XDATA          ?XD?IPS114_SHOW_CHAR?ZF_DEVICE_IPS114
   *DEL*:           000006H   BYTE   UNIT     XDATA          ?XD?IPS114_SHOW_STRING?ZF_DEVICE_IPS114
   *DEL*:           000005H   BYTE   UNIT     XDATA          ?XD?IPS114_SHOW_INT8?ZF_DEVICE_IPS114
   *DEL*:           000005H   BYTE   UNIT     XDATA          ?XD?IPS114_SHOW_UINT8?ZF_DEVICE_IPS114
   *DEL*:           000008H   BYTE   UNIT     XDATA          ?XD?IPS114_SHOW_INT16?ZF_DEVICE_IPS114
   *DEL*:           000008H   BYTE   UNIT     XDATA          ?XD?IPS114_SHOW_UINT16?ZF_DEVICE_IPS114
   *DEL*:           000028H   BYTE   UNIT     XDATA          ?XD?IPS114_SHOW_INT32?ZF_DEVICE_IPS114
L251 LINKER/LOCATER V4.66.93.0                                                        11/08/2025  20:32:40  PAGE 12


   *DEL*:           000031H   BYTE   UNIT     XDATA          ?XD?IPS114_SHOW_FLOAT?ZF_DEVICE_IPS114
   *DEL*:           00001CH   BYTE   UNIT     XDATA          ?XD?IPS114_SHOW_WAVE?ZF_DEVICE_IPS114
   *DEL*:           000015H   BYTE   UNIT     XDATA          ?XD?IPS114_SHOW_CHINESE?ZF_DEVICE_IPS114
   *DEL*:           0001C4H   BYTE   INSEG    CODE           ?PR?IPS200_SHOW_FLOAT?ZF_DEVICE_IPS200
   *DEL*:           000061H   BYTE   INSEG    CODE           ?PR?IPS200_DRAW_POINT?ZF_DEVICE_IPS200
   *DEL*:           0000A9H   BYTE   INSEG    CODE           ?PR?IPS200_SHOW_STRING?ZF_DEVICE_IPS200
   *DEL*:           0000E0H   BYTE   INSEG    CODE           ?PR?IPS200_SHOW_CHAR?ZF_DEVICE_IPS200
   *DEL*:           0000F3H   BYTE   INSEG    CODE           ?PR?IPS200_SHOW_UINT16?ZF_DEVICE_IPS200
   *DEL*:           00000DH   BYTE   INSEG    CODE           ?PR?IPS200_SET_COLOR?ZF_DEVICE_IPS200
   *DEL*:           000109H   BYTE   INSEG    CODE           ?PR?IPS200_SHOW_INT32?ZF_DEVICE_IPS200
   *DEL*:           000133H   BYTE   INSEG    CODE           ?PR?IPS200_SHOW_INT16?ZF_DEVICE_IPS200
   *DEL*:           0001E8H   BYTE   INSEG    CODE           ?PR?IPS200_SHOW_WAVE?ZF_DEVICE_IPS200
   *DEL*:           000007H   BYTE   INSEG    CODE           ?PR?IPS200_SET_DIR?ZF_DEVICE_IPS200
   *DEL*:           0001D0H   BYTE   INSEG    CODE           ?PR?IPS200_SHOW_CHINESE?ZF_DEVICE_IPS200
   *DEL*:           00005AH   BYTE   INSEG    CODE           ?PR?IPS200_CLEAR?ZF_DEVICE_IPS200
   *DEL*:           0000C3H   BYTE   INSEG    CODE           ?PR?IPS200_SHOW_UINT8?ZF_DEVICE_IPS200
   *DEL*:           0000F3H   BYTE   INSEG    CODE           ?PR?IPS200_SHOW_INT8?ZF_DEVICE_IPS200
   *DEL*:           000016H   BYTE   INSEG    CODE           ?PR?IPS200_WRITE_INDEX?ZF_DEVICE_IPS200
   *DEL*:           0000CCH   BYTE   INSEG    CODE           ?PR?IPS200_SET_REGION?ZF_DEVICE_IPS200
   *DEL*:           00025AH   BYTE   INSEG    CODE           ?PR?IPS200_INIT?ZF_DEVICE_IPS200
   *DEL*:           000004H   BYTE   UNIT     XDATA          ?XD?IPS200_SET_REGION?ZF_DEVICE_IPS200
   *DEL*:           000002H   BYTE   UNIT     XDATA          ?XD?IPS200_CLEAR?ZF_DEVICE_IPS200
   *DEL*:           000002H   BYTE   UNIT     XDATA          ?XD?IPS200_DRAW_POINT?ZF_DEVICE_IPS200
   *DEL*:           000004H   BYTE   UNIT     XDATA          ?XD?IPS200_SHOW_CHAR?ZF_DEVICE_IPS200
   *DEL*:           000006H   BYTE   UNIT     XDATA          ?XD?IPS200_SHOW_STRING?ZF_DEVICE_IPS200
   *DEL*:           000005H   BYTE   UNIT     XDATA          ?XD?IPS200_SHOW_INT8?ZF_DEVICE_IPS200
   *DEL*:           000005H   BYTE   UNIT     XDATA          ?XD?IPS200_SHOW_UINT8?ZF_DEVICE_IPS200
   *DEL*:           000008H   BYTE   UNIT     XDATA          ?XD?IPS200_SHOW_INT16?ZF_DEVICE_IPS200
   *DEL*:           000008H   BYTE   UNIT     XDATA          ?XD?IPS200_SHOW_UINT16?ZF_DEVICE_IPS200
   *DEL*:           000028H   BYTE   UNIT     XDATA          ?XD?IPS200_SHOW_INT32?ZF_DEVICE_IPS200
   *DEL*:           000031H   BYTE   UNIT     XDATA          ?XD?IPS200_SHOW_FLOAT?ZF_DEVICE_IPS200
   *DEL*:           00001CH   BYTE   UNIT     XDATA          ?XD?IPS200_SHOW_WAVE?ZF_DEVICE_IPS200
   *DEL*:           000015H   BYTE   UNIT     XDATA          ?XD?IPS200_SHOW_CHINESE?ZF_DEVICE_IPS200
   *DEL*:           00003FH   BYTE   INSEG    CODE           ?PR?DL1A_TIMEOUT_MICROSECONDS_TO_MCLKS?ZF_DEVICE_DL1A
   *DEL*:           000041H   BYTE   INSEG    CODE           ?PR?DL1A_TIMEOUT_MCLKS_TO_MICROSECONDS?ZF_DEVICE_DL1A
   *DEL*:           000083H   BYTE   INSEG    CODE           ?PR?DL1A_SET_SIGNAL_RATE_LIMIT?ZF_DEVICE_DL1A
   *DEL*:           000018H   BYTE   INSEG    CODE           ?PR?DL1A_DECODE_TIMEOUT?ZF_DEVICE_DL1A
   *DEL*:           000233H   BYTE   INSEG    CODE           ?PR?DL1A_GET_SPAD_INFO?ZF_DEVICE_DL1A
   *DEL*:           000038H   BYTE   INSEG    CODE           ?PR?DL1A_ENCODE_TIMEOUT?ZF_DEVICE_DL1A
   *DEL*:           00006AH   BYTE   INSEG    CODE           ?PR?DL1A_GET_SEQUENCE_STEP_ENABLES?ZF_DEVICE_DL1A
   *DEL*:           0000C7H   BYTE   INSEG    CODE           ?PR?DL1A_GET_DISTANCE?ZF_DEVICE_DL1A
   *DEL*:           0000BAH   BYTE   INSEG    CODE           ?PR?DL1A_PERFORM_SINGLE_REF_CALIBRATION?ZF_DEVICE_DL1A
   *DEL*:           00013CH   BYTE   INSEG    CODE           ?PR?DL1A_GET_SEQUENCE_STEP_TIMEOUTS?ZF_DEVICE_DL1A
   *DEL*:           000001H   BYTE   INSEG    CODE           ?PR?DL1A_INT_HANDLER?ZF_DEVICE_DL1A
   *DEL*:           00009BH   BYTE   INSEG    CODE           ?PR?DL1A_GET_MEASUREMENT_TIMING_BUDGET?ZF_DEVICE_DL1A
   *DEL*:           0001D4H   BYTE   INSEG    CODE           ?PR?DL1A_SET_MEASUREMENT_TIMING_BUDGET?ZF_DEVICE_DL1A
   *DEL*:           0004C9H   BYTE   INSEG    CODE           ?PR?DL1A_INIT?ZF_DEVICE_DL1A
   *DEL*:           000086H   BYTE   INSEG    CODE           ?PR?DL1A_GET_VCSEL_PULSE_PERIOD?ZF_DEVICE_DL1A
   *DEL*:           000008H   BYTE   UNIT     XDATA          ?XD?DL1A_GET_SPAD_INFO?ZF_DEVICE_DL1A
   *DEL*:           000001H   BYTE   UNIT     XDATA          ?XD?DL1A_GET_SEQUENCE_STEP_ENABLES?ZF_DEVICE_DL1A
   *DEL*:           000001H   BYTE   UNIT     XDATA          ?XD?DL1A_GET_VCSEL_PULSE_PERIOD?ZF_DEVICE_DL1A
   *DEL*:           000008H   BYTE   UNIT     XDATA          ?XD?DL1A_GET_SEQUENCE_STEP_TIMEOUTS?ZF_DEVICE_DL1A
   *DEL*:           000003H   BYTE   UNIT     XDATA          ?XD?DL1A_PERFORM_SINGLE_REF_CALIBRATION?ZF_DEVICE_DL1A
   *DEL*:           00002BH   BYTE   UNIT     XDATA          ?XD?DL1A_SET_MEASUREMENT_TIMING_BUDGET?ZF_DEVICE_DL1A
   *DEL*:           00001BH   BYTE   UNIT     XDATA          ?XD?DL1A_GET_MEASUREMENT_TIMING_BUDGET?ZF_DEVICE_DL1A
   *DEL*:           000003H   BYTE   UNIT     XDATA          ?XD?DL1A_SET_SIGNAL_RATE_LIMIT?ZF_DEVICE_DL1A
   *DEL*:           000003H   BYTE   UNIT     XDATA          ?XD?DL1A_GET_DISTANCE?ZF_DEVICE_DL1A
   *DEL*:           0000CAH   BYTE   UNIT     XDATA          ?XD?DL1A_INIT?ZF_DEVICE_DL1A
   *DEL*:           00005EH   BYTE   INSEG    CODE           ?PR?BLE6A20_READ_BUFFER?ZF_DEVICE_BLE6A20
   *DEL*:           0000CFH   BYTE   INSEG    CODE           ?PR?BLE6A20_SEND_BUFFER?ZF_DEVICE_BLE6A20
   *DEL*:           00003FH   BYTE   INSEG    CODE           ?PR?BLE6A20_SEND_STRING?ZF_DEVICE_BLE6A20
   *DEL*:           000026H   BYTE   INSEG    CODE           ?PR?BLE6A20_CALLBACK?ZF_DEVICE_BLE6A20
   *DEL*:           000087H   BYTE   INSEG    CODE           ?PR?BLE6A20_INIT?ZF_DEVICE_BLE6A20
   *DEL*:           000044H   BYTE   INSEG    CODE           ?PR?BLE6A20_SEND_BYTE?ZF_DEVICE_BLE6A20
   *DEL*:           000008H   BYTE   UNIT     XDATA          ?XD?BLE6A20_SEND_BUFFER?ZF_DEVICE_BLE6A20
L251 LINKER/LOCATER V4.66.93.0                                                        11/08/2025  20:32:40  PAGE 13


   *DEL*:           000004H   BYTE   UNIT     XDATA          ?XD?BLE6A20_SEND_STRING?ZF_DEVICE_BLE6A20
   *DEL*:           000004H   BYTE   UNIT     XDATA          ?XD?BLE6A20_READ_BUFFER?ZF_DEVICE_BLE6A20
   *DEL*:           000001H   BYTE   UNIT     XDATA          ?XD?BLE6A20_CALLBACK?ZF_DEVICE_BLE6A20
   *DEL*:           0000CDH   BYTE   INSEG    CODE           ?PR?WIRELESS_UART_SEND_BUFFER?ZF_DEVICE_WIRELESS_UART
   *DEL*:           00003FH   BYTE   INSEG    CODE           ?PR?WIRELESS_UART_SEND_STRING?ZF_DEVICE_WIRELESS_UART
   *DEL*:           000026H   BYTE   INSEG    CODE           ?PR?WIRELESS_UART_CALLBACK?ZF_DEVICE_WIRELESS_UART
   *DEL*:           00007AH   BYTE   INSEG    CODE           ?PR?WIRELESS_UART_INIT?ZF_DEVICE_WIRELESS_UART
   *DEL*:           000042H   BYTE   INSEG    CODE           ?PR?WIRELESS_UART_SEND_BYTE?ZF_DEVICE_WIRELESS_UART
   *DEL*:           00005EH   BYTE   INSEG    CODE           ?PR?WIRELESS_UART_READ_BUFFER?ZF_DEVICE_WIRELESS_UART
   *DEL*:           000008H   BYTE   UNIT     XDATA          ?XD?WIRELESS_UART_SEND_BUFFER?ZF_DEVICE_WIRELESS_UART
   *DEL*:           000004H   BYTE   UNIT     XDATA          ?XD?WIRELESS_UART_SEND_STRING?ZF_DEVICE_WIRELESS_UART
   *DEL*:           000004H   BYTE   UNIT     XDATA          ?XD?WIRELESS_UART_READ_BUFFER?ZF_DEVICE_WIRELESS_UART
   *DEL*:           000001H   BYTE   UNIT     XDATA          ?XD?WIRELESS_UART_CALLBACK?ZF_DEVICE_WIRELESS_UART
   *DEL*:           00001AH   BYTE   INSEG    CODE           ?PR?ICM20602_READ_REGISTER?ZF_DEVICE_ICM20602
   *DEL*:           00000CH   BYTE   INSEG    CODE           ?PR?ICM20602_WRITE_REGISTER?ZF_DEVICE_ICM20602
   *DEL*:           000021H   BYTE   INSEG    CODE           ?PR?ICM20602_SIMSPI_WR_BYTE?ZF_DEVICE_ICM20602
   *DEL*:           000031H   BYTE   INSEG    CODE           ?PR?ICM20602_SELF_CHECK?ZF_DEVICE_ICM20602
   *DEL*:           00003FH   BYTE   INSEG    CODE           ?PR?ICM20602_SIMSPI_R_REG_BYTES?ZF_DEVICE_ICM20602
   *DEL*:           000018H   BYTE   INSEG    CODE           ?PR?ICM20602_SIMSPI_R_REG_BYTE?ZF_DEVICE_ICM20602
   *DEL*:           000011H   BYTE   INSEG    CODE           ?PR?ICM20602_SIMSPI_W_REG_BYTE?ZF_DEVICE_ICM20602
   *DEL*:           0001B9H   BYTE   INSEG    CODE           ?PR?ICM20602_INIT?ZF_DEVICE_ICM20602
   *DEL*:           000054H   BYTE   INSEG    CODE           ?PR?ICM20602_GET_ACC?ZF_DEVICE_ICM20602
   *DEL*:           000016H   BYTE   INSEG    CODE           ?PR?ICM20602_READ_REGISTERS?ZF_DEVICE_ICM20602
   *DEL*:           000054H   BYTE   INSEG    CODE           ?PR?ICM20602_GET_GYRO?ZF_DEVICE_ICM20602
   *DEL*:           000004H   BYTE   UNIT     XDATA          ?XD?ICM20602_SIMSPI_R_REG_BYTES?ZF_DEVICE_ICM20602
   *DEL*:           000001H   BYTE   UNIT     XDATA          ?XD?ICM20602_READ_REGISTER?ZF_DEVICE_ICM20602
   *DEL*:           000006H   BYTE   UNIT     XDATA          ?XD?ICM20602_GET_ACC?ZF_DEVICE_ICM20602
   *DEL*:           000006H   BYTE   UNIT     XDATA          ?XD?ICM20602_GET_GYRO?ZF_DEVICE_ICM20602
   *DEL*:           000054H   BYTE   INSEG    CODE           ?PR?IMU660RA_GET_GYRO?ZF_DEVICE_IMU660RA
   *DEL*:           00001EH   BYTE   INSEG    CODE           ?PR?IMU660RA_READ_REGISTER?ZF_DEVICE_IMU660RA
   *DEL*:           000014H   BYTE   INSEG    CODE           ?PR?IMU660RA_WRITE_REGISTERS?ZF_DEVICE_IMU660RA
   *DEL*:           00000CH   BYTE   INSEG    CODE           ?PR?IMU660RA_WRITE_REGISTER?ZF_DEVICE_IMU660RA
   *DEL*:           000023H   BYTE   INSEG    CODE           ?PR?IMU660RA_SIMSPI_WR_BYTE?ZF_DEVICE_IMU660RA
   *DEL*:           000041H   BYTE   INSEG    CODE           ?PR?IMU660RA_SELF_CHECK?ZF_DEVICE_IMU660RA
   *DEL*:           00003FH   BYTE   INSEG    CODE           ?PR?IMU660RA_SIMSPI_R_REG_BYTES?ZF_DEVICE_IMU660RA
   *DEL*:           000039H   BYTE   INSEG    CODE           ?PR?IMU660RA_SIMSPI_W_REG_BYTES?ZF_DEVICE_IMU660RA
   *DEL*:           000011H   BYTE   INSEG    CODE           ?PR?IMU660RA_SIMSPI_W_REG_BYTE?ZF_DEVICE_IMU660RA
   *DEL*:           0001E0H   BYTE   INSEG    CODE           ?PR?IMU660RA_INIT?ZF_DEVICE_IMU660RA
   *DEL*:           000054H   BYTE   INSEG    CODE           ?PR?IMU660RA_GET_ACC?ZF_DEVICE_IMU660RA
   *DEL*:           000079H   BYTE   INSEG    CODE           ?PR?IMU660RA_READ_REGISTERS?ZF_DEVICE_IMU660RA
   *DEL*:           000004H   BYTE   UNIT     XDATA          ?XD?IMU660RA_SIMSPI_W_REG_BYTES?ZF_DEVICE_IMU660RA
   *DEL*:           000004H   BYTE   UNIT     XDATA          ?XD?IMU660RA_SIMSPI_R_REG_BYTES?ZF_DEVICE_IMU660RA
   *DEL*:           000002H   BYTE   UNIT     XDATA          ?XD?IMU660RA_READ_REGISTER?ZF_DEVICE_IMU660RA
   *DEL*:           00000EH   BYTE   UNIT     XDATA          ?XD?IMU660RA_READ_REGISTERS?ZF_DEVICE_IMU660RA
   *DEL*:           000006H   BYTE   UNIT     XDATA          ?XD?IMU660RA_GET_ACC?ZF_DEVICE_IMU660RA
   *DEL*:           000006H   BYTE   UNIT     XDATA          ?XD?IMU660RA_GET_GYRO?ZF_DEVICE_IMU660RA
   *DEL*:           000054H   BYTE   INSEG    CODE           ?PR?IMU660RB_GET_GYRO?ZF_DEVICE_IMU660RB
   *DEL*:           00001AH   BYTE   INSEG    CODE           ?PR?IMU660RB_READ_REGISTER?ZF_DEVICE_IMU660RB
   *DEL*:           0000B1H   BYTE   INSEG    CODE           ?PR?IMU660RB_GYRO_TRANSITION?ZF_DEVICE_IMU660RB
   *DEL*:           00000CH   BYTE   INSEG    CODE           ?PR?IMU660RB_WRITE_REGISTER?ZF_DEVICE_IMU660RB
   *DEL*:           000023H   BYTE   INSEG    CODE           ?PR?IMU660RB_SIMSPI_WR_BYTE?ZF_DEVICE_IMU660RB
   *DEL*:           00002FH   BYTE   INSEG    CODE           ?PR?IMU660RB_SELF_CHECK?ZF_DEVICE_IMU660RB
   *DEL*:           00003FH   BYTE   INSEG    CODE           ?PR?IMU660RB_SIMSPI_R_REG_BYTES?ZF_DEVICE_IMU660RB
   *DEL*:           00001CH   BYTE   INSEG    CODE           ?PR?IMU660RB_SIMSPI_R_REG_BYTE?ZF_DEVICE_IMU660RB
   *DEL*:           000011H   BYTE   INSEG    CODE           ?PR?IMU660RB_SIMSPI_W_REG_BYTE?ZF_DEVICE_IMU660RB
   *DEL*:           00006AH   BYTE   INSEG    CODE           ?PR?IMU660RB_INIT?ZF_DEVICE_IMU660RB
   *DEL*:           000054H   BYTE   INSEG    CODE           ?PR?IMU660RB_GET_ACC?ZF_DEVICE_IMU660RB
   *DEL*:           000075H   BYTE   INSEG    CODE           ?PR?IMU660RB_ACC_TRANSITION?ZF_DEVICE_IMU660RB
   *DEL*:           000016H   BYTE   INSEG    CODE           ?PR?IMU660RB_READ_REGISTERS?ZF_DEVICE_IMU660RB
   *DEL*:           000004H   BYTE   UNIT     XDATA          ?XD?IMU660RB_SIMSPI_R_REG_BYTES?ZF_DEVICE_IMU660RB
   *DEL*:           000001H   BYTE   UNIT     XDATA          ?XD?IMU660RB_READ_REGISTER?ZF_DEVICE_IMU660RB
   *DEL*:           000006H   BYTE   UNIT     XDATA          ?XD?IMU660RB_GET_ACC?ZF_DEVICE_IMU660RB
   *DEL*:           000006H   BYTE   UNIT     XDATA          ?XD?IMU660RB_GET_GYRO?ZF_DEVICE_IMU660RB
   *DEL*:           000054H   BYTE   INSEG    CODE           ?PR?IMU963RA_GET_ACC?ZF_DEVICE_IMU963RA
   *DEL*:           00006BH   BYTE   INSEG    CODE           ?PR?IMU963RA_GET_MAG?ZF_DEVICE_IMU963RA
L251 LINKER/LOCATER V4.66.93.0                                                        11/08/2025  20:32:40  PAGE 14


   *DEL*:           000006H   BYTE   UNIT     XDATA          ?XD?IMU963RA_GET_ACC?ZF_DEVICE_IMU963RA
   *DEL*:           000006H   BYTE   UNIT     XDATA          ?XD?IMU963RA_GET_MAG?ZF_DEVICE_IMU963RA
   *DEL*:           000094H   BYTE   INSEG    CODE           ?PR?GET_DOUBLE_NUMBER?ZF_DEVICE_GPS_TAU1201
   *DEL*:           00007DH   BYTE   INSEG    CODE           ?PR?GET_FLOAT_NUMBER?ZF_DEVICE_GPS_TAU1201
   *DEL*:           0000C5H   BYTE   INSEG    CODE           ?PR?UTC_TO_BTC?ZF_DEVICE_GPS_TAU1201
   *DEL*:           000372H   BYTE   INSEG    CODE           ?PR?GET_TWO_POINTS_DISTANCE?ZF_DEVICE_GPS_TAU1201
   *DEL*:           0000D9H   BYTE   INSEG    CODE           ?PR?GPS_GNGGA_PARSE?ZF_DEVICE_GPS_TAU1201
   *DEL*:           0005A6H   BYTE   INSEG    CODE           ?PR?GPS_GNRMC_PARSE?ZF_DEVICE_GPS_TAU1201
   *DEL*:           000196H   BYTE   INSEG    CODE           ?PR?GPS_DATA_PARSE?ZF_DEVICE_GPS_TAU1201
   *DEL*:           00006EH   BYTE   INSEG    CODE           ?PR?GET_INT_NUMBER?ZF_DEVICE_GPS_TAU1201
   *DEL*:           000290H   BYTE   INSEG    CODE           ?PR?GPS_INIT?ZF_DEVICE_GPS_TAU1201
   *DEL*:           000077H   BYTE   INSEG    CODE           ?PR?GET_PARAMETER_INDEX?ZF_DEVICE_GPS_TAU1201
   *DEL*:           00055CH   BYTE   INSEG    CODE           ?PR?GET_TWO_POINTS_AZIMUTH?ZF_DEVICE_GPS_TAU1201
   *DEL*:           000184H   BYTE   INSEG    CODE           ?PR?GPS_UART_CALLBACK?ZF_DEVICE_GPS_TAU1201
   *DEL*:           000003H   BYTE   UNIT     XDATA          ?XD?GET_PARAMETER_INDEX?ZF_DEVICE_GPS_TAU1201
   *DEL*:           00000DH   BYTE   UNIT     XDATA          ?XD?GET_INT_NUMBER?ZF_DEVICE_GPS_TAU1201
   *DEL*:           000014H   BYTE   UNIT     XDATA          ?XD?GET_FLOAT_NUMBER?ZF_DEVICE_GPS_TAU1201
   *DEL*:           000018H   BYTE   UNIT     XDATA          ?XD?GET_DOUBLE_NUMBER?ZF_DEVICE_GPS_TAU1201
   *DEL*:           00003BH   BYTE   UNIT     XDATA          ?XD?GPS_GNRMC_PARSE?ZF_DEVICE_GPS_TAU1201
   *DEL*:           000009H   BYTE   UNIT     XDATA          ?XD?GPS_GNGGA_PARSE?ZF_DEVICE_GPS_TAU1201
   *DEL*:           000060H   BYTE   UNIT     XDATA          ?XD?GET_TWO_POINTS_DISTANCE?ZF_DEVICE_GPS_TAU1201
   *DEL*:           000038H   BYTE   UNIT     XDATA          ?XD?GET_TWO_POINTS_AZIMUTH?ZF_DEVICE_GPS_TAU1201
   *DEL*:           000008H   BYTE   UNIT     XDATA          ?XD?GPS_DATA_PARSE?ZF_DEVICE_GPS_TAU1201
   *DEL*:           00000BH   BYTE   UNIT     XDATA          ?XD?GPS_UART_CALLBACK?ZF_DEVICE_GPS_TAU1201
   *DEL*:           000095H   BYTE   UNIT     XDATA          ?XD?GPS_INIT?ZF_DEVICE_GPS_TAU1201
   *DEL*:           000075H   BYTE   INSEG    CODE           ?PR?TSL1401_SEND_DATA?ZF_DEVICE_TSL1401
   *DEL*:           00003DH   BYTE   INSEG    CODE           ?PR?TSL1401_INIT?ZF_DEVICE_TSL1401
   *DEL*:           00009BH   BYTE   INSEG    CODE           ?PR?TSL1401_COLLECT_PIT_HANDLER?ZF_DEVICE_TSL1401
   *DEL*:           00034DH   BYTE   INSEG    CODE           ?PR?SEEKFREE_ASSISTANT_CAMERA_BOUNDARY_CONFIG?SEEKFREE_ASS
                                                             -ISTANT
   *DEL*:           000101H   BYTE   INSEG    CODE           ?PR?SEEKFREE_ASSISTANT_CAMERA_DOT_SEND?SEEKFREE_ASSISTANT
   *DEL*:           000102H   BYTE   INSEG    CODE           ?PR?SEEKFREE_ASSISTANT_OSCILLOSCOPE_SEND?SEEKFREE_ASSISTAN
                                                             -T
   *DEL*:           00002EH   BYTE   INSEG    CODE           ?PR?SEEKFREE_ASSISTANT_INIT?SEEKFREE_ASSISTANT
   *DEL*:           000017H   BYTE   INSEG    CODE           ?PR?SEEKFREE_ASSISTANT_SUM?SEEKFREE_ASSISTANT
   *DEL*:           000037H   BYTE   INSEG    CODE           ?PR?SEEKFREE_ASSISTANT_CAMERA_INFORMATION_CONFIG?SEEKFREE_
                                                             -ASSISTANT
   *DEL*:           000265H   BYTE   INSEG    CODE           ?PR?SEEKFREE_ASSISTANT_DATA_ANALYSIS?SEEKFREE_ASSISTANT
   *DEL*:           00012AH   BYTE   INSEG    CODE           ?PR?SEEKFREE_ASSISTANT_CAMERA_DATA_SEND?SEEKFREE_ASSISTANT
   *DEL*:           00003FH   BYTE   INSEG    CODE           ?PR?SEEKFREE_ASSISTANT_CAMERA_SEND?SEEKFREE_ASSISTANT
   *DEL*:           00000AH   BYTE   UNIT     XDATA          ?XD?SEEKFREE_ASSISTANT_CAMERA_DATA_SEND?SEEKFREE_ASSISTANT
   *DEL*:           000002H   BYTE   UNIT     XDATA          ?XD?SEEKFREE_ASSISTANT_CAMERA_INFORMATION_CONFIG?SEEKFREE_
                                                             -ASSISTANT
   *DEL*:           000024H   BYTE   UNIT     XDATA          ?XD?SEEKFREE_ASSISTANT_OSCILLOSCOPE_SEND?SEEKFREE_ASSISTAN
                                                             -T
   *DEL*:           000003H   BYTE   UNIT     XDATA          ?XD?SEEKFREE_ASSISTANT_CAMERA_DOT_SEND?SEEKFREE_ASSISTANT
   *DEL*:           000014H   BYTE   UNIT     XDATA          ?XD?SEEKFREE_ASSISTANT_CAMERA_BOUNDARY_CONFIG?SEEKFREE_ASS
                                                             -ISTANT
   *DEL*:           000088H   BYTE   UNIT     XDATA          ?XD?SEEKFREE_ASSISTANT_DATA_ANALYSIS?SEEKFREE_ASSISTANT
   *DEL*:           000000H.1 BIT    UNIT     BIT            ?BI?SEEKFREE_ASSISTANT_DATA_ANALYSIS?SEEKFREE_ASSISTANT
   *DEL*:           00004DH   BYTE   INSEG    CODE           ?PR?SEEKFREE_ASSISTANT_INTERFACE_INIT?SEEKFREE_ASSISTANT_I
                                                             -NTERFACE
   *DEL*:           00007BH   BYTE   INSEG    CODE           ?PR?BATTERY_GET?ADC_GET
   *DEL*:           000002H   BYTE   UNIT     XDATA          ?XD?BATTERY_GET?ADC_GET
   *DEL*:           00008FH   BYTE   INSEG    CODE           ?PR?SVERO_UPDATE_SMOOTH?CONTROL
   *DEL*:           000030H   BYTE   INSEG    CODE           ?PR?EEPROM_READ_FLOAT?EEPROM
   *DEL*:           0000D0H   BYTE   INSEG    CODE           ?PR?EEPROM_SAVE_FLOAT?EEPROM
   *DEL*:           000056H   BYTE   INSEG    CODE           ?PR?EEPROM_READ_NUM?EEPROM
   *DEL*:           000089H   BYTE   INSEG    CODE           ?PR?EEPROM_SAVE_NUM?EEPROM
   *DEL*:           000200H   BYTE   UNIT     XDATA          ?XD?EEPROM_SAVE_NUM?EEPROM
   *DEL*:           000000H.1 BIT    UNIT     BIT            ?BI?EEPROM_SAVE_NUM?EEPROM
   *DEL*:           000200H   BYTE   UNIT     XDATA          ?XD?EEPROM_READ_NUM?EEPROM
   *DEL*:           000000H.1 BIT    UNIT     BIT            ?BI?EEPROM_READ_NUM?EEPROM
   *DEL*:           00020AH   BYTE   UNIT     XDATA          ?XD?EEPROM_SAVE_FLOAT?EEPROM
   *DEL*:           000000H.1 BIT    UNIT     BIT            ?BI?EEPROM_SAVE_FLOAT?EEPROM
L251 LINKER/LOCATER V4.66.93.0                                                        11/08/2025  20:32:40  PAGE 15


   *DEL*:           000004H   BYTE   UNIT     XDATA          ?XD?EEPROM_READ_FLOAT?EEPROM
   *DEL*:           000000H.1 BIT    UNIT     BIT            ?BI?EEPROM_READ_FLOAT?EEPROM
   *DEL*:           0000C5H   BYTE   INSEG    CODE           ?PR?NORMAL_PID?FUNCTION
   *DEL*:           000004H   BYTE   UNIT     XDATA          ?XD?NORMAL_PID?FUNCTION
   *DEL*:           00002CH   BYTE   INSEG    CODE           ?PR?OLED_DISPLAYTURN?OLED
   *DEL*:           0000DEH   BYTE   INSEG    CODE           ?PR?OLED_INIT?OLED
   *DEL*:           0000F5H   BYTE   INSEG    CODE           ?PR?OLED_SHOWSTRING?OLED
   *DEL*:           000070H   BYTE   INSEG    CODE           ?PR?OLED_WR_BYTE?OLED
   *DEL*:           0001BEH   BYTE   INSEG    CODE           ?PR?OLED_SHOWCHAR?OLED
   *DEL*:           00001EH   BYTE   INSEG    CODE           ?PR?OLED_COLORTURN?OLED
   *DEL*:           00002BH   BYTE   INSEG    CODE           ?PR?OLED_SET_POS?OLED
   *DEL*:           000017H   BYTE   INSEG    CODE           ?PR?DELAY_MS?OLED
   *DEL*:           0001C9H   BYTE   INSEG    CODE           ?PR?OLED_SHOWNUM?OLED
   *DEL*:           000017H   BYTE   INSEG    CODE           ?PR?OLED_POW?OLED
   *DEL*:           00010AH   BYTE   INSEG    CODE           ?PR?OLED_SHOWCHINESE?OLED
   *DEL*:           00003AH   BYTE   INSEG    CODE           ?PR?OLED_CLEAR?OLED
   *DEL*:           000006H   BYTE   UNIT     XDATA          ?XD?OLED_SHOWCHAR?OLED
   *DEL*:           000007H   BYTE   UNIT     XDATA          ?XD?OLED_SHOWNUM?OLED
   *DEL*:           000005H   BYTE   UNIT     XDATA          ?XD?OLED_SHOWSTRING?OLED
   *DEL*:           000005H   BYTE   UNIT     XDATA          ?XD?OLED_SHOWCHINESE?OLED
   *DEL*:           000053H   BYTE   INSEG    CODE           ?PR?HELP_TURN?STRATEGY
   *DEL*:           0000A3H   BYTE   INSEG    CODE           ?PR?HELP_TURN_TWO?STRATEGY
   *DEL*:           000241H   BYTE   INSEG    CODE           ?PR?HELP_TURN3?STRATEGY
   *DEL*:           000004H   BYTE   UNIT     XDATA          ?XD?HELP_TURN3?STRATEGY
   *DEL*:           000002H   BYTE   UNIT     XDATA          ?XD?HELP_TURN_TWO?STRATEGY
   *DEL*:           00019BH   BYTE   INSEG    CODE           ?PR?POW?_?POW
   *DEL*:           000037H   BYTE   INSEG    CODE           ?PR?STRNCMP?_?STRNCMP
   *DEL*:           000030H   BYTE   INSEG    CODE           ?PR?STRNCPY?_?STRNCPY
   *DEL*:           00000EH   BYTE   INSEG    CODE           ?PR?STRLEN?_?STRLEN
   *DEL*:           00001FH   BYTE   INSEG    CODE           ?PR?STRCHR?_?STRCHR
   *DEL*:           00001AH   BYTE   INSEG    CODE           ?PR?MEMSET?_?MEMSET



OVERLAY MAP OF MODULE:   .\out_file\SEEKFREE (ai8051u_isr)


FUNCTION/MODULE                               XDATA_GROUP
--> CALLED FUNCTION/MODULE                    START  STOP
=========================================================
?C_C51STARTUP                                 ----- -----

*** NEW ROOT ********************************

?C_C51STARTUP?3                               ----- -----
  +--> main/main

main/main                                     ----- -----
  +--> _m/main
  +--> SPRINTF/SPRINTF

_m/main                                       ----- -----
  +--> clock_init/zf_common_clock
  +--> debug_init/zf_common_debug
  +--> init_all/function
  +--> pit_handler1/main
  +--> GO_Function/function
  +--> menu_handle_key/menu
  +--> PRINTF/PRINTF
  +--> PWM_Test/Device_Test
  +--> Serve_Test/Device_Test
  +--> Set_Sevo/Device_Test
  +--> Turn_mode_Init/function

clock_init/zf_common_clock                    ----- -----
L251 LINKER/LOCATER V4.66.93.0                                                        11/08/2025  20:32:40  PAGE 16


  +--> system_delay_init/zf_driver_delay
  +--> interrupt_global_enable/zf_common_interrupt

system_delay_init/zf_driver_delay             ----- -----
  +--> ?C?SLDIV/?C?SLDIV

?C?SLDIV/?C?SLDIV                             ----- -----
  +--> ?C?ULIDIV/?C?ULDIV

?C?ULIDIV/?C?ULDIV                            ----- -----

interrupt_global_enable/zf_common_interr+     ----- -----
... upt

debug_init/zf_common_debug                    ----- -----
  +--> uart_init/zf_driver_uart
  +--> fifo_init/zf_common_fifo
  +--> uart_rx_interrupt/zf_driver_uart
  +--> debug_interrupr_handler/zf_common_debug

uart_init/zf_driver_uart                      1695H 169AH
  +--> uart_funciton_check/zf_driver_uart
  +--> debug_assert_handler/zf_common_debug
  +--> timer_funciton_check/zf_driver_timer
  +--> gpio_init/zf_driver_gpio
  +--> ?C?ULIDIV/?C?ULDIV
  +--> uart_dma_init/zf_driver_uart

uart_funciton_check/zf_driver_uart            ----- -----

debug_assert_handler/zf_common_debug          16D4H 16E3H
  +--> PRINTF/PRINTF
  +--> system_delay_ms/zf_driver_delay

PRINTF/PRINTF                                 16E4H 170BH
  +--> OUT/PRINTF

OUT/PRINTF                                    ----- -----
  +--> PUTCH/PRINTF

PUTCH/PRINTF                                  ----- -----
  +--> putchar/zf_common_debug
  +--> OUT/PRINTF

putchar/zf_common_debug                       ----- -----
  +--> uart_write_byte/zf_driver_uart

uart_write_byte/zf_driver_uart                170CH 170CH
  +--> uart_write_buffer/zf_driver_uart

uart_write_buffer/zf_driver_uart              ----- -----

system_delay_ms/zf_driver_delay               ----- -----

timer_funciton_check/zf_driver_timer          ----- -----

gpio_init/zf_driver_gpio                      16A5H 16A7H
  +--> debug_assert_handler/zf_common_debug
  +--> gpio_set_dir/zf_driver_gpio
  +--> gpio_set_mode/zf_driver_gpio
  +--> gpio_set_impedance/zf_driver_gpio
  +--> gpio_set_level/zf_driver_gpio

gpio_set_dir/zf_driver_gpio                   ----- -----
  +--> debug_assert_handler/zf_common_debug
L251 LINKER/LOCATER V4.66.93.0                                                        11/08/2025  20:32:40  PAGE 17



gpio_set_mode/zf_driver_gpio                  ----- -----
  +--> debug_assert_handler/zf_common_debug

gpio_set_impedance/zf_driver_gpio             ----- -----
  +--> debug_assert_handler/zf_common_debug

gpio_set_level/zf_driver_gpio                 ----- -----
  +--> debug_assert_handler/zf_common_debug

uart_dma_init/zf_driver_uart                  ----- -----

fifo_init/zf_common_fifo                      1695H 169EH
  +--> debug_assert_handler/zf_common_debug

uart_rx_interrupt/zf_driver_uart              ----- -----

debug_interrupr_handler/zf_common_debug       1695H 1695H
  +--> uart_query_byte/zf_driver_uart
  +--> fifo_write_buffer/zf_common_fifo

uart_query_byte/zf_driver_uart                ----- -----
  +--> uart_rx_start_buff/zf_driver_uart

uart_rx_start_buff/zf_driver_uart             ----- -----

fifo_write_buffer/zf_common_fifo              1696H 16A3H
  +--> debug_assert_handler/zf_common_debug
  +--> memcpy?_/memcpy
  +--> fifo_head_offset/zf_common_fifo

memcpy?_/memcpy                               ----- -----

fifo_head_offset/zf_common_fifo               ----- -----

init_all/function                             ----- -----
  +--> system_delay_ms/zf_driver_delay
  +--> Motor_Init/function
  +--> Servo_Init/function
  +--> interrupt_set_priority/zf_common_interrupt
  +--> Buzzer_Init/Buzzer
  +--> Buzzer_OFF/Buzzer
  +--> enconder_init/function
  +--> imu963ra_init/zf_device_imu963ra
  +--> ADC_GetInit/ADC_Get
  +--> tft180_init/zf_device_tft180
  +--> tft180_set_color/zf_device_tft180
  +--> menu_Init/menu
  +--> ?C?SLDIV/?C?SLDIV
  +--> pit_init/zf_driver_pit

Motor_Init/function                           ----- -----
  +--> pwm_init/zf_driver_pwm

pwm_init/zf_driver_pwm                        1695H 16A2H
  +--> debug_assert_handler/zf_common_debug
  +--> gpio_init/zf_driver_gpio
  +--> ?C?ULIDIV/?C?ULDIV

Servo_Init/function                           ----- -----
  +--> pwm_init/zf_driver_pwm

interrupt_set_priority/zf_common_interru+     ----- -----
... pt

L251 LINKER/LOCATER V4.66.93.0                                                        11/08/2025  20:32:40  PAGE 18


Buzzer_Init/Buzzer                            ----- -----
  +--> gpio_init/zf_driver_gpio

Buzzer_OFF/Buzzer                             ----- -----
  +--> gpio_set_level/zf_driver_gpio

enconder_init/function                        ----- -----
  +--> encoder_dir_init/zf_driver_encoder

encoder_dir_init/zf_driver_encoder            1695H 1696H
  +--> timer_funciton_check/zf_driver_timer
  +--> debug_assert_handler/zf_common_debug
  +--> gpio_init/zf_driver_gpio

imu963ra_init/zf_device_imu963ra              ----- -----
  +--> system_delay_ms/zf_driver_delay
  +--> imu963ra_write_acc_gyro_register/zf_device_imu963ra
  +--> imu963ra_acc_gyro_self_check/zf_device_imu963ra
  +--> PRINTF/PRINTF
  +--> imu963ra_write_mag_register/zf_device_imu963ra
  +--> imu963ra_mag_self_check/zf_device_imu963ra
  +--> imu963ra_connect_mag/zf_device_imu963ra

imu963ra_write_acc_gyro_register/zf_devi+     ----- -----
... ce_imu963ra
  +--> imu963ra_simspi_w_reg_byte/zf_device_imu963ra

imu963ra_simspi_w_reg_byte/zf_device_imu+     ----- -----
... 963ra
  +--> imu963ra_simspi_wr_byte/zf_device_imu963ra

imu963ra_simspi_wr_byte/zf_device_imu963+     ----- -----
... ra

imu963ra_acc_gyro_self_check/zf_device_i+     ----- -----
... mu963ra
  +--> imu963ra_read_acc_gyro_register/zf_device_imu963ra
  +--> PRINTF/PRINTF
  +--> system_delay_ms/zf_driver_delay

imu963ra_read_acc_gyro_register/zf_devic+     1697H 1697H
... e_imu963ra
  +--> imu963ra_simspi_r_reg_byte/zf_device_imu963ra

imu963ra_simspi_r_reg_byte/zf_device_imu+     ----- -----
... 963ra
  +--> imu963ra_simspi_wr_byte/zf_device_imu963ra

imu963ra_write_mag_register/zf_device_im+     1695H 1696H
... u963ra
  +--> imu963ra_write_acc_gyro_register/zf_device_imu963ra
  +--> system_delay_ms/zf_driver_delay
  +--> imu963ra_read_acc_gyro_register/zf_device_imu963ra

imu963ra_mag_self_check/zf_device_imu963+     ----- -----
... ra
  +--> imu963ra_read_mag_register/zf_device_imu963ra
  +--> system_delay_ms/zf_driver_delay

imu963ra_read_mag_register/zf_device_imu+     ----- -----
... 963ra
  +--> imu963ra_write_acc_gyro_register/zf_device_imu963ra
  +--> system_delay_ms/zf_driver_delay
  +--> imu963ra_read_acc_gyro_register/zf_device_imu963ra

L251 LINKER/LOCATER V4.66.93.0                                                        11/08/2025  20:32:40  PAGE 19


imu963ra_connect_mag/zf_device_imu963ra       ----- -----
  +--> imu963ra_write_acc_gyro_register/zf_device_imu963ra

ADC_GetInit/ADC_Get                           ----- -----
  +--> adc_init/zf_driver_adc

adc_init/zf_driver_adc                        ----- -----

tft180_init/zf_device_tft180                  ----- -----
  +--> spi_init/zf_driver_spi
  +--> tft180_set_dir/zf_device_tft180
  +--> tft180_set_color/zf_device_tft180
  +--> system_delay_ms/zf_driver_delay
  +--> tft180_write_index/zf_device_tft180
  +--> spi_write_8bit/zf_driver_spi
  +--> tft180_clear/zf_device_tft180

spi_init/zf_driver_spi                        1695H 16A4H
  +--> debug_assert_handler/zf_common_debug
  +--> gpio_init/zf_driver_gpio
  +--> gpio_set_level_speed/zf_driver_gpio
  +--> ?C?ULIDIV/?C?ULDIV
  +--> uart_funciton_check/zf_driver_uart

gpio_set_level_speed/zf_driver_gpio           ----- -----
  +--> debug_assert_handler/zf_common_debug

tft180_set_dir/zf_device_tft180               ----- -----

tft180_set_color/zf_device_tft180             ----- -----

tft180_write_index/zf_device_tft180           ----- -----
  +--> spi_write_8bit/zf_driver_spi

spi_write_8bit/zf_driver_spi                  ----- -----
  +--> spi_write_dat/zf_driver_spi

spi_write_dat/zf_driver_spi                   ----- -----
  +--> debug_assert_handler/zf_common_debug

tft180_clear/zf_device_tft180                 1695H 1698H
  +--> tft180_set_region/zf_device_tft180
  +--> spi_write_16bit/zf_driver_spi

tft180_set_region/zf_device_tft180            16D0H 16D3H
  +--> debug_assert_handler/zf_common_debug
  +--> tft180_write_index/zf_device_tft180
  +--> spi_write_16bit/zf_driver_spi

spi_write_16bit/zf_driver_spi                 ----- -----
  +--> spi_write_dat/zf_driver_spi

menu_Init/menu                                ----- -----
  +--> Menu_SetChildren/menu
  +--> Refesh_arrow/menu
  +--> menu_display_content/menu
  +--> Show_bujin/menu

Menu_SetChildren/menu                         ----- -----

Refesh_arrow/menu                             ----- -----
  +--> tft180_show_string/zf_device_tft180

tft180_show_string/zf_device_tft180           16C6H 16CBH
  +--> debug_assert_handler/zf_common_debug
L251 LINKER/LOCATER V4.66.93.0                                                        11/08/2025  20:32:40  PAGE 20


  +--> tft180_show_char/zf_device_tft180

tft180_show_char/zf_device_tft180             16CCH 16CFH
  +--> debug_assert_handler/zf_common_debug
  +--> tft180_set_region/zf_device_tft180
  +--> spi_write_16bit/zf_driver_spi

menu_display_content/menu                     ----- -----
  +--> tft180_show_string/zf_device_tft180
  +--> tft180_show_float/zf_device_tft180

tft180_show_float/zf_device_tft180            1695H 16C5H
  +--> debug_assert_handler/zf_common_debug
  +--> zf_sprintf/zf_common_function
  +--> tft180_show_string/zf_device_tft180

zf_sprintf/zf_common_function                 16C6H 1728H
  +--> number_conversion_ascii/zf_common_function
  +--> printf_reverse_order/zf_common_function
  +--> memcpy?_/memcpy

number_conversion_ascii/zf_common_functi+     1729H 1729H
... on
  +--> ?C?SLDIV/?C?SLDIV
  +--> ?C?ULIDIV/?C?ULDIV

printf_reverse_order/zf_common_function       ----- -----

Show_bujin/menu                               ----- -----
  +--> tft180_show_string/zf_device_tft180

pit_init/zf_driver_pit                        ----- -----
  +--> ?C?ULIDIV/?C?ULDIV

pit_handler1/main                             ----- -----
  +--> ADC_SampleAndFilter/ADC_Get
  +--> unification/function
  +--> Servo_turn_pid/control
  +--> speed_control_ring/function
  +--> if_Cycle/Strategy
  +--> Servo_Control/function
  +--> Speed_diff/control
  +--> imu963ra_get_gyro/zf_device_imu963ra
  +--> Inertial_Navigation/Strategy
  +--> Speed_Control/function
  +--> Half_State_of_road/Strategy
  +--> State_of_road/Strategy
  +--> Protect/function
  +--> Key_scaner/Key
  +--> Show_pararm/function

ADC_SampleAndFilter/ADC_Get                   ----- -----
  +--> adc_convert/zf_driver_adc
  +--> adc_filter/ADC_Get

adc_convert/zf_driver_adc                     ----- -----

adc_filter/ADC_Get                            ----- -----
  +--> ?C?ULIDIV/?C?ULDIV

unification/function                          1695H 169AH
  +--> fast_sqrt/function

fast_sqrt/function                            169BH 16A2H
  +--> memcpy?_/memcpy
L251 LINKER/LOCATER V4.66.93.0                                                        11/08/2025  20:32:40  PAGE 21



Servo_turn_pid/control                        ----- -----

speed_control_ring/function                   ----- -----
  +--> encoder_get_count/zf_driver_encoder
  +--> encoder_clear_count/zf_driver_encoder

encoder_get_count/zf_driver_encoder           ----- -----
  +--> gpio_get_level/zf_driver_gpio

gpio_get_level/zf_driver_gpio                 ----- -----
  +--> debug_assert_handler/zf_common_debug

encoder_clear_count/zf_driver_encoder         ----- -----

if_Cycle/Strategy                             ----- -----
  +--> Buzzer_ON/Buzzer
  +--> Buzzer_OFF/Buzzer
  +--> CAR_STOP/function

Buzzer_ON/Buzzer                              ----- -----
  +--> gpio_set_level/zf_driver_gpio

CAR_STOP/function                             ----- -----
  +--> MotorL_SetSpeed/control
  +--> MotorR_SetSpeed/control
  +--> Ser_Servo_Duty/control

MotorL_SetSpeed/control                       ----- -----
  +--> pwm_set_duty/zf_driver_pwm

pwm_set_duty/zf_driver_pwm                    16A1H 16ACH
  +--> debug_assert_handler/zf_common_debug

MotorR_SetSpeed/control                       ----- -----
  +--> pwm_set_duty/zf_driver_pwm

Ser_Servo_Duty/control                        ----- -----
  +--> pwm_set_duty/zf_driver_pwm

Servo_Control/function                        ----- -----
  +--> pwm_set_duty/zf_driver_pwm
  +--> Help_turn2/Strategy

Help_turn2/Strategy                           1695H 16A0H
  +--> pwm_set_duty/zf_driver_pwm

Speed_diff/control                            ----- -----

imu963ra_get_gyro/zf_device_imu963ra          1695H 169AH
  +--> imu963ra_read_acc_gyro_registers/zf_device_imu963ra

imu963ra_read_acc_gyro_registers/zf_devi+     ----- -----
... ce_imu963ra
  +--> imu963ra_simspi_r_reg_bytes/zf_device_imu963ra

imu963ra_simspi_r_reg_bytes/zf_device_im+     169BH 169EH
... u963ra
  +--> imu963ra_simspi_wr_byte/zf_device_imu963ra

Inertial_Navigation/Strategy                  ----- -----
  +--> ?C?SLDIV/?C?SLDIV
  +--> angle_Get/Strategy
  +--> PRINTF/PRINTF

L251 LINKER/LOCATER V4.66.93.0                                                        11/08/2025  20:32:40  PAGE 22


angle_Get/Strategy                            ----- -----

Speed_Control/function                        ----- -----
  +--> Motor_Left_pi_control/control
  +--> MotorL_SetSpeed/control
  +--> Motor_Right_pi_control/control
  +--> MotorR_SetSpeed/control

Motor_Left_pi_control/control                 ----- -----

Motor_Right_pi_control/control                ----- -----

Half_State_of_road/Strategy                   ----- -----
  +--> ?C?SLDIV/?C?SLDIV
  +--> Buzzer_ON/Buzzer
  +--> Motor_Update_Smooth/control
  +--> Buzzer_OFF/Buzzer
  +--> PRINTF/PRINTF
  +--> Speed_Control/function

Motor_Update_Smooth/control                   ----- -----
  +--> Motor_Update/control

Motor_Update/control                          ----- -----
  +--> Motor_Left_pi_control/control
  +--> MotorL_SetSpeed/control
  +--> Motor_Right_pi_control/control
  +--> MotorR_SetSpeed/control

State_of_road/Strategy                        ----- -----
  +--> Motor_Update_Smooth/control
  +--> Buzzer_ON/Buzzer
  +--> Buzzer_OFF/Buzzer
  +--> Motor_Update/control
  +--> CAR_STOP/function

Protect/function                              ----- -----

Key_scaner/Key                                ----- -----
  +--> Key_Number/Key
  +--> Turn_mode/Key

Key_Number/Key                                ----- -----
  +--> gpio_get_level/zf_driver_gpio

Turn_mode/Key                                 ----- -----

Show_pararm/function                          ----- -----
  +--> tft180_show_string/zf_device_tft180
  +--> tft180_show_float/zf_device_tft180
  +--> unification/function
  +--> tft180_show_int16/zf_device_tft180

tft180_show_int16/zf_device_tft180            1695H 169CH
  +--> debug_assert_handler/zf_common_debug
  +--> tft180_show_char/zf_device_tft180

GO_Function/function                          ----- -----
  +--> Turn_mode_Init/function

Turn_mode_Init/function                       ----- -----
  +--> CAR_STOP/function
  +--> Buzzer_OFF/Buzzer
  +--> show_test_info/function
  +--> Refesh_arrow/menu
L251 LINKER/LOCATER V4.66.93.0                                                        11/08/2025  20:32:40  PAGE 23


  +--> menu_display_content/menu
  +--> Show_bujin/menu
  +--> PID_Update/control
  +--> Cycle_Update/control

show_test_info/function                       ----- -----
  +--> tft180_clear/zf_device_tft180
  +--> system_delay_ms/zf_driver_delay
  +--> tft180_show_string/zf_device_tft180

PID_Update/control                            ----- -----

Cycle_Update/control                          ----- -----

menu_handle_key/menu                          ----- -----
  +--> handle_key1/menu
  +--> handle_key2/menu
  +--> handle_key3/menu
  +--> handle_key4/menu
  +--> handle_key5/menu

handle_key1/menu                              ----- -----
  +--> tft180_show_string/zf_device_tft180
  +--> tft180_clear/zf_device_tft180
  +--> menu_display_content/menu
  +--> Refesh_arrow/menu

handle_key2/menu                              ----- -----
  +--> Show_bujin/menu

handle_key3/menu                              ----- -----
  +--> Show_bujin/menu

handle_key4/menu                              ----- -----
  +--> menu_display_content/menu
  +--> tft180_show_string/zf_device_tft180
  +--> tft180_clear/zf_device_tft180
  +--> Refesh_arrow/menu

handle_key5/menu                              ----- -----
  +--> Key3_handle1/menu
  +--> Key3_handle2/menu

Key3_handle1/menu                             ----- -----
  +--> Refesh_arrow/menu

Key3_handle2/menu                             ----- -----
  +--> show_all_menu/menu
  +--> Refesh_arrow/menu

show_all_menu/menu                            ----- -----
  +--> tft180_clear/zf_device_tft180
  +--> Refesh_arrow/menu
  +--> menu_display_content/menu
  +--> Show_bujin/menu

PWM_Test/Device_Test                          ----- -----
  +--> MotorL_SetSpeed/control
  +--> MotorR_SetSpeed/control

Serve_Test/Device_Test                        ----- -----
  +--> Ser_Servo_Duty/control
  +--> system_delay_ms/zf_driver_delay

Set_Sevo/Device_Test                          ----- -----
L251 LINKER/LOCATER V4.66.93.0                                                        11/08/2025  20:32:40  PAGE 24


  +--> Ser_Servo_Duty/control

SPRINTF/SPRINTF                               1695H 16BCH
  +--> OUT/SPRINTF

OUT/SPRINTF                                   ----- -----
  +--> PUTCH/SPRINTF

PUTCH/SPRINTF                                 ----- -----

*** NEW ROOT ********************************

TM11_IRQHandler/isr                           ----- -----

*** NEW ROOT ********************************

DMA_UART1_IRQHandler/isr                      ----- -----
  +--> uart_rx_start_buff/zf_driver_uart

*** NEW ROOT ********************************

DMA_UART2_IRQHandler/isr                      ----- -----
  +--> uart_rx_start_buff/zf_driver_uart

*** NEW ROOT ********************************

DMA_UART3_IRQHandler/isr                      ----- -----
  +--> uart_rx_start_buff/zf_driver_uart

*** NEW ROOT ********************************

DMA_UART4_IRQHandler/isr                      ----- -----
  +--> uart_rx_start_buff/zf_driver_uart

*** NEW ROOT ********************************

TM0_IRQHandler/isr                            ----- -----

*** NEW ROOT ********************************

TM1_IRQHandler/isr                            ----- -----

*** NEW ROOT ********************************

TM2_IRQHandler/isr                            ----- -----

*** NEW ROOT ********************************

TM3_IRQHandler/isr                            ----- -----

*** NEW ROOT ********************************

TM4_IRQHandler/isr                            ----- -----

*** NEW ROOT ********************************

?C_C51STARTUP?1                               ----- -----

*** NEW ROOT ********************************

?C_C51STARTUP?2                               ----- -----



PUBLIC SYMBOLS OF MODULE:  .\out_file\SEEKFREE (ai8051u_isr)
L251 LINKER/LOCATER V4.66.93.0                                                        11/08/2025  20:32:40  PAGE 25




      VALUE       CLASS    TYPE      PUBLIC SYMBOL NAME
      =================================================
      00FF3919H   CODE     ---       ?C?BMOVEPP
      00FF3917H   CODE     ---       ?C?BMOVEPP8
      00FF259FH   CODE     NEAR LAB  ?C?CASTD
      00FF3807H   CODE     NEAR LAB  ?C?CASTF
      000000FFH   NUMBER   ---       ?C?CODESEG
      00FF255CH   CODE     NEAR LAB  ?C?DCASTC
      00FF25FFH   CODE     NEAR LAB  ?C?DCASTF
      00FF2557H   CODE     NEAR LAB  ?C?DCASTI
      00FF2552H   CODE     NEAR LAB  ?C?DCASTL
      00FF2FD3H   CODE     ---       ?C?DP2SERIES
      00FF2225H   CODE     ---       ?C?DPADD
      00FF24E5H   CODE     ---       ?C?DPCMP
      00FF24E3H   CODE     ---       ?C?DPCMP3
      00FF32BEH   CODE     ---       ?C?DPCONVERT
      00FF2444H   CODE     ---       ?C?DPDIV
      00FF2AF5H   CODE     ---       ?C?DPGETOPN2
      00FF2334H   CODE     ---       ?C?DPMUL
      00FF2B40H   CODE     ---       ?C?DPNANRESULT
      00FF2544H   CODE     ---       ?C?DPNEG
      00FF2B4CH   CODE     ---       ?C?DPOVERFLOW
      00FF2B18H   CODE     ---       ?C?DPRESULT
      00FF2B31H   CODE     ---       ?C?DPRESULT2
      00FF33E5H   CODE     ---       ?C?DPROUND
      00FF2FDEH   CODE     ---       ?C?DPSERIES
      00FF2221H   CODE     ---       ?C?DPSUB
      00FF2B47H   CODE     ---       ?C?DPUNDERFLOW
      00FF34C0H   CODE     ---       ?C?DTNPWR
      00FF37D4H   CODE     NEAR LAB  ?C?FCASTC
      00FF2641H   CODE     NEAR LAB  ?C?FCASTD
      00FF37CFH   CODE     NEAR LAB  ?C?FCASTI
      00FF37CAH   CODE     NEAR LAB  ?C?FCASTL
      00FF359DH   CODE     ---       ?C?FPADD
      00FF3778H   CODE     ---       ?C?FPCMP
      00FF3776H   CODE     ---       ?C?FPCMP3
      00FF36F5H   CODE     ---       ?C?FPDIV
      00FF3546H   CODE     ---       ?C?FPGETOPN2
      00FF3655H   CODE     ---       ?C?FPMUL
      00FF3583H   CODE     ---       ?C?FPNANRESULT
      00FF37BCH   CODE     ---       ?C?FPNEG
      00FF358BH   CODE     ---       ?C?FPOVERFLOW
      00FF355FH   CODE     ---       ?C?FPRESULT
      00FF3575H   CODE     ---       ?C?FPRESULT2
      00FF359AH   CODE     ---       ?C?FPSUB
      00FF3588H   CODE     ---       ?C?FPUNDERFLOW
      00FFBEFFH   CODE     ---       ?C?INITHDATA
      00FFE0ECH   HCONST   WORD      ?C?INITHDATA_END
      00FF3887H   CODE     ---       ?C?LIMUL
      00FF3876H   CODE     ---       ?C?LMUL
      00FF2BA5H   CODE     ---       ?C?PRNFMT
      00FF3844H   CODE     ---       ?C?SIDIV
      00FF38E3H   CODE     NEAR LAB  ?C?SLDIV
      00FF0000H   CODE     ---       ?C?STARTUP
      00FF3892H   CODE     NEAR LAB  ?C?ULDIV
      00FF3890H   CODE     NEAR LAB  ?C?ULIDIV
      00000001H   NUMBER   ---       ?C?XDATASEG
      00FF0000H   CODE     ---       ?C_STARTUP
      00011691H   XDATA    BYTE      ?fifo_init?BYTE
*DEL*:1FFFFFFCH   XDATA    BYTE      ?fifo_read_buffer?BYTE
      00011692H   XDATA    BYTE      ?fifo_write_buffer?BYTE
*DEL*:1FFFFFFCH   XDATA    BYTE      ?func_double_to_str?BYTE
*DEL*:00000000H   XDATA    BYTE      ?get_two_points_azimuth?BYTE
L251 LINKER/LOCATER V4.66.93.0                                                        11/08/2025  20:32:40  PAGE 26


*DEL*:00000000H   XDATA    BYTE      ?get_two_points_distance?BYTE
*DEL*:1FFFFFF8H   XDATA    BYTE      ?Help_turn3?BYTE
*DEL*:1FFFFFF8H   XDATA    BYTE      ?Help_turn_Two?BYTE
*DEL*:1FFFFFFCH   XDATA    BYTE      ?iap_read_buff?BYTE
*DEL*:1FFFFFFCH   XDATA    BYTE      ?iap_write_buff?BYTE
*DEL*:1FFFFFFCH   XDATA    BYTE      ?ips114_show_chinese?BYTE
*DEL*:1FFFFFFEH   XDATA    BYTE      ?ips114_show_float?BYTE
*DEL*:1FFFFFFCH   XDATA    BYTE      ?ips114_show_wave?BYTE
*DEL*:1FFFFFFCH   XDATA    BYTE      ?ips200_show_chinese?BYTE
*DEL*:1FFFFFFEH   XDATA    BYTE      ?ips200_show_float?BYTE
*DEL*:1FFFFFFCH   XDATA    BYTE      ?ips200_show_wave?BYTE
*DEL*:1FFFFFF8H   XDATA    BYTE      ?Normal_PID?BYTE
      0001170CH   XDATA    ---       ?printf?BYTE
      00011693H   XDATA    BYTE      ?pwm_init?BYTE
*DEL*:1FFFFFFEH   XDATA    BYTE      ?pwm_set_freq?BYTE
*DEL*:1FFFFFF8H   XDATA    BYTE      ?seekfree_assistant_camera_boundary_config?BYTE
*DEL*:1FFFFFFBH   XDATA    BYTE      ?seekfree_assistant_camera_data_send?BYTE
*DEL*:1FFFFFF8H   XDATA    BYTE      ?seekfree_assistant_camera_information_config?BYTE
*DEL*:1FFFFFFCH   XDATA    BYTE      ?soft_iic_init?BYTE
*DEL*:1FFFFFFCH   XDATA    BYTE      ?soft_iic_read_16bit_array?BYTE
*DEL*:1FFFFFFCH   XDATA    BYTE      ?soft_iic_read_16bit_registers?BYTE
*DEL*:1FFFFFFCH   XDATA    BYTE      ?soft_iic_read_8bit_array?BYTE
*DEL*:1FFFFFFCH   XDATA    BYTE      ?soft_iic_read_8bit_registers?BYTE
*DEL*:1FFFFFFCH   XDATA    BYTE      ?soft_iic_transfer_16bit_array?BYTE
*DEL*:1FFFFFFCH   XDATA    BYTE      ?soft_iic_transfer_8bit_array?BYTE
*DEL*:1FFFFFFCH   XDATA    BYTE      ?soft_iic_write_16bit_array?BYTE
*DEL*:1FFFFFFCH   XDATA    BYTE      ?soft_iic_write_16bit_registers?BYTE
*DEL*:1FFFFFFCH   XDATA    BYTE      ?soft_iic_write_8bit_array?BYTE
*DEL*:1FFFFFFCH   XDATA    BYTE      ?soft_iic_write_8bit_registers?BYTE
*DEL*:1FFFFFFCH   XDATA    BYTE      ?soft_spi_init?BYTE
*DEL*:1FFFFFFCH   XDATA    BYTE      ?soft_spi_read_16bit_array?BYTE
*DEL*:1FFFFFFCH   XDATA    BYTE      ?soft_spi_read_16bit_registers?BYTE
*DEL*:1FFFFFFCH   XDATA    BYTE      ?soft_spi_read_8bit_array?BYTE
*DEL*:1FFFFFFCH   XDATA    BYTE      ?soft_spi_read_8bit_registers?BYTE
*DEL*:1FFFFFFCH   XDATA    BYTE      ?soft_spi_transfer_16bit?BYTE
*DEL*:1FFFFFFCH   XDATA    BYTE      ?soft_spi_transfer_8bit?BYTE
*DEL*:1FFFFFFCH   XDATA    BYTE      ?soft_spi_write_16bit_array?BYTE
*DEL*:1FFFFFFCH   XDATA    BYTE      ?soft_spi_write_16bit_registers?BYTE
*DEL*:1FFFFFFCH   XDATA    BYTE      ?soft_spi_write_8bit_array?BYTE
*DEL*:1FFFFFFCH   XDATA    BYTE      ?soft_spi_write_8bit_registers?BYTE
      00011691H   XDATA    BYTE      ?spi_init?BYTE
*DEL*:1FFFFFFCH   XDATA    BYTE      ?spi_read_16bit_array?BYTE
*DEL*:1FFFFFFCH   XDATA    BYTE      ?spi_read_16bit_registers?BYTE
*DEL*:1FFFFFFCH   XDATA    BYTE      ?spi_read_8bit_array?BYTE
*DEL*:1FFFFFFBH   XDATA    BYTE      ?spi_read_8bit_registers?BYTE
*DEL*:1FFFFFFCH   XDATA    BYTE      ?spi_transfer_16bit?BYTE
*DEL*:1FFFFFFCH   XDATA    BYTE      ?spi_transfer_8bit?BYTE
*DEL*:1FFFFFFCH   XDATA    BYTE      ?spi_write_16bit_array?BYTE
*DEL*:1FFFFFFCH   XDATA    BYTE      ?spi_write_16bit_registers?BYTE
*DEL*:1FFFFFFCH   XDATA    BYTE      ?spi_write_8bit_array?BYTE
*DEL*:1FFFFFFBH   XDATA    BYTE      ?spi_write_8bit_registers?BYTE
      000116BDH   XDATA    ---       ?sprintf?BYTE
      00011693H   XDATA    BYTE      ?tft180_show_float?BYTE
*DEL*:1FFFFFFCH   XDATA    BYTE      ?tft180_show_wave?BYTE
      00011691H   XDATA    BYTE      ?uart_init?BYTE
      000116EEH   XDATA    BYTE      ?zf_sprintf?BYTE
      00FF2B5AH   CODE     ---       _chkdouble_?_
      00FF976DH   CODE     ---       _m
*SFR* 000000D0H.6 DATA     BIT       AC
*SFR* 000000E0H   DATA     BYTE      ACC
      00010E3FH   XDATA    WORD      Accel_Time
      00010FDDH   XDATA    BYTE      Acclerate_Flag
      00010AD5H   XDATA    WORD      ADC_1
      00010AD7H   XDATA    WORD      ADC_2
      00010AD9H   XDATA    WORD      ADC_3
L251 LINKER/LOCATER V4.66.93.0                                                        11/08/2025  20:32:40  PAGE 27


      00010ADBH   XDATA    WORD      ADC_4
      00010ADDH   XDATA    WORD      ADC_5
      00010ADFH   XDATA    WORD      ADC_6
      00010AFDH   XDATA    WORD      ADC_8
*SFR* 000000BCH   DATA     BYTE      ADC_CONTR
      00FFC6DDH   CODE     ---       adc_convert
      00FFAF50H   CODE     ---       adc_filter
      00FFC769H   CODE     ---       ADC_GetInit
      00FFB781H   CODE     ---       adc_init
*DEL*:00000000H   CODE     ---       adc_mean_filter_convert
      00011859H   XDATA    ---       ADC_Num
*SFR* 000000BDH   DATA     BYTE      ADC_RES
*SFR* 000000BEH   DATA     BYTE      ADC_RESL
      00FFA2D3H   CODE     ---       ADC_SampleAndFilter
      00011603H   XDATA    BYTE      ADC_Show_Flag
*SFR* 000000DEH   DATA     BYTE      ADCCFG
      00010E46H   XDATA    ---       All_angle_Data
      00010E3AH   XDATA    LONG      all_road
      00010B9BH   XDATA    ---       All_road_Data
      00010B37H   XDATA    ---       All_road_Flag
      00010DAEH   XDATA    FLOAT     angle
      00010FDEH   XDATA    FLOAT     angle_buffer
      00FFBE7FH   CODE     ---       angle_Get
      00FF3940H   CODE     ---       asc2_0806
      00FF3B68H   CODE     ---       asc2_1608
      00FF4E35H   CODE     ---       ascii_font_8x16
      00FF2ACBH   CODE     ---       asin?_
      00FF29B0H   CODE     ---       atan?_
*SFR* 000000EFH   DATA     BYTE      AUXINTIF
*SFR* 0000008EH   DATA     BYTE      AUXR
*SFR* 00000097H   DATA     BYTE      AUXR2
*SFR* 000000F0H   DATA     BYTE      B
*DEL*:00000000H   CODE     ---       battery_get
      00000020H.0 BIT      BIT       Battery_Init
      00010FE2H   XDATA    WORD      Bend_Time
*DEL*:00000000H   CODE     ---       ble6a20_callback
*DEL*:00000000H   CODE     ---       ble6a20_init
*DEL*:00000000H   CODE     ---       ble6a20_read_buffer
*DEL*:00000000H   CODE     ---       ble6a20_send_buffer
*DEL*:00000000H   CODE     ---       ble6a20_send_byte
*DEL*:00000000H   CODE     ---       ble6a20_send_string
      00011907H   XDATA    FLOAT     bujin
      00FFC948H   CODE     ---       Buzzer_Init
      00FFC989H   CODE     ---       Buzzer_OFF
      00FF01BEH   CODE     ---       Buzzer_ON
*SFR* 000000C8H.1 DATA     BIT       C_T2
      000118B3H   XDATA    BYTE      CAR_Mode
      00FFC925H   CODE     ---       CAR_STOP
*SFR* 000000FAH   DATA     BYTE      CCAP0H
*SFR* 000000EAH   DATA     BYTE      CCAP0L
*SFR* 000000FBH   DATA     BYTE      CCAP1H
*SFR* 000000EBH   DATA     BYTE      CCAP1L
*SFR* 000000FCH   DATA     BYTE      CCAP2H
*SFR* 000000ECH   DATA     BYTE      CCAP2L
*SFR* 000000FDH   DATA     BYTE      CCAP3H
*SFR* 000000EDH   DATA     BYTE      CCAP3L
*SFR* 000000FEH   DATA     BYTE      CCAP4H
*SFR* 000000EEH   DATA     BYTE      CCAP4L
*SFR* 000000DAH   DATA     BYTE      CCAPM0
*SFR* 000000DBH   DATA     BYTE      CCAPM1
*SFR* 000000DCH   DATA     BYTE      CCAPM2
*SFR* 000000DDH   DATA     BYTE      CCAPM3
*SFR* 000000DEH   DATA     BYTE      CCAPM4
*SFR* 000000D8H.0 DATA     BIT       CCF0
*SFR* 000000D8H.1 DATA     BIT       CCF1
L251 LINKER/LOCATER V4.66.93.0                                                        11/08/2025  20:32:40  PAGE 28


*SFR* 000000D8H.2 DATA     BIT       CCF2
*SFR* 000000D8H.3 DATA     BIT       CCF3
*SFR* 000000D8H.4 DATA     BIT       CCF4
*SFR* 000000D8H   DATA     BYTE      CCON
*SFR* 00000090H.3 DATA     BIT       CEX0
*SFR* 00000090H.4 DATA     BIT       CEX1
*SFR* 00000090H.5 DATA     BIT       CEX2
*SFR* 00000090H.6 DATA     BIT       CEX3
*SFR* 00000090H.7 DATA     BIT       CEX4
*SFR* 000000D8H.7 DATA     BIT       CF
*SFR* 000000F9H   DATA     BYTE      CH
*SFR* 000000EAH   DATA     BYTE      CKCON
*SFR* 000000E9H   DATA     BYTE      CL
      00FFA494H   CODE     ---       clock_init
*SFR* 000000D9H   DATA     BYTE      CMOD
*SFR* 000000E6H   DATA     BYTE      CMPCR1
*SFR* 000000E7H   DATA     BYTE      CMPCR2
      00010E36H   XDATA    WORD      Continue_Time
      00FF2818H   CODE     ---       cos?_
*SFR* 000000C8H.0 DATA     BIT       CP_RL2
*SFR* 000000D8H.6 DATA     BIT       CR
      000118ABH   XDATA    FLOAT     Current_dajiao
      000118F0H   XDATA    INT       current_delta_angle
      000118AFH   XDATA    FLOAT     Current_Speed
*SFR* 000000D0H.7 DATA     BIT       CY
      00010FE5H   XDATA    BYTE      Cycle_Stat
      00FF9178H   CODE     ---       Cycle_Update
      000118B4H   XDATA    FLOAT     d_range
      00011666H   XDATA    INT       dajiao
      00FFBBCCH   CODE     ---       debug_assert_handler
      00FFB1E6H   CODE     ---       debug_init
      00FFC5CCH   CODE     ---       debug_interrupr_handler
*DEL*:00000000H   CODE     ---       debug_read_buffer
*DEL*:00000000H   CODE     ---       debug_send_buffer
      0001172AH   XDATA    ---       debug_uart_buffer
      0001176BH   XDATA    ---       debug_uart_fifo
*DEL*:00000000H   CODE     ---       delay_ms
      0001105EH   XDATA    FLOAT     delta_angle
      000118ECH   XDATA    FLOAT     delta_angle_buffer
      000118F2H   XDATA    INT       delta_Speed
      00011902H   XDATA    WORD      dl1a_distance_mm
      00011904H   XDATA    BYTE      dl1a_finsh_flag
*DEL*:00000000H   CODE     ---       dl1a_get_distance
*DEL*:00000000H   CODE     ---       dl1a_init
*DEL*:00000000H   CODE     ---       dl1a_int_handler
      00FFB141H   CODE     ---       DMA_UART1_IRQHandler
      00FFB5E6H   CODE     ---       DMA_UART2_IRQHandler
      00FFB66FH   CODE     ---       DMA_UART3_IRQHandler
      00FFB6F8H   CODE     ---       DMA_UART4_IRQHandler
*SFR* 00000083H   DATA     BYTE      DPH
*SFR* 00000082H   DATA     BYTE      DPL
*SFR* 00000084H   DATA     BYTE      DPXL
*SFR* 000000A8H.7 DATA     BIT       EA
*SFR* 000000A8H.6 DATA     BIT       EC
*SFR* 00000090H.2 DATA     BIT       ECI
*DEL*:00000000H   CODE     ---       eeprom_read_float
*DEL*:00000000H   CODE     ---       eeprom_read_Num
*DEL*:00000000H   CODE     ---       eeprom_save_float
*DEL*:00000000H   CODE     ---       eeprom_save_Num
*DEL*:00000000H   CODE     ---       eeprom_trig
      000118F4H   XDATA    LONG      encoder
      00FFB27DH   CODE     ---       encoder_clear_count
      000115FDH   XDATA    INT       encoder_data_dir_1
      000115FFH   XDATA    INT       encoder_data_dir_2
      00FF9FE6H   CODE     ---       encoder_dir_init
L251 LINKER/LOCATER V4.66.93.0                                                        11/08/2025  20:32:40  PAGE 29


      00FFB09CH   CODE     ---       encoder_get_count
      00FF0026H   CODE     ---       enconder_init
      00010E3EH   XDATA    BYTE      Enter_Flag_Left
      00010DB2H   XDATA    WORD      Entern_Continue_Time
      00010E34H   XDATA    WORD      Entern_Delay_Time
      00010E38H   XDATA    WORD      Entern_Flag_Time
*SFR* 000000A8H.4 DATA     BIT       ES
*SFR* 000000A8H.1 DATA     BIT       ET0
*SFR* 000000A8H.3 DATA     BIT       ET1
*SFR* 000000A8H.5 DATA     BIT       ET2
*SFR* 000000A8H.0 DATA     BIT       EX0
*SFR* 000000A8H.2 DATA     BIT       EX1
*SFR* 000000C8H.3 DATA     BIT       EXEN2
*SFR* 000000C8H.6 DATA     BIT       EXF2
      00FF30BAH   CODE     ---       exp?_
*DEL*:00000000H   CODE     ---       extern_iap_write_buff
*SFR* 000000D0H.5 DATA     BIT       F0
      00FFAD48H   CODE     ---       fast_sqrt
*SFR* 00000098H.7 DATA     BIT       FE
*DEL*:00000000H   CODE     ---       fifo_clear
      00FFB88CH   CODE     ---       fifo_init
*DEL*:00000000H   CODE     ---       fifo_read_buffer
*DEL*:00000000H   CODE     ---       fifo_used
      00FF6C84H   CODE     ---       fifo_write_buffer
      00011867H   XDATA    ---       filtered_adc
      00011912H   XDATA    CHAR      Flag
*DEL*:00000000H   CODE     ---       func_double_to_str
*DEL*:00000000H   CODE     ---       func_float_to_str
*DEL*:00000000H   CODE     ---       func_get_greatest_common_divisor
*DEL*:00000000H   CODE     ---       func_hex_to_str
*DEL*:00000000H   CODE     ---       func_int_to_str
*DEL*:00000000H   CODE     ---       func_soft_delay
*DEL*:00000000H   CODE     ---       func_str_to_double
*DEL*:00000000H   CODE     ---       func_str_to_float
*DEL*:00000000H   CODE     ---       func_str_to_hex
*DEL*:00000000H   CODE     ---       func_str_to_int
*DEL*:00000000H   CODE     ---       func_str_to_uint
*DEL*:00000000H   CODE     ---       func_uint_to_str
*DEL*:00000000H   CODE     ---       get_two_points_azimuth
*DEL*:00000000H   CODE     ---       get_two_points_distance
      00FFC979H   CODE     ---       GO_Function
      00011601H   XDATA    BYTE      GO_PID_Control
      00011604H   XDATA    BYTE      GO_PID_Control1
      00011605H   XDATA    BYTE      GO_PID_Control2
      00011632H   XDATA    BYTE      GO_PID_Control3
      00FF00C6H   CODE     ---       gpio_get_level
      00FFAA63H   CODE     ---       gpio_init
      00FF99FCH   CODE     ---       gpio_set_impedance
      00FF94A8H   CODE     ---       gpio_set_level
      00FF80A8H   CODE     ---       gpio_set_level_speed
*DEL*:00000000H   CODE     ---       gpio_toggle_level
*DEL*:00000000H   CODE     ---       gps_data_parse
      000114B9H   XDATA    INT       gps_gga_state
*DEL*:00000000H   CODE     ---       gps_init
      000114BBH   XDATA    INT       gps_rmc_state
      00011385H   XDATA    ---       gps_tau1201
      00011304H   XDATA    BYTE      gps_tau1201_flag
      0001195AH   XDATA    INT       gps_type
*DEL*:00000000H   CODE     ---       gps_uart_callback
      000110DAH   XDATA    BYTE      Guan_Dao_Show_Item
      00010FE4H   XDATA    BYTE      Guan_Slow_Flag
      00010DA9H   XDATA    INT       Guan_Slow_Time
      00FF67E0H   CODE     ---       Half_State_of_road
      00FFA572H   CODE     ---       handle_key1
      00FFC31AH   CODE     ---       handle_key2
L251 LINKER/LOCATER V4.66.93.0                                                        11/08/2025  20:32:40  PAGE 30


      00FFC086H   CODE     ---       handle_key3
      00FFA99CH   CODE     ---       handle_key4
      00FFC89AH   CODE     ---       handle_key5
*DEL*:00000000H   CODE     ---       Help_turn
      00FF77C4H   CODE     ---       Help_turn2
*DEL*:00000000H   CODE     ---       Help_turn3
*DEL*:00000000H   CODE     ---       Help_turn_Two
      00FF4158H   CODE     ---       Hzk
      0001190EH   XDATA    CHAR      i
*SFR* 000000F6H   DATA     BYTE      IAP_ADDRE
*SFR* 000000C3H   DATA     BYTE      IAP_ADDRH
*SFR* 000000C4H   DATA     BYTE      IAP_ADDRL
*SFR* 000000C5H   DATA     BYTE      IAP_CMD
*SFR* 000000C7H   DATA     BYTE      IAP_CONTR
*SFR* 000000C2H   DATA     BYTE      IAP_DATA
*DEL*:00000000H   CODE     ---       iap_erase_page
*DEL*:00000000H   CODE     ---       iap_get_cmd_state
*DEL*:00000000H   CODE     ---       iap_idle
*DEL*:00000000H   CODE     ---       iap_init
*DEL*:00000000H   CODE     ---       iap_read_buff
*DEL*:00000000H   CODE     ---       iap_read_byte
*DEL*:00000000H   CODE     ---       iap_set_tps
*SFR* 000000F5H   DATA     BYTE      IAP_TPS
*SFR* 000000C6H   DATA     BYTE      IAP_TRIG
*DEL*:00000000H   CODE     ---       iap_write_buff
*DEL*:00000000H   CODE     ---       iap_write_byte
      000118C0H   XDATA    INT       icm20602_acc_x
      000118C2H   XDATA    INT       icm20602_acc_y
      000118C4H   XDATA    INT       icm20602_acc_z
*DEL*:00000000H   CODE     ---       icm20602_get_acc
*DEL*:00000000H   CODE     ---       icm20602_get_gyro
      000118C6H   XDATA    INT       icm20602_gyro_x
      000118C8H   XDATA    INT       icm20602_gyro_y
      000118CAH   XDATA    INT       icm20602_gyro_z
*DEL*:00000000H   CODE     ---       icm20602_init
      000118CCH   XDATA    ---       icm20602_transition_factor
*SFR* 000000A8H   DATA     BYTE      IE
*SFR* 000000A8H   DATA     BYTE      IE0
*SFR* 00000088H.1 DATA     BIT       IE0_
*SFR* 000000B1H   DATA     BYTE      IE1
*SFR* 00000088H.3 DATA     BIT       IE1_
*SFR* 000000AFH   DATA     BYTE      IE2
      00010E2CH   XDATA    WORD      if2_time
      00FFA0F2H   CODE     ---       if_Cycle
      00010E44H   XDATA    WORD      if_time
      000118D4H   XDATA    INT       imu660ra_acc_x
      000118D6H   XDATA    INT       imu660ra_acc_y
      000118D8H   XDATA    INT       imu660ra_acc_z
      00FF021EH   CODE     ---       imu660ra_config_file
*DEL*:00000000H   CODE     ---       imu660ra_get_acc
*DEL*:00000000H   CODE     ---       imu660ra_get_gyro
      000118DAH   XDATA    INT       imu660ra_gyro_x
      000118DCH   XDATA    INT       imu660ra_gyro_y
      000118DEH   XDATA    INT       imu660ra_gyro_z
*DEL*:00000000H   CODE     ---       imu660ra_init
      000118E0H   XDATA    ---       imu660ra_transition_factor
*DEL*:00000000H   CODE     ---       imu660rb_acc_transition
      0001192BH   XDATA    INT       imu660rb_acc_x
      0001192DH   XDATA    INT       imu660rb_acc_y
      0001192FH   XDATA    INT       imu660rb_acc_z
*DEL*:00000000H   CODE     ---       imu660rb_get_acc
*DEL*:00000000H   CODE     ---       imu660rb_get_gyro
*DEL*:00000000H   CODE     ---       imu660rb_gyro_transition
      00011931H   XDATA    INT       imu660rb_gyro_x
      00011933H   XDATA    INT       imu660rb_gyro_y
L251 LINKER/LOCATER V4.66.93.0                                                        11/08/2025  20:32:40  PAGE 31


      00011935H   XDATA    INT       imu660rb_gyro_z
*DEL*:00000000H   CODE     ---       imu660rb_init
      0001188DH   XDATA    INT       imu963ra_acc_x
      0001188FH   XDATA    INT       imu963ra_acc_y
      00011891H   XDATA    INT       imu963ra_acc_z
*DEL*:00000000H   CODE     ---       imu963ra_get_acc
      00FFBFE0H   CODE     ---       imu963ra_get_gyro
*DEL*:00000000H   CODE     ---       imu963ra_get_mag
      00011899H   XDATA    INT       imu963ra_gyro_x
      0001189BH   XDATA    INT       imu963ra_gyro_y
      0001189DH   XDATA    INT       imu963ra_gyro_z
      00FF7DCDH   CODE     ---       imu963ra_init
      00011893H   XDATA    INT       imu963ra_mag_x
      00011895H   XDATA    INT       imu963ra_mag_y
      00011897H   XDATA    INT       imu963ra_mag_z
      0001189FH   XDATA    ---       imu963ra_transition_factor
      00FF5E82H   CODE     ---       Inertial_Navigation
      00FFBA79H   CODE     ---       init_all
      00011602H   XDATA    BYTE      Init_Fg
      00011941H   XDATA    BYTE      Init_Flag
*SFR* 000000B0H.2 DATA     BIT       INT0
      0001187BH   XDATA    ---       int0_irq_handler
*SFR* 000000B0H.3 DATA     BIT       INT1
      0001187FH   XDATA    ---       int1_irq_handler
      00011883H   XDATA    ---       int2_irq_handler
      00011887H   XDATA    ---       int3_irq_handler
      0001188BH   XDATA    ---       int4_irq_handler
*SFR* 0000008FH   DATA     BYTE      INTCLKO
*DEL*:00000000H   CODE     ---       interrupt_global_disable
      00FF001EH   CODE     ---       interrupt_global_enable
      00FFABDAH   CODE     ---       interrupt_set_priority
*SFR* 000000B8H   DATA     BYTE      IP
*SFR* 000000B5H   DATA     BYTE      IP2
*SFR* 000000B6H   DATA     BYTE      IP2H
*SFR* 000000DFH   DATA     BYTE      IP3
*SFR* 000000EEH   DATA     BYTE      IP3H
*SFR* 000000B7H   DATA     BYTE      IPH
*SFR* 000000B7H   DATA     BYTE      IPH0
*SFR* 000000B8H   DATA     BYTE      IPL0
      00011966H   XDATA    WORD      ips114_bgcolor
*DEL*:00000000H   CODE     ---       ips114_clear
      00011968H   XDATA    INT       ips114_display_dir
*DEL*:00000000H   CODE     ---       ips114_draw_point
*DEL*:00000000H   CODE     ---       ips114_init
      00011964H   XDATA    WORD      ips114_pencolor
*DEL*:00000000H   CODE     ---       ips114_set_color
*DEL*:00000000H   CODE     ---       ips114_set_dir
*DEL*:00000000H   CODE     ---       ips114_show_char
*DEL*:00000000H   CODE     ---       ips114_show_chinese
*DEL*:00000000H   CODE     ---       ips114_show_float
*DEL*:00000000H   CODE     ---       ips114_show_int16
*DEL*:00000000H   CODE     ---       ips114_show_int32
*DEL*:00000000H   CODE     ---       ips114_show_int8
*DEL*:00000000H   CODE     ---       ips114_show_string
*DEL*:00000000H   CODE     ---       ips114_show_uint16
*DEL*:00000000H   CODE     ---       ips114_show_uint8
*DEL*:00000000H   CODE     ---       ips114_show_wave
      0001196AH   XDATA    BYTE      ips114_x_max
      0001196BH   XDATA    BYTE      ips114_y_max
      00011944H   XDATA    WORD      ips200_bgcolor
*DEL*:00000000H   CODE     ---       ips200_clear
      00011946H   XDATA    INT       ips200_display_dir
*DEL*:00000000H   CODE     ---       ips200_draw_point
*DEL*:00000000H   CODE     ---       ips200_init
      00011942H   XDATA    WORD      ips200_pencolor
L251 LINKER/LOCATER V4.66.93.0                                                        11/08/2025  20:32:40  PAGE 32


*DEL*:00000000H   CODE     ---       ips200_set_color
*DEL*:00000000H   CODE     ---       ips200_set_dir
*DEL*:00000000H   CODE     ---       ips200_show_char
*DEL*:00000000H   CODE     ---       ips200_show_chinese
*DEL*:00000000H   CODE     ---       ips200_show_float
*DEL*:00000000H   CODE     ---       ips200_show_int16
*DEL*:00000000H   CODE     ---       ips200_show_int32
*DEL*:00000000H   CODE     ---       ips200_show_int8
*DEL*:00000000H   CODE     ---       ips200_show_string
*DEL*:00000000H   CODE     ---       ips200_show_uint16
*DEL*:00000000H   CODE     ---       ips200_show_uint8
*DEL*:00000000H   CODE     ---       ips200_show_wave
      00011948H   XDATA    WORD      ips200_x_max
      0001194AH   XDATA    WORD      ips200_y_max
*SFR* 0000009DH   DATA     BYTE      IRCBAND
*SFR* 00000088H.0 DATA     BIT       IT0
*SFR* 00000088H.2 DATA     BIT       IT1
      0001190FH   XDATA    CHAR      j
      0001190CH   XDATA    BYTE      Key
      00011910H   XDATA    CHAR      Key3_count
      00FF01AEH   CODE     ---       Key3_handle1
      00FFA8CEH   CODE     ---       Key3_handle2
      0001193CH   XDATA    BYTE      Key_count
      000115FAH   XDATA    BYTE      Key_Flag
      00FFC291H   CODE     ---       Key_Number
      00FF9ECCH   CODE     ---       Key_scaner
      0001193FH   XDATA    BYTE      keynumber
      00011663H   XDATA    INT       Last_dajiao
      00011940H   XDATA    BYTE      last_keynumber
      00010FD6H   XDATA    BYTE      Last_State_Road
      000118BCH   XDATA    FLOAT     Left_Speed
      00FF31A3H   CODE     NEAR LAB  log?_
      00010FE6H   XDATA    ---       Long_road_Data
      00010D2DH   XDATA    ---       Long_short_Data
      00010DA5H   XDATA    WORD      Long_Time
      00011669H   XDATA    ---       M_left_pid
      00011606H   XDATA    ---       M_Right_pid
      00FF0066H   CODE     ---       MAIN
      00010E2FH   XDATA    BYTE      Max_Item
      00FFC814H   CODE     ---       memcpy?_
*DEL*:00000000H   CODE     ---       memset?_
      00FF9B42H   CODE     ---       menu_display_content
      00FFC73BH   CODE     ---       menu_handle_key
      00FFB90DH   CODE     ---       menu_Init
      00FFA7FEH   CODE     ---       Menu_SetChildren
      0001190BH   XDATA    CHAR      mode
      00010FD7H   XDATA    INT       Mode_Flag
      00FFF093H   HCONST   ---       mode_map
      00FFBE22H   CODE     ---       Motor_Init
      00FFA726H   CODE     ---       Motor_Left_pi_control
      00FFA64EH   CODE     ---       Motor_Right_pi_control
      00FFC1BBH   CODE     ---       Motor_Update
      00FFAFF6H   CODE     ---       Motor_Update_Smooth
      00FFC552H   CODE     ---       MotorL_SetSpeed
      00FFC58FH   CODE     ---       MotorR_SetSpeed
*DEL*:00000000H   CODE     ---       Normal_PID
      00010E41H   XDATA    BYTE      Normal_Slow_Flag
      00010E30H   XDATA    INT       Now_Item
      00010D2BH   XDATA    INT       Now_State_Road
      00010831H   XDATA    ---       Num
*DEL*:00000000H   CODE     ---       OLED_Clear
*DEL*:00000000H   CODE     ---       OLED_ColorTurn
*DEL*:00000000H   CODE     ---       OLED_DisplayTurn
*DEL*:00000000H   CODE     ---       OLED_Init
*DEL*:00000000H   CODE     ---       oled_pow
L251 LINKER/LOCATER V4.66.93.0                                                        11/08/2025  20:32:40  PAGE 33


*DEL*:00000000H   CODE     ---       OLED_Set_Pos
*DEL*:00000000H   CODE     ---       OLED_ShowChar
*DEL*:00000000H   CODE     ---       OLED_ShowChinese
*DEL*:00000000H   CODE     ---       OLED_ShowNum
*DEL*:00000000H   CODE     ---       OLED_ShowString
*DEL*:00000000H   CODE     ---       OLED_WR_Byte
*SFR* 000000D0H.2 DATA     BIT       OV
*SFR* 000000D0H.0 DATA     BIT       P
*SFR* 00000080H   DATA     BYTE      P0
*SFR* 00000094H   DATA     BYTE      P0M0
*SFR* 00000093H   DATA     BYTE      P0M1
*SFR* 00000090H   DATA     BYTE      P1
*SFR* 00000092H   DATA     BYTE      P1M0
*SFR* 00000091H   DATA     BYTE      P1M1
*SFR* 000000A0H   DATA     BYTE      P2
*SFR* 000000A0H.0 DATA     BIT       P20
*SFR* 000000A0H.1 DATA     BIT       P21
*SFR* 000000A0H.2 DATA     BIT       P22
*SFR* 00000096H   DATA     BYTE      P2M0
*SFR* 00000095H   DATA     BYTE      P2M1
*SFR* 000000B0H   DATA     BYTE      P3
*SFR* 000000B2H   DATA     BYTE      P3M0
*SFR* 000000B1H   DATA     BYTE      P3M1
*SFR* 000000C0H   DATA     BYTE      P4
*SFR* 000000C0H.0 DATA     BIT       P40
*SFR* 000000C0H.1 DATA     BIT       P41
*SFR* 000000C0H.2 DATA     BIT       P42
*SFR* 000000C0H.3 DATA     BIT       P43
*SFR* 000000B4H   DATA     BYTE      P4M0
*SFR* 000000B3H   DATA     BYTE      P4M1
*SFR* 000000C8H   DATA     BYTE      P5
*SFR* 000000CAH   DATA     BYTE      P5M0
*SFR* 000000C9H   DATA     BYTE      P5M1
*SFR* 000000E8H   DATA     BYTE      P6
*SFR* 000000CCH   DATA     BYTE      P6M0
*SFR* 000000CBH   DATA     BYTE      P6M1
*SFR* 000000F8H   DATA     BYTE      P7
*SFR* 000000E2H   DATA     BYTE      P7M0
*SFR* 000000E1H   DATA     BYTE      P7M1
*SFR* 000000A2H   DATA     BYTE      P_SW1
*SFR* 000000BAH   DATA     BYTE      P_SW2
*SFR* 000000BBH   DATA     BYTE      P_SW3
*SFR* 000000BFH   DATA     BYTE      P_SW4
      00010000H   XDATA    ---       Page
      00010AE1H   XDATA    ---       Page0_children
      00010AEFH   XDATA    ---       Page1_children
      00010AFFH   XDATA    ---       Page2_children
      00010B0DH   XDATA    ---       Page3_children
      00010B1BH   XDATA    ---       Page4_children
      00010B29H   XDATA    ---       Page5_children
*SFR* 00000087H   DATA     BYTE      PCON
      00FF8361H   CODE     ---       PID_Update
      0001082DH   XDATA    ---       Pin
      00FF8DD9H   CODE     ---       pit_handler1
      00FF8BFEH   CODE     ---       pit_init
*DEL*:00000000H   CODE     ---       pow?_
*SFR* 000000B8H.6 DATA     BIT       PPC
      0001193AH   XDATA    INT       Press_time
      00FF2678H   CODE     NEAR LAB  printf
      00FFC514H   CODE     ---       Protect
      00011665H   XDATA    BYTE      Protect_flag
      00010E2EH   XDATA    BYTE      Protect_Flag_Cycle
*SFR* 000000B8H.4 DATA     BIT       PS
*SFR* 000000D0H   DATA     BYTE      PSW
*SFR* 000000D1H   DATA     BYTE      PSW1
L251 LINKER/LOCATER V4.66.93.0                                                        11/08/2025  20:32:40  PAGE 34


*SFR* 000000B8H.1 DATA     BIT       PT0
*SFR* 000000B8H.3 DATA     BIT       PT1
*SFR* 000000B8H.5 DATA     BIT       PT2
      00FFC959H   CODE     ---       putchar
      00FFEEC7H   HCONST   ---       PWM_ARR_ADDR
      00FFEECFH   HCONST   ---       PWM_CCER_ADDR
      00FFEEDFH   HCONST   ---       PWM_CCMR_ADDR
      00FFEEA7H   HCONST   ---       PWM_CCR_ADDR
      00FF5972H   CODE     ---       pwm_init
      00FFEE9FH   HCONST   ---       PWM_PSCR_ADDR
      00FF9318H   CODE     ---       pwm_set_duty
*DEL*:00000000H   CODE     ---       pwm_set_freq
      00FFC6AAH   CODE     ---       PWM_Test
*SFR* 000000B8H.0 DATA     BIT       PX0
*SFR* 000000B8H.2 DATA     BIT       PX1
      00011831H   XDATA    ---       raw_adc_data
*SFR* 00000098H.2 DATA     BIT       RB8
*SFR* 000000CBH   DATA     BYTE      RCAP2H
*SFR* 000000CAH   DATA     BYTE      RCAP2L
*SFR* 000000C8H.5 DATA     BIT       RCLK
*SFR* 000000B0H.7 DATA     BIT       RD
      00FFB809H   CODE     ---       Refesh_arrow
*SFR* 00000098H.4 DATA     BIT       REN
*SFR* 00000098H.0 DATA     BIT       RI
      000118B8H   XDATA    FLOAT     Right_Speed
      00010DABH   XDATA    BYTE      Road_Stat
*SFR* 000000D0H.3 DATA     BIT       RS0
*SFR* 000000D0H.4 DATA     BIT       RS1
*SFR* 000000FFH   DATA     BYTE      RSTCFG
*SFR* 000000B0H.0 DATA     BIT       RXD
*SFR* 0000009BH   DATA     BYTE      S2BUF
*SFR* 0000009AH   DATA     BYTE      S2CON
*SFR* 0000009AH.1 DATA     BIT       S2TI
*SFR* 000000ACH   DATA     BYTE      S3CON
*SFR* 000000FDH   DATA     BYTE      S4CON
*SFR* 000000A9H   DATA     BYTE      SADDR
*SFR* 000000B9H   DATA     BYTE      SADEN
      00011911H   XDATA    BYTE      Save_Flag
*SFR* 00000099H   DATA     BYTE      SBUF
*SFR* 00000098H   DATA     BYTE      SCON
*DEL*:00000000H   CODE     ---       seekfree_assistant_camera_boundary_config
*DEL*:00000000H   CODE     ---       seekfree_assistant_camera_data_send
*DEL*:00000000H   CODE     ---       seekfree_assistant_camera_dot_send
*DEL*:00000000H   CODE     ---       seekfree_assistant_camera_information_config
*DEL*:00000000H   CODE     ---       seekfree_assistant_camera_send
*DEL*:00000000H   CODE     ---       seekfree_assistant_data_analysis
*DEL*:00000000H   CODE     ---       seekfree_assistant_init
*DEL*:00000000H   CODE     ---       seekfree_assistant_interface_init
      000114C5H   XDATA    ---       seekfree_assistant_oscilloscope_data
*DEL*:00000000H   CODE     ---       seekfree_assistant_oscilloscope_send
      00011508H   XDATA    ---       seekfree_assistant_parameter
      00011500H   XDATA    ---       seekfree_assistant_parameter_update_flag
      0001197AH   XDATA    ---       seekfree_assistant_receive_callback
      0001197CH   XDATA    ---       seekfree_assistant_transfer_callback
      00FFC969H   CODE     ---       Ser_Servo_Duty
      00FFBF8AH   CODE     ---       Serve_Test
      00FFADFBH   CODE     ---       Servo_Control
      00011668H   XDATA    BYTE      Servo_Flag
      00FF00A6H   CODE     ---       Servo_Init
      00011633H   XDATA    ---       servo_pid
      00FFB3A6H   CODE     ---       Servo_turn_pid
*DEL*:00000000H   CODE     ---       set_gps_type
      00FFC8B4H   CODE     ---       Set_Sevo
      00011661H   XDATA    INT       Set_T
*DEL*:00000000H   CODE     ---       set_tof_type
L251 LINKER/LOCATER V4.66.93.0                                                        11/08/2025  20:32:40  PAGE 35


*DEL*:00000000H   CODE     ---       set_wireless_type
      00011062H   XDATA    ---       Short_road_Data
      00010DA7H   XDATA    WORD      Short_Time
      00FFC937H   CODE     ---       show_all_menu
      00FFBA02H   CODE     ---       Show_bujin
      00011906H   XDATA    BYTE      Show_image_mode
      00FF5425H   CODE     ---       Show_pararm
      00FFC70DH   CODE     ---       show_test_info
      00FF2839H   CODE     ---       sin?_
*SFR* 00000098H.7 DATA     BIT       SM0
*SFR* 00000098H.6 DATA     BIT       SM1
*SFR* 00000098H.5 DATA     BIT       SM2
      00FFC63EH   CODE     ---       soft_iic_delay
*DEL*:00000000H   CODE     ---       soft_iic_init
*DEL*:00000000H   CODE     ---       soft_iic_read_16bit
*DEL*:00000000H   CODE     ---       soft_iic_read_16bit_array
*DEL*:00000000H   CODE     ---       soft_iic_read_16bit_register
*DEL*:00000000H   CODE     ---       soft_iic_read_16bit_registers
*DEL*:00000000H   CODE     ---       soft_iic_read_8bit
*DEL*:00000000H   CODE     ---       soft_iic_read_8bit_array
*DEL*:00000000H   CODE     ---       soft_iic_read_8bit_register
*DEL*:00000000H   CODE     ---       soft_iic_read_8bit_registers
      00FFAC94H   CODE     ---       soft_iic_read_data
*DEL*:00000000H   CODE     ---       soft_iic_sccb_read_register
*DEL*:00000000H   CODE     ---       soft_iic_sccb_write_register
      00FFBAEEH   CODE     ---       soft_iic_send_ack
      00FFB43AH   CODE     ---       soft_iic_send_data
      00FFBF33H   CODE     ---       soft_iic_start
      00FFBD01H   CODE     ---       soft_iic_stop
*DEL*:00000000H   CODE     ---       soft_iic_transfer_16bit_array
*DEL*:00000000H   CODE     ---       soft_iic_transfer_8bit_array
      00FFB989H   CODE     ---       soft_iic_wait_ack
*DEL*:00000000H   CODE     ---       soft_iic_write_16bit
*DEL*:00000000H   CODE     ---       soft_iic_write_16bit_array
*DEL*:00000000H   CODE     ---       soft_iic_write_16bit_register
*DEL*:00000000H   CODE     ---       soft_iic_write_16bit_registers
*DEL*:00000000H   CODE     ---       soft_iic_write_8bit
*DEL*:00000000H   CODE     ---       soft_iic_write_8bit_array
*DEL*:00000000H   CODE     ---       soft_iic_write_8bit_register
*DEL*:00000000H   CODE     ---       soft_iic_write_8bit_registers
*DEL*:00000000H   CODE     ---       soft_spi_delay
*DEL*:00000000H   CODE     ---       soft_spi_init
*DEL*:00000000H   CODE     ---       soft_spi_read_16bit
*DEL*:00000000H   CODE     ---       soft_spi_read_16bit_array
*DEL*:00000000H   CODE     ---       soft_spi_read_16bit_register
*DEL*:00000000H   CODE     ---       soft_spi_read_16bit_registers
*DEL*:00000000H   CODE     ---       soft_spi_read_8bit
*DEL*:00000000H   CODE     ---       soft_spi_read_8bit_array
*DEL*:00000000H   CODE     ---       soft_spi_read_8bit_register
*DEL*:00000000H   CODE     ---       soft_spi_read_8bit_registers
*DEL*:00000000H   CODE     ---       soft_spi_transfer_16bit
*DEL*:00000000H   CODE     ---       soft_spi_transfer_8bit
*DEL*:00000000H   CODE     ---       soft_spi_write_16bit
*DEL*:00000000H   CODE     ---       soft_spi_write_16bit_array
*DEL*:00000000H   CODE     ---       soft_spi_write_16bit_register
*DEL*:00000000H   CODE     ---       soft_spi_write_16bit_registers
*DEL*:00000000H   CODE     ---       soft_spi_write_8bit
*DEL*:00000000H   CODE     ---       soft_spi_write_8bit_array
*DEL*:00000000H   CODE     ---       soft_spi_write_8bit_register
*DEL*:00000000H   CODE     ---       soft_spi_write_8bit_registers
*SFR* 00000081H   DATA     BYTE      SP
*SFR* 000000CEH   DATA     BYTE      SPCTL
*SFR* 000000CFH   DATA     BYTE      SPDAT
      00FFC605H   CODE     ---       Speed_Control
      00FFC7C2H   CODE     ---       speed_control_ring
L251 LINKER/LOCATER V4.66.93.0                                                        11/08/2025  20:32:40  PAGE 36


      00FF961BH   CODE     ---       Speed_diff
      0001165FH   XDATA    INT       Speed_Mode
      000118F8H   XDATA    BYTE      speed_update_flag
*SFR* 000000BEH   DATA     BYTE      SPH
      00FF633BH   CODE     ---       spi_init
*DEL*:00000000H   CODE     ---       spi_read_16bit
*DEL*:00000000H   CODE     ---       spi_read_16bit_array
*DEL*:00000000H   CODE     ---       spi_read_16bit_register
*DEL*:00000000H   CODE     ---       spi_read_16bit_registers
*DEL*:00000000H   CODE     ---       spi_read_8bit
*DEL*:00000000H   CODE     ---       spi_read_8bit_array
*DEL*:00000000H   CODE     ---       spi_read_8bit_register
*DEL*:00000000H   CODE     ---       spi_read_8bit_registers
*DEL*:00000000H   CODE     ---       spi_read_dat
*DEL*:00000000H   CODE     ---       spi_transfer_16bit
*DEL*:00000000H   CODE     ---       spi_transfer_8bit
      00FFC85CH   CODE     ---       spi_write_16bit
*DEL*:00000000H   CODE     ---       spi_write_16bit_array
*DEL*:00000000H   CODE     ---       spi_write_16bit_register
*DEL*:00000000H   CODE     ---       spi_write_16bit_registers
      00FF0003H   CODE     ---       spi_write_8bit
*DEL*:00000000H   CODE     ---       spi_write_8bit_array
*DEL*:00000000H   CODE     ---       spi_write_8bit_register
*DEL*:00000000H   CODE     ---       spi_write_8bit_registers
      00FFC35DH   CODE     ---       spi_write_dat
      00FF26A4H   CODE     NEAR LAB  sprintf
*SFR* 000000CDH   DATA     BYTE      SPSTAT
      00FF26CAH   CODE     ---       sqrt?_
      0001190DH   XDATA    CHAR      Start_Show_Row
      00011937H   XDATA    BYTE      State
      00FF744EH   CODE     ---       State_of_road
      00010E42H   XDATA    INT       Str_Data_Buffer
      00010FDBH   XDATA    INT       Straightaways_Time
*DEL*:00000000H   CODE     ---       strchr?_
*DEL*:00000000H   CODE     ---       strlen?_
*DEL*:00000000H   CODE     ---       strncmp?_
*DEL*:00000000H   CODE     ---       strncpy?_
*DEL*:00000000H   CODE     ---       Svero_Update_Smooth
      00011972H   XDATA    LONG      system_clock
      00FFBDC5H   CODE     ---       system_delay_init
      00FFBB61H   CODE     ---       system_delay_ms
*DEL*:00000000H   CODE     ---       system_delay_us
      000118EAH   XDATA    INT       T
*SFR* 000000B0H.4 DATA     BIT       T0
*SFR* 000000B0H.5 DATA     BIT       T1
*SFR* 00000090H.0 DATA     BIT       T2
*SFR* 000000C8H   DATA     BYTE      T2CON
*SFR* 00000090H.1 DATA     BIT       T2EX
*SFR* 000000D6H   DATA     BYTE      T2H
*SFR* 000000D7H   DATA     BYTE      T2L
*SFR* 000000C9H   DATA     BYTE      T2MOD
      000115FBH   XDATA    INT       T3
*SFR* 000000D4H   DATA     BYTE      T3H
*SFR* 000000D5H   DATA     BYTE      T3L
      000118E8H   XDATA    INT       T4
*SFR* 000000D2H   DATA     BYTE      T4H
*SFR* 000000D3H   DATA     BYTE      T4L
*SFR* 000000DDH   DATA     BYTE      T4T3M
      00FF286EH   CODE     ---       TAN?_
*SFR* 00000098H.3 DATA     BIT       TB8
*SFR* 000000C8H.4 DATA     BIT       TCLK
*SFR* 00000088H   DATA     BYTE      TCON
*SFR* 00000088H.5 DATA     BIT       TF0
*SFR* 00000088H.7 DATA     BIT       TF1
*SFR* 000000C8H.7 DATA     BIT       TF2
L251 LINKER/LOCATER V4.66.93.0                                                        11/08/2025  20:32:40  PAGE 37


      0001195EH   XDATA    WORD      tft180_bgcolor
      00FFBC34H   CODE     ---       tft180_clear
      00011960H   XDATA    INT       tft180_display_dir
*DEL*:00000000H   CODE     ---       tft180_draw_point
      00FF7AF1H   CODE     ---       tft180_init
      0001195CH   XDATA    WORD      tft180_pencolor
      00FF000EH   CODE     ---       tft180_set_color
      00FFC7EDH   CODE     ---       tft180_set_dir
      00FFA3B4H   CODE     ---       tft180_show_char
      00FF8FB4H   CODE     ---       tft180_show_float
      00FF9C77H   CODE     ---       tft180_show_int16
*DEL*:00000000H   CODE     ---       tft180_show_int32
*DEL*:00000000H   CODE     ---       tft180_show_int8
      00FFAEA7H   CODE     ---       tft180_show_string
*DEL*:00000000H   CODE     ---       tft180_show_uint16
*DEL*:00000000H   CODE     ---       tft180_show_uint8
*DEL*:00000000H   CODE     ---       tft180_show_wave
      00011962H   XDATA    BYTE      tft180_x_max
      00011963H   XDATA    BYTE      tft180_y_max
*SFR* 0000008CH   DATA     BYTE      TH0
*SFR* 0000008DH   DATA     BYTE      TH1
*SFR* 000000CDH   DATA     BYTE      TH2
*SFR* 00000098H.1 DATA     BIT       TI
      00011879H   XDATA    ---       tim0_irq_handler
      0001186FH   XDATA    ---       tim11_irq_handler
      0001187DH   XDATA    ---       tim1_irq_handler
      00011881H   XDATA    ---       tim2_irq_handler
      00011885H   XDATA    ---       tim3_irq_handler
      00011889H   XDATA    ---       tim4_irq_handler
      0001193DH   XDATA    WORD      Time_dou
      00FFC0D8H   CODE     ---       timer_funciton_check
*SFR* 0000008AH   DATA     BYTE      TL0
*SFR* 0000008BH   DATA     BYTE      TL1
*SFR* 000000CCH   DATA     BYTE      TL2
      00FFC3DEH   CODE     ---       TM0_IRQHandler
      00FFC170H   CODE     ---       TM11_IRQHandler
      00FFC41CH   CODE     ---       TM1_IRQHandler
      00FFC45AH   CODE     ---       TM2_IRQHandler
      00FFC498H   CODE     ---       TM3_IRQHandler
      00FFC4D6H   CODE     ---       TM4_IRQHandler
*SFR* 00000089H   DATA     BYTE      TMOD
      00011954H   XDATA    ---       tof_module_exti_handler
      00011958H   XDATA    INT       tof_type
*SFR* 00000088H.4 DATA     BIT       TR0
*SFR* 00000088H.6 DATA     BIT       TR1
*SFR* 000000C8H.2 DATA     BIT       TR2
      00011938H   XDATA    INT       Trigg_time
*DEL*:00000000H   CODE     ---       tsl1401_collect_pit_handler
      000110ECH   XDATA    ---       tsl1401_data
      000110EBH   XDATA    BYTE      tsl1401_finish_flag
*DEL*:00000000H   CODE     ---       tsl1401_init
*DEL*:00000000H   CODE     ---       tsl1401_send_data
      00FFAB1FH   CODE     ---       Turn_mode
      00FF89F4H   CODE     ---       Turn_mode_Init
      00010DB4H   XDATA    ---       Turn_road_Data
      00010E32H   XDATA    INT       turn_Value
      00010FD9H   XDATA    INT       Turnways_Time
*SFR* 000000B0H.1 DATA     BIT       TXD
      00011871H   XDATA    ---       uart1_irq_handler
      00011873H   XDATA    ---       uart2_irq_handler
      00011875H   XDATA    ---       uart3_irq_handler
      00011877H   XDATA    ---       uart4_irq_handler
      00FF98B5H   CODE     ---       uart_dma_init
      00FFC124H   CODE     ---       uart_funciton_check
      00FF8599H   CODE     ---       uart_init
L251 LINKER/LOCATER V4.66.93.0                                                        11/08/2025  20:32:40  PAGE 38


      00FFBD63H   CODE     ---       uart_query_byte
*DEL*:00000000H   CODE     ---       uart_read_byte
      00011927H   XDATA    ---       uart_rx_buff
      00FFC24CH   CODE     ---       uart_rx_interrupt
      00FFB4CBH   CODE     ---       uart_rx_start_buff
      00FFA1F1H   CODE     ---       uart_write_buffer
      00FFC911H   CODE     ---       uart_write_byte
*DEL*:00000000H   CODE     ---       uart_write_string
      00FFB55BH   CODE     ---       unification
*SFR* 000000F4H   DATA     BYTE      USBCON
      00010DACH   XDATA    WORD      Wait_Time
*SFR* 000000C1H   DATA     BYTE      WDT_CONTR
*SFR* 000000A6H   DATA     BYTE      WDTRST
      00011956H   XDATA    INT       wireless_type
*DEL*:00000000H   CODE     ---       wireless_uart_callback
*DEL*:00000000H   CODE     ---       wireless_uart_init
*DEL*:00000000H   CODE     ---       wireless_uart_read_buffer
*DEL*:00000000H   CODE     ---       wireless_uart_send_buffer
*DEL*:00000000H   CODE     ---       wireless_uart_send_byte
*DEL*:00000000H   CODE     ---       wireless_uart_send_string
*SFR* 000000ABH   DATA     BYTE      WKTCH
*SFR* 000000B0H.6 DATA     BIT       WR
*SFR* 000000E9H   DATA     BYTE      WTST
      00FF4618H   CODE     ---       zf_sprintf



SYMBOL TABLE OF MODULE:  .\out_file\SEEKFREE (ai8051u_isr)

      VALUE       REP       CLASS    TYPE      SYMBOL NAME
      ====================================================
      ---         MODULE    ---      ---       ai8051u_isr

      00FF019BH   BLOCK     CODE     NEAR LAB  LVL=0
      00FF019BH   LINE      CODE     ---       #3
      ---         BLOCKEND  ---      ---       LVL=0

      00FF01ABH   BLOCK     CODE     NEAR LAB  LVL=0
      00FF01ABH   LINE      CODE     ---       #6
      ---         BLOCKEND  ---      ---       LVL=0

      00FF01BBH   BLOCK     CODE     NEAR LAB  LVL=0
      00FF01BBH   LINE      CODE     ---       #9
      ---         BLOCKEND  ---      ---       LVL=0

      00FF01CBH   BLOCK     CODE     NEAR LAB  LVL=0
      00FF01CBH   LINE      CODE     ---       #12
      ---         BLOCKEND  ---      ---       LVL=0

      00FF021BH   BLOCK     CODE     NEAR LAB  LVL=0
      00FF021BH   LINE      CODE     ---       #15
      ---         BLOCKEND  ---      ---       LVL=0

      ---         MODULE    ---      ---       zf_common_clock
      00FFA494H   PUBLIC    CODE     ---       clock_init
      00011972H   PUBLIC    XDATA    LONG      system_clock
      00000094H   SFRSYM    DATA     BYTE      P0M0
      000000D0H   SFRSYM    DATA     BYTE      PSW
      0000009DH   SFRSYM    DATA     BYTE      IRCBAND
      00000097H   SFRSYM    DATA     BYTE      AUXR2
      000000EAH   SFRSYM    DATA     BYTE      CKCON
      000000EFH   SFRSYM    DATA     BYTE      AUXINTIF
      000000FDH   SFRSYM    DATA     BYTE      S4CON
      000000ACH   SFRSYM    DATA     BYTE      S3CON
      0000009AH   SFRSYM    DATA     BYTE      S2CON
L251 LINKER/LOCATER V4.66.93.0                                                        11/08/2025  20:32:40  PAGE 39


      000000B7H   SFRSYM    DATA     BYTE      IPH
      000000CDH   SFRSYM    DATA     BYTE      SPSTAT
      000000DDH   SFRSYM    DATA     BYTE      T4T3M
      000000C1H   SFRSYM    DATA     BYTE      WDT_CONTR
      000000E9H   SFRSYM    DATA     BYTE      WTST
      000000DFH   SFRSYM    DATA     BYTE      IP3
      000000F4H   SFRSYM    DATA     BYTE      USBCON
      000000B5H   SFRSYM    DATA     BYTE      IP2
      000000FFH   SFRSYM    DATA     BYTE      RSTCFG
      000000C7H   SFRSYM    DATA     BYTE      IAP_CONTR
      0000008EH   SFRSYM    DATA     BYTE      AUXR
      000000AFH   SFRSYM    DATA     BYTE      IE2
      00000088H   SFRSYM    DATA     BYTE      TCON
      00000089H   SFRSYM    DATA     BYTE      TMOD
      00000098H   SFRSYM    DATA     BYTE      SCON
      00000087H   SFRSYM    DATA     BYTE      PCON
      000000BCH   SFRSYM    DATA     BYTE      ADC_CONTR
      000000D1H   SFRSYM    DATA     BYTE      PSW1
      000000E7H   SFRSYM    DATA     BYTE      CMPCR2
      000000E6H   SFRSYM    DATA     BYTE      CMPCR1
      000000DEH   SFRSYM    DATA     BYTE      ADCCFG
      000000B8H   SFRSYM    DATA     BYTE      IP
      0000008FH   SFRSYM    DATA     BYTE      INTCLKO
      000000EEH   SFRSYM    DATA     BYTE      IP3H
      000000B6H   SFRSYM    DATA     BYTE      IP2H
      000000BFH   SFRSYM    DATA     BYTE      P_SW4
      000000A8H   SFRSYM    DATA     BYTE      IE
      000000BBH   SFRSYM    DATA     BYTE      P_SW3
      000000BAH   SFRSYM    DATA     BYTE      P_SW2
      000000A2H   SFRSYM    DATA     BYTE      P_SW1
      000000CEH   SFRSYM    DATA     BYTE      SPCTL
      000000F8H   SFRSYM    DATA     BYTE      P7
      000000E1H   SFRSYM    DATA     BYTE      P7M1
      000000E8H   SFRSYM    DATA     BYTE      P6
      000000C8H   SFRSYM    DATA     BYTE      P5
      000000CBH   SFRSYM    DATA     BYTE      P6M1
      000000E2H   SFRSYM    DATA     BYTE      P7M0
      000000C0H   SFRSYM    DATA     BYTE      P4
      000000C9H   SFRSYM    DATA     BYTE      P5M1
      000000CCH   SFRSYM    DATA     BYTE      P6M0
      000000ABH   SFRSYM    DATA     BYTE      WKTCH
      000000B0H   SFRSYM    DATA     BYTE      P3
      000000B3H   SFRSYM    DATA     BYTE      P4M1
      000000CAH   SFRSYM    DATA     BYTE      P5M0
      000000A0H   SFRSYM    DATA     BYTE      P2
      000000B1H   SFRSYM    DATA     BYTE      P3M1
      000000B4H   SFRSYM    DATA     BYTE      P4M0
      00000090H   SFRSYM    DATA     BYTE      P1
      00000095H   SFRSYM    DATA     BYTE      P2M1
      000000B2H   SFRSYM    DATA     BYTE      P3M0
      00000080H   SFRSYM    DATA     BYTE      P0
      00000091H   SFRSYM    DATA     BYTE      P1M1
      00000096H   SFRSYM    DATA     BYTE      P2M0
      00000092H   SFRSYM    DATA     BYTE      P1M0
      00000093H   SFRSYM    DATA     BYTE      P0M1

      00FFA494H   BLOCK     CODE     ---       LVL=0
      DR12        REGSYM    ---      DWORD     clock
      00FFA494H   LINE      CODE     ---       #47
      00FFA498H   LINE      CODE     ---       #49
      00FFA49BH   LINE      CODE     ---       #50
      00FFA49EH   LINE      CODE     ---       #51
      00FFA4A1H   LINE      CODE     ---       #54
      00FFA4AEH   LINE      CODE     ---       #55
      00FFA4BCH   LINE      CODE     ---       #56
L251 LINKER/LOCATER V4.66.93.0                                                        11/08/2025  20:32:40  PAGE 40


      00FFA4C8H   LINE      CODE     ---       #57
      00FFA4D5H   LINE      CODE     ---       #58
      00FFA4E1H   LINE      CODE     ---       #60
      00FFA4E4H   LINE      CODE     ---       #63
      00FFA4EEH   LINE      CODE     ---       #65
      00FFA4F1H   LINE      CODE     ---       #66
      00FFA4F4H   LINE      CODE     ---       #67
      00FFA4F7H   LINE      CODE     ---       #68
      00FFA4FAH   LINE      CODE     ---       #69
      00FFA4FDH   LINE      CODE     ---       #70
      00FFA500H   LINE      CODE     ---       #71
      00FFA503H   LINE      CODE     ---       #72
      00FFA506H   LINE      CODE     ---       #73
      00FFA509H   LINE      CODE     ---       #74
      00FFA50CH   LINE      CODE     ---       #75
      00FFA50FH   LINE      CODE     ---       #76
      00FFA512H   LINE      CODE     ---       #77
      00FFA515H   LINE      CODE     ---       #78
      00FFA518H   LINE      CODE     ---       #79
      00FFA51BH   LINE      CODE     ---       #80
      00FFA51EH   LINE      CODE     ---       #83
      00FFA521H   LINE      CODE     ---       #84
      00FFA524H   LINE      CODE     ---       #85
      00FFA527H   LINE      CODE     ---       #86
      00FFA52AH   LINE      CODE     ---       #87
      00FFA52DH   LINE      CODE     ---       #88
      00FFA530H   LINE      CODE     ---       #89
      00FFA533H   LINE      CODE     ---       #90
      00FFA536H   LINE      CODE     ---       #91
      00FFA539H   LINE      CODE     ---       #92
      00FFA53CH   LINE      CODE     ---       #93
      00FFA548H   LINE      CODE     ---       #94
      00FFA554H   LINE      CODE     ---       #96
      00FFA560H   LINE      CODE     ---       #97
      00FFA56CH   LINE      CODE     ---       #100
      00FFA56FH   LINE      CODE     ---       #101
      ---         BLOCKEND  ---      ---       LVL=0

      ---         MODULE    ---      ---       zf_common_debug
      00FFC5CCH   PUBLIC    CODE     ---       debug_interrupr_handler
      00FFB1E6H   PUBLIC    CODE     ---       debug_init
      00FFBBCCH   PUBLIC    CODE     ---       debug_assert_handler
      00FFC959H   PUBLIC    CODE     ---       putchar
      0001172AH   PUBLIC    XDATA    ---       debug_uart_buffer
      0001176BH   PUBLIC    XDATA    ---       debug_uart_fifo
      000000D0H   SFRSYM    DATA     BYTE      PSW
      0000009DH   SFRSYM    DATA     BYTE      IRCBAND
      00000097H   SFRSYM    DATA     BYTE      AUXR2
      000000EFH   SFRSYM    DATA     BYTE      AUXINTIF
      000000FDH   SFRSYM    DATA     BYTE      S4CON
      000000ACH   SFRSYM    DATA     BYTE      S3CON
      0000009AH   SFRSYM    DATA     BYTE      S2CON
      000000B7H   SFRSYM    DATA     BYTE      IPH
      000000CDH   SFRSYM    DATA     BYTE      SPSTAT
      000000DDH   SFRSYM    DATA     BYTE      T4T3M
      000000C1H   SFRSYM    DATA     BYTE      WDT_CONTR
      000000DFH   SFRSYM    DATA     BYTE      IP3
      000000F4H   SFRSYM    DATA     BYTE      USBCON
      000000B5H   SFRSYM    DATA     BYTE      IP2
      000000FFH   SFRSYM    DATA     BYTE      RSTCFG
      000000C7H   SFRSYM    DATA     BYTE      IAP_CONTR
      0000008EH   SFRSYM    DATA     BYTE      AUXR
      000000AFH   SFRSYM    DATA     BYTE      IE2
      00000088H   SFRSYM    DATA     BYTE      TCON
      00000089H   SFRSYM    DATA     BYTE      TMOD
L251 LINKER/LOCATER V4.66.93.0                                                        11/08/2025  20:32:40  PAGE 41


      00000098H   SFRSYM    DATA     BYTE      SCON
      00000087H   SFRSYM    DATA     BYTE      PCON
      000000BCH   SFRSYM    DATA     BYTE      ADC_CONTR
      000000D1H   SFRSYM    DATA     BYTE      PSW1
      000000E7H   SFRSYM    DATA     BYTE      CMPCR2
      000000E6H   SFRSYM    DATA     BYTE      CMPCR1
      000000DEH   SFRSYM    DATA     BYTE      ADCCFG
      000000B8H   SFRSYM    DATA     BYTE      IP
      0000008FH   SFRSYM    DATA     BYTE      INTCLKO
      000000EEH   SFRSYM    DATA     BYTE      IP3H
      000000B6H   SFRSYM    DATA     BYTE      IP2H
      000000BFH   SFRSYM    DATA     BYTE      P_SW4
      000000A8H   SFRSYM    DATA     BYTE      IE
      000000BBH   SFRSYM    DATA     BYTE      P_SW3
      000000BAH   SFRSYM    DATA     BYTE      P_SW2
      000000A2H   SFRSYM    DATA     BYTE      P_SW1
      000000CEH   SFRSYM    DATA     BYTE      SPCTL
      000000F8H   SFRSYM    DATA     BYTE      P7
      000000E8H   SFRSYM    DATA     BYTE      P6
      000000C8H   SFRSYM    DATA     BYTE      P5
      000000C0H   SFRSYM    DATA     BYTE      P4
      000000ABH   SFRSYM    DATA     BYTE      WKTCH
      000000B0H   SFRSYM    DATA     BYTE      P3
      000000A0H   SFRSYM    DATA     BYTE      P2
      00000090H   SFRSYM    DATA     BYTE      P1
      00000080H   SFRSYM    DATA     BYTE      P0
      00FFF2C1H   SYMBOL    HCONST   ---       ?tpl?0001
      0001176AH   SYMBOL    XDATA    BYTE      zf_debug_assert_enable
      00011782H   SYMBOL    XDATA    BYTE      zf_debug_init_flag
      DR12        REGSYM    ---      DWORD     len
      REG=2       REGSYM    ---      ---       buff

      00FFC5CCH   BLOCK     CODE     ---       LVL=0
      00011695H   SYMBOL    XDATA    BYTE      dat
      00FFC5CCH   LINE      CODE     ---       #281
      00FFC5D0H   LINE      CODE     ---       #283
      00FFC5D6H   LINE      CODE     ---       #285
      00FFC5E3H   LINE      CODE     ---       #286
      00FFC604H   LINE      CODE     ---       #287
      ---         BLOCKEND  ---      ---       LVL=0

      00FFC959H   BLOCK     CODE     ---       LVL=0
      R15         REGSYM    ---      CHAR      c
      00FFC959H   LINE      CODE     ---       #303
      00FFC95DH   LINE      CODE     ---       #305
      00FFC964H   LINE      CODE     ---       #307
      00FFC966H   LINE      CODE     ---       #308
      ---         BLOCKEND  ---      ---       LVL=0

      00FFBBCCH   BLOCK     CODE     ---       LVL=0
      000116D4H   SYMBOL    XDATA    BYTE      pass
      REG=3       REGSYM    ---      ---       file
      000116D5H   SYMBOL    XDATA    INT       line
      00FFBBDAH   BLOCK     CODE     NEAR LAB  LVL=1
      000116D7H   SYMBOL    XDATA    ---       log_str
      ---         BLOCKEND  ---      ---       LVL=1
      00FFBBCCH   LINE      CODE     ---       #346
      00FFBBDAH   LINE      CODE     ---       #347
      00FFBBDAH   LINE      CODE     ---       #348
      00FFBBEFH   LINE      CODE     ---       #350
      00FFBBF1H   LINE      CODE     ---       #366
      00FFBC24H   LINE      CODE     ---       #369
      00FFBC2BH   LINE      CODE     ---       #370
      00FFBC31H   LINE      CODE     ---       #371
      ---         BLOCKEND  ---      ---       LVL=0
L251 LINKER/LOCATER V4.66.93.0                                                        11/08/2025  20:32:40  PAGE 42



      00FFB1E6H   BLOCK     CODE     ---       LVL=0
      00FFB1E8H   BLOCK     CODE     NEAR LAB  LVL=1
      R15         REGSYM    ---      BYTE      uartx
      ---         BLOCKEND  ---      ---       LVL=1
      00FFB1E6H   LINE      CODE     ---       #453
      00FFB1E8H   LINE      CODE     ---       #454
      00FFB1E8H   LINE      CODE     ---       #455
      00FFB1EAH   LINE      CODE     ---       #461
      00FFB205H   LINE      CODE     ---       #468
      00FFB232H   LINE      CODE     ---       #469
      00FFB239H   LINE      CODE     ---       #472
      00FFB23DH   LINE      CODE     ---       #474
      00FFB247H   LINE      CODE     ---       #475
      00FFB249H   LINE      CODE     ---       #476
      00FFB24EH   LINE      CODE     ---       #478
      00FFB258H   LINE      CODE     ---       #479
      00FFB25AH   LINE      CODE     ---       #480
      00FFB25FH   LINE      CODE     ---       #482
      00FFB269H   LINE      CODE     ---       #483
      00FFB26BH   LINE      CODE     ---       #484
      00FFB270H   LINE      CODE     ---       #486
      00FFB27AH   LINE      CODE     ---       #487
      ---         BLOCKEND  ---      ---       LVL=0

      ---         MODULE    ---      ---       zf_common_fifo
      00FF6C84H   PUBLIC    CODE     ---       fifo_write_buffer
      00FFB88CH   PUBLIC    CODE     ---       fifo_init
      00011692H   PUBLIC    XDATA    BYTE      ?fifo_write_buffer?BYTE
      00011691H   PUBLIC    XDATA    BYTE      ?fifo_init?BYTE
      000000D0H   SFRSYM    DATA     BYTE      PSW
      0000009DH   SFRSYM    DATA     BYTE      IRCBAND
      00000097H   SFRSYM    DATA     BYTE      AUXR2
      000000EFH   SFRSYM    DATA     BYTE      AUXINTIF
      000000FDH   SFRSYM    DATA     BYTE      S4CON
      000000ACH   SFRSYM    DATA     BYTE      S3CON
      0000009AH   SFRSYM    DATA     BYTE      S2CON
      000000B7H   SFRSYM    DATA     BYTE      IPH
      000000CDH   SFRSYM    DATA     BYTE      SPSTAT
      000000DDH   SFRSYM    DATA     BYTE      T4T3M
      000000C1H   SFRSYM    DATA     BYTE      WDT_CONTR
      000000DFH   SFRSYM    DATA     BYTE      IP3
      000000F4H   SFRSYM    DATA     BYTE      USBCON
      000000B5H   SFRSYM    DATA     BYTE      IP2
      000000FFH   SFRSYM    DATA     BYTE      RSTCFG
      000000C7H   SFRSYM    DATA     BYTE      IAP_CONTR
      0000008EH   SFRSYM    DATA     BYTE      AUXR
      000000AFH   SFRSYM    DATA     BYTE      IE2
      00000088H   SFRSYM    DATA     BYTE      TCON
      00000089H   SFRSYM    DATA     BYTE      TMOD
      00000098H   SFRSYM    DATA     BYTE      SCON
      00000087H   SFRSYM    DATA     BYTE      PCON
      000000BCH   SFRSYM    DATA     BYTE      ADC_CONTR
      000000D1H   SFRSYM    DATA     BYTE      PSW1
      000000E7H   SFRSYM    DATA     BYTE      CMPCR2
      000000E6H   SFRSYM    DATA     BYTE      CMPCR1
      000000DEH   SFRSYM    DATA     BYTE      ADCCFG
      000000B8H   SFRSYM    DATA     BYTE      IP
      0000008FH   SFRSYM    DATA     BYTE      INTCLKO
      000000EEH   SFRSYM    DATA     BYTE      IP3H
      000000B6H   SFRSYM    DATA     BYTE      IP2H
      000000BFH   SFRSYM    DATA     BYTE      P_SW4
      000000A8H   SFRSYM    DATA     BYTE      IE
      000000BBH   SFRSYM    DATA     BYTE      P_SW3
      000000BAH   SFRSYM    DATA     BYTE      P_SW2
L251 LINKER/LOCATER V4.66.93.0                                                        11/08/2025  20:32:40  PAGE 43


      000000A2H   SFRSYM    DATA     BYTE      P_SW1
      000000CEH   SFRSYM    DATA     BYTE      SPCTL
      000000F8H   SFRSYM    DATA     BYTE      P7
      000000E8H   SFRSYM    DATA     BYTE      P6
      000000C8H   SFRSYM    DATA     BYTE      P5
      000000C0H   SFRSYM    DATA     BYTE      P4
      000000ABH   SFRSYM    DATA     BYTE      WKTCH
      000000B0H   SFRSYM    DATA     BYTE      P3
      000000A0H   SFRSYM    DATA     BYTE      P2
      00000090H   SFRSYM    DATA     BYTE      P1
      00000080H   SFRSYM    DATA     BYTE      P0
      00FF01CEH   SYMBOL    CODE     ---       fifo_head_offset

      00FF01CEH   BLOCK     CODE     ---       LVL=0
      REG=7       REGSYM    ---      ---       fifo
      DR24        REGSYM    ---      DWORD     offset
      00FF01CEH   LINE      CODE     ---       #51
      00FF01D2H   LINE      CODE     ---       #53
      00FF01E6H   LINE      CODE     ---       #55
      00FF01E8H   LINE      CODE     ---       #57
      00FF0206H   LINE      CODE     ---       #58
      00FF021AH   LINE      CODE     ---       #59
      ---         BLOCKEND  ---      ---       LVL=0
      REG=7       REGSYM    ---      ---       fifo
      DR24        REGSYM    ---      DWORD     offset
      REG=3       REGSYM    ---      ---       fifo
      REG=3       REGSYM    ---      ---       fifo

      00FF6C84H   BLOCK     CODE     ---       LVL=0
      REG=3       REGSYM    ---      ---       fifo
      00011696H   SYMBOL    XDATA    ---       dat
      0001169AH   SYMBOL    XDATA    DWORD     length
      00FF6C92H   BLOCK     CODE     NEAR LAB  LVL=1
      0001169EH   SYMBOL    XDATA    INT       return_state
      000116A0H   SYMBOL    XDATA    DWORD     temp_length
      ---         BLOCKEND  ---      ---       LVL=1
      00FF6C84H   LINE      CODE     ---       #178
      00FF6C92H   LINE      CODE     ---       #179
      00FF6C92H   LINE      CODE     ---       #180
      00FF6C9AH   LINE      CODE     ---       #181
      00FF6CA6H   LINE      CODE     ---       #182
      00FF6CC0H   LINE      CODE     ---       #184
      00FF6CC0H   LINE      CODE     ---       #186
      00FF6CCEH   LINE      CODE     ---       #188
      00FF6CD8H   LINE      CODE     ---       #189
      00FF6CDBH   LINE      CODE     ---       #190
      00FF6CDBH   LINE      CODE     ---       #191
      00FF6CE6H   LINE      CODE     ---       #193
      00FF6CF0H   LINE      CODE     ---       #194
      00FF6CF3H   LINE      CODE     ---       #195
      00FF6CF3H   LINE      CODE     ---       #196
      00FF6CFBH   LINE      CODE     ---       #198
      00FF6D14H   LINE      CODE     ---       #200
      00FF6D30H   LINE      CODE     ---       #202
      00FF6D4BH   LINE      CODE     ---       #204
      00FF6D64H   LINE      CODE     ---       #206
      00FF6D64H   LINE      CODE     ---       #208
      00FF6D91H   LINE      CODE     ---       #211
      00FF6DA0H   LINE      CODE     ---       #212
      00FF6DEBH   LINE      CODE     ---       #216
      00FF6E06H   LINE      CODE     ---       #217
      00FF6E09H   LINE      CODE     ---       #218
      00FF6E09H   LINE      CODE     ---       #220
      00FF6E3AH   LINE      CODE     ---       #223
      00FF6E49H   LINE      CODE     ---       #224
L251 LINKER/LOCATER V4.66.93.0                                                        11/08/2025  20:32:40  PAGE 44


      00FF6E96H   LINE      CODE     ---       #228
      00FF6EB1H   LINE      CODE     ---       #229
      00FF6EB4H   LINE      CODE     ---       #230
      00FF6EB4H   LINE      CODE     ---       #232
      00FF6EE9H   LINE      CODE     ---       #235
      00FF6EF8H   LINE      CODE     ---       #236
      00FF6F4BH   LINE      CODE     ---       #240
      00FF6F66H   LINE      CODE     ---       #241
      00FF6F66H   LINE      CODE     ---       #242
      00FF6F66H   LINE      CODE     ---       #243
      00FF6F69H   LINE      CODE     ---       #246
      00FF6F7FH   LINE      CODE     ---       #248
      00FF6F7FH   LINE      CODE     ---       #250
      00FF6FACH   LINE      CODE     ---       #253
      00FF6FBBH   LINE      CODE     ---       #254
      00FF6FBEH   LINE      CODE     ---       #255
      00FF6FBEH   LINE      CODE     ---       #257
      00FF6FEFH   LINE      CODE     ---       #260
      00FF6FFEH   LINE      CODE     ---       #261
      00FF7000H   LINE      CODE     ---       #262
      00FF7000H   LINE      CODE     ---       #264
      00FF7035H   LINE      CODE     ---       #267
      00FF7044H   LINE      CODE     ---       #268
      00FF7044H   LINE      CODE     ---       #269
      00FF7044H   LINE      CODE     ---       #270
      00FF7044H   LINE      CODE     ---       #272
      00FF7064H   LINE      CODE     ---       #273
      00FF7066H   LINE      CODE     ---       #276
      00FF7070H   LINE      CODE     ---       #277
      00FF7070H   LINE      CODE     ---       #278
      00FF7078H   LINE      CODE     ---       #279
      00FF7078H   LINE      CODE     ---       #281
      00FF707EH   LINE      CODE     ---       #282
      ---         BLOCKEND  ---      ---       LVL=0
      REG=3       REGSYM    ---      ---       fifo

      00FFB88CH   BLOCK     CODE     ---       LVL=0
      REG=3       REGSYM    ---      ---       fifo
      00011695H   SYMBOL    XDATA    INT       type
      00011697H   SYMBOL    XDATA    ---       buffer_addr
      0001169BH   SYMBOL    XDATA    DWORD     siz
      00FFB88CH   LINE      CODE     ---       #549
      00FFB896H   LINE      CODE     ---       #551
      00FFB8B0H   LINE      CODE     ---       #552
      00FFB8B0H   LINE      CODE     ---       #554
      00FFB8C2H   LINE      CODE     ---       #555
      00FFB8C6H   LINE      CODE     ---       #556
      00FFB8D0H   LINE      CODE     ---       #557
      00FFB8DAH   LINE      CODE     ---       #558
      00FFB8E4H   LINE      CODE     ---       #559
      00FFB8F6H   LINE      CODE     ---       #560
      00FFB908H   LINE      CODE     ---       #561
      00FFB908H   LINE      CODE     ---       #562
      00FFB90AH   LINE      CODE     ---       #563
      ---         BLOCKEND  ---      ---       LVL=0

      ---         MODULE    ---      ---       zf_common_font
      00FF4E35H   PUBLIC    CODE     ---       ascii_font_8x16
      000000D0H   SFRSYM    DATA     BYTE      PSW
      0000009DH   SFRSYM    DATA     BYTE      IRCBAND
      00000097H   SFRSYM    DATA     BYTE      AUXR2
      000000EFH   SFRSYM    DATA     BYTE      AUXINTIF
      000000FDH   SFRSYM    DATA     BYTE      S4CON
      000000ACH   SFRSYM    DATA     BYTE      S3CON
      0000009AH   SFRSYM    DATA     BYTE      S2CON
L251 LINKER/LOCATER V4.66.93.0                                                        11/08/2025  20:32:40  PAGE 45


      000000B7H   SFRSYM    DATA     BYTE      IPH
      000000CDH   SFRSYM    DATA     BYTE      SPSTAT
      000000DDH   SFRSYM    DATA     BYTE      T4T3M
      000000C1H   SFRSYM    DATA     BYTE      WDT_CONTR
      000000DFH   SFRSYM    DATA     BYTE      IP3
      000000F4H   SFRSYM    DATA     BYTE      USBCON
      000000B5H   SFRSYM    DATA     BYTE      IP2
      000000FFH   SFRSYM    DATA     BYTE      RSTCFG
      000000C7H   SFRSYM    DATA     BYTE      IAP_CONTR
      0000008EH   SFRSYM    DATA     BYTE      AUXR
      000000AFH   SFRSYM    DATA     BYTE      IE2
      00000088H   SFRSYM    DATA     BYTE      TCON
      00000089H   SFRSYM    DATA     BYTE      TMOD
      00000098H   SFRSYM    DATA     BYTE      SCON
      00000087H   SFRSYM    DATA     BYTE      PCON
      000000BCH   SFRSYM    DATA     BYTE      ADC_CONTR
      000000D1H   SFRSYM    DATA     BYTE      PSW1
      000000E7H   SFRSYM    DATA     BYTE      CMPCR2
      000000E6H   SFRSYM    DATA     BYTE      CMPCR1
      000000DEH   SFRSYM    DATA     BYTE      ADCCFG
      000000B8H   SFRSYM    DATA     BYTE      IP
      0000008FH   SFRSYM    DATA     BYTE      INTCLKO
      000000EEH   SFRSYM    DATA     BYTE      IP3H
      000000B6H   SFRSYM    DATA     BYTE      IP2H
      000000BFH   SFRSYM    DATA     BYTE      P_SW4
      000000A8H   SFRSYM    DATA     BYTE      IE
      000000BBH   SFRSYM    DATA     BYTE      P_SW3
      000000BAH   SFRSYM    DATA     BYTE      P_SW2
      000000A2H   SFRSYM    DATA     BYTE      P_SW1
      000000CEH   SFRSYM    DATA     BYTE      SPCTL
      000000F8H   SFRSYM    DATA     BYTE      P7
      000000E8H   SFRSYM    DATA     BYTE      P6
      000000C8H   SFRSYM    DATA     BYTE      P5
      000000C0H   SFRSYM    DATA     BYTE      P4
      000000ABH   SFRSYM    DATA     BYTE      WKTCH
      000000B0H   SFRSYM    DATA     BYTE      P3
      000000A0H   SFRSYM    DATA     BYTE      P2
      00000090H   SFRSYM    DATA     BYTE      P1
      00000080H   SFRSYM    DATA     BYTE      P0

      ---         MODULE    ---      ---       zf_common_function
      00FF4618H   PUBLIC    CODE     ---       zf_sprintf
      000116EEH   PUBLIC    XDATA    BYTE      ?zf_sprintf?BYTE
      000000D0H   SFRSYM    DATA     BYTE      PSW
      0000009DH   SFRSYM    DATA     BYTE      IRCBAND
      00000097H   SFRSYM    DATA     BYTE      AUXR2
      000000EFH   SFRSYM    DATA     BYTE      AUXINTIF
      000000FDH   SFRSYM    DATA     BYTE      S4CON
      000000ACH   SFRSYM    DATA     BYTE      S3CON
      0000009AH   SFRSYM    DATA     BYTE      S2CON
      000000B7H   SFRSYM    DATA     BYTE      IPH
      000000CDH   SFRSYM    DATA     BYTE      SPSTAT
      000000DDH   SFRSYM    DATA     BYTE      T4T3M
      000000C1H   SFRSYM    DATA     BYTE      WDT_CONTR
      000000DFH   SFRSYM    DATA     BYTE      IP3
      000000F4H   SFRSYM    DATA     BYTE      USBCON
      000000B5H   SFRSYM    DATA     BYTE      IP2
      000000FFH   SFRSYM    DATA     BYTE      RSTCFG
      000000C7H   SFRSYM    DATA     BYTE      IAP_CONTR
      0000008EH   SFRSYM    DATA     BYTE      AUXR
      000000AFH   SFRSYM    DATA     BYTE      IE2
      00000088H   SFRSYM    DATA     BYTE      TCON
      00000089H   SFRSYM    DATA     BYTE      TMOD
      00000098H   SFRSYM    DATA     BYTE      SCON
      00000087H   SFRSYM    DATA     BYTE      PCON
L251 LINKER/LOCATER V4.66.93.0                                                        11/08/2025  20:32:40  PAGE 46


      000000BCH   SFRSYM    DATA     BYTE      ADC_CONTR
      000000D1H   SFRSYM    DATA     BYTE      PSW1
      000000E7H   SFRSYM    DATA     BYTE      CMPCR2
      000000E6H   SFRSYM    DATA     BYTE      CMPCR1
      000000DEH   SFRSYM    DATA     BYTE      ADCCFG
      000000B8H   SFRSYM    DATA     BYTE      IP
      0000008FH   SFRSYM    DATA     BYTE      INTCLKO
      000000EEH   SFRSYM    DATA     BYTE      IP3H
      000000B6H   SFRSYM    DATA     BYTE      IP2H
      000000BFH   SFRSYM    DATA     BYTE      P_SW4
      000000A8H   SFRSYM    DATA     BYTE      IE
      000000BBH   SFRSYM    DATA     BYTE      P_SW3
      000000BAH   SFRSYM    DATA     BYTE      P_SW2
      000000A2H   SFRSYM    DATA     BYTE      P_SW1
      000000CEH   SFRSYM    DATA     BYTE      SPCTL
      000000F8H   SFRSYM    DATA     BYTE      P7
      000000E8H   SFRSYM    DATA     BYTE      P6
      000000C8H   SFRSYM    DATA     BYTE      P5
      000000C0H   SFRSYM    DATA     BYTE      P4
      000000ABH   SFRSYM    DATA     BYTE      WKTCH
      000000B0H   SFRSYM    DATA     BYTE      P3
      000000A0H   SFRSYM    DATA     BYTE      P2
      00000090H   SFRSYM    DATA     BYTE      P1
      00000080H   SFRSYM    DATA     BYTE      P0
      00FFEFB6H   SYMBOL    HCONST   ---       ?tpl?0001
      00FFB312H   SYMBOL    CODE     ---       number_conversion_ascii
      00FFC204H   SYMBOL    CODE     ---       printf_reverse_order
      DR8         REGSYM    ---      DWORD     num1
      DR28        REGSYM    ---      DWORD     num2
      REG=3       REGSYM    ---      ---       str
      REG=3       REGSYM    ---      ---       str
      REG=3       REGSYM    ---      ---       str
      REG=3       REGSYM    ---      ---       str
      REG=3       REGSYM    ---      ---       str
      REG=3       REGSYM    ---      ---       str
      REG=3       REGSYM    ---      ---       str
      REG=3       REGSYM    ---      ---       str
      REG=3       REGSYM    ---      ---       str
      REG=3       REGSYM    ---      ---       str

      00FFB312H   BLOCK     CODE     ---       LVL=0
      DR24        REGSYM    ---      DWORD     dat
      REG=7       REGSYM    ---      ---       p
      R10         REGSYM    ---      BYTE      neg_type
      00011729H   SYMBOL    XDATA    BYTE      radix
      00FFB31AH   BLOCK     CODE     NEAR LAB  LVL=1
      DR20        REGSYM    ---      LONG      neg_dat
      DR24        REGSYM    ---      DWORD     pos_dat
      R14         REGSYM    ---      BYTE      temp_data
      R15         REGSYM    ---      BYTE      valid_num
      ---         BLOCKEND  ---      ---       LVL=1
      00FFB312H   LINE      CODE     ---       #647
      00FFB31AH   LINE      CODE     ---       #648
      00FFB31AH   LINE      CODE     ---       #651
      00FFB31CH   LINE      CODE     ---       #652
      00FFB31EH   LINE      CODE     ---       #654
      00FFB322H   LINE      CODE     ---       #656
      00FFB324H   LINE      CODE     ---       #657
      00FFB32AH   LINE      CODE     ---       #659
      00FFB334H   LINE      CODE     ---       #660
      00FFB334H   LINE      CODE     ---       #661
      00FFB334H   LINE      CODE     ---       #663
      00FFB34AH   LINE      CODE     ---       #664
      00FFB359H   LINE      CODE     ---       #665
      00FFB35BH   LINE      CODE     ---       #667
L251 LINKER/LOCATER V4.66.93.0                                                        11/08/2025  20:32:40  PAGE 47


      00FFB361H   LINE      CODE     ---       #669
      00FFB361H   LINE      CODE     ---       #670
      00FFB361H   LINE      CODE     ---       #671
      00FFB363H   LINE      CODE     ---       #672
      00FFB365H   LINE      CODE     ---       #673
      00FFB367H   LINE      CODE     ---       #676
      00FFB367H   LINE      CODE     ---       #677
      00FFB367H   LINE      CODE     ---       #679
      00FFB376H   LINE      CODE     ---       #680
      00FFB37BH   LINE      CODE     ---       #682
      00FFB37EH   LINE      CODE     ---       #683
      00FFB380H   LINE      CODE     ---       #686
      00FFB383H   LINE      CODE     ---       #687
      00FFB383H   LINE      CODE     ---       #689
      00FFB386H   LINE      CODE     ---       #691
      00FFB395H   LINE      CODE     ---       #692
      00FFB397H   LINE      CODE     ---       #694
      00FFB39DH   LINE      CODE     ---       #696
      00FFB39DH   LINE      CODE     ---       #697
      00FFB39DH   LINE      CODE     ---       #698
      00FFB39FH   LINE      CODE     ---       #699
      00FFB3A1H   LINE      CODE     ---       #700
      00FFB3A1H   LINE      CODE     ---       #701
      00FFB3A3H   LINE      CODE     ---       #702
      ---         BLOCKEND  ---      ---       LVL=0

      00FFC204H   BLOCK     CODE     ---       LVL=0
      REG=7       REGSYM    ---      ---       d_buff
      DR24        REGSYM    ---      DWORD     len
      00FFC208H   BLOCK     CODE     NEAR LAB  LVL=1
      DR4         REGSYM    ---      DWORD     i
      R3          REGSYM    ---      CHAR      temp_data
      ---         BLOCKEND  ---      ---       LVL=1
      00FFC204H   LINE      CODE     ---       #712
      00FFC208H   LINE      CODE     ---       #713
      00FFC208H   LINE      CODE     ---       #716
      00FFC20CH   LINE      CODE     ---       #718
      00FFC219H   LINE      CODE     ---       #719
      00FFC231H   LINE      CODE     ---       #720
      00FFC23AH   LINE      CODE     ---       #721
      00FFC24BH   LINE      CODE     ---       #722
      ---         BLOCKEND  ---      ---       LVL=0

      00FF4618H   BLOCK     CODE     ---       LVL=0
      REG=3       REGSYM    ---      ---       buff
      000116F2H   SYMBOL    XDATA    ---       format
      00FF4626H   BLOCK     CODE     NEAR LAB  LVL=1
      000116F6H   SYMBOL    XDATA    DWORD     buff_len
      000116FAH   SYMBOL    XDATA    ---       arg
      00FF4647H   BLOCK     CODE     NEAR LAB  LVL=2
      000116FEH   SYMBOL    XDATA    CHAR      ret
      00FF4788H   BLOCK     CODE     NEAR LAB  LVL=3
      000116FFH   SYMBOL    XDATA    CHAR      ch
      ---         BLOCKEND  ---      ---       LVL=3
      00FF47CFH   BLOCK     CODE     NEAR LAB  LVL=3
      000116FFH   SYMBOL    XDATA    ---       vstr
      00011720H   SYMBOL    XDATA    LONG      ival
      00011724H   SYMBOL    XDATA    BYTE      vlen
      ---         BLOCKEND  ---      ---       LVL=3
      00FF489AH   BLOCK     CODE     NEAR LAB  LVL=3
      000116FFH   SYMBOL    XDATA    ---       vstr
      00011720H   SYMBOL    XDATA    DOUBLE    ival
      00011728H   SYMBOL    XDATA    BYTE      vlen
      ---         BLOCKEND  ---      ---       LVL=3
      00FF4AE5H   BLOCK     CODE     NEAR LAB  LVL=3
L251 LINKER/LOCATER V4.66.93.0                                                        11/08/2025  20:32:40  PAGE 48


      000116FFH   SYMBOL    XDATA    ---       vstr
      00011720H   SYMBOL    XDATA    DWORD     ival
      00011724H   SYMBOL    XDATA    BYTE      vlen
      ---         BLOCKEND  ---      ---       LVL=3
      00FF4B83H   BLOCK     CODE     NEAR LAB  LVL=3
      000116FFH   SYMBOL    XDATA    ---       vstr
      00011720H   SYMBOL    XDATA    DWORD     ival
      00011724H   SYMBOL    XDATA    BYTE      vlen
      ---         BLOCKEND  ---      ---       LVL=3
      00FF4C21H   BLOCK     CODE     NEAR LAB  LVL=3
      000116FFH   SYMBOL    XDATA    ---       vstr
      00011720H   SYMBOL    XDATA    DWORD     ival
      00011724H   SYMBOL    XDATA    BYTE      vlen
      ---         BLOCKEND  ---      ---       LVL=3
      00FF4CBFH   BLOCK     CODE     NEAR LAB  LVL=3
      000116FFH   SYMBOL    XDATA    ---       pc
      ---         BLOCKEND  ---      ---       LVL=3
      00FF4D39H   BLOCK     CODE     NEAR LAB  LVL=3
      000116FFH   SYMBOL    XDATA    ---       vstr
      00011720H   SYMBOL    XDATA    DWORD     ival
      ---         BLOCKEND  ---      ---       LVL=3
      ---         BLOCKEND  ---      ---       LVL=2
      ---         BLOCKEND  ---      ---       LVL=1
      00FF4618H   LINE      CODE     ---       #733
      00FF4626H   LINE      CODE     ---       #734
      00FF4626H   LINE      CODE     ---       #735
      00FF4632H   LINE      CODE     ---       #737
      00FF4644H   LINE      CODE     ---       #739
      00FF4647H   LINE      CODE     ---       #740
      00FF4647H   LINE      CODE     ---       #741
      00FF4658H   LINE      CODE     ---       #742
      00FF4664H   LINE      CODE     ---       #744
      00FF4788H   LINE      CODE     ---       #746
      00FF4788H   LINE      CODE     ---       #749
      00FF4788H   LINE      CODE     ---       #751
      00FF4788H   LINE      CODE     ---       #752
      00FF4788H   LINE      CODE     ---       #753
      00FF47B0H   LINE      CODE     ---       #754
      00FF47B7H   LINE      CODE     ---       #755
      00FF47B9H   LINE      CODE     ---       #756
      00FF47CCH   LINE      CODE     ---       #758
      00FF47CFH   LINE      CODE     ---       #760
      00FF47CFH   LINE      CODE     ---       #761
      00FF47CFH   LINE      CODE     ---       #762
      00FF47CFH   LINE      CODE     ---       #764
      00FF47FDH   LINE      CODE     ---       #765
      00FF481EH   LINE      CODE     ---       #767
      00FF482EH   LINE      CODE     ---       #769
      00FF4844H   LINE      CODE     ---       #770
      00FF484AH   LINE      CODE     ---       #771
      00FF484AH   LINE      CODE     ---       #772
      00FF485DH   LINE      CODE     ---       #773
      00FF4874H   LINE      CODE     ---       #774
      00FF487CH   LINE      CODE     ---       #775
      00FF4897H   LINE      CODE     ---       #777
      00FF489AH   LINE      CODE     ---       #779
      00FF489AH   LINE      CODE     ---       #780
      00FF489AH   LINE      CODE     ---       #781
      00FF489AH   LINE      CODE     ---       #783
      00FF48DAH   LINE      CODE     ---       #784
      00FF4906H   LINE      CODE     ---       #786
      00FF4921H   LINE      CODE     ---       #788
      00FF4937H   LINE      CODE     ---       #789
      00FF493DH   LINE      CODE     ---       #790
      00FF493DH   LINE      CODE     ---       #791
L251 LINKER/LOCATER V4.66.93.0                                                        11/08/2025  20:32:40  PAGE 49


      00FF4950H   LINE      CODE     ---       #792
      00FF4967H   LINE      CODE     ---       #793
      00FF496FH   LINE      CODE     ---       #794
      00FF498AH   LINE      CODE     ---       #796
      00FF49DCH   LINE      CODE     ---       #797
      00FF49FAH   LINE      CODE     ---       #799
      00FF4A26H   LINE      CODE     ---       #800
      00FF4A28H   LINE      CODE     ---       #803
      00FF4A4CH   LINE      CODE     ---       #804
      00FF4A52H   LINE      CODE     ---       #805
      00FF4A52H   LINE      CODE     ---       #807
      00FF4A54H   LINE      CODE     ---       #809
      00FF4A6AH   LINE      CODE     ---       #810
      00FF4A70H   LINE      CODE     ---       #811
      00FF4A79H   LINE      CODE     ---       #813
      00FF4A8FH   LINE      CODE     ---       #814
      00FF4A95H   LINE      CODE     ---       #816
      00FF4AA8H   LINE      CODE     ---       #817
      00FF4ABFH   LINE      CODE     ---       #818
      00FF4AC7H   LINE      CODE     ---       #819
      00FF4AE2H   LINE      CODE     ---       #821
      00FF4AE5H   LINE      CODE     ---       #823
      00FF4AE5H   LINE      CODE     ---       #824
      00FF4AE5H   LINE      CODE     ---       #826
      00FF4B13H   LINE      CODE     ---       #827
      00FF4B33H   LINE      CODE     ---       #829
      00FF4B46H   LINE      CODE     ---       #830
      00FF4B5DH   LINE      CODE     ---       #831
      00FF4B65H   LINE      CODE     ---       #832
      00FF4B80H   LINE      CODE     ---       #834
      00FF4B83H   LINE      CODE     ---       #836
      00FF4B83H   LINE      CODE     ---       #837
      00FF4B83H   LINE      CODE     ---       #839
      00FF4BB1H   LINE      CODE     ---       #840
      00FF4BD1H   LINE      CODE     ---       #842
      00FF4BE4H   LINE      CODE     ---       #843
      00FF4BFBH   LINE      CODE     ---       #844
      00FF4C03H   LINE      CODE     ---       #845
      00FF4C1EH   LINE      CODE     ---       #848
      00FF4C21H   LINE      CODE     ---       #850
      00FF4C21H   LINE      CODE     ---       #851
      00FF4C21H   LINE      CODE     ---       #852
      00FF4C21H   LINE      CODE     ---       #854
      00FF4C4FH   LINE      CODE     ---       #855
      00FF4C6FH   LINE      CODE     ---       #857
      00FF4C82H   LINE      CODE     ---       #858
      00FF4C99H   LINE      CODE     ---       #859
      00FF4CA1H   LINE      CODE     ---       #860
      00FF4CBCH   LINE      CODE     ---       #862
      00FF4CBFH   LINE      CODE     ---       #864
      00FF4CBFH   LINE      CODE     ---       #865
      00FF4CBFH   LINE      CODE     ---       #866
      00FF4CEDH   LINE      CODE     ---       #867
      00FF4CEFH   LINE      CODE     ---       #869
      00FF4CFFH   LINE      CODE     ---       #870
      00FF4D01H   LINE      CODE     ---       #871
      00FF4D14H   LINE      CODE     ---       #872
      00FF4D27H   LINE      CODE     ---       #873
      00FF4D36H   LINE      CODE     ---       #875
      00FF4D39H   LINE      CODE     ---       #877
      00FF4D39H   LINE      CODE     ---       #878
      00FF4D39H   LINE      CODE     ---       #880
      00FF4D67H   LINE      CODE     ---       #882
      00FF4D83H   LINE      CODE     ---       #883
      00FF4D92H   LINE      CODE     ---       #884
L251 LINKER/LOCATER V4.66.93.0                                                        11/08/2025  20:32:40  PAGE 50


      00FF4DA7H   LINE      CODE     ---       #885
      00FF4DABH   LINE      CODE     ---       #886
      00FF4DC0H   LINE      CODE     ---       #888
      00FF4DC2H   LINE      CODE     ---       #890
      00FF4DC2H   LINE      CODE     ---       #892
      00FF4DC7H   LINE      CODE     ---       #893
      00FF4DC9H   LINE      CODE     ---       #894
      00FF4DDCH   LINE      CODE     ---       #896
      00FF4DDEH   LINE      CODE     ---       #898
      00FF4DDEH   LINE      CODE     ---       #899
      00FF4DDEH   LINE      CODE     ---       #900
      00FF4DDEH   LINE      CODE     ---       #901
      00FF4DDEH   LINE      CODE     ---       #904
      00FF4DEEH   LINE      CODE     ---       #905
      00FF4DF0H   LINE      CODE     ---       #906
      00FF4E03H   LINE      CODE     ---       #907
      00FF4E03H   LINE      CODE     ---       #908
      00FF4E16H   LINE      CODE     ---       #909
      00FF4E28H   LINE      CODE     ---       #912
      00FF4E32H   LINE      CODE     ---       #913
      ---         BLOCKEND  ---      ---       LVL=0

      ---         MODULE    ---      ---       zf_common_typedef
      0001186FH   PUBLIC    XDATA    ---       tim11_irq_handler
      00011871H   PUBLIC    XDATA    ---       uart1_irq_handler
      00011873H   PUBLIC    XDATA    ---       uart2_irq_handler
      00011875H   PUBLIC    XDATA    ---       uart3_irq_handler
      00011877H   PUBLIC    XDATA    ---       uart4_irq_handler
      00011879H   PUBLIC    XDATA    ---       tim0_irq_handler
      0001187BH   PUBLIC    XDATA    ---       int0_irq_handler
      0001187DH   PUBLIC    XDATA    ---       tim1_irq_handler
      0001187FH   PUBLIC    XDATA    ---       int1_irq_handler
      00011881H   PUBLIC    XDATA    ---       tim2_irq_handler
      00011883H   PUBLIC    XDATA    ---       int2_irq_handler
      00011885H   PUBLIC    XDATA    ---       tim3_irq_handler
      00011887H   PUBLIC    XDATA    ---       int3_irq_handler
      00011889H   PUBLIC    XDATA    ---       tim4_irq_handler
      0001188BH   PUBLIC    XDATA    ---       int4_irq_handler
      000000D0H   SFRSYM    DATA     BYTE      PSW
      0000009DH   SFRSYM    DATA     BYTE      IRCBAND
      00000097H   SFRSYM    DATA     BYTE      AUXR2
      000000EFH   SFRSYM    DATA     BYTE      AUXINTIF
      000000FDH   SFRSYM    DATA     BYTE      S4CON
      000000ACH   SFRSYM    DATA     BYTE      S3CON
      0000009AH   SFRSYM    DATA     BYTE      S2CON
      000000B7H   SFRSYM    DATA     BYTE      IPH
      000000CDH   SFRSYM    DATA     BYTE      SPSTAT
      000000DDH   SFRSYM    DATA     BYTE      T4T3M
      000000C1H   SFRSYM    DATA     BYTE      WDT_CONTR
      000000DFH   SFRSYM    DATA     BYTE      IP3
      000000F4H   SFRSYM    DATA     BYTE      USBCON
      000000B5H   SFRSYM    DATA     BYTE      IP2
      000000FFH   SFRSYM    DATA     BYTE      RSTCFG
      000000C7H   SFRSYM    DATA     BYTE      IAP_CONTR
      0000008EH   SFRSYM    DATA     BYTE      AUXR
      000000AFH   SFRSYM    DATA     BYTE      IE2
      00000088H   SFRSYM    DATA     BYTE      TCON
      00000089H   SFRSYM    DATA     BYTE      TMOD
      00000098H   SFRSYM    DATA     BYTE      SCON
      00000087H   SFRSYM    DATA     BYTE      PCON
      000000BCH   SFRSYM    DATA     BYTE      ADC_CONTR
      000000D1H   SFRSYM    DATA     BYTE      PSW1
      000000E7H   SFRSYM    DATA     BYTE      CMPCR2
      000000E6H   SFRSYM    DATA     BYTE      CMPCR1
      000000DEH   SFRSYM    DATA     BYTE      ADCCFG
L251 LINKER/LOCATER V4.66.93.0                                                        11/08/2025  20:32:40  PAGE 51


      000000B8H   SFRSYM    DATA     BYTE      IP
      0000008FH   SFRSYM    DATA     BYTE      INTCLKO
      000000EEH   SFRSYM    DATA     BYTE      IP3H
      000000B6H   SFRSYM    DATA     BYTE      IP2H
      000000BFH   SFRSYM    DATA     BYTE      P_SW4
      000000A8H   SFRSYM    DATA     BYTE      IE
      000000BBH   SFRSYM    DATA     BYTE      P_SW3
      000000BAH   SFRSYM    DATA     BYTE      P_SW2
      000000A2H   SFRSYM    DATA     BYTE      P_SW1
      000000CEH   SFRSYM    DATA     BYTE      SPCTL
      000000F8H   SFRSYM    DATA     BYTE      P7
      000000E8H   SFRSYM    DATA     BYTE      P6
      000000C8H   SFRSYM    DATA     BYTE      P5
      000000C0H   SFRSYM    DATA     BYTE      P4
      000000ABH   SFRSYM    DATA     BYTE      WKTCH
      000000B0H   SFRSYM    DATA     BYTE      P3
      000000A0H   SFRSYM    DATA     BYTE      P2
      00000090H   SFRSYM    DATA     BYTE      P1
      00000080H   SFRSYM    DATA     BYTE      P0

      ---         MODULE    ---      ---       zf_common_interrupt
      00FFABDAH   PUBLIC    CODE     ---       interrupt_set_priority
      00FF001EH   PUBLIC    CODE     ---       interrupt_global_enable
      000000D0H   SFRSYM    DATA     BYTE      PSW
      0000009DH   SFRSYM    DATA     BYTE      IRCBAND
      00000097H   SFRSYM    DATA     BYTE      AUXR2
      000000EFH   SFRSYM    DATA     BYTE      AUXINTIF
      000000FDH   SFRSYM    DATA     BYTE      S4CON
      000000ACH   SFRSYM    DATA     BYTE      S3CON
      0000009AH   SFRSYM    DATA     BYTE      S2CON
      000000B7H   SFRSYM    DATA     BYTE      IPH
      000000CDH   SFRSYM    DATA     BYTE      SPSTAT
      000000DDH   SFRSYM    DATA     BYTE      T4T3M
      000000C1H   SFRSYM    DATA     BYTE      WDT_CONTR
      000000DFH   SFRSYM    DATA     BYTE      IP3
      000000F4H   SFRSYM    DATA     BYTE      USBCON
      000000B5H   SFRSYM    DATA     BYTE      IP2
      000000FFH   SFRSYM    DATA     BYTE      RSTCFG
      000000C7H   SFRSYM    DATA     BYTE      IAP_CONTR
      0000008EH   SFRSYM    DATA     BYTE      AUXR
      000000AFH   SFRSYM    DATA     BYTE      IE2
      00000088H   SFRSYM    DATA     BYTE      TCON
      00000089H   SFRSYM    DATA     BYTE      TMOD
      00000098H   SFRSYM    DATA     BYTE      SCON
      00000087H   SFRSYM    DATA     BYTE      PCON
      000000BCH   SFRSYM    DATA     BYTE      ADC_CONTR
      000000D1H   SFRSYM    DATA     BYTE      PSW1
      000000E7H   SFRSYM    DATA     BYTE      CMPCR2
      000000E6H   SFRSYM    DATA     BYTE      CMPCR1
      000000DEH   SFRSYM    DATA     BYTE      ADCCFG
      000000B8H   SFRSYM    DATA     BYTE      IP
      0000008FH   SFRSYM    DATA     BYTE      INTCLKO
      000000EEH   SFRSYM    DATA     BYTE      IP3H
      000000B6H   SFRSYM    DATA     BYTE      IP2H
      000000BFH   SFRSYM    DATA     BYTE      P_SW4
      000000A8H   SFRSYM    DATA     BYTE      IE
      000000BBH   SFRSYM    DATA     BYTE      P_SW3
      000000BAH   SFRSYM    DATA     BYTE      P_SW2
      000000A2H   SFRSYM    DATA     BYTE      P_SW1
      000000CEH   SFRSYM    DATA     BYTE      SPCTL
      000000F8H   SFRSYM    DATA     BYTE      P7
      000000A8H.7 SFRSYM    DATA     BIT       EA
      000000E8H   SFRSYM    DATA     BYTE      P6
      000000C8H   SFRSYM    DATA     BYTE      P5
      000000C0H   SFRSYM    DATA     BYTE      P4
L251 LINKER/LOCATER V4.66.93.0                                                        11/08/2025  20:32:40  PAGE 52


      000000ABH   SFRSYM    DATA     BYTE      WKTCH
      000000B0H   SFRSYM    DATA     BYTE      P3
      000000A0H   SFRSYM    DATA     BYTE      P2
      00000090H   SFRSYM    DATA     BYTE      P1
      00000080H   SFRSYM    DATA     BYTE      P0

      00FFABDAH   BLOCK     CODE     ---       LVL=0
      WR4         REGSYM    ---      INT       irqn
      R3          REGSYM    ---      BYTE      priority
      00FFABDAH   LINE      CODE     ---       #48
      00FFABDEH   LINE      CODE     ---       #50
      00FFABE8H   LINE      CODE     ---       #52
      00FFABFCH   LINE      CODE     ---       #53
      00FFAC15H   LINE      CODE     ---       #54
      00FFAC17H   LINE      CODE     ---       #55
      00FFAC27H   LINE      CODE     ---       #57
      00FFAC3BH   LINE      CODE     ---       #58
      00FFAC54H   LINE      CODE     ---       #59
      00FFAC56H   LINE      CODE     ---       #60
      00FFAC66H   LINE      CODE     ---       #62
      00FFAC7AH   LINE      CODE     ---       #63
      00FFAC93H   LINE      CODE     ---       #64
      ---         BLOCKEND  ---      ---       LVL=0

      00FF001EH   BLOCK     CODE     ---       LVL=0
      00FF001EH   LINE      CODE     ---       #88
      00FF001EH   LINE      CODE     ---       #90
      00FF0020H   LINE      CODE     ---       #91
      ---         BLOCKEND  ---      ---       LVL=0

      ---         MODULE    ---      ---       ?C_START
      00FF0000H   PUBLIC    CODE     ---       ?C?STARTUP
      00FF0000H   PUBLIC    CODE     ---       ?C_STARTUP
      000000D0H.6 SFRSYM    DATA     BIT       AC
      000000E0H   SFRSYM    DATA     BYTE      ACC
      000000F0H   SFRSYM    DATA     BYTE      B
      000000FAH   SFRSYM    DATA     BYTE      CCAP0H
      000000EAH   SFRSYM    DATA     BYTE      CCAP0L
      000000FBH   SFRSYM    DATA     BYTE      CCAP1H
      000000EBH   SFRSYM    DATA     BYTE      CCAP1L
      000000FCH   SFRSYM    DATA     BYTE      CCAP2H
      000000ECH   SFRSYM    DATA     BYTE      CCAP2L
      000000FDH   SFRSYM    DATA     BYTE      CCAP3H
      000000EDH   SFRSYM    DATA     BYTE      CCAP3L
      000000FEH   SFRSYM    DATA     BYTE      CCAP4H
      000000EEH   SFRSYM    DATA     BYTE      CCAP4L
      000000DAH   SFRSYM    DATA     BYTE      CCAPM0
      000000DBH   SFRSYM    DATA     BYTE      CCAPM1
      000000DCH   SFRSYM    DATA     BYTE      CCAPM2
      000000DDH   SFRSYM    DATA     BYTE      CCAPM3
      000000DEH   SFRSYM    DATA     BYTE      CCAPM4
      000000D8H.0 SFRSYM    DATA     BIT       CCF0
      000000D8H.1 SFRSYM    DATA     BIT       CCF1
      000000D8H.2 SFRSYM    DATA     BIT       CCF2
      000000D8H.3 SFRSYM    DATA     BIT       CCF3
      000000D8H.4 SFRSYM    DATA     BIT       CCF4
      000000D8H   SFRSYM    DATA     BYTE      CCON
      00000090H.3 SFRSYM    DATA     BIT       CEX0
      00000090H.4 SFRSYM    DATA     BIT       CEX1
      00000090H.5 SFRSYM    DATA     BIT       CEX2
      00000090H.6 SFRSYM    DATA     BIT       CEX3
      00000090H.7 SFRSYM    DATA     BIT       CEX4
      000000D8H.7 SFRSYM    DATA     BIT       CF
      000000F9H   SFRSYM    DATA     BYTE      CH
      000000E9H   SFRSYM    DATA     BYTE      CL
L251 LINKER/LOCATER V4.66.93.0                                                        11/08/2025  20:32:40  PAGE 53


      000000D9H   SFRSYM    DATA     BYTE      CMOD
      000000C8H.0 SFRSYM    DATA     BIT       CP_RL2
      000000D8H.6 SFRSYM    DATA     BIT       CR
      000000D0H.7 SFRSYM    DATA     BIT       CY
      000000C8H.1 SFRSYM    DATA     BIT       C_T2
      00000083H   SFRSYM    DATA     BYTE      DPH
      00000082H   SFRSYM    DATA     BYTE      DPL
      00000084H   SFRSYM    DATA     BYTE      DPXL
      000000A8H.7 SFRSYM    DATA     BIT       EA
      000000A8H.6 SFRSYM    DATA     BIT       EC
      00000090H.2 SFRSYM    DATA     BIT       ECI
      000000A8H.4 SFRSYM    DATA     BIT       ES
      000000A8H.1 SFRSYM    DATA     BIT       ET0
      000000A8H.3 SFRSYM    DATA     BIT       ET1
      000000A8H.5 SFRSYM    DATA     BIT       ET2
      000000A8H.0 SFRSYM    DATA     BIT       EX0
      000000A8H.2 SFRSYM    DATA     BIT       EX1
      000000C8H.3 SFRSYM    DATA     BIT       EXEN2
      000000C8H.6 SFRSYM    DATA     BIT       EXF2
      000000D0H.5 SFRSYM    DATA     BIT       F0
      00000098H.7 SFRSYM    DATA     BIT       FE
      000000A8H   SFRSYM    DATA     BYTE      IE0
      00000088H.1 SFRSYM    DATA     BIT       IE0_
      000000B1H   SFRSYM    DATA     BYTE      IE1
      00000088H.3 SFRSYM    DATA     BIT       IE1_
      000000B0H.2 SFRSYM    DATA     BIT       INT0
      000000B0H.3 SFRSYM    DATA     BIT       INT1
      000000B7H   SFRSYM    DATA     BYTE      IPH0
      000000B8H   SFRSYM    DATA     BYTE      IPL0
      00000088H.0 SFRSYM    DATA     BIT       IT0
      00000088H.2 SFRSYM    DATA     BIT       IT1
      000000D0H.2 SFRSYM    DATA     BIT       OV
      000000D0H.0 SFRSYM    DATA     BIT       P
      00000080H   SFRSYM    DATA     BYTE      P0
      00000090H   SFRSYM    DATA     BYTE      P1
      000000A0H   SFRSYM    DATA     BYTE      P2
      000000B0H   SFRSYM    DATA     BYTE      P3
      00000087H   SFRSYM    DATA     BYTE      PCON
      000000B8H.6 SFRSYM    DATA     BIT       PPC
      000000B8H.4 SFRSYM    DATA     BIT       PS
      000000D0H   SFRSYM    DATA     BYTE      PSW
      000000D1H   SFRSYM    DATA     BYTE      PSW1
      000000B8H.1 SFRSYM    DATA     BIT       PT0
      000000B8H.3 SFRSYM    DATA     BIT       PT1
      000000B8H.5 SFRSYM    DATA     BIT       PT2
      000000B8H.0 SFRSYM    DATA     BIT       PX0
      000000B8H.2 SFRSYM    DATA     BIT       PX1
      00000098H.2 SFRSYM    DATA     BIT       RB8
      000000CBH   SFRSYM    DATA     BYTE      RCAP2H
      000000CAH   SFRSYM    DATA     BYTE      RCAP2L
      000000C8H.5 SFRSYM    DATA     BIT       RCLK
      000000B0H.7 SFRSYM    DATA     BIT       RD
      00000098H.4 SFRSYM    DATA     BIT       REN
      00000098H.0 SFRSYM    DATA     BIT       RI
      000000D0H.3 SFRSYM    DATA     BIT       RS0
      000000D0H.4 SFRSYM    DATA     BIT       RS1
      000000B0H.0 SFRSYM    DATA     BIT       RXD
      000000A9H   SFRSYM    DATA     BYTE      SADDR
      000000B9H   SFRSYM    DATA     BYTE      SADEN
      00000099H   SFRSYM    DATA     BYTE      SBUF
      00000098H   SFRSYM    DATA     BYTE      SCON
      00000098H.7 SFRSYM    DATA     BIT       SM0
      00000098H.6 SFRSYM    DATA     BIT       SM1
      00000098H.5 SFRSYM    DATA     BIT       SM2
      00000081H   SFRSYM    DATA     BYTE      SP
L251 LINKER/LOCATER V4.66.93.0                                                        11/08/2025  20:32:40  PAGE 54


      000000BEH   SFRSYM    DATA     BYTE      SPH
      000000B0H.4 SFRSYM    DATA     BIT       T0
      000000B0H.5 SFRSYM    DATA     BIT       T1
      00000090H.0 SFRSYM    DATA     BIT       T2
      000000C8H   SFRSYM    DATA     BYTE      T2CON
      00000090H.1 SFRSYM    DATA     BIT       T2EX
      000000C9H   SFRSYM    DATA     BYTE      T2MOD
      00000098H.3 SFRSYM    DATA     BIT       TB8
      000000C8H.4 SFRSYM    DATA     BIT       TCLK
      00000088H   SFRSYM    DATA     BYTE      TCON
      00000088H.5 SFRSYM    DATA     BIT       TF0
      00000088H.7 SFRSYM    DATA     BIT       TF1
      000000C8H.7 SFRSYM    DATA     BIT       TF2
      0000008CH   SFRSYM    DATA     BYTE      TH0
      0000008DH   SFRSYM    DATA     BYTE      TH1
      000000CDH   SFRSYM    DATA     BYTE      TH2
      00000098H.1 SFRSYM    DATA     BIT       TI
      0000008AH   SFRSYM    DATA     BYTE      TL0
      0000008BH   SFRSYM    DATA     BYTE      TL1
      000000CCH   SFRSYM    DATA     BYTE      TL2
      00000089H   SFRSYM    DATA     BYTE      TMOD
      00000088H.4 SFRSYM    DATA     BIT       TR0
      00000088H.6 SFRSYM    DATA     BIT       TR1
      000000C8H.2 SFRSYM    DATA     BIT       TR2
      000000B0H.1 SFRSYM    DATA     BIT       TXD
      000000A6H   SFRSYM    DATA     BYTE      WDTRST
      000000B0H.6 SFRSYM    DATA     BIT       WR
      00000800H   SYMBOL    NUMBER   ---       EDATALEN
      00FFBEE4H   SYMBOL    CODE     ---       EDATALOOP
      00000001H   SYMBOL    NUMBER   ---       EDF
      00000001H   SYMBOL    NUMBER   ---       EMAP
      00000000H   SYMBOL    NUMBER   ---       HDATALEN
      00010000H   SYMBOL    NUMBER   ---       HDATASTART
      00000000H   SYMBOL    NUMBER   ---       IBPSTACK
      00000100H   SYMBOL    NUMBER   ---       IBPSTACKTOP
      00000001H   SYMBOL    NUMBER   ---       INTR
      00000001H   SYMBOL    NUMBER   ---       PAGM
      00000003H   SYMBOL    NUMBER   ---       RDRG
      00000001H   SYMBOL    NUMBER   ---       SRCM
      00000700H   SYMBOL    NUMBER   ---       STACKSIZE
      00FFBEDCH   SYMBOL    CODE     ---       STARTUP1
      00000003H   SYMBOL    NUMBER   ---       WSA
      00000003H   SYMBOL    NUMBER   ---       WSB
      00000001H   SYMBOL    NUMBER   ---       XALE
      00000000H   SYMBOL    NUMBER   ---       XBPSTACK
      00010000H   SYMBOL    NUMBER   ---       XBPSTACKTOP
      00008000H   SYMBOL    NUMBER   ---       XDATALEN
      00FFBEF3H   SYMBOL    CODE     ---       XDATALOOP
      00010000H   SYMBOL    NUMBER   ---       XDATASTART

      00FF0000H   BLOCK     CODE     NEAR LAB  LVL=0
      00FF0000H   LINE      CODE     ---       #183
      ---         BLOCKEND  ---      ---       LVL=0

      00FFBEDCH   BLOCK     CODE     NEAR LAB  LVL=0
      00FFBEDCH   LINE      CODE     ---       #188
      00FFBEDFH   LINE      CODE     ---       #191
      00FFBEE3H   LINE      CODE     ---       #192
      00FFBEE4H   LINE      CODE     ---       #193
      00FFBEE7H   LINE      CODE     ---       #194
      00FFBEE9H   LINE      CODE     ---       #195
      00FFBEEBH   LINE      CODE     ---       #199
      00FFBEEEH   LINE      CODE     ---       #200
      00FFBEF2H   LINE      CODE     ---       #201
      00FFBEF3H   LINE      CODE     ---       #202
L251 LINKER/LOCATER V4.66.93.0                                                        11/08/2025  20:32:40  PAGE 55


      00FFBEF4H   LINE      CODE     ---       #203
      00FFBEF5H   LINE      CODE     ---       #204
      00FFBEF7H   LINE      CODE     ---       #205
      00FFBEF9H   LINE      CODE     ---       #235
      ---         BLOCKEND  ---      ---       LVL=0

      00FFBF30H   BLOCK     CODE     NEAR LAB  LVL=0
      00FFBF30H   LINE      CODE     ---       #238
      ---         BLOCKEND  ---      ---       LVL=0

      ---         MODULE    ---      ---       zf_driver_adc
      00FFC6DDH   PUBLIC    CODE     ---       adc_convert
      00FFB781H   PUBLIC    CODE     ---       adc_init
      00000094H   SFRSYM    DATA     BYTE      P0M0
      000000D0H   SFRSYM    DATA     BYTE      PSW
      0000009DH   SFRSYM    DATA     BYTE      IRCBAND
      00000097H   SFRSYM    DATA     BYTE      AUXR2
      000000EFH   SFRSYM    DATA     BYTE      AUXINTIF
      000000FDH   SFRSYM    DATA     BYTE      S4CON
      000000ACH   SFRSYM    DATA     BYTE      S3CON
      0000009AH   SFRSYM    DATA     BYTE      S2CON
      000000B7H   SFRSYM    DATA     BYTE      IPH
      000000CDH   SFRSYM    DATA     BYTE      SPSTAT
      000000BEH   SFRSYM    DATA     BYTE      ADC_RESL
      000000DDH   SFRSYM    DATA     BYTE      T4T3M
      000000C1H   SFRSYM    DATA     BYTE      WDT_CONTR
      000000DFH   SFRSYM    DATA     BYTE      IP3
      000000F4H   SFRSYM    DATA     BYTE      USBCON
      000000B5H   SFRSYM    DATA     BYTE      IP2
      000000FFH   SFRSYM    DATA     BYTE      RSTCFG
      000000C7H   SFRSYM    DATA     BYTE      IAP_CONTR
      0000008EH   SFRSYM    DATA     BYTE      AUXR
      000000AFH   SFRSYM    DATA     BYTE      IE2
      00000088H   SFRSYM    DATA     BYTE      TCON
      00000089H   SFRSYM    DATA     BYTE      TMOD
      00000098H   SFRSYM    DATA     BYTE      SCON
      00000087H   SFRSYM    DATA     BYTE      PCON
      000000BCH   SFRSYM    DATA     BYTE      ADC_CONTR
      000000D1H   SFRSYM    DATA     BYTE      PSW1
      000000E7H   SFRSYM    DATA     BYTE      CMPCR2
      000000E6H   SFRSYM    DATA     BYTE      CMPCR1
      000000DEH   SFRSYM    DATA     BYTE      ADCCFG
      000000B8H   SFRSYM    DATA     BYTE      IP
      0000008FH   SFRSYM    DATA     BYTE      INTCLKO
      000000EEH   SFRSYM    DATA     BYTE      IP3H
      000000B6H   SFRSYM    DATA     BYTE      IP2H
      000000BDH   SFRSYM    DATA     BYTE      ADC_RES
      000000BFH   SFRSYM    DATA     BYTE      P_SW4
      000000A8H   SFRSYM    DATA     BYTE      IE
      000000BBH   SFRSYM    DATA     BYTE      P_SW3
      000000BAH   SFRSYM    DATA     BYTE      P_SW2
      000000A2H   SFRSYM    DATA     BYTE      P_SW1
      000000CEH   SFRSYM    DATA     BYTE      SPCTL
      000000F8H   SFRSYM    DATA     BYTE      P7
      000000E8H   SFRSYM    DATA     BYTE      P6
      000000C8H   SFRSYM    DATA     BYTE      P5
      000000C0H   SFRSYM    DATA     BYTE      P4
      000000ABH   SFRSYM    DATA     BYTE      WKTCH
      000000B0H   SFRSYM    DATA     BYTE      P3
      000000A0H   SFRSYM    DATA     BYTE      P2
      00000090H   SFRSYM    DATA     BYTE      P1
      00000080H   SFRSYM    DATA     BYTE      P0
      00000091H   SFRSYM    DATA     BYTE      P1M1
      00000092H   SFRSYM    DATA     BYTE      P1M0
      00000093H   SFRSYM    DATA     BYTE      P0M1
L251 LINKER/LOCATER V4.66.93.0                                                        11/08/2025  20:32:40  PAGE 56


      00011983H   SYMBOL    XDATA    BYTE      adc_resolution
      WR14        REGSYM    ---      INT       ch
      R13         REGSYM    ---      BYTE      count
      R12         REGSYM    ---      BYTE      i

      00FFC6DDH   BLOCK     CODE     ---       LVL=0
      WR6         REGSYM    ---      INT       ch
      WR6         REGSYM    ---      WORD      adc_value
      00FFC6DDH   LINE      CODE     ---       #75
      00FFC6DDH   LINE      CODE     ---       #76
      00FFC6DDH   LINE      CODE     ---       #79
      00FFC6E0H   LINE      CODE     ---       #80
      00FFC6E4H   LINE      CODE     ---       #82
      00FFC6E7H   LINE      CODE     ---       #84
      00FFC6ECH   LINE      CODE     ---       #86
      00FFC6EFH   LINE      CODE     ---       #88
      00FFC6F1H   LINE      CODE     ---       #89
      00FFC6F5H   LINE      CODE     ---       #90
      00FFC6FBH   LINE      CODE     ---       #92
      00FFC6FEH   LINE      CODE     ---       #93
      00FFC701H   LINE      CODE     ---       #95
      00FFC70CH   LINE      CODE     ---       #98
      00FFC70CH   LINE      CODE     ---       #99
      ---         BLOCKEND  ---      ---       LVL=0

      00FFB781H   BLOCK     CODE     ---       LVL=0
      WR4         REGSYM    ---      INT       ch
      WR2         REGSYM    ---      INT       resolution
      00FFB781H   LINE      CODE     ---       #108
      00FFB785H   LINE      CODE     ---       #110
      00FFB788H   LINE      CODE     ---       #112
      00FFB78BH   LINE      CODE     ---       #113
      00FFB791H   LINE      CODE     ---       #115
      00FFB79FH   LINE      CODE     ---       #118
      00FFB7B4H   LINE      CODE     ---       #119
      00FFB7C7H   LINE      CODE     ---       #120
      00FFB7C9H   LINE      CODE     ---       #121
      00FFB7D3H   LINE      CODE     ---       #124
      00FFB7E8H   LINE      CODE     ---       #125
      00FFB7FBH   LINE      CODE     ---       #126
      00FFB7FBH   LINE      CODE     ---       #128
      00FFB7FFH   LINE      CODE     ---       #130
      00FFB802H   LINE      CODE     ---       #132
      00FFB808H   LINE      CODE     ---       #133
      ---         BLOCKEND  ---      ---       LVL=0

      ---         MODULE    ---      ---       zf_driver_delay
      00FFBDC5H   PUBLIC    CODE     ---       system_delay_init
      00FFBB61H   PUBLIC    CODE     ---       system_delay_ms
      000000D0H   SFRSYM    DATA     BYTE      PSW
      0000009DH   SFRSYM    DATA     BYTE      IRCBAND
      00000097H   SFRSYM    DATA     BYTE      AUXR2
      000000EFH   SFRSYM    DATA     BYTE      AUXINTIF
      000000FDH   SFRSYM    DATA     BYTE      S4CON
      000000ACH   SFRSYM    DATA     BYTE      S3CON
      0000009AH   SFRSYM    DATA     BYTE      S2CON
      000000B7H   SFRSYM    DATA     BYTE      IPH
      000000CDH   SFRSYM    DATA     BYTE      SPSTAT
      000000DDH   SFRSYM    DATA     BYTE      T4T3M
      000000C1H   SFRSYM    DATA     BYTE      WDT_CONTR
      000000DFH   SFRSYM    DATA     BYTE      IP3
      000000F4H   SFRSYM    DATA     BYTE      USBCON
      000000B5H   SFRSYM    DATA     BYTE      IP2
      000000FFH   SFRSYM    DATA     BYTE      RSTCFG
      000000C7H   SFRSYM    DATA     BYTE      IAP_CONTR
L251 LINKER/LOCATER V4.66.93.0                                                        11/08/2025  20:32:40  PAGE 57


      0000008EH   SFRSYM    DATA     BYTE      AUXR
      000000AFH   SFRSYM    DATA     BYTE      IE2
      00000088H   SFRSYM    DATA     BYTE      TCON
      00000089H   SFRSYM    DATA     BYTE      TMOD
      00000098H   SFRSYM    DATA     BYTE      SCON
      00000087H   SFRSYM    DATA     BYTE      PCON
      000000BCH   SFRSYM    DATA     BYTE      ADC_CONTR
      000000D1H   SFRSYM    DATA     BYTE      PSW1
      000000E7H   SFRSYM    DATA     BYTE      CMPCR2
      000000E6H   SFRSYM    DATA     BYTE      CMPCR1
      000000DEH   SFRSYM    DATA     BYTE      ADCCFG
      000000B8H   SFRSYM    DATA     BYTE      IP
      0000008FH   SFRSYM    DATA     BYTE      INTCLKO
      000000EEH   SFRSYM    DATA     BYTE      IP3H
      000000B6H   SFRSYM    DATA     BYTE      IP2H
      000000BFH   SFRSYM    DATA     BYTE      P_SW4
      000000A8H   SFRSYM    DATA     BYTE      IE
      000000BBH   SFRSYM    DATA     BYTE      P_SW3
      000000BAH   SFRSYM    DATA     BYTE      P_SW2
      000000A2H   SFRSYM    DATA     BYTE      P_SW1
      000000CEH   SFRSYM    DATA     BYTE      SPCTL
      000000F8H   SFRSYM    DATA     BYTE      P7
      000000E8H   SFRSYM    DATA     BYTE      P6
      000000C8H   SFRSYM    DATA     BYTE      P5
      000000C0H   SFRSYM    DATA     BYTE      P4
      000000ABH   SFRSYM    DATA     BYTE      WKTCH
      000000B0H   SFRSYM    DATA     BYTE      P3
      000000A0H   SFRSYM    DATA     BYTE      P2
      00000090H   SFRSYM    DATA     BYTE      P1
      00000080H   SFRSYM    DATA     BYTE      P0
      00011976H   SYMBOL    XDATA    WORD      pca_delay_1ms
      00011978H   SYMBOL    XDATA    WORD      pca_delay_1us

      00FFBDC5H   BLOCK     CODE     ---       LVL=0
      00FFBDC5H   LINE      CODE     ---       #48
      00FFBDC5H   LINE      CODE     ---       #50
      00FFBDDCH   LINE      CODE     ---       #51
      00FFBDF7H   LINE      CODE     ---       #53
      00FFBE04H   LINE      CODE     ---       #54
      00FFBE11H   LINE      CODE     ---       #55
      00FFBE21H   LINE      CODE     ---       #57
      ---         BLOCKEND  ---      ---       LVL=0

      00FFBB61H   BLOCK     CODE     ---       LVL=0
      WR8         REGSYM    ---      WORD      ms
      00FFBB63H   BLOCK     CODE     NEAR LAB  LVL=1
      WR6         REGSYM    ---      WORD      temp
      ---         BLOCKEND  ---      ---       LVL=1
      00FFBB61H   LINE      CODE     ---       #65
      00FFBB63H   LINE      CODE     ---       #66
      00FFBB63H   LINE      CODE     ---       #69
      00FFBB65H   LINE      CODE     ---       #71
      00FFBB89H   LINE      CODE     ---       #73
      00FFBB96H   LINE      CODE     ---       #74
      00FFBBA5H   LINE      CODE     ---       #76
      00FFBBB3H   LINE      CODE     ---       #77
      00FFBBC3H   LINE      CODE     ---       #78
      00FFBBCBH   LINE      CODE     ---       #79
      ---         BLOCKEND  ---      ---       LVL=0
      WR8         REGSYM    ---      WORD      ms
      WR6         REGSYM    ---      WORD      temp

      ---         MODULE    ---      ---       zf_driver_eeprom
      000000D0H   SFRSYM    DATA     BYTE      PSW
      0000009DH   SFRSYM    DATA     BYTE      IRCBAND
L251 LINKER/LOCATER V4.66.93.0                                                        11/08/2025  20:32:40  PAGE 58


      00000097H   SFRSYM    DATA     BYTE      AUXR2
      000000C6H   SFRSYM    DATA     BYTE      IAP_TRIG
      000000EFH   SFRSYM    DATA     BYTE      AUXINTIF
      000000FDH   SFRSYM    DATA     BYTE      S4CON
      000000ACH   SFRSYM    DATA     BYTE      S3CON
      0000009AH   SFRSYM    DATA     BYTE      S2CON
      000000B7H   SFRSYM    DATA     BYTE      IPH
      000000CDH   SFRSYM    DATA     BYTE      SPSTAT
      000000DDH   SFRSYM    DATA     BYTE      T4T3M
      000000C1H   SFRSYM    DATA     BYTE      WDT_CONTR
      000000C2H   SFRSYM    DATA     BYTE      IAP_DATA
      000000DFH   SFRSYM    DATA     BYTE      IP3
      000000F4H   SFRSYM    DATA     BYTE      USBCON
      000000B5H   SFRSYM    DATA     BYTE      IP2
      000000FFH   SFRSYM    DATA     BYTE      RSTCFG
      000000C7H   SFRSYM    DATA     BYTE      IAP_CONTR
      0000008EH   SFRSYM    DATA     BYTE      AUXR
      000000AFH   SFRSYM    DATA     BYTE      IE2
      00000088H   SFRSYM    DATA     BYTE      TCON
      00000089H   SFRSYM    DATA     BYTE      TMOD
      00000098H   SFRSYM    DATA     BYTE      SCON
      000000F5H   SFRSYM    DATA     BYTE      IAP_TPS
      00000087H   SFRSYM    DATA     BYTE      PCON
      000000BCH   SFRSYM    DATA     BYTE      ADC_CONTR
      000000D1H   SFRSYM    DATA     BYTE      PSW1
      000000E7H   SFRSYM    DATA     BYTE      CMPCR2
      000000E6H   SFRSYM    DATA     BYTE      CMPCR1
      000000C4H   SFRSYM    DATA     BYTE      IAP_ADDRL
      000000C3H   SFRSYM    DATA     BYTE      IAP_ADDRH
      000000F6H   SFRSYM    DATA     BYTE      IAP_ADDRE
      000000DEH   SFRSYM    DATA     BYTE      ADCCFG
      000000B8H   SFRSYM    DATA     BYTE      IP
      0000008FH   SFRSYM    DATA     BYTE      INTCLKO
      000000EEH   SFRSYM    DATA     BYTE      IP3H
      000000B6H   SFRSYM    DATA     BYTE      IP2H
      000000C5H   SFRSYM    DATA     BYTE      IAP_CMD
      000000BFH   SFRSYM    DATA     BYTE      P_SW4
      000000A8H   SFRSYM    DATA     BYTE      IE
      000000BBH   SFRSYM    DATA     BYTE      P_SW3
      000000BAH   SFRSYM    DATA     BYTE      P_SW2
      000000A2H   SFRSYM    DATA     BYTE      P_SW1
      000000CEH   SFRSYM    DATA     BYTE      SPCTL
      000000F8H   SFRSYM    DATA     BYTE      P7
      000000A8H.7 SFRSYM    DATA     BIT       EA
      000000E8H   SFRSYM    DATA     BYTE      P6
      000000C8H   SFRSYM    DATA     BYTE      P5
      000000C0H   SFRSYM    DATA     BYTE      P4
      000000ABH   SFRSYM    DATA     BYTE      WKTCH
      000000B0H   SFRSYM    DATA     BYTE      P3
      000000A0H   SFRSYM    DATA     BYTE      P2
      00000090H   SFRSYM    DATA     BYTE      P1
      00000080H   SFRSYM    DATA     BYTE      P0
      00FFE6EEH   SYMBOL    HCONST   ---       ?tpl?0001
      R7          REGSYM    ---      BYTE      write_time
      DR0         REGSYM    ---      DWORD     addr
      R11         REGSYM    ---      BYTE      temp
      DR0         REGSYM    ---      DWORD     addr
      R15         REGSYM    ---      BYTE      byte
      REG=3       REGSYM    ---      ---       buf
      REG=3       REGSYM    ---      ---       buf
      DR0         REGSYM    ---      DWORD     addr
      REG=3       REGSYM    ---      ---       buf

      ---         MODULE    ---      ---       zf_driver_encoder
      00FFB09CH   PUBLIC    CODE     ---       encoder_get_count
L251 LINKER/LOCATER V4.66.93.0                                                        11/08/2025  20:32:40  PAGE 59


      00FF9FE6H   PUBLIC    CODE     ---       encoder_dir_init
      00FFB27DH   PUBLIC    CODE     ---       encoder_clear_count
      000000D0H   SFRSYM    DATA     BYTE      PSW
      0000009DH   SFRSYM    DATA     BYTE      IRCBAND
      00000097H   SFRSYM    DATA     BYTE      AUXR2
      000000EFH   SFRSYM    DATA     BYTE      AUXINTIF
      000000FDH   SFRSYM    DATA     BYTE      S4CON
      000000ACH   SFRSYM    DATA     BYTE      S3CON
      0000009AH   SFRSYM    DATA     BYTE      S2CON
      000000B7H   SFRSYM    DATA     BYTE      IPH
      000000CDH   SFRSYM    DATA     BYTE      SPSTAT
      000000DDH   SFRSYM    DATA     BYTE      T4T3M
      000000C1H   SFRSYM    DATA     BYTE      WDT_CONTR
      00000088H.6 SFRSYM    DATA     BIT       TR1
      00000088H.4 SFRSYM    DATA     BIT       TR0
      000000D3H   SFRSYM    DATA     BYTE      T4L
      000000D5H   SFRSYM    DATA     BYTE      T3L
      000000D7H   SFRSYM    DATA     BYTE      T2L
      0000008BH   SFRSYM    DATA     BYTE      TL1
      0000008AH   SFRSYM    DATA     BYTE      TL0
      000000D2H   SFRSYM    DATA     BYTE      T4H
      000000D4H   SFRSYM    DATA     BYTE      T3H
      000000D6H   SFRSYM    DATA     BYTE      T2H
      0000008DH   SFRSYM    DATA     BYTE      TH1
      0000008CH   SFRSYM    DATA     BYTE      TH0
      000000DFH   SFRSYM    DATA     BYTE      IP3
      000000F4H   SFRSYM    DATA     BYTE      USBCON
      000000B5H   SFRSYM    DATA     BYTE      IP2
      000000FFH   SFRSYM    DATA     BYTE      RSTCFG
      000000C7H   SFRSYM    DATA     BYTE      IAP_CONTR
      0000008EH   SFRSYM    DATA     BYTE      AUXR
      000000AFH   SFRSYM    DATA     BYTE      IE2
      00000088H   SFRSYM    DATA     BYTE      TCON
      00000089H   SFRSYM    DATA     BYTE      TMOD
      00000098H   SFRSYM    DATA     BYTE      SCON
      00000087H   SFRSYM    DATA     BYTE      PCON
      000000BCH   SFRSYM    DATA     BYTE      ADC_CONTR
      000000D1H   SFRSYM    DATA     BYTE      PSW1
      000000E7H   SFRSYM    DATA     BYTE      CMPCR2
      000000E6H   SFRSYM    DATA     BYTE      CMPCR1
      000000DEH   SFRSYM    DATA     BYTE      ADCCFG
      000000B8H   SFRSYM    DATA     BYTE      IP
      0000008FH   SFRSYM    DATA     BYTE      INTCLKO
      000000EEH   SFRSYM    DATA     BYTE      IP3H
      000000B6H   SFRSYM    DATA     BYTE      IP2H
      000000BFH   SFRSYM    DATA     BYTE      P_SW4
      000000A8H   SFRSYM    DATA     BYTE      IE
      000000BBH   SFRSYM    DATA     BYTE      P_SW3
      000000BAH   SFRSYM    DATA     BYTE      P_SW2
      000000A2H   SFRSYM    DATA     BYTE      P_SW1
      000000CEH   SFRSYM    DATA     BYTE      SPCTL
      000000F8H   SFRSYM    DATA     BYTE      P7
      000000E8H   SFRSYM    DATA     BYTE      P6
      000000C8H   SFRSYM    DATA     BYTE      P5
      000000C0H   SFRSYM    DATA     BYTE      P4
      000000ABH   SFRSYM    DATA     BYTE      WKTCH
      000000B0H   SFRSYM    DATA     BYTE      P3
      000000A0H   SFRSYM    DATA     BYTE      P2
      00000090H   SFRSYM    DATA     BYTE      P1
      00000080H   SFRSYM    DATA     BYTE      P0
      0001196CH   SYMBOL    XDATA    ---       encoder_dir_pin

      00FFB09CH   BLOCK     CODE     ---       LVL=0
      WR2         REGSYM    ---      INT       encoder_n
      00FFB0A0H   BLOCK     CODE     NEAR LAB  LVL=1
L251 LINKER/LOCATER V4.66.93.0                                                        11/08/2025  20:32:40  PAGE 60


      WR14        REGSYM    ---      INT       dat
      ---         BLOCKEND  ---      ---       LVL=1
      00FFB09CH   LINE      CODE     ---       #48
      00FFB0A0H   LINE      CODE     ---       #49
      00FFB0A0H   LINE      CODE     ---       #50
      00FFB0A2H   LINE      CODE     ---       #52
      00FFB0BEH   LINE      CODE     ---       #54
      00FFB0BEH   LINE      CODE     ---       #56
      00FFB0C4H   LINE      CODE     ---       #57
      00FFB0CAH   LINE      CODE     ---       #58
      00FFB0CCH   LINE      CODE     ---       #61
      00FFB0CCH   LINE      CODE     ---       #63
      00FFB0D2H   LINE      CODE     ---       #64
      00FFB0D8H   LINE      CODE     ---       #65
      00FFB0DAH   LINE      CODE     ---       #68
      00FFB0DAH   LINE      CODE     ---       #70
      00FFB0E0H   LINE      CODE     ---       #71
      00FFB0E6H   LINE      CODE     ---       #72
      00FFB0E8H   LINE      CODE     ---       #75
      00FFB0E8H   LINE      CODE     ---       #77
      00FFB0EEH   LINE      CODE     ---       #78
      00FFB0F4H   LINE      CODE     ---       #79
      00FFB0F6H   LINE      CODE     ---       #82
      00FFB0F6H   LINE      CODE     ---       #84
      00FFB0FCH   LINE      CODE     ---       #85
      00FFB102H   LINE      CODE     ---       #86
      00FFB104H   LINE      CODE     ---       #89
      00FFB104H   LINE      CODE     ---       #91
      00FFB113H   LINE      CODE     ---       #92
      00FFB122H   LINE      CODE     ---       #93
      00FFB122H   LINE      CODE     ---       #96
      00FFB122H   LINE      CODE     ---       #98
      00FFB136H   LINE      CODE     ---       #100
      00FFB13CH   LINE      CODE     ---       #101
      00FFB13CH   LINE      CODE     ---       #103
      00FFB13EH   LINE      CODE     ---       #104
      ---         BLOCKEND  ---      ---       LVL=0

      00FFB27DH   BLOCK     CODE     ---       LVL=0
      WR6         REGSYM    ---      INT       encoder_n
      00FFB27DH   LINE      CODE     ---       #113
      00FFB27DH   LINE      CODE     ---       #115
      00FFB297H   LINE      CODE     ---       #117
      00FFB297H   LINE      CODE     ---       #119
      00FFB299H   LINE      CODE     ---       #120
      00FFB29CH   LINE      CODE     ---       #121
      00FFB29FH   LINE      CODE     ---       #122
      00FFB2A1H   LINE      CODE     ---       #123
      00FFB2A3H   LINE      CODE     ---       #126
      00FFB2A3H   LINE      CODE     ---       #128
      00FFB2A5H   LINE      CODE     ---       #129
      00FFB2A8H   LINE      CODE     ---       #130
      00FFB2ABH   LINE      CODE     ---       #131
      00FFB2ADH   LINE      CODE     ---       #132
      00FFB2AFH   LINE      CODE     ---       #135
      00FFB2AFH   LINE      CODE     ---       #137
      00FFB2B2H   LINE      CODE     ---       #138
      00FFB2B5H   LINE      CODE     ---       #139
      00FFB2B8H   LINE      CODE     ---       #140
      00FFB2BBH   LINE      CODE     ---       #141
      00FFB2BDH   LINE      CODE     ---       #144
      00FFB2BDH   LINE      CODE     ---       #146
      00FFB2C0H   LINE      CODE     ---       #147
      00FFB2C3H   LINE      CODE     ---       #148
      00FFB2C6H   LINE      CODE     ---       #149
L251 LINKER/LOCATER V4.66.93.0                                                        11/08/2025  20:32:40  PAGE 61


      00FFB2C9H   LINE      CODE     ---       #150
      00FFB2CBH   LINE      CODE     ---       #153
      00FFB2CBH   LINE      CODE     ---       #155
      00FFB2CEH   LINE      CODE     ---       #156
      00FFB2D1H   LINE      CODE     ---       #157
      00FFB2D4H   LINE      CODE     ---       #158
      00FFB2D7H   LINE      CODE     ---       #159
      00FFB2D9H   LINE      CODE     ---       #162
      00FFB2D9H   LINE      CODE     ---       #164
      00FFB2E9H   LINE      CODE     ---       #165
      00FFB2F5H   LINE      CODE     ---       #166
      00FFB301H   LINE      CODE     ---       #167
      00FFB311H   LINE      CODE     ---       #168
      00FFB311H   LINE      CODE     ---       #170
      00FFB311H   LINE      CODE     ---       #171
      ---         BLOCKEND  ---      ---       LVL=0

      00FF9FE6H   BLOCK     CODE     ---       LVL=0
      WR14        REGSYM    ---      INT       encoder_n
      WR12        REGSYM    ---      INT       dir_pin
      00011695H   SYMBOL    XDATA    INT       lsb_pin
      00FF9FE6H   LINE      CODE     ---       #183
      00FF9FF2H   LINE      CODE     ---       #189
      00FFA008H   LINE      CODE     ---       #190
      00FFA024H   LINE      CODE     ---       #191
      00FFA044H   LINE      CODE     ---       #194
      00FFA050H   LINE      CODE     ---       #196
      00FFA063H   LINE      CODE     ---       #198
      00FFA072H   LINE      CODE     ---       #200
      00FFA08CH   LINE      CODE     ---       #202
      00FFA08CH   LINE      CODE     ---       #204
      00FFA08FH   LINE      CODE     ---       #205
      00FFA092H   LINE      CODE     ---       #206
      00FFA095H   LINE      CODE     ---       #207
      00FFA097H   LINE      CODE     ---       #208
      00FFA099H   LINE      CODE     ---       #211
      00FFA099H   LINE      CODE     ---       #213
      00FFA09CH   LINE      CODE     ---       #214
      00FFA09FH   LINE      CODE     ---       #215
      00FFA0A2H   LINE      CODE     ---       #216
      00FFA0A4H   LINE      CODE     ---       #217
      00FFA0A6H   LINE      CODE     ---       #220
      00FFA0A6H   LINE      CODE     ---       #222
      00FFA0A9H   LINE      CODE     ---       #223
      00FFA0ACH   LINE      CODE     ---       #224
      00FFA0AFH   LINE      CODE     ---       #225
      00FFA0B1H   LINE      CODE     ---       #228
      00FFA0B1H   LINE      CODE     ---       #230
      00FFA0B4H   LINE      CODE     ---       #231
      00FFA0B7H   LINE      CODE     ---       #232
      00FFA0BAH   LINE      CODE     ---       #233
      00FFA0BCH   LINE      CODE     ---       #236
      00FFA0BCH   LINE      CODE     ---       #238
      00FFA0BFH   LINE      CODE     ---       #239
      00FFA0C2H   LINE      CODE     ---       #240
      00FFA0C5H   LINE      CODE     ---       #241
      00FFA0C7H   LINE      CODE     ---       #244
      00FFA0C7H   LINE      CODE     ---       #246
      00FFA0D3H   LINE      CODE     ---       #247
      00FFA0DFH   LINE      CODE     ---       #248
      00FFA0EFH   LINE      CODE     ---       #249
      00FFA0EFH   LINE      CODE     ---       #251
      00FFA0EFH   LINE      CODE     ---       #252
      ---         BLOCKEND  ---      ---       LVL=0

L251 LINKER/LOCATER V4.66.93.0                                                        11/08/2025  20:32:40  PAGE 62


      ---         MODULE    ---      ---       zf_driver_exti
      000000D0H   SFRSYM    DATA     BYTE      PSW
      0000009DH   SFRSYM    DATA     BYTE      IRCBAND
      00000097H   SFRSYM    DATA     BYTE      AUXR2
      000000EFH   SFRSYM    DATA     BYTE      AUXINTIF
      000000FDH   SFRSYM    DATA     BYTE      S4CON
      000000ACH   SFRSYM    DATA     BYTE      S3CON
      0000009AH   SFRSYM    DATA     BYTE      S2CON
      000000B7H   SFRSYM    DATA     BYTE      IPH
      000000CDH   SFRSYM    DATA     BYTE      SPSTAT
      000000DDH   SFRSYM    DATA     BYTE      T4T3M
      000000C1H   SFRSYM    DATA     BYTE      WDT_CONTR
      000000DFH   SFRSYM    DATA     BYTE      IP3
      000000F4H   SFRSYM    DATA     BYTE      USBCON
      000000B5H   SFRSYM    DATA     BYTE      IP2
      000000FFH   SFRSYM    DATA     BYTE      RSTCFG
      000000C7H   SFRSYM    DATA     BYTE      IAP_CONTR
      0000008EH   SFRSYM    DATA     BYTE      AUXR
      000000AFH   SFRSYM    DATA     BYTE      IE2
      00000088H   SFRSYM    DATA     BYTE      TCON
      00000089H   SFRSYM    DATA     BYTE      TMOD
      00000098H   SFRSYM    DATA     BYTE      SCON
      00000087H   SFRSYM    DATA     BYTE      PCON
      000000BCH   SFRSYM    DATA     BYTE      ADC_CONTR
      000000D1H   SFRSYM    DATA     BYTE      PSW1
      000000E7H   SFRSYM    DATA     BYTE      CMPCR2
      000000E6H   SFRSYM    DATA     BYTE      CMPCR1
      000000DEH   SFRSYM    DATA     BYTE      ADCCFG
      000000B8H   SFRSYM    DATA     BYTE      IP
      0000008FH   SFRSYM    DATA     BYTE      INTCLKO
      000000EEH   SFRSYM    DATA     BYTE      IP3H
      000000B6H   SFRSYM    DATA     BYTE      IP2H
      000000BFH   SFRSYM    DATA     BYTE      P_SW4
      000000A8H   SFRSYM    DATA     BYTE      IE
      000000BBH   SFRSYM    DATA     BYTE      P_SW3
      000000BAH   SFRSYM    DATA     BYTE      P_SW2
      000000A2H   SFRSYM    DATA     BYTE      P_SW1
      000000CEH   SFRSYM    DATA     BYTE      SPCTL
      000000F8H   SFRSYM    DATA     BYTE      P7
      000000E8H   SFRSYM    DATA     BYTE      P6
      000000C8H   SFRSYM    DATA     BYTE      P5
      000000C0H   SFRSYM    DATA     BYTE      P4
      000000ABH   SFRSYM    DATA     BYTE      WKTCH
      000000B0H   SFRSYM    DATA     BYTE      P3
      000000A0H   SFRSYM    DATA     BYTE      P2
      00000090H   SFRSYM    DATA     BYTE      P1
      00000080H   SFRSYM    DATA     BYTE      P0

      ---         MODULE    ---      ---       zf_driver_gpio
      00FFAA63H   PUBLIC    CODE     ---       gpio_init
      00FF00C6H   PUBLIC    CODE     ---       gpio_get_level
      00FF80A8H   PUBLIC    CODE     ---       gpio_set_level_speed
      00FF94A8H   PUBLIC    CODE     ---       gpio_set_level
      00FF99FCH   PUBLIC    CODE     ---       gpio_set_impedance
      00000094H   SFRSYM    DATA     BYTE      P0M0
      000000D0H   SFRSYM    DATA     BYTE      PSW
      0000009DH   SFRSYM    DATA     BYTE      IRCBAND
      00000097H   SFRSYM    DATA     BYTE      AUXR2
      000000EFH   SFRSYM    DATA     BYTE      AUXINTIF
      000000FDH   SFRSYM    DATA     BYTE      S4CON
      000000ACH   SFRSYM    DATA     BYTE      S3CON
      0000009AH   SFRSYM    DATA     BYTE      S2CON
      000000B7H   SFRSYM    DATA     BYTE      IPH
      000000CDH   SFRSYM    DATA     BYTE      SPSTAT
      000000DDH   SFRSYM    DATA     BYTE      T4T3M
L251 LINKER/LOCATER V4.66.93.0                                                        11/08/2025  20:32:40  PAGE 63


      000000C1H   SFRSYM    DATA     BYTE      WDT_CONTR
      000000DFH   SFRSYM    DATA     BYTE      IP3
      000000F4H   SFRSYM    DATA     BYTE      USBCON
      000000B5H   SFRSYM    DATA     BYTE      IP2
      000000FFH   SFRSYM    DATA     BYTE      RSTCFG
      000000C7H   SFRSYM    DATA     BYTE      IAP_CONTR
      0000008EH   SFRSYM    DATA     BYTE      AUXR
      000000AFH   SFRSYM    DATA     BYTE      IE2
      00000088H   SFRSYM    DATA     BYTE      TCON
      00000089H   SFRSYM    DATA     BYTE      TMOD
      00000098H   SFRSYM    DATA     BYTE      SCON
      00000087H   SFRSYM    DATA     BYTE      PCON
      000000BCH   SFRSYM    DATA     BYTE      ADC_CONTR
      000000D1H   SFRSYM    DATA     BYTE      PSW1
      000000E7H   SFRSYM    DATA     BYTE      CMPCR2
      000000E6H   SFRSYM    DATA     BYTE      CMPCR1
      000000DEH   SFRSYM    DATA     BYTE      ADCCFG
      000000B8H   SFRSYM    DATA     BYTE      IP
      0000008FH   SFRSYM    DATA     BYTE      INTCLKO
      000000EEH   SFRSYM    DATA     BYTE      IP3H
      000000B6H   SFRSYM    DATA     BYTE      IP2H
      000000BFH   SFRSYM    DATA     BYTE      P_SW4
      000000A8H   SFRSYM    DATA     BYTE      IE
      000000BBH   SFRSYM    DATA     BYTE      P_SW3
      000000BAH   SFRSYM    DATA     BYTE      P_SW2
      000000A2H   SFRSYM    DATA     BYTE      P_SW1
      000000CEH   SFRSYM    DATA     BYTE      SPCTL
      000000F8H   SFRSYM    DATA     BYTE      P7
      000000E8H   SFRSYM    DATA     BYTE      P6
      000000C8H   SFRSYM    DATA     BYTE      P5
      000000C0H   SFRSYM    DATA     BYTE      P4
      000000C9H   SFRSYM    DATA     BYTE      P5M1
      000000ABH   SFRSYM    DATA     BYTE      WKTCH
      000000B0H   SFRSYM    DATA     BYTE      P3
      000000B3H   SFRSYM    DATA     BYTE      P4M1
      000000CAH   SFRSYM    DATA     BYTE      P5M0
      000000A0H   SFRSYM    DATA     BYTE      P2
      000000B1H   SFRSYM    DATA     BYTE      P3M1
      000000B4H   SFRSYM    DATA     BYTE      P4M0
      00000090H   SFRSYM    DATA     BYTE      P1
      00000095H   SFRSYM    DATA     BYTE      P2M1
      000000B2H   SFRSYM    DATA     BYTE      P3M0
      00000080H   SFRSYM    DATA     BYTE      P0
      00000091H   SFRSYM    DATA     BYTE      P1M1
      00000096H   SFRSYM    DATA     BYTE      P2M0
      00000092H   SFRSYM    DATA     BYTE      P1M0
      00000093H   SFRSYM    DATA     BYTE      P0M1
      00FF7081H   SYMBOL    CODE     ---       gpio_set_dir
      00FF87CEH   SYMBOL    CODE     ---       gpio_set_mode

      00FF87CEH   BLOCK     CODE     ---       LVL=0
      WR4         REGSYM    ---      INT       pin
      WR8         REGSYM    ---      INT       mode
      00FF87CEH   LINE      CODE     ---       #45
      00FF87D2H   LINE      CODE     ---       #51
      00FF87DEH   LINE      CODE     ---       #53
      00FF880DH   LINE      CODE     ---       #54
      00FF883CH   LINE      CODE     ---       #55
      00FF883FH   LINE      CODE     ---       #56
      00FF8845H   LINE      CODE     ---       #58
      00FF8872H   LINE      CODE     ---       #59
      00FF8875H   LINE      CODE     ---       #60
      00FF8881H   LINE      CODE     ---       #62
      00FF88AEH   LINE      CODE     ---       #63
      00FF88B1H   LINE      CODE     ---       #64
L251 LINKER/LOCATER V4.66.93.0                                                        11/08/2025  20:32:40  PAGE 64


      00FF88BAH   LINE      CODE     ---       #66
      00FF88F0H   LINE      CODE     ---       #68
      00FF88F0H   LINE      CODE     ---       #70
      00FF8903H   LINE      CODE     ---       #71
      00FF8916H   LINE      CODE     ---       #73
      00FF8919H   LINE      CODE     ---       #75
      00FF8919H   LINE      CODE     ---       #77
      00FF892CH   LINE      CODE     ---       #78
      00FF893FH   LINE      CODE     ---       #80
      00FF8942H   LINE      CODE     ---       #82
      00FF8942H   LINE      CODE     ---       #84
      00FF8955H   LINE      CODE     ---       #85
      00FF8968H   LINE      CODE     ---       #87
      00FF896BH   LINE      CODE     ---       #89
      00FF896BH   LINE      CODE     ---       #91
      00FF897EH   LINE      CODE     ---       #92
      00FF8991H   LINE      CODE     ---       #94
      00FF8993H   LINE      CODE     ---       #96
      00FF8993H   LINE      CODE     ---       #98
      00FF89A6H   LINE      CODE     ---       #99
      00FF89B9H   LINE      CODE     ---       #101
      00FF89BBH   LINE      CODE     ---       #103
      00FF89BBH   LINE      CODE     ---       #105
      00FF89CEH   LINE      CODE     ---       #106
      00FF89E1H   LINE      CODE     ---       #108
      00FF89E3H   LINE      CODE     ---       #109
      00FF89E3H   LINE      CODE     ---       #112
      00FF89E3H   LINE      CODE     ---       #113
      00FF89E3H   LINE      CODE     ---       #114
      00FF89E3H   LINE      CODE     ---       #117
      00FF89F3H   LINE      CODE     ---       #119
      00FF89F3H   LINE      CODE     ---       #120
      ---         BLOCKEND  ---      ---       LVL=0

      00FF80A8H   BLOCK     CODE     ---       LVL=0
      WR14        REGSYM    ---      INT       pin
      WR12        REGSYM    ---      INT       speed
      00FF80A8H   LINE      CODE     ---       #123
      00FF80AEH   LINE      CODE     ---       #125
      00FF80E8H   LINE      CODE     ---       #127
      00FF80E8H   LINE      CODE     ---       #129
      00FF80ECH   LINE      CODE     ---       #131
      00FF810FH   LINE      CODE     ---       #132
      00FF8112H   LINE      CODE     ---       #133
      00FF8118H   LINE      CODE     ---       #135
      00FF8139H   LINE      CODE     ---       #136
      00FF813CH   LINE      CODE     ---       #139
      00FF814CH   LINE      CODE     ---       #141
      00FF814CH   LINE      CODE     ---       #143
      00FF814FH   LINE      CODE     ---       #145
      00FF814FH   LINE      CODE     ---       #147
      00FF8153H   LINE      CODE     ---       #149
      00FF8176H   LINE      CODE     ---       #150
      00FF8179H   LINE      CODE     ---       #151
      00FF817FH   LINE      CODE     ---       #153
      00FF81A0H   LINE      CODE     ---       #154
      00FF81A3H   LINE      CODE     ---       #157
      00FF81B3H   LINE      CODE     ---       #159
      00FF81B3H   LINE      CODE     ---       #161
      00FF81B6H   LINE      CODE     ---       #163
      00FF81B6H   LINE      CODE     ---       #165
      00FF81BAH   LINE      CODE     ---       #167
      00FF81DDH   LINE      CODE     ---       #168
      00FF81E0H   LINE      CODE     ---       #169
      00FF81E6H   LINE      CODE     ---       #171
L251 LINKER/LOCATER V4.66.93.0                                                        11/08/2025  20:32:40  PAGE 65


      00FF8207H   LINE      CODE     ---       #172
      00FF820AH   LINE      CODE     ---       #175
      00FF821AH   LINE      CODE     ---       #177
      00FF821AH   LINE      CODE     ---       #179
      00FF821DH   LINE      CODE     ---       #181
      00FF821DH   LINE      CODE     ---       #183
      00FF8221H   LINE      CODE     ---       #185
      00FF8244H   LINE      CODE     ---       #186
      00FF8247H   LINE      CODE     ---       #187
      00FF824DH   LINE      CODE     ---       #189
      00FF826EH   LINE      CODE     ---       #190
      00FF8271H   LINE      CODE     ---       #193
      00FF8281H   LINE      CODE     ---       #195
      00FF8281H   LINE      CODE     ---       #197
      00FF8284H   LINE      CODE     ---       #199
      00FF8284H   LINE      CODE     ---       #201
      00FF8288H   LINE      CODE     ---       #203
      00FF82ABH   LINE      CODE     ---       #204
      00FF82AEH   LINE      CODE     ---       #205
      00FF82B4H   LINE      CODE     ---       #207
      00FF82D5H   LINE      CODE     ---       #208
      00FF82D8H   LINE      CODE     ---       #211
      00FF82E8H   LINE      CODE     ---       #213
      00FF82E8H   LINE      CODE     ---       #215
      00FF82EAH   LINE      CODE     ---       #217
      00FF82EAH   LINE      CODE     ---       #219
      00FF82EEH   LINE      CODE     ---       #221
      00FF8311H   LINE      CODE     ---       #222
      00FF8313H   LINE      CODE     ---       #223
      00FF8319H   LINE      CODE     ---       #225
      00FF833AH   LINE      CODE     ---       #226
      00FF833CH   LINE      CODE     ---       #229
      00FF834CH   LINE      CODE     ---       #231
      00FF834CH   LINE      CODE     ---       #233
      00FF834EH   LINE      CODE     ---       #235
      00FF834EH   LINE      CODE     ---       #237
      00FF835EH   LINE      CODE     ---       #239
      00FF835EH   LINE      CODE     ---       #240
      00FF835EH   LINE      CODE     ---       #241
      ---         BLOCKEND  ---      ---       LVL=0

      00FF7081H   BLOCK     CODE     ---       LVL=0
      WR4         REGSYM    ---      INT       pin
      WR2         REGSYM    ---      INT       dir
      00FF7081H   LINE      CODE     ---       #245
      00FF7085H   LINE      CODE     ---       #247
      00FF70BFH   LINE      CODE     ---       #249
      00FF70BFH   LINE      CODE     ---       #251
      00FF70C5H   LINE      CODE     ---       #253
      00FF70DAH   LINE      CODE     ---       #254
      00FF70EFH   LINE      CODE     ---       #255
      00FF70F2H   LINE      CODE     ---       #261
      00FF70F8H   LINE      CODE     ---       #263
      00FF710DH   LINE      CODE     ---       #264
      00FF7120H   LINE      CODE     ---       #265
      00FF7123H   LINE      CODE     ---       #266
      00FF712AH   LINE      CODE     ---       #268
      00FF713DH   LINE      CODE     ---       #269
      00FF7152H   LINE      CODE     ---       #270
      00FF7152H   LINE      CODE     ---       #272
      00FF7155H   LINE      CODE     ---       #274
      00FF7155H   LINE      CODE     ---       #276
      00FF715BH   LINE      CODE     ---       #278
      00FF7170H   LINE      CODE     ---       #279
      00FF7185H   LINE      CODE     ---       #280
L251 LINKER/LOCATER V4.66.93.0                                                        11/08/2025  20:32:40  PAGE 66


      00FF7188H   LINE      CODE     ---       #286
      00FF718EH   LINE      CODE     ---       #288
      00FF71A3H   LINE      CODE     ---       #289
      00FF71B6H   LINE      CODE     ---       #290
      00FF71B9H   LINE      CODE     ---       #291
      00FF71C0H   LINE      CODE     ---       #293
      00FF71D3H   LINE      CODE     ---       #294
      00FF71E8H   LINE      CODE     ---       #295
      00FF71E8H   LINE      CODE     ---       #297
      00FF71EBH   LINE      CODE     ---       #299
      00FF71EBH   LINE      CODE     ---       #301
      00FF71F1H   LINE      CODE     ---       #303
      00FF7206H   LINE      CODE     ---       #304
      00FF721BH   LINE      CODE     ---       #305
      00FF721EH   LINE      CODE     ---       #311
      00FF7224H   LINE      CODE     ---       #313
      00FF7239H   LINE      CODE     ---       #314
      00FF724CH   LINE      CODE     ---       #315
      00FF724FH   LINE      CODE     ---       #316
      00FF7256H   LINE      CODE     ---       #318
      00FF7269H   LINE      CODE     ---       #319
      00FF727EH   LINE      CODE     ---       #320
      00FF727EH   LINE      CODE     ---       #322
      00FF7281H   LINE      CODE     ---       #324
      00FF7281H   LINE      CODE     ---       #326
      00FF7287H   LINE      CODE     ---       #328
      00FF729CH   LINE      CODE     ---       #329
      00FF72B1H   LINE      CODE     ---       #330
      00FF72B4H   LINE      CODE     ---       #336
      00FF72BAH   LINE      CODE     ---       #338
      00FF72CFH   LINE      CODE     ---       #339
      00FF72E2H   LINE      CODE     ---       #340
      00FF72E5H   LINE      CODE     ---       #341
      00FF72ECH   LINE      CODE     ---       #343
      00FF72FFH   LINE      CODE     ---       #344
      00FF7314H   LINE      CODE     ---       #345
      00FF7314H   LINE      CODE     ---       #347
      00FF7317H   LINE      CODE     ---       #349
      00FF7317H   LINE      CODE     ---       #351
      00FF731DH   LINE      CODE     ---       #353
      00FF7332H   LINE      CODE     ---       #354
      00FF7347H   LINE      CODE     ---       #355
      00FF734AH   LINE      CODE     ---       #361
      00FF7350H   LINE      CODE     ---       #363
      00FF7365H   LINE      CODE     ---       #364
      00FF7378H   LINE      CODE     ---       #365
      00FF737BH   LINE      CODE     ---       #366
      00FF7382H   LINE      CODE     ---       #368
      00FF7395H   LINE      CODE     ---       #369
      00FF73AAH   LINE      CODE     ---       #370
      00FF73AAH   LINE      CODE     ---       #372
      00FF73ADH   LINE      CODE     ---       #374
      00FF73ADH   LINE      CODE     ---       #376
      00FF73B3H   LINE      CODE     ---       #378
      00FF73C8H   LINE      CODE     ---       #379
      00FF73DDH   LINE      CODE     ---       #380
      00FF73DFH   LINE      CODE     ---       #386
      00FF73E5H   LINE      CODE     ---       #388
      00FF73FAH   LINE      CODE     ---       #389
      00FF740DH   LINE      CODE     ---       #390
      00FF740FH   LINE      CODE     ---       #391
      00FF7413H   LINE      CODE     ---       #393
      00FF7426H   LINE      CODE     ---       #394
      00FF743BH   LINE      CODE     ---       #395
      00FF743BH   LINE      CODE     ---       #397
L251 LINKER/LOCATER V4.66.93.0                                                        11/08/2025  20:32:40  PAGE 67


      00FF743DH   LINE      CODE     ---       #399
      00FF743DH   LINE      CODE     ---       #401
      00FF744DH   LINE      CODE     ---       #403
      00FF744DH   LINE      CODE     ---       #404
      00FF744DH   LINE      CODE     ---       #405
      ---         BLOCKEND  ---      ---       LVL=0

      00FF00C6H   BLOCK     CODE     ---       LVL=0
      WR4         REGSYM    ---      INT       pin
      00FF00CAH   BLOCK     CODE     NEAR LAB  LVL=1
      R15         REGSYM    ---      BYTE      status
      ---         BLOCKEND  ---      ---       LVL=1
      00FF00C6H   LINE      CODE     ---       #413
      00FF00CAH   LINE      CODE     ---       #414
      00FF00CAH   LINE      CODE     ---       #415
      00FF00CCH   LINE      CODE     ---       #417
      00FF00F9H   LINE      CODE     ---       #419
      00FF00F9H   LINE      CODE     ---       #421
      00FF010DH   LINE      CODE     ---       #423
      00FF010FH   LINE      CODE     ---       #425
      00FF010FH   LINE      CODE     ---       #427
      00FF0123H   LINE      CODE     ---       #429
      00FF0125H   LINE      CODE     ---       #431
      00FF0125H   LINE      CODE     ---       #433
      00FF0139H   LINE      CODE     ---       #435
      00FF013BH   LINE      CODE     ---       #437
      00FF013BH   LINE      CODE     ---       #439
      00FF014FH   LINE      CODE     ---       #441
      00FF0151H   LINE      CODE     ---       #443
      00FF0151H   LINE      CODE     ---       #445
      00FF0165H   LINE      CODE     ---       #447
      00FF0167H   LINE      CODE     ---       #449
      00FF0167H   LINE      CODE     ---       #451
      00FF017BH   LINE      CODE     ---       #453
      00FF017DH   LINE      CODE     ---       #455
      00FF017DH   LINE      CODE     ---       #457
      00FF018DH   LINE      CODE     ---       #459
      00FF018DH   LINE      CODE     ---       #460
      00FF018DH   LINE      CODE     ---       #462
      00FF0196H   LINE      CODE     ---       #463
      ---         BLOCKEND  ---      ---       LVL=0

      00FF94A8H   BLOCK     CODE     ---       LVL=0
      WR4         REGSYM    ---      INT       pin
      R10         REGSYM    ---      BYTE      dat
      00FF94A8H   LINE      CODE     ---       #472
      00FF94ACH   LINE      CODE     ---       #474
      00FF94E3H   LINE      CODE     ---       #476
      00FF94E3H   LINE      CODE     ---       #478
      00FF94E7H   LINE      CODE     ---       #480
      00FF94FAH   LINE      CODE     ---       #481
      00FF94FDH   LINE      CODE     ---       #484
      00FF9512H   LINE      CODE     ---       #485
      00FF9512H   LINE      CODE     ---       #487
      00FF9515H   LINE      CODE     ---       #489
      00FF9515H   LINE      CODE     ---       #491
      00FF9519H   LINE      CODE     ---       #493
      00FF952CH   LINE      CODE     ---       #494
      00FF952FH   LINE      CODE     ---       #497
      00FF9544H   LINE      CODE     ---       #498
      00FF9544H   LINE      CODE     ---       #500
      00FF9547H   LINE      CODE     ---       #502
      00FF9547H   LINE      CODE     ---       #504
      00FF954BH   LINE      CODE     ---       #506
      00FF955EH   LINE      CODE     ---       #507
L251 LINKER/LOCATER V4.66.93.0                                                        11/08/2025  20:32:40  PAGE 68


      00FF9561H   LINE      CODE     ---       #510
      00FF9576H   LINE      CODE     ---       #511
      00FF9576H   LINE      CODE     ---       #513
      00FF9579H   LINE      CODE     ---       #515
      00FF9579H   LINE      CODE     ---       #517
      00FF957DH   LINE      CODE     ---       #519
      00FF9590H   LINE      CODE     ---       #520
      00FF9593H   LINE      CODE     ---       #523
      00FF95A8H   LINE      CODE     ---       #524
      00FF95A8H   LINE      CODE     ---       #526
      00FF95AAH   LINE      CODE     ---       #528
      00FF95AAH   LINE      CODE     ---       #530
      00FF95AEH   LINE      CODE     ---       #532
      00FF95C1H   LINE      CODE     ---       #533
      00FF95C3H   LINE      CODE     ---       #536
      00FF95D8H   LINE      CODE     ---       #537
      00FF95D8H   LINE      CODE     ---       #539
      00FF95DAH   LINE      CODE     ---       #541
      00FF95DAH   LINE      CODE     ---       #543
      00FF95DEH   LINE      CODE     ---       #545
      00FF95F1H   LINE      CODE     ---       #546
      00FF95F3H   LINE      CODE     ---       #549
      00FF9608H   LINE      CODE     ---       #550
      00FF9608H   LINE      CODE     ---       #552
      00FF960AH   LINE      CODE     ---       #554
      00FF960AH   LINE      CODE     ---       #556
      00FF961AH   LINE      CODE     ---       #558
      00FF961AH   LINE      CODE     ---       #559
      00FF961AH   LINE      CODE     ---       #560
      ---         BLOCKEND  ---      ---       LVL=0
      WR14        REGSYM    ---      INT       pin

      00FF99FCH   BLOCK     CODE     ---       LVL=0
      WR4         REGSYM    ---      INT       pin
      00FF99FCH   LINE      CODE     ---       #587
      00FF99FEH   LINE      CODE     ---       #589
      00FF9A32H   LINE      CODE     ---       #591
      00FF9A32H   LINE      CODE     ---       #593
      00FF9A45H   LINE      CODE     ---       #594
      00FF9A5AH   LINE      CODE     ---       #596
      00FF9A5DH   LINE      CODE     ---       #598
      00FF9A5DH   LINE      CODE     ---       #600
      00FF9A70H   LINE      CODE     ---       #601
      00FF9A85H   LINE      CODE     ---       #603
      00FF9A88H   LINE      CODE     ---       #605
      00FF9A88H   LINE      CODE     ---       #607
      00FF9A9BH   LINE      CODE     ---       #608
      00FF9AB0H   LINE      CODE     ---       #610
      00FF9AB3H   LINE      CODE     ---       #612
      00FF9AB3H   LINE      CODE     ---       #614
      00FF9AC6H   LINE      CODE     ---       #615
      00FF9ADBH   LINE      CODE     ---       #617
      00FF9ADDH   LINE      CODE     ---       #619
      00FF9ADDH   LINE      CODE     ---       #621
      00FF9AF0H   LINE      CODE     ---       #622
      00FF9B05H   LINE      CODE     ---       #624
      00FF9B07H   LINE      CODE     ---       #626
      00FF9B07H   LINE      CODE     ---       #628
      00FF9B1AH   LINE      CODE     ---       #629
      00FF9B2FH   LINE      CODE     ---       #631
      00FF9B31H   LINE      CODE     ---       #633
      00FF9B31H   LINE      CODE     ---       #635
      00FF9B41H   LINE      CODE     ---       #637
      00FF9B41H   LINE      CODE     ---       #638
      00FF9B41H   LINE      CODE     ---       #639
L251 LINKER/LOCATER V4.66.93.0                                                        11/08/2025  20:32:40  PAGE 69


      ---         BLOCKEND  ---      ---       LVL=0

      00FFAA63H   BLOCK     CODE     ---       LVL=0
      WR14        REGSYM    ---      INT       pin
      000116A5H   SYMBOL    XDATA    INT       dir
      000116A7H   SYMBOL    XDATA    BYTE      dat
      WR12        REGSYM    ---      INT       mode
      00FFAA63H   LINE      CODE     ---       #650
      00FFAA73H   LINE      CODE     ---       #652
      00FFAA9BH   LINE      CODE     ---       #654
      00FFAAA7H   LINE      CODE     ---       #656
      00FFAAB0H   LINE      CODE     ---       #657
      00FFAAB7H   LINE      CODE     ---       #658
      00FFAAB9H   LINE      CODE     ---       #659
      00FFAAC3H   LINE      CODE     ---       #661
      00FFAAC7H   LINE      CODE     ---       #663
      00FFAACCH   LINE      CODE     ---       #664
      00FFAACEH   LINE      CODE     ---       #667
      00FFAAD5H   LINE      CODE     ---       #668
      00FFAADCH   LINE      CODE     ---       #669
      00FFAADCH   LINE      CODE     ---       #670
      00FFAADEH   LINE      CODE     ---       #671
      00FFAAEAH   LINE      CODE     ---       #673
      00FFAAF0H   LINE      CODE     ---       #675
      00FFAAF9H   LINE      CODE     ---       #676
      00FFAB02H   LINE      CODE     ---       #677
      00FFAB04H   LINE      CODE     ---       #678
      00FFAB0AH   LINE      CODE     ---       #680
      00FFAB13H   LINE      CODE     ---       #681
      00FFAB13H   LINE      CODE     ---       #683
      00FFAB1CH   LINE      CODE     ---       #684
      ---         BLOCKEND  ---      ---       LVL=0

      ---         MODULE    ---      ---       zf_driver_pit
      00FF8BFEH   PUBLIC    CODE     ---       pit_init
      000000D0H   SFRSYM    DATA     BYTE      PSW
      0000009DH   SFRSYM    DATA     BYTE      IRCBAND
      00000097H   SFRSYM    DATA     BYTE      AUXR2
      000000EFH   SFRSYM    DATA     BYTE      AUXINTIF
      000000FDH   SFRSYM    DATA     BYTE      S4CON
      000000ACH   SFRSYM    DATA     BYTE      S3CON
      0000009AH   SFRSYM    DATA     BYTE      S2CON
      000000B7H   SFRSYM    DATA     BYTE      IPH
      000000CDH   SFRSYM    DATA     BYTE      SPSTAT
      000000DDH   SFRSYM    DATA     BYTE      T4T3M
      000000C1H   SFRSYM    DATA     BYTE      WDT_CONTR
      00000088H.6 SFRSYM    DATA     BIT       TR1
      00000088H.4 SFRSYM    DATA     BIT       TR0
      000000D3H   SFRSYM    DATA     BYTE      T4L
      000000D5H   SFRSYM    DATA     BYTE      T3L
      000000D7H   SFRSYM    DATA     BYTE      T2L
      0000008BH   SFRSYM    DATA     BYTE      TL1
      0000008AH   SFRSYM    DATA     BYTE      TL0
      000000D2H   SFRSYM    DATA     BYTE      T4H
      000000D4H   SFRSYM    DATA     BYTE      T3H
      000000D6H   SFRSYM    DATA     BYTE      T2H
      0000008DH   SFRSYM    DATA     BYTE      TH1
      0000008CH   SFRSYM    DATA     BYTE      TH0
      000000DFH   SFRSYM    DATA     BYTE      IP3
      000000F4H   SFRSYM    DATA     BYTE      USBCON
      000000B5H   SFRSYM    DATA     BYTE      IP2
      000000FFH   SFRSYM    DATA     BYTE      RSTCFG
      000000A8H.3 SFRSYM    DATA     BIT       ET1
      000000A8H.1 SFRSYM    DATA     BIT       ET0
      000000C7H   SFRSYM    DATA     BYTE      IAP_CONTR
L251 LINKER/LOCATER V4.66.93.0                                                        11/08/2025  20:32:40  PAGE 70


      0000008EH   SFRSYM    DATA     BYTE      AUXR
      000000AFH   SFRSYM    DATA     BYTE      IE2
      00000088H   SFRSYM    DATA     BYTE      TCON
      00000089H   SFRSYM    DATA     BYTE      TMOD
      00000098H   SFRSYM    DATA     BYTE      SCON
      00000087H   SFRSYM    DATA     BYTE      PCON
      000000BCH   SFRSYM    DATA     BYTE      ADC_CONTR
      000000D1H   SFRSYM    DATA     BYTE      PSW1
      000000E7H   SFRSYM    DATA     BYTE      CMPCR2
      000000E6H   SFRSYM    DATA     BYTE      CMPCR1
      000000DEH   SFRSYM    DATA     BYTE      ADCCFG
      000000B8H   SFRSYM    DATA     BYTE      IP
      0000008FH   SFRSYM    DATA     BYTE      INTCLKO
      000000EEH   SFRSYM    DATA     BYTE      IP3H
      000000B6H   SFRSYM    DATA     BYTE      IP2H
      000000BFH   SFRSYM    DATA     BYTE      P_SW4
      000000A8H   SFRSYM    DATA     BYTE      IE
      000000BBH   SFRSYM    DATA     BYTE      P_SW3
      000000BAH   SFRSYM    DATA     BYTE      P_SW2
      000000A2H   SFRSYM    DATA     BYTE      P_SW1
      000000CEH   SFRSYM    DATA     BYTE      SPCTL
      000000F8H   SFRSYM    DATA     BYTE      P7
      000000E8H   SFRSYM    DATA     BYTE      P6
      000000C8H   SFRSYM    DATA     BYTE      P5
      000000C0H   SFRSYM    DATA     BYTE      P4
      000000ABH   SFRSYM    DATA     BYTE      WKTCH
      000000B0H   SFRSYM    DATA     BYTE      P3
      000000A0H   SFRSYM    DATA     BYTE      P2
      00000090H   SFRSYM    DATA     BYTE      P1
      00000080H   SFRSYM    DATA     BYTE      P0

      00FF8BFEH   BLOCK     CODE     ---       LVL=0
      WR30        REGSYM    ---      INT       pit_n
      DR24        REGSYM    ---      DWORD     period
      00FF8C04H   BLOCK     CODE     NEAR LAB  LVL=1
      R15         REGSYM    ---      BYTE      freq_div
      WR22        REGSYM    ---      WORD      period_temp
      WR28        REGSYM    ---      WORD      temp
      ---         BLOCKEND  ---      ---       LVL=1
      00FF8BFEH   LINE      CODE     ---       #50
      00FF8C04H   LINE      CODE     ---       #51
      00FF8C04H   LINE      CODE     ---       #52
      00FF8C06H   LINE      CODE     ---       #53
      00FF8C08H   LINE      CODE     ---       #54
      00FF8C0AH   LINE      CODE     ---       #57
      00FF8C16H   LINE      CODE     ---       #60
      00FF8C21H   LINE      CODE     ---       #62
      00FF8C25H   LINE      CODE     ---       #64
      00FF8C28H   LINE      CODE     ---       #65
      00FF8C2BH   LINE      CODE     ---       #66
      00FF8C31H   LINE      CODE     ---       #68
      00FF8C34H   LINE      CODE     ---       #69
      00FF8C37H   LINE      CODE     ---       #70
      00FF8C3DH   LINE      CODE     ---       #72
      00FF8C40H   LINE      CODE     ---       #73
      00FF8C42H   LINE      CODE     ---       #74
      00FF8C48H   LINE      CODE     ---       #76
      00FF8C4BH   LINE      CODE     ---       #77
      00FF8C4DH   LINE      CODE     ---       #78
      00FF8C53H   LINE      CODE     ---       #80
      00FF8C56H   LINE      CODE     ---       #81
      00FF8C58H   LINE      CODE     ---       #82
      00FF8C5EH   LINE      CODE     ---       #84
      00FF8C6EH   LINE      CODE     ---       #85
      00FF8C70H   LINE      CODE     ---       #91
L251 LINKER/LOCATER V4.66.93.0                                                        11/08/2025  20:32:40  PAGE 71


      00FF8C74H   LINE      CODE     ---       #93
      00FF8C77H   LINE      CODE     ---       #94
      00FF8C79H   LINE      CODE     ---       #95
      00FF8C7FH   LINE      CODE     ---       #97
      00FF8C82H   LINE      CODE     ---       #98
      00FF8C84H   LINE      CODE     ---       #99
      00FF8C8AH   LINE      CODE     ---       #101
      00FF8C8DH   LINE      CODE     ---       #102
      00FF8C8FH   LINE      CODE     ---       #103
      00FF8C95H   LINE      CODE     ---       #105
      00FF8C98H   LINE      CODE     ---       #106
      00FF8C9AH   LINE      CODE     ---       #107
      00FF8CA0H   LINE      CODE     ---       #109
      00FF8CA3H   LINE      CODE     ---       #110
      00FF8CA5H   LINE      CODE     ---       #111
      00FF8CABH   LINE      CODE     ---       #113
      00FF8CBBH   LINE      CODE     ---       #114
      00FF8CBBH   LINE      CODE     ---       #118
      00FF8CCBH   LINE      CODE     ---       #119
      00FF8CD8H   LINE      CODE     ---       #121
      00FF8CDCH   LINE      CODE     ---       #123
      00FF8CE0H   LINE      CODE     ---       #125
      00FF8CEBH   LINE      CODE     ---       #126
      00FF8CEFH   LINE      CODE     ---       #127
      00FF8CF5H   LINE      CODE     ---       #128
      00FF8CFBH   LINE      CODE     ---       #129
      00FF8CFDH   LINE      CODE     ---       #130
      00FF8CFFH   LINE      CODE     ---       #131
      00FF8D02H   LINE      CODE     ---       #132
      00FF8D08H   LINE      CODE     ---       #134
      00FF8D13H   LINE      CODE     ---       #135
      00FF8D17H   LINE      CODE     ---       #136
      00FF8D1DH   LINE      CODE     ---       #137
      00FF8D23H   LINE      CODE     ---       #138
      00FF8D25H   LINE      CODE     ---       #139
      00FF8D27H   LINE      CODE     ---       #140
      00FF8D2AH   LINE      CODE     ---       #141
      00FF8D30H   LINE      CODE     ---       #143
      00FF8D3BH   LINE      CODE     ---       #144
      00FF8D41H   LINE      CODE     ---       #145
      00FF8D47H   LINE      CODE     ---       #146
      00FF8D4AH   LINE      CODE     ---       #147
      00FF8D4DH   LINE      CODE     ---       #148
      00FF8D50H   LINE      CODE     ---       #149
      00FF8D56H   LINE      CODE     ---       #151
      00FF8D61H   LINE      CODE     ---       #152
      00FF8D67H   LINE      CODE     ---       #153
      00FF8D6DH   LINE      CODE     ---       #154
      00FF8D70H   LINE      CODE     ---       #155
      00FF8D73H   LINE      CODE     ---       #156
      00FF8D75H   LINE      CODE     ---       #157
      00FF8D7BH   LINE      CODE     ---       #159
      00FF8D86H   LINE      CODE     ---       #160
      00FF8D8CH   LINE      CODE     ---       #161
      00FF8D92H   LINE      CODE     ---       #162
      00FF8D95H   LINE      CODE     ---       #163
      00FF8D98H   LINE      CODE     ---       #164
      00FF8D9AH   LINE      CODE     ---       #165
      00FF8DA0H   LINE      CODE     ---       #167
      00FF8DABH   LINE      CODE     ---       #168
      00FF8DBAH   LINE      CODE     ---       #169
      00FF8DC9H   LINE      CODE     ---       #170
      00FF8DD6H   LINE      CODE     ---       #172
      ---         BLOCKEND  ---      ---       LVL=0

L251 LINKER/LOCATER V4.66.93.0                                                        11/08/2025  20:32:40  PAGE 72


      ---         MODULE    ---      ---       zf_driver_pwm
      00FFEE9FH   PUBLIC    HCONST   ---       PWM_PSCR_ADDR
      00FFEEA7H   PUBLIC    HCONST   ---       PWM_CCR_ADDR
      00FFEEC7H   PUBLIC    HCONST   ---       PWM_ARR_ADDR
      00FFEECFH   PUBLIC    HCONST   ---       PWM_CCER_ADDR
      00FFEEDFH   PUBLIC    HCONST   ---       PWM_CCMR_ADDR
      00FF9318H   PUBLIC    CODE     ---       pwm_set_duty
      00FF5972H   PUBLIC    CODE     ---       pwm_init
      00011693H   PUBLIC    XDATA    BYTE      ?pwm_init?BYTE
      000000D0H   SFRSYM    DATA     BYTE      PSW
      0000009DH   SFRSYM    DATA     BYTE      IRCBAND
      00000097H   SFRSYM    DATA     BYTE      AUXR2
      000000EFH   SFRSYM    DATA     BYTE      AUXINTIF
      000000FDH   SFRSYM    DATA     BYTE      S4CON
      000000ACH   SFRSYM    DATA     BYTE      S3CON
      0000009AH   SFRSYM    DATA     BYTE      S2CON
      000000B7H   SFRSYM    DATA     BYTE      IPH
      000000CDH   SFRSYM    DATA     BYTE      SPSTAT
      000000DDH   SFRSYM    DATA     BYTE      T4T3M
      000000C1H   SFRSYM    DATA     BYTE      WDT_CONTR
      000000DFH   SFRSYM    DATA     BYTE      IP3
      000000F4H   SFRSYM    DATA     BYTE      USBCON
      000000B5H   SFRSYM    DATA     BYTE      IP2
      000000FFH   SFRSYM    DATA     BYTE      RSTCFG
      000000C7H   SFRSYM    DATA     BYTE      IAP_CONTR
      0000008EH   SFRSYM    DATA     BYTE      AUXR
      000000AFH   SFRSYM    DATA     BYTE      IE2
      00000088H   SFRSYM    DATA     BYTE      TCON
      00000089H   SFRSYM    DATA     BYTE      TMOD
      00000098H   SFRSYM    DATA     BYTE      SCON
      00000087H   SFRSYM    DATA     BYTE      PCON
      000000BCH   SFRSYM    DATA     BYTE      ADC_CONTR
      000000D1H   SFRSYM    DATA     BYTE      PSW1
      000000E7H   SFRSYM    DATA     BYTE      CMPCR2
      000000E6H   SFRSYM    DATA     BYTE      CMPCR1
      000000DEH   SFRSYM    DATA     BYTE      ADCCFG
      000000B8H   SFRSYM    DATA     BYTE      IP
      0000008FH   SFRSYM    DATA     BYTE      INTCLKO
      000000EEH   SFRSYM    DATA     BYTE      IP3H
      000000B6H   SFRSYM    DATA     BYTE      IP2H
      000000BFH   SFRSYM    DATA     BYTE      P_SW4
      000000A8H   SFRSYM    DATA     BYTE      IE
      000000BBH   SFRSYM    DATA     BYTE      P_SW3
      000000BAH   SFRSYM    DATA     BYTE      P_SW2
      000000A2H   SFRSYM    DATA     BYTE      P_SW1
      000000CEH   SFRSYM    DATA     BYTE      SPCTL
      000000F8H   SFRSYM    DATA     BYTE      P7
      000000E8H   SFRSYM    DATA     BYTE      P6
      000000C8H   SFRSYM    DATA     BYTE      P5
      000000C0H   SFRSYM    DATA     BYTE      P4
      000000ABH   SFRSYM    DATA     BYTE      WKTCH
      000000B0H   SFRSYM    DATA     BYTE      P3
      000000A0H   SFRSYM    DATA     BYTE      P2
      00000090H   SFRSYM    DATA     BYTE      P1
      00000080H   SFRSYM    DATA     BYTE      P0
      WR14        REGSYM    ---      INT       pin
      WR12        REGSYM    ---      WORD      freq_div

      00FF9318H   BLOCK     CODE     ---       LVL=0
      WR14        REGSYM    ---      INT       pin
      000116A1H   SYMBOL    XDATA    DWORD     duty
      00FF9326H   BLOCK     CODE     NEAR LAB  LVL=1
      000116A5H   SYMBOL    XDATA    DWORD     match_temp
      000116A9H   SYMBOL    XDATA    DWORD     arr
      ---         BLOCKEND  ---      ---       LVL=1
L251 LINKER/LOCATER V4.66.93.0                                                        11/08/2025  20:32:40  PAGE 73


      00FF9318H   LINE      CODE     ---       #132
      00FF9326H   LINE      CODE     ---       #133
      00FF9326H   LINE      CODE     ---       #135
      00FF9384H   LINE      CODE     ---       #138
      00FF93A8H   LINE      CODE     ---       #140
      00FF93B8H   LINE      CODE     ---       #142
      00FF93F1H   LINE      CODE     ---       #143
      00FF93F3H   LINE      CODE     ---       #146
      00FF9409H   LINE      CODE     ---       #147
      00FF9409H   LINE      CODE     ---       #150
      00FF9457H   LINE      CODE     ---       #151
      00FF94A5H   LINE      CODE     ---       #153
      ---         BLOCKEND  ---      ---       LVL=0

      00FF5972H   BLOCK     CODE     ---       LVL=0
      WR14        REGSYM    ---      INT       pin
      00011695H   SYMBOL    XDATA    DWORD     freq
      00011699H   SYMBOL    XDATA    DWORD     duty
      00FF5980H   BLOCK     CODE     NEAR LAB  LVL=1
      0001169DH   SYMBOL    XDATA    WORD      match_temp
      0001169FH   SYMBOL    XDATA    DWORD     period_temp
      WR12        REGSYM    ---      WORD      freq_div
      ---         BLOCKEND  ---      ---       LVL=1
      00FF5972H   LINE      CODE     ---       #164
      00FF5980H   LINE      CODE     ---       #165
      00FF5980H   LINE      CODE     ---       #167
      00FF5988H   LINE      CODE     ---       #168
      00FF5994H   LINE      CODE     ---       #169
      00FF5996H   LINE      CODE     ---       #172
      00FF59BAH   LINE      CODE     ---       #174
      00FF59CCH   LINE      CODE     ---       #178
      00FF59E9H   LINE      CODE     ---       #179
      00FF5A0AH   LINE      CODE     ---       #180
      00FF5A27H   LINE      CODE     ---       #182
      00FF5A37H   LINE      CODE     ---       #184
      00FF5A6CH   LINE      CODE     ---       #185
      00FF5A6EH   LINE      CODE     ---       #188
      00FF5A80H   LINE      CODE     ---       #189
      00FF5A80H   LINE      CODE     ---       #191
      00FF5AAAH   LINE      CODE     ---       #192
      00FF5AD4H   LINE      CODE     ---       #194
      00FF5B06H   LINE      CODE     ---       #195
      00FF5B38H   LINE      CODE     ---       #197
      00FF5B84H   LINE      CODE     ---       #198
      00FF5BCEH   LINE      CODE     ---       #200
      00FF5BDDH   LINE      CODE     ---       #202
      00FF5C1CH   LINE      CODE     ---       #203
      00FF5C51H   LINE      CODE     ---       #204
      00FF5CCBH   LINE      CODE     ---       #206
      00FF5CD8H   LINE      CODE     ---       #207
      00FF5CE5H   LINE      CODE     ---       #208
      00FF5CE8H   LINE      CODE     ---       #209
      00FF5CFBH   LINE      CODE     ---       #211
      00FF5D3AH   LINE      CODE     ---       #212
      00FF5D6FH   LINE      CODE     ---       #213
      00FF5DD7H   LINE      CODE     ---       #215
      00FF5DE4H   LINE      CODE     ---       #216
      00FF5DF1H   LINE      CODE     ---       #217
      00FF5DF1H   LINE      CODE     ---       #219
      00FF5E38H   LINE      CODE     ---       #220
      00FF5E7FH   LINE      CODE     ---       #221
      ---         BLOCKEND  ---      ---       LVL=0

      ---         MODULE    ---      ---       zf_driver_soft_iic
      00FFB989H   PUBLIC    CODE     ---       soft_iic_wait_ack
L251 LINKER/LOCATER V4.66.93.0                                                        11/08/2025  20:32:40  PAGE 74


      00FFBD01H   PUBLIC    CODE     ---       soft_iic_stop
      00FFC63EH   PUBLIC    CODE     ---       soft_iic_delay
      00FFAC94H   PUBLIC    CODE     ---       soft_iic_read_data
      00FFB43AH   PUBLIC    CODE     ---       soft_iic_send_data
      00FFBF33H   PUBLIC    CODE     ---       soft_iic_start
      00FFBAEEH   PUBLIC    CODE     ---       soft_iic_send_ack
      000000D0H   SFRSYM    DATA     BYTE      PSW
      0000009DH   SFRSYM    DATA     BYTE      IRCBAND
      00000097H   SFRSYM    DATA     BYTE      AUXR2
      000000EFH   SFRSYM    DATA     BYTE      AUXINTIF
      000000FDH   SFRSYM    DATA     BYTE      S4CON
      000000ACH   SFRSYM    DATA     BYTE      S3CON
      0000009AH   SFRSYM    DATA     BYTE      S2CON
      000000B7H   SFRSYM    DATA     BYTE      IPH
      000000CDH   SFRSYM    DATA     BYTE      SPSTAT
      000000DDH   SFRSYM    DATA     BYTE      T4T3M
      000000C1H   SFRSYM    DATA     BYTE      WDT_CONTR
      000000DFH   SFRSYM    DATA     BYTE      IP3
      000000F4H   SFRSYM    DATA     BYTE      USBCON
      000000B5H   SFRSYM    DATA     BYTE      IP2
      000000FFH   SFRSYM    DATA     BYTE      RSTCFG
      000000C7H   SFRSYM    DATA     BYTE      IAP_CONTR
      0000008EH   SFRSYM    DATA     BYTE      AUXR
      000000AFH   SFRSYM    DATA     BYTE      IE2
      00000088H   SFRSYM    DATA     BYTE      TCON
      00000089H   SFRSYM    DATA     BYTE      TMOD
      00000098H   SFRSYM    DATA     BYTE      SCON
      00000087H   SFRSYM    DATA     BYTE      PCON
      000000BCH   SFRSYM    DATA     BYTE      ADC_CONTR
      000000D1H   SFRSYM    DATA     BYTE      PSW1
      000000E7H   SFRSYM    DATA     BYTE      CMPCR2
      000000E6H   SFRSYM    DATA     BYTE      CMPCR1
      000000DEH   SFRSYM    DATA     BYTE      ADCCFG
      000000B8H   SFRSYM    DATA     BYTE      IP
      0000008FH   SFRSYM    DATA     BYTE      INTCLKO
      000000EEH   SFRSYM    DATA     BYTE      IP3H
      000000B6H   SFRSYM    DATA     BYTE      IP2H
      000000BFH   SFRSYM    DATA     BYTE      P_SW4
      000000A8H   SFRSYM    DATA     BYTE      IE
      000000BBH   SFRSYM    DATA     BYTE      P_SW3
      000000BAH   SFRSYM    DATA     BYTE      P_SW2
      000000A2H   SFRSYM    DATA     BYTE      P_SW1
      000000CEH   SFRSYM    DATA     BYTE      SPCTL
      000000F8H   SFRSYM    DATA     BYTE      P7
      000000E8H   SFRSYM    DATA     BYTE      P6
      000000C8H   SFRSYM    DATA     BYTE      P5
      000000C0H   SFRSYM    DATA     BYTE      P4
      000000ABH   SFRSYM    DATA     BYTE      WKTCH
      000000B0H   SFRSYM    DATA     BYTE      P3
      000000A0H   SFRSYM    DATA     BYTE      P2
      00000090H   SFRSYM    DATA     BYTE      P1
      00000080H   SFRSYM    DATA     BYTE      P0

      00FFC63EH   BLOCK     CODE     ---       LVL=0
      0001194CH   SYMBOL    XDATA    DWORD     delay
      00FFC648H   BLOCK     CODE     NEAR LAB  LVL=1
      00011950H   SYMBOL    XDATA    DWORD     count
      ---         BLOCKEND  ---      ---       LVL=1
      00FFC63EH   LINE      CODE     ---       #53
      00FFC648H   LINE      CODE     ---       #54
      00FFC648H   LINE      CODE     ---       #55
      00FFC65CH   LINE      CODE     ---       #56
      00FFC675H   LINE      CODE     ---       #57
      ---         BLOCKEND  ---      ---       LVL=0

L251 LINKER/LOCATER V4.66.93.0                                                        11/08/2025  20:32:40  PAGE 75


      00FFBF33H   BLOCK     CODE     ---       LVL=0
      REG=3       REGSYM    ---      ---       soft_iic_obj
      00FFBF33H   LINE      CODE     ---       #67
      00FFBF37H   LINE      CODE     ---       #69
      00FFBF51H   LINE      CODE     ---       #70
      00FFBF59H   LINE      CODE     ---       #71
      00FFBF62H   LINE      CODE     ---       #73
      00FFBF6DH   LINE      CODE     ---       #74
      00FFBF75H   LINE      CODE     ---       #75
      00FFBF80H   LINE      CODE     ---       #76
      00FFBF87H   LINE      CODE     ---       #77
      ---         BLOCKEND  ---      ---       LVL=0

      00FFBD01H   BLOCK     CODE     ---       LVL=0
      REG=3       REGSYM    ---      ---       soft_iic_obj
      00FFBD01H   LINE      CODE     ---       #86
      00FFBD05H   LINE      CODE     ---       #88
      00FFBD1FH   LINE      CODE     ---       #89
      00FFBD27H   LINE      CODE     ---       #90
      00FFBD2EH   LINE      CODE     ---       #92
      00FFBD39H   LINE      CODE     ---       #93
      00FFBD41H   LINE      CODE     ---       #94
      00FFBD4CH   LINE      CODE     ---       #95
      00FFBD55H   LINE      CODE     ---       #96
      00FFBD60H   LINE      CODE     ---       #97
      ---         BLOCKEND  ---      ---       LVL=0

      00FFBAEEH   BLOCK     CODE     ---       LVL=0
      REG=3       REGSYM    ---      ---       soft_iic_obj
      00011984H   SYMBOL    XDATA    BYTE      ack
      00FFBAEEH   LINE      CODE     ---       #107
      00FFBAF6H   LINE      CODE     ---       #109
      00FFBB10H   LINE      CODE     ---       #110
      00FFBB17H   LINE      CODE     ---       #112
      00FFBB1DH   LINE      CODE     ---       #114
      00FFBB26H   LINE      CODE     ---       #115
      00FFBB28H   LINE      CODE     ---       #118
      00FFBB30H   LINE      CODE     ---       #119
      00FFBB30H   LINE      CODE     ---       #121
      00FFBB3BH   LINE      CODE     ---       #122
      00FFBB43H   LINE      CODE     ---       #123
      00FFBB4EH   LINE      CODE     ---       #124
      00FFBB55H   LINE      CODE     ---       #125
      00FFBB5EH   LINE      CODE     ---       #126
      ---         BLOCKEND  ---      ---       LVL=0

      00FFB989H   BLOCK     CODE     ---       LVL=0
      REG=3       REGSYM    ---      ---       soft_iic_obj
      00FFB98DH   BLOCK     CODE     NEAR LAB  LVL=1
      00011985H   SYMBOL    XDATA    BYTE      temp
      ---         BLOCKEND  ---      ---       LVL=1
      00FFB989H   LINE      CODE     ---       #135
      00FFB98DH   LINE      CODE     ---       #136
      00FFB98DH   LINE      CODE     ---       #137
      00FFB992H   LINE      CODE     ---       #138
      00FFB9ACH   LINE      CODE     ---       #140
      00FFB9B3H   LINE      CODE     ---       #141
      00FFB9BCH   LINE      CODE     ---       #145
      00FFB9C7H   LINE      CODE     ---       #147
      00FFB9CFH   LINE      CODE     ---       #148
      00FFB9DAH   LINE      CODE     ---       #150
      00FFB9E3H   LINE      CODE     ---       #152
      00FFB9E9H   LINE      CODE     ---       #153
      00FFB9E9H   LINE      CODE     ---       #154
      00FFB9F0H   LINE      CODE     ---       #158
L251 LINKER/LOCATER V4.66.93.0                                                        11/08/2025  20:32:40  PAGE 76


      00FFB9FBH   LINE      CODE     ---       #160
      00FFB9FFH   LINE      CODE     ---       #161
      ---         BLOCKEND  ---      ---       LVL=0

      00FFB43AH   BLOCK     CODE     ---       LVL=0
      REG=3       REGSYM    ---      ---       soft_iic_obj
      00011981H   SYMBOL    XDATA    BYTE      dat
      00FFB442H   BLOCK     CODE     NEAR LAB  LVL=1
      00011982H   SYMBOL    XDATA    BYTE      temp
      ---         BLOCKEND  ---      ---       LVL=1
      00FFB43AH   LINE      CODE     ---       #170
      00FFB442H   LINE      CODE     ---       #171
      00FFB442H   LINE      CODE     ---       #172
      00FFB448H   LINE      CODE     ---       #174
      00FFB462H   LINE      CODE     ---       #176
      00FFB464H   LINE      CODE     ---       #179
      00FFB489H   LINE      CODE     ---       #180
      00FFB490H   LINE      CODE     ---       #182
      00FFB49BH   LINE      CODE     ---       #183
      00FFB4A3H   LINE      CODE     ---       #184
      00FFB4AEH   LINE      CODE     ---       #185
      00FFB4B5H   LINE      CODE     ---       #186
      00FFB4BBH   LINE      CODE     ---       #187
      00FFB4C8H   LINE      CODE     ---       #188
      ---         BLOCKEND  ---      ---       LVL=0

      00FFAC94H   BLOCK     CODE     ---       LVL=0
      REG=3       REGSYM    ---      ---       soft_iic_obj
      0001197EH   SYMBOL    XDATA    BYTE      ack
      00FFAC9CH   BLOCK     CODE     NEAR LAB  LVL=1
      0001197FH   SYMBOL    XDATA    BYTE      dat
      00011980H   SYMBOL    XDATA    BYTE      temp
      ---         BLOCKEND  ---      ---       LVL=1
      00FFAC94H   LINE      CODE     ---       #197
      00FFAC9CH   LINE      CODE     ---       #198
      00FFAC9CH   LINE      CODE     ---       #199
      00FFACA1H   LINE      CODE     ---       #200
      00FFACA7H   LINE      CODE     ---       #201
      00FFACC1H   LINE      CODE     ---       #202
      00FFACC8H   LINE      CODE     ---       #203
      00FFACD3H   LINE      CODE     ---       #204
      00FFACDCH   LINE      CODE     ---       #209
      00FFACDEH   LINE      CODE     ---       #211
      00FFACE5H   LINE      CODE     ---       #212
      00FFACF0H   LINE      CODE     ---       #213
      00FFACF8H   LINE      CODE     ---       #214
      00FFAD03H   LINE      CODE     ---       #215
      00FFAD18H   LINE      CODE     ---       #216
      00FFAD26H   LINE      CODE     ---       #217
      00FFAD2DH   LINE      CODE     ---       #221
      00FFAD38H   LINE      CODE     ---       #222
      00FFAD41H   LINE      CODE     ---       #223
      00FFAD45H   LINE      CODE     ---       #224
      ---         BLOCKEND  ---      ---       LVL=0
      REG=3       REGSYM    ---      ---       soft_iic_obj
      REG=3       REGSYM    ---      ---       soft_iic_obj
      REG=3       REGSYM    ---      ---       soft_iic_obj
      REG=3       REGSYM    ---      ---       soft_iic_obj
      REG=3       REGSYM    ---      ---       soft_iic_obj
      REG=3       REGSYM    ---      ---       soft_iic_obj
      REG=3       REGSYM    ---      ---       soft_iic_obj
      REG=3       REGSYM    ---      ---       soft_iic_obj
      REG=3       REGSYM    ---      ---       soft_iic_obj
      REG=3       REGSYM    ---      ---       soft_iic_obj
      REG=3       REGSYM    ---      ---       soft_iic_obj
L251 LINKER/LOCATER V4.66.93.0                                                        11/08/2025  20:32:40  PAGE 77


      REG=3       REGSYM    ---      ---       soft_iic_obj
      REG=3       REGSYM    ---      ---       soft_iic_obj
      REG=3       REGSYM    ---      ---       soft_iic_obj
      REG=3       REGSYM    ---      ---       soft_iic_obj
      REG=3       REGSYM    ---      ---       soft_iic_obj
      REG=3       REGSYM    ---      ---       soft_iic_obj
      REG=3       REGSYM    ---      ---       soft_iic_obj
      REG=3       REGSYM    ---      ---       soft_iic_obj
      REG=3       REGSYM    ---      ---       soft_iic_obj
      REG=3       REGSYM    ---      ---       soft_iic_obj

      ---         MODULE    ---      ---       zf_driver_soft_spi
      000000D0H   SFRSYM    DATA     BYTE      PSW
      0000009DH   SFRSYM    DATA     BYTE      IRCBAND
      00000097H   SFRSYM    DATA     BYTE      AUXR2
      000000EFH   SFRSYM    DATA     BYTE      AUXINTIF
      000000FDH   SFRSYM    DATA     BYTE      S4CON
      000000ACH   SFRSYM    DATA     BYTE      S3CON
      0000009AH   SFRSYM    DATA     BYTE      S2CON
      000000B7H   SFRSYM    DATA     BYTE      IPH
      000000CDH   SFRSYM    DATA     BYTE      SPSTAT
      000000DDH   SFRSYM    DATA     BYTE      T4T3M
      000000C1H   SFRSYM    DATA     BYTE      WDT_CONTR
      000000DFH   SFRSYM    DATA     BYTE      IP3
      000000F4H   SFRSYM    DATA     BYTE      USBCON
      000000B5H   SFRSYM    DATA     BYTE      IP2
      000000FFH   SFRSYM    DATA     BYTE      RSTCFG
      000000C7H   SFRSYM    DATA     BYTE      IAP_CONTR
      0000008EH   SFRSYM    DATA     BYTE      AUXR
      000000AFH   SFRSYM    DATA     BYTE      IE2
      00000088H   SFRSYM    DATA     BYTE      TCON
      00000089H   SFRSYM    DATA     BYTE      TMOD
      00000098H   SFRSYM    DATA     BYTE      SCON
      00000087H   SFRSYM    DATA     BYTE      PCON
      000000BCH   SFRSYM    DATA     BYTE      ADC_CONTR
      000000D1H   SFRSYM    DATA     BYTE      PSW1
      000000E7H   SFRSYM    DATA     BYTE      CMPCR2
      000000E6H   SFRSYM    DATA     BYTE      CMPCR1
      000000DEH   SFRSYM    DATA     BYTE      ADCCFG
      000000B8H   SFRSYM    DATA     BYTE      IP
      0000008FH   SFRSYM    DATA     BYTE      INTCLKO
      000000EEH   SFRSYM    DATA     BYTE      IP3H
      000000B6H   SFRSYM    DATA     BYTE      IP2H
      000000BFH   SFRSYM    DATA     BYTE      P_SW4
      000000A8H   SFRSYM    DATA     BYTE      IE
      000000BBH   SFRSYM    DATA     BYTE      P_SW3
      000000BAH   SFRSYM    DATA     BYTE      P_SW2
      000000A2H   SFRSYM    DATA     BYTE      P_SW1
      000000CEH   SFRSYM    DATA     BYTE      SPCTL
      000000F8H   SFRSYM    DATA     BYTE      P7
      000000E8H   SFRSYM    DATA     BYTE      P6
      000000C8H   SFRSYM    DATA     BYTE      P5
      000000C0H   SFRSYM    DATA     BYTE      P4
      000000ABH   SFRSYM    DATA     BYTE      WKTCH
      000000B0H   SFRSYM    DATA     BYTE      P3
      000000A0H   SFRSYM    DATA     BYTE      P2
      00000090H   SFRSYM    DATA     BYTE      P1
      00000080H   SFRSYM    DATA     BYTE      P0
      DR0         REGSYM    ---      DWORD     x
      REG=3       REGSYM    ---      ---       soft_spi_obj
      R10         REGSYM    ---      BYTE      dat
      REG=3       REGSYM    ---      ---       soft_spi_obj
      WR6         REGSYM    ---      WORD      dat
      REG=3       REGSYM    ---      ---       soft_spi_obj
      REG=3       REGSYM    ---      ---       soft_spi_obj
L251 LINKER/LOCATER V4.66.93.0                                                        11/08/2025  20:32:40  PAGE 78


      REG=3       REGSYM    ---      ---       soft_spi_obj
      REG=3       REGSYM    ---      ---       soft_spi_obj
      REG=3       REGSYM    ---      ---       soft_spi_obj
      REG=3       REGSYM    ---      ---       soft_spi_obj
      REG=3       REGSYM    ---      ---       soft_spi_obj
      REG=3       REGSYM    ---      ---       soft_spi_obj
      REG=3       REGSYM    ---      ---       soft_spi_obj
      REG=3       REGSYM    ---      ---       soft_spi_obj
      REG=3       REGSYM    ---      ---       soft_spi_obj
      REG=3       REGSYM    ---      ---       soft_spi_obj
      REG=3       REGSYM    ---      ---       soft_spi_obj
      REG=3       REGSYM    ---      ---       soft_spi_obj
      REG=3       REGSYM    ---      ---       soft_spi_obj
      REG=3       REGSYM    ---      ---       soft_spi_obj
      REG=3       REGSYM    ---      ---       soft_spi_obj
      REG=3       REGSYM    ---      ---       soft_spi_obj
      REG=3       REGSYM    ---      ---       soft_spi_obj

      ---         MODULE    ---      ---       zf_driver_spi
      00FF0003H   PUBLIC    CODE     ---       spi_write_8bit
      00FF633BH   PUBLIC    CODE     ---       spi_init
      00FFC85CH   PUBLIC    CODE     ---       spi_write_16bit
      00FFC35DH   PUBLIC    CODE     ---       spi_write_dat
      00011691H   PUBLIC    XDATA    BYTE      ?spi_init?BYTE
      000000CFH   SFRSYM    DATA     BYTE      SPDAT
      000000D0H   SFRSYM    DATA     BYTE      PSW
      0000009DH   SFRSYM    DATA     BYTE      IRCBAND
      00000097H   SFRSYM    DATA     BYTE      AUXR2
      000000EFH   SFRSYM    DATA     BYTE      AUXINTIF
      000000FDH   SFRSYM    DATA     BYTE      S4CON
      000000ACH   SFRSYM    DATA     BYTE      S3CON
      0000009AH   SFRSYM    DATA     BYTE      S2CON
      0000009BH   SFRSYM    DATA     BYTE      S2BUF
      000000B7H   SFRSYM    DATA     BYTE      IPH
      000000CDH   SFRSYM    DATA     BYTE      SPSTAT
      000000DDH   SFRSYM    DATA     BYTE      T4T3M
      000000C1H   SFRSYM    DATA     BYTE      WDT_CONTR
      000000DFH   SFRSYM    DATA     BYTE      IP3
      000000F4H   SFRSYM    DATA     BYTE      USBCON
      000000B5H   SFRSYM    DATA     BYTE      IP2
      000000FFH   SFRSYM    DATA     BYTE      RSTCFG
      000000C7H   SFRSYM    DATA     BYTE      IAP_CONTR
      0000008EH   SFRSYM    DATA     BYTE      AUXR
      000000AFH   SFRSYM    DATA     BYTE      IE2
      00000088H   SFRSYM    DATA     BYTE      TCON
      00000089H   SFRSYM    DATA     BYTE      TMOD
      00000098H   SFRSYM    DATA     BYTE      SCON
      00000087H   SFRSYM    DATA     BYTE      PCON
      00000099H   SFRSYM    DATA     BYTE      SBUF
      000000BCH   SFRSYM    DATA     BYTE      ADC_CONTR
      000000D1H   SFRSYM    DATA     BYTE      PSW1
      000000E7H   SFRSYM    DATA     BYTE      CMPCR2
      000000E6H   SFRSYM    DATA     BYTE      CMPCR1
      0000009AH.1 SFRSYM    DATA     BIT       S2TI
      00000098H.1 SFRSYM    DATA     BIT       TI
      000000DEH   SFRSYM    DATA     BYTE      ADCCFG
      000000B8H   SFRSYM    DATA     BYTE      IP
      0000008FH   SFRSYM    DATA     BYTE      INTCLKO
      000000EEH   SFRSYM    DATA     BYTE      IP3H
      000000B6H   SFRSYM    DATA     BYTE      IP2H
      000000BFH   SFRSYM    DATA     BYTE      P_SW4
      000000A8H   SFRSYM    DATA     BYTE      IE
      000000BBH   SFRSYM    DATA     BYTE      P_SW3
      000000BAH   SFRSYM    DATA     BYTE      P_SW2
      000000A2H   SFRSYM    DATA     BYTE      P_SW1
L251 LINKER/LOCATER V4.66.93.0                                                        11/08/2025  20:32:40  PAGE 79


      000000CEH   SFRSYM    DATA     BYTE      SPCTL
      000000F8H   SFRSYM    DATA     BYTE      P7
      000000E8H   SFRSYM    DATA     BYTE      P6
      000000C8H   SFRSYM    DATA     BYTE      P5
      000000C0H   SFRSYM    DATA     BYTE      P4
      000000ABH   SFRSYM    DATA     BYTE      WKTCH
      000000B0H   SFRSYM    DATA     BYTE      P3
      000000A0H   SFRSYM    DATA     BYTE      P2
      00000090H   SFRSYM    DATA     BYTE      P1
      00000080H   SFRSYM    DATA     BYTE      P0

      00FFC35DH   BLOCK     CODE     ---       LVL=0
      WR6         REGSYM    ---      INT       spi_n
      R10         REGSYM    ---      BYTE      dat
      00FFC35DH   LINE      CODE     ---       #81
      00FFC35FH   LINE      CODE     ---       #83
      00FFC36BH   LINE      CODE     ---       #85
      00FFC36BH   LINE      CODE     ---       #86
      00FFC36EH   LINE      CODE     ---       #87
      00FFC371H   LINE      CODE     ---       #88
      00FFC376H   LINE      CODE     ---       #89
      00FFC378H   LINE      CODE     ---       #90
      00FFC378H   LINE      CODE     ---       #91
      00FFC37AH   LINE      CODE     ---       #92
      00FFC37DH   LINE      CODE     ---       #93
      00FFC380H   LINE      CODE     ---       #94
      00FFC382H   LINE      CODE     ---       #95
      00FFC382H   LINE      CODE     ---       #96
      00FFC385H   LINE      CODE     ---       #97
      00FFC388H   LINE      CODE     ---       #98
      00FFC38CH   LINE      CODE     ---       #99
      00FFC38EH   LINE      CODE     ---       #100
      00FFC38EH   LINE      CODE     ---       #101
      00FFC39EH   LINE      CODE     ---       #102
      00FFC39EH   LINE      CODE     ---       #103
      00FFC39EH   LINE      CODE     ---       #104
      ---         BLOCKEND  ---      ---       LVL=0
      WR8         REGSYM    ---      INT       spi_n
      R10         REGSYM    ---      BYTE      dat
      R15         REGSYM    ---      BYTE      ret

      00FF0003H   BLOCK     CODE     ---       LVL=0
      WR6         REGSYM    ---      INT       spi_n
      R5          REGSYM    ---      BYTE      dat
      00FF0003H   LINE      CODE     ---       #147
      00FF0005H   LINE      CODE     ---       #149
      00FF0008H   LINE      CODE     ---       #150
      ---         BLOCKEND  ---      ---       LVL=0
      REG=3       REGSYM    ---      ---       dat

      00FFC85CH   BLOCK     CODE     ---       LVL=0
      WR12        REGSYM    ---      INT       spi_n
      WR14        REGSYM    ---      WORD      dat
      00FFC85CH   LINE      CODE     ---       #175
      00FFC862H   LINE      CODE     ---       #177
      00FFC86EH   LINE      CODE     ---       #178
      00FFC878H   LINE      CODE     ---       #179
      ---         BLOCKEND  ---      ---       LVL=0
      REG=3       REGSYM    ---      ---       dat
      WR14        REGSYM    ---      INT       spi_n
      R5          REGSYM    ---      BYTE      register_name
      R13         REGSYM    ---      BYTE      dat
      R5          REGSYM    ---      BYTE      register_name
      REG=3       REGSYM    ---      ---       dat
      WR14        REGSYM    ---      INT       spi_n
L251 LINKER/LOCATER V4.66.93.0                                                        11/08/2025  20:32:40  PAGE 80


      WR12        REGSYM    ---      WORD      dat
      WR14        REGSYM    ---      INT       spi_n
      WR12        REGSYM    ---      WORD      register_name
      WR6         REGSYM    ---      INT       spi_n
      REG=3       REGSYM    ---      ---       dat
      WR14        REGSYM    ---      INT       spi_n
      WR12        REGSYM    ---      WORD      dat
      REG=3       REGSYM    ---      ---       dat
      WR14        REGSYM    ---      INT       spi_n
      R5          REGSYM    ---      BYTE      register_name
      R5          REGSYM    ---      BYTE      register_name
      REG=3       REGSYM    ---      ---       dat
      WR14        REGSYM    ---      INT       spi_n
      WR12        REGSYM    ---      WORD      register_name
      REG=3       REGSYM    ---      ---       dat
      REG=3       REGSYM    ---      ---       write_buffer
      REG=3       REGSYM    ---      ---       write_buffer

      00FF633BH   BLOCK     CODE     ---       LVL=0
      00011695H   SYMBOL    XDATA    INT       spi_n
      00011697H   SYMBOL    XDATA    INT       mode
      DR12        REGSYM    ---      DWORD     baud
      00011699H   SYMBOL    XDATA    INT       sck_pin
      0001169BH   SYMBOL    XDATA    INT       mosi_pin
      0001169DH   SYMBOL    XDATA    INT       miso_pin
      0001169FH   SYMBOL    XDATA    INT       cs_pin
      00FF634BH   BLOCK     CODE     NEAR LAB  LVL=1
      000116A1H   SYMBOL    XDATA    DWORD     spi_psc
      ---         BLOCKEND  ---      ---       LVL=1
      00FF633BH   LINE      CODE     ---       #465
      00FF634BH   LINE      CODE     ---       #466
      00FF634BH   LINE      CODE     ---       #467
      00FF6357H   LINE      CODE     ---       #469
      00FF636DH   LINE      CODE     ---       #471
      00FF637DH   LINE      CODE     ---       #473
      00FF637DH   LINE      CODE     ---       #475
      00FF6393H   LINE      CODE     ---       #476
      00FF63A9H   LINE      CODE     ---       #478
      00FF63B5H   LINE      CODE     ---       #480
      00FF63CBH   LINE      CODE     ---       #481
      00FF63CBH   LINE      CODE     ---       #483
      00FF63D7H   LINE      CODE     ---       #485
      00FF63ECH   LINE      CODE     ---       #486
      00FF63ECH   LINE      CODE     ---       #489
      00FF63F2H   LINE      CODE     ---       #491
      00FF6400H   LINE      CODE     ---       #492
      00FF640EH   LINE      CODE     ---       #493
      00FF641AH   LINE      CODE     ---       #495
      00FF6428H   LINE      CODE     ---       #496
      00FF6428H   LINE      CODE     ---       #497
      00FF6434H   LINE      CODE     ---       #499
      00FF6442H   LINE      CODE     ---       #500
      00FF6442H   LINE      CODE     ---       #503
      00FF644FH   LINE      CODE     ---       #505
      00FF6452H   LINE      CODE     ---       #507
      00FF6470H   LINE      CODE     ---       #509
      00FF6470H   LINE      CODE     ---       #510
      00FF6474H   LINE      CODE     ---       #511
      00FF6476H   LINE      CODE     ---       #513
      00FF6476H   LINE      CODE     ---       #514
      00FF6479H   LINE      CODE     ---       #515
      00FF647BH   LINE      CODE     ---       #517
      00FF647BH   LINE      CODE     ---       #518
      00FF647EH   LINE      CODE     ---       #519
      00FF6480H   LINE      CODE     ---       #521
L251 LINKER/LOCATER V4.66.93.0                                                        11/08/2025  20:32:40  PAGE 81


      00FF6480H   LINE      CODE     ---       #522
      00FF6483H   LINE      CODE     ---       #523
      00FF6483H   LINE      CODE     ---       #524
      00FF6483H   LINE      CODE     ---       #526
      00FF6486H   LINE      CODE     ---       #527
      00FF6489H   LINE      CODE     ---       #528
      00FF648CH   LINE      CODE     ---       #531
      00FF64A5H   LINE      CODE     ---       #533
      00FF64A8H   LINE      CODE     ---       #535
      00FF64B8H   LINE      CODE     ---       #537
      00FF64BBH   LINE      CODE     ---       #538
      00FF64BDH   LINE      CODE     ---       #539
      00FF64CDH   LINE      CODE     ---       #541
      00FF64D0H   LINE      CODE     ---       #542
      00FF64D2H   LINE      CODE     ---       #543
      00FF64E2H   LINE      CODE     ---       #545
      00FF64E6H   LINE      CODE     ---       #546
      00FF64E8H   LINE      CODE     ---       #549
      00FF64EBH   LINE      CODE     ---       #550
      00FF64EBH   LINE      CODE     ---       #553
      00FF64FDH   LINE      CODE     ---       #555
      00FF64FDH   LINE      CODE     ---       #556
      00FF64FDH   LINE      CODE     ---       #558
      00FF64FDH   LINE      CODE     ---       #559
      00FF6500H   LINE      CODE     ---       #560
      00FF6502H   LINE      CODE     ---       #562
      00FF6502H   LINE      CODE     ---       #563
      00FF6505H   LINE      CODE     ---       #564
      00FF6507H   LINE      CODE     ---       #566
      00FF6507H   LINE      CODE     ---       #567
      00FF650AH   LINE      CODE     ---       #568
      00FF650AH   LINE      CODE     ---       #569
      00FF650AH   LINE      CODE     ---       #571
      00FF650DH   LINE      CODE     ---       #572
      00FF6510H   LINE      CODE     ---       #573
      00FF651FH   LINE      CODE     ---       #582
      00FF6537H   LINE      CODE     ---       #585
      00FF653AH   LINE      CODE     ---       #587
      00FF6558H   LINE      CODE     ---       #589
      00FF6558H   LINE      CODE     ---       #590
      00FF655CH   LINE      CODE     ---       #591
      00FF655EH   LINE      CODE     ---       #593
      00FF655EH   LINE      CODE     ---       #594
      00FF6561H   LINE      CODE     ---       #595
      00FF6563H   LINE      CODE     ---       #597
      00FF6563H   LINE      CODE     ---       #598
      00FF6566H   LINE      CODE     ---       #599
      00FF6568H   LINE      CODE     ---       #601
      00FF6568H   LINE      CODE     ---       #602
      00FF656BH   LINE      CODE     ---       #603
      00FF656BH   LINE      CODE     ---       #604
      00FF656BH   LINE      CODE     ---       #606
      00FF656EH   LINE      CODE     ---       #607
      00FF657BH   LINE      CODE     ---       #611
      00FF6594H   LINE      CODE     ---       #615
      00FF65A4H   LINE      CODE     ---       #617
      00FF65B4H   LINE      CODE     ---       #618
      00FF65B6H   LINE      CODE     ---       #619
      00FF65C6H   LINE      CODE     ---       #621
      00FF65D6H   LINE      CODE     ---       #622
      00FF65D8H   LINE      CODE     ---       #623
      00FF65E8H   LINE      CODE     ---       #625
      00FF65F6H   LINE      CODE     ---       #626
      00FF65F8H   LINE      CODE     ---       #629
      00FF6608H   LINE      CODE     ---       #630
L251 LINKER/LOCATER V4.66.93.0                                                        11/08/2025  20:32:40  PAGE 82


      00FF6608H   LINE      CODE     ---       #634
      00FF6620H   LINE      CODE     ---       #636
      00FF6620H   LINE      CODE     ---       #637
      00FF662EH   LINE      CODE     ---       #638
      00FF6630H   LINE      CODE     ---       #640
      00FF6630H   LINE      CODE     ---       #641
      00FF6640H   LINE      CODE     ---       #642
      00FF6642H   LINE      CODE     ---       #644
      00FF6642H   LINE      CODE     ---       #645
      00FF6652H   LINE      CODE     ---       #646
      00FF6654H   LINE      CODE     ---       #648
      00FF6654H   LINE      CODE     ---       #649
      00FF6664H   LINE      CODE     ---       #650
      00FF6664H   LINE      CODE     ---       #651
      00FF6664H   LINE      CODE     ---       #653
      00FF6674H   LINE      CODE     ---       #654
      00FF6677H   LINE      CODE     ---       #655
      00FF6686H   LINE      CODE     ---       #664
      00FF66A0H   LINE      CODE     ---       #666
      00FF66A3H   LINE      CODE     ---       #668
      00FF66C1H   LINE      CODE     ---       #670
      00FF66C1H   LINE      CODE     ---       #671
      00FF66C5H   LINE      CODE     ---       #672
      00FF66C7H   LINE      CODE     ---       #674
      00FF66C7H   LINE      CODE     ---       #675
      00FF66CAH   LINE      CODE     ---       #676
      00FF66CCH   LINE      CODE     ---       #678
      00FF66CCH   LINE      CODE     ---       #679
      00FF66CFH   LINE      CODE     ---       #680
      00FF66D1H   LINE      CODE     ---       #682
      00FF66D1H   LINE      CODE     ---       #683
      00FF66D4H   LINE      CODE     ---       #684
      00FF66D4H   LINE      CODE     ---       #685
      00FF66D4H   LINE      CODE     ---       #687
      00FF66D7H   LINE      CODE     ---       #688
      00FF66E4H   LINE      CODE     ---       #692
      00FF66FDH   LINE      CODE     ---       #694
      00FF670DH   LINE      CODE     ---       #696
      00FF671DH   LINE      CODE     ---       #697
      00FF671FH   LINE      CODE     ---       #698
      00FF672FH   LINE      CODE     ---       #700
      00FF673FH   LINE      CODE     ---       #701
      00FF6741H   LINE      CODE     ---       #702
      00FF6751H   LINE      CODE     ---       #704
      00FF675FH   LINE      CODE     ---       #705
      00FF6761H   LINE      CODE     ---       #708
      00FF6771H   LINE      CODE     ---       #709
      00FF6771H   LINE      CODE     ---       #713
      00FF6789H   LINE      CODE     ---       #715
      00FF6789H   LINE      CODE     ---       #716
      00FF6797H   LINE      CODE     ---       #717
      00FF6799H   LINE      CODE     ---       #719
      00FF6799H   LINE      CODE     ---       #720
      00FF67A9H   LINE      CODE     ---       #721
      00FF67ABH   LINE      CODE     ---       #723
      00FF67ABH   LINE      CODE     ---       #724
      00FF67BBH   LINE      CODE     ---       #725
      00FF67BDH   LINE      CODE     ---       #727
      00FF67BDH   LINE      CODE     ---       #728
      00FF67CDH   LINE      CODE     ---       #729
      00FF67CDH   LINE      CODE     ---       #730
      00FF67CDH   LINE      CODE     ---       #732
      00FF67DDH   LINE      CODE     ---       #733
      ---         BLOCKEND  ---      ---       LVL=0

L251 LINKER/LOCATER V4.66.93.0                                                        11/08/2025  20:32:40  PAGE 83


      ---         MODULE    ---      ---       zf_driver_timer
      00FFC0D8H   PUBLIC    CODE     ---       timer_funciton_check
      000000D0H   SFRSYM    DATA     BYTE      PSW
      0000009DH   SFRSYM    DATA     BYTE      IRCBAND
      00000097H   SFRSYM    DATA     BYTE      AUXR2
      000000EFH   SFRSYM    DATA     BYTE      AUXINTIF
      000000FDH   SFRSYM    DATA     BYTE      S4CON
      000000ACH   SFRSYM    DATA     BYTE      S3CON
      0000009AH   SFRSYM    DATA     BYTE      S2CON
      000000B7H   SFRSYM    DATA     BYTE      IPH
      000000CDH   SFRSYM    DATA     BYTE      SPSTAT
      000000DDH   SFRSYM    DATA     BYTE      T4T3M
      000000C1H   SFRSYM    DATA     BYTE      WDT_CONTR
      000000DFH   SFRSYM    DATA     BYTE      IP3
      000000F4H   SFRSYM    DATA     BYTE      USBCON
      000000B5H   SFRSYM    DATA     BYTE      IP2
      000000FFH   SFRSYM    DATA     BYTE      RSTCFG
      000000C7H   SFRSYM    DATA     BYTE      IAP_CONTR
      0000008EH   SFRSYM    DATA     BYTE      AUXR
      000000AFH   SFRSYM    DATA     BYTE      IE2
      00000088H   SFRSYM    DATA     BYTE      TCON
      00000089H   SFRSYM    DATA     BYTE      TMOD
      00000098H   SFRSYM    DATA     BYTE      SCON
      00000087H   SFRSYM    DATA     BYTE      PCON
      000000BCH   SFRSYM    DATA     BYTE      ADC_CONTR
      000000D1H   SFRSYM    DATA     BYTE      PSW1
      000000E7H   SFRSYM    DATA     BYTE      CMPCR2
      000000E6H   SFRSYM    DATA     BYTE      CMPCR1
      000000DEH   SFRSYM    DATA     BYTE      ADCCFG
      000000B8H   SFRSYM    DATA     BYTE      IP
      0000008FH   SFRSYM    DATA     BYTE      INTCLKO
      000000EEH   SFRSYM    DATA     BYTE      IP3H
      000000B6H   SFRSYM    DATA     BYTE      IP2H
      000000BFH   SFRSYM    DATA     BYTE      P_SW4
      000000A8H   SFRSYM    DATA     BYTE      IE
      000000BBH   SFRSYM    DATA     BYTE      P_SW3
      000000BAH   SFRSYM    DATA     BYTE      P_SW2
      000000A2H   SFRSYM    DATA     BYTE      P_SW1
      000000CEH   SFRSYM    DATA     BYTE      SPCTL
      000000F8H   SFRSYM    DATA     BYTE      P7
      000000E8H   SFRSYM    DATA     BYTE      P6
      000000C8H   SFRSYM    DATA     BYTE      P5
      000000C0H   SFRSYM    DATA     BYTE      P4
      000000ABH   SFRSYM    DATA     BYTE      WKTCH
      000000B0H   SFRSYM    DATA     BYTE      P3
      000000A0H   SFRSYM    DATA     BYTE      P2
      00000090H   SFRSYM    DATA     BYTE      P1
      00000080H   SFRSYM    DATA     BYTE      P0
      00011913H   SYMBOL    XDATA    ---       timer_function_state

      00FFC0D8H   BLOCK     CODE     ---       LVL=0
      WR2         REGSYM    ---      INT       index
      WR0         REGSYM    ---      INT       mode
      00FFC0DCH   BLOCK     CODE     NEAR LAB  LVL=1
      R10         REGSYM    ---      BYTE      return_state
      ---         BLOCKEND  ---      ---       LVL=1
      00FFC0D8H   LINE      CODE     ---       #58
      00FFC0DCH   LINE      CODE     ---       #59
      00FFC0DCH   LINE      CODE     ---       #60
      00FFC0DFH   LINE      CODE     ---       #61
      00FFC0F4H   LINE      CODE     ---       #63
      00FFC105H   LINE      CODE     ---       #64
      00FFC107H   LINE      CODE     ---       #65
      00FFC11AH   LINE      CODE     ---       #67
      00FFC11DH   LINE      CODE     ---       #68
L251 LINKER/LOCATER V4.66.93.0                                                        11/08/2025  20:32:40  PAGE 84


      00FFC11FH   LINE      CODE     ---       #71
      00FFC121H   LINE      CODE     ---       #72
      00FFC121H   LINE      CODE     ---       #73
      00FFC123H   LINE      CODE     ---       #74
      ---         BLOCKEND  ---      ---       LVL=0

      ---         MODULE    ---      ---       zf_driver_uart
      00FFB4CBH   PUBLIC    CODE     ---       uart_rx_start_buff
      00FFA1F1H   PUBLIC    CODE     ---       uart_write_buffer
      00FF8599H   PUBLIC    CODE     ---       uart_init
      00FFC24CH   PUBLIC    CODE     ---       uart_rx_interrupt
      00FFC911H   PUBLIC    CODE     ---       uart_write_byte
      00FF98B5H   PUBLIC    CODE     ---       uart_dma_init
      00FFC124H   PUBLIC    CODE     ---       uart_funciton_check
      00FFBD63H   PUBLIC    CODE     ---       uart_query_byte
      00011927H   PUBLIC    XDATA    ---       uart_rx_buff
      00011691H   PUBLIC    XDATA    BYTE      ?uart_init?BYTE
      000000D0H   SFRSYM    DATA     BYTE      PSW
      0000009DH   SFRSYM    DATA     BYTE      IRCBAND
      00000097H   SFRSYM    DATA     BYTE      AUXR2
      000000EFH   SFRSYM    DATA     BYTE      AUXINTIF
      000000FDH   SFRSYM    DATA     BYTE      S4CON
      000000ACH   SFRSYM    DATA     BYTE      S3CON
      0000009AH   SFRSYM    DATA     BYTE      S2CON
      000000B7H   SFRSYM    DATA     BYTE      IPH
      000000CDH   SFRSYM    DATA     BYTE      SPSTAT
      000000DDH   SFRSYM    DATA     BYTE      T4T3M
      000000C1H   SFRSYM    DATA     BYTE      WDT_CONTR
      00000088H.6 SFRSYM    DATA     BIT       TR1
      000000D7H   SFRSYM    DATA     BYTE      T2L
      000000D6H   SFRSYM    DATA     BYTE      T2H
      000000DFH   SFRSYM    DATA     BYTE      IP3
      000000F4H   SFRSYM    DATA     BYTE      USBCON
      000000B5H   SFRSYM    DATA     BYTE      IP2
      000000FFH   SFRSYM    DATA     BYTE      RSTCFG
      000000C7H   SFRSYM    DATA     BYTE      IAP_CONTR
      0000008EH   SFRSYM    DATA     BYTE      AUXR
      000000AFH   SFRSYM    DATA     BYTE      IE2
      00000088H   SFRSYM    DATA     BYTE      TCON
      00000089H   SFRSYM    DATA     BYTE      TMOD
      00000098H   SFRSYM    DATA     BYTE      SCON
      00000087H   SFRSYM    DATA     BYTE      PCON
      000000BCH   SFRSYM    DATA     BYTE      ADC_CONTR
      000000D1H   SFRSYM    DATA     BYTE      PSW1
      000000E7H   SFRSYM    DATA     BYTE      CMPCR2
      000000E6H   SFRSYM    DATA     BYTE      CMPCR1
      000000DEH   SFRSYM    DATA     BYTE      ADCCFG
      000000B8H   SFRSYM    DATA     BYTE      IP
      0000008FH   SFRSYM    DATA     BYTE      INTCLKO
      000000EEH   SFRSYM    DATA     BYTE      IP3H
      000000B6H   SFRSYM    DATA     BYTE      IP2H
      000000BFH   SFRSYM    DATA     BYTE      P_SW4
      000000A8H   SFRSYM    DATA     BYTE      IE
      000000BBH   SFRSYM    DATA     BYTE      P_SW3
      000000BAH   SFRSYM    DATA     BYTE      P_SW2
      000000A2H   SFRSYM    DATA     BYTE      P_SW1
      000000CEH   SFRSYM    DATA     BYTE      SPCTL
      000000F8H   SFRSYM    DATA     BYTE      P7
      000000E8H   SFRSYM    DATA     BYTE      P6
      000000C8H   SFRSYM    DATA     BYTE      P5
      000000C0H   SFRSYM    DATA     BYTE      P4
      000000ABH   SFRSYM    DATA     BYTE      WKTCH
      000000B0H   SFRSYM    DATA     BYTE      P3
      000000A0H   SFRSYM    DATA     BYTE      P2
      00000090H   SFRSYM    DATA     BYTE      P1
L251 LINKER/LOCATER V4.66.93.0                                                        11/08/2025  20:32:40  PAGE 85


      00000080H   SFRSYM    DATA     BYTE      P0
      0001191FH   SYMBOL    XDATA    ---       uart_function_state

      00FFC124H   BLOCK     CODE     ---       LVL=0
      WR2         REGSYM    ---      INT       index
      WR0         REGSYM    ---      INT       mode
      00FFC128H   BLOCK     CODE     NEAR LAB  LVL=1
      R10         REGSYM    ---      BYTE      return_state
      ---         BLOCKEND  ---      ---       LVL=1
      00FFC124H   LINE      CODE     ---       #83
      00FFC128H   LINE      CODE     ---       #84
      00FFC128H   LINE      CODE     ---       #85
      00FFC12BH   LINE      CODE     ---       #86
      00FFC140H   LINE      CODE     ---       #88
      00FFC151H   LINE      CODE     ---       #89
      00FFC153H   LINE      CODE     ---       #90
      00FFC166H   LINE      CODE     ---       #92
      00FFC169H   LINE      CODE     ---       #93
      00FFC16BH   LINE      CODE     ---       #96
      00FFC16DH   LINE      CODE     ---       #97
      00FFC16DH   LINE      CODE     ---       #98
      00FFC16FH   LINE      CODE     ---       #99
      ---         BLOCKEND  ---      ---       LVL=0

      00FFA1F1H   BLOCK     CODE     ---       LVL=0
      WR0         REGSYM    ---      INT       uart_n
      REG=7       REGSYM    ---      ---       buff
      WR8         REGSYM    ---      WORD      len
      00FFA1F1H   LINE      CODE     ---       #108
      00FFA1F7H   LINE      CODE     ---       #112
      00FFA211H   LINE      CODE     ---       #113
      00FFA213H   LINE      CODE     ---       #114
      00FFA22DH   LINE      CODE     ---       #115
      00FFA246H   LINE      CODE     ---       #116
      00FFA266H   LINE      CODE     ---       #117
      00FFA282H   LINE      CODE     ---       #118
      00FFA29DH   LINE      CODE     ---       #120
      00FFA2B8H   LINE      CODE     ---       #122
      00FFA2D2H   LINE      CODE     ---       #124
      ---         BLOCKEND  ---      ---       LVL=0
      REG=3       REGSYM    ---      ---       str

      00FFC911H   BLOCK     CODE     ---       LVL=0
      WR6         REGSYM    ---      INT       uart_n
      0001170CH   SYMBOL    XDATA    BYTE      dat
      00FFC911H   LINE      CODE     ---       #154
      00FFC915H   LINE      CODE     ---       #156
      00FFC924H   LINE      CODE     ---       #157
      ---         BLOCKEND  ---      ---       LVL=0

      00FFB4CBH   BLOCK     CODE     ---       LVL=0
      WR8         REGSYM    ---      INT       uart_n
      00FFB4CBH   LINE      CODE     ---       #165
      00FFB4CDH   LINE      CODE     ---       #167
      00FFB4E7H   LINE      CODE     ---       #168
      00FFB4FDH   LINE      CODE     ---       #169
      00FFB51DH   LINE      CODE     ---       #170
      00FFB53FH   LINE      CODE     ---       #171
      00FFB55AH   LINE      CODE     ---       #172
      ---         BLOCKEND  ---      ---       LVL=0

      00FFC24CH   BLOCK     CODE     ---       LVL=0
      WR2         REGSYM    ---      INT       uart_n
      R5          REGSYM    ---      BYTE      status
      00FFC24CH   LINE      CODE     ---       #183
L251 LINKER/LOCATER V4.66.93.0                                                        11/08/2025  20:32:40  PAGE 86


      00FFC250H   LINE      CODE     ---       #185
      00FFC254H   LINE      CODE     ---       #187
      00FFC271H   LINE      CODE     ---       #188
      00FFC273H   LINE      CODE     ---       #191
      00FFC290H   LINE      CODE     ---       #192
      00FFC290H   LINE      CODE     ---       #193
      ---         BLOCKEND  ---      ---       LVL=0
      WR8         REGSYM    ---      INT       uart_n
      R15         REGSYM    ---      BYTE      dat

      00FFBD63H   BLOCK     CODE     ---       LVL=0
      WR2         REGSYM    ---      INT       uart_n
      REG=7       REGSYM    ---      ---       dat
      00FFBD69H   BLOCK     CODE     NEAR LAB  LVL=1
      R15         REGSYM    ---      BYTE      ret
      ---         BLOCKEND  ---      ---       LVL=1
      00FFBD63H   LINE      CODE     ---       #227
      00FFBD69H   LINE      CODE     ---       #228
      00FFBD69H   LINE      CODE     ---       #229
      00FFBD6BH   LINE      CODE     ---       #232
      00FFBD7BH   LINE      CODE     ---       #234
      00FFBD97H   LINE      CODE     ---       #236
      00FFBD9AH   LINE      CODE     ---       #238
      00FFBDB7H   LINE      CODE     ---       #239
      00FFBDB9H   LINE      CODE     ---       #242
      00FFBDBBH   LINE      CODE     ---       #243
      00FFBDBBH   LINE      CODE     ---       #246
      00FFBDC0H   LINE      CODE     ---       #248
      00FFBDC2H   LINE      CODE     ---       #249
      ---         BLOCKEND  ---      ---       LVL=0

      00FF98B5H   BLOCK     CODE     ---       LVL=0
      WR8         REGSYM    ---      INT       uart_n
      00FF98B5H   LINE      CODE     ---       #257
      00FF98B7H   LINE      CODE     ---       #259
      00FF98D1H   LINE      CODE     ---       #260
      00FF98EBH   LINE      CODE     ---       #261
      00FF9905H   LINE      CODE     ---       #263
      00FF991FH   LINE      CODE     ---       #264
      00FF9939H   LINE      CODE     ---       #265
      00FF9953H   LINE      CODE     ---       #267
      00FF996DH   LINE      CODE     ---       #268
      00FF9983H   LINE      CODE     ---       #269
      00FF99A3H   LINE      CODE     ---       #270
      00FF99C5H   LINE      CODE     ---       #271
      00FF99E0H   LINE      CODE     ---       #272
      00FF99FBH   LINE      CODE     ---       #274
      ---         BLOCKEND  ---      ---       LVL=0

      00FF8599H   BLOCK     CODE     ---       LVL=0
      WR12        REGSYM    ---      INT       uart_n
      00011695H   SYMBOL    XDATA    DWORD     baud
      WR14        REGSYM    ---      INT       tx_pin
      00011699H   SYMBOL    XDATA    INT       rx_pin
      00FF85A9H   BLOCK     CODE     NEAR LAB  LVL=1
      WR6         REGSYM    ---      WORD      brt
      ---         BLOCKEND  ---      ---       LVL=1
      00FF8599H   LINE      CODE     ---       #286
      00FF85A9H   LINE      CODE     ---       #287
      00FF85A9H   LINE      CODE     ---       #296
      00FF85BFH   LINE      CODE     ---       #303
      00FF85D9H   LINE      CODE     ---       #308
      00FF8607H   LINE      CODE     ---       #311
      00FF8619H   LINE      CODE     ---       #312
      00FF862DH   LINE      CODE     ---       #314
L251 LINKER/LOCATER V4.66.93.0                                                        11/08/2025  20:32:40  PAGE 87


      00FF865EH   LINE      CODE     ---       #316
      00FF867EH   LINE      CODE     ---       #318
      00FF867EH   LINE      CODE     ---       #332
      00FF8681H   LINE      CODE     ---       #333
      00FF8685H   LINE      CODE     ---       #334
      00FF868BH   LINE      CODE     ---       #335
      00FF868EH   LINE      CODE     ---       #336
      00FF8690H   LINE      CODE     ---       #339
      00FF8693H   LINE      CODE     ---       #341
      00FF86A5H   LINE      CODE     ---       #343
      00FF86A9H   LINE      CODE     ---       #344
      00FF86ACH   LINE      CODE     ---       #345
      00FF86BEH   LINE      CODE     ---       #347
      00FF86C1H   LINE      CODE     ---       #348
      00FF86C4H   LINE      CODE     ---       #349
      00FF86D6H   LINE      CODE     ---       #351
      00FF86D9H   LINE      CODE     ---       #352
      00FF86DCH   LINE      CODE     ---       #353
      00FF86F4H   LINE      CODE     ---       #355
      00FF86F7H   LINE      CODE     ---       #356
      00FF86F7H   LINE      CODE     ---       #359
      00FF86FAH   LINE      CODE     ---       #362
      00FF86FAH   LINE      CODE     ---       #366
      00FF86FDH   LINE      CODE     ---       #367
      00FF8701H   LINE      CODE     ---       #368
      00FF8707H   LINE      CODE     ---       #369
      00FF870AH   LINE      CODE     ---       #372
      00FF870DH   LINE      CODE     ---       #374
      00FF871FH   LINE      CODE     ---       #376
      00FF8723H   LINE      CODE     ---       #377
      00FF8726H   LINE      CODE     ---       #378
      00FF873EH   LINE      CODE     ---       #380
      00FF8741H   LINE      CODE     ---       #381
      00FF8741H   LINE      CODE     ---       #385
      00FF8744H   LINE      CODE     ---       #388
      00FF8744H   LINE      CODE     ---       #392
      00FF8747H   LINE      CODE     ---       #393
      00FF874BH   LINE      CODE     ---       #394
      00FF8751H   LINE      CODE     ---       #395
      00FF8754H   LINE      CODE     ---       #405
      00FF8757H   LINE      CODE     ---       #407
      00FF8769H   LINE      CODE     ---       #409
      00FF876DH   LINE      CODE     ---       #410
      00FF876FH   LINE      CODE     ---       #411
      00FF8781H   LINE      CODE     ---       #413
      00FF8784H   LINE      CODE     ---       #414
      00FF8784H   LINE      CODE     ---       #418
      00FF8786H   LINE      CODE     ---       #421
      00FF8786H   LINE      CODE     ---       #425
      00FF8789H   LINE      CODE     ---       #426
      00FF878DH   LINE      CODE     ---       #427
      00FF8793H   LINE      CODE     ---       #428
      00FF8796H   LINE      CODE     ---       #438
      00FF8799H   LINE      CODE     ---       #440
      00FF87ABH   LINE      CODE     ---       #442
      00FF87AFH   LINE      CODE     ---       #443
      00FF87B1H   LINE      CODE     ---       #444
      00FF87C3H   LINE      CODE     ---       #448
      00FF87C6H   LINE      CODE     ---       #449
      00FF87C6H   LINE      CODE     ---       #453
      00FF87C6H   LINE      CODE     ---       #456
      00FF87C6H   LINE      CODE     ---       #459
      00FF87CBH   LINE      CODE     ---       #461
      ---         BLOCKEND  ---      ---       LVL=0

L251 LINKER/LOCATER V4.66.93.0                                                        11/08/2025  20:32:40  PAGE 88


      ---         MODULE    ---      ---       zf_device_config
      00FF021EH   PUBLIC    CODE     ---       imu660ra_config_file

      ---         MODULE    ---      ---       zf_device_type
      00011954H   PUBLIC    XDATA    ---       tof_module_exti_handler
      00011956H   PUBLIC    XDATA    INT       wireless_type
      00011958H   PUBLIC    XDATA    INT       tof_type
      0001195AH   PUBLIC    XDATA    INT       gps_type
      000000D0H   SFRSYM    DATA     BYTE      PSW
      0000009DH   SFRSYM    DATA     BYTE      IRCBAND
      00000097H   SFRSYM    DATA     BYTE      AUXR2
      000000EFH   SFRSYM    DATA     BYTE      AUXINTIF
      000000FDH   SFRSYM    DATA     BYTE      S4CON
      000000ACH   SFRSYM    DATA     BYTE      S3CON
      0000009AH   SFRSYM    DATA     BYTE      S2CON
      000000B7H   SFRSYM    DATA     BYTE      IPH
      000000CDH   SFRSYM    DATA     BYTE      SPSTAT
      000000DDH   SFRSYM    DATA     BYTE      T4T3M
      000000C1H   SFRSYM    DATA     BYTE      WDT_CONTR
      000000DFH   SFRSYM    DATA     BYTE      IP3
      000000F4H   SFRSYM    DATA     BYTE      USBCON
      000000B5H   SFRSYM    DATA     BYTE      IP2
      000000FFH   SFRSYM    DATA     BYTE      RSTCFG
      000000C7H   SFRSYM    DATA     BYTE      IAP_CONTR
      0000008EH   SFRSYM    DATA     BYTE      AUXR
      000000AFH   SFRSYM    DATA     BYTE      IE2
      00000088H   SFRSYM    DATA     BYTE      TCON
      00000089H   SFRSYM    DATA     BYTE      TMOD
      00000098H   SFRSYM    DATA     BYTE      SCON
      00000087H   SFRSYM    DATA     BYTE      PCON
      000000BCH   SFRSYM    DATA     BYTE      ADC_CONTR
      000000D1H   SFRSYM    DATA     BYTE      PSW1
      000000E7H   SFRSYM    DATA     BYTE      CMPCR2
      000000E6H   SFRSYM    DATA     BYTE      CMPCR1
      000000DEH   SFRSYM    DATA     BYTE      ADCCFG
      000000B8H   SFRSYM    DATA     BYTE      IP
      0000008FH   SFRSYM    DATA     BYTE      INTCLKO
      000000EEH   SFRSYM    DATA     BYTE      IP3H
      000000B6H   SFRSYM    DATA     BYTE      IP2H
      000000BFH   SFRSYM    DATA     BYTE      P_SW4
      000000A8H   SFRSYM    DATA     BYTE      IE
      000000BBH   SFRSYM    DATA     BYTE      P_SW3
      000000BAH   SFRSYM    DATA     BYTE      P_SW2
      000000A2H   SFRSYM    DATA     BYTE      P_SW1
      000000CEH   SFRSYM    DATA     BYTE      SPCTL
      000000F8H   SFRSYM    DATA     BYTE      P7
      000000E8H   SFRSYM    DATA     BYTE      P6
      000000C8H   SFRSYM    DATA     BYTE      P5
      000000C0H   SFRSYM    DATA     BYTE      P4
      000000ABH   SFRSYM    DATA     BYTE      WKTCH
      000000B0H   SFRSYM    DATA     BYTE      P3
      000000A0H   SFRSYM    DATA     BYTE      P2
      00000090H   SFRSYM    DATA     BYTE      P1
      00000080H   SFRSYM    DATA     BYTE      P0
      WR6         REGSYM    ---      INT       type_set
      WR4         REGSYM    ---      INT       uartx
      REG=0       REGSYM    ---      ---       uart_callback
      WR6         REGSYM    ---      INT       type_set
      REG=0       REGSYM    ---      ---       exti_callback
      WR6         REGSYM    ---      INT       type_set
      WR4         REGSYM    ---      INT       uartx
      REG=0       REGSYM    ---      ---       uart_callback

      ---         MODULE    ---      ---       zf_device_tft180
      00FF7AF1H   PUBLIC    CODE     ---       tft180_init
L251 LINKER/LOCATER V4.66.93.0                                                        11/08/2025  20:32:40  PAGE 89


      00FF8FB4H   PUBLIC    CODE     ---       tft180_show_float
      00FFAEA7H   PUBLIC    CODE     ---       tft180_show_string
      00FFA3B4H   PUBLIC    CODE     ---       tft180_show_char
      00FF000EH   PUBLIC    CODE     ---       tft180_set_color
      00FF9C77H   PUBLIC    CODE     ---       tft180_show_int16
      00FFC7EDH   PUBLIC    CODE     ---       tft180_set_dir
      00FFBC34H   PUBLIC    CODE     ---       tft180_clear
      0001195CH   PUBLIC    XDATA    WORD      tft180_pencolor
      0001195EH   PUBLIC    XDATA    WORD      tft180_bgcolor
      00011960H   PUBLIC    XDATA    INT       tft180_display_dir
      00011962H   PUBLIC    XDATA    BYTE      tft180_x_max
      00011963H   PUBLIC    XDATA    BYTE      tft180_y_max
      00011693H   PUBLIC    XDATA    BYTE      ?tft180_show_float?BYTE
      000000D0H   SFRSYM    DATA     BYTE      PSW
      0000009DH   SFRSYM    DATA     BYTE      IRCBAND
      00000097H   SFRSYM    DATA     BYTE      AUXR2
      000000EFH   SFRSYM    DATA     BYTE      AUXINTIF
      000000FDH   SFRSYM    DATA     BYTE      S4CON
      000000ACH   SFRSYM    DATA     BYTE      S3CON
      0000009AH   SFRSYM    DATA     BYTE      S2CON
      000000B7H   SFRSYM    DATA     BYTE      IPH
      000000CDH   SFRSYM    DATA     BYTE      SPSTAT
      000000DDH   SFRSYM    DATA     BYTE      T4T3M
      000000C1H   SFRSYM    DATA     BYTE      WDT_CONTR
      000000DFH   SFRSYM    DATA     BYTE      IP3
      000000F4H   SFRSYM    DATA     BYTE      USBCON
      000000B5H   SFRSYM    DATA     BYTE      IP2
      000000FFH   SFRSYM    DATA     BYTE      RSTCFG
      000000C7H   SFRSYM    DATA     BYTE      IAP_CONTR
      0000008EH   SFRSYM    DATA     BYTE      AUXR
      000000AFH   SFRSYM    DATA     BYTE      IE2
      00000088H   SFRSYM    DATA     BYTE      TCON
      00000089H   SFRSYM    DATA     BYTE      TMOD
      00000098H   SFRSYM    DATA     BYTE      SCON
      000000A0H.2 SFRSYM    DATA     BIT       P22
      000000A0H.1 SFRSYM    DATA     BIT       P21
      000000A0H.0 SFRSYM    DATA     BIT       P20
      00000087H   SFRSYM    DATA     BYTE      PCON
      000000BCH   SFRSYM    DATA     BYTE      ADC_CONTR
      000000D1H   SFRSYM    DATA     BYTE      PSW1
      000000E7H   SFRSYM    DATA     BYTE      CMPCR2
      000000E6H   SFRSYM    DATA     BYTE      CMPCR1
      000000DEH   SFRSYM    DATA     BYTE      ADCCFG
      000000B8H   SFRSYM    DATA     BYTE      IP
      0000008FH   SFRSYM    DATA     BYTE      INTCLKO
      000000EEH   SFRSYM    DATA     BYTE      IP3H
      000000B6H   SFRSYM    DATA     BYTE      IP2H
      000000BFH   SFRSYM    DATA     BYTE      P_SW4
      000000A8H   SFRSYM    DATA     BYTE      IE
      000000BBH   SFRSYM    DATA     BYTE      P_SW3
      000000BAH   SFRSYM    DATA     BYTE      P_SW2
      000000A2H   SFRSYM    DATA     BYTE      P_SW1
      000000CEH   SFRSYM    DATA     BYTE      SPCTL
      000000F8H   SFRSYM    DATA     BYTE      P7
      000000E8H   SFRSYM    DATA     BYTE      P6
      000000C8H   SFRSYM    DATA     BYTE      P5
      000000C0H   SFRSYM    DATA     BYTE      P4
      000000ABH   SFRSYM    DATA     BYTE      WKTCH
      000000B0H   SFRSYM    DATA     BYTE      P3
      000000A0H   SFRSYM    DATA     BYTE      P2
      00000090H   SFRSYM    DATA     BYTE      P1
      00000080H   SFRSYM    DATA     BYTE      P0
      00FF9DAAH   SYMBOL    CODE     ---       tft180_set_region
      00FFC8E5H   SYMBOL    CODE     ---       tft180_write_index

L251 LINKER/LOCATER V4.66.93.0                                                        11/08/2025  20:32:40  PAGE 90


      00FFC8E5H   BLOCK     CODE     ---       LVL=0
      R5          REGSYM    ---      BYTE      dat
      00FFC8E5H   LINE      CODE     ---       #80
      00FFC8E7H   LINE      CODE     ---       #82
      00FFC8E9H   LINE      CODE     ---       #83
      00FFC8EBH   LINE      CODE     ---       #84
      00FFC8EDH   LINE      CODE     ---       #85
      00FFC8F4H   LINE      CODE     ---       #86
      00FFC8F6H   LINE      CODE     ---       #87
      00FFC8F8H   LINE      CODE     ---       #88
      00FFC8FAH   LINE      CODE     ---       #89
      ---         BLOCKEND  ---      ---       LVL=0

      00FF9DAAH   BLOCK     CODE     ---       LVL=0
      000116D0H   SYMBOL    XDATA    WORD      x1
      000116D2H   SYMBOL    XDATA    WORD      y1
      WR12        REGSYM    ---      WORD      x2
      WR14        REGSYM    ---      WORD      y2
      00FF9DAAH   LINE      CODE     ---       #100
      00FF9DBCH   LINE      CODE     ---       #102
      00FF9DE0H   LINE      CODE     ---       #103
      00FF9E04H   LINE      CODE     ---       #104
      00FF9E22H   LINE      CODE     ---       #105
      00FF9E40H   LINE      CODE     ---       #107
      00FF9E56H   LINE      CODE     ---       #109
      00FF9E5BH   LINE      CODE     ---       #110
      00FF9E68H   LINE      CODE     ---       #111
      00FF9E71H   LINE      CODE     ---       #113
      00FF9E76H   LINE      CODE     ---       #114
      00FF9E83H   LINE      CODE     ---       #115
      00FF9E8CH   LINE      CODE     ---       #116
      00FF9E8EH   LINE      CODE     ---       #119
      00FF9E93H   LINE      CODE     ---       #120
      00FF9EA0H   LINE      CODE     ---       #121
      00FF9EA9H   LINE      CODE     ---       #123
      00FF9EAEH   LINE      CODE     ---       #124
      00FF9EBBH   LINE      CODE     ---       #125
      00FF9EC4H   LINE      CODE     ---       #126
      00FF9EC4H   LINE      CODE     ---       #127
      00FF9EC9H   LINE      CODE     ---       #128
      ---         BLOCKEND  ---      ---       LVL=0

      00FFBC34H   BLOCK     CODE     ---       LVL=0
      WR14        REGSYM    ---      WORD      color
      00FFBC38H   BLOCK     CODE     NEAR LAB  LVL=1
      00011695H   SYMBOL    XDATA    DWORD     i
      ---         BLOCKEND  ---      ---       LVL=1
      00FFBC34H   LINE      CODE     ---       #138
      00FFBC38H   LINE      CODE     ---       #139
      00FFBC38H   LINE      CODE     ---       #140
      00FFBC55H   LINE      CODE     ---       #142
      00FFBC6CH   LINE      CODE     ---       #143
      00FFBC6EH   LINE      CODE     ---       #145
      00FFBC75H   LINE      CODE     ---       #146
      00FFBC98H   LINE      CODE     ---       #147
      ---         BLOCKEND  ---      ---       LVL=0

      00FFC7EDH   BLOCK     CODE     ---       LVL=0
      WR6         REGSYM    ---      INT       dir
      00FFC7EDH   LINE      CODE     ---       #155
      00FFC7EDH   LINE      CODE     ---       #157
      00FFC7F3H   LINE      CODE     ---       #158
      00FFC7F9H   LINE      CODE     ---       #160
      00FFC7FFH   LINE      CODE     ---       #161
      00FFC805H   LINE      CODE     ---       #162
L251 LINKER/LOCATER V4.66.93.0                                                        11/08/2025  20:32:40  PAGE 91


      00FFC807H   LINE      CODE     ---       #165
      00FFC80DH   LINE      CODE     ---       #166
      00FFC813H   LINE      CODE     ---       #167
      00FFC813H   LINE      CODE     ---       #168
      ---         BLOCKEND  ---      ---       LVL=0

      00FF000EH   BLOCK     CODE     ---       LVL=0
      WR6         REGSYM    ---      WORD      pen
      WR4         REGSYM    ---      WORD      bgcolor
      00FF000EH   LINE      CODE     ---       #177
      00FF000EH   LINE      CODE     ---       #179
      00FF0014H   LINE      CODE     ---       #180
      00FF001AH   LINE      CODE     ---       #181
      ---         BLOCKEND  ---      ---       LVL=0
      WR12        REGSYM    ---      WORD      x
      WR14        REGSYM    ---      WORD      y

      00FFA3B4H   BLOCK     CODE     ---       LVL=0
      WR12        REGSYM    ---      WORD      x
      WR14        REGSYM    ---      WORD      y
      000116CCH   SYMBOL    XDATA    CHAR      dat
      00FFA3BEH   BLOCK     CODE     NEAR LAB  LVL=1
      000116CDH   SYMBOL    XDATA    BYTE      i
      000116CEH   SYMBOL    XDATA    BYTE      j
      000116CFH   SYMBOL    XDATA    BYTE      temp
      ---         BLOCKEND  ---      ---       LVL=1
      00FFA3B4H   LINE      CODE     ---       #208
      00FFA3BEH   LINE      CODE     ---       #209
      00FFA3BEH   LINE      CODE     ---       #213
      00FFA3DCH   LINE      CODE     ---       #214
      00FFA3FAH   LINE      CODE     ---       #216
      00FFA402H   LINE      CODE     ---       #218
      00FFA41DH   LINE      CODE     ---       #219
      00FFA443H   LINE      CODE     ---       #220
      00FFA44AH   LINE      CODE     ---       #222
      00FFA451H   LINE      CODE     ---       #223
      00FFA45EH   LINE      CODE     ---       #225
      00FFA469H   LINE      CODE     ---       #226
      00FFA470H   LINE      CODE     ---       #227
      00FFA47FH   LINE      CODE     ---       #228
      00FFA491H   LINE      CODE     ---       #229
      ---         BLOCKEND  ---      ---       LVL=0

      00FFAEA7H   BLOCK     CODE     ---       LVL=0
      000116C6H   SYMBOL    XDATA    WORD      x
      000116C8H   SYMBOL    XDATA    WORD      y
      REG=3       REGSYM    ---      ---       dat
      00FFAEB7H   BLOCK     CODE     NEAR LAB  LVL=1
      000116CAH   SYMBOL    XDATA    WORD      j
      ---         BLOCKEND  ---      ---       LVL=1
      00FFAEA7H   LINE      CODE     ---       #239
      00FFAEB7H   LINE      CODE     ---       #240
      00FFAEB7H   LINE      CODE     ---       #241
      00FFAEBFH   LINE      CODE     ---       #243
      00FFAEE3H   LINE      CODE     ---       #244
      00FFAF07H   LINE      CODE     ---       #247
      00FFAF09H   LINE      CODE     ---       #249
      00FFAF33H   LINE      CODE     ---       #250
      00FFAF3EH   LINE      CODE     ---       #251
      00FFAF4DH   LINE      CODE     ---       #252
      ---         BLOCKEND  ---      ---       LVL=0
      WR12        REGSYM    ---      WORD      x
      WR14        REGSYM    ---      WORD      y
      WR12        REGSYM    ---      WORD      x
      WR14        REGSYM    ---      WORD      y
L251 LINKER/LOCATER V4.66.93.0                                                        11/08/2025  20:32:40  PAGE 92



      00FF9C77H   BLOCK     CODE     ---       LVL=0
      WR12        REGSYM    ---      WORD      x
      WR14        REGSYM    ---      WORD      y
      00011695H   SYMBOL    XDATA    INT       dat
      00FF9C83H   BLOCK     CODE     NEAR LAB  LVL=1
      00011697H   SYMBOL    XDATA    ---       a
      0001169CH   SYMBOL    XDATA    BYTE      i
      ---         BLOCKEND  ---      ---       LVL=1
      00FF9C77H   LINE      CODE     ---       #326
      00FF9C83H   LINE      CODE     ---       #327
      00FF9C83H   LINE      CODE     ---       #331
      00FF9CA1H   LINE      CODE     ---       #332
      00FF9CBFH   LINE      CODE     ---       #334
      00FF9CCBH   LINE      CODE     ---       #336
      00FF9CD4H   LINE      CODE     ---       #337
      00FF9CE6H   LINE      CODE     ---       #338
      00FF9CE8H   LINE      CODE     ---       #339
      00FF9CF1H   LINE      CODE     ---       #341
      00FF9D04H   LINE      CODE     ---       #342
      00FF9D1EH   LINE      CODE     ---       #343
      00FF9D38H   LINE      CODE     ---       #344
      00FF9D52H   LINE      CODE     ---       #345
      00FF9D65H   LINE      CODE     ---       #347
      00FF9D6AH   LINE      CODE     ---       #348
      00FF9D6CH   LINE      CODE     ---       #350
      00FF9D98H   LINE      CODE     ---       #351
      00FF9D9EH   LINE      CODE     ---       #352
      00FF9DA7H   LINE      CODE     ---       #353
      ---         BLOCKEND  ---      ---       LVL=0
      WR12        REGSYM    ---      WORD      x
      WR14        REGSYM    ---      WORD      y
      WR12        REGSYM    ---      WORD      y
      R15         REGSYM    ---      BYTE      num
      R14         REGSYM    ---      BYTE      length

      00FF8FB4H   BLOCK     CODE     ---       LVL=0
      00011695H   SYMBOL    XDATA    WORD      x
      WR12        REGSYM    ---      WORD      y
      00011697H   SYMBOL    XDATA    DOUBLE    dat
      R14         REGSYM    ---      BYTE      num
      R15         REGSYM    ---      BYTE      pointnum
      00FF8FC2H   BLOCK     CODE     NEAR LAB  LVL=1
      000116A1H   SYMBOL    XDATA    BYTE      length
      000116A2H   SYMBOL    XDATA    ---       buff
      000116C4H   SYMBOL    XDATA    CHAR      start
      000116C5H   SYMBOL    XDATA    CHAR      end
      R10         REGSYM    ---      CHAR      point
      ---         BLOCKEND  ---      ---       LVL=1
      00FF8FB4H   LINE      CODE     ---       #437
      00FF8FC2H   LINE      CODE     ---       #438
      00FF8FC2H   LINE      CODE     ---       #443
      00FF8FE6H   LINE      CODE     ---       #444
      00FF9004H   LINE      CODE     ---       #446
      00FF900CH   LINE      CODE     ---       #447
      00FF9014H   LINE      CODE     ---       #449
      00FF906EH   LINE      CODE     ---       #452
      00FF90ABH   LINE      CODE     ---       #453
      00FF90B1H   LINE      CODE     ---       #454
      00FF90B1H   LINE      CODE     ---       #455
      00FF90BDH   LINE      CODE     ---       #456
      00FF90CBH   LINE      CODE     ---       #457
      00FF90D7H   LINE      CODE     ---       #458
      00FF90D9H   LINE      CODE     ---       #460
      00FF90EFH   LINE      CODE     ---       #461
L251 LINKER/LOCATER V4.66.93.0                                                        11/08/2025  20:32:40  PAGE 93


      00FF90F5H   LINE      CODE     ---       #462
      00FF90FBH   LINE      CODE     ---       #463
      00FF9104H   LINE      CODE     ---       #465
      00FF9137H   LINE      CODE     ---       #466
      00FF914DH   LINE      CODE     ---       #468
      00FF9162H   LINE      CODE     ---       #470
      00FF9175H   LINE      CODE     ---       #471
      ---         BLOCKEND  ---      ---       LVL=0
      REG=3       REGSYM    ---      ---       p

      00FF7AF1H   BLOCK     CODE     ---       LVL=0
      00FF7AF1H   LINE      CODE     ---       #515
      00FF7AF1H   LINE      CODE     ---       #520
      00FF7B28H   LINE      CODE     ---       #528
      00FF7B31H   LINE      CODE     ---       #529
      00FF7B40H   LINE      CODE     ---       #531
      00FF7B42H   LINE      CODE     ---       #532
      00FF7B49H   LINE      CODE     ---       #534
      00FF7B4BH   LINE      CODE     ---       #535
      00FF7B52H   LINE      CODE     ---       #537
      00FF7B57H   LINE      CODE     ---       #538
      00FF7B5EH   LINE      CODE     ---       #540
      00FF7B63H   LINE      CODE     ---       #541
      00FF7B6AH   LINE      CODE     ---       #542
      00FF7B71H   LINE      CODE     ---       #543
      00FF7B78H   LINE      CODE     ---       #545
      00FF7B7DH   LINE      CODE     ---       #546
      00FF7B84H   LINE      CODE     ---       #547
      00FF7B8BH   LINE      CODE     ---       #548
      00FF7B92H   LINE      CODE     ---       #550
      00FF7B97H   LINE      CODE     ---       #551
      00FF7B9EH   LINE      CODE     ---       #552
      00FF7BA5H   LINE      CODE     ---       #553
      00FF7BACH   LINE      CODE     ---       #554
      00FF7BB3H   LINE      CODE     ---       #555
      00FF7BBAH   LINE      CODE     ---       #556
      00FF7BC1H   LINE      CODE     ---       #558
      00FF7BC6H   LINE      CODE     ---       #559
      00FF7BCDH   LINE      CODE     ---       #561
      00FF7BD2H   LINE      CODE     ---       #562
      00FF7BD9H   LINE      CODE     ---       #563
      00FF7BE0H   LINE      CODE     ---       #564
      00FF7BE7H   LINE      CODE     ---       #565
      00FF7BECH   LINE      CODE     ---       #566
      00FF7BF3H   LINE      CODE     ---       #568
      00FF7BF8H   LINE      CODE     ---       #569
      00FF7BFFH   LINE      CODE     ---       #570
      00FF7C05H   LINE      CODE     ---       #572
      00FF7C0AH   LINE      CODE     ---       #573
      00FF7C11H   LINE      CODE     ---       #574
      00FF7C18H   LINE      CODE     ---       #575
      00FF7C1DH   LINE      CODE     ---       #576
      00FF7C24H   LINE      CODE     ---       #577
      00FF7C2BH   LINE      CODE     ---       #579
      00FF7C30H   LINE      CODE     ---       #580
      00FF7C37H   LINE      CODE     ---       #582
      00FF7C3CH   LINE      CODE     ---       #583
      00FF7C54H   LINE      CODE     ---       #585
      00FF7C5DH   LINE      CODE     ---       #586
      00FF7C65H   LINE      CODE     ---       #587
      00FF7C6EH   LINE      CODE     ---       #588
      00FF7C75H   LINE      CODE     ---       #589
      00FF7C75H   LINE      CODE     ---       #591
      00FF7C7AH   LINE      CODE     ---       #592
      00FF7C81H   LINE      CODE     ---       #593
L251 LINKER/LOCATER V4.66.93.0                                                        11/08/2025  20:32:40  PAGE 94


      00FF7C88H   LINE      CODE     ---       #594
      00FF7C8FH   LINE      CODE     ---       #595
      00FF7C96H   LINE      CODE     ---       #596
      00FF7C9DH   LINE      CODE     ---       #597
      00FF7CA4H   LINE      CODE     ---       #598
      00FF7CABH   LINE      CODE     ---       #599
      00FF7CB2H   LINE      CODE     ---       #600
      00FF7CB9H   LINE      CODE     ---       #601
      00FF7CC0H   LINE      CODE     ---       #602
      00FF7CC7H   LINE      CODE     ---       #603
      00FF7CCEH   LINE      CODE     ---       #604
      00FF7CD4H   LINE      CODE     ---       #605
      00FF7CDBH   LINE      CODE     ---       #606
      00FF7CE2H   LINE      CODE     ---       #607
      00FF7CE9H   LINE      CODE     ---       #609
      00FF7CEEH   LINE      CODE     ---       #610
      00FF7CF5H   LINE      CODE     ---       #611
      00FF7CFCH   LINE      CODE     ---       #612
      00FF7D03H   LINE      CODE     ---       #613
      00FF7D0AH   LINE      CODE     ---       #614
      00FF7D11H   LINE      CODE     ---       #615
      00FF7D18H   LINE      CODE     ---       #616
      00FF7D1FH   LINE      CODE     ---       #617
      00FF7D26H   LINE      CODE     ---       #618
      00FF7D2DH   LINE      CODE     ---       #619
      00FF7D34H   LINE      CODE     ---       #620
      00FF7D3BH   LINE      CODE     ---       #621
      00FF7D42H   LINE      CODE     ---       #622
      00FF7D48H   LINE      CODE     ---       #623
      00FF7D4FH   LINE      CODE     ---       #624
      00FF7D56H   LINE      CODE     ---       #625
      00FF7D5DH   LINE      CODE     ---       #627
      00FF7D62H   LINE      CODE     ---       #628
      00FF7D68H   LINE      CODE     ---       #629
      00FF7D6FH   LINE      CODE     ---       #630
      00FF7D75H   LINE      CODE     ---       #631
      00FF7D7CH   LINE      CODE     ---       #633
      00FF7D81H   LINE      CODE     ---       #634
      00FF7D87H   LINE      CODE     ---       #635
      00FF7D8EH   LINE      CODE     ---       #636
      00FF7D94H   LINE      CODE     ---       #637
      00FF7D9BH   LINE      CODE     ---       #639
      00FF7DA0H   LINE      CODE     ---       #640
      00FF7DA7H   LINE      CODE     ---       #641
      00FF7DACH   LINE      CODE     ---       #642
      00FF7DB2H   LINE      CODE     ---       #644
      00FF7DB7H   LINE      CODE     ---       #645
      00FF7DBEH   LINE      CODE     ---       #646
      00FF7DC3H   LINE      CODE     ---       #648
      00FF7DCCH   LINE      CODE     ---       #649
      ---         BLOCKEND  ---      ---       LVL=0

      ---         MODULE    ---      ---       zf_device_ips114
      00011964H   PUBLIC    XDATA    WORD      ips114_pencolor
      00011966H   PUBLIC    XDATA    WORD      ips114_bgcolor
      00011968H   PUBLIC    XDATA    INT       ips114_display_dir
      0001196AH   PUBLIC    XDATA    BYTE      ips114_x_max
      0001196BH   PUBLIC    XDATA    BYTE      ips114_y_max
      000000D0H   SFRSYM    DATA     BYTE      PSW
      0000009DH   SFRSYM    DATA     BYTE      IRCBAND
      00000097H   SFRSYM    DATA     BYTE      AUXR2
      000000EFH   SFRSYM    DATA     BYTE      AUXINTIF
      000000FDH   SFRSYM    DATA     BYTE      S4CON
      000000ACH   SFRSYM    DATA     BYTE      S3CON
      0000009AH   SFRSYM    DATA     BYTE      S2CON
L251 LINKER/LOCATER V4.66.93.0                                                        11/08/2025  20:32:40  PAGE 95


      000000B7H   SFRSYM    DATA     BYTE      IPH
      000000CDH   SFRSYM    DATA     BYTE      SPSTAT
      000000DDH   SFRSYM    DATA     BYTE      T4T3M
      000000C1H   SFRSYM    DATA     BYTE      WDT_CONTR
      000000DFH   SFRSYM    DATA     BYTE      IP3
      000000F4H   SFRSYM    DATA     BYTE      USBCON
      000000B5H   SFRSYM    DATA     BYTE      IP2
      000000FFH   SFRSYM    DATA     BYTE      RSTCFG
      000000C7H   SFRSYM    DATA     BYTE      IAP_CONTR
      0000008EH   SFRSYM    DATA     BYTE      AUXR
      000000AFH   SFRSYM    DATA     BYTE      IE2
      00000088H   SFRSYM    DATA     BYTE      TCON
      00000089H   SFRSYM    DATA     BYTE      TMOD
      00000098H   SFRSYM    DATA     BYTE      SCON
      000000A0H.2 SFRSYM    DATA     BIT       P22
      000000A0H.1 SFRSYM    DATA     BIT       P21
      000000A0H.0 SFRSYM    DATA     BIT       P20
      00000087H   SFRSYM    DATA     BYTE      PCON
      000000BCH   SFRSYM    DATA     BYTE      ADC_CONTR
      000000D1H   SFRSYM    DATA     BYTE      PSW1
      000000E7H   SFRSYM    DATA     BYTE      CMPCR2
      000000E6H   SFRSYM    DATA     BYTE      CMPCR1
      000000DEH   SFRSYM    DATA     BYTE      ADCCFG
      000000B8H   SFRSYM    DATA     BYTE      IP
      0000008FH   SFRSYM    DATA     BYTE      INTCLKO
      000000EEH   SFRSYM    DATA     BYTE      IP3H
      000000B6H   SFRSYM    DATA     BYTE      IP2H
      000000BFH   SFRSYM    DATA     BYTE      P_SW4
      000000A8H   SFRSYM    DATA     BYTE      IE
      000000BBH   SFRSYM    DATA     BYTE      P_SW3
      000000BAH   SFRSYM    DATA     BYTE      P_SW2
      000000A2H   SFRSYM    DATA     BYTE      P_SW1
      000000CEH   SFRSYM    DATA     BYTE      SPCTL
      000000F8H   SFRSYM    DATA     BYTE      P7
      000000E8H   SFRSYM    DATA     BYTE      P6
      000000C8H   SFRSYM    DATA     BYTE      P5
      000000C0H   SFRSYM    DATA     BYTE      P4
      000000ABH   SFRSYM    DATA     BYTE      WKTCH
      000000B0H   SFRSYM    DATA     BYTE      P3
      000000A0H   SFRSYM    DATA     BYTE      P2
      00000090H   SFRSYM    DATA     BYTE      P1
      00000080H   SFRSYM    DATA     BYTE      P0
      R5          REGSYM    ---      BYTE      dat
      WR12        REGSYM    ---      WORD      x2
      WR14        REGSYM    ---      WORD      y2
      WR14        REGSYM    ---      WORD      color
      WR12        REGSYM    ---      WORD      i
      WR6         REGSYM    ---      INT       dir
      WR6         REGSYM    ---      WORD      pen
      WR4         REGSYM    ---      WORD      bgcolor
      WR12        REGSYM    ---      WORD      x
      WR14        REGSYM    ---      WORD      y
      WR12        REGSYM    ---      WORD      x
      WR14        REGSYM    ---      WORD      y
      REG=3       REGSYM    ---      ---       dat
      WR12        REGSYM    ---      WORD      x
      WR14        REGSYM    ---      WORD      y
      WR12        REGSYM    ---      WORD      x
      WR14        REGSYM    ---      WORD      y
      WR12        REGSYM    ---      WORD      x
      WR14        REGSYM    ---      WORD      y
      WR12        REGSYM    ---      WORD      x
      WR14        REGSYM    ---      WORD      y
      WR12        REGSYM    ---      WORD      y
      R15         REGSYM    ---      BYTE      num
L251 LINKER/LOCATER V4.66.93.0                                                        11/08/2025  20:32:40  PAGE 96


      R14         REGSYM    ---      BYTE      length
      WR12        REGSYM    ---      WORD      y
      R14         REGSYM    ---      BYTE      num
      R15         REGSYM    ---      BYTE      pointnum
      R10         REGSYM    ---      CHAR      point
      REG=3       REGSYM    ---      ---       p
      REG=3       REGSYM    ---      ---       p

      ---         MODULE    ---      ---       zf_device_ips200
      00011942H   PUBLIC    XDATA    WORD      ips200_pencolor
      00011944H   PUBLIC    XDATA    WORD      ips200_bgcolor
      00011946H   PUBLIC    XDATA    INT       ips200_display_dir
      00011948H   PUBLIC    XDATA    WORD      ips200_x_max
      0001194AH   PUBLIC    XDATA    WORD      ips200_y_max
      000000D0H   SFRSYM    DATA     BYTE      PSW
      0000009DH   SFRSYM    DATA     BYTE      IRCBAND
      00000097H   SFRSYM    DATA     BYTE      AUXR2
      000000EFH   SFRSYM    DATA     BYTE      AUXINTIF
      000000FDH   SFRSYM    DATA     BYTE      S4CON
      000000ACH   SFRSYM    DATA     BYTE      S3CON
      0000009AH   SFRSYM    DATA     BYTE      S2CON
      000000B7H   SFRSYM    DATA     BYTE      IPH
      000000CDH   SFRSYM    DATA     BYTE      SPSTAT
      000000DDH   SFRSYM    DATA     BYTE      T4T3M
      000000C1H   SFRSYM    DATA     BYTE      WDT_CONTR
      000000DFH   SFRSYM    DATA     BYTE      IP3
      000000F4H   SFRSYM    DATA     BYTE      USBCON
      000000B5H   SFRSYM    DATA     BYTE      IP2
      000000FFH   SFRSYM    DATA     BYTE      RSTCFG
      000000C7H   SFRSYM    DATA     BYTE      IAP_CONTR
      0000008EH   SFRSYM    DATA     BYTE      AUXR
      000000AFH   SFRSYM    DATA     BYTE      IE2
      00000088H   SFRSYM    DATA     BYTE      TCON
      00000089H   SFRSYM    DATA     BYTE      TMOD
      00000098H   SFRSYM    DATA     BYTE      SCON
      000000A0H.2 SFRSYM    DATA     BIT       P22
      000000A0H.1 SFRSYM    DATA     BIT       P21
      000000A0H.0 SFRSYM    DATA     BIT       P20
      00000087H   SFRSYM    DATA     BYTE      PCON
      000000BCH   SFRSYM    DATA     BYTE      ADC_CONTR
      000000D1H   SFRSYM    DATA     BYTE      PSW1
      000000E7H   SFRSYM    DATA     BYTE      CMPCR2
      000000E6H   SFRSYM    DATA     BYTE      CMPCR1
      000000DEH   SFRSYM    DATA     BYTE      ADCCFG
      000000B8H   SFRSYM    DATA     BYTE      IP
      0000008FH   SFRSYM    DATA     BYTE      INTCLKO
      000000EEH   SFRSYM    DATA     BYTE      IP3H
      000000B6H   SFRSYM    DATA     BYTE      IP2H
      000000BFH   SFRSYM    DATA     BYTE      P_SW4
      000000A8H   SFRSYM    DATA     BYTE      IE
      000000BBH   SFRSYM    DATA     BYTE      P_SW3
      000000BAH   SFRSYM    DATA     BYTE      P_SW2
      000000A2H   SFRSYM    DATA     BYTE      P_SW1
      000000CEH   SFRSYM    DATA     BYTE      SPCTL
      000000F8H   SFRSYM    DATA     BYTE      P7
      000000E8H   SFRSYM    DATA     BYTE      P6
      000000C8H   SFRSYM    DATA     BYTE      P5
      000000C0H   SFRSYM    DATA     BYTE      P4
      000000ABH   SFRSYM    DATA     BYTE      WKTCH
      000000B0H   SFRSYM    DATA     BYTE      P3
      000000A0H   SFRSYM    DATA     BYTE      P2
      00000090H   SFRSYM    DATA     BYTE      P1
      00000080H   SFRSYM    DATA     BYTE      P0
      R5          REGSYM    ---      BYTE      dat
      WR12        REGSYM    ---      WORD      x2
L251 LINKER/LOCATER V4.66.93.0                                                        11/08/2025  20:32:40  PAGE 97


      WR14        REGSYM    ---      WORD      y2
      WR14        REGSYM    ---      WORD      color
      WR12        REGSYM    ---      WORD      i
      WR6         REGSYM    ---      INT       dir
      WR6         REGSYM    ---      WORD      pen
      WR4         REGSYM    ---      WORD      bgcolor
      WR12        REGSYM    ---      WORD      x
      WR14        REGSYM    ---      WORD      y
      WR12        REGSYM    ---      WORD      x
      WR14        REGSYM    ---      WORD      y
      REG=3       REGSYM    ---      ---       dat
      WR12        REGSYM    ---      WORD      x
      WR14        REGSYM    ---      WORD      y
      WR12        REGSYM    ---      WORD      x
      WR14        REGSYM    ---      WORD      y
      WR12        REGSYM    ---      WORD      x
      WR14        REGSYM    ---      WORD      y
      WR12        REGSYM    ---      WORD      x
      WR14        REGSYM    ---      WORD      y
      WR12        REGSYM    ---      WORD      y
      R15         REGSYM    ---      BYTE      num
      R14         REGSYM    ---      BYTE      length
      WR12        REGSYM    ---      WORD      y
      R14         REGSYM    ---      BYTE      num
      R15         REGSYM    ---      BYTE      pointnum
      R10         REGSYM    ---      CHAR      point
      REG=3       REGSYM    ---      ---       p
      REG=3       REGSYM    ---      ---       p

      ---         MODULE    ---      ---       zf_device_dl1a
      00011902H   PUBLIC    XDATA    WORD      dl1a_distance_mm
      00011904H   PUBLIC    XDATA    BYTE      dl1a_finsh_flag
      000000D0H   SFRSYM    DATA     BYTE      PSW
      0000009DH   SFRSYM    DATA     BYTE      IRCBAND
      00000097H   SFRSYM    DATA     BYTE      AUXR2
      000000EFH   SFRSYM    DATA     BYTE      AUXINTIF
      000000FDH   SFRSYM    DATA     BYTE      S4CON
      000000ACH   SFRSYM    DATA     BYTE      S3CON
      0000009AH   SFRSYM    DATA     BYTE      S2CON
      000000B7H   SFRSYM    DATA     BYTE      IPH
      000000CDH   SFRSYM    DATA     BYTE      SPSTAT
      000000DDH   SFRSYM    DATA     BYTE      T4T3M
      000000C1H   SFRSYM    DATA     BYTE      WDT_CONTR
      000000DFH   SFRSYM    DATA     BYTE      IP3
      000000F4H   SFRSYM    DATA     BYTE      USBCON
      000000B5H   SFRSYM    DATA     BYTE      IP2
      000000FFH   SFRSYM    DATA     BYTE      RSTCFG
      000000C7H   SFRSYM    DATA     BYTE      IAP_CONTR
      0000008EH   SFRSYM    DATA     BYTE      AUXR
      000000AFH   SFRSYM    DATA     BYTE      IE2
      00000088H   SFRSYM    DATA     BYTE      TCON
      00000089H   SFRSYM    DATA     BYTE      TMOD
      00000098H   SFRSYM    DATA     BYTE      SCON
      00000087H   SFRSYM    DATA     BYTE      PCON
      000000BCH   SFRSYM    DATA     BYTE      ADC_CONTR
      000000D1H   SFRSYM    DATA     BYTE      PSW1
      000000E7H   SFRSYM    DATA     BYTE      CMPCR2
      000000E6H   SFRSYM    DATA     BYTE      CMPCR1
      000000DEH   SFRSYM    DATA     BYTE      ADCCFG
      000000B8H   SFRSYM    DATA     BYTE      IP
      0000008FH   SFRSYM    DATA     BYTE      INTCLKO
      000000EEH   SFRSYM    DATA     BYTE      IP3H
      000000B6H   SFRSYM    DATA     BYTE      IP2H
      000000BFH   SFRSYM    DATA     BYTE      P_SW4
      000000A8H   SFRSYM    DATA     BYTE      IE
L251 LINKER/LOCATER V4.66.93.0                                                        11/08/2025  20:32:40  PAGE 98


      000000BBH   SFRSYM    DATA     BYTE      P_SW3
      000000BAH   SFRSYM    DATA     BYTE      P_SW2
      000000A2H   SFRSYM    DATA     BYTE      P_SW1
      000000CEH   SFRSYM    DATA     BYTE      SPCTL
      000000F8H   SFRSYM    DATA     BYTE      P7
      000000E8H   SFRSYM    DATA     BYTE      P6
      000000C8H   SFRSYM    DATA     BYTE      P5
      000000C0H   SFRSYM    DATA     BYTE      P4
      000000ABH   SFRSYM    DATA     BYTE      WKTCH
      000000B0H   SFRSYM    DATA     BYTE      P3
      000000A0H   SFRSYM    DATA     BYTE      P2
      00000090H   SFRSYM    DATA     BYTE      P1
      00000080H   SFRSYM    DATA     BYTE      P0
      00FFE965H   SYMBOL    HCONST   ---       ?tpl?0001
      00FFE96DH   SYMBOL    HCONST   ---       ?tpl?0002
      00FFE973H   SYMBOL    HCONST   ---       ?tpl?0003
      00FFE97DH   SYMBOL    HCONST   ---       ?tpl?0004
      000118F9H   SYMBOL    XDATA    ---       dl1a_iic_struct
      00011905H   SYMBOL    XDATA    BYTE      dl1a_init_flag
      REG=3       REGSYM    ---      ---       type_is_aperture
      WR30        REGSYM    ---      WORD      timeout_period_mclks
      R5          REGSYM    ---      BYTE      vcsel_period_pclks
      DR24        REGSYM    ---      DWORD     macro_period_ns
      DR28        REGSYM    ---      DWORD     timeout_period_us
      R3          REGSYM    ---      BYTE      vcsel_period_pclks
      DR8         REGSYM    ---      DWORD     macro_period_ns
      WR4         REGSYM    ---      WORD      reg_val
      WR2         REGSYM    ---      WORD      timeout_mclks
      DR8         REGSYM    ---      DWORD     ls_byte
      WR4         REGSYM    ---      WORD      ms_byte
      WR6         REGSYM    ---      WORD      return_data
      REG=3       REGSYM    ---      ---       enables
      WR14        REGSYM    ---      INT       type
      REG=3       REGSYM    ---      ---       timeouts
      R10         REGSYM    ---      BYTE      vhv_init_byte
      R15         REGSYM    ---      BYTE      return_state
      DR12        REGSYM    ---      DWORD     budget_us
      DR12        REGSYM    ---      DWORD     budget_us
      DR28        REGSYM    ---      FLOAT     limit_mcps
      WR14        REGSYM    ---      WORD      limit_mcps_16bit
      R15         REGSYM    ---      BYTE      return_state
      R14         REGSYM    ---      BYTE      reg_data_buffer
      WR12        REGSYM    ---      WORD      i

      ---         MODULE    ---      ---       zf_device_ble6a20
      000000D0H   SFRSYM    DATA     BYTE      PSW
      0000009DH   SFRSYM    DATA     BYTE      IRCBAND
      00000097H   SFRSYM    DATA     BYTE      AUXR2
      000000EFH   SFRSYM    DATA     BYTE      AUXINTIF
      000000FDH   SFRSYM    DATA     BYTE      S4CON
      000000ACH   SFRSYM    DATA     BYTE      S3CON
      0000009AH   SFRSYM    DATA     BYTE      S2CON
      000000B7H   SFRSYM    DATA     BYTE      IPH
      000000CDH   SFRSYM    DATA     BYTE      SPSTAT
      000000DDH   SFRSYM    DATA     BYTE      T4T3M
      000000C1H   SFRSYM    DATA     BYTE      WDT_CONTR
      000000DFH   SFRSYM    DATA     BYTE      IP3
      000000F4H   SFRSYM    DATA     BYTE      USBCON
      000000B5H   SFRSYM    DATA     BYTE      IP2
      000000FFH   SFRSYM    DATA     BYTE      RSTCFG
      000000C7H   SFRSYM    DATA     BYTE      IAP_CONTR
      0000008EH   SFRSYM    DATA     BYTE      AUXR
      000000AFH   SFRSYM    DATA     BYTE      IE2
      00000088H   SFRSYM    DATA     BYTE      TCON
      00000089H   SFRSYM    DATA     BYTE      TMOD
L251 LINKER/LOCATER V4.66.93.0                                                        11/08/2025  20:32:40  PAGE 99


      00000098H   SFRSYM    DATA     BYTE      SCON
      00000087H   SFRSYM    DATA     BYTE      PCON
      000000BCH   SFRSYM    DATA     BYTE      ADC_CONTR
      000000D1H   SFRSYM    DATA     BYTE      PSW1
      000000E7H   SFRSYM    DATA     BYTE      CMPCR2
      000000E6H   SFRSYM    DATA     BYTE      CMPCR1
      000000DEH   SFRSYM    DATA     BYTE      ADCCFG
      000000B8H   SFRSYM    DATA     BYTE      IP
      0000008FH   SFRSYM    DATA     BYTE      INTCLKO
      000000EEH   SFRSYM    DATA     BYTE      IP3H
      000000B6H   SFRSYM    DATA     BYTE      IP2H
      000000BFH   SFRSYM    DATA     BYTE      P_SW4
      000000A8H   SFRSYM    DATA     BYTE      IE
      000000BBH   SFRSYM    DATA     BYTE      P_SW3
      000000BAH   SFRSYM    DATA     BYTE      P_SW2
      000000A2H   SFRSYM    DATA     BYTE      P_SW1
      000000CEH   SFRSYM    DATA     BYTE      SPCTL
      000000F8H   SFRSYM    DATA     BYTE      P7
      000000E8H   SFRSYM    DATA     BYTE      P6
      000000C8H   SFRSYM    DATA     BYTE      P5
      000000C0H   SFRSYM    DATA     BYTE      P4
      000000ABH   SFRSYM    DATA     BYTE      WKTCH
      000000B0H   SFRSYM    DATA     BYTE      P3
      000000A0H   SFRSYM    DATA     BYTE      P2
      00000090H   SFRSYM    DATA     BYTE      P1
      00000080H   SFRSYM    DATA     BYTE      P0
      00011783H   SYMBOL    XDATA    ---       ble6a20_buffer
      000117C3H   SYMBOL    XDATA    ---       ble6a20_fifo
      R15         REGSYM    ---      BYTE      dat
      WR12        REGSYM    ---      WORD      time_cnt
      DR12        REGSYM    ---      DWORD     len
      REG=3       REGSYM    ---      ---       str
      REG=3       REGSYM    ---      ---       buff
      DR8         REGSYM    ---      DWORD     len
      R15         REGSYM    ---      BYTE      return_state

      ---         MODULE    ---      ---       zf_device_wireless_uart
      000000D0H   SFRSYM    DATA     BYTE      PSW
      0000009DH   SFRSYM    DATA     BYTE      IRCBAND
      00000097H   SFRSYM    DATA     BYTE      AUXR2
      000000EFH   SFRSYM    DATA     BYTE      AUXINTIF
      000000FDH   SFRSYM    DATA     BYTE      S4CON
      000000ACH   SFRSYM    DATA     BYTE      S3CON
      0000009AH   SFRSYM    DATA     BYTE      S2CON
      000000B7H   SFRSYM    DATA     BYTE      IPH
      000000CDH   SFRSYM    DATA     BYTE      SPSTAT
      000000DDH   SFRSYM    DATA     BYTE      T4T3M
      000000C1H   SFRSYM    DATA     BYTE      WDT_CONTR
      000000DFH   SFRSYM    DATA     BYTE      IP3
      000000F4H   SFRSYM    DATA     BYTE      USBCON
      000000B5H   SFRSYM    DATA     BYTE      IP2
      000000FFH   SFRSYM    DATA     BYTE      RSTCFG
      000000C7H   SFRSYM    DATA     BYTE      IAP_CONTR
      0000008EH   SFRSYM    DATA     BYTE      AUXR
      000000AFH   SFRSYM    DATA     BYTE      IE2
      00000088H   SFRSYM    DATA     BYTE      TCON
      00000089H   SFRSYM    DATA     BYTE      TMOD
      00000098H   SFRSYM    DATA     BYTE      SCON
      00000087H   SFRSYM    DATA     BYTE      PCON
      000000BCH   SFRSYM    DATA     BYTE      ADC_CONTR
      000000D1H   SFRSYM    DATA     BYTE      PSW1
      000000E7H   SFRSYM    DATA     BYTE      CMPCR2
      000000E6H   SFRSYM    DATA     BYTE      CMPCR1
      000000DEH   SFRSYM    DATA     BYTE      ADCCFG
      000000B8H   SFRSYM    DATA     BYTE      IP
L251 LINKER/LOCATER V4.66.93.0                                                        11/08/2025  20:32:40  PAGE 100


      0000008FH   SFRSYM    DATA     BYTE      INTCLKO
      000000EEH   SFRSYM    DATA     BYTE      IP3H
      000000B6H   SFRSYM    DATA     BYTE      IP2H
      000000BFH   SFRSYM    DATA     BYTE      P_SW4
      000000A8H   SFRSYM    DATA     BYTE      IE
      000000BBH   SFRSYM    DATA     BYTE      P_SW3
      000000BAH   SFRSYM    DATA     BYTE      P_SW2
      000000A2H   SFRSYM    DATA     BYTE      P_SW1
      000000CEH   SFRSYM    DATA     BYTE      SPCTL
      000000F8H   SFRSYM    DATA     BYTE      P7
      000000E8H   SFRSYM    DATA     BYTE      P6
      000000C8H   SFRSYM    DATA     BYTE      P5
      000000C0H   SFRSYM    DATA     BYTE      P4
      000000ABH   SFRSYM    DATA     BYTE      WKTCH
      000000B0H   SFRSYM    DATA     BYTE      P3
      000000A0H   SFRSYM    DATA     BYTE      P2
      00000090H   SFRSYM    DATA     BYTE      P1
      00000080H   SFRSYM    DATA     BYTE      P0
      000117DAH   SYMBOL    XDATA    ---       wireless_uart_fifo
      000117F1H   SYMBOL    XDATA    ---       wireless_uart_buffer
      R15         REGSYM    ---      BYTE      dat
      WR12        REGSYM    ---      WORD      time_cnt
      DR12        REGSYM    ---      DWORD     len
      REG=3       REGSYM    ---      ---       str
      REG=3       REGSYM    ---      ---       buff
      DR8         REGSYM    ---      DWORD     len
      R15         REGSYM    ---      BYTE      return_state

      ---         MODULE    ---      ---       zf_device_icm20602
      000118C0H   PUBLIC    XDATA    INT       icm20602_acc_x
      000118C2H   PUBLIC    XDATA    INT       icm20602_acc_y
      000118C4H   PUBLIC    XDATA    INT       icm20602_acc_z
      000118C6H   PUBLIC    XDATA    INT       icm20602_gyro_x
      000118C8H   PUBLIC    XDATA    INT       icm20602_gyro_y
      000118CAH   PUBLIC    XDATA    INT       icm20602_gyro_z
      000118CCH   PUBLIC    XDATA    ---       icm20602_transition_factor
      000000D0H   SFRSYM    DATA     BYTE      PSW
      0000009DH   SFRSYM    DATA     BYTE      IRCBAND
      00000097H   SFRSYM    DATA     BYTE      AUXR2
      000000EFH   SFRSYM    DATA     BYTE      AUXINTIF
      000000FDH   SFRSYM    DATA     BYTE      S4CON
      000000ACH   SFRSYM    DATA     BYTE      S3CON
      0000009AH   SFRSYM    DATA     BYTE      S2CON
      000000B7H   SFRSYM    DATA     BYTE      IPH
      000000CDH   SFRSYM    DATA     BYTE      SPSTAT
      000000DDH   SFRSYM    DATA     BYTE      T4T3M
      000000C1H   SFRSYM    DATA     BYTE      WDT_CONTR
      000000DFH   SFRSYM    DATA     BYTE      IP3
      000000F4H   SFRSYM    DATA     BYTE      USBCON
      000000B5H   SFRSYM    DATA     BYTE      IP2
      000000FFH   SFRSYM    DATA     BYTE      RSTCFG
      000000C7H   SFRSYM    DATA     BYTE      IAP_CONTR
      0000008EH   SFRSYM    DATA     BYTE      AUXR
      000000AFH   SFRSYM    DATA     BYTE      IE2
      000000C0H.3 SFRSYM    DATA     BIT       P43
      000000C0H.2 SFRSYM    DATA     BIT       P42
      00000088H   SFRSYM    DATA     BYTE      TCON
      00000089H   SFRSYM    DATA     BYTE      TMOD
      000000C0H.1 SFRSYM    DATA     BIT       P41
      00000098H   SFRSYM    DATA     BYTE      SCON
      000000C0H.0 SFRSYM    DATA     BIT       P40
      00000087H   SFRSYM    DATA     BYTE      PCON
      000000BCH   SFRSYM    DATA     BYTE      ADC_CONTR
      000000D1H   SFRSYM    DATA     BYTE      PSW1
      000000E7H   SFRSYM    DATA     BYTE      CMPCR2
L251 LINKER/LOCATER V4.66.93.0                                                        11/08/2025  20:32:40  PAGE 101


      000000E6H   SFRSYM    DATA     BYTE      CMPCR1
      000000DEH   SFRSYM    DATA     BYTE      ADCCFG
      000000B8H   SFRSYM    DATA     BYTE      IP
      0000008FH   SFRSYM    DATA     BYTE      INTCLKO
      000000EEH   SFRSYM    DATA     BYTE      IP3H
      000000B6H   SFRSYM    DATA     BYTE      IP2H
      000000BFH   SFRSYM    DATA     BYTE      P_SW4
      000000A8H   SFRSYM    DATA     BYTE      IE
      000000BBH   SFRSYM    DATA     BYTE      P_SW3
      000000BAH   SFRSYM    DATA     BYTE      P_SW2
      000000A2H   SFRSYM    DATA     BYTE      P_SW1
      000000CEH   SFRSYM    DATA     BYTE      SPCTL
      000000F8H   SFRSYM    DATA     BYTE      P7
      000000E8H   SFRSYM    DATA     BYTE      P6
      000000C8H   SFRSYM    DATA     BYTE      P5
      000000C0H   SFRSYM    DATA     BYTE      P4
      000000ABH   SFRSYM    DATA     BYTE      WKTCH
      000000B0H   SFRSYM    DATA     BYTE      P3
      000000A0H   SFRSYM    DATA     BYTE      P2
      00000090H   SFRSYM    DATA     BYTE      P1
      00000080H   SFRSYM    DATA     BYTE      P0
      R7          REGSYM    ---      BYTE      byte
      R6          REGSYM    ---      BYTE      i
      R7          REGSYM    ---      BYTE      cmd
      R15         REGSYM    ---      BYTE      val
      R10         REGSYM    ---      BYTE      cmd
      REG=3       REGSYM    ---      ---       val
      R10         REGSYM    ---      BYTE      cmd
      REG=3       REGSYM    ---      ---       val
      R11         REGSYM    ---      BYTE      reg
      R10         REGSYM    ---      BYTE      dat
      R7          REGSYM    ---      BYTE      reg
      R3          REGSYM    ---      BYTE      reg
      REG=1       REGSYM    ---      ---       dat
      DR28        REGSYM    ---      DWORD     len
      R14         REGSYM    ---      BYTE      dat
      R15         REGSYM    ---      BYTE      return_state
      WR12        REGSYM    ---      WORD      timeout_count
      R14         REGSYM    ---      BYTE      val
      R15         REGSYM    ---      BYTE      return_state
      WR12        REGSYM    ---      WORD      timeout_count

      ---         MODULE    ---      ---       zf_device_imu660ra
      000118D4H   PUBLIC    XDATA    INT       imu660ra_acc_x
      000118D6H   PUBLIC    XDATA    INT       imu660ra_acc_y
      000118D8H   PUBLIC    XDATA    INT       imu660ra_acc_z
      000118DAH   PUBLIC    XDATA    INT       imu660ra_gyro_x
      000118DCH   PUBLIC    XDATA    INT       imu660ra_gyro_y
      000118DEH   PUBLIC    XDATA    INT       imu660ra_gyro_z
      000118E0H   PUBLIC    XDATA    ---       imu660ra_transition_factor
      000000D0H   SFRSYM    DATA     BYTE      PSW
      0000009DH   SFRSYM    DATA     BYTE      IRCBAND
      00000097H   SFRSYM    DATA     BYTE      AUXR2
      000000EFH   SFRSYM    DATA     BYTE      AUXINTIF
      000000FDH   SFRSYM    DATA     BYTE      S4CON
      000000ACH   SFRSYM    DATA     BYTE      S3CON
      0000009AH   SFRSYM    DATA     BYTE      S2CON
      000000B7H   SFRSYM    DATA     BYTE      IPH
      000000CDH   SFRSYM    DATA     BYTE      SPSTAT
      000000DDH   SFRSYM    DATA     BYTE      T4T3M
      000000C1H   SFRSYM    DATA     BYTE      WDT_CONTR
      000000DFH   SFRSYM    DATA     BYTE      IP3
      000000F4H   SFRSYM    DATA     BYTE      USBCON
      000000B5H   SFRSYM    DATA     BYTE      IP2
      000000FFH   SFRSYM    DATA     BYTE      RSTCFG
L251 LINKER/LOCATER V4.66.93.0                                                        11/08/2025  20:32:40  PAGE 102


      000000C7H   SFRSYM    DATA     BYTE      IAP_CONTR
      0000008EH   SFRSYM    DATA     BYTE      AUXR
      000000AFH   SFRSYM    DATA     BYTE      IE2
      000000C0H.3 SFRSYM    DATA     BIT       P43
      000000C0H.2 SFRSYM    DATA     BIT       P42
      00000088H   SFRSYM    DATA     BYTE      TCON
      00000089H   SFRSYM    DATA     BYTE      TMOD
      000000C0H.1 SFRSYM    DATA     BIT       P41
      00000098H   SFRSYM    DATA     BYTE      SCON
      000000C0H.0 SFRSYM    DATA     BIT       P40
      00000087H   SFRSYM    DATA     BYTE      PCON
      000000BCH   SFRSYM    DATA     BYTE      ADC_CONTR
      000000D1H   SFRSYM    DATA     BYTE      PSW1
      000000E7H   SFRSYM    DATA     BYTE      CMPCR2
      000000E6H   SFRSYM    DATA     BYTE      CMPCR1
      000000DEH   SFRSYM    DATA     BYTE      ADCCFG
      000000B8H   SFRSYM    DATA     BYTE      IP
      0000008FH   SFRSYM    DATA     BYTE      INTCLKO
      000000EEH   SFRSYM    DATA     BYTE      IP3H
      000000B6H   SFRSYM    DATA     BYTE      IP2H
      000000BFH   SFRSYM    DATA     BYTE      P_SW4
      000000A8H   SFRSYM    DATA     BYTE      IE
      000000BBH   SFRSYM    DATA     BYTE      P_SW3
      000000BAH   SFRSYM    DATA     BYTE      P_SW2
      000000A2H   SFRSYM    DATA     BYTE      P_SW1
      000000CEH   SFRSYM    DATA     BYTE      SPCTL
      000000F8H   SFRSYM    DATA     BYTE      P7
      000000E8H   SFRSYM    DATA     BYTE      P6
      000000C8H   SFRSYM    DATA     BYTE      P5
      000000C0H   SFRSYM    DATA     BYTE      P4
      000000ABH   SFRSYM    DATA     BYTE      WKTCH
      000000B0H   SFRSYM    DATA     BYTE      P3
      000000A0H   SFRSYM    DATA     BYTE      P2
      00000090H   SFRSYM    DATA     BYTE      P1
      00000080H   SFRSYM    DATA     BYTE      P0
      R7          REGSYM    ---      BYTE      byte
      R6          REGSYM    ---      BYTE      i
      R7          REGSYM    ---      BYTE      cmd
      R15         REGSYM    ---      BYTE      val
      R7          REGSYM    ---      BYTE      cmd
      DR12        REGSYM    ---      DWORD     len
      R10         REGSYM    ---      BYTE      cmd
      REG=3       REGSYM    ---      ---       val
      R11         REGSYM    ---      BYTE      reg
      R10         REGSYM    ---      BYTE      dat
      R3          REGSYM    ---      BYTE      reg
      REG=1       REGSYM    ---      ---       dat
      DR28        REGSYM    ---      DWORD     len
      R7          REGSYM    ---      BYTE      reg
      R5          REGSYM    ---      BYTE      reg
      REG=3       REGSYM    ---      ---       dat
      R14         REGSYM    ---      BYTE      dat
      R15         REGSYM    ---      BYTE      return_state
      WR12        REGSYM    ---      WORD      timeout_count
      R15         REGSYM    ---      BYTE      return_state

      ---         MODULE    ---      ---       zf_device_imu660rb
      0001192BH   PUBLIC    XDATA    INT       imu660rb_acc_x
      0001192DH   PUBLIC    XDATA    INT       imu660rb_acc_y
      0001192FH   PUBLIC    XDATA    INT       imu660rb_acc_z
      00011931H   PUBLIC    XDATA    INT       imu660rb_gyro_x
      00011933H   PUBLIC    XDATA    INT       imu660rb_gyro_y
      00011935H   PUBLIC    XDATA    INT       imu660rb_gyro_z
      000000D0H   SFRSYM    DATA     BYTE      PSW
      0000009DH   SFRSYM    DATA     BYTE      IRCBAND
L251 LINKER/LOCATER V4.66.93.0                                                        11/08/2025  20:32:40  PAGE 103


      00000097H   SFRSYM    DATA     BYTE      AUXR2
      000000EFH   SFRSYM    DATA     BYTE      AUXINTIF
      000000FDH   SFRSYM    DATA     BYTE      S4CON
      000000ACH   SFRSYM    DATA     BYTE      S3CON
      0000009AH   SFRSYM    DATA     BYTE      S2CON
      000000B7H   SFRSYM    DATA     BYTE      IPH
      000000CDH   SFRSYM    DATA     BYTE      SPSTAT
      000000DDH   SFRSYM    DATA     BYTE      T4T3M
      000000C1H   SFRSYM    DATA     BYTE      WDT_CONTR
      000000DFH   SFRSYM    DATA     BYTE      IP3
      000000F4H   SFRSYM    DATA     BYTE      USBCON
      000000B5H   SFRSYM    DATA     BYTE      IP2
      000000FFH   SFRSYM    DATA     BYTE      RSTCFG
      000000C7H   SFRSYM    DATA     BYTE      IAP_CONTR
      0000008EH   SFRSYM    DATA     BYTE      AUXR
      000000AFH   SFRSYM    DATA     BYTE      IE2
      000000C0H.3 SFRSYM    DATA     BIT       P43
      000000C0H.2 SFRSYM    DATA     BIT       P42
      00000088H   SFRSYM    DATA     BYTE      TCON
      00000089H   SFRSYM    DATA     BYTE      TMOD
      000000C0H.1 SFRSYM    DATA     BIT       P41
      00000098H   SFRSYM    DATA     BYTE      SCON
      000000C0H.0 SFRSYM    DATA     BIT       P40
      00000087H   SFRSYM    DATA     BYTE      PCON
      000000BCH   SFRSYM    DATA     BYTE      ADC_CONTR
      000000D1H   SFRSYM    DATA     BYTE      PSW1
      000000E7H   SFRSYM    DATA     BYTE      CMPCR2
      000000E6H   SFRSYM    DATA     BYTE      CMPCR1
      000000DEH   SFRSYM    DATA     BYTE      ADCCFG
      000000B8H   SFRSYM    DATA     BYTE      IP
      0000008FH   SFRSYM    DATA     BYTE      INTCLKO
      000000EEH   SFRSYM    DATA     BYTE      IP3H
      000000B6H   SFRSYM    DATA     BYTE      IP2H
      000000BFH   SFRSYM    DATA     BYTE      P_SW4
      000000A8H   SFRSYM    DATA     BYTE      IE
      000000BBH   SFRSYM    DATA     BYTE      P_SW3
      000000BAH   SFRSYM    DATA     BYTE      P_SW2
      000000A2H   SFRSYM    DATA     BYTE      P_SW1
      000000CEH   SFRSYM    DATA     BYTE      SPCTL
      000000F8H   SFRSYM    DATA     BYTE      P7
      000000E8H   SFRSYM    DATA     BYTE      P6
      000000C8H   SFRSYM    DATA     BYTE      P5
      000000C0H   SFRSYM    DATA     BYTE      P4
      000000ABH   SFRSYM    DATA     BYTE      WKTCH
      000000B0H   SFRSYM    DATA     BYTE      P3
      000000A0H   SFRSYM    DATA     BYTE      P2
      00000090H   SFRSYM    DATA     BYTE      P1
      00000080H   SFRSYM    DATA     BYTE      P0
      R7          REGSYM    ---      BYTE      byte
      R6          REGSYM    ---      BYTE      i
      R7          REGSYM    ---      BYTE      cmd
      R15         REGSYM    ---      BYTE      val
      R10         REGSYM    ---      BYTE      cmd
      REG=3       REGSYM    ---      ---       val
      R10         REGSYM    ---      BYTE      cmd
      REG=3       REGSYM    ---      ---       val
      R11         REGSYM    ---      BYTE      reg
      R10         REGSYM    ---      BYTE      dat
      R7          REGSYM    ---      BYTE      reg
      R3          REGSYM    ---      BYTE      reg
      REG=1       REGSYM    ---      ---       dat
      DR28        REGSYM    ---      DWORD     len
      R14         REGSYM    ---      BYTE      dat
      R15         REGSYM    ---      BYTE      return_state
      WR12        REGSYM    ---      WORD      timeout_count
L251 LINKER/LOCATER V4.66.93.0                                                        11/08/2025  20:32:40  PAGE 104


      WR30        REGSYM    ---      INT       acc_value
      DR24        REGSYM    ---      FLOAT     acc_data
      WR30        REGSYM    ---      INT       gyro_value
      DR24        REGSYM    ---      FLOAT     gyro_data
      R15         REGSYM    ---      BYTE      return_state

      ---         MODULE    ---      ---       zf_device_imu963ra
      00FFBFE0H   PUBLIC    CODE     ---       imu963ra_get_gyro
      00FF7DCDH   PUBLIC    CODE     ---       imu963ra_init
      0001188DH   PUBLIC    XDATA    INT       imu963ra_acc_x
      0001188FH   PUBLIC    XDATA    INT       imu963ra_acc_y
      00011891H   PUBLIC    XDATA    INT       imu963ra_acc_z
      00011893H   PUBLIC    XDATA    INT       imu963ra_mag_x
      00011895H   PUBLIC    XDATA    INT       imu963ra_mag_y
      00011897H   PUBLIC    XDATA    INT       imu963ra_mag_z
      00011899H   PUBLIC    XDATA    INT       imu963ra_gyro_x
      0001189BH   PUBLIC    XDATA    INT       imu963ra_gyro_y
      0001189DH   PUBLIC    XDATA    INT       imu963ra_gyro_z
      0001189FH   PUBLIC    XDATA    ---       imu963ra_transition_factor
      000000D0H   SFRSYM    DATA     BYTE      PSW
      0000009DH   SFRSYM    DATA     BYTE      IRCBAND
      00000097H   SFRSYM    DATA     BYTE      AUXR2
      000000EFH   SFRSYM    DATA     BYTE      AUXINTIF
      000000FDH   SFRSYM    DATA     BYTE      S4CON
      000000ACH   SFRSYM    DATA     BYTE      S3CON
      0000009AH   SFRSYM    DATA     BYTE      S2CON
      000000B7H   SFRSYM    DATA     BYTE      IPH
      000000CDH   SFRSYM    DATA     BYTE      SPSTAT
      000000DDH   SFRSYM    DATA     BYTE      T4T3M
      000000C1H   SFRSYM    DATA     BYTE      WDT_CONTR
      000000DFH   SFRSYM    DATA     BYTE      IP3
      000000F4H   SFRSYM    DATA     BYTE      USBCON
      000000B5H   SFRSYM    DATA     BYTE      IP2
      000000FFH   SFRSYM    DATA     BYTE      RSTCFG
      000000C7H   SFRSYM    DATA     BYTE      IAP_CONTR
      0000008EH   SFRSYM    DATA     BYTE      AUXR
      000000AFH   SFRSYM    DATA     BYTE      IE2
      000000C0H.3 SFRSYM    DATA     BIT       P43
      000000C0H.2 SFRSYM    DATA     BIT       P42
      00000088H   SFRSYM    DATA     BYTE      TCON
      00000089H   SFRSYM    DATA     BYTE      TMOD
      000000C0H.1 SFRSYM    DATA     BIT       P41
      00000098H   SFRSYM    DATA     BYTE      SCON
      000000C0H.0 SFRSYM    DATA     BIT       P40
      00000087H   SFRSYM    DATA     BYTE      PCON
      000000BCH   SFRSYM    DATA     BYTE      ADC_CONTR
      000000D1H   SFRSYM    DATA     BYTE      PSW1
      000000E7H   SFRSYM    DATA     BYTE      CMPCR2
      000000E6H   SFRSYM    DATA     BYTE      CMPCR1
      000000DEH   SFRSYM    DATA     BYTE      ADCCFG
      000000B8H   SFRSYM    DATA     BYTE      IP
      0000008FH   SFRSYM    DATA     BYTE      INTCLKO
      000000EEH   SFRSYM    DATA     BYTE      IP3H
      000000B6H   SFRSYM    DATA     BYTE      IP2H
      000000BFH   SFRSYM    DATA     BYTE      P_SW4
      000000A8H   SFRSYM    DATA     BYTE      IE
      000000BBH   SFRSYM    DATA     BYTE      P_SW3
      000000BAH   SFRSYM    DATA     BYTE      P_SW2
      000000A2H   SFRSYM    DATA     BYTE      P_SW1
      000000CEH   SFRSYM    DATA     BYTE      SPCTL
      000000F8H   SFRSYM    DATA     BYTE      P7
      000000E8H   SFRSYM    DATA     BYTE      P6
      000000C8H   SFRSYM    DATA     BYTE      P5
      000000C0H   SFRSYM    DATA     BYTE      P4
      000000ABH   SFRSYM    DATA     BYTE      WKTCH
L251 LINKER/LOCATER V4.66.93.0                                                        11/08/2025  20:32:40  PAGE 105


      000000B0H   SFRSYM    DATA     BYTE      P3
      000000A0H   SFRSYM    DATA     BYTE      P2
      00000090H   SFRSYM    DATA     BYTE      P1
      00000080H   SFRSYM    DATA     BYTE      P0
      00FFC839H   SYMBOL    CODE     ---       imu963ra_simspi_wr_byte
      00FFC034H   SYMBOL    CODE     ---       imu963ra_read_mag_register
      00FFC796H   SYMBOL    CODE     ---       imu963ra_connect_mag
      00FFC8FBH   SYMBOL    CODE     ---       imu963ra_read_acc_gyro_registers
      00FFBC9BH   SYMBOL    CODE     ---       imu963ra_write_mag_register
      00FFC87BH   SYMBOL    CODE     ---       imu963ra_read_acc_gyro_register
      00FFC39FH   SYMBOL    CODE     ---       imu963ra_simspi_r_reg_bytes
      00FF0046H   SYMBOL    CODE     ---       imu963ra_simspi_r_reg_byte
      00FFC676H   SYMBOL    CODE     ---       imu963ra_mag_self_check
      00FF019EH   SYMBOL    CODE     ---       imu963ra_write_acc_gyro_register
      00FFC8CEH   SYMBOL    CODE     ---       imu963ra_simspi_w_reg_byte
      00FFC2D6H   SYMBOL    CODE     ---       imu963ra_acc_gyro_self_check

      00FFC839H   BLOCK     CODE     ---       LVL=0
      R7          REGSYM    ---      BYTE      byte
      00FFC83BH   BLOCK     CODE     NEAR LAB  LVL=1
      R6          REGSYM    ---      BYTE      i
      ---         BLOCKEND  ---      ---       LVL=1
      00FFC839H   LINE      CODE     ---       #137
      00FFC83BH   LINE      CODE     ---       #138
      00FFC83BH   LINE      CODE     ---       #140
      00FFC83FH   LINE      CODE     ---       #142
      00FFC841H   LINE      CODE     ---       #143
      00FFC846H   LINE      CODE     ---       #144
      00FFC848H   LINE      CODE     ---       #145
      00FFC84AH   LINE      CODE     ---       #146
      00FFC850H   LINE      CODE     ---       #147
      00FFC857H   LINE      CODE     ---       #148
      00FFC859H   LINE      CODE     ---       #149
      00FFC85BH   LINE      CODE     ---       #150
      ---         BLOCKEND  ---      ---       LVL=0

      00FFC8CEH   BLOCK     CODE     ---       LVL=0
      R7          REGSYM    ---      BYTE      cmd
      R15         REGSYM    ---      BYTE      val
      00FFC8CEH   LINE      CODE     ---       #160
      00FFC8D4H   LINE      CODE     ---       #162
      00FFC8D6H   LINE      CODE     ---       #163
      00FFC8D6H   LINE      CODE     ---       #164
      00FFC8DBH   LINE      CODE     ---       #165
      00FFC8E0H   LINE      CODE     ---       #166
      00FFC8E2H   LINE      CODE     ---       #167
      ---         BLOCKEND  ---      ---       LVL=0

      00FF0046H   BLOCK     CODE     ---       LVL=0
      R10         REGSYM    ---      BYTE      cmd
      REG=3       REGSYM    ---      ---       val
      00FF0046H   LINE      CODE     ---       #176
      00FF004CH   LINE      CODE     ---       #178
      00FF004EH   LINE      CODE     ---       #179
      00FF0051H   LINE      CODE     ---       #180
      00FF0056H   LINE      CODE     ---       #181
      00FF005DH   LINE      CODE     ---       #182
      00FF005FH   LINE      CODE     ---       #183
      ---         BLOCKEND  ---      ---       LVL=0

      00FFC39FH   BLOCK     CODE     ---       LVL=0
      R10         REGSYM    ---      BYTE      cmd
      REG=3       REGSYM    ---      ---       val
      0001169BH   SYMBOL    XDATA    DWORD     num
      00FFC39FH   LINE      CODE     ---       #193
L251 LINKER/LOCATER V4.66.93.0                                                        11/08/2025  20:32:40  PAGE 106


      00FFC3AFH   LINE      CODE     ---       #195
      00FFC3B2H   LINE      CODE     ---       #196
      00FFC3B7H   LINE      CODE     ---       #197
      00FFC3B9H   LINE      CODE     ---       #199
      00FFC3C2H   LINE      CODE     ---       #200
      00FFC3DBH   LINE      CODE     ---       #201
      ---         BLOCKEND  ---      ---       LVL=0

      00FF019EH   BLOCK     CODE     ---       LVL=0
      R11         REGSYM    ---      BYTE      reg
      R10         REGSYM    ---      BYTE      dat
      00FF019EH   LINE      CODE     ---       #211
      00FF01A0H   LINE      CODE     ---       #213
      00FF01A2H   LINE      CODE     ---       #214
      00FF01A7H   LINE      CODE     ---       #215
      00FF01A9H   LINE      CODE     ---       #216
      ---         BLOCKEND  ---      ---       LVL=0

      00FFC87BH   BLOCK     CODE     ---       LVL=0
      R10         REGSYM    ---      BYTE      reg
      00FFC87DH   BLOCK     CODE     NEAR LAB  LVL=1
      00011697H   SYMBOL    XDATA    BYTE      dat
      ---         BLOCKEND  ---      ---       LVL=1
      00FFC87BH   LINE      CODE     ---       #225
      00FFC87DH   LINE      CODE     ---       #226
      00FFC87DH   LINE      CODE     ---       #227
      00FFC882H   LINE      CODE     ---       #228
      00FFC884H   LINE      CODE     ---       #229
      00FFC893H   LINE      CODE     ---       #230
      00FFC895H   LINE      CODE     ---       #231
      00FFC899H   LINE      CODE     ---       #232
      ---         BLOCKEND  ---      ---       LVL=0

      00FFC8FBH   BLOCK     CODE     ---       LVL=0
      R3          REGSYM    ---      BYTE      reg
      REG=1       REGSYM    ---      ---       dat
      DR28        REGSYM    ---      DWORD     len
      00FFC8FBH   LINE      CODE     ---       #243
      00FFC901H   LINE      CODE     ---       #245
      00FFC903H   LINE      CODE     ---       #246
      00FFC90EH   LINE      CODE     ---       #247
      00FFC910H   LINE      CODE     ---       #248
      ---         BLOCKEND  ---      ---       LVL=0

      00FFBC9BH   BLOCK     CODE     ---       LVL=0
      R15         REGSYM    ---      BYTE      addr
      R13         REGSYM    ---      BYTE      reg
      R14         REGSYM    ---      BYTE      dat
      00FFBCA3H   BLOCK     CODE     NEAR LAB  LVL=1
      R12         REGSYM    ---      BYTE      return_state
      00011695H   SYMBOL    XDATA    WORD      timeout_count
      ---         BLOCKEND  ---      ---       LVL=1
      00FFBC9BH   LINE      CODE     ---       #293
      00FFBCA3H   LINE      CODE     ---       #294
      00FFBCA3H   LINE      CODE     ---       #295
      00FFBCA5H   LINE      CODE     ---       #296
      00FFBCADH   LINE      CODE     ---       #298
      00FFBCAFH   LINE      CODE     ---       #299
      00FFBCB6H   LINE      CODE     ---       #300
      00FFBCBDH   LINE      CODE     ---       #301
      00FFBCC4H   LINE      CODE     ---       #302
      00FFBCCBH   LINE      CODE     ---       #303
      00FFBCD3H   LINE      CODE     ---       #306
      00FFBCD5H   LINE      CODE     ---       #308
      00FFBCE8H   LINE      CODE     ---       #310
L251 LINKER/LOCATER V4.66.93.0                                                        11/08/2025  20:32:40  PAGE 107


      00FFBCEBH   LINE      CODE     ---       #311
      00FFBCEDH   LINE      CODE     ---       #312
      00FFBCEDH   LINE      CODE     ---       #314
      00FFBCF4H   LINE      CODE     ---       #315
      00FFBCFCH   LINE      CODE     ---       #317
      00FFBCFEH   LINE      CODE     ---       #318
      ---         BLOCKEND  ---      ---       LVL=0

      00FFC034H   BLOCK     CODE     ---       LVL=0
      R10         REGSYM    ---      BYTE      addr
      R15         REGSYM    ---      BYTE      reg
      00FFC03CH   BLOCK     CODE     NEAR LAB  LVL=1
      WR12        REGSYM    ---      WORD      timeout_count
      ---         BLOCKEND  ---      ---       LVL=1
      00FFC034H   LINE      CODE     ---       #328
      00FFC03CH   LINE      CODE     ---       #329
      00FFC03CH   LINE      CODE     ---       #330
      00FFC03EH   LINE      CODE     ---       #332
      00FFC040H   LINE      CODE     ---       #333
      00FFC04AH   LINE      CODE     ---       #334
      00FFC051H   LINE      CODE     ---       #335
      00FFC059H   LINE      CODE     ---       #336
      00FFC061H   LINE      CODE     ---       #339
      00FFC063H   LINE      CODE     ---       #341
      00FFC06DH   LINE      CODE     ---       #343
      00FFC06DH   LINE      CODE     ---       #344
      00FFC06DH   LINE      CODE     ---       #346
      00FFC074H   LINE      CODE     ---       #347
      00FFC07CH   LINE      CODE     ---       #349
      00FFC081H   LINE      CODE     ---       #350
      ---         BLOCKEND  ---      ---       LVL=0

      00FFC796H   BLOCK     CODE     ---       LVL=0
      R10         REGSYM    ---      BYTE      addr
      R15         REGSYM    ---      BYTE      reg
      00FFC796H   LINE      CODE     ---       #360
      00FFC79CH   LINE      CODE     ---       #362
      00FFC79EH   LINE      CODE     ---       #364
      00FFC7A8H   LINE      CODE     ---       #365
      00FFC7AFH   LINE      CODE     ---       #366
      00FFC7B7H   LINE      CODE     ---       #367
      00FFC7BFH   LINE      CODE     ---       #368
      ---         BLOCKEND  ---      ---       LVL=0

      00FFC2D6H   BLOCK     CODE     ---       LVL=0
      00FFC2D8H   BLOCK     CODE     NEAR LAB  LVL=1
      R15         REGSYM    ---      BYTE      return_state
      R14         REGSYM    ---      BYTE      dat
      WR12        REGSYM    ---      WORD      timeout_count
      ---         BLOCKEND  ---      ---       LVL=1
      00FFC2D6H   LINE      CODE     ---       #378
      00FFC2D8H   LINE      CODE     ---       #379
      00FFC2D8H   LINE      CODE     ---       #380
      00FFC2DAH   LINE      CODE     ---       #381
      00FFC2DCH   LINE      CODE     ---       #382
      00FFC2DEH   LINE      CODE     ---       #384
      00FFC2E0H   LINE      CODE     ---       #386
      00FFC2EAH   LINE      CODE     ---       #388
      00FFC2EDH   LINE      CODE     ---       #389
      00FFC2EFH   LINE      CODE     ---       #390
      00FFC2EFH   LINE      CODE     ---       #392
      00FFC2F6H   LINE      CODE     ---       #393
      00FFC309H   LINE      CODE     ---       #394
      00FFC310H   LINE      CODE     ---       #395
      00FFC315H   LINE      CODE     ---       #397
L251 LINKER/LOCATER V4.66.93.0                                                        11/08/2025  20:32:40  PAGE 108


      00FFC317H   LINE      CODE     ---       #398
      ---         BLOCKEND  ---      ---       LVL=0

      00FFC676H   BLOCK     CODE     ---       LVL=0
      00FFC678H   BLOCK     CODE     NEAR LAB  LVL=1
      R15         REGSYM    ---      BYTE      return_state
      R14         REGSYM    ---      BYTE      dat
      WR12        REGSYM    ---      WORD      timeout_count
      ---         BLOCKEND  ---      ---       LVL=1
      00FFC676H   LINE      CODE     ---       #407
      00FFC678H   LINE      CODE     ---       #408
      00FFC678H   LINE      CODE     ---       #409
      00FFC67AH   LINE      CODE     ---       #410
      00FFC67CH   LINE      CODE     ---       #411
      00FFC67EH   LINE      CODE     ---       #413
      00FFC680H   LINE      CODE     ---       #415
      00FFC68AH   LINE      CODE     ---       #417
      00FFC68DH   LINE      CODE     ---       #418
      00FFC68FH   LINE      CODE     ---       #419
      00FFC68FH   LINE      CODE     ---       #421
      00FFC699H   LINE      CODE     ---       #422
      00FFC6A0H   LINE      CODE     ---       #423
      00FFC6A5H   LINE      CODE     ---       #425
      00FFC6A7H   LINE      CODE     ---       #426
      ---         BLOCKEND  ---      ---       LVL=0

      00FFBFE0H   BLOCK     CODE     ---       LVL=0
      00011695H   SYMBOL    XDATA    ---       dat
      00FFBFE0H   LINE      CODE     ---       #453
      00FFBFE0H   LINE      CODE     ---       #454
      00FFBFE0H   LINE      CODE     ---       #457
      00FFBFF1H   LINE      CODE     ---       #458
      00FFC007H   LINE      CODE     ---       #459
      00FFC01DH   LINE      CODE     ---       #460
      00FFC033H   LINE      CODE     ---       #461
      ---         BLOCKEND  ---      ---       LVL=0
      R11         REGSYM    ---      BYTE      temp_status

      00FF7DCDH   BLOCK     CODE     ---       LVL=0
      00FF7DCFH   BLOCK     CODE     NEAR LAB  LVL=1
      R15         REGSYM    ---      BYTE      return_state
      ---         BLOCKEND  ---      ---       LVL=1
      00FF7DCDH   LINE      CODE     ---       #497
      00FF7DCFH   LINE      CODE     ---       #498
      00FF7DCFH   LINE      CODE     ---       #499
      00FF7DD1H   LINE      CODE     ---       #500
      00FF7DD8H   LINE      CODE     ---       #518
      00FF7DD8H   LINE      CODE     ---       #520
      00FF7DDFH   LINE      CODE     ---       #521
      00FF7DE7H   LINE      CODE     ---       #522
      00FF7DEEH   LINE      CODE     ---       #523
      00FF7DF5H   LINE      CODE     ---       #525
      00FF7DFAH   LINE      CODE     ---       #527
      00FF7E05H   LINE      CODE     ---       #528
      00FF7E08H   LINE      CODE     ---       #529
      00FF7E0BH   LINE      CODE     ---       #530
      00FF7E0BH   LINE      CODE     ---       #532
      00FF7E13H   LINE      CODE     ---       #539
      00FF7E2BH   LINE      CODE     ---       #541
      00FF7E2BH   LINE      CODE     ---       #543
      00FF7E36H   LINE      CODE     ---       #544
      00FF7E39H   LINE      CODE     ---       #546
      00FF7E3BH   LINE      CODE     ---       #548
      00FF7E3BH   LINE      CODE     ---       #550
      00FF7E43H   LINE      CODE     ---       #551
L251 LINKER/LOCATER V4.66.93.0                                                        11/08/2025  20:32:40  PAGE 109


      00FF7E55H   LINE      CODE     ---       #553
      00FF7E57H   LINE      CODE     ---       #555
      00FF7E57H   LINE      CODE     ---       #557
      00FF7E5FH   LINE      CODE     ---       #558
      00FF7E71H   LINE      CODE     ---       #560
      00FF7E73H   LINE      CODE     ---       #562
      00FF7E73H   LINE      CODE     ---       #564
      00FF7E7BH   LINE      CODE     ---       #565
      00FF7E8DH   LINE      CODE     ---       #567
      00FF7E8FH   LINE      CODE     ---       #569
      00FF7E8FH   LINE      CODE     ---       #571
      00FF7E97H   LINE      CODE     ---       #572
      00FF7EA9H   LINE      CODE     ---       #574
      00FF7EA9H   LINE      CODE     ---       #575
      00FF7EA9H   LINE      CODE     ---       #577
      00FF7EB1H   LINE      CODE     ---       #579
      00FF7EB1H   LINE      CODE     ---       #580
      00FF7EB1H   LINE      CODE     ---       #589
      00FF7ED7H   LINE      CODE     ---       #591
      00FF7ED7H   LINE      CODE     ---       #593
      00FF7EE2H   LINE      CODE     ---       #594
      00FF7EE5H   LINE      CODE     ---       #596
      00FF7EE8H   LINE      CODE     ---       #598
      00FF7EE8H   LINE      CODE     ---       #600
      00FF7EF0H   LINE      CODE     ---       #601
      00FF7F02H   LINE      CODE     ---       #603
      00FF7F05H   LINE      CODE     ---       #605
      00FF7F05H   LINE      CODE     ---       #607
      00FF7F0DH   LINE      CODE     ---       #608
      00FF7F1FH   LINE      CODE     ---       #610
      00FF7F21H   LINE      CODE     ---       #612
      00FF7F21H   LINE      CODE     ---       #614
      00FF7F29H   LINE      CODE     ---       #615
      00FF7F3BH   LINE      CODE     ---       #617
      00FF7F3DH   LINE      CODE     ---       #619
      00FF7F3DH   LINE      CODE     ---       #621
      00FF7F45H   LINE      CODE     ---       #622
      00FF7F57H   LINE      CODE     ---       #624
      00FF7F59H   LINE      CODE     ---       #626
      00FF7F59H   LINE      CODE     ---       #628
      00FF7F61H   LINE      CODE     ---       #629
      00FF7F73H   LINE      CODE     ---       #631
      00FF7F75H   LINE      CODE     ---       #633
      00FF7F75H   LINE      CODE     ---       #635
      00FF7F7DH   LINE      CODE     ---       #636
      00FF7F8FH   LINE      CODE     ---       #638
      00FF7F8FH   LINE      CODE     ---       #639
      00FF7F8FH   LINE      CODE     ---       #641
      00FF7F97H   LINE      CODE     ---       #643
      00FF7F97H   LINE      CODE     ---       #644
      00FF7F97H   LINE      CODE     ---       #646
      00FF7F9FH   LINE      CODE     ---       #647
      00FF7FA7H   LINE      CODE     ---       #648
      00FF7FAEH   LINE      CODE     ---       #649
      00FF7FB5H   LINE      CODE     ---       #650
      00FF7FBCH   LINE      CODE     ---       #651
      00FF7FC4H   LINE      CODE     ---       #653
      00FF7FCCH   LINE      CODE     ---       #654
      00FF7FD4H   LINE      CODE     ---       #655
      00FF7FDBH   LINE      CODE     ---       #656
      00FF7FE2H   LINE      CODE     ---       #657
      00FF7FE9H   LINE      CODE     ---       #659
      00FF7FF4H   LINE      CODE     ---       #660
      00FF7FFBH   LINE      CODE     ---       #661
      00FF8005H   LINE      CODE     ---       #662
L251 LINKER/LOCATER V4.66.93.0                                                        11/08/2025  20:32:40  PAGE 110


      00FF800CH   LINE      CODE     ---       #664
      00FF8011H   LINE      CODE     ---       #666
      00FF801CH   LINE      CODE     ---       #667
      00FF801FH   LINE      CODE     ---       #668
      00FF8022H   LINE      CODE     ---       #669
      00FF8022H   LINE      CODE     ---       #674
      00FF8032H   LINE      CODE     ---       #676
      00FF8032H   LINE      CODE     ---       #678
      00FF803DH   LINE      CODE     ---       #679
      00FF8040H   LINE      CODE     ---       #681
      00FF8042H   LINE      CODE     ---       #683
      00FF8042H   LINE      CODE     ---       #685
      00FF804DH   LINE      CODE     ---       #686
      00FF805FH   LINE      CODE     ---       #688
      00FF8061H   LINE      CODE     ---       #690
      00FF8061H   LINE      CODE     ---       #692
      00FF806CH   LINE      CODE     ---       #693
      00FF807EH   LINE      CODE     ---       #695
      00FF807EH   LINE      CODE     ---       #696
      00FF807EH   LINE      CODE     ---       #698
      00FF8083H   LINE      CODE     ---       #700
      00FF8083H   LINE      CODE     ---       #701
      00FF8083H   LINE      CODE     ---       #703
      00FF808EH   LINE      CODE     ---       #704
      00FF8095H   LINE      CODE     ---       #706
      00FF809CH   LINE      CODE     ---       #708
      00FF80A3H   LINE      CODE     ---       #709
      00FF80A3H   LINE      CODE     ---       #712
      00FF80A5H   LINE      CODE     ---       #713
      ---         BLOCKEND  ---      ---       LVL=0

      ---         MODULE    ---      ---       zf_device_gps_tau1201
      00011304H   PUBLIC    XDATA    BYTE      gps_tau1201_flag
      00011385H   PUBLIC    XDATA    ---       gps_tau1201
      000114B9H   PUBLIC    XDATA    INT       gps_gga_state
      000114BBH   PUBLIC    XDATA    INT       gps_rmc_state
      000000D0H   SFRSYM    DATA     BYTE      PSW
      0000009DH   SFRSYM    DATA     BYTE      IRCBAND
      00000097H   SFRSYM    DATA     BYTE      AUXR2
      000000EFH   SFRSYM    DATA     BYTE      AUXINTIF
      000000FDH   SFRSYM    DATA     BYTE      S4CON
      000000ACH   SFRSYM    DATA     BYTE      S3CON
      0000009AH   SFRSYM    DATA     BYTE      S2CON
      000000B7H   SFRSYM    DATA     BYTE      IPH
      000000CDH   SFRSYM    DATA     BYTE      SPSTAT
      000000DDH   SFRSYM    DATA     BYTE      T4T3M
      000000C1H   SFRSYM    DATA     BYTE      WDT_CONTR
      000000DFH   SFRSYM    DATA     BYTE      IP3
      000000F4H   SFRSYM    DATA     BYTE      USBCON
      000000B5H   SFRSYM    DATA     BYTE      IP2
      000000FFH   SFRSYM    DATA     BYTE      RSTCFG
      000000C7H   SFRSYM    DATA     BYTE      IAP_CONTR
      0000008EH   SFRSYM    DATA     BYTE      AUXR
      000000AFH   SFRSYM    DATA     BYTE      IE2
      00000088H   SFRSYM    DATA     BYTE      TCON
      00000089H   SFRSYM    DATA     BYTE      TMOD
      00000098H   SFRSYM    DATA     BYTE      SCON
      00000087H   SFRSYM    DATA     BYTE      PCON
      000000BCH   SFRSYM    DATA     BYTE      ADC_CONTR
      000000D1H   SFRSYM    DATA     BYTE      PSW1
      000000E7H   SFRSYM    DATA     BYTE      CMPCR2
      000000E6H   SFRSYM    DATA     BYTE      CMPCR1
      000000DEH   SFRSYM    DATA     BYTE      ADCCFG
      000000B8H   SFRSYM    DATA     BYTE      IP
      0000008FH   SFRSYM    DATA     BYTE      INTCLKO
L251 LINKER/LOCATER V4.66.93.0                                                        11/08/2025  20:32:40  PAGE 111


      000000EEH   SFRSYM    DATA     BYTE      IP3H
      000000B6H   SFRSYM    DATA     BYTE      IP2H
      000000BFH   SFRSYM    DATA     BYTE      P_SW4
      000000A8H   SFRSYM    DATA     BYTE      IE
      000000BBH   SFRSYM    DATA     BYTE      P_SW3
      000000BAH   SFRSYM    DATA     BYTE      P_SW2
      000000A2H   SFRSYM    DATA     BYTE      P_SW1
      000000CEH   SFRSYM    DATA     BYTE      SPCTL
      000000F8H   SFRSYM    DATA     BYTE      P7
      000000E8H   SFRSYM    DATA     BYTE      P6
      000000C8H   SFRSYM    DATA     BYTE      P5
      000000C0H   SFRSYM    DATA     BYTE      P4
      000000ABH   SFRSYM    DATA     BYTE      WKTCH
      000000B0H   SFRSYM    DATA     BYTE      P3
      000000A0H   SFRSYM    DATA     BYTE      P2
      00000090H   SFRSYM    DATA     BYTE      P1
      00000080H   SFRSYM    DATA     BYTE      P0
      00FFEDDBH   SYMBOL    HCONST   ---       ?tpl?0001
      00FFEDE0H   SYMBOL    HCONST   ---       ?tpl?0002
      00FFEDFCH   SYMBOL    HCONST   ---       ?tpl?0003
      00FFEE07H   SYMBOL    HCONST   ---       ?tpl?0004
      00FFEE12H   SYMBOL    HCONST   ---       ?tpl?0005
      00FFEE1DH   SYMBOL    HCONST   ---       ?tpl?0006
      00FFEE28H   SYMBOL    HCONST   ---       ?tpl?0007
      00FFEE33H   SYMBOL    HCONST   ---       ?tpl?0008
      00FFEE3EH   SYMBOL    HCONST   ---       ?tpl?0009
      00FFEE49H   SYMBOL    HCONST   ---       ?tpl?000A
      00FFEE54H   SYMBOL    HCONST   ---       ?tpl?000B
      00FFEE5FH   SYMBOL    HCONST   ---       ?tpl?000C
      00FFEE6AH   SYMBOL    HCONST   ---       ?tpl?000D
      000112EDH   SYMBOL    XDATA    ---       gps_tau1201_receiver_fifo
      00011305H   SYMBOL    XDATA    ---       gps_gga_buffer
      000113B8H   SYMBOL    XDATA    BYTE      gps_tau1201_state
      000113B9H   SYMBOL    XDATA    ---       gps_rmc_buffer
      00011439H   SYMBOL    XDATA    ---       gps_tau1201_receiver_buffer
      REG=3       REGSYM    ---      ---       str
      REG=7       REGSYM    ---      ---       temp
      R7          REGSYM    ---      BYTE      len
      R10         REGSYM    ---      BYTE      len1
      REG=3       REGSYM    ---      ---       s
      REG=3       REGSYM    ---      ---       s
      REG=3       REGSYM    ---      ---       s
      REG=7       REGSYM    ---      ---       time
      R6          REGSYM    ---      BYTE      day_num
      REG=7       REGSYM    ---      ---       line
      REG=3       REGSYM    ---      ---       gps
      REG=0       REGSYM    ---      ---       line
      R15         REGSYM    ---      BYTE      state
      DR12        REGSYM    ---      DWORD     data_len

      ---         MODULE    ---      ---       zf_device_tsl1401
      000110EBH   PUBLIC    XDATA    BYTE      tsl1401_finish_flag
      000110ECH   PUBLIC    XDATA    ---       tsl1401_data
      000000D0H   SFRSYM    DATA     BYTE      PSW
      0000009DH   SFRSYM    DATA     BYTE      IRCBAND
      00000097H   SFRSYM    DATA     BYTE      AUXR2
      000000EFH   SFRSYM    DATA     BYTE      AUXINTIF
      000000FDH   SFRSYM    DATA     BYTE      S4CON
      000000ACH   SFRSYM    DATA     BYTE      S3CON
      0000009AH   SFRSYM    DATA     BYTE      S2CON
      000000B7H   SFRSYM    DATA     BYTE      IPH
      000000CDH   SFRSYM    DATA     BYTE      SPSTAT
      000000DDH   SFRSYM    DATA     BYTE      T4T3M
      000000C1H   SFRSYM    DATA     BYTE      WDT_CONTR
      000000DFH   SFRSYM    DATA     BYTE      IP3
L251 LINKER/LOCATER V4.66.93.0                                                        11/08/2025  20:32:40  PAGE 112


      000000F4H   SFRSYM    DATA     BYTE      USBCON
      000000B5H   SFRSYM    DATA     BYTE      IP2
      000000FFH   SFRSYM    DATA     BYTE      RSTCFG
      000000C7H   SFRSYM    DATA     BYTE      IAP_CONTR
      0000008EH   SFRSYM    DATA     BYTE      AUXR
      000000AFH   SFRSYM    DATA     BYTE      IE2
      00000088H   SFRSYM    DATA     BYTE      TCON
      00000089H   SFRSYM    DATA     BYTE      TMOD
      00000098H   SFRSYM    DATA     BYTE      SCON
      00000087H   SFRSYM    DATA     BYTE      PCON
      000000BCH   SFRSYM    DATA     BYTE      ADC_CONTR
      000000D1H   SFRSYM    DATA     BYTE      PSW1
      000000E7H   SFRSYM    DATA     BYTE      CMPCR2
      000000E6H   SFRSYM    DATA     BYTE      CMPCR1
      000000DEH   SFRSYM    DATA     BYTE      ADCCFG
      000000B8H   SFRSYM    DATA     BYTE      IP
      0000008FH   SFRSYM    DATA     BYTE      INTCLKO
      000000EEH   SFRSYM    DATA     BYTE      IP3H
      000000B6H   SFRSYM    DATA     BYTE      IP2H
      000000BFH   SFRSYM    DATA     BYTE      P_SW4
      000000A8H   SFRSYM    DATA     BYTE      IE
      000000BBH   SFRSYM    DATA     BYTE      P_SW3
      000000BAH   SFRSYM    DATA     BYTE      P_SW2
      000000A2H   SFRSYM    DATA     BYTE      P_SW1
      000000CEH   SFRSYM    DATA     BYTE      SPCTL
      000000F8H   SFRSYM    DATA     BYTE      P7
      000000E8H   SFRSYM    DATA     BYTE      P6
      000000C8H   SFRSYM    DATA     BYTE      P5
      000000C0H   SFRSYM    DATA     BYTE      P4
      000000ABH   SFRSYM    DATA     BYTE      WKTCH
      000000B0H   SFRSYM    DATA     BYTE      P3
      000000A0H   SFRSYM    DATA     BYTE      P2
      00000090H   SFRSYM    DATA     BYTE      P1
      00000080H   SFRSYM    DATA     BYTE      P0
      000112ECH   SYMBOL    XDATA    BYTE      tsl1401_init_state
      R15         REGSYM    ---      BYTE      i
      WR14        REGSYM    ---      INT       uart_n
      R13         REGSYM    ---      BYTE      index
      R12         REGSYM    ---      BYTE      i

      ---         MODULE    ---      ---       seekfree_assistant
      000114C5H   PUBLIC    XDATA    ---       seekfree_assistant_oscilloscope_data
      00011500H   PUBLIC    XDATA    ---       seekfree_assistant_parameter_update_flag
      00011508H   PUBLIC    XDATA    ---       seekfree_assistant_parameter
      000000D0H   SFRSYM    DATA     BYTE      PSW
      0000009DH   SFRSYM    DATA     BYTE      IRCBAND
      00000097H   SFRSYM    DATA     BYTE      AUXR2
      000000EFH   SFRSYM    DATA     BYTE      AUXINTIF
      000000FDH   SFRSYM    DATA     BYTE      S4CON
      000000ACH   SFRSYM    DATA     BYTE      S3CON
      0000009AH   SFRSYM    DATA     BYTE      S2CON
      000000B7H   SFRSYM    DATA     BYTE      IPH
      000000CDH   SFRSYM    DATA     BYTE      SPSTAT
      000000DDH   SFRSYM    DATA     BYTE      T4T3M
      000000C1H   SFRSYM    DATA     BYTE      WDT_CONTR
      000000DFH   SFRSYM    DATA     BYTE      IP3
      000000F4H   SFRSYM    DATA     BYTE      USBCON
      000000B5H   SFRSYM    DATA     BYTE      IP2
      000000FFH   SFRSYM    DATA     BYTE      RSTCFG
      000000C7H   SFRSYM    DATA     BYTE      IAP_CONTR
      0000008EH   SFRSYM    DATA     BYTE      AUXR
      000000AFH   SFRSYM    DATA     BYTE      IE2
      00000088H   SFRSYM    DATA     BYTE      TCON
      00000089H   SFRSYM    DATA     BYTE      TMOD
      00000098H   SFRSYM    DATA     BYTE      SCON
L251 LINKER/LOCATER V4.66.93.0                                                        11/08/2025  20:32:40  PAGE 113


      00000087H   SFRSYM    DATA     BYTE      PCON
      000000BCH   SFRSYM    DATA     BYTE      ADC_CONTR
      000000D1H   SFRSYM    DATA     BYTE      PSW1
      000000E7H   SFRSYM    DATA     BYTE      CMPCR2
      000000E6H   SFRSYM    DATA     BYTE      CMPCR1
      000000DEH   SFRSYM    DATA     BYTE      ADCCFG
      000000B8H   SFRSYM    DATA     BYTE      IP
      0000008FH   SFRSYM    DATA     BYTE      INTCLKO
      000000EEH   SFRSYM    DATA     BYTE      IP3H
      000000B6H   SFRSYM    DATA     BYTE      IP2H
      000000BFH   SFRSYM    DATA     BYTE      P_SW4
      000000A8H   SFRSYM    DATA     BYTE      IE
      000000BBH   SFRSYM    DATA     BYTE      P_SW3
      000000BAH   SFRSYM    DATA     BYTE      P_SW2
      000000A2H   SFRSYM    DATA     BYTE      P_SW1
      000000CEH   SFRSYM    DATA     BYTE      SPCTL
      000000F8H   SFRSYM    DATA     BYTE      P7
      000000A8H.7 SFRSYM    DATA     BIT       EA
      000000E8H   SFRSYM    DATA     BYTE      P6
      000000C8H   SFRSYM    DATA     BYTE      P5
      000000C0H   SFRSYM    DATA     BYTE      P4
      000000ABH   SFRSYM    DATA     BYTE      WKTCH
      000000B0H   SFRSYM    DATA     BYTE      P3
      000000A0H   SFRSYM    DATA     BYTE      P2
      00000090H   SFRSYM    DATA     BYTE      P1
      00000080H   SFRSYM    DATA     BYTE      P0
      000114BDH   SYMBOL    XDATA    ---       seekfree_assistant_camera_dot_data
      000114E9H   SYMBOL    XDATA    ---       seekfree_assistant_fifo
      00011528H   SYMBOL    XDATA    ---       seekfree_assistant_camera_buffer
      00011572H   SYMBOL    XDATA    ---       seekfree_assistant_camera_data
      0001157AH   SYMBOL    XDATA    ---       seekfree_assistant_buffer
      00FFED2FH   SYMBOL    HCONST   ---       ?tpl?0001
      00FFED53H   SYMBOL    HCONST   ---       ?tpl?0002
      REG=6       REGSYM    ---      ---       buffer
      DR28        REGSYM    ---      DWORD     length
      R11         REGSYM    ---      BYTE      temp_sum
      WR12        REGSYM    ---      INT       camera_type
      R9          REGSYM    ---      BYTE      boundary_num
      WR14        REGSYM    ---      WORD      width
      WR6         REGSYM    ---      INT       camera_type
      REG=0       REGSYM    ---      ---       image_addr
      WR8         REGSYM    ---      WORD      width
      REG=7       REGSYM    ---      ---       seekfree_assistant_oscilloscope
      R15         REGSYM    ---      BYTE      packet_size
      R14         REGSYM    ---      BYTE      i
      REG=3       REGSYM    ---      ---       buffer
      WR8         REGSYM    ---      INT       boundary_type
      WR2         REGSYM    ---      WORD      dot_num
      REG=7       REGSYM    ---      ---       dot_x1
      R6          REGSYM    ---      BYTE      i
      R7          REGSYM    ---      BYTE      boundary_num
      R5          REGSYM    ---      BYTE      boundary_data_type
      R15         REGSYM    ---      BYTE      temp_sum
      WR12        REGSYM    ---      WORD      struct_len

      ---         MODULE    ---      ---       seekfree_assistant_interface
      0001197AH   PUBLIC    XDATA    ---       seekfree_assistant_receive_callback
      0001197CH   PUBLIC    XDATA    ---       seekfree_assistant_transfer_callback
      000000D0H   SFRSYM    DATA     BYTE      PSW
      0000009DH   SFRSYM    DATA     BYTE      IRCBAND
      00000097H   SFRSYM    DATA     BYTE      AUXR2
      000000EFH   SFRSYM    DATA     BYTE      AUXINTIF
      000000FDH   SFRSYM    DATA     BYTE      S4CON
      000000ACH   SFRSYM    DATA     BYTE      S3CON
      0000009AH   SFRSYM    DATA     BYTE      S2CON
L251 LINKER/LOCATER V4.66.93.0                                                        11/08/2025  20:32:40  PAGE 114


      000000B7H   SFRSYM    DATA     BYTE      IPH
      000000CDH   SFRSYM    DATA     BYTE      SPSTAT
      000000DDH   SFRSYM    DATA     BYTE      T4T3M
      000000C1H   SFRSYM    DATA     BYTE      WDT_CONTR
      000000DFH   SFRSYM    DATA     BYTE      IP3
      000000F4H   SFRSYM    DATA     BYTE      USBCON
      000000B5H   SFRSYM    DATA     BYTE      IP2
      000000FFH   SFRSYM    DATA     BYTE      RSTCFG
      000000C7H   SFRSYM    DATA     BYTE      IAP_CONTR
      0000008EH   SFRSYM    DATA     BYTE      AUXR
      000000AFH   SFRSYM    DATA     BYTE      IE2
      00000088H   SFRSYM    DATA     BYTE      TCON
      00000089H   SFRSYM    DATA     BYTE      TMOD
      00000098H   SFRSYM    DATA     BYTE      SCON
      00000087H   SFRSYM    DATA     BYTE      PCON
      000000BCH   SFRSYM    DATA     BYTE      ADC_CONTR
      000000D1H   SFRSYM    DATA     BYTE      PSW1
      000000E7H   SFRSYM    DATA     BYTE      CMPCR2
      000000E6H   SFRSYM    DATA     BYTE      CMPCR1
      000000DEH   SFRSYM    DATA     BYTE      ADCCFG
      000000B8H   SFRSYM    DATA     BYTE      IP
      0000008FH   SFRSYM    DATA     BYTE      INTCLKO
      000000EEH   SFRSYM    DATA     BYTE      IP3H
      000000B6H   SFRSYM    DATA     BYTE      IP2H
      000000BFH   SFRSYM    DATA     BYTE      P_SW4
      000000A8H   SFRSYM    DATA     BYTE      IE
      000000BBH   SFRSYM    DATA     BYTE      P_SW3
      000000BAH   SFRSYM    DATA     BYTE      P_SW2
      000000A2H   SFRSYM    DATA     BYTE      P_SW1
      000000CEH   SFRSYM    DATA     BYTE      SPCTL
      000000F8H   SFRSYM    DATA     BYTE      P7
      000000E8H   SFRSYM    DATA     BYTE      P6
      000000C8H   SFRSYM    DATA     BYTE      P5
      000000C0H   SFRSYM    DATA     BYTE      P4
      000000ABH   SFRSYM    DATA     BYTE      WKTCH
      000000B0H   SFRSYM    DATA     BYTE      P3
      000000A0H   SFRSYM    DATA     BYTE      P2
      00000090H   SFRSYM    DATA     BYTE      P1
      00000080H   SFRSYM    DATA     BYTE      P0
      WR6         REGSYM    ---      INT       transfer_device

      ---         MODULE    ---      ---       isr
      00FFC170H   PUBLIC    CODE     ---       TM11_IRQHandler
      00FFB141H   PUBLIC    CODE     ---       DMA_UART1_IRQHandler
      00FFB5E6H   PUBLIC    CODE     ---       DMA_UART2_IRQHandler
      00FFB66FH   PUBLIC    CODE     ---       DMA_UART3_IRQHandler
      00FFB6F8H   PUBLIC    CODE     ---       DMA_UART4_IRQHandler
      00FFC3DEH   PUBLIC    CODE     ---       TM0_IRQHandler
      00FFC41CH   PUBLIC    CODE     ---       TM1_IRQHandler
      00FFC45AH   PUBLIC    CODE     ---       TM2_IRQHandler
      00FFC498H   PUBLIC    CODE     ---       TM3_IRQHandler
      00FFC4D6H   PUBLIC    CODE     ---       TM4_IRQHandler
      000000D0H   SFRSYM    DATA     BYTE      PSW
      0000009DH   SFRSYM    DATA     BYTE      IRCBAND
      00000097H   SFRSYM    DATA     BYTE      AUXR2
      000000EFH   SFRSYM    DATA     BYTE      AUXINTIF
      000000FDH   SFRSYM    DATA     BYTE      S4CON
      000000ACH   SFRSYM    DATA     BYTE      S3CON
      0000009AH   SFRSYM    DATA     BYTE      S2CON
      000000B7H   SFRSYM    DATA     BYTE      IPH
      000000CDH   SFRSYM    DATA     BYTE      SPSTAT
      000000DDH   SFRSYM    DATA     BYTE      T4T3M
      000000C1H   SFRSYM    DATA     BYTE      WDT_CONTR
      000000DFH   SFRSYM    DATA     BYTE      IP3
      000000F4H   SFRSYM    DATA     BYTE      USBCON
L251 LINKER/LOCATER V4.66.93.0                                                        11/08/2025  20:32:40  PAGE 115


      000000B5H   SFRSYM    DATA     BYTE      IP2
      000000FFH   SFRSYM    DATA     BYTE      RSTCFG
      000000C7H   SFRSYM    DATA     BYTE      IAP_CONTR
      0000008EH   SFRSYM    DATA     BYTE      AUXR
      000000AFH   SFRSYM    DATA     BYTE      IE2
      00000088H   SFRSYM    DATA     BYTE      TCON
      00000089H   SFRSYM    DATA     BYTE      TMOD
      00000098H   SFRSYM    DATA     BYTE      SCON
      00000087H   SFRSYM    DATA     BYTE      PCON
      000000BCH   SFRSYM    DATA     BYTE      ADC_CONTR
      000000D1H   SFRSYM    DATA     BYTE      PSW1
      000000E7H   SFRSYM    DATA     BYTE      CMPCR2
      000000E6H   SFRSYM    DATA     BYTE      CMPCR1
      000000DEH   SFRSYM    DATA     BYTE      ADCCFG
      000000B8H   SFRSYM    DATA     BYTE      IP
      0000008FH   SFRSYM    DATA     BYTE      INTCLKO
      000000EEH   SFRSYM    DATA     BYTE      IP3H
      000000B6H   SFRSYM    DATA     BYTE      IP2H
      000000BFH   SFRSYM    DATA     BYTE      P_SW4
      000000A8H   SFRSYM    DATA     BYTE      IE
      000000BBH   SFRSYM    DATA     BYTE      P_SW3
      000000BAH   SFRSYM    DATA     BYTE      P_SW2
      000000A2H   SFRSYM    DATA     BYTE      P_SW1
      000000CEH   SFRSYM    DATA     BYTE      SPCTL
      000000F8H   SFRSYM    DATA     BYTE      P7
      000000E8H   SFRSYM    DATA     BYTE      P6
      000000C8H   SFRSYM    DATA     BYTE      P5
      000000C0H   SFRSYM    DATA     BYTE      P4
      000000ABH   SFRSYM    DATA     BYTE      WKTCH
      000000B0H   SFRSYM    DATA     BYTE      P3
      000000A0H   SFRSYM    DATA     BYTE      P2
      00000090H   SFRSYM    DATA     BYTE      P1
      00000080H   SFRSYM    DATA     BYTE      P0

      00FFB141H   BLOCK     CODE     ---       LVL=0
      00FFB155H   BLOCK     CODE     NEAR LAB  LVL=1
      00011986H   SYMBOL    XDATA    BYTE      dwon_count
      ---         BLOCKEND  ---      ---       LVL=1
      00FFB141H   LINE      CODE     ---       #40
      00FFB155H   LINE      CODE     ---       #41
      00FFB155H   LINE      CODE     ---       #43
      00FFB163H   LINE      CODE     ---       #45
      00FFB173H   LINE      CODE     ---       #46
      00FFB178H   LINE      CODE     ---       #49
      00FFB17FH   LINE      CODE     ---       #51
      00FFB18EH   LINE      CODE     ---       #53
      00FFB191H   LINE      CODE     ---       #54
      00FFB193H   LINE      CODE     ---       #58
      00FFB198H   LINE      CODE     ---       #59
      00FFB198H   LINE      CODE     ---       #61
      00FFB1A2H   LINE      CODE     ---       #63
      00FFB1AEH   LINE      CODE     ---       #64
      00FFB1AEH   LINE      CODE     ---       #67
      00FFB1BCH   LINE      CODE     ---       #69
      00FFB1CCH   LINE      CODE     ---       #70
      00FFB1D1H   LINE      CODE     ---       #74
      ---         BLOCKEND  ---      ---       LVL=0

      00FFB5E6H   BLOCK     CODE     ---       LVL=0
      00FFB5E6H   LINE      CODE     ---       #79
      00FFB5FAH   LINE      CODE     ---       #82
      00FFB608H   LINE      CODE     ---       #84
      00FFB618H   LINE      CODE     ---       #85
      00FFB61FH   LINE      CODE     ---       #87
      00FFB629H   LINE      CODE     ---       #89
L251 LINKER/LOCATER V4.66.93.0                                                        11/08/2025  20:32:40  PAGE 116


      00FFB635H   LINE      CODE     ---       #90
      00FFB635H   LINE      CODE     ---       #93
      00FFB643H   LINE      CODE     ---       #95
      00FFB653H   LINE      CODE     ---       #96
      00FFB65AH   LINE      CODE     ---       #101
      ---         BLOCKEND  ---      ---       LVL=0

      00FFB66FH   BLOCK     CODE     ---       LVL=0
      00FFB66FH   LINE      CODE     ---       #104
      00FFB683H   LINE      CODE     ---       #107
      00FFB691H   LINE      CODE     ---       #109
      00FFB6A1H   LINE      CODE     ---       #110
      00FFB6A8H   LINE      CODE     ---       #112
      00FFB6B2H   LINE      CODE     ---       #115
      00FFB6BEH   LINE      CODE     ---       #117
      00FFB6BEH   LINE      CODE     ---       #120
      00FFB6CCH   LINE      CODE     ---       #122
      00FFB6DCH   LINE      CODE     ---       #123
      00FFB6E3H   LINE      CODE     ---       #128
      ---         BLOCKEND  ---      ---       LVL=0

      00FFB6F8H   BLOCK     CODE     ---       LVL=0
      00FFB6F8H   LINE      CODE     ---       #131
      00FFB70CH   LINE      CODE     ---       #134
      00FFB71AH   LINE      CODE     ---       #136
      00FFB72AH   LINE      CODE     ---       #137
      00FFB731H   LINE      CODE     ---       #139
      00FFB73BH   LINE      CODE     ---       #141
      00FFB747H   LINE      CODE     ---       #143
      00FFB747H   LINE      CODE     ---       #146
      00FFB755H   LINE      CODE     ---       #148
      00FFB765H   LINE      CODE     ---       #149
      00FFB76CH   LINE      CODE     ---       #154
      ---         BLOCKEND  ---      ---       LVL=0

      00FFC3DEH   BLOCK     CODE     ---       LVL=0
      00FFC3DEH   LINE      CODE     ---       #158
      00FFC3F2H   LINE      CODE     ---       #160
      00FFC3F5H   LINE      CODE     ---       #162
      00FFC3FFH   LINE      CODE     ---       #164
      00FFC407H   LINE      CODE     ---       #165
      ---         BLOCKEND  ---      ---       LVL=0

      00FFC41CH   BLOCK     CODE     ---       LVL=0
      00FFC41CH   LINE      CODE     ---       #167
      00FFC430H   LINE      CODE     ---       #169
      00FFC433H   LINE      CODE     ---       #171
      00FFC43DH   LINE      CODE     ---       #173
      00FFC445H   LINE      CODE     ---       #174
      ---         BLOCKEND  ---      ---       LVL=0

      00FFC45AH   BLOCK     CODE     ---       LVL=0
      00FFC45AH   LINE      CODE     ---       #176
      00FFC46EH   LINE      CODE     ---       #178
      00FFC471H   LINE      CODE     ---       #180
      00FFC47BH   LINE      CODE     ---       #182
      00FFC483H   LINE      CODE     ---       #183
      ---         BLOCKEND  ---      ---       LVL=0

      00FFC498H   BLOCK     CODE     ---       LVL=0
      00FFC498H   LINE      CODE     ---       #185
      00FFC4ACH   LINE      CODE     ---       #187
      00FFC4AFH   LINE      CODE     ---       #189
      00FFC4B9H   LINE      CODE     ---       #191
      00FFC4C1H   LINE      CODE     ---       #192
L251 LINKER/LOCATER V4.66.93.0                                                        11/08/2025  20:32:40  PAGE 117


      ---         BLOCKEND  ---      ---       LVL=0

      00FFC4D6H   BLOCK     CODE     ---       LVL=0
      00FFC4D6H   LINE      CODE     ---       #195
      00FFC4EAH   LINE      CODE     ---       #197
      00FFC4EDH   LINE      CODE     ---       #199
      00FFC4F7H   LINE      CODE     ---       #201
      00FFC4FFH   LINE      CODE     ---       #202
      ---         BLOCKEND  ---      ---       LVL=0

      00FFC170H   BLOCK     CODE     ---       LVL=0
      00FFC170H   LINE      CODE     ---       #205
      00FFC184H   LINE      CODE     ---       #207
      00FFC194H   LINE      CODE     ---       #209
      00FFC19EH   LINE      CODE     ---       #211
      00FFC1A6H   LINE      CODE     ---       #212
      ---         BLOCKEND  ---      ---       LVL=0

      ---         MODULE    ---      ---       main
      00FF0066H   PUBLIC    CODE     ---       main
      00FF8DD9H   PUBLIC    CODE     ---       pit_handler1
      00FF976DH   PUBLIC    CODE     ---       _m
      000118E8H   PUBLIC    XDATA    INT       T4
      000118EAH   PUBLIC    XDATA    INT       T
      000118ECH   PUBLIC    XDATA    FLOAT     delta_angle_buffer
      000118F0H   PUBLIC    XDATA    INT       current_delta_angle
      000118F2H   PUBLIC    XDATA    INT       delta_Speed
      000118F4H   PUBLIC    XDATA    LONG      encoder
      000118F8H   PUBLIC    XDATA    BYTE      speed_update_flag
      000000D0H   SFRSYM    DATA     BYTE      PSW
      0000009DH   SFRSYM    DATA     BYTE      IRCBAND
      00000097H   SFRSYM    DATA     BYTE      AUXR2
      000000EFH   SFRSYM    DATA     BYTE      AUXINTIF
      000000FDH   SFRSYM    DATA     BYTE      S4CON
      000000ACH   SFRSYM    DATA     BYTE      S3CON
      0000009AH   SFRSYM    DATA     BYTE      S2CON
      000000B7H   SFRSYM    DATA     BYTE      IPH
      000000CDH   SFRSYM    DATA     BYTE      SPSTAT
      000000DDH   SFRSYM    DATA     BYTE      T4T3M
      000000C1H   SFRSYM    DATA     BYTE      WDT_CONTR
      000000DFH   SFRSYM    DATA     BYTE      IP3
      000000F4H   SFRSYM    DATA     BYTE      USBCON
      000000B5H   SFRSYM    DATA     BYTE      IP2
      000000FFH   SFRSYM    DATA     BYTE      RSTCFG
      000000C7H   SFRSYM    DATA     BYTE      IAP_CONTR
      0000008EH   SFRSYM    DATA     BYTE      AUXR
      000000AFH   SFRSYM    DATA     BYTE      IE2
      00000088H   SFRSYM    DATA     BYTE      TCON
      00000089H   SFRSYM    DATA     BYTE      TMOD
      00000098H   SFRSYM    DATA     BYTE      SCON
      00000087H   SFRSYM    DATA     BYTE      PCON
      000000BCH   SFRSYM    DATA     BYTE      ADC_CONTR
      000000D1H   SFRSYM    DATA     BYTE      PSW1
      000000E7H   SFRSYM    DATA     BYTE      CMPCR2
      000000E6H   SFRSYM    DATA     BYTE      CMPCR1
      000000DEH   SFRSYM    DATA     BYTE      ADCCFG
      000000B8H   SFRSYM    DATA     BYTE      IP
      0000008FH   SFRSYM    DATA     BYTE      INTCLKO
      000000EEH   SFRSYM    DATA     BYTE      IP3H
      000000B6H   SFRSYM    DATA     BYTE      IP2H
      000000BFH   SFRSYM    DATA     BYTE      P_SW4
      000000A8H   SFRSYM    DATA     BYTE      IE
      000000BBH   SFRSYM    DATA     BYTE      P_SW3
      000000BAH   SFRSYM    DATA     BYTE      P_SW2
      000000A2H   SFRSYM    DATA     BYTE      P_SW1
L251 LINKER/LOCATER V4.66.93.0                                                        11/08/2025  20:32:40  PAGE 118


      000000CEH   SFRSYM    DATA     BYTE      SPCTL
      000000F8H   SFRSYM    DATA     BYTE      P7
      000000A8H.7 SFRSYM    DATA     BIT       EA
      000000E8H   SFRSYM    DATA     BYTE      P6
      000000C8H   SFRSYM    DATA     BYTE      P5
      000000C0H   SFRSYM    DATA     BYTE      P4
      000000ABH   SFRSYM    DATA     BYTE      WKTCH
      000000B0H   SFRSYM    DATA     BYTE      P3
      000000A0H   SFRSYM    DATA     BYTE      P2
      00000090H   SFRSYM    DATA     BYTE      P1
      00000080H   SFRSYM    DATA     BYTE      P0

      00FF0066H   BLOCK     CODE     ---       LVL=0
      00FF0066H   LINE      CODE     ---       #13
      ---         BLOCKEND  ---      ---       LVL=0

      00FF976DH   BLOCK     CODE     ---       LVL=0
      00FF976DH   LINE      CODE     ---       #13
      00FF976DH   LINE      CODE     ---       #15
      00FF9778H   LINE      CODE     ---       #16
      00FF977BH   LINE      CODE     ---       #18
      00FF977EH   LINE      CODE     ---       #19
      00FF9788H   LINE      CODE     ---       #21
      00FF9788H   LINE      CODE     ---       #24
      00FF97B7H   LINE      CODE     ---       #26
      00FF97B7H   LINE      CODE     ---       #28
      00FF97BAH   LINE      CODE     ---       #29
      00FF97C0H   LINE      CODE     ---       #31
      00FF97C2H   LINE      CODE     ---       #32
      00FF97C9H   LINE      CODE     ---       #33
      00FF97CEH   LINE      CODE     ---       #34
      00FF97D0H   LINE      CODE     ---       #35
      00FF97D0H   LINE      CODE     ---       #36
      00FF97F9H   LINE      CODE     ---       #38
      00FF9865H   LINE      CODE     ---       #39
      00FF986BH   LINE      CODE     ---       #40
      00FF986BH   LINE      CODE     ---       #41
      00FF986DH   LINE      CODE     ---       #43
      00FF986DH   LINE      CODE     ---       #45
      00FF9870H   LINE      CODE     ---       #46
      00FF9872H   LINE      CODE     ---       #48
      00FF9872H   LINE      CODE     ---       #50
      00FF9875H   LINE      CODE     ---       #51
      00FF9877H   LINE      CODE     ---       #53
      00FF9877H   LINE      CODE     ---       #55
      00FF987AH   LINE      CODE     ---       #56
      00FF987CH   LINE      CODE     ---       #58
      00FF987CH   LINE      CODE     ---       #60
      00FF987FH   LINE      CODE     ---       #61
      00FF9881H   LINE      CODE     ---       #63
      00FF9881H   LINE      CODE     ---       #65
      00FF9884H   LINE      CODE     ---       #66
      00FF9887H   LINE      CODE     ---       #67
      00FF9889H   LINE      CODE     ---       #69
      00FF9889H   LINE      CODE     ---       #71
      00FF988CH   LINE      CODE     ---       #72
      00FF988FH   LINE      CODE     ---       #73
      00FF9891H   LINE      CODE     ---       #75
      00FF9891H   LINE      CODE     ---       #77
      00FF9894H   LINE      CODE     ---       #78
      00FF9896H   LINE      CODE     ---       #80
      00FF9896H   LINE      CODE     ---       #82
      00FF9899H   LINE      CODE     ---       #83
      00FF989CH   LINE      CODE     ---       #84
      00FF989CH   LINE      CODE     ---       #86
L251 LINKER/LOCATER V4.66.93.0                                                        11/08/2025  20:32:40  PAGE 119


      00FF989CH   LINE      CODE     ---       #87
      00FF98A5H   LINE      CODE     ---       #89
      00FF98AAH   LINE      CODE     ---       #90
      00FF98AFH   LINE      CODE     ---       #91
      00FF98B2H   LINE      CODE     ---       #93
      ---         BLOCKEND  ---      ---       LVL=0

      00FF8DD9H   BLOCK     CODE     ---       LVL=0
      00FF8DD9H   LINE      CODE     ---       #100
      00FF8DD9H   LINE      CODE     ---       #102
      00FF8DE4H   LINE      CODE     ---       #103
      00FF8DE7H   LINE      CODE     ---       #104
      00FF8DF3H   LINE      CODE     ---       #105
      00FF8DFFH   LINE      CODE     ---       #106
      00FF8E02H   LINE      CODE     ---       #108
      00FF8E05H   LINE      CODE     ---       #109
      00FF8E0BH   LINE      CODE     ---       #111
      00FF8E0EH   LINE      CODE     ---       #112
      00FF8E0EH   LINE      CODE     ---       #113
      00FF8E35H   LINE      CODE     ---       #116
      00FF8E54H   LINE      CODE     ---       #117
      00FF8E69H   LINE      CODE     ---       #119
      00FF8E6CH   LINE      CODE     ---       #120
      00FF8EB0H   LINE      CODE     ---       #121
      00FF8ECEH   LINE      CODE     ---       #122
      00FF8EDEH   LINE      CODE     ---       #123
      00FF8EE1H   LINE      CODE     ---       #124
      00FF8EE4H   LINE      CODE     ---       #132
      00FF8EF9H   LINE      CODE     ---       #134
      00FF8EFCH   LINE      CODE     ---       #135
      00FF8F40H   LINE      CODE     ---       #136
      00FF8F5EH   LINE      CODE     ---       #137
      00FF8F6EH   LINE      CODE     ---       #139
      00FF8F70H   LINE      CODE     ---       #140
      00FF8F7CH   LINE      CODE     ---       #142
      00FF8F7FH   LINE      CODE     ---       #143
      00FF8F81H   LINE      CODE     ---       #146
      00FF8F84H   LINE      CODE     ---       #147
      00FF8F84H   LINE      CODE     ---       #148
      00FF8F84H   LINE      CODE     ---       #149
      00FF8F90H   LINE      CODE     ---       #151
      00FF8F98H   LINE      CODE     ---       #152
      00FF8F9EH   LINE      CODE     ---       #154
      00FF8FA1H   LINE      CODE     ---       #155
      00FF8FA1H   LINE      CODE     ---       #156
      00FF8FA7H   LINE      CODE     ---       #158
      00FF8FAAH   LINE      CODE     ---       #159
      00FF8FAAH   LINE      CODE     ---       #160
      00FF8FB0H   LINE      CODE     ---       #162
      00FF8FB3H   LINE      CODE     ---       #163
      00FF8FB3H   LINE      CODE     ---       #165
      ---         BLOCKEND  ---      ---       LVL=0

      ---         MODULE    ---      ---       ADC_Get
      00FFA2D3H   PUBLIC    CODE     ---       ADC_SampleAndFilter
      00FFAF50H   PUBLIC    CODE     ---       adc_filter
      00FFC769H   PUBLIC    CODE     ---       ADC_GetInit
      00011831H   PUBLIC    XDATA    ---       raw_adc_data
      00011859H   PUBLIC    XDATA    ---       ADC_Num
      00011867H   PUBLIC    XDATA    ---       filtered_adc
      00000020H.0 PUBLIC    BIT      BIT       Battery_Init
      000000D0H   SFRSYM    DATA     BYTE      PSW
      0000009DH   SFRSYM    DATA     BYTE      IRCBAND
      00000097H   SFRSYM    DATA     BYTE      AUXR2
      000000EFH   SFRSYM    DATA     BYTE      AUXINTIF
L251 LINKER/LOCATER V4.66.93.0                                                        11/08/2025  20:32:40  PAGE 120


      000000FDH   SFRSYM    DATA     BYTE      S4CON
      000000ACH   SFRSYM    DATA     BYTE      S3CON
      0000009AH   SFRSYM    DATA     BYTE      S2CON
      000000B7H   SFRSYM    DATA     BYTE      IPH
      000000CDH   SFRSYM    DATA     BYTE      SPSTAT
      000000DDH   SFRSYM    DATA     BYTE      T4T3M
      000000C1H   SFRSYM    DATA     BYTE      WDT_CONTR
      000000DFH   SFRSYM    DATA     BYTE      IP3
      000000F4H   SFRSYM    DATA     BYTE      USBCON
      000000B5H   SFRSYM    DATA     BYTE      IP2
      000000FFH   SFRSYM    DATA     BYTE      RSTCFG
      000000C7H   SFRSYM    DATA     BYTE      IAP_CONTR
      0000008EH   SFRSYM    DATA     BYTE      AUXR
      000000AFH   SFRSYM    DATA     BYTE      IE2
      00000088H   SFRSYM    DATA     BYTE      TCON
      00000089H   SFRSYM    DATA     BYTE      TMOD
      00000098H   SFRSYM    DATA     BYTE      SCON
      00000087H   SFRSYM    DATA     BYTE      PCON
      000000BCH   SFRSYM    DATA     BYTE      ADC_CONTR
      000000D1H   SFRSYM    DATA     BYTE      PSW1
      000000E7H   SFRSYM    DATA     BYTE      CMPCR2
      000000E6H   SFRSYM    DATA     BYTE      CMPCR1
      000000DEH   SFRSYM    DATA     BYTE      ADCCFG
      000000B8H   SFRSYM    DATA     BYTE      IP
      0000008FH   SFRSYM    DATA     BYTE      INTCLKO
      000000EEH   SFRSYM    DATA     BYTE      IP3H
      000000B6H   SFRSYM    DATA     BYTE      IP2H
      000000BFH   SFRSYM    DATA     BYTE      P_SW4
      000000A8H   SFRSYM    DATA     BYTE      IE
      000000BBH   SFRSYM    DATA     BYTE      P_SW3
      000000BAH   SFRSYM    DATA     BYTE      P_SW2
      000000A2H   SFRSYM    DATA     BYTE      P_SW1
      000000CEH   SFRSYM    DATA     BYTE      SPCTL
      000000F8H   SFRSYM    DATA     BYTE      P7
      000000E8H   SFRSYM    DATA     BYTE      P6
      000000C8H   SFRSYM    DATA     BYTE      P5
      000000C0H   SFRSYM    DATA     BYTE      P4
      000000ABH   SFRSYM    DATA     BYTE      WKTCH
      000000B0H   SFRSYM    DATA     BYTE      P3
      000000A0H   SFRSYM    DATA     BYTE      P2
      00000090H   SFRSYM    DATA     BYTE      P1
      00000080H   SFRSYM    DATA     BYTE      P0

      00FFC769H   BLOCK     CODE     ---       LVL=0
      00FFC769H   LINE      CODE     ---       #7
      00FFC769H   LINE      CODE     ---       #9
      00FFC774H   LINE      CODE     ---       #10
      00FFC77FH   LINE      CODE     ---       #11
      00FFC78AH   LINE      CODE     ---       #12
      00FFC795H   LINE      CODE     ---       #17
      ---         BLOCKEND  ---      ---       LVL=0

      00FFAF50H   BLOCK     CODE     ---       LVL=0
      REG=7       REGSYM    ---      ---       samples
      R15         REGSYM    ---      BYTE      count
      00FFAF56H   BLOCK     CODE     NEAR LAB  LVL=1
      R14         REGSYM    ---      BYTE      i
      DR20        REGSYM    ---      DWORD     sum
      WR24        REGSYM    ---      WORD      max
      WR26        REGSYM    ---      WORD      min
      ---         BLOCKEND  ---      ---       LVL=1
      00FFAF50H   LINE      CODE     ---       #20
      00FFAF56H   LINE      CODE     ---       #21
      00FFAF56H   LINE      CODE     ---       #23
      00FFAF58H   LINE      CODE     ---       #24
L251 LINKER/LOCATER V4.66.93.0                                                        11/08/2025  20:32:40  PAGE 121


      00FFAF5BH   LINE      CODE     ---       #25
      00FFAF5EH   LINE      CODE     ---       #27
      00FFAF63H   LINE      CODE     ---       #29
      00FFAF67H   LINE      CODE     ---       #31
      00FFAF76H   LINE      CODE     ---       #32
      00FFAF7CH   LINE      CODE     ---       #33
      00FFAF87H   LINE      CODE     ---       #34
      00FFAF87H   LINE      CODE     ---       #35
      00FFAF8BH   LINE      CODE     ---       #37
      00FFAFA9H   LINE      CODE     ---       #38
      00FFAFC7H   LINE      CODE     ---       #39
      00FFAFD6H   LINE      CODE     ---       #40
      00FFAFDCH   LINE      CODE     ---       #41
      00FFAFF3H   LINE      CODE     ---       #42
      ---         BLOCKEND  ---      ---       LVL=0

      00FFA2D3H   BLOCK     CODE     ---       LVL=0
      00FFA2D5H   BLOCK     CODE     NEAR LAB  LVL=1
      R14         REGSYM    ---      BYTE      sample_index
      R15         REGSYM    ---      BYTE      channel_index
      ---         BLOCKEND  ---      ---       LVL=1
      00FFA2D3H   LINE      CODE     ---       #45
      00FFA2D5H   LINE      CODE     ---       #46
      00FFA2D5H   LINE      CODE     ---       #47
      00FFA2D7H   LINE      CODE     ---       #48
      00FFA2D9H   LINE      CODE     ---       #51
      00FFA2DDH   LINE      CODE     ---       #53
      00FFA2F8H   LINE      CODE     ---       #54
      00FFA313H   LINE      CODE     ---       #55
      00FFA32EH   LINE      CODE     ---       #56
      00FFA349H   LINE      CODE     ---       #57
      00FFA350H   LINE      CODE     ---       #60
      00FFA354H   LINE      CODE     ---       #62
      00FFA37AH   LINE      CODE     ---       #63
      00FFA381H   LINE      CODE     ---       #64
      00FFA38DH   LINE      CODE     ---       #65
      00FFA399H   LINE      CODE     ---       #66
      00FFA3A5H   LINE      CODE     ---       #67
      00FFA3B1H   LINE      CODE     ---       #68
      ---         BLOCKEND  ---      ---       LVL=0
      WR14        REGSYM    ---      WORD      battery_adc
      WR2         REGSYM    ---      WORD      ref_adc
      WR6         REGSYM    ---      WORD      battery_v
      R13         REGSYM    ---      BYTE      i

      ---         MODULE    ---      ---       control
      00FFA64EH   PUBLIC    CODE     ---       Motor_Right_pi_control
      00FFA726H   PUBLIC    CODE     ---       Motor_Left_pi_control
      00FF8361H   PUBLIC    CODE     ---       PID_Update
      00FFC969H   PUBLIC    CODE     ---       Ser_Servo_Duty
      00FF9178H   PUBLIC    CODE     ---       Cycle_Update
      00FFAFF6H   PUBLIC    CODE     ---       Motor_Update_Smooth
      00FFC1BBH   PUBLIC    CODE     ---       Motor_Update
      00FFB3A6H   PUBLIC    CODE     ---       Servo_turn_pid
      00FFC552H   PUBLIC    CODE     ---       MotorL_SetSpeed
      00FFC58FH   PUBLIC    CODE     ---       MotorR_SetSpeed
      00FF961BH   PUBLIC    CODE     ---       Speed_diff
      000118ABH   PUBLIC    XDATA    FLOAT     Current_dajiao
      000118AFH   PUBLIC    XDATA    FLOAT     Current_Speed
      000118B3H   PUBLIC    XDATA    BYTE      CAR_Mode
      000118B4H   PUBLIC    XDATA    FLOAT     d_range
      000118B8H   PUBLIC    XDATA    FLOAT     Right_Speed
      000118BCH   PUBLIC    XDATA    FLOAT     Left_Speed
      000000D0H   SFRSYM    DATA     BYTE      PSW
      0000009DH   SFRSYM    DATA     BYTE      IRCBAND
L251 LINKER/LOCATER V4.66.93.0                                                        11/08/2025  20:32:40  PAGE 122


      00000097H   SFRSYM    DATA     BYTE      AUXR2
      000000EFH   SFRSYM    DATA     BYTE      AUXINTIF
      000000FDH   SFRSYM    DATA     BYTE      S4CON
      000000ACH   SFRSYM    DATA     BYTE      S3CON
      0000009AH   SFRSYM    DATA     BYTE      S2CON
      000000B7H   SFRSYM    DATA     BYTE      IPH
      000000CDH   SFRSYM    DATA     BYTE      SPSTAT
      000000DDH   SFRSYM    DATA     BYTE      T4T3M
      000000C1H   SFRSYM    DATA     BYTE      WDT_CONTR
      000000DFH   SFRSYM    DATA     BYTE      IP3
      000000F4H   SFRSYM    DATA     BYTE      USBCON
      000000B5H   SFRSYM    DATA     BYTE      IP2
      000000FFH   SFRSYM    DATA     BYTE      RSTCFG
      000000C7H   SFRSYM    DATA     BYTE      IAP_CONTR
      0000008EH   SFRSYM    DATA     BYTE      AUXR
      000000AFH   SFRSYM    DATA     BYTE      IE2
      00000088H   SFRSYM    DATA     BYTE      TCON
      00000089H   SFRSYM    DATA     BYTE      TMOD
      00000098H   SFRSYM    DATA     BYTE      SCON
      00000087H   SFRSYM    DATA     BYTE      PCON
      000000BCH   SFRSYM    DATA     BYTE      ADC_CONTR
      000000D1H   SFRSYM    DATA     BYTE      PSW1
      000000E7H   SFRSYM    DATA     BYTE      CMPCR2
      000000E6H   SFRSYM    DATA     BYTE      CMPCR1
      000000DEH   SFRSYM    DATA     BYTE      ADCCFG
      000000B8H   SFRSYM    DATA     BYTE      IP
      0000008FH   SFRSYM    DATA     BYTE      INTCLKO
      000000EEH   SFRSYM    DATA     BYTE      IP3H
      000000B6H   SFRSYM    DATA     BYTE      IP2H
      000000BFH   SFRSYM    DATA     BYTE      P_SW4
      000000A8H   SFRSYM    DATA     BYTE      IE
      000000BBH   SFRSYM    DATA     BYTE      P_SW3
      000000BAH   SFRSYM    DATA     BYTE      P_SW2
      000000A2H   SFRSYM    DATA     BYTE      P_SW1
      000000CEH   SFRSYM    DATA     BYTE      SPCTL
      000000F8H   SFRSYM    DATA     BYTE      P7
      000000E8H   SFRSYM    DATA     BYTE      P6
      000000C8H   SFRSYM    DATA     BYTE      P5
      000000C0H   SFRSYM    DATA     BYTE      P4
      000000ABH   SFRSYM    DATA     BYTE      WKTCH
      000000B0H   SFRSYM    DATA     BYTE      P3
      000000A0H   SFRSYM    DATA     BYTE      P2
      00000090H   SFRSYM    DATA     BYTE      P1
      00000080H   SFRSYM    DATA     BYTE      P0

      00FFC969H   BLOCK     CODE     ---       LVL=0
      WR4         REGSYM    ---      INT       value
      00FFC969H   LINE      CODE     ---       #11
      00FFC96BH   LINE      CODE     ---       #13
      00FFC978H   LINE      CODE     ---       #14
      ---         BLOCKEND  ---      ---       LVL=0

      00FFB3A6H   BLOCK     CODE     ---       LVL=0
      DR0         REGSYM    ---      FLOAT     Current
      00FFB3A8H   BLOCK     CODE     NEAR LAB  LVL=1
      DR20        REGSYM    ---      FLOAT     kp
      DR24        REGSYM    ---      FLOAT     kd
      DR8         REGSYM    ---      FLOAT     last_error
      DR28        REGSYM    ---      FLOAT     error
      DR28        REGSYM    ---      FLOAT     temp
      DR24        REGSYM    ---      FLOAT     out
      ---         BLOCKEND  ---      ---       LVL=1
      00FFB3A6H   LINE      CODE     ---       #23
      00FFB3A8H   LINE      CODE     ---       #24
      00FFB3A8H   LINE      CODE     ---       #25
L251 LINKER/LOCATER V4.66.93.0                                                        11/08/2025  20:32:40  PAGE 123


      00FFB3B2H   LINE      CODE     ---       #26
      00FFB3BCH   LINE      CODE     ---       #28
      00FFB3C6H   LINE      CODE     ---       #29
      00FFB3C8H   LINE      CODE     ---       #31
      00FFB3E4H   LINE      CODE     ---       #36
      00FFB3EEH   LINE      CODE     ---       #38
      00FFB41AH   LINE      CODE     ---       #39
      00FFB439H   LINE      CODE     ---       #40
      ---         BLOCKEND  ---      ---       LVL=0

      00FFA726H   BLOCK     CODE     ---       LVL=0
      WR2         REGSYM    ---      INT       point
      00FFA728H   BLOCK     CODE     NEAR LAB  LVL=1
      DR20        REGSYM    ---      FLOAT     kp
      DR16        REGSYM    ---      FLOAT     ki
      DR28        REGSYM    ---      FLOAT     out
      WR26        REGSYM    ---      INT       error
      DR20        REGSYM    ---      FLOAT     delta_out
      ---         BLOCKEND  ---      ---       LVL=1
      00FFA726H   LINE      CODE     ---       #45
      00FFA728H   LINE      CODE     ---       #46
      00FFA728H   LINE      CODE     ---       #47
      00FFA732H   LINE      CODE     ---       #48
      00FFA73CH   LINE      CODE     ---       #49
      00FFA73EH   LINE      CODE     ---       #51
      00FFA748H   LINE      CODE     ---       #53
      00FFA776H   LINE      CODE     ---       #55
      00FFA78DH   LINE      CODE     ---       #56
      00FFA7A4H   LINE      CODE     ---       #57
      00FFA7B5H   LINE      CODE     ---       #59
      00FFA7CAH   LINE      CODE     ---       #60
      00FFA7DDH   LINE      CODE     ---       #62
      00FFA7EEH   LINE      CODE     ---       #63
      00FFA7F8H   LINE      CODE     ---       #65
      00FFA7FDH   LINE      CODE     ---       #66
      ---         BLOCKEND  ---      ---       LVL=0

      00FFA64EH   BLOCK     CODE     ---       LVL=0
      WR2         REGSYM    ---      INT       point
      00FFA650H   BLOCK     CODE     NEAR LAB  LVL=1
      DR20        REGSYM    ---      FLOAT     kp
      DR16        REGSYM    ---      FLOAT     ki
      DR28        REGSYM    ---      FLOAT     out
      WR26        REGSYM    ---      INT       error
      DR20        REGSYM    ---      FLOAT     delta_out
      ---         BLOCKEND  ---      ---       LVL=1
      00FFA64EH   LINE      CODE     ---       #72
      00FFA650H   LINE      CODE     ---       #73
      00FFA650H   LINE      CODE     ---       #74
      00FFA65AH   LINE      CODE     ---       #75
      00FFA664H   LINE      CODE     ---       #76
      00FFA666H   LINE      CODE     ---       #78
      00FFA670H   LINE      CODE     ---       #80
      00FFA69EH   LINE      CODE     ---       #82
      00FFA6B5H   LINE      CODE     ---       #83
      00FFA6CCH   LINE      CODE     ---       #84
      00FFA6DDH   LINE      CODE     ---       #86
      00FFA6F2H   LINE      CODE     ---       #87
      00FFA705H   LINE      CODE     ---       #89
      00FFA716H   LINE      CODE     ---       #90
      00FFA720H   LINE      CODE     ---       #92
      00FFA725H   LINE      CODE     ---       #93
      ---         BLOCKEND  ---      ---       LVL=0

      00FFC552H   BLOCK     CODE     ---       LVL=0
L251 LINKER/LOCATER V4.66.93.0                                                        11/08/2025  20:32:40  PAGE 124


      WR14        REGSYM    ---      INT       pwm
      00FFC552H   LINE      CODE     ---       #100
      00FFC556H   LINE      CODE     ---       #103
      00FFC55CH   LINE      CODE     ---       #105
      00FFC569H   LINE      CODE     ---       #106
      00FFC572H   LINE      CODE     ---       #107
      00FFC574H   LINE      CODE     ---       #110
      00FFC583H   LINE      CODE     ---       #111
      00FFC58CH   LINE      CODE     ---       #112
      00FFC58CH   LINE      CODE     ---       #113
      ---         BLOCKEND  ---      ---       LVL=0

      00FFC58FH   BLOCK     CODE     ---       LVL=0
      WR14        REGSYM    ---      INT       pwm
      00FFC58FH   LINE      CODE     ---       #120
      00FFC593H   LINE      CODE     ---       #122
      00FFC599H   LINE      CODE     ---       #124
      00FFC5A6H   LINE      CODE     ---       #125
      00FFC5AFH   LINE      CODE     ---       #126
      00FFC5B1H   LINE      CODE     ---       #129
      00FFC5C0H   LINE      CODE     ---       #130
      00FFC5C9H   LINE      CODE     ---       #131
      00FFC5C9H   LINE      CODE     ---       #132
      ---         BLOCKEND  ---      ---       LVL=0

      00FFC1BBH   BLOCK     CODE     ---       LVL=0
      DR12        REGSYM    ---      FLOAT     X
      00FFC1BBH   LINE      CODE     ---       #140
      00FFC1BFH   LINE      CODE     ---       #142
      00FFC1E0H   LINE      CODE     ---       #143
      00FFC201H   LINE      CODE     ---       #144
      ---         BLOCKEND  ---      ---       LVL=0

      00FFAFF6H   BLOCK     CODE     ---       LVL=0
      DR28        REGSYM    ---      FLOAT     target
      00FFAFF8H   BLOCK     CODE     NEAR LAB  LVL=1
      DR20        REGSYM    ---      FLOAT     step1
      DR24        REGSYM    ---      FLOAT     step2
      ---         BLOCKEND  ---      ---       LVL=1
      00FFAFF6H   LINE      CODE     ---       #146
      00FFAFF8H   LINE      CODE     ---       #147
      00FFAFF8H   LINE      CODE     ---       #148
      00FFB000H   LINE      CODE     ---       #149
      00FFB008H   LINE      CODE     ---       #150
      00FFB019H   LINE      CODE     ---       #152
      00FFB02FH   LINE      CODE     ---       #153
      00FFB04AH   LINE      CODE     ---       #154
      00FFB04CH   LINE      CODE     ---       #155
      00FFB05DH   LINE      CODE     ---       #157
      00FFB073H   LINE      CODE     ---       #158
      00FFB08EH   LINE      CODE     ---       #159
      00FFB08EH   LINE      CODE     ---       #160
      00FFB09BH   LINE      CODE     ---       #161
      ---         BLOCKEND  ---      ---       LVL=0

      00FF8361H   BLOCK     CODE     ---       LVL=0
      00FF8361H   LINE      CODE     ---       #162
      00FF8361H   LINE      CODE     ---       #164
      00FF837FH   LINE      CODE     ---       #166
      00FF837FH   LINE      CODE     ---       #168
      00FF8393H   LINE      CODE     ---       #169
      00FF839FH   LINE      CODE     ---       #170
      00FF83B3H   LINE      CODE     ---       #171
      00FF83C7H   LINE      CODE     ---       #172
      00FF83DBH   LINE      CODE     ---       #173
L251 LINKER/LOCATER V4.66.93.0                                                        11/08/2025  20:32:40  PAGE 125


      00FF83EFH   LINE      CODE     ---       #174
      00FF8403H   LINE      CODE     ---       #175
      00FF8406H   LINE      CODE     ---       #176
      00FF8406H   LINE      CODE     ---       #178
      00FF841AH   LINE      CODE     ---       #179
      00FF8426H   LINE      CODE     ---       #180
      00FF843AH   LINE      CODE     ---       #181
      00FF844EH   LINE      CODE     ---       #182
      00FF8462H   LINE      CODE     ---       #183
      00FF8476H   LINE      CODE     ---       #184
      00FF848AH   LINE      CODE     ---       #185
      00FF848DH   LINE      CODE     ---       #186
      00FF848DH   LINE      CODE     ---       #188
      00FF84A1H   LINE      CODE     ---       #189
      00FF84ADH   LINE      CODE     ---       #190
      00FF84C1H   LINE      CODE     ---       #191
      00FF84D5H   LINE      CODE     ---       #192
      00FF84E9H   LINE      CODE     ---       #193
      00FF84FDH   LINE      CODE     ---       #194
      00FF8511H   LINE      CODE     ---       #195
      00FF8514H   LINE      CODE     ---       #196
      00FF8514H   LINE      CODE     ---       #198
      00FF8528H   LINE      CODE     ---       #199
      00FF8534H   LINE      CODE     ---       #200
      00FF8548H   LINE      CODE     ---       #201
      00FF855CH   LINE      CODE     ---       #202
      00FF8570H   LINE      CODE     ---       #203
      00FF8584H   LINE      CODE     ---       #204
      00FF8598H   LINE      CODE     ---       #205
      00FF8598H   LINE      CODE     ---       #206
      00FF8598H   LINE      CODE     ---       #208
      ---         BLOCKEND  ---      ---       LVL=0

      00FF9178H   BLOCK     CODE     ---       LVL=0
      00FF9178H   LINE      CODE     ---       #210
      00FF9178H   LINE      CODE     ---       #212
      00FF9193H   LINE      CODE     ---       #214
      00FF9193H   LINE      CODE     ---       #216
      00FF91A6H   LINE      CODE     ---       #217
      00FF91B9H   LINE      CODE     ---       #218
      00FF91CCH   LINE      CODE     ---       #219
      00FF91DFH   LINE      CODE     ---       #220
      00FF91F2H   LINE      CODE     ---       #221
      00FF91F5H   LINE      CODE     ---       #222
      00FF91F5H   LINE      CODE     ---       #224
      00FF9208H   LINE      CODE     ---       #225
      00FF921BH   LINE      CODE     ---       #226
      00FF922EH   LINE      CODE     ---       #227
      00FF9241H   LINE      CODE     ---       #228
      00FF9254H   LINE      CODE     ---       #229
      00FF9257H   LINE      CODE     ---       #230
      00FF9257H   LINE      CODE     ---       #232
      00FF926AH   LINE      CODE     ---       #233
      00FF927DH   LINE      CODE     ---       #234
      00FF9290H   LINE      CODE     ---       #235
      00FF92A3H   LINE      CODE     ---       #236
      00FF92B6H   LINE      CODE     ---       #237
      00FF92B8H   LINE      CODE     ---       #238
      00FF92B8H   LINE      CODE     ---       #240
      00FF92CBH   LINE      CODE     ---       #241
      00FF92DEH   LINE      CODE     ---       #242
      00FF92F1H   LINE      CODE     ---       #243
      00FF9304H   LINE      CODE     ---       #244
      00FF9317H   LINE      CODE     ---       #245
      00FF9317H   LINE      CODE     ---       #246
L251 LINKER/LOCATER V4.66.93.0                                                        11/08/2025  20:32:40  PAGE 126


      00FF9317H   LINE      CODE     ---       #247
      ---         BLOCKEND  ---      ---       LVL=0

      00FF961BH   BLOCK     CODE     ---       LVL=0
      DR24        REGSYM    ---      FLOAT     value
      DR28        REGSYM    ---      FLOAT     Pargarm
      00FF961BH   LINE      CODE     ---       #291
      00FF961FH   LINE      CODE     ---       #293
      00FF963AH   LINE      CODE     ---       #295
      00FF963AH   LINE      CODE     ---       #297
      00FF965AH   LINE      CODE     ---       #298
      00FF9678H   LINE      CODE     ---       #299
      00FF967BH   LINE      CODE     ---       #301
      00FF967BH   LINE      CODE     ---       #303
      00FF969BH   LINE      CODE     ---       #304
      00FF96B9H   LINE      CODE     ---       #305
      00FF96BCH   LINE      CODE     ---       #307
      00FF96BCH   LINE      CODE     ---       #309
      00FF96DCH   LINE      CODE     ---       #310
      00FF96FAH   LINE      CODE     ---       #311
      00FF96FCH   LINE      CODE     ---       #313
      00FF96FCH   LINE      CODE     ---       #315
      00FF971CH   LINE      CODE     ---       #316
      00FF973AH   LINE      CODE     ---       #317
      00FF973CH   LINE      CODE     ---       #319
      00FF973CH   LINE      CODE     ---       #321
      00FF9748H   LINE      CODE     ---       #322
      00FF9754H   LINE      CODE     ---       #323
      00FF9760H   LINE      CODE     ---       #324
      00FF976CH   LINE      CODE     ---       #326
      00FF976CH   LINE      CODE     ---       #327
      ---         BLOCKEND  ---      ---       LVL=0
      DR28        REGSYM    ---      FLOAT     target
      DR24        REGSYM    ---      FLOAT     step

      ---         MODULE    ---      ---       eeprom
      000000D0H   SFRSYM    DATA     BYTE      PSW
      0000009DH   SFRSYM    DATA     BYTE      IRCBAND
      00000097H   SFRSYM    DATA     BYTE      AUXR2
      000000EFH   SFRSYM    DATA     BYTE      AUXINTIF
      000000FDH   SFRSYM    DATA     BYTE      S4CON
      000000ACH   SFRSYM    DATA     BYTE      S3CON
      0000009AH   SFRSYM    DATA     BYTE      S2CON
      000000B7H   SFRSYM    DATA     BYTE      IPH
      000000CDH   SFRSYM    DATA     BYTE      SPSTAT
      000000DDH   SFRSYM    DATA     BYTE      T4T3M
      000000C1H   SFRSYM    DATA     BYTE      WDT_CONTR
      000000DFH   SFRSYM    DATA     BYTE      IP3
      000000F4H   SFRSYM    DATA     BYTE      USBCON
      000000B5H   SFRSYM    DATA     BYTE      IP2
      000000FFH   SFRSYM    DATA     BYTE      RSTCFG
      000000C7H   SFRSYM    DATA     BYTE      IAP_CONTR
      0000008EH   SFRSYM    DATA     BYTE      AUXR
      000000AFH   SFRSYM    DATA     BYTE      IE2
      00000088H   SFRSYM    DATA     BYTE      TCON
      00000089H   SFRSYM    DATA     BYTE      TMOD
      00000098H   SFRSYM    DATA     BYTE      SCON
      00000087H   SFRSYM    DATA     BYTE      PCON
      000000BCH   SFRSYM    DATA     BYTE      ADC_CONTR
      000000D1H   SFRSYM    DATA     BYTE      PSW1
      000000E7H   SFRSYM    DATA     BYTE      CMPCR2
      000000E6H   SFRSYM    DATA     BYTE      CMPCR1
      000000DEH   SFRSYM    DATA     BYTE      ADCCFG
      000000B8H   SFRSYM    DATA     BYTE      IP
      0000008FH   SFRSYM    DATA     BYTE      INTCLKO
L251 LINKER/LOCATER V4.66.93.0                                                        11/08/2025  20:32:40  PAGE 127


      000000EEH   SFRSYM    DATA     BYTE      IP3H
      000000B6H   SFRSYM    DATA     BYTE      IP2H
      000000BFH   SFRSYM    DATA     BYTE      P_SW4
      000000A8H   SFRSYM    DATA     BYTE      IE
      000000BBH   SFRSYM    DATA     BYTE      P_SW3
      000000BAH   SFRSYM    DATA     BYTE      P_SW2
      000000A2H   SFRSYM    DATA     BYTE      P_SW1
      000000CEH   SFRSYM    DATA     BYTE      SPCTL
      000000F8H   SFRSYM    DATA     BYTE      P7
      000000A8H.7 SFRSYM    DATA     BIT       EA
      000000E8H   SFRSYM    DATA     BYTE      P6
      000000C8H   SFRSYM    DATA     BYTE      P5
      000000C0H   SFRSYM    DATA     BYTE      P4
      000000ABH   SFRSYM    DATA     BYTE      WKTCH
      000000B0H   SFRSYM    DATA     BYTE      P3
      000000A0H   SFRSYM    DATA     BYTE      P2
      00000090H   SFRSYM    DATA     BYTE      P1
      00000080H   SFRSYM    DATA     BYTE      P0
      00FFE0EEH   SYMBOL    HCONST   ---       ?tpl?0001
      00FFE2EEH   SYMBOL    HCONST   ---       ?tpl?0002
      00FFE4EEH   SYMBOL    HCONST   ---       ?tpl?0003
      DR12        REGSYM    ---      DWORD     sector_start
      DR4         REGSYM    ---      DWORD     array_size
      DR4         REGSYM    ---      DWORD     sector_start
      DR28        REGSYM    ---      DWORD     addr
      REG=3       REGSYM    ---      ---       float_ptr
      R10         REGSYM    ---      BYTE      i
      DR0         REGSYM    ---      DWORD     addr
      REG=2       REGSYM    ---      ---       float_ptr

      ---         MODULE    ---      ---       function
      00FFC925H   PUBLIC    CODE     ---       CAR_STOP
      00FF00A6H   PUBLIC    CODE     ---       Servo_Init
      00FFBE22H   PUBLIC    CODE     ---       Motor_Init
      00FF5425H   PUBLIC    CODE     ---       Show_pararm
      00FFC7C2H   PUBLIC    CODE     ---       speed_control_ring
      00FFB55BH   PUBLIC    CODE     ---       unification
      00FF89F4H   PUBLIC    CODE     ---       Turn_mode_Init
      00FFC605H   PUBLIC    CODE     ---       Speed_Control
      00FFC979H   PUBLIC    CODE     ---       GO_Function
      00FFBA79H   PUBLIC    CODE     ---       init_all
      00FFADFBH   PUBLIC    CODE     ---       Servo_Control
      00FFAD48H   PUBLIC    CODE     ---       fast_sqrt
      00FFC514H   PUBLIC    CODE     ---       Protect
      00FF0026H   PUBLIC    CODE     ---       enconder_init
      00FFC70DH   PUBLIC    CODE     ---       show_test_info
      000115FAH   PUBLIC    XDATA    BYTE      Key_Flag
      000115FBH   PUBLIC    XDATA    INT       T3
      000115FDH   PUBLIC    XDATA    INT       encoder_data_dir_1
      000115FFH   PUBLIC    XDATA    INT       encoder_data_dir_2
      00011601H   PUBLIC    XDATA    BYTE      GO_PID_Control
      00011602H   PUBLIC    XDATA    BYTE      Init_Fg
      00011603H   PUBLIC    XDATA    BYTE      ADC_Show_Flag
      00011604H   PUBLIC    XDATA    BYTE      GO_PID_Control1
      00011605H   PUBLIC    XDATA    BYTE      GO_PID_Control2
      00011606H   PUBLIC    XDATA    ---       M_Right_pid
      00011632H   PUBLIC    XDATA    BYTE      GO_PID_Control3
      00011633H   PUBLIC    XDATA    ---       servo_pid
      0001165FH   PUBLIC    XDATA    INT       Speed_Mode
      00011661H   PUBLIC    XDATA    INT       Set_T
      00011663H   PUBLIC    XDATA    INT       Last_dajiao
      00011665H   PUBLIC    XDATA    BYTE      Protect_flag
      00011666H   PUBLIC    XDATA    INT       dajiao
      00011668H   PUBLIC    XDATA    BYTE      Servo_Flag
      00011669H   PUBLIC    XDATA    ---       M_left_pid
L251 LINKER/LOCATER V4.66.93.0                                                        11/08/2025  20:32:40  PAGE 128


      000000D0H   SFRSYM    DATA     BYTE      PSW
      0000009DH   SFRSYM    DATA     BYTE      IRCBAND
      00000097H   SFRSYM    DATA     BYTE      AUXR2
      000000EFH   SFRSYM    DATA     BYTE      AUXINTIF
      000000FDH   SFRSYM    DATA     BYTE      S4CON
      000000ACH   SFRSYM    DATA     BYTE      S3CON
      0000009AH   SFRSYM    DATA     BYTE      S2CON
      000000B7H   SFRSYM    DATA     BYTE      IPH
      000000CDH   SFRSYM    DATA     BYTE      SPSTAT
      000000DDH   SFRSYM    DATA     BYTE      T4T3M
      000000C1H   SFRSYM    DATA     BYTE      WDT_CONTR
      000000DFH   SFRSYM    DATA     BYTE      IP3
      000000F4H   SFRSYM    DATA     BYTE      USBCON
      000000B5H   SFRSYM    DATA     BYTE      IP2
      000000FFH   SFRSYM    DATA     BYTE      RSTCFG
      000000C7H   SFRSYM    DATA     BYTE      IAP_CONTR
      0000008EH   SFRSYM    DATA     BYTE      AUXR
      000000AFH   SFRSYM    DATA     BYTE      IE2
      00000088H   SFRSYM    DATA     BYTE      TCON
      00000089H   SFRSYM    DATA     BYTE      TMOD
      00000098H   SFRSYM    DATA     BYTE      SCON
      00000087H   SFRSYM    DATA     BYTE      PCON
      000000BCH   SFRSYM    DATA     BYTE      ADC_CONTR
      000000D1H   SFRSYM    DATA     BYTE      PSW1
      000000E7H   SFRSYM    DATA     BYTE      CMPCR2
      000000E6H   SFRSYM    DATA     BYTE      CMPCR1
      000000DEH   SFRSYM    DATA     BYTE      ADCCFG
      000000B8H   SFRSYM    DATA     BYTE      IP
      0000008FH   SFRSYM    DATA     BYTE      INTCLKO
      000000EEH   SFRSYM    DATA     BYTE      IP3H
      000000B6H   SFRSYM    DATA     BYTE      IP2H
      000000BFH   SFRSYM    DATA     BYTE      P_SW4
      000000A8H   SFRSYM    DATA     BYTE      IE
      000000BBH   SFRSYM    DATA     BYTE      P_SW3
      000000BAH   SFRSYM    DATA     BYTE      P_SW2
      000000A2H   SFRSYM    DATA     BYTE      P_SW1
      000000CEH   SFRSYM    DATA     BYTE      SPCTL
      000000F8H   SFRSYM    DATA     BYTE      P7
      000000A8H.7 SFRSYM    DATA     BIT       EA
      000000E8H   SFRSYM    DATA     BYTE      P6
      000000C8H   SFRSYM    DATA     BYTE      P5
      000000C0H   SFRSYM    DATA     BYTE      P4
      000000ABH   SFRSYM    DATA     BYTE      WKTCH
      000000B0H   SFRSYM    DATA     BYTE      P3
      000000A0H   SFRSYM    DATA     BYTE      P2
      00000090H   SFRSYM    DATA     BYTE      P1
      00000080H   SFRSYM    DATA     BYTE      P0
      REG=6       REGSYM    ---      ---       PID
      DR28        REGSYM    ---      FLOAT     NowData

      00FFB55BH   BLOCK     CODE     ---       LVL=0
      00FFB55DH   BLOCK     CODE     NEAR LAB  LVL=1
      00011695H   SYMBOL    XDATA    INT       left_1
      WR6         REGSYM    ---      INT       left_2
      WR10        REGSYM    ---      INT       right_2
      WR2         REGSYM    ---      INT       right_1
      00011697H   SYMBOL    XDATA    LONG      he
      ---         BLOCKEND  ---      ---       LVL=1
      00FFB55BH   LINE      CODE     ---       #46
      00FFB55DH   LINE      CODE     ---       #47
      00FFB55DH   LINE      CODE     ---       #48
      00FFB569H   LINE      CODE     ---       #49
      00FFB56FH   LINE      CODE     ---       #50
      00FFB575H   LINE      CODE     ---       #51
      00FFB57BH   LINE      CODE     ---       #53
L251 LINKER/LOCATER V4.66.93.0                                                        11/08/2025  20:32:40  PAGE 129


      00FFB58FH   LINE      CODE     ---       #54
      00FFB5A3H   LINE      CODE     ---       #55
      00FFB5E3H   LINE      CODE     ---       #56
      ---         BLOCKEND  ---      ---       LVL=0

      00FFAD48H   BLOCK     CODE     ---       LVL=0
      DR12        REGSYM    ---      FLOAT     number
      00FFAD4CH   BLOCK     CODE     NEAR LAB  LVL=1
      0001169BH   SYMBOL    XDATA    DWORD     i
      0001169FH   SYMBOL    XDATA    FLOAT     x
      ---         BLOCKEND  ---      ---       LVL=1
      00FFAD48H   LINE      CODE     ---       #58
      00FFAD4CH   LINE      CODE     ---       #59
      00FFAD4CH   LINE      CODE     ---       #61
      00FFAD56H   LINE      CODE     ---       #63
      00FFAD64H   LINE      CODE     ---       #65
      00FFAD7FH   LINE      CODE     ---       #67
      00FFADA4H   LINE      CODE     ---       #69
      00FFADBFH   LINE      CODE     ---       #71
      00FFADEEH   LINE      CODE     ---       #72
      00FFADF8H   LINE      CODE     ---       #73
      ---         BLOCKEND  ---      ---       LVL=0

      00FFBE22H   BLOCK     CODE     ---       LVL=0
      00FFBE22H   LINE      CODE     ---       #75
      00FFBE22H   LINE      CODE     ---       #78
      00FFBE39H   LINE      CODE     ---       #79
      00FFBE50H   LINE      CODE     ---       #80
      00FFBE67H   LINE      CODE     ---       #81
      00FFBE7EH   LINE      CODE     ---       #82
      ---         BLOCKEND  ---      ---       LVL=0

      00FF00A6H   BLOCK     CODE     ---       LVL=0
      00FF00A6H   LINE      CODE     ---       #85
      00FF00A6H   LINE      CODE     ---       #87
      00FF00BFH   LINE      CODE     ---       #88
      ---         BLOCKEND  ---      ---       LVL=0

      00FFC925H   BLOCK     CODE     ---       LVL=0
      00FFC925H   LINE      CODE     ---       #89
      00FFC925H   LINE      CODE     ---       #91
      00FFC92AH   LINE      CODE     ---       #92
      00FFC92FH   LINE      CODE     ---       #93
      00FFC936H   LINE      CODE     ---       #94
      ---         BLOCKEND  ---      ---       LVL=0

      00FFC514H   BLOCK     CODE     ---       LVL=0
      00FFC514H   LINE      CODE     ---       #97
      00FFC514H   LINE      CODE     ---       #99
      00FFC51AH   LINE      CODE     ---       #101
      00FFC54BH   LINE      CODE     ---       #103
      00FFC551H   LINE      CODE     ---       #104
      00FFC551H   LINE      CODE     ---       #106
      ---         BLOCKEND  ---      ---       LVL=0

      00FFBA79H   BLOCK     CODE     ---       LVL=0
      00FFBA79H   LINE      CODE     ---       #108
      00FFBA79H   LINE      CODE     ---       #110
      00FFBA7BH   LINE      CODE     ---       #112
      00FFBA82H   LINE      CODE     ---       #113
      00FFBA85H   LINE      CODE     ---       #114
      00FFBA88H   LINE      CODE     ---       #116
      00FFBA91H   LINE      CODE     ---       #117
      00FFBA98H   LINE      CODE     ---       #118
      00FFBA9BH   LINE      CODE     ---       #119
L251 LINKER/LOCATER V4.66.93.0                                                        11/08/2025  20:32:40  PAGE 130


      00FFBA9EH   LINE      CODE     ---       #120
      00FFBAA1H   LINE      CODE     ---       #121
      00FFBAA4H   LINE      CODE     ---       #124
      00FFBAA7H   LINE      CODE     ---       #125
      00FFBAAAH   LINE      CODE     ---       #126
      00FFBAB1H   LINE      CODE     ---       #127
      00FFBABCH   LINE      CODE     ---       #129
      00FFBABFH   LINE      CODE     ---       #130
      00FFBAC6H   LINE      CODE     ---       #132
      00FFBAEBH   LINE      CODE     ---       #134
      00FFBAEDH   LINE      CODE     ---       #136
      ---         BLOCKEND  ---      ---       LVL=0

      00FFC70DH   BLOCK     CODE     ---       LVL=0
      REG=3       REGSYM    ---      ---       info
      00FFC70DH   LINE      CODE     ---       #137
      00FFC711H   LINE      CODE     ---       #139
      00FFC718H   LINE      CODE     ---       #140
      00FFC71FH   LINE      CODE     ---       #141
      00FFC72AH   LINE      CODE     ---       #142
      00FFC731H   LINE      CODE     ---       #143
      00FFC738H   LINE      CODE     ---       #145
      ---         BLOCKEND  ---      ---       LVL=0

      00FF89F4H   BLOCK     CODE     ---       LVL=0
      00FF89F4H   LINE      CODE     ---       #147
      00FF89F4H   LINE      CODE     ---       #149
      00FF89F6H   LINE      CODE     ---       #150
      00FF8A25H   LINE      CODE     ---       #152
      00FF8A25H   LINE      CODE     ---       #154
      00FF8A28H   LINE      CODE     ---       #155
      00FF8A2BH   LINE      CODE     ---       #156
      00FF8A30H   LINE      CODE     ---       #157
      00FF8A36H   LINE      CODE     ---       #159
      00FF8A3BH   LINE      CODE     ---       #160
      00FF8A46H   LINE      CODE     ---       #161
      00FF8A49H   LINE      CODE     ---       #162
      00FF8A4CH   LINE      CODE     ---       #163
      00FF8A4FH   LINE      CODE     ---       #164
      00FF8A52H   LINE      CODE     ---       #165
      00FF8A57H   LINE      CODE     ---       #166
      00FF8A5CH   LINE      CODE     ---       #167
      00FF8A61H   LINE      CODE     ---       #168
      00FF8A66H   LINE      CODE     ---       #171
      00FF8A72H   LINE      CODE     ---       #172
      00FF8A7EH   LINE      CODE     ---       #173
      00FF8A86H   LINE      CODE     ---       #174
      00FF8A8EH   LINE      CODE     ---       #175
      00FF8A93H   LINE      CODE     ---       #176
      00FF8A9BH   LINE      CODE     ---       #177
      00FF8AA0H   LINE      CODE     ---       #180
      00FF8AA3H   LINE      CODE     ---       #182
      00FF8AA3H   LINE      CODE     ---       #184
      00FF8AA8H   LINE      CODE     ---       #185
      00FF8AADH   LINE      CODE     ---       #187
      00FF8AC0H   LINE      CODE     ---       #188
      00FF8AC6H   LINE      CODE     ---       #190
      00FF8AD1H   LINE      CODE     ---       #191
      00FF8AD7H   LINE      CODE     ---       #193
      00FF8ADAH   LINE      CODE     ---       #194
      00FF8ADDH   LINE      CODE     ---       #195
      00FF8AE0H   LINE      CODE     ---       #197
      00FF8AE0H   LINE      CODE     ---       #199
      00FF8AE5H   LINE      CODE     ---       #200
      00FF8AEAH   LINE      CODE     ---       #202
L251 LINKER/LOCATER V4.66.93.0                                                        11/08/2025  20:32:40  PAGE 131


      00FF8AFDH   LINE      CODE     ---       #203
      00FF8B03H   LINE      CODE     ---       #205
      00FF8B0EH   LINE      CODE     ---       #206
      00FF8B14H   LINE      CODE     ---       #208
      00FF8B17H   LINE      CODE     ---       #209
      00FF8B1AH   LINE      CODE     ---       #210
      00FF8B1DH   LINE      CODE     ---       #212
      00FF8B1DH   LINE      CODE     ---       #214
      00FF8B22H   LINE      CODE     ---       #215
      00FF8B27H   LINE      CODE     ---       #217
      00FF8B3AH   LINE      CODE     ---       #218
      00FF8B40H   LINE      CODE     ---       #219
      00FF8B4BH   LINE      CODE     ---       #220
      00FF8B51H   LINE      CODE     ---       #222
      00FF8B54H   LINE      CODE     ---       #223
      00FF8B57H   LINE      CODE     ---       #224
      00FF8B5AH   LINE      CODE     ---       #226
      00FF8B5AH   LINE      CODE     ---       #228
      00FF8B5FH   LINE      CODE     ---       #229
      00FF8B64H   LINE      CODE     ---       #231
      00FF8B77H   LINE      CODE     ---       #232
      00FF8B7DH   LINE      CODE     ---       #233
      00FF8B88H   LINE      CODE     ---       #234
      00FF8B8EH   LINE      CODE     ---       #237
      00FF8B91H   LINE      CODE     ---       #238
      00FF8B94H   LINE      CODE     ---       #239
      00FF8B96H   LINE      CODE     ---       #241
      00FF8B96H   LINE      CODE     ---       #243
      00FF8B9CH   LINE      CODE     ---       #244
      00FF8BA1H   LINE      CODE     ---       #245
      00FF8BACH   LINE      CODE     ---       #246
      00FF8BAEH   LINE      CODE     ---       #248
      00FF8BAEH   LINE      CODE     ---       #250
      00FF8BB4H   LINE      CODE     ---       #251
      00FF8BB9H   LINE      CODE     ---       #252
      00FF8BC4H   LINE      CODE     ---       #253
      00FF8BC6H   LINE      CODE     ---       #255
      00FF8BC6H   LINE      CODE     ---       #257
      00FF8BCCH   LINE      CODE     ---       #258
      00FF8BD2H   LINE      CODE     ---       #259
      00FF8BD8H   LINE      CODE     ---       #260
      00FF8BE3H   LINE      CODE     ---       #261
      00FF8BE5H   LINE      CODE     ---       #263
      00FF8BE5H   LINE      CODE     ---       #265
      00FF8BEBH   LINE      CODE     ---       #266
      00FF8BF0H   LINE      CODE     ---       #267
      00FF8BFBH   LINE      CODE     ---       #268
      00FF8BFBH   LINE      CODE     ---       #270
      00FF8BFBH   LINE      CODE     ---       #272
      00FF8BFDH   LINE      CODE     ---       #273
      ---         BLOCKEND  ---      ---       LVL=0

      00FF5425H   BLOCK     CODE     ---       LVL=0
      00FF5425H   LINE      CODE     ---       #275
      00FF5425H   LINE      CODE     ---       #277
      00FF544FH   LINE      CODE     ---       #279
      00FF544FH   LINE      CODE     ---       #280
      00FF544FH   LINE      CODE     ---       #282
      00FF548FH   LINE      CODE     ---       #283
      00FF54CFH   LINE      CODE     ---       #284
      00FF54D2H   LINE      CODE     ---       #285
      00FF54D2H   LINE      CODE     ---       #296
      00FF54D2H   LINE      CODE     ---       #297
      00FF54D2H   LINE      CODE     ---       #298
      00FF54D2H   LINE      CODE     ---       #300
L251 LINKER/LOCATER V4.66.93.0                                                        11/08/2025  20:32:40  PAGE 132


      00FF5510H   LINE      CODE     ---       #301
      00FF554DH   LINE      CODE     ---       #302
      00FF558DH   LINE      CODE     ---       #303
      00FF55CDH   LINE      CODE     ---       #304
      00FF560AH   LINE      CODE     ---       #305
      00FF560DH   LINE      CODE     ---       #306
      00FF560DH   LINE      CODE     ---       #308
      00FF564BH   LINE      CODE     ---       #309
      00FF5688H   LINE      CODE     ---       #310
      00FF56C8H   LINE      CODE     ---       #311
      00FF5708H   LINE      CODE     ---       #312
      00FF5745H   LINE      CODE     ---       #313
      00FF5748H   LINE      CODE     ---       #314
      00FF5748H   LINE      CODE     ---       #316
      00FF5785H   LINE      CODE     ---       #317
      00FF57C5H   LINE      CODE     ---       #318
      00FF5805H   LINE      CODE     ---       #319
      00FF5842H   LINE      CODE     ---       #320
      00FF5845H   LINE      CODE     ---       #321
      00FF5845H   LINE      CODE     ---       #323
      00FF5863H   LINE      CODE     ---       #324
      00FF5885H   LINE      CODE     ---       #325
      00FF58A7H   LINE      CODE     ---       #326
      00FF58C9H   LINE      CODE     ---       #327
      00FF58EBH   LINE      CODE     ---       #328
      00FF590DH   LINE      CODE     ---       #329
      00FF5940H   LINE      CODE     ---       #333
      00FF5942H   LINE      CODE     ---       #334
      00FF5942H   LINE      CODE     ---       #336
      00FF5971H   LINE      CODE     ---       #337
      00FF5971H   LINE      CODE     ---       #338
      00FF5971H   LINE      CODE     ---       #340
      ---         BLOCKEND  ---      ---       LVL=0

      00FFC979H   BLOCK     CODE     ---       LVL=0
      00FFC979H   LINE      CODE     ---       #350
      00FFC979H   LINE      CODE     ---       #352
      00FFC980H   LINE      CODE     ---       #354
      00FFC983H   LINE      CODE     ---       #355
      00FFC988H   LINE      CODE     ---       #356
      ---         BLOCKEND  ---      ---       LVL=0

      00FF0026H   BLOCK     CODE     ---       LVL=0
      00FF0026H   LINE      CODE     ---       #359
      00FF0026H   LINE      CODE     ---       #361
      00FF0033H   LINE      CODE     ---       #362
      00FF0042H   LINE      CODE     ---       #363
      ---         BLOCKEND  ---      ---       LVL=0

      00FFC7C2H   BLOCK     CODE     ---       LVL=0
      00FFC7C2H   LINE      CODE     ---       #364
      00FFC7C2H   LINE      CODE     ---       #366
      00FFC7D3H   LINE      CODE     ---       #367
      00FFC7E0H   LINE      CODE     ---       #368
      00FFC7E5H   LINE      CODE     ---       #369
      00FFC7ECH   LINE      CODE     ---       #370
      ---         BLOCKEND  ---      ---       LVL=0

      00FFC605H   BLOCK     CODE     ---       LVL=0
      00FFC605H   LINE      CODE     ---       #372
      00FFC605H   LINE      CODE     ---       #374
      00FFC621H   LINE      CODE     ---       #375
      00FFC63DH   LINE      CODE     ---       #376
      ---         BLOCKEND  ---      ---       LVL=0

L251 LINKER/LOCATER V4.66.93.0                                                        11/08/2025  20:32:40  PAGE 133


      00FFADFBH   BLOCK     CODE     ---       LVL=0
      00FFADFBH   LINE      CODE     ---       #378
      00FFADFBH   LINE      CODE     ---       #380
      00FFAE01H   LINE      CODE     ---       #382
      00FFAE0DH   LINE      CODE     ---       #384
      00FFAE22H   LINE      CODE     ---       #385
      00FFAE25H   LINE      CODE     ---       #386
      00FFAE31H   LINE      CODE     ---       #388
      00FFAE48H   LINE      CODE     ---       #389
      00FFAE4AH   LINE      CODE     ---       #392
      00FFAE77H   LINE      CODE     ---       #394
      00FFAE77H   LINE      CODE     ---       #395
      00FFAE79H   LINE      CODE     ---       #398
      00FFAEA6H   LINE      CODE     ---       #400
      00FFAEA6H   LINE      CODE     ---       #401
      ---         BLOCKEND  ---      ---       LVL=0

      ---         MODULE    ---      ---       Key
      00FF9ECCH   PUBLIC    CODE     ---       Key_scaner
      00FFAB1FH   PUBLIC    CODE     ---       Turn_mode
      00FFC291H   PUBLIC    CODE     ---       Key_Number
      00011937H   PUBLIC    XDATA    BYTE      State
      00011938H   PUBLIC    XDATA    INT       Trigg_time
      0001193AH   PUBLIC    XDATA    INT       Press_time
      0001193CH   PUBLIC    XDATA    BYTE      Key_count
      0001193DH   PUBLIC    XDATA    WORD      Time_dou
      0001193FH   PUBLIC    XDATA    BYTE      keynumber
      00011940H   PUBLIC    XDATA    BYTE      last_keynumber
      00011941H   PUBLIC    XDATA    BYTE      Init_Flag
      00FFF093H   PUBLIC    HCONST   ---       mode_map
      000000D0H   SFRSYM    DATA     BYTE      PSW
      0000009DH   SFRSYM    DATA     BYTE      IRCBAND
      00000097H   SFRSYM    DATA     BYTE      AUXR2
      000000EFH   SFRSYM    DATA     BYTE      AUXINTIF
      000000FDH   SFRSYM    DATA     BYTE      S4CON
      000000ACH   SFRSYM    DATA     BYTE      S3CON
      0000009AH   SFRSYM    DATA     BYTE      S2CON
      000000B7H   SFRSYM    DATA     BYTE      IPH
      000000CDH   SFRSYM    DATA     BYTE      SPSTAT
      000000DDH   SFRSYM    DATA     BYTE      T4T3M
      000000C1H   SFRSYM    DATA     BYTE      WDT_CONTR
      000000DFH   SFRSYM    DATA     BYTE      IP3
      000000F4H   SFRSYM    DATA     BYTE      USBCON
      000000B5H   SFRSYM    DATA     BYTE      IP2
      000000FFH   SFRSYM    DATA     BYTE      RSTCFG
      000000C7H   SFRSYM    DATA     BYTE      IAP_CONTR
      0000008EH   SFRSYM    DATA     BYTE      AUXR
      000000AFH   SFRSYM    DATA     BYTE      IE2
      00000088H   SFRSYM    DATA     BYTE      TCON
      00000089H   SFRSYM    DATA     BYTE      TMOD
      00000098H   SFRSYM    DATA     BYTE      SCON
      00000087H   SFRSYM    DATA     BYTE      PCON
      000000BCH   SFRSYM    DATA     BYTE      ADC_CONTR
      000000D1H   SFRSYM    DATA     BYTE      PSW1
      000000E7H   SFRSYM    DATA     BYTE      CMPCR2
      000000E6H   SFRSYM    DATA     BYTE      CMPCR1
      000000DEH   SFRSYM    DATA     BYTE      ADCCFG
      000000B8H   SFRSYM    DATA     BYTE      IP
      0000008FH   SFRSYM    DATA     BYTE      INTCLKO
      000000EEH   SFRSYM    DATA     BYTE      IP3H
      000000B6H   SFRSYM    DATA     BYTE      IP2H
      000000BFH   SFRSYM    DATA     BYTE      P_SW4
      000000A8H   SFRSYM    DATA     BYTE      IE
      000000BBH   SFRSYM    DATA     BYTE      P_SW3
      000000BAH   SFRSYM    DATA     BYTE      P_SW2
L251 LINKER/LOCATER V4.66.93.0                                                        11/08/2025  20:32:40  PAGE 134


      000000A2H   SFRSYM    DATA     BYTE      P_SW1
      000000CEH   SFRSYM    DATA     BYTE      SPCTL
      000000F8H   SFRSYM    DATA     BYTE      P7
      000000E8H   SFRSYM    DATA     BYTE      P6
      000000C8H   SFRSYM    DATA     BYTE      P5
      000000C0H   SFRSYM    DATA     BYTE      P4
      000000ABH   SFRSYM    DATA     BYTE      WKTCH
      000000B0H   SFRSYM    DATA     BYTE      P3
      000000A0H   SFRSYM    DATA     BYTE      P2
      00000090H   SFRSYM    DATA     BYTE      P1
      00000080H   SFRSYM    DATA     BYTE      P0

      00FFC291H   BLOCK     CODE     ---       LVL=0
      00FFC293H   BLOCK     CODE     NEAR LAB  LVL=1
      R15         REGSYM    ---      BYTE      KeyNumber
      ---         BLOCKEND  ---      ---       LVL=1
      00FFC291H   LINE      CODE     ---       #26
      00FFC293H   LINE      CODE     ---       #27
      00FFC293H   LINE      CODE     ---       #28
      00FFC295H   LINE      CODE     ---       #35
      00FFC2A1H   LINE      CODE     ---       #36
      00FFC2ADH   LINE      CODE     ---       #37
      00FFC2B9H   LINE      CODE     ---       #38
      00FFC2C5H   LINE      CODE     ---       #39
      00FFC2D1H   LINE      CODE     ---       #47
      00FFC2D3H   LINE      CODE     ---       #48
      ---         BLOCKEND  ---      ---       LVL=0

      00FFAB1FH   BLOCK     CODE     ---       LVL=0
      WR8         REGSYM    ---      INT       i
      00FFAB1FH   LINE      CODE     ---       #49
      00FFAB1FH   LINE      CODE     ---       #50
      00FFAB1FH   LINE      CODE     ---       #52
      00FFAB24H   LINE      CODE     ---       #54
      00FFAB54H   LINE      CODE     ---       #56
      00FFAB8BH   LINE      CODE     ---       #57
      00FFABC6H   LINE      CODE     ---       #58
      00FFABCCH   LINE      CODE     ---       #59
      00FFABCEH   LINE      CODE     ---       #60
      00FFABCEH   LINE      CODE     ---       #62
      00FFABD9H   LINE      CODE     ---       #63
      ---         BLOCKEND  ---      ---       LVL=0

      00FF9ECCH   BLOCK     CODE     ---       LVL=0
      00FF9ECCH   LINE      CODE     ---       #64
      00FF9ECCH   LINE      CODE     ---       #66
      00FF9ED3H   LINE      CODE     ---       #67
      00FF9EEAH   LINE      CODE     ---       #69
      00FF9EEAH   LINE      CODE     ---       #71
      00FF9EF3H   LINE      CODE     ---       #73
      00FF9EF9H   LINE      CODE     ---       #74
      00FF9EFEH   LINE      CODE     ---       #75
      00FF9EFEH   LINE      CODE     ---       #76
      00FF9F01H   LINE      CODE     ---       #78
      00FF9F01H   LINE      CODE     ---       #80
      00FF9F07H   LINE      CODE     ---       #82
      00FF9F0CH   LINE      CODE     ---       #83
      00FF9F0FH   LINE      CODE     ---       #86
      00FF9F15H   LINE      CODE     ---       #87
      00FF9F28H   LINE      CODE     ---       #89
      00FF9F2EH   LINE      CODE     ---       #90
      00FF9F36H   LINE      CODE     ---       #92
      00FF9F36H   LINE      CODE     ---       #94
      00FF9F39H   LINE      CODE     ---       #96
      00FF9F39H   LINE      CODE     ---       #98
L251 LINKER/LOCATER V4.66.93.0                                                        11/08/2025  20:32:40  PAGE 135


      00FF9F3FH   LINE      CODE     ---       #101
      00FF9F45H   LINE      CODE     ---       #102
      00FF9F4AH   LINE      CODE     ---       #103
      00FF9F52H   LINE      CODE     ---       #104
      00FF9F55H   LINE      CODE     ---       #107
      00FF9F60H   LINE      CODE     ---       #108
      00FF9F6CH   LINE      CODE     ---       #110
      00FF9F77H   LINE      CODE     ---       #111
      00FF9F7EH   LINE      CODE     ---       #113
      00FF9F81H   LINE      CODE     ---       #114
      00FF9F87H   LINE      CODE     ---       #115
      00FF9F8FH   LINE      CODE     ---       #116
      00FF9F94H   LINE      CODE     ---       #117
      00FF9F96H   LINE      CODE     ---       #118
      00FF9FA2H   LINE      CODE     ---       #120
      00FF9FAAH   LINE      CODE     ---       #121
      00FF9FB2H   LINE      CODE     ---       #123
      00FF9FB2H   LINE      CODE     ---       #125
      00FF9FB2H   LINE      CODE     ---       #126
      00FF9FB4H   LINE      CODE     ---       #128
      00FF9FB4H   LINE      CODE     ---       #130
      00FF9FBAH   LINE      CODE     ---       #132
      00FF9FC0H   LINE      CODE     ---       #133
      00FF9FD0H   LINE      CODE     ---       #135
      00FF9FD5H   LINE      CODE     ---       #136
      00FF9FDDH   LINE      CODE     ---       #137
      00FF9FDFH   LINE      CODE     ---       #141
      00FF9FE5H   LINE      CODE     ---       #142
      00FF9FE5H   LINE      CODE     ---       #143
      00FF9FE5H   LINE      CODE     ---       #145
      00FF9FE5H   LINE      CODE     ---       #146
      ---         BLOCKEND  ---      ---       LVL=0

      ---         MODULE    ---      ---       menu
      00FFBA02H   PUBLIC    CODE     ---       Show_bujin
      00FFB90DH   PUBLIC    CODE     ---       menu_Init
      00FFC73BH   PUBLIC    CODE     ---       menu_handle_key
      00FFA572H   PUBLIC    CODE     ---       handle_key1
      00FFC31AH   PUBLIC    CODE     ---       handle_key2
      00FFC086H   PUBLIC    CODE     ---       handle_key3
      00FFA99CH   PUBLIC    CODE     ---       handle_key4
      00FFC89AH   PUBLIC    CODE     ---       handle_key5
      00FFA7FEH   PUBLIC    CODE     ---       Menu_SetChildren
      00FF01AEH   PUBLIC    CODE     ---       Key3_handle1
      00FFA8CEH   PUBLIC    CODE     ---       Key3_handle2
      00FFB809H   PUBLIC    CODE     ---       Refesh_arrow
      00FF9B42H   PUBLIC    CODE     ---       menu_display_content
      00FFC937H   PUBLIC    CODE     ---       show_all_menu
      00011906H   PUBLIC    XDATA    BYTE      Show_image_mode
      00011907H   PUBLIC    XDATA    FLOAT     bujin
      0001190BH   PUBLIC    XDATA    CHAR      mode
      0001190CH   PUBLIC    XDATA    BYTE      Key
      0001190DH   PUBLIC    XDATA    CHAR      Start_Show_Row
      0001190EH   PUBLIC    XDATA    CHAR      i
      0001190FH   PUBLIC    XDATA    CHAR      j
      00011910H   PUBLIC    XDATA    CHAR      Key3_count
      00011911H   PUBLIC    XDATA    BYTE      Save_Flag
      00011912H   PUBLIC    XDATA    CHAR      Flag
      000000D0H   SFRSYM    DATA     BYTE      PSW
      0000009DH   SFRSYM    DATA     BYTE      IRCBAND
      00000097H   SFRSYM    DATA     BYTE      AUXR2
      000000EFH   SFRSYM    DATA     BYTE      AUXINTIF
      000000FDH   SFRSYM    DATA     BYTE      S4CON
      000000ACH   SFRSYM    DATA     BYTE      S3CON
      0000009AH   SFRSYM    DATA     BYTE      S2CON
L251 LINKER/LOCATER V4.66.93.0                                                        11/08/2025  20:32:40  PAGE 136


      000000B7H   SFRSYM    DATA     BYTE      IPH
      000000CDH   SFRSYM    DATA     BYTE      SPSTAT
      000000DDH   SFRSYM    DATA     BYTE      T4T3M
      000000C1H   SFRSYM    DATA     BYTE      WDT_CONTR
      000000DFH   SFRSYM    DATA     BYTE      IP3
      000000F4H   SFRSYM    DATA     BYTE      USBCON
      000000B5H   SFRSYM    DATA     BYTE      IP2
      000000FFH   SFRSYM    DATA     BYTE      RSTCFG
      000000C7H   SFRSYM    DATA     BYTE      IAP_CONTR
      0000008EH   SFRSYM    DATA     BYTE      AUXR
      000000AFH   SFRSYM    DATA     BYTE      IE2
      00000088H   SFRSYM    DATA     BYTE      TCON
      00000089H   SFRSYM    DATA     BYTE      TMOD
      00000098H   SFRSYM    DATA     BYTE      SCON
      00000087H   SFRSYM    DATA     BYTE      PCON
      000000BCH   SFRSYM    DATA     BYTE      ADC_CONTR
      000000D1H   SFRSYM    DATA     BYTE      PSW1
      000000E7H   SFRSYM    DATA     BYTE      CMPCR2
      000000E6H   SFRSYM    DATA     BYTE      CMPCR1
      000000DEH   SFRSYM    DATA     BYTE      ADCCFG
      000000B8H   SFRSYM    DATA     BYTE      IP
      0000008FH   SFRSYM    DATA     BYTE      INTCLKO
      000000EEH   SFRSYM    DATA     BYTE      IP3H
      000000B6H   SFRSYM    DATA     BYTE      IP2H
      000000BFH   SFRSYM    DATA     BYTE      P_SW4
      000000A8H   SFRSYM    DATA     BYTE      IE
      000000BBH   SFRSYM    DATA     BYTE      P_SW3
      000000BAH   SFRSYM    DATA     BYTE      P_SW2
      000000A2H   SFRSYM    DATA     BYTE      P_SW1
      000000CEH   SFRSYM    DATA     BYTE      SPCTL
      000000F8H   SFRSYM    DATA     BYTE      P7
      000000E8H   SFRSYM    DATA     BYTE      P6
      000000C8H   SFRSYM    DATA     BYTE      P5
      000000C0H   SFRSYM    DATA     BYTE      P4
      000000ABH   SFRSYM    DATA     BYTE      WKTCH
      000000B0H   SFRSYM    DATA     BYTE      P3
      000000A0H   SFRSYM    DATA     BYTE      P2
      00000090H   SFRSYM    DATA     BYTE      P1
      00000080H   SFRSYM    DATA     BYTE      P0

      00FFA7FEH   BLOCK     CODE     ---       LVL=0
      REG=6       REGSYM    ---      ---       parent
      REG=7       REGSYM    ---      ---       child_indices
      00FFA7FEH   LINE      CODE     ---       #19
      00FFA802H   LINE      CODE     ---       #22
      00FFA809H   LINE      CODE     ---       #23
      00FFA821H   LINE      CODE     ---       #24
      00FFA830H   LINE      CODE     ---       #27
      00FFA837H   LINE      CODE     ---       #29
      00FFA85BH   LINE      CODE     ---       #31
      00FFA88BH   LINE      CODE     ---       #32
      00FFA8A9H   LINE      CODE     ---       #33
      00FFA8CDH   LINE      CODE     ---       #36
      ---         BLOCKEND  ---      ---       LVL=0

      00FFB809H   BLOCK     CODE     ---       LVL=0
      00FFB809H   LINE      CODE     ---       #38
      00FFB809H   LINE      CODE     ---       #40
      00FFB80FH   LINE      CODE     ---       #42
      00FFB818H   LINE      CODE     ---       #44
      00FFB837H   LINE      CODE     ---       #45
      00FFB839H   LINE      CODE     ---       #48
      00FFB84CH   LINE      CODE     ---       #49
      00FFB84CH   LINE      CODE     ---       #50
      00FFB84EH   LINE      CODE     ---       #53
L251 LINKER/LOCATER V4.66.93.0                                                        11/08/2025  20:32:40  PAGE 137


      00FFB857H   LINE      CODE     ---       #55
      00FFB876H   LINE      CODE     ---       #56
      00FFB878H   LINE      CODE     ---       #59
      00FFB88BH   LINE      CODE     ---       #60
      00FFB88BH   LINE      CODE     ---       #61
      00FFB88BH   LINE      CODE     ---       #62
      ---         BLOCKEND  ---      ---       LVL=0

      00FF9B42H   BLOCK     CODE     ---       LVL=0
      00FF9B42H   LINE      CODE     ---       #64
      00FF9B42H   LINE      CODE     ---       #66
      00FF9B4AH   LINE      CODE     ---       #68
      00FF9B7FH   LINE      CODE     ---       #69
      00FF9BFEH   LINE      CODE     ---       #71
      00FF9C64H   LINE      CODE     ---       #72
      00FF9C76H   LINE      CODE     ---       #74
      ---         BLOCKEND  ---      ---       LVL=0

      00FFBA02H   BLOCK     CODE     ---       LVL=0
      00FFBA02H   LINE      CODE     ---       #75
      00FFBA02H   LINE      CODE     ---       #77
      00FFBA2EH   LINE      CODE     ---       #79
      00FFBA41H   LINE      CODE     ---       #80
      00FFBA54H   LINE      CODE     ---       #81
      00FFBA67H   LINE      CODE     ---       #82
      00FFBA78H   LINE      CODE     ---       #83
      00FFBA78H   LINE      CODE     ---       #84
      ---         BLOCKEND  ---      ---       LVL=0

      00FFC937H   BLOCK     CODE     ---       LVL=0
      00FFC937H   LINE      CODE     ---       #86
      00FFC937H   LINE      CODE     ---       #88
      00FFC93EH   LINE      CODE     ---       #89
      00FFC941H   LINE      CODE     ---       #90
      00FFC944H   LINE      CODE     ---       #91
      00FFC947H   LINE      CODE     ---       #92
      ---         BLOCKEND  ---      ---       LVL=0

      00FFA572H   BLOCK     CODE     ---       LVL=0
      00FFA572H   LINE      CODE     ---       #93
      00FFA574H   LINE      CODE     ---       #95
      00FFA57AH   LINE      CODE     ---       #97
      00FFA583H   LINE      CODE     ---       #99
      00FFA589H   LINE      CODE     ---       #100
      00FFA589H   LINE      CODE     ---       #101
      00FFA592H   LINE      CODE     ---       #103
      00FFA5B1H   LINE      CODE     ---       #104
      00FFA5B3H   LINE      CODE     ---       #107
      00FFA5C2H   LINE      CODE     ---       #108
      00FFA5D1H   LINE      CODE     ---       #109
      00FFA5E0H   LINE      CODE     ---       #110
      00FFA5E7H   LINE      CODE     ---       #111
      00FFA5EAH   LINE      CODE     ---       #112
      00FFA5EAH   LINE      CODE     ---       #113
      00FFA5EDH   LINE      CODE     ---       #114
      00FFA5EFH   LINE      CODE     ---       #115
      00FFA5F6H   LINE      CODE     ---       #117
      00FFA63FH   LINE      CODE     ---       #118
      00FFA645H   LINE      CODE     ---       #119
      00FFA648H   LINE      CODE     ---       #120
      00FFA64BH   LINE      CODE     ---       #121
      ---         BLOCKEND  ---      ---       LVL=0

      00FFC31AH   BLOCK     CODE     ---       LVL=0
      00FFC31AH   LINE      CODE     ---       #124
L251 LINKER/LOCATER V4.66.93.0                                                        11/08/2025  20:32:40  PAGE 138


      00FFC31AH   LINE      CODE     ---       #126
      00FFC334H   LINE      CODE     ---       #127
      00FFC349H   LINE      CODE     ---       #129
      00FFC359H   LINE      CODE     ---       #130
      00FFC359H   LINE      CODE     ---       #131
      00FFC35CH   LINE      CODE     ---       #133
      ---         BLOCKEND  ---      ---       LVL=0

      00FFC086H   BLOCK     CODE     ---       LVL=0
      00FFC086H   LINE      CODE     ---       #135
      00FFC086H   LINE      CODE     ---       #137
      00FFC0A0H   LINE      CODE     ---       #138
      00FFC0C2H   LINE      CODE     ---       #140
      00FFC0D4H   LINE      CODE     ---       #141
      00FFC0D4H   LINE      CODE     ---       #142
      00FFC0D7H   LINE      CODE     ---       #143
      ---         BLOCKEND  ---      ---       LVL=0

      00FFA99CH   BLOCK     CODE     ---       LVL=0
      00FFA99CH   LINE      CODE     ---       #144
      00FFA99EH   LINE      CODE     ---       #146
      00FFA9A5H   LINE      CODE     ---       #148
      00FFA9EEH   LINE      CODE     ---       #149
      00FFA9F4H   LINE      CODE     ---       #150
      00FFA9F7H   LINE      CODE     ---       #151
      00FFA9F9H   LINE      CODE     ---       #152
      00FFA9FFH   LINE      CODE     ---       #154
      00FFAA08H   LINE      CODE     ---       #156
      00FFAA0EH   LINE      CODE     ---       #157
      00FFAA0EH   LINE      CODE     ---       #158
      00FFAA17H   LINE      CODE     ---       #160
      00FFAA20H   LINE      CODE     ---       #161
      00FFAA25H   LINE      CODE     ---       #162
      00FFAA42H   LINE      CODE     ---       #163
      00FFAA44H   LINE      CODE     ---       #166
      00FFAA53H   LINE      CODE     ---       #167
      00FFAA5AH   LINE      CODE     ---       #168
      00FFAA5DH   LINE      CODE     ---       #169
      00FFAA5DH   LINE      CODE     ---       #170
      00FFAA60H   LINE      CODE     ---       #171
      ---         BLOCKEND  ---      ---       LVL=0

      00FFC89AH   BLOCK     CODE     ---       LVL=0
      00FFC89AH   LINE      CODE     ---       #173
      00FFC89AH   LINE      CODE     ---       #175
      00FFC8A0H   LINE      CODE     ---       #178
      00FFC8ABH   LINE      CODE     ---       #180
      00FFC8B0H   LINE      CODE     ---       #181
      00FFC8B3H   LINE      CODE     ---       #182
      00FFC8B3H   LINE      CODE     ---       #183
      00FFC8B3H   LINE      CODE     ---       #184
      ---         BLOCKEND  ---      ---       LVL=0

      00FF01AEH   BLOCK     CODE     ---       LVL=0
      00FF01AEH   LINE      CODE     ---       #185
      00FF01AEH   LINE      CODE     ---       #187
      00FF01B4H   LINE      CODE     ---       #188
      00FF01B7H   LINE      CODE     ---       #189
      ---         BLOCKEND  ---      ---       LVL=0

      00FFA8CEH   BLOCK     CODE     ---       LVL=0
      00FFA8CEH   LINE      CODE     ---       #190
      00FFA8CEH   LINE      CODE     ---       #192
      00FFA8D4H   LINE      CODE     ---       #195
      00FFA8D9H   LINE      CODE     ---       #196
L251 LINKER/LOCATER V4.66.93.0                                                        11/08/2025  20:32:40  PAGE 139


      00FFA8D9H   LINE      CODE     ---       #197
      00FFA8FBH   LINE      CODE     ---       #199
      00FFA923H   LINE      CODE     ---       #200
      00FFA929H   LINE      CODE     ---       #201
      00FFA92EH   LINE      CODE     ---       #202
      00FFA938H   LINE      CODE     ---       #203
      00FFA93BH   LINE      CODE     ---       #204
      00FFA93DH   LINE      CODE     ---       #205
      00FFA95AH   LINE      CODE     ---       #207
      00FFA976H   LINE      CODE     ---       #208
      00FFA97CH   LINE      CODE     ---       #209
      00FFA981H   LINE      CODE     ---       #210
      00FFA98BH   LINE      CODE     ---       #211
      00FFA98EH   LINE      CODE     ---       #212
      00FFA98EH   LINE      CODE     ---       #213
      00FFA998H   LINE      CODE     ---       #214
      00FFA99BH   LINE      CODE     ---       #215
      ---         BLOCKEND  ---      ---       LVL=0

      00FFC73BH   BLOCK     CODE     ---       LVL=0
      R7          REGSYM    ---      BYTE      Flag_Key
      00FFC73BH   LINE      CODE     ---       #221
      00FFC73DH   LINE      CODE     ---       #224
      00FFC751H   LINE      CODE     ---       #226
      00FFC756H   LINE      CODE     ---       #227
      00FFC75BH   LINE      CODE     ---       #228
      00FFC760H   LINE      CODE     ---       #229
      00FFC765H   LINE      CODE     ---       #230
      00FFC768H   LINE      CODE     ---       #231
      00FFC768H   LINE      CODE     ---       #232
      ---         BLOCKEND  ---      ---       LVL=0

      00FFB90DH   BLOCK     CODE     ---       LVL=0
      00FFB90DH   LINE      CODE     ---       #237
      00FFB90DH   LINE      CODE     ---       #239
      00FFB920H   LINE      CODE     ---       #240
      00FFB933H   LINE      CODE     ---       #241
      00FFB946H   LINE      CODE     ---       #242
      00FFB959H   LINE      CODE     ---       #243
      00FFB96CH   LINE      CODE     ---       #244
      00FFB97FH   LINE      CODE     ---       #245
      00FFB982H   LINE      CODE     ---       #246
      00FFB985H   LINE      CODE     ---       #247
      00FFB988H   LINE      CODE     ---       #249
      ---         BLOCKEND  ---      ---       LVL=0

      ---         MODULE    ---      ---       menu_font
      00010000H   PUBLIC    XDATA    ---       Page
      0001082DH   PUBLIC    XDATA    ---       Pin
      00010831H   PUBLIC    XDATA    ---       Num
      00010AD5H   PUBLIC    XDATA    WORD      ADC_1
      00010AD7H   PUBLIC    XDATA    WORD      ADC_2
      00010AD9H   PUBLIC    XDATA    WORD      ADC_3
      00010ADBH   PUBLIC    XDATA    WORD      ADC_4
      00010ADDH   PUBLIC    XDATA    WORD      ADC_5
      00010ADFH   PUBLIC    XDATA    WORD      ADC_6
      00010AE1H   PUBLIC    XDATA    ---       Page0_children
      00010AEFH   PUBLIC    XDATA    ---       Page1_children
      00010AFDH   PUBLIC    XDATA    WORD      ADC_8
      00010AFFH   PUBLIC    XDATA    ---       Page2_children
      00010B0DH   PUBLIC    XDATA    ---       Page3_children
      00010B1BH   PUBLIC    XDATA    ---       Page4_children
      00010B29H   PUBLIC    XDATA    ---       Page5_children
      000000D0H   SFRSYM    DATA     BYTE      PSW
      0000009DH   SFRSYM    DATA     BYTE      IRCBAND
L251 LINKER/LOCATER V4.66.93.0                                                        11/08/2025  20:32:40  PAGE 140


      00000097H   SFRSYM    DATA     BYTE      AUXR2
      000000EFH   SFRSYM    DATA     BYTE      AUXINTIF
      000000FDH   SFRSYM    DATA     BYTE      S4CON
      000000ACH   SFRSYM    DATA     BYTE      S3CON
      0000009AH   SFRSYM    DATA     BYTE      S2CON
      000000B7H   SFRSYM    DATA     BYTE      IPH
      000000CDH   SFRSYM    DATA     BYTE      SPSTAT
      000000DDH   SFRSYM    DATA     BYTE      T4T3M
      000000C1H   SFRSYM    DATA     BYTE      WDT_CONTR
      000000DFH   SFRSYM    DATA     BYTE      IP3
      000000F4H   SFRSYM    DATA     BYTE      USBCON
      000000B5H   SFRSYM    DATA     BYTE      IP2
      000000FFH   SFRSYM    DATA     BYTE      RSTCFG
      000000C7H   SFRSYM    DATA     BYTE      IAP_CONTR
      0000008EH   SFRSYM    DATA     BYTE      AUXR
      000000AFH   SFRSYM    DATA     BYTE      IE2
      00000088H   SFRSYM    DATA     BYTE      TCON
      00000089H   SFRSYM    DATA     BYTE      TMOD
      00000098H   SFRSYM    DATA     BYTE      SCON
      00000087H   SFRSYM    DATA     BYTE      PCON
      000000BCH   SFRSYM    DATA     BYTE      ADC_CONTR
      000000D1H   SFRSYM    DATA     BYTE      PSW1
      000000E7H   SFRSYM    DATA     BYTE      CMPCR2
      000000E6H   SFRSYM    DATA     BYTE      CMPCR1
      000000DEH   SFRSYM    DATA     BYTE      ADCCFG
      000000B8H   SFRSYM    DATA     BYTE      IP
      0000008FH   SFRSYM    DATA     BYTE      INTCLKO
      000000EEH   SFRSYM    DATA     BYTE      IP3H
      000000B6H   SFRSYM    DATA     BYTE      IP2H
      000000BFH   SFRSYM    DATA     BYTE      P_SW4
      000000A8H   SFRSYM    DATA     BYTE      IE
      000000BBH   SFRSYM    DATA     BYTE      P_SW3
      000000BAH   SFRSYM    DATA     BYTE      P_SW2
      000000A2H   SFRSYM    DATA     BYTE      P_SW1
      000000CEH   SFRSYM    DATA     BYTE      SPCTL
      000000F8H   SFRSYM    DATA     BYTE      P7
      000000E8H   SFRSYM    DATA     BYTE      P6
      000000C8H   SFRSYM    DATA     BYTE      P5
      000000C0H   SFRSYM    DATA     BYTE      P4
      000000ABH   SFRSYM    DATA     BYTE      WKTCH
      000000B0H   SFRSYM    DATA     BYTE      P3
      000000A0H   SFRSYM    DATA     BYTE      P2
      00000090H   SFRSYM    DATA     BYTE      P1
      00000080H   SFRSYM    DATA     BYTE      P0

      ---         MODULE    ---      ---       Device_Test
      00FFBF8AH   PUBLIC    CODE     ---       Serve_Test
      00FFC8B4H   PUBLIC    CODE     ---       Set_Sevo
      00FFC6AAH   PUBLIC    CODE     ---       PWM_Test
      000000D0H   SFRSYM    DATA     BYTE      PSW
      0000009DH   SFRSYM    DATA     BYTE      IRCBAND
      00000097H   SFRSYM    DATA     BYTE      AUXR2
      000000EFH   SFRSYM    DATA     BYTE      AUXINTIF
      000000FDH   SFRSYM    DATA     BYTE      S4CON
      000000ACH   SFRSYM    DATA     BYTE      S3CON
      0000009AH   SFRSYM    DATA     BYTE      S2CON
      000000B7H   SFRSYM    DATA     BYTE      IPH
      000000CDH   SFRSYM    DATA     BYTE      SPSTAT
      000000DDH   SFRSYM    DATA     BYTE      T4T3M
      000000C1H   SFRSYM    DATA     BYTE      WDT_CONTR
      000000DFH   SFRSYM    DATA     BYTE      IP3
      000000F4H   SFRSYM    DATA     BYTE      USBCON
      000000B5H   SFRSYM    DATA     BYTE      IP2
      000000FFH   SFRSYM    DATA     BYTE      RSTCFG
      000000C7H   SFRSYM    DATA     BYTE      IAP_CONTR
L251 LINKER/LOCATER V4.66.93.0                                                        11/08/2025  20:32:40  PAGE 141


      0000008EH   SFRSYM    DATA     BYTE      AUXR
      000000AFH   SFRSYM    DATA     BYTE      IE2
      00000088H   SFRSYM    DATA     BYTE      TCON
      00000089H   SFRSYM    DATA     BYTE      TMOD
      00000098H   SFRSYM    DATA     BYTE      SCON
      00000087H   SFRSYM    DATA     BYTE      PCON
      000000BCH   SFRSYM    DATA     BYTE      ADC_CONTR
      000000D1H   SFRSYM    DATA     BYTE      PSW1
      000000E7H   SFRSYM    DATA     BYTE      CMPCR2
      000000E6H   SFRSYM    DATA     BYTE      CMPCR1
      000000DEH   SFRSYM    DATA     BYTE      ADCCFG
      000000B8H   SFRSYM    DATA     BYTE      IP
      0000008FH   SFRSYM    DATA     BYTE      INTCLKO
      000000EEH   SFRSYM    DATA     BYTE      IP3H
      000000B6H   SFRSYM    DATA     BYTE      IP2H
      000000BFH   SFRSYM    DATA     BYTE      P_SW4
      000000A8H   SFRSYM    DATA     BYTE      IE
      000000BBH   SFRSYM    DATA     BYTE      P_SW3
      000000BAH   SFRSYM    DATA     BYTE      P_SW2
      000000A2H   SFRSYM    DATA     BYTE      P_SW1
      000000CEH   SFRSYM    DATA     BYTE      SPCTL
      000000F8H   SFRSYM    DATA     BYTE      P7
      000000E8H   SFRSYM    DATA     BYTE      P6
      000000C8H   SFRSYM    DATA     BYTE      P5
      000000C0H   SFRSYM    DATA     BYTE      P4
      000000ABH   SFRSYM    DATA     BYTE      WKTCH
      000000B0H   SFRSYM    DATA     BYTE      P3
      000000A0H   SFRSYM    DATA     BYTE      P2
      00000090H   SFRSYM    DATA     BYTE      P1
      00000080H   SFRSYM    DATA     BYTE      P0

      00FFBF8AH   BLOCK     CODE     ---       LVL=0
      00FFBF8CH   BLOCK     CODE     NEAR LAB  LVL=1
      R14         REGSYM    ---      BYTE      a
      R15         REGSYM    ---      BYTE      j
      ---         BLOCKEND  ---      ---       LVL=1
      00FFBF8AH   LINE      CODE     ---       #3
      00FFBF8CH   LINE      CODE     ---       #4
      00FFBF8CH   LINE      CODE     ---       #8
      00FFBF90H   LINE      CODE     ---       #10
      00FFBF94H   LINE      CODE     ---       #12
      00FFBF9DH   LINE      CODE     ---       #13
      00FFBFA4H   LINE      CODE     ---       #14
      00FFBFB2H   LINE      CODE     ---       #16
      00FFBFB6H   LINE      CODE     ---       #18
      00FFBFC1H   LINE      CODE     ---       #19
      00FFBFC8H   LINE      CODE     ---       #20
      00FFBFD6H   LINE      CODE     ---       #22
      00FFBFDDH   LINE      CODE     ---       #23
      ---         BLOCKEND  ---      ---       LVL=0

      00FFC6AAH   BLOCK     CODE     ---       LVL=0
      00FFC6AAH   LINE      CODE     ---       #25
      00FFC6AAH   LINE      CODE     ---       #27
      00FFC6C3H   LINE      CODE     ---       #28
      00FFC6DCH   LINE      CODE     ---       #29
      ---         BLOCKEND  ---      ---       LVL=0

      00FFC8B4H   BLOCK     CODE     ---       LVL=0
      00FFC8B4H   LINE      CODE     ---       #31
      00FFC8B4H   LINE      CODE     ---       #33
      00FFC8CDH   LINE      CODE     ---       #34
      ---         BLOCKEND  ---      ---       LVL=0

      ---         MODULE    ---      ---       oled
L251 LINKER/LOCATER V4.66.93.0                                                        11/08/2025  20:32:40  PAGE 142


      00FF3940H   PUBLIC    CODE     ---       asc2_0806
      00FF3B68H   PUBLIC    CODE     ---       asc2_1608
      00FF4158H   PUBLIC    CODE     ---       Hzk
      000000D0H   SFRSYM    DATA     BYTE      PSW
      0000009DH   SFRSYM    DATA     BYTE      IRCBAND
      00000097H   SFRSYM    DATA     BYTE      AUXR2
      000000EFH   SFRSYM    DATA     BYTE      AUXINTIF
      000000FDH   SFRSYM    DATA     BYTE      S4CON
      000000ACH   SFRSYM    DATA     BYTE      S3CON
      0000009AH   SFRSYM    DATA     BYTE      S2CON
      000000B7H   SFRSYM    DATA     BYTE      IPH
      000000CDH   SFRSYM    DATA     BYTE      SPSTAT
      000000DDH   SFRSYM    DATA     BYTE      T4T3M
      000000C1H   SFRSYM    DATA     BYTE      WDT_CONTR
      000000DFH   SFRSYM    DATA     BYTE      IP3
      000000F4H   SFRSYM    DATA     BYTE      USBCON
      000000B5H   SFRSYM    DATA     BYTE      IP2
      000000FFH   SFRSYM    DATA     BYTE      RSTCFG
      000000C7H   SFRSYM    DATA     BYTE      IAP_CONTR
      0000008EH   SFRSYM    DATA     BYTE      AUXR
      000000AFH   SFRSYM    DATA     BYTE      IE2
      00000088H   SFRSYM    DATA     BYTE      TCON
      00000089H   SFRSYM    DATA     BYTE      TMOD
      00000098H   SFRSYM    DATA     BYTE      SCON
      00000087H   SFRSYM    DATA     BYTE      PCON
      000000BCH   SFRSYM    DATA     BYTE      ADC_CONTR
      000000D1H   SFRSYM    DATA     BYTE      PSW1
      000000E7H   SFRSYM    DATA     BYTE      CMPCR2
      000000E6H   SFRSYM    DATA     BYTE      CMPCR1
      000000DEH   SFRSYM    DATA     BYTE      ADCCFG
      000000B8H   SFRSYM    DATA     BYTE      IP
      0000008FH   SFRSYM    DATA     BYTE      INTCLKO
      000000EEH   SFRSYM    DATA     BYTE      IP3H
      000000B6H   SFRSYM    DATA     BYTE      IP2H
      000000BFH   SFRSYM    DATA     BYTE      P_SW4
      000000A8H   SFRSYM    DATA     BYTE      IE
      000000BBH   SFRSYM    DATA     BYTE      P_SW3
      000000BAH   SFRSYM    DATA     BYTE      P_SW2
      000000A2H   SFRSYM    DATA     BYTE      P_SW1
      000000CEH   SFRSYM    DATA     BYTE      SPCTL
      000000F8H   SFRSYM    DATA     BYTE      P7
      000000E8H   SFRSYM    DATA     BYTE      P6
      000000C8H   SFRSYM    DATA     BYTE      P5
      000000C0H   SFRSYM    DATA     BYTE      P4
      000000ABH   SFRSYM    DATA     BYTE      WKTCH
      000000B0H   SFRSYM    DATA     BYTE      P3
      000000A0H   SFRSYM    DATA     BYTE      P2
      00000090H   SFRSYM    DATA     BYTE      P1
      00000080H   SFRSYM    DATA     BYTE      P0
      WR2         REGSYM    ---      WORD      ms
      WR0         REGSYM    ---      WORD      a
      R15         REGSYM    ---      BYTE      i
      R15         REGSYM    ---      BYTE      i
      R15         REGSYM    ---      BYTE      dat
      R10         REGSYM    ---      BYTE      cmd
      R14         REGSYM    ---      BYTE      i
      R15         REGSYM    ---      BYTE      x
      R10         REGSYM    ---      BYTE      y
      R15         REGSYM    ---      BYTE      i
      R14         REGSYM    ---      BYTE      n
      R13         REGSYM    ---      BYTE      x
      R14         REGSYM    ---      BYTE      y
      R3          REGSYM    ---      BYTE      chr
      R15         REGSYM    ---      BYTE      sizey
      R12         REGSYM    ---      BYTE      facial
L251 LINKER/LOCATER V4.66.93.0                                                        11/08/2025  20:32:40  PAGE 143


      R3          REGSYM    ---      BYTE      m
      R10         REGSYM    ---      BYTE      n
      WR6         REGSYM    ---      WORD      result
      WR14        REGSYM    ---      WORD      num
      R12         REGSYM    ---      BYTE      len
      R13         REGSYM    ---      BYTE      sizey
      REG=3       REGSYM    ---      ---       chr
      R12         REGSYM    ---      BYTE      x
      R13         REGSYM    ---      BYTE      y
      R14         REGSYM    ---      BYTE      no
      R15         REGSYM    ---      BYTE      sizey

      ---         MODULE    ---      ---       Strategy
      00FFBE7FH   PUBLIC    CODE     ---       angle_Get
      00FF67E0H   PUBLIC    CODE     ---       Half_State_of_road
      00FFA0F2H   PUBLIC    CODE     ---       if_Cycle
      00FF5E82H   PUBLIC    CODE     ---       Inertial_Navigation
      00FF744EH   PUBLIC    CODE     ---       State_of_road
      00FF77C4H   PUBLIC    CODE     ---       Help_turn2
      00010B37H   PUBLIC    XDATA    ---       All_road_Flag
      00010B9BH   PUBLIC    XDATA    ---       All_road_Data
      00010D2BH   PUBLIC    XDATA    INT       Now_State_Road
      00010D2DH   PUBLIC    XDATA    ---       Long_short_Data
      00010DA5H   PUBLIC    XDATA    WORD      Long_Time
      00010DA7H   PUBLIC    XDATA    WORD      Short_Time
      00010DA9H   PUBLIC    XDATA    INT       Guan_Slow_Time
      00010DABH   PUBLIC    XDATA    BYTE      Road_Stat
      00010DACH   PUBLIC    XDATA    WORD      Wait_Time
      00010DAEH   PUBLIC    XDATA    FLOAT     angle
      00010DB2H   PUBLIC    XDATA    WORD      Entern_Continue_Time
      00010DB4H   PUBLIC    XDATA    ---       Turn_road_Data
      00010E2CH   PUBLIC    XDATA    WORD      if2_time
      00010E2EH   PUBLIC    XDATA    BYTE      Protect_Flag_Cycle
      00010E2FH   PUBLIC    XDATA    BYTE      Max_Item
      00010E30H   PUBLIC    XDATA    INT       Now_Item
      00010E32H   PUBLIC    XDATA    INT       turn_Value
      00010E34H   PUBLIC    XDATA    WORD      Entern_Delay_Time
      00010E36H   PUBLIC    XDATA    WORD      Continue_Time
      00010E38H   PUBLIC    XDATA    WORD      Entern_Flag_Time
      00010E3AH   PUBLIC    XDATA    LONG      all_road
      00010E3EH   PUBLIC    XDATA    BYTE      Enter_Flag_Left
      00010E3FH   PUBLIC    XDATA    WORD      Accel_Time
      00010E41H   PUBLIC    XDATA    BYTE      Normal_Slow_Flag
      00010E42H   PUBLIC    XDATA    INT       Str_Data_Buffer
      00010E44H   PUBLIC    XDATA    WORD      if_time
      00010E46H   PUBLIC    XDATA    ---       All_angle_Data
      00010FD6H   PUBLIC    XDATA    BYTE      Last_State_Road
      00010FD7H   PUBLIC    XDATA    INT       Mode_Flag
      00010FD9H   PUBLIC    XDATA    INT       Turnways_Time
      00010FDBH   PUBLIC    XDATA    INT       Straightaways_Time
      00010FDDH   PUBLIC    XDATA    BYTE      Acclerate_Flag
      00010FDEH   PUBLIC    XDATA    FLOAT     angle_buffer
      00010FE2H   PUBLIC    XDATA    WORD      Bend_Time
      00010FE4H   PUBLIC    XDATA    BYTE      Guan_Slow_Flag
      00010FE5H   PUBLIC    XDATA    BYTE      Cycle_Stat
      00010FE6H   PUBLIC    XDATA    ---       Long_road_Data
      0001105EH   PUBLIC    XDATA    FLOAT     delta_angle
      00011062H   PUBLIC    XDATA    ---       Short_road_Data
      000110DAH   PUBLIC    XDATA    BYTE      Guan_Dao_Show_Item
      000000D0H   SFRSYM    DATA     BYTE      PSW
      0000009DH   SFRSYM    DATA     BYTE      IRCBAND
      00000097H   SFRSYM    DATA     BYTE      AUXR2
      000000EFH   SFRSYM    DATA     BYTE      AUXINTIF
      000000FDH   SFRSYM    DATA     BYTE      S4CON
      000000ACH   SFRSYM    DATA     BYTE      S3CON
L251 LINKER/LOCATER V4.66.93.0                                                        11/08/2025  20:32:40  PAGE 144


      0000009AH   SFRSYM    DATA     BYTE      S2CON
      000000B7H   SFRSYM    DATA     BYTE      IPH
      000000CDH   SFRSYM    DATA     BYTE      SPSTAT
      000000DDH   SFRSYM    DATA     BYTE      T4T3M
      000000C1H   SFRSYM    DATA     BYTE      WDT_CONTR
      000000DFH   SFRSYM    DATA     BYTE      IP3
      000000F4H   SFRSYM    DATA     BYTE      USBCON
      000000B5H   SFRSYM    DATA     BYTE      IP2
      000000FFH   SFRSYM    DATA     BYTE      RSTCFG
      000000C7H   SFRSYM    DATA     BYTE      IAP_CONTR
      0000008EH   SFRSYM    DATA     BYTE      AUXR
      000000AFH   SFRSYM    DATA     BYTE      IE2
      00000088H   SFRSYM    DATA     BYTE      TCON
      00000089H   SFRSYM    DATA     BYTE      TMOD
      00000098H   SFRSYM    DATA     BYTE      SCON
      00000087H   SFRSYM    DATA     BYTE      PCON
      000000BCH   SFRSYM    DATA     BYTE      ADC_CONTR
      000000D1H   SFRSYM    DATA     BYTE      PSW1
      000000E7H   SFRSYM    DATA     BYTE      CMPCR2
      000000E6H   SFRSYM    DATA     BYTE      CMPCR1
      000000DEH   SFRSYM    DATA     BYTE      ADCCFG
      000000B8H   SFRSYM    DATA     BYTE      IP
      0000008FH   SFRSYM    DATA     BYTE      INTCLKO
      000000EEH   SFRSYM    DATA     BYTE      IP3H
      000000B6H   SFRSYM    DATA     BYTE      IP2H
      000000BFH   SFRSYM    DATA     BYTE      P_SW4
      000000A8H   SFRSYM    DATA     BYTE      IE
      000000BBH   SFRSYM    DATA     BYTE      P_SW3
      000000BAH   SFRSYM    DATA     BYTE      P_SW2
      000000A2H   SFRSYM    DATA     BYTE      P_SW1
      000000CEH   SFRSYM    DATA     BYTE      SPCTL
      000000F8H   SFRSYM    DATA     BYTE      P7
      000000E8H   SFRSYM    DATA     BYTE      P6
      000000C8H   SFRSYM    DATA     BYTE      P5
      000000C0H   SFRSYM    DATA     BYTE      P4
      000000ABH   SFRSYM    DATA     BYTE      WKTCH
      000000B0H   SFRSYM    DATA     BYTE      P3
      000000A0H   SFRSYM    DATA     BYTE      P2
      00000090H   SFRSYM    DATA     BYTE      P1
      00000080H   SFRSYM    DATA     BYTE      P0

      00FFA0F2H   BLOCK     CODE     ---       LVL=0
      00FFA0F2H   LINE      CODE     ---       #71
      00FFA0F2H   LINE      CODE     ---       #73
      00FFA0FEH   LINE      CODE     ---       #75
      00FFA109H   LINE      CODE     ---       #76
      00FFA10CH   LINE      CODE     ---       #77
      00FFA10CH   LINE      CODE     ---       #80
      00FFA121H   LINE      CODE     ---       #82
      00FFA121H   LINE      CODE     ---       #85
      00FFA139H   LINE      CODE     ---       #87
      00FFA144H   LINE      CODE     ---       #88
      00FFA157H   LINE      CODE     ---       #90
      00FFA15CH   LINE      CODE     ---       #91
      00FFA161H   LINE      CODE     ---       #92
      00FFA169H   LINE      CODE     ---       #93
      00FFA16CH   LINE      CODE     ---       #97
      00FFA174H   LINE      CODE     ---       #98
      00FFA174H   LINE      CODE     ---       #99
      00FFA176H   LINE      CODE     ---       #101
      00FFA176H   LINE      CODE     ---       #103
      00FFA181H   LINE      CODE     ---       #104
      00FFA191H   LINE      CODE     ---       #106
      00FFA197H   LINE      CODE     ---       #107
      00FFA19FH   LINE      CODE     ---       #108
L251 LINKER/LOCATER V4.66.93.0                                                        11/08/2025  20:32:40  PAGE 145


      00FFA19FH   LINE      CODE     ---       #109
      00FFA1A1H   LINE      CODE     ---       #111
      00FFA1A1H   LINE      CODE     ---       #113
      00FFA1A7H   LINE      CODE     ---       #114
      00FFA1AAH   LINE      CODE     ---       #115
      00FFA1B5H   LINE      CODE     ---       #117
      00FFA1C5H   LINE      CODE     ---       #119
      00FFA1CBH   LINE      CODE     ---       #120
      00FFA1CEH   LINE      CODE     ---       #121
      00FFA1D4H   LINE      CODE     ---       #122
      00FFA1DEH   LINE      CODE     ---       #123
      00FFA1E6H   LINE      CODE     ---       #124
      00FFA1EBH   LINE      CODE     ---       #125
      00FFA1EBH   LINE      CODE     ---       #126
      00FFA1EDH   LINE      CODE     ---       #128
      00FFA1EDH   LINE      CODE     ---       #130
      00FFA1F0H   LINE      CODE     ---       #131
      00FFA1F0H   LINE      CODE     ---       #133
      00FFA1F0H   LINE      CODE     ---       #134
      00FFA1F0H   LINE      CODE     ---       #136
      ---         BLOCKEND  ---      ---       LVL=0
      WR2         REGSYM    ---      INT       left
      WR4         REGSYM    ---      INT       right

      00FF77C4H   BLOCK     CODE     ---       LVL=0
      WR14        REGSYM    ---      INT       temp
      WR2         REGSYM    ---      INT       value
      WR0         REGSYM    ---      INT       ADC_Flag
      00FF77CCH   BLOCK     CODE     NEAR LAB  LVL=1
      000110DBH   SYMBOL    XDATA    INT       last_dir
      000110DDH   SYMBOL    XDATA    INT       first_double
      WR6         REGSYM    ---      INT       left
      WR10        REGSYM    ---      INT       right
      WR4         REGSYM    ---      INT       target
      000110DFH   SYMBOL    XDATA    FLOAT     smooth_temp
      WR30        REGSYM    ---      INT       delta
      000110E3H   SYMBOL    XDATA    FLOAT     vel
      00011695H   SYMBOL    XDATA    FLOAT     kp
      00011699H   SYMBOL    XDATA    FLOAT     kd
      0001169DH   SYMBOL    XDATA    FLOAT     error
      ---         BLOCKEND  ---      ---       LVL=1
      00FF77C4H   LINE      CODE     ---       #163
      00FF77CCH   LINE      CODE     ---       #164
      00FF77CCH   LINE      CODE     ---       #168
      00FF77DAH   LINE      CODE     ---       #169
      00FF77E8H   LINE      CODE     ---       #170
      00FF77EAH   LINE      CODE     ---       #173
      00FF77EEH   LINE      CODE     ---       #174
      00FF77EEH   LINE      CODE     ---       #177
      00FF7800H   LINE      CODE     ---       #178
      00FF7810H   LINE      CODE     ---       #179
      00FF781CH   LINE      CODE     ---       #180
      00FF7827H   LINE      CODE     ---       #182
      00FF7835H   LINE      CODE     ---       #184
      00FF783FH   LINE      CODE     ---       #186
      00FF7843H   LINE      CODE     ---       #188
      00FF7847H   LINE      CODE     ---       #189
      00FF7851H   LINE      CODE     ---       #190
      00FF7853H   LINE      CODE     ---       #193
      00FF7855H   LINE      CODE     ---       #194
      00FF785FH   LINE      CODE     ---       #195
      00FF785FH   LINE      CODE     ---       #196
      00FF7867H   LINE      CODE     ---       #197
      00FF786AH   LINE      CODE     ---       #200
      00FF7882H   LINE      CODE     ---       #203
L251 LINKER/LOCATER V4.66.93.0                                                        11/08/2025  20:32:40  PAGE 146


      00FF7894H   LINE      CODE     ---       #204
      00FF78A4H   LINE      CODE     ---       #205
      00FF78A6H   LINE      CODE     ---       #206
      00FF78A8H   LINE      CODE     ---       #207
      00FF78ACH   LINE      CODE     ---       #209
      00FF78B0H   LINE      CODE     ---       #210
      00FF78BAH   LINE      CODE     ---       #211
      00FF78BCH   LINE      CODE     ---       #214
      00FF78BEH   LINE      CODE     ---       #215
      00FF78C8H   LINE      CODE     ---       #216
      00FF78C8H   LINE      CODE     ---       #217
      00FF78C8H   LINE      CODE     ---       #218
      00FF78CAH   LINE      CODE     ---       #219
      00FF78CEH   LINE      CODE     ---       #221
      00FF78D2H   LINE      CODE     ---       #222
      00FF78DCH   LINE      CODE     ---       #224
      00FF78DEH   LINE      CODE     ---       #227
      00FF78E0H   LINE      CODE     ---       #228
      00FF78EAH   LINE      CODE     ---       #230
      00FF78EAH   LINE      CODE     ---       #231
      00FF7906H   LINE      CODE     ---       #232
      00FF7954H   LINE      CODE     ---       #233
      00FF7975H   LINE      CODE     ---       #234
      00FF799AH   LINE      CODE     ---       #235
      00FF799DH   LINE      CODE     ---       #238
      00FF79A7H   LINE      CODE     ---       #239
      00FF79C5H   LINE      CODE     ---       #240
      00FF7A13H   LINE      CODE     ---       #241
      00FF7A34H   LINE      CODE     ---       #242
      00FF7A8FH   LINE      CODE     ---       #244
      00FF7AC7H   LINE      CODE     ---       #245
      00FF7AC9H   LINE      CODE     ---       #249
      00FF7AEEH   LINE      CODE     ---       #250
      00FF7AEEH   LINE      CODE     ---       #251
      00FF7AEEH   LINE      CODE     ---       #252
      ---         BLOCKEND  ---      ---       LVL=0
      REG=7       REGSYM    ---      ---       temp
      WR24        REGSYM    ---      INT       value
      WR26        REGSYM    ---      INT       value2
      000110E7H   SYMBOL    XDATA    INT       last_dir
      000110E9H   SYMBOL    XDATA    INT       first_double
      WR16        REGSYM    ---      INT       left
      WR18        REGSYM    ---      INT       right
      DR20        REGSYM    ---      FLOAT     K
      WR6         REGSYM    ---      INT       delta
      WR8         REGSYM    ---      INT       temp
      WR10        REGSYM    ---      INT       value
      WR2         REGSYM    ---      INT       value2
      WR0         REGSYM    ---      INT       ADC_Flag
      WR30        REGSYM    ---      INT       left
      WR4         REGSYM    ---      INT       right

      00FF744EH   BLOCK     CODE     ---       LVL=0
      00FF744EH   LINE      CODE     ---       #393
      00FF744EH   LINE      CODE     ---       #395
      00FF746BH   LINE      CODE     ---       #397
      00FF746BH   LINE      CODE     ---       #399
      00FF7478H   LINE      CODE     ---       #400
      00FF74AAH   LINE      CODE     ---       #402
      00FF74B5H   LINE      CODE     ---       #403
      00FF74BDH   LINE      CODE     ---       #404
      00FF74D9H   LINE      CODE     ---       #406
      00FF74E1H   LINE      CODE     ---       #407
      00FF74E7H   LINE      CODE     ---       #408
      00FF74EAH   LINE      CODE     ---       #412
L251 LINKER/LOCATER V4.66.93.0                                                        11/08/2025  20:32:40  PAGE 147


      00FF74F2H   LINE      CODE     ---       #413
      00FF74FDH   LINE      CODE     ---       #415
      00FF7519H   LINE      CODE     ---       #417
      00FF751FH   LINE      CODE     ---       #418
      00FF7527H   LINE      CODE     ---       #419
      00FF752DH   LINE      CODE     ---       #420
      00FF752DH   LINE      CODE     ---       #422
      00FF752DH   LINE      CODE     ---       #423
      00FF7530H   LINE      CODE     ---       #425
      00FF7530H   LINE      CODE     ---       #427
      00FF753DH   LINE      CODE     ---       #428
      00FF7548H   LINE      CODE     ---       #429
      00FF757AH   LINE      CODE     ---       #431
      00FF7585H   LINE      CODE     ---       #432
      00FF75A1H   LINE      CODE     ---       #434
      00FF75ADH   LINE      CODE     ---       #436
      00FF75B3H   LINE      CODE     ---       #437
      00FF75B9H   LINE      CODE     ---       #438
      00FF75BBH   LINE      CODE     ---       #441
      00FF75C1H   LINE      CODE     ---       #442
      00FF75C1H   LINE      CODE     ---       #443
      00FF75C9H   LINE      CODE     ---       #444
      00FF75D1H   LINE      CODE     ---       #445
      00FF75D4H   LINE      CODE     ---       #449
      00FF75DCH   LINE      CODE     ---       #450
      00FF75DCH   LINE      CODE     ---       #451
      00FF75DFH   LINE      CODE     ---       #453
      00FF75DFH   LINE      CODE     ---       #455
      00FF75E5H   LINE      CODE     ---       #457
      00FF75E8H   LINE      CODE     ---       #458
      00FF75F5H   LINE      CODE     ---       #459
      00FF7641H   LINE      CODE     ---       #461
      00FF7646H   LINE      CODE     ---       #462
      00FF7648H   LINE      CODE     ---       #466
      00FF764BH   LINE      CODE     ---       #467
      00FF7658H   LINE      CODE     ---       #469
      00FF7658H   LINE      CODE     ---       #470
      00FF768AH   LINE      CODE     ---       #472
      00FF7692H   LINE      CODE     ---       #473
      00FF7695H   LINE      CODE     ---       #476
      00FF76A0H   LINE      CODE     ---       #477
      00FF76BCH   LINE      CODE     ---       #479
      00FF76C4H   LINE      CODE     ---       #480
      00FF76C9H   LINE      CODE     ---       #481
      00FF76C9H   LINE      CODE     ---       #483
      00FF76CCH   LINE      CODE     ---       #485
      00FF76CCH   LINE      CODE     ---       #487
      00FF76D2H   LINE      CODE     ---       #489
      00FF76D5H   LINE      CODE     ---       #490
      00FF76E2H   LINE      CODE     ---       #491
      00FF7737H   LINE      CODE     ---       #493
      00FF773CH   LINE      CODE     ---       #494
      00FF773EH   LINE      CODE     ---       #498
      00FF7741H   LINE      CODE     ---       #499
      00FF774EH   LINE      CODE     ---       #501
      00FF774EH   LINE      CODE     ---       #503
      00FF7780H   LINE      CODE     ---       #505
      00FF778BH   LINE      CODE     ---       #506
      00FF77A4H   LINE      CODE     ---       #508
      00FF77A7H   LINE      CODE     ---       #509
      00FF77AFH   LINE      CODE     ---       #510
      00FF77B4H   LINE      CODE     ---       #511
      00FF77B6H   LINE      CODE     ---       #515
      00FF77BEH   LINE      CODE     ---       #516
      00FF77BEH   LINE      CODE     ---       #518
L251 LINKER/LOCATER V4.66.93.0                                                        11/08/2025  20:32:40  PAGE 148


      00FF77C0H   LINE      CODE     ---       #520
      00FF77C0H   LINE      CODE     ---       #522
      00FF77C3H   LINE      CODE     ---       #523
      00FF77C3H   LINE      CODE     ---       #526
      00FF77C3H   LINE      CODE     ---       #527
      ---         BLOCKEND  ---      ---       LVL=0

      00FF5E82H   BLOCK     CODE     ---       LVL=0
      WR30        REGSYM    ---      INT       value
      00FF5E82H   LINE      CODE     ---       #529
      00FF5E84H   LINE      CODE     ---       #531
      00FF5EB6H   LINE      CODE     ---       #533
      00FF5ECEH   LINE      CODE     ---       #535
      00FF5ECEH   LINE      CODE     ---       #537
      00FF5F34H   LINE      CODE     ---       #539
      00FF5F3FH   LINE      CODE     ---       #540
      00FF5F4EH   LINE      CODE     ---       #542
      00FF5F56H   LINE      CODE     ---       #543
      00FF5F5EH   LINE      CODE     ---       #544
      00FF5F61H   LINE      CODE     ---       #548
      00FF5F69H   LINE      CODE     ---       #549
      00FF5F69H   LINE      CODE     ---       #550
      00FF5F6CH   LINE      CODE     ---       #552
      00FF5F6CH   LINE      CODE     ---       #554
      00FF5F8CH   LINE      CODE     ---       #555
      00FF5FF2H   LINE      CODE     ---       #557
      00FF5FFDH   LINE      CODE     ---       #558
      00FF6009H   LINE      CODE     ---       #560
      00FF6013H   LINE      CODE     ---       #561
      00FF601BH   LINE      CODE     ---       #563
      00FF601DH   LINE      CODE     ---       #567
      00FF6020H   LINE      CODE     ---       #568
      00FF6028H   LINE      CODE     ---       #569
      00FF6028H   LINE      CODE     ---       #570
      00FF6028H   LINE      CODE     ---       #573
      00FF6028H   LINE      CODE     ---       #575
      00FF603BH   LINE      CODE     ---       #577
      00FF6044H   LINE      CODE     ---       #579
      00FF6053H   LINE      CODE     ---       #581
      00FF6078H   LINE      CODE     ---       #582
      00FF609DH   LINE      CODE     ---       #583
      00FF60CEH   LINE      CODE     ---       #584
      00FF60F3H   LINE      CODE     ---       #585
      00FF6106H   LINE      CODE     ---       #586
      00FF617CH   LINE      CODE     ---       #587
      00FF6184H   LINE      CODE     ---       #588
      00FF6190H   LINE      CODE     ---       #589
      00FF619BH   LINE      CODE     ---       #591
      00FF619EH   LINE      CODE     ---       #592
      00FF61ADH   LINE      CODE     ---       #594
      00FF61D2H   LINE      CODE     ---       #595
      00FF61F7H   LINE      CODE     ---       #596
      00FF6228H   LINE      CODE     ---       #597
      00FF624DH   LINE      CODE     ---       #598
      00FF6260H   LINE      CODE     ---       #599
      00FF62D6H   LINE      CODE     ---       #600
      00FF62DEH   LINE      CODE     ---       #601
      00FF62EAH   LINE      CODE     ---       #602
      00FF62F5H   LINE      CODE     ---       #603
      00FF62F7H   LINE      CODE     ---       #606
      00FF6302H   LINE      CODE     ---       #607
      00FF630AH   LINE      CODE     ---       #608
      00FF6316H   LINE      CODE     ---       #610
      00FF6316H   LINE      CODE     ---       #611
      00FF6316H   LINE      CODE     ---       #612
L251 LINKER/LOCATER V4.66.93.0                                                        11/08/2025  20:32:40  PAGE 149


      00FF6320H   LINE      CODE     ---       #613
      00FF6330H   LINE      CODE     ---       #615
      00FF633AH   LINE      CODE     ---       #616
      00FF633AH   LINE      CODE     ---       #619
      ---         BLOCKEND  ---      ---       LVL=0

      00FF67E0H   BLOCK     CODE     ---       LVL=0
      00FF67E0H   LINE      CODE     ---       #623
      00FF67E0H   LINE      CODE     ---       #625
      00FF6812H   LINE      CODE     ---       #626
      00FF681EH   LINE      CODE     ---       #628
      00FF6840H   LINE      CODE     ---       #629
      00FF686DH   LINE      CODE     ---       #631
      00FF6870H   LINE      CODE     ---       #632
      00FF6879H   LINE      CODE     ---       #633
      00FF687CH   LINE      CODE     ---       #636
      00FF6881H   LINE      CODE     ---       #637
      00FF6889H   LINE      CODE     ---       #638
      00FF688CH   LINE      CODE     ---       #639
      00FF6897H   LINE      CODE     ---       #640
      00FF68A2H   LINE      CODE     ---       #641
      00FF68A2H   LINE      CODE     ---       #642
      00FF68A5H   LINE      CODE     ---       #643
      00FF68A5H   LINE      CODE     ---       #644
      00FF68B1H   LINE      CODE     ---       #646
      00FF68D3H   LINE      CODE     ---       #647
      00FF6900H   LINE      CODE     ---       #649
      00FF6903H   LINE      CODE     ---       #650
      00FF690CH   LINE      CODE     ---       #651
      00FF690FH   LINE      CODE     ---       #654
      00FF6914H   LINE      CODE     ---       #655
      00FF691CH   LINE      CODE     ---       #657
      00FF6922H   LINE      CODE     ---       #659
      00FF6925H   LINE      CODE     ---       #660
      00FF6930H   LINE      CODE     ---       #661
      00FF693BH   LINE      CODE     ---       #662
      00FF693BH   LINE      CODE     ---       #663
      00FF693EH   LINE      CODE     ---       #664
      00FF693EH   LINE      CODE     ---       #667
      00FF6944H   LINE      CODE     ---       #669
      00FF6947H   LINE      CODE     ---       #670
      00FF6950H   LINE      CODE     ---       #671
      00FF699CH   LINE      CODE     ---       #673
      00FF69A1H   LINE      CODE     ---       #674
      00FF69A3H   LINE      CODE     ---       #678
      00FF69A6H   LINE      CODE     ---       #679
      00FF69A9H   LINE      CODE     ---       #680
      00FF69A9H   LINE      CODE     ---       #681
      00FF69A9H   LINE      CODE     ---       #683
      00FF6A26H   LINE      CODE     ---       #685
      00FF6A48H   LINE      CODE     ---       #686
      00FF6B18H   LINE      CODE     ---       #688
      00FF6B1EH   LINE      CODE     ---       #691
      00FF6B21H   LINE      CODE     ---       #692
      00FF6BF7H   LINE      CODE     ---       #694
      00FF6BFDH   LINE      CODE     ---       #696
      00FF6C00H   LINE      CODE     ---       #698
      00FF6C65H   LINE      CODE     ---       #700
      00FF6C70H   LINE      CODE     ---       #701
      00FF6C7BH   LINE      CODE     ---       #702
      00FF6C83H   LINE      CODE     ---       #704
      ---         BLOCKEND  ---      ---       LVL=0

      00FFBE7FH   BLOCK     CODE     ---       LVL=0
      00FFBE7FH   LINE      CODE     ---       #706
L251 LINKER/LOCATER V4.66.93.0                                                        11/08/2025  20:32:40  PAGE 150


      00FFBE7FH   LINE      CODE     ---       #708
      00FFBE8DH   LINE      CODE     ---       #710
      00FFBEA1H   LINE      CODE     ---       #711
      00FFBEA3H   LINE      CODE     ---       #714
      00FFBEC1H   LINE      CODE     ---       #715
      00FFBEDBH   LINE      CODE     ---       #716
      00FFBEDBH   LINE      CODE     ---       #717
      ---         BLOCKEND  ---      ---       LVL=0

      ---         MODULE    ---      ---       Buzzer
      00FF01BEH   PUBLIC    CODE     ---       Buzzer_ON
      00FFC989H   PUBLIC    CODE     ---       Buzzer_OFF
      00FFC948H   PUBLIC    CODE     ---       Buzzer_Init
      000000D0H   SFRSYM    DATA     BYTE      PSW
      0000009DH   SFRSYM    DATA     BYTE      IRCBAND
      00000097H   SFRSYM    DATA     BYTE      AUXR2
      000000EFH   SFRSYM    DATA     BYTE      AUXINTIF
      000000FDH   SFRSYM    DATA     BYTE      S4CON
      000000ACH   SFRSYM    DATA     BYTE      S3CON
      0000009AH   SFRSYM    DATA     BYTE      S2CON
      000000B7H   SFRSYM    DATA     BYTE      IPH
      000000CDH   SFRSYM    DATA     BYTE      SPSTAT
      000000DDH   SFRSYM    DATA     BYTE      T4T3M
      000000C1H   SFRSYM    DATA     BYTE      WDT_CONTR
      000000DFH   SFRSYM    DATA     BYTE      IP3
      000000F4H   SFRSYM    DATA     BYTE      USBCON
      000000B5H   SFRSYM    DATA     BYTE      IP2
      000000FFH   SFRSYM    DATA     BYTE      RSTCFG
      000000C7H   SFRSYM    DATA     BYTE      IAP_CONTR
      0000008EH   SFRSYM    DATA     BYTE      AUXR
      000000AFH   SFRSYM    DATA     BYTE      IE2
      00000088H   SFRSYM    DATA     BYTE      TCON
      00000089H   SFRSYM    DATA     BYTE      TMOD
      00000098H   SFRSYM    DATA     BYTE      SCON
      00000087H   SFRSYM    DATA     BYTE      PCON
      000000BCH   SFRSYM    DATA     BYTE      ADC_CONTR
      000000D1H   SFRSYM    DATA     BYTE      PSW1
      000000E7H   SFRSYM    DATA     BYTE      CMPCR2
      000000E6H   SFRSYM    DATA     BYTE      CMPCR1
      000000DEH   SFRSYM    DATA     BYTE      ADCCFG
      000000B8H   SFRSYM    DATA     BYTE      IP
      0000008FH   SFRSYM    DATA     BYTE      INTCLKO
      000000EEH   SFRSYM    DATA     BYTE      IP3H
      000000B6H   SFRSYM    DATA     BYTE      IP2H
      000000BFH   SFRSYM    DATA     BYTE      P_SW4
      000000A8H   SFRSYM    DATA     BYTE      IE
      000000BBH   SFRSYM    DATA     BYTE      P_SW3
      000000BAH   SFRSYM    DATA     BYTE      P_SW2
      000000A2H   SFRSYM    DATA     BYTE      P_SW1
      000000CEH   SFRSYM    DATA     BYTE      SPCTL
      000000F8H   SFRSYM    DATA     BYTE      P7
      000000E8H   SFRSYM    DATA     BYTE      P6
      000000C8H   SFRSYM    DATA     BYTE      P5
      000000C0H   SFRSYM    DATA     BYTE      P4
      000000ABH   SFRSYM    DATA     BYTE      WKTCH
      000000B0H   SFRSYM    DATA     BYTE      P3
      000000A0H   SFRSYM    DATA     BYTE      P2
      00000090H   SFRSYM    DATA     BYTE      P1
      00000080H   SFRSYM    DATA     BYTE      P0

      00FFC948H   BLOCK     CODE     ---       LVL=0
      00FFC948H   LINE      CODE     ---       #2
      00FFC948H   LINE      CODE     ---       #4
      00FFC958H   LINE      CODE     ---       #5
      ---         BLOCKEND  ---      ---       LVL=0
L251 LINKER/LOCATER V4.66.93.0                                                        11/08/2025  20:32:40  PAGE 151



      00FF01BEH   BLOCK     CODE     ---       LVL=0
      00FF01BEH   LINE      CODE     ---       #6
      00FF01BEH   LINE      CODE     ---       #8
      00FF01C7H   LINE      CODE     ---       #9
      ---         BLOCKEND  ---      ---       LVL=0

      00FFC989H   BLOCK     CODE     ---       LVL=0
      00FFC989H   LINE      CODE     ---       #11
      00FFC989H   LINE      CODE     ---       #13
      00FFC991H   LINE      CODE     ---       #14
      ---         BLOCKEND  ---      ---       LVL=0

      ---         MODULE    ---      ---       ?C?DPADD
      00FF2225H   PUBLIC    CODE     ---       ?C?DPADD
      00FF2221H   PUBLIC    CODE     ---       ?C?DPSUB

      ---         MODULE    ---      ---       ?C?DPMUL
      00FF2334H   PUBLIC    CODE     ---       ?C?DPMUL

      ---         MODULE    ---      ---       ?C?DPDIV
      00FF2444H   PUBLIC    CODE     ---       ?C?DPDIV

      ---         MODULE    ---      ---       ?C?DPCMP
      00FF24E5H   PUBLIC    CODE     ---       ?C?DPCMP
      00FF24E3H   PUBLIC    CODE     ---       ?C?DPCMP3

      ---         MODULE    ---      ---       ?C?DPNEG
      00FF2544H   PUBLIC    CODE     ---       ?C?DPNEG

      ---         MODULE    ---      ---       ?C?DCAST
      00FF255CH   PUBLIC    CODE     NEAR LAB  ?C?DCASTC
      00FF2557H   PUBLIC    CODE     NEAR LAB  ?C?DCASTI
      00FF2552H   PUBLIC    CODE     NEAR LAB  ?C?DCASTL

      ---         MODULE    ---      ---       ?C?CASTD
      00FF259FH   PUBLIC    CODE     NEAR LAB  ?C?CASTD

      ---         MODULE    ---      ---       ?C?DCASTF
      00FF25FFH   PUBLIC    CODE     NEAR LAB  ?C?DCASTF

      ---         MODULE    ---      ---       ?C?FCASTD
      00FF2641H   PUBLIC    CODE     NEAR LAB  ?C?FCASTD

      ---         MODULE    ---      ---       PRINTF
      0001170CH   PUBLIC    XDATA    ---       ?PRINTF?BYTE
      00FF2678H   PUBLIC    CODE     NEAR LAB  PRINTF

      ---         MODULE    ---      ---       SPRINTF
      000116BDH   PUBLIC    XDATA    ---       ?SPRINTF?BYTE
      00FF26A4H   PUBLIC    CODE     NEAR LAB  SPRINTF

      ---         MODULE    ---      ---       SQRT?_
      00FF26CAH   PUBLIC    CODE     ---       SQRT?_

      ---         MODULE    ---      ---       pow

      ---         MODULE    ---      ---       SIN?_
      00FF2818H   PUBLIC    CODE     ---       COS?_
      00FF2839H   PUBLIC    CODE     ---       SIN?_
      00FF286EH   PUBLIC    CODE     ---       TAN?_

      ---         MODULE    ---      ---       ATAN?_
      00FF29B0H   PUBLIC    CODE     ---       ATAN?_

L251 LINKER/LOCATER V4.66.93.0                                                        11/08/2025  20:32:40  PAGE 152


      ---         MODULE    ---      ---       ASIN?_
      00FF2ACBH   PUBLIC    CODE     ---       ASIN?_

      ---         MODULE    ---      ---       ?C?DPGETOPN
      00FF2AF5H   PUBLIC    CODE     ---       ?C?DPGETOPN2
      00FF2B40H   PUBLIC    CODE     ---       ?C?DPNANRESULT
      00FF2B4CH   PUBLIC    CODE     ---       ?C?DPOVERFLOW
      00FF2B18H   PUBLIC    CODE     ---       ?C?DPRESULT
      00FF2B31H   PUBLIC    CODE     ---       ?C?DPRESULT2
      00FF2B47H   PUBLIC    CODE     ---       ?C?DPUNDERFLOW

      ---         MODULE    ---      ---       _CHKDOUBLE_?_
      00FF2B5AH   PUBLIC    CODE     ---       _CHKDOUBLE_?_

      ---         MODULE    ---      ---       ?C?PRNFMT
      00FF2BA5H   PUBLIC    CODE     ---       ?C?PRNFMT

      ---         MODULE    ---      ---       ?C?DPSERIES
      00FF2FD3H   PUBLIC    CODE     ---       ?C?DP2SERIES
      00FF2FDEH   PUBLIC    CODE     ---       ?C?DPSERIES

      ---         MODULE    ---      ---       EXP?_
      00FF30BAH   PUBLIC    CODE     ---       EXP?_

      ---         MODULE    ---      ---       LOG?_
      00FF31A3H   PUBLIC    CODE     NEAR LAB  LOG?_

      ---         MODULE    ---      ---       ?C?DPCONVERT
      00FF32BEH   PUBLIC    CODE     ---       ?C?DPCONVERT
      00FF33E5H   PUBLIC    CODE     ---       ?C?DPROUND

      ---         MODULE    ---      ---       ?C?DTNPWR
      00FF34C0H   PUBLIC    CODE     ---       ?C?DTNPWR

      ---         MODULE    ---      ---       ?C?FPGETOPN
      00FF3546H   PUBLIC    CODE     ---       ?C?FPGETOPN2
      00FF3583H   PUBLIC    CODE     ---       ?C?FPNANRESULT
      00FF358BH   PUBLIC    CODE     ---       ?C?FPOVERFLOW
      00FF355FH   PUBLIC    CODE     ---       ?C?FPRESULT
      00FF3575H   PUBLIC    CODE     ---       ?C?FPRESULT2
      00FF3588H   PUBLIC    CODE     ---       ?C?FPUNDERFLOW

      ---         MODULE    ---      ---       ?C?FPADD
      00FF359DH   PUBLIC    CODE     ---       ?C?FPADD
      00FF359AH   PUBLIC    CODE     ---       ?C?FPSUB

      ---         MODULE    ---      ---       ?C?FPMUL
      00FF3655H   PUBLIC    CODE     ---       ?C?FPMUL

      ---         MODULE    ---      ---       ?C?FPDIV
      00FF36F5H   PUBLIC    CODE     ---       ?C?FPDIV

      ---         MODULE    ---      ---       ?C?FPCMP
      00FF3778H   PUBLIC    CODE     ---       ?C?FPCMP
      00FF3776H   PUBLIC    CODE     ---       ?C?FPCMP3

      ---         MODULE    ---      ---       ?C?FPNEG
      00FF37BCH   PUBLIC    CODE     ---       ?C?FPNEG

      ---         MODULE    ---      ---       ?C?FCAST
      00FF37D4H   PUBLIC    CODE     NEAR LAB  ?C?FCASTC
      00FF37CFH   PUBLIC    CODE     NEAR LAB  ?C?FCASTI
      00FF37CAH   PUBLIC    CODE     NEAR LAB  ?C?FCASTL

      ---         MODULE    ---      ---       ?C?CASTF
L251 LINKER/LOCATER V4.66.93.0                                                        11/08/2025  20:32:40  PAGE 153


      00FF3807H   PUBLIC    CODE     NEAR LAB  ?C?CASTF

      ---         MODULE    ---      ---       ?C?INITHDATA
      00FFBEFFH   PUBLIC    CODE     ---       ?C?INITHDATA

      ---         MODULE    ---      ---       ?C?SIDIV
      00FF3844H   PUBLIC    CODE     ---       ?C?SIDIV

      ---         MODULE    ---      ---       ?C?LMUL
      00FF3876H   PUBLIC    CODE     ---       ?C?LMUL

      ---         MODULE    ---      ---       ?C?LIMUL
      00FF3887H   PUBLIC    CODE     ---       ?C?LIMUL

      ---         MODULE    ---      ---       ?C?ULDIV
      00FF3892H   PUBLIC    CODE     NEAR LAB  ?C?ULDIV
      00FF3890H   PUBLIC    CODE     NEAR LAB  ?C?ULIDIV

      ---         MODULE    ---      ---       ?C?SLDIV
      00FF38E3H   PUBLIC    CODE     NEAR LAB  ?C?SLDIV

      ---         MODULE    ---      ---       ?C?BMOVEPP
      00FF3919H   PUBLIC    CODE     ---       ?C?BMOVEPP
      00FF3917H   PUBLIC    CODE     ---       ?C?BMOVEPP8

      ---         MODULE    ---      ---       STRNCMP

      ---         MODULE    ---      ---       STRNCPY

      ---         MODULE    ---      ---       STRLEN

      ---         MODULE    ---      ---       STRCHR

      ---         MODULE    ---      ---       memcpy
      00FFC814H   PUBLIC    CODE     ---       memcpy?_

      ---         MODULE    ---      ---       memset

      ---         MODULE    ---      ---       ?C?INITHDATA_END
      00FFE0ECH   PUBLIC    HCONST   WORD      ?C?INITHDATA_END

Program Size: data=8.1 edata+hdata=1792 xdata=6535 const=10587 code=51570
L251 RUN COMPLETE.  0 WARNING(S),  0 ERROR(S)
